(lp0
ccopy_reg
_reconstructor
p1
(c__main__
Trainer
p2
c__builtin__
object
p3
Ntp4
Rp5
(dp6
VtSprite
p7
VSpr RS Sailor.png
p8
sVtClass
p9
VSailor
p10
sVtName
p11
VDuncan
p12
sVtMoney
p13
V832
p14
sVtPokeCount
p15
V2
p16
sVtLocation
p17
Vwiki/Abandoned_Ship
p18
sVtRegion
p19
VHoenn
p20
sVtGame
p21
VRS
p22
sVtPokes
p23
(lp24
g1
(c__main__
FinishedPokemon
p25
g3
Ntp26
Rp27
(dp28
VpDexNo
p29
V320
p30
sVpSpecies
p31
VWailmer
p32
sVpGender
p33
VM
p34
sVpLevel
p35
V26
p36
sVpMoves
p37
(lp38
Vwhirlpool
p39
aVastonish
p40
aVwater-spout
p41
aVwater-pulse
p42
asVpHold
p43
V
p44
sVpAbility
p45
Vwater-veil
p46
sbag1
(g25
g3
Ntp47
Rp48
(dp49
g29
V067
p50
sg31
VMachoke
p51
sg33
g34
sg35
V26
p52
sg37
(lp53
Vdynamic-punch
p54
aVvital-throw
p55
aVcross-chop
p56
aVrevenge
p57
asg43
g44
sg45
Vno-guard
p58
sbasVbossFlag
p59
I00
sVtLongGame
p60
Vruby-sapphire
p61
sbag1
(g2
g3
Ntp62
Rp63
(dp64
g7
VSpr RS Tuber M.png
p65
sg9
VTuber
p66
sg11
VCharlie
p67
sg13
V108
p68
sg15
V1
p69
sg17
g18
sg19
g20
sg21
g22
sg23
(lp70
g1
(g25
g3
Ntp71
Rp72
(dp73
g29
V183
p74
sg31
VMarill
p75
sg33
g34
sg35
V27
p76
sg37
(lp77
Vbubble-beam
p78
aVdefense-curl
p79
aVrollout
p80
aVrain-dance
p81
asg43
g44
sg45
Vhuge-power
p82
sbasg59
I00
sg60
g61
sbag1
(g2
g3
Ntp83
Rp84
(dp85
g7
VSpr RS Young Couple.png
p86
sg9
VYoung Couple
p87
sg11
VLois & Hal
p88
sg13
V1728
p89
sg15
g16
sg17
g18
sg19
g20
sg21
g22
sg23
(lp90
g1
(g25
g3
Ntp91
Rp92
(dp93
g29
V313
p94
sg31
VVolbeat
p95
sg33
g34
sg35
V27
p96
sg37
(lp97
Vmoonlight
p98
aVhelping-hand
p99
aVtail-glow
p100
aVsignal-beam
p101
asg43
g44
sg45
Villuminate
p102
sbag1
(g25
g3
Ntp103
Rp104
(dp105
g29
V314
p106
sg31
VIllumise
p107
sg33
VF
p108
sg35
V27
p109
sg37
(lp110
Vflatter
p111
aVhelping-hand
p112
aVwish
p113
aVcovet
p114
asg43
g44
sg45
Vtinted-lens
p115
sbasg59
I00
sg60
g61
sbag1
(g2
g3
Ntp116
Rp117
(dp118
g7
VSpr RS Young Couple.png
p119
sg9
VYoung Couple
p120
sg11
VLois & Hal
p121
sg13
g1
(cmwparserfromhell.wikicode
Wikicode
p122
g3
Ntp123
Rp124
(dp125
V_nodes
p126
g1
(cmwparserfromhell.smart_list.smart_list
SmartList
p127
c__builtin__
list
p128
(lp129
g1
(cmwparserfromhell.nodes.text
Text
p130
g3
Ntp131
Rp132
(dp133
V_value
p134
V1920
p135
sbatp136
Rp137
(dp138
V_children
p139
(dp140
sbsbsg15
g16
sg17
g18
sg19
g20
sg21
g22
sg23
(lp141
g1
(g25
g3
Ntp142
Rp143
(dp144
g29
V313
p145
sg31
VVolbeat
p146
sg33
g34
sg35
V30
p147
sg37
(lp148
Vmoonlight
p149
aVhelping-hand
p150
aVtail-glow
p151
aVsignal-beam
p152
asg43
g44
sg45
Villuminate
p153
sbag1
(g25
g3
Ntp154
Rp155
(dp156
g29
V314
p157
sg31
VIllumise
p158
sg33
g108
sg35
V30
p159
sg37
(lp160
Vflatter
p161
aVhelping-hand
p162
aVwish
p163
aVcovet
p164
asg43
g44
sg45
Voblivious
p165
sbasg59
I00
sg60
g61
sbag1
(g2
g3
Ntp166
Rp167
(dp168
g7
VSpr RS Beauty.png
p169
sg9
VBeauty
p170
sg11
VThalia
p171
sg13
V2000<br/><small>Potential [[Double Battle]] with Demetrius</small>
p172
sg15
g16
sg17
g18
sg19
g20
sg21
g22
sg23
(lp173
g1
(g25
g3
Ntp174
Rp175
(dp176
g29
V320
p177
sg31
VWailmer
p178
sg33
g108
sg35
V25
p179
sg37
(lp180
Vwhirlpool
p181
aVastonish
p182
aVwater-spout
p183
aVwater-pulse
p184
asg43
g44
sg45
Voblivious
p185
sbag1
(g25
g3
Ntp186
Rp187
(dp188
g29
V116
p189
sg31
VHorsea
p190
sg33
g108
sg35
V25
p191
sg37
(lp192
Vsmokescreen
p193
aVbubble
p194
aVtwister
p195
aVdragon-dance
p196
asg43
g44
sg45
Vsniper
p197
sbasg59
I00
sg60
g61
sbag1
(g2
g3
Ntp198
Rp199
(dp200
g7
VSpr RS Youngster.png
p201
sg9
VYoungster
p202
sg11
VDemetrius
p203
sg13
V400<br/><small>Potential [[Double Battle]] with Thalia</small>
p204
sg15
g16
sg17
g18
sg19
g20
sg21
g22
sg23
(lp205
g1
(g25
g3
Ntp206
Rp207
(dp208
g29
V263
p209
sg31
VZigzagoon
p210
sg33
g34
sg35
V25
p211
sg37
(lp212
Vbelly-drum
p213
aVmud-sport
p214
aVodor-sleuth
p215
aVcovet
p216
asg43
g44
sg45
Vpickup
p217
sbag1
(g25
g3
Ntp218
Rp219
(dp220
g29
V309
p221
sg31
VElectrike
p222
sg33
g34
sg35
V25
p223
sg37
(lp224
Vspark
p225
aVcharge
p226
aVodor-sleuth
p227
aVhowl
p228
asg43
g44
sg45
Vlightning-rod
p229
sbasg59
I00
sg60
g61
sbag1
(g2
g3
Ntp230
Rp231
(dp232
g7
VSpr RS Sailor.png
p233
sg9
VSailor
p234
sg11
VDuncan
p235
sg13
V800
p236
sg15
g16
sg17
g18
sg19
g20
sg21
g22
sg23
(lp237
g1
(g25
g3
Ntp238
Rp239
(dp240
g29
V363
p241
sg31
VSpheal
p242
sg33
g34
sg35
V25
p243
sg37
(lp244
Vencore
p245
aVhail
p246
aVice-ball
p247
aVsheer-cold
p248
asg43
g44
sg45
Vice-body
p249
sbag1
(g25
g3
Ntp250
Rp251
(dp252
g29
V067
p253
sg31
VMachoke
p254
sg33
g34
sg35
V25
p255
sg37
(lp256
Vdynamic-punch
p257
aVvital-throw
p258
aVcross-chop
p259
aVrevenge
p260
asg43
g44
sg45
Vguts
p261
sbasg59
I00
sg60
g61
sbag1
(g2
g3
Ntp262
Rp263
(dp264
g7
VSpr RS Tuber M.png
p265
sg9
VTuber
p266
sg11
VCharlie
p267
sg13
V104
p268
sg15
g69
sg17
g18
sg19
g20
sg21
g22
sg23
(lp269
g1
(g25
g3
Ntp270
Rp271
(dp272
g29
V183
p273
sg31
VMarill
p274
sg33
g34
sg35
V26
p275
sg37
(lp276
Vbubble-beam
p277
aVdefense-curl
p278
aVrollout
p279
aVrain-dance
p280
asg43
g44
sg45
Vhuge-power
p281
sbasg59
I00
sg60
g61
sbag1
(g2
g3
Ntp282
Rp283
(dp284
g7
VSpr RS Ruin Maniac.png
p285
sg9
VRuin Maniac
p286
sg11
VGarrison
p287
sg13
V1560<br/><small>Potential [[Double Battle]] with Jani</small>
p288
sg15
g69
sg17
g18
sg19
g20
sg21
g22
sg23
(lp289
g1
(g25
g3
Ntp290
Rp291
(dp292
g29
V028
p293
sg31
VSandslash
p294
sg33
g34
sg35
V26
p295
sg37
(lp296
Vfury-swipes
p297
aVslash
p298
aVsandstorm
p299
aVsand-tomb
p300
asg43
g44
sg45
Vsand-veil
p301
sbasg59
I00
sg60
g61
sbag1
(g2
g3
Ntp302
Rp303
(dp304
g7
VSpr RS Tuber F.png
p305
sg9
VTuber
p306
sg11
VJani
p307
sg13
V104<br/><small>Potential [[Double Battle]] with Garrison</small>
p308
sg15
g69
sg17
g18
sg19
g20
sg21
g22
sg23
(lp309
g1
(g25
g3
Ntp310
Rp311
(dp312
g29
V183
p313
sg31
VMarill
p314
sg33
g108
sg35
V26
p315
sg37
(lp316
Vbubble-beam
p317
aVdefense-curl
p318
aVrollout
p319
aVrain-dance
p320
asg43
g44
sg45
Vthick-fat
p321
sbasg59
I00
sg60
g61
sbag1
(g2
g3
Ntp322
Rp323
(dp324
g7
VSpr RS Young Couple.png
p325
sg9
VYoung Couple
p326
sg11
VKira & Dan
p327
sg13
V1600
p328
sg15
g16
sg17
g18
sg19
g20
sg21
g22
sg23
(lp329
g1
(g25
g3
Ntp330
Rp331
(dp332
g29
V313
p333
sg31
VVolbeat
p334
sg33
g34
sg35
V25
p335
sg37
(lp336
Vmoonlight
p337
aVhelping-hand
p338
aVtail-glow
p339
aVsignal-beam
p340
asg43
g44
sg45
Villuminate
p341
sbag1
(g25
g3
Ntp342
Rp343
(dp344
g29
V314
p345
sg31
VIllumise
p346
sg33
g108
sg35
V25
p347
sg37
(lp348
Vflatter
p349
aVhelping-hand
p350
aVwish
p351
aVcovet
p352
asg43
g44
sg45
Vtinted-lens
p353
sbasg59
I00
sg60
g61
sbag1
(g2
g3
Ntp354
Rp355
(dp356
g7
VSpr RS Beauty.png
p357
sg9
VBeauty
p358
sg11
VThalia{{tt|*|First rematch}}
p359
sg13
V2720
p360
sg15
g16
sg17
g18
sg19
g20
sg21
g22
sg23
(lp361
g1
(g25
g3
Ntp362
Rp363
(dp364
g29
V320
p365
sg31
VWailmer
p366
sg33
g108
sg35
V34
p367
sg37
(lp368
Vwhirlpool
p369
aVastonish
p370
aVwater-spout
p371
aVwater-pulse
p372
asg43
g44
sg45
Vwater-veil
p373
sbag1
(g25
g3
Ntp374
Rp375
(dp376
g29
V116
p377
sg31
VHorsea
p378
sg33
g108
sg35
V34
p379
sg37
(lp380
Vsmokescreen
p381
aVbubble
p382
aVtwister
p383
aVdragon-dance
p384
asg43
g44
sg45
Vswift-swim
p385
sbasg59
I00
sg60
g61
sbag1
(g2
g3
Ntp386
Rp387
(dp388
g7
VSpr RS Beauty.png
p389
sg9
VBeauty
p390
sg11
VThalia{{tt|*|Second and third rematch}}
p391
sg13
g1
(g122
g3
Ntp392
Rp393
(dp394
g126
g1
(g127
g128
(lp395
g1
(g130
g3
Ntp396
Rp397
(dp398
g134
V2880
p399
sbatp400
Rp401
(dp402
g139
(dp403
sbsbsg15
V3
p404
sg17
g18
sg19
g20
sg21
g22
sg23
(lp405
g1
(g25
g3
Ntp406
Rp407
(dp408
g29
V370
p409
sg31
VLuvdisc
p410
sg33
g108
sg35
V36
p411
sg37
(lp412
Vsweet-kiss
p413
aVcharm
p414
aVattract
p415
aVsafeguard
p416
asg43
g44
sg45
Vswift-swim
p417
sbag1
(g25
g3
Ntp418
Rp419
(dp420
g29
V320
p421
sg31
VWailmer
p422
sg33
g108
sg35
V36
p423
sg37
(lp424
Vwhirlpool
p425
aVastonish
p426
aVwater-spout
p427
aVwater-pulse
p428
asg43
g44
sg45
Vwater-veil
p429
sbag1
(g25
g3
Ntp430
Rp431
(dp432
g29
V117
p433
sg31
VSeadra
p434
sg33
g108
sg35
V36
p435
sg37
(lp436
Vsmokescreen
p437
aVbubble
p438
aVtwister
p439
aVdragon-dance
p440
asg43
g44
sg45
Vpoison-point
p441
sbasg59
I00
sg60
g61
sbag1
(g2
g3
Ntp442
Rp443
(dp444
g7
VSpr RS Beauty.png
p445
sg9
VBeauty
p446
sg11
VThalia{{tt|*|Fourth rematch onwards}}
p447
sg13
V3200
p448
sg15
g404
sg17
g18
sg19
g20
sg21
g22
sg23
(lp449
g1
(g25
g3
Ntp450
Rp451
(dp452
g29
V370
p453
sg31
VLuvdisc
p454
sg33
g108
sg35
V40
p455
sg37
(lp456
Vsweet-kiss
p457
aVcharm
p458
aVattract
p459
aVsafeguard
p460
asg43
g44
sg45
Vswift-swim
p461
sbag1
(g25
g3
Ntp462
Rp463
(dp464
g29
V321
p465
sg31
VWailord
p466
sg33
g108
sg35
V40
p467
sg37
(lp468
Vwhirlpool
p469
aVastonish
p470
aVwater-spout
p471
aVwater-pulse
p472
asg43
g44
sg45
Voblivious
p473
sbag1
(g25
g3
Ntp474
Rp475
(dp476
g29
V230
p477
sg31
VKingdra
p478
sg33
g108
sg35
V40
p479
sg37
(lp480
Vsmokescreen
p481
aVbubble
p482
aVtwister
p483
aVdragon-dance
p484
asg43
g44
sg45
Vswift-swim
p485
sbasg59
I00
sg60
g61
sbag1
(g2
g3
Ntp486
Rp487
(dp488
g7
VSpr RS Young Couple.png
p489
sg9
VYoung Couple
p490
sg11
VKira & Dan
p491
sg13
g1
(g122
g3
Ntp492
Rp493
(dp494
g126
g1
(g127
g128
(lp495
g1
(g130
g3
Ntp496
Rp497
(dp498
g134
V1920
p499
sbatp500
Rp501
(dp502
g139
(dp503
sbsbsg15
g16
sg17
g18
sg19
g20
sg21
g22
sg23
(lp504
g1
(g25
g3
Ntp505
Rp506
(dp507
g29
V313
p508
sg31
VVolbeat
p509
sg33
g34
sg35
V30
p510
sg37
(lp511
Vmoonlight
p512
aVhelping-hand
p513
aVtail-glow
p514
aVsignal-beam
p515
asg43
g44
sg45
Vswarm
p516
sbag1
(g25
g3
Ntp517
Rp518
(dp519
g29
V314
p520
sg31
VIllumise
p521
sg33
g108
sg35
V30
p522
sg37
(lp523
Vflatter
p524
aVhelping-hand
p525
aVwish
p526
aVcovet
p527
asg43
g44
sg45
Voblivious
p528
sbasg59
I00
sg60
g61
sba.