(lp0
ccopy_reg
_reconstructor
p1
(c__main__
Trainer
p2
c__builtin__
object
p3
Ntp4
Rp5
(dp6
VtSprite
p7
VSpr BW Youngster.png
p8
sVtClass
p9
VYoungster
p10
sVtName
p11
VWes
p12
sVtMoney
p13
V976
p14
sVtPokeCount
p15
V5
p16
sVtLocation
p17
Vwiki/Abundant_Shrine
p18
sVtRegion
p19
VUnova
p20
sVtGame
p21
VBW
p22
sVtPokes
p23
(lp24
g1
(c__main__
FinishedPokemon
p25
g3
Ntp26
Rp27
(dp28
VpDexNo
p29
V010
p30
sVpSpecies
p31
VCaterpie
p32
sVpGender
p33
VM
p34
sVpLevel
p35
V61
p36
sVpMoves
p37
(lp38
Vtackle
p39
aVstring-shot
p40
aVbug-bite
p41
asVpHold
p42
V
p43
sVpAbility
p44
Vshield-dust
p45
sbag1
(g25
g3
Ntp46
Rp47
(dp48
g29
V167
p49
sg31
VSpinarak
p50
sg33
g34
sg35
V61
p51
sg37
(lp52
Vsucker-punch
p53
aVpoison-jab
p54
aVshadow-sneak
p55
aVcross-poison
p56
asg42
g43
sg44
Vswarm
p57
sbag1
(g25
g3
Ntp58
Rp59
(dp60
g29
V204
p61
sg31
VPineco
p62
sg33
g34
sg35
V61
p63
sg37
(lp64
Vgyro-ball
p65
aVnatural-gift
p66
aVpayback
p67
aVbug-bite
p68
asg42
g43
sg44
Vsturdy
p69
sbag1
(g25
g3
Ntp70
Rp71
(dp72
g29
V284
p73
sg31
VMasquerain
p74
sg33
g34
sg35
V61
p75
sg37
(lp76
Vair-slash
p77
aVbug-buzz
p78
aVominous-wind
p79
aVquiver-dance
p80
asg42
g43
sg44
Vintimidate
p81
sbag1
(g25
g3
Ntp82
Rp83
(dp84
g29
V545
p85
sg31
VScolipede
p86
sg33
g34
sg35
V61
p87
sg37
(lp88
Vrock-climb
p89
aVbug-bite
p90
aVvenoshock
p91
aVsteamroller
p92
asg42
g43
sg44
Vswarm
p93
sbasVbossFlag
p94
I00
sVtLongGame
p95
Vblack-white
p96
sbag1
(g2
g3
Ntp97
Rp98
(dp99
g7
VSpr BW Lass.png
p100
sg9
VLass
p101
sg11
VLurleen
p102
sg13
V1008
p103
sg15
V3
p104
sg17
g18
sg19
g20
sg21
g22
sg23
(lp105
g1
(g25
g3
Ntp106
Rp107
(dp108
g29
V116
p109
sg31
VHorsea
p110
sg33
VF
p111
sg35
V63
p112
sg37
(lp113
Vtwister
p114
aVdragon-dance
p115
aVbrine
p116
aVdragon-pulse
p117
asg42
g43
sg44
Vsniper
p118
sbag1
(g25
g3
Ntp119
Rp120
(dp121
g29
V191
p122
sg31
VSunkern
p123
sg33
g111
sg35
V63
p124
sg37
(lp125
Vendeavor
p126
aVgrass-whistle
p127
aVworry-seed
p128
aVseed-bomb
p129
asg42
g43
sg44
Vsolar-power
p130
sbag1
(g25
g3
Ntp131
Rp132
(dp133
g29
V077
p134
sg31
VPonyta
p135
sg33
g111
sg35
V63
p136
sg37
(lp137
Vbounce
p138
aVflare-blitz
p139
aVflame-charge
p140
aVinferno
p141
asg42
g43
sg44
Vrun-away
p142
sbasg94
I00
sg95
g96
sbag1
(g2
g3
Ntp143
Rp144
(dp145
g7
VSpr BW Lass.png
p146
sg9
VLass
p147
sg11
VMaki
p148
sg13
V1008
p149
sg15
g104
sg17
g18
sg19
g20
sg21
g22
sg23
(lp150
g1
(g25
g3
Ntp151
Rp152
(dp153
g29
V412
p154
sg31
VBurmy
p155
sg33
g111
sg35
V63
p156
sg37
(lp157
Vtackle
p158
aVprotect
p159
aVhidden-power
p160
aVbug-bite
p161
asg42
g43
sg44
Vshed-skin
p162
sbag1
(g25
g3
Ntp163
Rp164
(dp165
g29
V114
p166
sg31
VTangela
p167
sg33
g111
sg35
V63
p168
sg37
(lp169
Vtickle
p170
aVnatural-gift
p171
aVwring-out
p172
aVpower-whip
p173
asg42
g43
sg44
Vleaf-guard
p174
sbag1
(g25
g3
Ntp175
Rp176
(dp177
g29
V586{{#switch: {{#time: F}}|February|June|October=S|March|July|November=A|April|August|December=W}}
p178
sg31
VSawsbuck
p179
sg33
g111
sg35
V63
p180
sg37
(lp181
Vcamouflage
p182
aVaromatherapy
p183
aVenergy-ball
p184
aVhorn-leech
p185
asg42
g43
sg44
Vsap-sipper
p186
sbasg94
I00
sg95
g96
sbag1
(g2
g3
Ntp187
Rp188
(dp189
g7
VSpr BW Youngster.png
p190
sg9
VYoungster
p191
sg11
VLester
p192
sg13
V1008
p193
sg15
g104
sg17
g18
sg19
g20
sg21
g22
sg23
(lp194
g1
(g25
g3
Ntp195
Rp196
(dp197
g29
V193
p198
sg31
VYanma
p199
sg33
g34
sg35
V63
p200
sg37
(lp201
Vuproar
p202
aVu-turn
p203
aVair-slash
p204
aVbug-buzz
p205
asg42
g43
sg44
Vspeed-boost
p206
sbag1
(g25
g3
Ntp207
Rp208
(dp209
g29
V165
p210
sg31
VLedyba
p211
sg33
g34
sg35
V63
p212
sg37
(lp213
Vsafeguard
p214
aVbaton-pass
p215
aVsilver-wind
p216
aVbug-buzz
p217
asg42
g43
sg44
Vswarm
p218
sbag1
(g25
g3
Ntp219
Rp220
(dp221
g29
V291
p222
sg31
VNinjask
p223
sg33
g34
sg35
V63
p224
sg37
(lp225
Vfury-cutter
p226
aVbaton-pass
p227
aVx-scissor
p228
aVbug-bite
p229
asg42
g43
sg44
Vspeed-boost
p230
sbasg94
I00
sg95
g96
sbag1
(g2
g3
Ntp231
Rp232
(dp233
g7
VSpr B2W2 Youngster.png
p234
sg9
VYoungster
p235
sg11
VWes
p236
sg13
g1
(cmwparserfromhell.wikicode
Wikicode
p237
g3
Ntp238
Rp239
(dp240
V_nodes
p241
g1
(cmwparserfromhell.smart_list.smart_list
SmartList
p242
c__builtin__
list
p243
(lp244
g1
(cmwparserfromhell.nodes.text
Text
p245
g3
Ntp246
Rp247
(dp248
V_value
p249
V624
p250
sbatp251
Rp252
(dp253
V_children
p254
(dp255
sbsbsg15
V2
p256
sg17
g18
sg19
g20
sg21
VB2W2
p257
sg23
(lp258
g1
(g25
g3
Ntp259
Rp260
(dp261
g29
V451
p262
sg31
VSkorupi
p263
sg33
g34
sg35
V39
p264
sg37
(lp265
Vcross-poison
p266
aVbug-bite
p267
aVhone-claws
p268
aVvenoshock
p269
asg42
g43
sg44
Vsniper
p270
sbag1
(g25
g3
Ntp271
Rp272
(dp273
g29
V336
p274
sg31
VSeviper
p275
sg33
g34
sg35
V39
p276
sg37
(lp277
Vpoison-jab
p278
aVnight-slash
p279
aVvenoshock
p280
aVcoil
p281
asg42
g43
sg44
Vshed-skin
p282
sbasg94
I00
sg95
Vblack-2-white-2
p283
sbag1
(g2
g3
Ntp284
Rp285
(dp286
g7
VSpr B2W2 Twins.png
p287
sg9
VTwins
p288
sg11
VRae & Ula
p289
sg13
g1
(g237
g3
Ntp290
Rp291
(dp292
g241
g1
(g242
g243
(lp293
g1
(g245
g3
Ntp294
Rp295
(dp296
g249
V608
p297
sbatp298
Rp299
(dp300
g254
(dp301
sbsbsg15
g256
sg17
g18
sg19
g20
sg21
g257
sg23
(lp302
g1
(g25
g3
Ntp303
Rp304
(dp305
g29
V333
p306
sg31
VSwablu
p307
sg33
g111
sg35
V38
p308
sg37
(lp309
Vnatural-gift
p310
aVdragon-pulse
p311
aVround
p312
aVcotton-guard
p313
asg42
g43
sg44
Vnatural-cure
p314
sbag1
(g25
g3
Ntp315
Rp316
(dp317
g29
V333
p318
sg31
VSwablu
p319
sg33
g111
sg35
V38
p320
sg37
(lp321
Vnatural-gift
p322
aVdragon-pulse
p323
aVround
p324
aVcotton-guard
p325
asg42
g43
sg44
Vnatural-cure
p326
sbasg94
I00
sg95
g283
sbag1
(g2
g3
Ntp327
Rp328
(dp329
g7
VSpr B2W2 Lass.png
p330
sg9
VLass
p331
sg11
VLurleen
p332
sg13
g1
(g237
g3
Ntp333
Rp334
(dp335
g241
g1
(g242
g243
(lp336
g1
(g245
g3
Ntp337
Rp338
(dp339
g249
V624
p340
sbatp341
Rp342
(dp343
g254
(dp344
sbsbsg15
g256
sg17
g18
sg19
g20
sg21
g257
sg23
(lp345
g1
(g25
g3
Ntp346
Rp347
(dp348
g29
V585{{#switch: {{#time: F}}|February|June|October=S|March|July|November=A|April|August|December=W}}
p349
sg31
VDeerling
p350
sg33
g111
sg35
V39
p351
sg37
(lp352
Vnature-power
p353
aVcamouflage
p354
aVaromatherapy
p355
aVenergy-ball
p356
asg42
g43
sg44
Vsap-sipper
p357
sbag1
(g25
g3
Ntp358
Rp359
(dp360
g29
V335
p361
sg31
VZangoose
p362
sg33
g111
sg35
V39
p363
sg37
(lp364
Vcrush-claw
p365
aVclose-combat
p366
aVembargo
p367
aVx-scissor
p368
asg42
g43
sg44
Vimmunity
p369
sbasg94
I00
sg95
g283
sbag1
(g2
g3
Ntp370
Rp371
(dp372
g7
VSpr B2W2 Youngster.png
p373
sg9
VYoungster
p374
sg11
VJaye
p375
sg13
g1
(g237
g3
Ntp376
Rp377
(dp378
g241
g1
(g242
g243
(lp379
g1
(g245
g3
Ntp380
Rp381
(dp382
g249
V592
p383
sbatp384
Rp385
(dp386
g254
(dp387
sbsbsg15
V4
p388
sg17
g18
sg19
g20
sg21
g257
sg23
(lp389
g1
(g25
g3
Ntp390
Rp391
(dp392
g29
V588
p393
sg31
VKarrablast
p394
sg33
g34
sg35
V37
p395
sg37
(lp396
Vfalse-swipe
p397
aVfury-cutter
p398
aVx-scissor
p399
aVbug-buzz
p400
asg42
g43
sg44
Vshed-skin
p401
sbag1
(g25
g3
Ntp402
Rp403
(dp404
g29
V616
p405
sg31
VShelmet
p406
sg33
g34
sg35
V37
p407
sg37
(lp408
Vguard-swap
p409
aVbug-buzz
p410
aVfinal-gambit
p411
aVstruggle-bug
p412
asg42
g43
sg44
Vshell-armor
p413
sbag1
(g25
g3
Ntp414
Rp415
(dp416
g29
V595
p417
sg31
VJoltik
p418
sg33
g34
sg35
V37
p419
sg37
(lp420
Vdischarge
p421
aVbug-bite
p422
aVelectro-ball
p423
aVelectroweb
p424
asg42
g43
sg44
Vcompound-eyes
p425
sbag1
(g25
g3
Ntp426
Rp427
(dp428
g29
V545
p429
sg31
VScolipede
p430
sg33
g34
sg35
V37
p431
sg37
(lp432
Vrock-climb
p433
aVbug-bite
p434
aVvenoshock
p435
aVsteamroller
p436
asg42
g43
sg44
Vswarm
p437
sbasg94
I00
sg95
g283
sba.