(lp0
ccopy_reg
_reconstructor
p1
(c__main__
Trainer
p2
c__builtin__
object
p3
Ntp4
Rp5
(dp6
VtSprite
p7
VVSPreschooler M SM.png
p8
sVtClass
p9
VPreschooler
p10
sVtName
p11
VHunter
p12
sVtMoney
p13
V360
p14
sVtPokeCount
p15
V1
p16
sVtLocation
p17
Vwiki/Aether_House
p18
sVtRegion
p19
VAlola
p20
sVtGame
p21
VSM
p22
sVtPokes
p23
(lp24
g1
(c__main__
FinishedPokemon
p25
g3
Ntp26
Rp27
(dp28
VpDexNo
p29
V239
p30
sVpSpecies
p31
VElekid
p32
sVpGender
p33
VM
p34
sVpLevel
p35
V30
p36
sVpMoves
p37
(lp38
Vswift
p39
aVshock-wave
p40
aVdischarge
p41
aVelectro-ball
p42
asVpHold
p43
V
p44
sVpAbility
p45
Vstatic
p46
sbasVbossFlag
p47
I00
sVtLongGame
p48
Vsun-moon
p49
sbag1
(g2
g3
Ntp50
Rp51
(dp52
g7
VVSPreschooler M SM.png
p53
sg9
VPreschooler
p54
sg11
VHunter
p55
sg13
V384
p56
sg15
g16
sg17
g18
sg19
g20
sg21
g22
sg23
(lp57
g1
(g25
g3
Ntp58
Rp59
(dp60
g29
V239
p61
sg31
VElekid
p62
sg33
g34
sg35
V32
p63
sg37
(lp64
Vswift
p65
aVshock-wave
p66
aVdischarge
p67
aVelectro-ball
p68
asg43
g44
sg45
Vstatic
p69
sbasg47
I00
sg48
g49
sbag1
(g2
g3
Ntp70
Rp71
(dp72
g7
VVSGladion.png
p73
sg9
VTeam Skull
p74
sg11
VGladion
p75
sg13
V3,040
p76
sg15
I3
sg17
g18
sg19
g20
sg21
VSM
p77
sg23
(lp78
g1
(g25
g3
Ntp79
Rp80
(dp81
g29
I42
sg31
VGolbat
p82
sg33
g34
sg35
V37
p83
sg37
(lp84
VAcrobatics
p85
aVPoison Fang
p86
asg43
g44
sg45
VInner Focus
p87
sbag1
(g25
g3
Ntp88
Rp89
(dp90
g29
I215
sg31
VSneasel
p91
sg33
g34
sg35
V37
p92
sg37
(lp93
VIcy Wind
p94
aVMetal Claw
p95
aVFeint Attack
p96
aVQuick Attack
p97
asg43
g44
sg45
VInner Focus
p98
sbag1
(g25
g3
Ntp99
Rp100
(dp101
g29
I772
sg31
VType: Null
p102
sg33
VU
p103
sg35
V38
p104
sg37
(lp105
VPursuit
p106
aVCrush Claw
p107
aVX-Scissor
p108
asg43
g44
sg45
VBattle Armor
p109
sbasg47
I01
sg48
g49
sbag1
(g2
g3
Ntp110
Rp111
(dp112
g7
VVSGladion.png
p113
sg9
VTeam Skull
p114
sg11
VGladion
p115
sg13
V3,440
p116
sg15
I3
sg17
g18
sg19
g20
sg21
g77
sg23
(lp117
g1
(g25
g3
Ntp118
Rp119
(dp120
g29
I42
sg31
VGolbat
p121
sg33
g34
sg35
V42
p122
sg37
(lp123
VAcrobatics
p124
aVPoison Fang
p125
aVVenoshock
p126
asg43
g44
sg45
VInner Focus
p127
sbag1
(g25
g3
Ntp128
Rp129
(dp130
g29
I571
sg31
VZoroark
p131
sg33
g34
sg35
V42
p132
sg37
(lp133
VSnarl
p134
aVHyper Voice
p135
asg43
g44
sg45
VIllusion
p136
sbag1
(g25
g3
Ntp137
Rp138
(dp139
g29
I772
sg31
VType: Null
p140
sg33
g103
sg35
V43
p141
sg37
(lp142
VPursuit
p143
aVCrush Claw
p144
aVX-Scissor
p145
asg43
g44
sg45
VBattle Armor
p146
sbasg47
I01
sg48
g49
sbag1
(g2
g3
Ntp147
Rp148
(dp149
g7
VVSNanu 2.png
p150
sg9
VIsland Kahuna
p151
sg11
VNanu
p152
sg13
V8,480
p153
sg15
I3
sg17
g18
sg19
g20
sg21
VSM
p154
sg23
(lp155
g1
(g25
g3
Ntp156
Rp157
(dp158
g29
I302
sg31
VSableye
p159
sg33
VF
p160
sg35
V52
p161
sg37
(lp162
VPower Gem
p163
aVShadow Ball
p164
aVDark Pulse
p165
asg43
g44
sg45
VKeen Eye
p166
sbag1
(g25
g3
Ntp167
Rp168
(dp169
g29
I359
sg31
VAbsol
p170
sg33
g34
sg35
V52
p171
sg37
(lp172
VNight Slash
p173
aVPsycho Cut
p174
aVSucker Punch
p175
asg43
g44
sg45
VSuper Luck
p176
sbag1
(g25
g3
Ntp177
Rp178
(dp179
g29
I53
sg31
VPersian
p180
sg33
g160
sg35
V53
p181
sg37
(lp182
VPower Gem
p183
aVFake Out
p184
aVDark Pulse
p185
asg43
VDarkinium Z
p186
sg45
VFur Coat
p187
sbasg47
I01
sg48
g49
sba.