(lp0
ccopy_reg
_reconstructor
p1
(c__main__
Trainer
p2
c__builtin__
object
p3
Ntp4
Rp5
(dp6
VtSprite
p7
VVSFisherman SM.png
p8
sVtClass
p9
VFisherman
p10
sVtName
p11
VVernon
p12
sVtMoney
p13
V736
p14
sVtPokeCount
p15
V2
p16
sVtLocation
p17
Vwiki/Akala_Outskirts
p18
sVtRegion
p19
VAlola
p20
sVtGame
p21
VSM
p22
sVtPokes
p23
(lp24
g1
(c__main__
FinishedPokemon
p25
g3
Ntp26
Rp27
(dp28
VpDexNo
p29
V120
p30
sVpSpecies
p31
VStaryu
p32
sVpGender
p33
VU
p34
sVpLevel
p35
V23
p36
sVpMoves
p37
(lp38
Vgyro-ball
p39
aVbrine
p40
aVpower-gem
p41
aVreflect-type
p42
asVpHold
p43
V
p44
sVpAbility
p45
Villuminate
p46
sbag1
(g25
g3
Ntp47
Rp48
(dp49
g29
V130
p50
sg31
VGyarados
p51
sg33
VM
p52
sg35
V23
p53
sg37
(lp54
Vdragon-dance
p55
aVaqua-tail
p56
aVice-fang
p57
aVhurricane
p58
asg43
g44
sg45
Vintimidate
p59
sbasVbossFlag
p60
I00
sVtLongGame
p61
Vsun-moon
p62
sbag1
(g2
g3
Ntp63
Rp64
(dp65
g7
VVSBlack Belt SM.png
p66
sg9
VBlack Belt
p67
sg11
VKenji
p68
sg13
V768
p69
sg15
V1
p70
sg17
g18
sg19
g20
sg21
VSM
p71
sg23
(lp72
g1
(g25
g3
Ntp73
Rp74
(dp75
g29
V297
p76
sg31
VHariyama
p77
sg33
g52
sg35
V24
p78
sg37
(lp79
Vbrine
p80
aVclose-combat
p81
aVforce-palm
p82
aVheavy-slam
p83
asg43
g44
sg45
Vthick-fat
p84
sbasg60
I00
sg61
g62
sbag1
(g2
g3
Ntp85
Rp86
(dp87
g7
VVSFisherman SM.png
p88
sg9
VFisherman
p89
sg11
VVernon
p90
sg13
V768
p91
sg15
g70
sg17
g18
sg19
g20
sg21
g22
sg23
(lp92
sg60
I00
sg61
g62
sbag1
(g2
g3
Ntp93
Rp94
(dp95
g7
VVSBlack Belt SM.png
p96
sg9
VBlack Belt
p97
sg11
VKenji
p98
sg13
V800
p99
sg15
g70
sg17
g18
sg19
g20
sg21
g71
sg23
(lp100
g1
(g25
g3
Ntp101
Rp102
(dp103
g29
V739
p104
sg31
VCrabrawler
p105
sg33
g52
sg35
V25
p106
sg37
(lp107
Viron-defense
p108
aVclose-combat
p109
aVpayback
p110
aVpower-up-punch
p111
asg43
g44
sg45
Vhyper-cutter
p112
sbasg60
I00
sg61
g62
sbag1
(g2
g3
Ntp113
Rp114
(dp115
g7
VVSPlumeria.png
p116
sg9
VTeam Skull Admin
p117
sg11
VPlumeria
p118
sg13
V3,120
p119
sg15
I2
sg17
g18
sg19
g20
sg21
VSM
p120
sg23
(lp121
g1
(g25
g3
Ntp122
Rp123
(dp124
g29
I42
sg31
VGolbat
p125
sg33
VF
p126
sg35
V25
p127
sg37
(lp128
VAir Cutter
p129
aVConfuse Ray
p130
asg43
g44
sg45
VInner Focus
p131
sbag1
(g25
g3
Ntp132
Rp133
(dp134
g29
I757
sg31
VSalandit
p135
sg33
g126
sg35
V26
p136
sg37
(lp137
VFlame Burst
p138
aVDouble Slap
p139
aVPoison Gas
p140
asg43
g44
sg45
VCorrosion
p141
sbasg60
I01
sg61
g62
sbag1
(g2
g3
Ntp142
Rp143
(dp144
g7
VVSPlumeria.png
p145
sg9
VTeam Skull Admin
p146
sg11
VPlumeria
p147
sg13
V3,240
p148
sg15
I2
sg17
g18
sg19
g20
sg21
g120
sg23
(lp149
g1
(g25
g3
Ntp150
Rp151
(dp152
g29
I42
sg31
VGolbat
p153
sg33
g126
sg35
V26
p154
sg37
(lp155
VPoison Fang
p156
aVWing Attack
p157
aVConfuse Ray
p158
asg43
g44
sg45
VInner Focus
p159
sbag1
(g25
g3
Ntp160
Rp161
(dp162
g29
I757
sg31
VSalandit
p163
sg33
g126
sg35
V27
p164
sg37
(lp165
VFlame Burst
p166
aVDragon Rage
p167
aVPoison Gas
p168
asg43
g44
sg45
VCorrosion
p169
sbasg60
I01
sg61
g62
sba.