(lp0
ccopy_reg
_reconstructor
p1
(c__main__
Trainer
p2
c__builtin__
object
p3
Ntp4
Rp5
(dp6
VtSprite
p7
VVSFisherman SM.png
p8
sVtClass
p9
VFisherman
p10
sVtName
p11
VHisato
p12
sVtMoney
p13
V992
p14
sVtPokeCount
p15
V2
p16
sVtLocation
p17
Vwiki/Alola_Route_14
p18
sVtRegion
p19
VAlola
p20
sVtGame
p21
VSM
p22
sVtPokes
p23
(lp24
g1
(c__main__
FinishedPokemon
p25
g3
Ntp26
Rp27
(dp28
VpDexNo
p29
V349
p30
sVpSpecies
p31
VFeebas
p32
sVpGender
p33
VM
p34
sVpLevel
p35
V30
p36
sVpMoves
p37
(lp38
Vtackle
p39
aVsplash
p40
aVflail
p41
asVpHold
p42
V
p43
sVpAbility
p44
Voblivious
p45
sbag1
(g25
g3
Ntp46
Rp47
(dp48
g29
V130
p49
sg31
VGyarados
p50
sg33
g34
sg35
V31
p51
sg37
(lp52
Vdragon-dance
p53
aVaqua-tail
p54
aVice-fang
p55
aVhurricane
p56
asg42
g43
sg44
Vintimidate
p57
sbasVbossFlag
p58
I00
sVtLongGame
p59
Vsun-moon
p60
sbag1
(g2
g3
Ntp61
Rp62
(dp63
g7
VVSCollector SM.png
p64
sg9
VCollector
p65
sg11
VKawika
p66
sg13
V992
p67
sg15
g16
sg17
g18
sg19
g20
sg21
VSM
p68
sg23
(lp69
g1
(g25
g3
Ntp70
Rp71
(dp72
g29
V777
p73
sg31
VTogedemaru
p74
sg33
g34
sg35
V30
p75
sg37
(lp76
Vspiky-shield
p77
aVelectric-terrain
p78
aVnuzzle
p79
aVzing-zap
p80
asg42
g43
sg44
Viron-barbs
p81
sbag1
(g25
g3
Ntp82
Rp83
(dp84
g29
V444
p85
sg31
VGabite
p86
sg33
g34
sg35
V31
p87
sg37
(lp88
Vsand-tomb
p89
aVdragon-claw
p90
aVdragon-rush
p91
aVdual-chop
p92
asg42
g43
sg44
Vsand-veil
p93
sbasg58
I00
sg59
g60
sbag1
(g2
g3
Ntp94
Rp95
(dp96
g7
VVSSwimmer M SM.png
p97
sg9
VSwimmer
p98
sg11
VKeoni
p99
sg13
V744
p100
sg15
V1
p101
sg17
g18
sg19
g20
sg21
VSM
p102
sg23
(lp103
g1
(g25
g3
Ntp104
Rp105
(dp106
g29
V771
p107
sg31
VPyukumuku
p108
sg33
g34
sg35
V31
p109
sg37
(lp110
Vwater-sport
p111
aVgastro-acid
p112
aVsoak
p113
aVpurify
p114
asg42
g43
sg44
Vinnards-out
p115
sbasg58
I00
sg59
g60
sbag1
(g2
g3
Ntp116
Rp117
(dp118
g7
VVSFisherman SM.png
p119
sg9
VFisherman
p120
sg11
VHisato
p121
sg13
V1,088
p122
sg15
g16
sg17
g18
sg19
g20
sg21
g22
sg23
(lp123
g1
(g25
g3
Ntp124
Rp125
(dp126
g29
V349
p127
sg31
VFeebas
p128
sg33
g34
sg35
V34
p129
sg37
(lp130
Vtackle
p131
aVsplash
p132
aVflail
p133
asg42
g43
sg44
Vswift-swim
p134
sbag1
(g25
g3
Ntp135
Rp136
(dp137
g29
V130
p138
sg31
VGyarados
p139
sg33
g34
sg35
V34
p140
sg37
(lp141
Vdragon-dance
p142
aVaqua-tail
p143
aVice-fang
p144
aVhurricane
p145
asg42
g43
sg44
Vintimidate
p146
sbasg58
I00
sg59
g60
sbag1
(g2
g3
Ntp147
Rp148
(dp149
g7
VVSCollector SM.png
p150
sg9
VCollector
p151
sg11
VKawika
p152
sg13
V1,088
p153
sg15
g101
sg17
g18
sg19
g20
sg21
g68
sg23
(lp154
g1
(g25
g3
Ntp155
Rp156
(dp157
g29
V246
p158
sg31
VLarvitar
p159
sg33
g34
sg35
V34
p160
sg37
(lp161
Vpayback
p162
aVdark-pulse
p163
aVstone-edge
p164
aVchip-away
p165
asg42
g43
sg44
Vguts
p166
sbasg58
I00
sg59
g60
sbag1
(g2
g3
Ntp167
Rp168
(dp169
g7
VVSVeteran M SM.png
p170
sg9
VVeteran
p171
sg11
VBrone
p172
sg13
V3,168
p173
sg15
g16
sg17
g18
sg19
g20
sg21
VSM
p174
sg23
(lp175
g1
(g25
g3
Ntp176
Rp177
(dp178
g29
V340
p179
sg31
VWhiscash
p180
sg33
g34
sg35
V36
p181
sg37
(lp182
Vaqua-tail
p183
aVmud-bomb
p184
aVzen-headbutt
p185
aVbelch
p186
asg42
g43
sg44
Vanticipation
p187
sbag1
(g25
g3
Ntp188
Rp189
(dp190
g29
V430
p191
sg31
VHonchkrow
p192
sg33
g34
sg35
V36
p193
sg37
(lp194
Vnight-slash
p195
aVnasty-plot
p196
aVfoul-play
p197
aVquash
p198
asg42
g43
sg44
Vsuper-luck
p199
sbasg58
I00
sg59
g60
sbag1
(g2
g3
Ntp200
Rp201
(dp202
g7
VVSSwimmer M SM.png
p203
sg9
VSwimmer
p204
sg11
VKeoni
p205
sg13
V816
p206
sg15
g101
sg17
g18
sg19
g20
sg21
g102
sg23
(lp207
g1
(g25
g3
Ntp208
Rp209
(dp210
g29
V771
p211
sg31
VPyukumuku
p212
sg33
g34
sg35
V34
p213
sg37
(lp214
Vwater-sport
p215
aVgastro-acid
p216
aVsoak
p217
aVpurify
p218
asg42
g43
sg44
Vinnards-out
p219
sbasg58
I00
sg59
g60
sba.