(lp0
ccopy_reg
_reconstructor
p1
(c__main__
Trainer
p2
c__builtin__
object
p3
Ntp4
Rp5
(dp6
VtSprite
p7
VVSSwimmer M SM.png
p8
sVtClass
p9
VSwimmer
p10
sVtName
p11
VDakota
p12
sVtMoney
p13
V456
p14
sVtPokeCount
p15
V2
p16
sVtLocation
p17
Vwiki/Alola_Route_7
p18
sVtRegion
p19
VAlola
p20
sVtGame
p21
VSM
p22
sVtPokes
p23
(lp24
g1
(c__main__
FinishedPokemon
p25
g3
Ntp26
Rp27
(dp28
VpDexNo
p29
V283
p30
sVpSpecies
p31
VSurskit
p32
sVpGender
p33
VM
p34
sVpLevel
p35
V19
p36
sVpMoves
p37
(lp38
Vsweet-scent
p39
aVwater-sport
p40
aVaqua-jet
p41
aVsticky-web
p42
asVpHold
p43
V
p44
sVpAbility
p45
Vswift-swim
p46
sbag1
(g25
g3
Ntp47
Rp48
(dp49
g29
V751
p50
sg31
VDewpider
p51
sg33
g34
sg35
V19
p52
sg37
(lp53
Ventrainment
p54
aVinfestation
p55
aVlunge
p56
aVliquidation
p57
asg43
g44
sg45
Vwater-bubble
p58
sbasVbossFlag
p59
I00
sVtLongGame
p60
Vsun-moon
p61
sbag1
(g2
g3
Ntp62
Rp63
(dp64
g7
VVSSwimmer F yellow SM.png
p65
sg9
VSwimmer
p66
sg11
VTiare
p67
sg13
V456
p68
sg15
V1
p69
sg17
g18
sg19
g20
sg21
VSM
p70
sg23
(lp71
g1
(g25
g3
Ntp72
Rp73
(dp74
g29
V594
p75
sg31
VAlomomola
p76
sg33
VF
p77
sg35
V19
p78
sg37
(lp79
Vwide-guard
p80
aVsoak
p81
aVheal-pulse
p82
aVplay-nice
p83
asg43
g44
sg45
Vhydration
p84
sbasg59
I00
sg60
g61
sbag1
(g2
g3
Ntp85
Rp86
(dp87
g7
VVSSwimmer M SM.png
p88
sg9
VSwimmer
p89
sg11
VCasey
p90
sg13
V456
p91
sg15
g69
sg17
g18
sg19
g20
sg21
g22
sg23
(lp92
g1
(g25
g3
Ntp93
Rp94
(dp95
g29
V747
p96
sg31
VMareanie
p97
sg33
g34
sg35
V19
p98
sg37
(lp99
Vwide-guard
p100
aVvenoshock
p101
aVvenom-drench
p102
aVliquidation
p103
asg43
g44
sg45
Vlimber
p104
sbasg59
I00
sg60
g61
sbag1
(g2
g3
Ntp105
Rp106
(dp107
g7
VVSSwimmer F black SM.png
p108
sg9
VSwimmer
p109
sg11
VVanessa
p110
sg13
V456
p111
sg15
g16
sg17
g18
sg19
g20
sg21
VSM
p112
sg23
(lp113
g1
(g25
g3
Ntp114
Rp115
(dp116
g29
V090
p117
sg31
VShellder
p118
sg33
g77
sg35
V18
p119
sg37
(lp120
Vbrine
p121
aVice-shard
p122
aVshell-smash
p123
aVrazor-shell
p124
asg43
g44
sg45
Vskill-link
p125
sbag1
(g25
g3
Ntp126
Rp127
(dp128
g29
V222
p129
sg31
VCorsola
p130
sg33
g77
sg35
V19
p131
sg37
(lp132
Vlucky-chant
p133
aVaqua-ring
p134
aVpower-gem
p135
aVearth-power
p136
asg43
g44
sg45
Vnatural-cure
p137
sbasg59
I00
sg60
g61
sbag1
(g2
g3
Ntp138
Rp139
(dp140
g7
VVSSwimmer M SM.png
p141
sg9
VSwimmer
p142
sg11
VDakota
p143
sg13
V432
p144
sg15
g16
sg17
g18
sg19
g20
sg21
g22
sg23
(lp145
sg59
I00
sg60
g61
sbag1
(g2
g3
Ntp146
Rp147
(dp148
g7
VVSSwimmer F yellow SM.png
p149
sg9
VSwimmer
p150
sg11
VTiare
p151
sg13
V456
p152
sg15
g69
sg17
g18
sg19
g20
sg21
g70
sg23
(lp153
g1
(g25
g3
Ntp154
Rp155
(dp156
g29
V594
p157
sg31
VAlomomola
p158
sg33
g77
sg35
V19
p159
sg37
(lp160
Vwide-guard
p161
aVsoak
p162
aVheal-pulse
p163
aVplay-nice
p164
asg43
g44
sg45
Vhealer
p165
sbasg59
I00
sg60
g61
sbag1
(g2
g3
Ntp166
Rp167
(dp168
g7
VVSSwimmer M SM.png
p169
sg9
VSwimmer
p170
sg11
VCasey
p171
sg13
V432
p172
sg15
g69
sg17
g18
sg19
g20
sg21
g22
sg23
(lp173
g1
(g25
g3
Ntp174
Rp175
(dp176
g29
V283
p177
sg31
VSurskit
p178
sg33
g34
sg35
V18
p179
sg37
(lp180
Vsweet-scent
p181
aVwater-sport
p182
aVaqua-jet
p183
aVsticky-web
p184
asg43
g44
sg45
Vswift-swim
p185
sbasg59
I00
sg60
g61
sbag1
(g2
g3
Ntp186
Rp187
(dp188
g7
VVSSwimmer F black SM.png
p189
sg9
VSwimmer
p190
sg11
VVanessa
p191
sg13
V432
p192
sg15
g69
sg17
g18
sg19
g20
sg21
g112
sg23
(lp193
g1
(g25
g3
Ntp194
Rp195
(dp196
g29
V090
p197
sg31
VShellder
p198
sg33
g77
sg35
V18
p199
sg37
(lp200
Vbrine
p201
aVice-shard
p202
aVshell-smash
p203
aVrazor-shell
p204
asg43
g44
sg45
Vskill-link
p205
sbasg59
I00
sg60
g61
sba.