(lp0
ccopy_reg
_reconstructor
p1
(c__main__
Trainer
p2
c__builtin__
object
p3
Ntp4
Rp5
(dp6
VtSprite
p7
VVSBellhop.png
p8
sVtClass
p9
VBellhop
p10
sVtName
p11
VJody
p12
sVtMoney
p13
V560
p14
sVtPokeCount
p15
V1
p16
sVtLocation
p17
Vwiki/Alola_Route_4
p18
sVtRegion
p19
VAlola
p20
sVtGame
p21
VSM
p22
sVtPokes
p23
(lp24
g1
(c__main__
FinishedPokemon
p25
g3
Ntp26
Rp27
(dp28
VpDexNo
p29
V425
p30
sVpSpecies
p31
VDrifloon
p32
sVpGender
p33
VM
p34
sVpLevel
p35
V14
p36
sVpMoves
p37
(lp38
Vastonish
p39
aVpayback
p40
aVominous-wind
p41
aVhex
p42
asVpHold
p43
V
p44
sVpAbility
p45
Vaftermath
p46
sbasVbossFlag
p47
I00
sVtLongGame
p48
Vsun-moon
p49
sbag1
(g2
g3
Ntp50
Rp51
(dp52
g7
VVSCollector SM.png
p53
sg9
VCollector
p54
sg11
VBryan
p55
sg13
V448
p56
sg15
V2
p57
sg17
g18
sg19
g20
sg21
VSM
p58
sg23
(lp59
g1
(g25
g3
Ntp60
Rp61
(dp62
g29
V446
p63
sg31
VMunchlax
p64
sg33
g34
sg35
V13
p65
sg37
(lp66
Vfling
p67
aVlast-resort
p68
ag68
aVchip-away
p69
asg43
g44
sg45
Vpickup
p70
sbag1
(g25
g3
Ntp71
Rp72
(dp73
g29
V371
p74
sg31
VBagon
p75
sg33
g34
sg35
V14
p76
sg37
(lp77
Vdragon-breath
p78
aVcrunch
p79
aVdragon-claw
p80
aVzen-headbutt
p81
asg43
g44
sg45
Vrock-head
p82
sbasg47
I00
sg48
g49
sbag1
(g2
g3
Ntp83
Rp84
(dp85
g7
VVSSightseer M SM.png
p86
sg9
VSightseer
p87
sg11
VScotty
p88
sg13
V840
p89
sg15
g16
sg17
g18
sg19
g20
sg21
VSM
p90
sg23
(lp91
g1
(g25
g3
Ntp92
Rp93
(dp94
g29
V019
p95
sg31
VRattata
p96
sg33
g34
sg35
V14
p97
sg37
(lp98
Vcrunch
p99
aVendeavor
p100
aVassurance
p101
aVsucker-punch
p102
asg43
g44
sg45
Vrun-away
p103
sbasg47
I00
sg48
g49
sbag1
(g2
g3
Ntp104
Rp105
(dp106
g7
VVSCook SM.png
p107
sg9
VCook
p108
sg11
VErnie
p109
sg13
V560
p110
sg15
g16
sg17
g18
sg19
g20
sg21
VSM
p111
sg23
(lp112
g1
(g25
g3
Ntp113
Rp114
(dp115
g29
V742
p116
sg31
VCutiefly
p117
sg33
g34
sg35
V14
p118
sg37
(lp119
Vstruggle-bug
p120
aVdraining-kiss
p121
aVfairy-wind
p122
aVdazzling-gleam
p123
asg43
g44
sg45
Vshield-dust
p124
sbasg47
I00
sg48
g49
sbag1
(g2
g3
Ntp125
Rp126
(dp127
g7
VVSBellhop.png
p128
sg9
VBellhop
p129
sg11
VJody
p130
sg13
V560
p131
sg15
g16
sg17
g18
sg19
g20
sg21
g22
sg23
(lp132
g1
(g25
g3
Ntp133
Rp134
(dp135
g29
V753
p136
sg31
VFomantis
p137
sg33
g34
sg35
V14
p138
sg37
(lp139
Vsunny-day
p140
aVingrain
p141
aVleaf-blade
p142
aVleafage
p143
asg43
g44
sg45
Vleaf-guard
p144
sbasg47
I00
sg48
g49
sbag1
(g2
g3
Ntp145
Rp146
(dp147
g7
VVSCollector SM.png
p148
sg9
VCollector
p149
sg11
VBryan
p150
sg13
V448
p151
sg15
g57
sg17
g18
sg19
g20
sg21
g58
sg23
(lp152
g1
(g25
g3
Ntp153
Rp154
(dp155
g29
V446
p156
sg31
VMunchlax
p157
sg33
g34
sg35
V14
p158
sg37
(lp159
Vfling
p160
aVlast-resort
p161
ag161
aVchip-away
p162
asg43
g44
sg45
Vthick-fat
p163
sbag1
(g25
g3
Ntp164
Rp165
(dp166
g29
V371
p167
sg31
VBagon
p168
sg33
g34
sg35
V14
p169
sg37
(lp170
Vdragon-breath
p171
aVcrunch
p172
aVdragon-claw
p173
aVzen-headbutt
p174
asg43
g44
sg45
Vrock-head
p175
sbasg47
I00
sg48
g49
sbag1
(g2
g3
Ntp176
Rp177
(dp178
g7
VVSSightseer M SM.png
p179
sg9
VSightseer
p180
sg11
VScotty
p181
sg13
V840
p182
sg15
g16
sg17
g18
sg19
g20
sg21
g90
sg23
(lp183
g1
(g25
g3
Ntp184
Rp185
(dp186
g29
V019
p187
sg31
VRattata
p188
sg33
g34
sg35
V14
p189
sg37
(lp190
Vcrunch
p191
aVendeavor
p192
aVassurance
p193
aVsucker-punch
p194
asg43
g44
sg45
Vrun-away
p195
sbasg47
I00
sg48
g49
sbag1
(g2
g3
Ntp196
Rp197
(dp198
g7
VVSSightseer F SM.png
p199
sg9
VSightseer
p200
sg11
VPerdita
p201
sg13
V840
p202
sg15
g16
sg17
g18
sg19
g20
sg21
VSM
p203
sg23
(lp204
g1
(g25
g3
Ntp205
Rp206
(dp207
g29
V052
p208
sg31
VMeowth
p209
sg33
VF
p210
sg35
V14
p211
sg37
(lp212
Vassurance
p213
aVnight-slash
p214
aVnasty-plot
p215
aVcaptivate
p216
asg43
g44
sg45
Vtechnician
p217
sbasg47
I00
sg48
g49
sbag1
(g2
g3
Ntp218
Rp219
(dp220
g7
VVSCook SM.png
p221
sg9
VCook
p222
sg11
VErnie
p223
sg13
V560
p224
sg15
g16
sg17
g18
sg19
g20
sg21
g111
sg23
(lp225
g1
(g25
g3
Ntp226
Rp227
(dp228
g29
V742
p229
sg31
VCutiefly
p230
sg33
g34
sg35
V14
p231
sg37
(lp232
Vstruggle-bug
p233
aVdraining-kiss
p234
aVfairy-wind
p235
aVdazzling-gleam
p236
asg43
g44
sg45
Vhoney-gather
p237
sbasg47
I00
sg48
g49
sba.