(lp0
ccopy_reg
_reconstructor
p1
(c__main__
Trainer
p2
c__builtin__
object
p3
Ntp4
Rp5
(dp6
VtSprite
p7
VVSAce Trainer M SM.png
p8
sVtClass
p9
VAce Trainer
p10
sVtName
p11
VYuki
p12
sVtMoney
p13
V2,244
p14
sVtPokeCount
p15
V2
p16
sVtLocation
p17
Vwiki/Alola_Route_15
p18
sVtRegion
p19
VAlola
p20
sVtGame
p21
VSM
p22
sVtPokes
p23
(lp24
g1
(c__main__
FinishedPokemon
p25
g3
Ntp26
Rp27
(dp28
VpDexNo
p29
V027A
p30
sVpSpecies
p31
VSandshrew
p32
sVpGender
p33
VM
p34
sVpLevel
p35
V32
p36
sVpMoves
p37
(lp38
Vmagnitude
p39
aVrapid-spin
p40
aVsand-tomb
p41
aVgyro-ball
p42
asVpHold
p43
V
p44
sVpAbility
p45
Vsand-veil
p46
sbag1
(g25
g3
Ntp47
Rp48
(dp49
g29
V105A
p50
sg31
VMarowak
p51
sg33
g34
sg35
V33
p52
sg37
(lp53
Vendeavor
p54
aVfling
p55
aVretaliate
p56
aVstomping-tantrum
p57
asg43
g44
sg45
Vrock-head
p58
sbasVbossFlag
p59
I00
sVtLongGame
p60
Vsun-moon
p61
sbag1
(g2
g3
Ntp62
Rp63
(dp64
g7
VVSTeam Skull Grunt M.png
p65
sg9
VTeam Skull Grunt
p66
sg11
g44
sg13
V1,056
p67
sg15
V1
p68
sg17
g18
sg19
g20
sg21
VSM
p69
sg23
(lp70
g1
(g25
g3
Ntp71
Rp72
(dp73
g29
V096
p74
sg31
VDrowzee
p75
sg33
g34
sg35
V33
p76
sg37
(lp77
Vnasty-plot
p78
aVzen-headbutt
p79
aVpsyshock
p80
aVsynchronoise
p81
asg43
g44
sg45
Vinsomnia
p82
sbasg59
I00
sg60
g61
sbag1
(g2
g3
Ntp83
Rp84
(dp85
g7
VVSAce Trainer F SM.png
p86
sg9
VAce Trainer
p87
sg11
VKarla
p88
sg13
V2,380
p89
sg15
V3
p90
sg17
g18
sg19
g20
sg21
VSM
p91
sg23
(lp92
g1
(g25
g3
Ntp93
Rp94
(dp95
g29
V037A
p96
sg31
VVulpix
p97
sg33
VF
p98
sg35
V34
p99
sg37
(lp100
Vflame-burst
p101
aVhex
p102
aVinferno
p103
aVbaby-doll-eyes
p104
asg43
g44
sg45
Vflash-fire
p105
sbag1
(g25
g3
Ntp106
Rp107
(dp108
g29
V093
p109
sg31
VHaunter
p110
sg33
g98
sg35
V34
p111
sg37
(lp112
Vpayback
p113
aVsucker-punch
p114
aVdark-pulse
p115
aVhex
p116
asg43
g44
sg45
Vlevitate
p117
sbag1
(g25
g3
Ntp118
Rp119
(dp120
g29
V040
p121
sg31
VWigglytuff
p122
sg33
g98
sg35
V35
p123
sg37
(lp124
Vsing
p125
aVdisable
p126
aVdefense-curl
p127
aVplay-rough
p128
asg43
g44
sg45
Vcompetitive
p129
sbasg59
I00
sg60
g61
sbag1
(g2
g3
Ntp130
Rp131
(dp132
g7
VVSSwimmer M SM.png
p133
sg9
VSwimmer
p134
sg11
VJared
p135
sg13
V792
p136
sg15
g68
sg17
g18
sg19
g20
sg21
VSM
p137
sg23
(lp138
g1
(g25
g3
Ntp139
Rp140
(dp141
g29
V073
p142
sg31
VTentacruel
p143
sg33
g34
sg35
V33
p144
sg37
(lp145
Vsludge-wave
p146
aVacid-spray
p147
aVhex
p148
aVreflect-type
p149
asg43
g44
sg45
Vliquid-ooze
p150
sbasg59
I00
sg60
g61
sbag1
(g2
g3
Ntp151
Rp152
(dp153
g7
VVSSwimmers.png
p154
sg9
VSwimmers
p155
sg11
VYumi and Jake
p156
sg13
V1,584
p157
sg15
g16
sg17
g18
sg19
g20
sg21
VSM
p158
sg23
(lp159
g1
(g25
g3
Ntp160
Rp161
(dp162
g29
V080
p163
sg31
VSlowbro
p164
sg33
g98
sg35
V33
p165
sg37
(lp166
Vwater-pulse
p167
aVzen-headbutt
p168
aVheal-pulse
p169
ag169
asg43
g44
sg45
Voblivious
p170
sbag1
(g25
g3
Ntp171
Rp172
(dp173
g29
V055
p174
sg31
VGolduck
p175
sg33
g34
sg35
V33
p176
sg37
(lp177
Vzen-headbutt
p178
aVaqua-jet
p179
aVwonder-room
p180
aVsoak
p181
asg43
g44
sg45
Vcloud-nine
p182
sbasg59
I00
sg60
g61
sbag1
(g2
g3
Ntp183
Rp184
(dp185
g7
VVSSwimmer F yellow SM.png
p186
sg9
VSwimmer
p187
sg11
VAlexandria
p188
sg13
V792
p189
sg15
g90
sg17
g18
sg19
g20
sg21
VSM
p190
sg23
(lp191
g1
(g25
g3
Ntp192
Rp193
(dp194
g29
V370
p195
sg31
VLuvdisc
p196
sg33
g98
sg35
V33
p197
sg37
(lp198
Vcaptivate
p199
aVsoak
p200
aVheart-stamp
p201
aVdraining-kiss
p202
asg43
g44
sg45
Vswift-swim
p203
sbag1
(g25
g3
Ntp204
Rp205
(dp206
g29
V594
p207
sg31
VAlomomola
p208
sg33
g98
sg35
V33
p209
sg37
(lp210
Vwide-guard
p211
aVsoak
p212
aVheal-pulse
p213
aVplay-nice
p214
asg43
g44
sg45
Vhydration
p215
sbag1
(g25
g3
Ntp216
Rp217
(dp218
g29
V222
p219
sg31
VCorsola
p220
sg33
g98
sg35
V33
p221
sg37
(lp222
Vlucky-chant
p223
aVaqua-ring
p224
aVpower-gem
p225
aVearth-power
p226
asg43
g44
sg45
Vhustle
p227
sbasg59
I00
sg60
g61
sbag1
(g2
g3
Ntp228
Rp229
(dp230
g7
VVSTrial Guide F 2.png
p231
sg9
VTrial Guide
p232
sg11
VKatrina
p233
sg13
V1,632
p234
sg15
g16
sg17
g18
sg19
g20
sg21
VSM
p235
sg23
(lp236
g1
(g25
g3
Ntp237
Rp238
(dp239
g29
V707
p240
sg31
VKlefki
p241
sg33
g98
sg35
V34
p242
sg37
(lp243
Vcrafty-shield
p244
aVplay-rough
p245
aVfairy-wind
p246
aVfairy-lock
p247
asg43
g44
sg45
Vprankster
p248
sbag1
(g25
g3
Ntp249
Rp250
(dp251
g29
V227
p252
sg31
VSkarmory
p253
sg33
g98
sg35
V34
p254
sg37
(lp255
Vfeint
p256
aVnight-slash
p257
aVair-slash
p258
aVautotomize
p259
asg43
g44
sg45
Vsturdy
p260
sbasg59
I00
sg60
g61
sbag1
(g2
g3
Ntp261
Rp262
(dp263
g7
VVSAce Trainer M SM.png
p264
sg9
VAce Trainer
p265
sg11
VYuki
p266
sg13
V2,380
p267
sg15
g16
sg17
g18
sg19
g20
sg21
g22
sg23
(lp268
g1
(g25
g3
Ntp269
Rp270
(dp271
g29
V443
p272
sg31
VGible
p273
sg33
g34
sg35
V34
p274
sg37
(lp275
Vsandstorm
p276
aVsand-tomb
p277
aVdragon-claw
p278
aVdragon-rush
p279
asg43
g44
sg45
Vsand-veil
p280
sbag1
(g25
g3
Ntp281
Rp282
(dp283
g29
V105A
p284
sg31
VMarowak
p285
sg33
g34
sg35
V35
p286
sg37
(lp287
Vendeavor
p288
aVfling
p289
aVretaliate
p290
aVstomping-tantrum
p291
asg43
g44
sg45
Vrock-head
p292
sbasg59
I00
sg60
g61
sbag1
(g2
g3
Ntp293
Rp294
(dp295
g7
VVSSwimmer F black SM.png
p296
sg9
VSwimmer
p297
sg11
VKyra
p298
sg13
V840
p299
sg15
g16
sg17
g18
sg19
g20
sg21
VSM
p300
sg23
(lp301
g1
(g25
g3
Ntp302
Rp303
(dp304
g29
V119
p305
sg31
VSeaking
p306
sg33
g98
sg35
V35
p307
sg37
(lp308
Vwater-pulse
p309
aVaqua-ring
p310
aVpoison-jab
p311
aVsoak
p312
asg43
g44
sg45
Vswift-swim
p313
sbag1
(g25
g3
Ntp314
Rp315
(dp316
g29
V457
p317
sg31
VLumineon
p318
sg33
g98
sg35
V35
p319
sg37
(lp320
Vaqua-ring
p321
aVcaptivate
p322
aVsoak
p323
ag323
asg43
g44
sg45
Vswift-swim
p324
sbasg59
I00
sg60
g61
sbag1
(g2
g3
Ntp325
Rp326
(dp327
g7
VVSTeam Skull Grunt M.png
p328
sg9
VTeam Skull Grunt
p329
sg11
g44
sg13
V1,056
p330
sg15
g68
sg17
g18
sg19
g20
sg21
g69
sg23
(lp331
g1
(g25
g3
Ntp332
Rp333
(dp334
g29
V096
p335
sg31
VDrowzee
p336
sg33
g34
sg35
V33
p337
sg37
(lp338
Vnasty-plot
p339
aVzen-headbutt
p340
aVpsyshock
p341
aVsynchronoise
p342
asg43
g44
sg45
Vinsomnia
p343
sbasg59
I00
sg60
g61
sbag1
(g2
g3
Ntp344
Rp345
(dp346
g7
VVSSurfer.png
p347
sg9
VSurfer
p348
sg11
VJennis
p349
sg13
V864
p350
sg15
g68
sg17
g18
sg19
g20
sg21
VSM
p351
sg23
(lp352
g1
(g25
g3
Ntp353
Rp354
(dp355
g29
V226
p356
sg31
VMantine
p357
sg33
g34
sg35
V36
p358
sg37
(lp359
Vroost
p360
aVaqua-ring
p361
aVair-slash
p362
aVwide-guard
p363
asg43
g44
sg45
Vwater-absorb
p364
sbasg59
I00
sg60
g61
sbag1
(g2
g3
Ntp365
Rp366
(dp367
g7
VVSSwimmer M SM.png
p368
sg9
VSwimmer
p369
sg11
VJared
p370
sg13
V840
p371
sg15
g68
sg17
g18
sg19
g20
sg21
g137
sg23
(lp372
g1
(g25
g3
Ntp373
Rp374
(dp375
g29
V073
p376
sg31
VTentacruel
p377
sg33
g34
sg35
V35
p378
sg37
(lp379
Vsludge-wave
p380
aVacid-spray
p381
aVhex
p382
aVreflect-type
p383
asg43
g44
sg45
Vclear-body
p384
sbasg59
I00
sg60
g61
sbag1
(g2
g3
Ntp385
Rp386
(dp387
g7
VVSSwimmers.png
p388
sg9
VSwimmers
p389
sg11
VYumi and Jake
p390
sg13
V1,680
p391
sg15
g16
sg17
g18
sg19
g20
sg21
g158
sg23
(lp392
g1
(g25
g3
Ntp393
Rp394
(dp395
g29
V592F
p396
sg31
VFrillish
p397
sg33
g98
sg35
V35
p398
sg37
(lp399
Vbrine
p400
aVwring-out
p401
aVominous-wind
p402
aVhex
p403
asg43
g44
sg45
Vwater-absorb
p404
sbag1
(g25
g3
Ntp405
Rp406
(dp407
g29
V592
p408
sg31
VFrillish
p409
sg33
g34
sg35
V35
p410
sg37
(lp411
Vbrine
p412
aVwring-out
p413
aVominous-wind
p414
aVhex
p415
asg43
g44
sg45
Vwater-absorb
p416
sbasg59
I00
sg60
g61
sbag1
(g2
g3
Ntp417
Rp418
(dp419
g7
VVSSwimmer F yellow SM.png
p420
sg9
VSwimmer
p421
sg11
VAlexandria
p422
sg13
V864
p423
sg15
g68
sg17
g18
sg19
g20
sg21
g190
sg23
(lp424
g1
(g25
g3
Ntp425
Rp426
(dp427
g29
V779
p428
sg31
VBruxish
p429
sg33
g98
sg35
V36
p430
sg37
(lp431
Vaqua-tail
p432
aVaqua-jet
p433
aVsynchronoise
p434
aVpsychic-fangs
p435
asg43
g44
sg45
Vstrong-jaw
p436
sbasg59
I00
sg60
g61
sbag1
(g2
g3
Ntp437
Rp438
(dp439
g7
VVSAce Trainer F SM.png
p440
sg9
VAce Trainer
p441
sg11
VKarla
p442
sg13
V2,516
p443
sg15
g90
sg17
g18
sg19
g20
sg21
g91
sg23
(lp444
g1
(g25
g3
Ntp445
Rp446
(dp447
g29
V027A
p448
sg31
VSandshrew
p449
sg33
g98
sg35
V36
p450
sg37
(lp451
Vmagnitude
p452
aVrapid-spin
p453
aVsand-tomb
p454
aVgyro-ball
p455
asg43
g44
sg45
Vsand-veil
p456
sbag1
(g25
g3
Ntp457
Rp458
(dp459
g29
V093
p460
sg31
VHaunter
p461
sg33
g98
sg35
V36
p462
sg37
(lp463
Vpayback
p464
aVsucker-punch
p465
aVdark-pulse
p466
aVhex
p467
asg43
g44
sg45
Vlevitate
p468
sbag1
(g25
g3
Ntp469
Rp470
(dp471
g29
V040
p472
sg31
VWigglytuff
p473
sg33
g98
sg35
V37
p474
sg37
(lp475
Vsing
p476
aVdisable
p477
aVdefense-curl
p478
aVplay-rough
p479
asg43
g44
sg45
Vcompetitive
p480
sbasg59
I00
sg60
g61
sbag1
(g2
g3
Ntp481
Rp482
(dp483
g7
VVSPlumeria.png
p484
sg9
VTeam Skull Admin
p485
sg11
VPlumeria
p486
sg13
V4,200
p487
sg15
I2
sg17
g18
sg19
g20
sg21
VSM
p488
sg23
(lp489
g1
(g25
g3
Ntp490
Rp491
(dp492
g29
I42
sg31
VGolbat
p493
sg33
g98
sg35
V34
p494
sg37
(lp495
VAir Cutter
p496
aVConfuse Ray
p497
aVPoison Fang
p498
asg43
g44
sg45
VInner Focus
p499
sbag1
(g25
g3
Ntp500
Rp501
(dp502
g29
I758
sg31
VSalazzle
p503
sg33
g98
sg35
V35
p504
sg37
(lp505
VFlame Burst
p506
aVDouble Slap
p507
aVToxic
p508
aVDragon Rage
p509
asg43
g44
sg45
VCorrosion
p510
sbasg59
I01
sg60
g61
sbag1
(g2
g3
Ntp511
Rp512
(dp513
g7
VVSPlumeria.png
p514
sg9
VTeam Skull Admin
p515
sg11
VPlumeria
p516
sg13
V4,560
p517
sg15
I2
sg17
g18
sg19
g20
sg21
g488
sg23
(lp518
g1
(g25
g3
Ntp519
Rp520
(dp521
g29
I42
sg31
VGolbat
p522
sg33
g98
sg35
V37
p523
sg37
(lp524
VWing Attack
p525
aVPoison Fang
p526
asg43
g44
sg45
VInner Focus
p527
sbag1
(g25
g3
Ntp528
Rp529
(dp530
g29
I758
sg31
VSalazzle
p531
sg33
g98
sg35
V38
p532
sg37
(lp533
VDragon Pulse
p534
aVFlamethrower
p535
aVSludge Bomb
p536
asg43
g44
sg45
VCorrosion
p537
sbasg59
I01
sg60
g61
sba.