(lp0
ccopy_reg
_reconstructor
p1
(c__main__
Trainer
p2
c__builtin__
object
p3
Ntp4
Rp5
(dp6
VtSprite
p7
VVSPunk Pair.png
p8
sVtClass
p9
VPunk Pair
p10
sVtName
p11
VYoko and Lane
p12
sVtMoney
p13
V1,856
p14
sVtPokeCount
p15
V2
p16
sVtLocation
p17
Vwiki/Alola_Route_12
p18
sVtRegion
p19
VAlola
p20
sVtGame
p21
VSM
p22
sVtPokes
p23
(lp24
g1
(c__main__
FinishedPokemon
p25
g3
Ntp26
Rp27
(dp28
VpDexNo
p29
V674
p30
sVpSpecies
p31
VPancham
p32
sVpGender
p33
VF
p34
sVpLevel
p35
V29
p36
sVpMoves
p37
(lp38
Ventrainment
p39
aVcircle-throw
p40
aVwork-up
p41
aVparting-shot
p42
asVpHold
p43
V
p44
sVpAbility
p45
Viron-fist
p46
sbag1
(g25
g3
Ntp47
Rp48
(dp49
g29
V552
p50
sg31
VKrokorok
p51
sg33
VM
p52
sg35
V29
p53
sg37
(lp54
Vsand-tomb
p55
aVassurance
p56
aVembargo
p57
aVfoul-play
p58
asg43
g44
sg45
Vintimidate
p59
sbasVbossFlag
p60
I00
sVtLongGame
p61
Vsun-moon
p62
sbag1
(g2
g3
Ntp63
Rp64
(dp65
g7
VVSRising Star F SM.png
p66
sg9
VRising Star
p67
sg11
VLeilani
p68
sg13
V1,440
p69
sg15
V1
p70
sg17
g18
sg19
g20
sg21
VSM
p71
sg23
(lp72
g1
(g25
g3
Ntp73
Rp74
(dp75
g29
V564
p76
sg31
VTirtouga
p77
sg33
g52
sg35
V30
p78
sg37
(lp79
Vaqua-jet
p80
aVwide-guard
p81
aVsmack-down
p82
aVshell-smash
p83
asg43
g44
sg45
Vsturdy
p84
sbasg60
I00
sg61
g62
sbag1
(g2
g3
Ntp85
Rp86
(dp87
g7
VVSRising Star M SM.png
p88
sg9
VRising Star
p89
sg11
VMatthew
p90
sg13
V1,440
p91
sg15
g70
sg17
g18
sg19
g20
sg21
VSM
p92
sg23
(lp93
g1
(g25
g3
Ntp94
Rp95
(dp96
g29
V408
p97
sg31
VCranidos
p98
sg33
g52
sg35
V30
p99
sg37
(lp100
Vassurance
p101
aVzen-headbutt
p102
aVhead-smash
p103
aVchip-away
p104
asg43
g44
sg45
Vmold-breaker
p105
sbasg60
I00
sg61
g62
sbag1
(g2
g3
Ntp106
Rp107
(dp108
g7
VVSScientist SM.png
p109
sg9
VScientist
p110
sg11
VJayson
p111
sg13
V1,392
p112
sg15
g16
sg17
g18
sg19
g20
sg21
VSM
p113
sg23
(lp114
g1
(g25
g3
Ntp115
Rp116
(dp117
g29
V137
p118
sg31
VPorygon
p119
sg33
VU
p120
sg35
V28
p121
sg37
(lp122
Vrecycle
p123
aVsignal-beam
p124
aVmagnet-rise
p125
aVdischarge
p126
asg43
g44
sg45
Vdownload
p127
sbag1
(g25
g3
Ntp128
Rp129
(dp130
g29
V082
p131
sg31
VMagneton
p132
sg33
g120
sg35
V29
p133
sg37
(lp134
Vmagnet-bomb
p135
ag135
aVelectro-ball
p136
aVelectric-terrain
p137
asg43
g44
sg45
Vsturdy
p138
sbasg60
I00
sg61
g62
sbag1
(g2
g3
Ntp139
Rp140
(dp141
g7
VVSCollector 2 SM.png
p142
sg9
VCollector
p143
sg11
VAndrew
p144
sg13
V928
p145
sg15
g16
sg17
g18
sg19
g20
sg21
VSM
p146
sg23
(lp147
g1
(g25
g3
Ntp148
Rp149
(dp150
g29
V166
p151
sg31
VLedian
p152
sg33
g52
sg35
V28
p153
sg37
(lp154
Vbaton-pass
p155
aVsilver-wind
p156
aVair-slash
p157
aVbug-buzz
p158
asg43
g44
sg45
Vearly-bird
p159
sbag1
(g25
g3
Ntp160
Rp161
(dp162
g29
V127
p163
sg31
VPinsir
p164
sg33
g52
sg35
V29
p165
sg37
(lp166
Vbrick-break
p167
aVx-scissor
p168
aVdouble-hit
p169
aVstorm-throw
p170
asg43
g44
sg45
Vmold-breaker
p171
sbasg60
I00
sg61
g62
sbag1
(g2
g3
Ntp172
Rp173
(dp174
g7
VVSPunk Pair.png
p175
sg9
VPunk Pair
p176
sg11
VYoko and Lane
p177
sg13
V2,048
p178
sg15
g16
sg17
g18
sg19
g20
sg21
g22
sg23
(lp179
g1
(g25
g3
Ntp180
Rp181
(dp182
g29
V674
p183
sg31
VPancham
p184
sg33
g34
sg35
V32
p185
sg37
(lp186
Ventrainment
p187
aVcircle-throw
p188
aVwork-up
p189
aVparting-shot
p190
asg43
g44
sg45
Viron-fist
p191
sbag1
(g25
g3
Ntp192
Rp193
(dp194
g29
V552
p195
sg31
VKrokorok
p196
sg33
g52
sg35
V32
p197
sg37
(lp198
Vsand-tomb
p199
aVassurance
p200
aVembargo
p201
aVfoul-play
p202
asg43
g44
sg45
Vintimidate
p203
sbasg60
I00
sg61
g62
sbag1
(g2
g3
Ntp204
Rp205
(dp206
g7
VVSRising Star F SM.png
p207
sg9
VRising Star
p208
sg11
VLeilani
p209
sg13
V1,584
p210
sg15
g70
sg17
g18
sg19
g20
sg21
g71
sg23
(lp211
g1
(g25
g3
Ntp212
Rp213
(dp214
g29
V564
p215
sg31
VTirtouga
p216
sg33
g52
sg35
V33
p217
sg37
(lp218
Vaqua-jet
p219
aVwide-guard
p220
aVsmack-down
p221
aVshell-smash
p222
asg43
g44
sg45
Vsolid-rock
p223
sbasg60
I00
sg61
g62
sbag1
(g2
g3
Ntp224
Rp225
(dp226
g7
VVSRising Star M SM.png
p227
sg9
VRising Star
p228
sg11
VMatthew
p229
sg13
V1,584
p230
sg15
g70
sg17
g18
sg19
g20
sg21
g92
sg23
(lp231
g1
(g25
g3
Ntp232
Rp233
(dp234
g29
V408
p235
sg31
VCranidos
p236
sg33
g52
sg35
V33
p237
sg37
(lp238
Vassurance
p239
aVzen-headbutt
p240
aVhead-smash
p241
aVchip-away
p242
asg43
g44
sg45
Vmold-breaker
p243
sbasg60
I00
sg61
g62
sbag1
(g2
g3
Ntp244
Rp245
(dp246
g7
VVSScientist SM.png
p247
sg9
VScientist
p248
sg11
VJayson
p249
sg13
V1,536
p250
sg15
g16
sg17
g18
sg19
g20
sg21
g113
sg23
(lp251
g1
(g25
g3
Ntp252
Rp253
(dp254
g29
V137
p255
sg31
VPorygon
p256
sg33
g120
sg35
V32
p257
sg37
(lp258
Vrecycle
p259
aVsignal-beam
p260
aVmagnet-rise
p261
aVdischarge
p262
asg43
g44
sg45
Vtrace
p263
sbag1
(g25
g3
Ntp264
Rp265
(dp266
g29
V082
p267
sg31
VMagneton
p268
sg33
g120
sg35
V32
p269
sg37
(lp270
Vmagnet-bomb
p271
ag271
aVelectro-ball
p272
aVelectric-terrain
p273
asg43
g44
sg45
Vmagnet-pull
p274
sbasg60
I00
sg61
g62
sbag1
(g2
g3
Ntp275
Rp276
(dp277
g7
VVSSurfer.png
p278
sg9
VSurfer
p279
sg11
VRobert
p280
sg13
V768
p281
sg15
g16
sg17
g18
sg19
g20
sg21
VSM
p282
sg23
(lp283
g1
(g25
g3
Ntp284
Rp285
(dp286
g29
V223
p287
sg31
VRemoraid
p288
sg33
g52
sg35
V32
p289
sg37
(lp290
Vsignal-beam
p291
aVbullet-seed
p292
aVwater-pulse
p293
aVsoak
p294
asg43
g44
sg45
Vsniper
p295
sbag1
(g25
g3
Ntp296
Rp297
(dp298
g29
V769
p299
sg31
VSandygast
p300
sg33
g52
sg35
V32
p301
sg37
(lp302
Viron-defense
p303
aVearth-power
p304
aVbulldoze
p305
aVshore-up
p306
asg43
g44
sg45
Vwater-compaction
p307
sbasg60
I00
sg61
g62
sbag1
(g2
g3
Ntp308
Rp309
(dp310
g7
VVSSwimmer F black SM.png
p311
sg9
VSwimmer
p312
sg11
VSara
p313
sg13
V768
p314
sg15
g70
sg17
g18
sg19
g20
sg21
VSM
p315
sg23
(lp316
g1
(g25
g3
Ntp317
Rp318
(dp319
g29
V121
p320
sg31
VStarmie
p321
sg33
g120
sg35
V32
p322
sg37
(lp323
Vconfuse-ray
p324
aVswift
p325
aVrapid-spin
p326
aVspotlight
p327
asg43
g44
sg45
Vnatural-cure
p328
sbasg60
I00
sg61
g62
sbag1
(g2
g3
Ntp329
Rp330
(dp331
g7
VVSCollector 2 USUM.png
p332
sg9
VCollector
p333
sg11
VAndrew
p334
sg13
V1,120
p335
sg15
g16
sg17
g18
sg19
g20
sg21
VSM
p336
sg23
(lp337
g1
(g25
g3
Ntp338
Rp339
(dp340
g29
V636
p341
sg31
VLarvesta
p342
sg33
g52
sg35
V35
p343
sg37
(lp344
Vflare-blitz
p345
aVbug-buzz
p346
aVbug-bite
p347
aVflame-charge
p348
asg43
g44
sg45
Vflame-body
p349
sbag1
(g25
g3
Ntp350
Rp351
(dp352
g29
V127
p353
sg31
VPinsir
p354
sg33
g52
sg35
V35
p355
sg37
(lp356
Vbrick-break
p357
aVx-scissor
p358
aVdouble-hit
p359
aVstorm-throw
p360
asg43
g44
sg45
Vhyper-cutter
p361
sbasg60
I00
sg61
g62
sba.