(lp0
ccopy_reg
_reconstructor
p1
(c__main__
Trainer
p2
c__builtin__
object
p3
Ntp4
Rp5
(dp6
VtSprite
p7
VVSAthletic Siblings.png
p8
sVtClass
p9
VAthletic Siblings
p10
sVtName
p11
VAlyssa and Sho
p12
sVtMoney
p13
V1,512
p14
sVtPokeCount
p15
V2
p16
sVtLocation
p17
Vwiki/Alola_Route_11
p18
sVtRegion
p19
VAlola
p20
sVtGame
p21
VSM
p22
sVtPokes
p23
(lp24
g1
(c__main__
FinishedPokemon
p25
g3
Ntp26
Rp27
(dp28
VpDexNo
p29
V507
p30
sVpSpecies
p31
VHerdier
p32
sVpGender
p33
VF
p34
sVpLevel
p35
V27
p36
sVpMoves
p37
(lp38
Vgiga-impact
p39
aVretaliate
p40
aVwork-up
p41
aVplay-rough
p42
asVpHold
p43
V
p44
sVpAbility
p45
Vsand-rush
p46
sbag1
(g25
g3
Ntp47
Rp48
(dp49
g29
V662
p50
sg31
VFletchinder
p51
sg33
VM
p52
sg35
V27
p53
sg37
(lp54
Vtailwind
p55
aVme-first
p56
aVflame-charge
p57
aVacrobatics
p58
asg43
g44
sg45
Vflame-body
p59
sbasVbossFlag
p60
I00
sVtLongGame
p61
Vsun-moon
p62
sbag1
(g2
g3
Ntp63
Rp64
(dp65
g7
VVSPreschooler M SM.png
p66
sg9
VPreschooler
p67
sg11
VHayden
p68
sg13
V312
p69
sg15
V1
p70
sg17
g18
sg19
g20
sg21
VSM
p71
sg23
(lp72
g1
(g25
g3
Ntp73
Rp74
(dp75
g29
V759
p76
sg31
VStufful
p77
sg33
g52
sg35
V26
p78
sg37
(lp79
Vhammer-arm
p80
aVpayback
p81
aVbaby-doll-eyes
p82
aVbrutal-swing
p83
asg43
g44
sg45
Vfluffy
p84
sbasg60
I00
sg61
g62
sbag1
(g2
g3
Ntp85
Rp86
(dp87
g7
VVSBlack Belt 2 SM.png
p88
sg9
VBlack Belt
p89
sg11
VClayton
p90
sg13
V896
p91
sg15
g70
sg17
g18
sg19
g20
sg21
VSM
p92
sg23
(lp93
g1
(g25
g3
Ntp94
Rp95
(dp96
g29
V297
p97
sg31
VHariyama
p98
sg33
g52
sg35
V28
p99
sg37
(lp100
Vbrine
p101
aVclose-combat
p102
aVforce-palm
p103
aVheavy-slam
p104
asg43
g44
sg45
Vthick-fat
p105
sbasg60
I00
sg61
g62
sbag1
(g2
g3
Ntp106
Rp107
(dp108
g7
VVSAthletic Siblings.png
p109
sg9
VAthletic Siblings
p110
sg11
VAlyssa and Sho
p111
sg13
V1,568
p112
sg15
g16
sg17
g18
sg19
g20
sg21
g22
sg23
(lp113
g1
(g25
g3
Ntp114
Rp115
(dp116
g29
V547
p117
sg31
VWhimsicott
p118
sg33
g52
sg35
V28
p119
sg37
(lp120
Vcotton-spore
p121
aVtailwind
p122
aVhurricane
p123
aVmoonblast
p124
asg43
g44
sg45
Vprankster
p125
sbag1
(g25
g3
Ntp126
Rp127
(dp128
g29
V549
p129
sg31
VLilligant
p130
sg33
g34
sg35
V28
p131
sg37
(lp132
Vsynthesis
p133
aVteeter-dance
p134
aVquiver-dance
p135
aVpetal-blizzard
p136
asg43
g44
sg45
Vchlorophyll
p137
sbasg60
I00
sg61
g62
sbag1
(g2
g3
Ntp138
Rp139
(dp140
g7
VVSPreschooler M SM.png
p141
sg9
VPreschooler
p142
sg11
VHayden
p143
sg13
V336
p144
sg15
g70
sg17
g18
sg19
g20
sg21
g71
sg23
(lp145
g1
(g25
g3
Ntp146
Rp147
(dp148
g29
V702
p149
sg31
VDedenne
p150
sg33
g52
sg35
V28
p151
sg37
(lp152
Vvolt-switch
p153
aVparabolic-charge
p154
aVplay-rough
p155
aVnuzzle
p156
asg43
g44
sg45
Vcheek-pouch
p157
sbasg60
I00
sg61
g62
sbag1
(g2
g3
Ntp158
Rp159
(dp160
g7
VVSBlack Belt SM.png
p161
sg9
VBlack Belt
p162
sg11
VAlvaro
p163
sg13
V960
p164
sg15
g70
sg17
g18
sg19
g20
sg21
VSM
p165
sg23
(lp166
g1
(g25
g3
Ntp167
Rp168
(dp169
g29
V760
p170
sg31
VBewear
p171
sg33
g52
sg35
V30
p172
sg37
(lp173
Vhammer-arm
p174
aVpayback
p175
aVbaby-doll-eyes
p176
aVbrutal-swing
p177
asg43
g44
sg45
Vklutz
p178
sbasg60
I00
sg61
g62
sbag1
(g2
g3
Ntp179
Rp180
(dp181
g7
VVSBlack Belt SM.png
p182
sg9
VBlack Belt
p183
sg11
VClayton
p184
sg13
V960
p185
sg15
g70
sg17
g18
sg19
g20
sg21
g165
sg23
(lp186
g1
(g25
g3
Ntp187
Rp188
(dp189
g29
V297
p190
sg31
VHariyama
p191
sg33
g52
sg35
V30
p192
sg37
(lp193
Vbrine
p194
aVclose-combat
p195
aVforce-palm
p196
aVheavy-slam
p197
asg43
g44
sg45
Vguts
p198
sbasg60
I00
sg61
g62
sba.