(lp0
ccopy_reg
_reconstructor
p1
(c__main__
Trainer
p2
c__builtin__
object
p3
Ntp4
Rp5
(dp6
VtSprite
p7
VVSPolice Officer.png
p8
sVtClass
p9
VPolice Officer
p10
sVtName
p11
VHaruki
p12
sVtMoney
p13
V960
p14
sVtPokeCount
p15
V1
p16
sVtLocation
p17
Vwiki/Alola_Route_9
p18
sVtRegion
p19
VAlola
p20
sVtGame
p21
VSM
p22
sVtPokes
p23
(lp24
g1
(c__main__
FinishedPokemon
p25
g3
Ntp26
Rp27
(dp28
VpDexNo
p29
V058
p30
sVpSpecies
p31
VGrowlithe
p32
sVpGender
p33
VM
p34
sVpLevel
p35
V24
p36
sVpMoves
p37
(lp38
Vflare-blitz
p39
aVfire-fang
p40
aVflame-burst
p41
aVretaliate
p42
asVpHold
p43
V
p44
sVpAbility
p45
Vintimidate
p46
sbasVbossFlag
p47
I00
sVtLongGame
p48
Vsun-moon
p49
sbag1
(g2
g3
Ntp50
Rp51
(dp52
g7
VVSFisherman SM.png
p53
sg9
VFisherman
p54
sg11
VMike
p55
sg13
V736
p56
sg15
g16
sg17
g18
sg19
g20
sg21
VSM
p57
sg23
(lp58
g1
(g25
g3
Ntp59
Rp60
(dp61
g29
V170
p62
sg31
VChinchou
p63
sg33
g34
sg35
V23
p64
sg37
(lp65
Vaqua-ring
p66
aVdischarge
p67
aVelectro-ball
p68
aVion-deluge
p69
asg43
g44
sg45
Vvolt-absorb
p70
sbasg47
I00
sg48
g49
sbag1
(g2
g3
Ntp71
Rp72
(dp73
g7
VVSPolice Officer.png
p74
sg9
VPolice Officer
p75
sg11
VHaruki
p76
sg13
V960
p77
sg15
g16
sg17
g18
sg19
g20
sg21
g22
sg23
(lp78
g1
(g25
g3
Ntp79
Rp80
(dp81
g29
V507
p82
sg31
VHerdier
p83
sg33
g34
sg35
V24
p84
sg37
(lp85
Vgiga-impact
p86
aVretaliate
p87
aVwork-up
p88
aVplay-rough
p89
asg43
g44
sg45
Vintimidate
p90
sbasg47
I00
sg48
g49
sbag1
(g2
g3
Ntp91
Rp92
(dp93
g7
VVSFisherman SM.png
p94
sg9
VFisherman
p95
sg11
VMike
p96
sg13
V736
p97
sg15
V2
p98
sg17
g18
sg19
g20
sg21
g57
sg23
(lp99
g1
(g25
g3
Ntp100
Rp101
(dp102
g29
V170
p103
sg31
VChinchou
p104
sg33
g34
sg35
V23
p105
sg37
(lp106
Vaqua-ring
p107
aVdischarge
p108
aVelectro-ball
p109
aVion-deluge
p110
asg43
g44
sg45
Villuminate
p111
sbag1
(g25
g3
Ntp112
Rp113
(dp114
g29
V072
p115
sg31
VTentacool
p116
sg33
g34
sg35
V23
p117
sg37
(lp118
Vpoison-jab
p119
aVsludge-wave
p120
aVacid-spray
p121
aVhex
p122
asg43
g44
sg45
Vliquid-ooze
p123
sbasg47
I00
sg48
g49
sba.