(lp0
ccopy_reg
_reconstructor
p1
(c__main__
Trainer
p2
c__builtin__
object
p3
Ntp4
Rp5
(dp6
VtSprite
p7
VVSTeam Skull Grunt M.png
p8
sVtClass
p9
VTeam Skull Grunt
p10
sVtName
p11
V
p12
sVtMoney
p13
V1,088
p14
sVtPokeCount
p15
V1
p16
sVtLocation
p17
Vwiki/Alola_Route_17
p18
sVtRegion
p19
VAlola
p20
sVtGame
p21
VSM
p22
sVtPokes
p23
(lp24
g1
(c__main__
FinishedPokemon
p25
g3
Ntp26
Rp27
(dp28
VpDexNo
p29
V042
p30
sVpSpecies
p31
VGolbat
p32
sVpGender
p33
VM
p34
sVpLevel
p35
V34
p36
sVpMoves
p37
(lp38
Vair-cutter
p39
aVair-slash
p40
aVvenoshock
p41
aVquick-guard
p42
asVpHold
p43
g12
sVpAbility
p44
Vinner-focus
p45
sbasVbossFlag
p46
I00
sVtLongGame
p47
Vsun-moon
p48
sbag1
(g2
g3
Ntp49
Rp50
(dp51
g7
VVSTeam Skull Grunt F.png
p52
sg9
VTeam Skull Grunt
p53
sg11
g12
sg13
V1,088
p54
sg15
V2
p55
sg17
g18
sg19
g20
sg21
VSM
p56
sg23
(lp57
g1
(g25
g3
Ntp58
Rp59
(dp60
g29
V747
p61
sg31
VMareanie
p62
sg33
VF
p63
sg35
V33
p64
sg37
(lp65
Vwide-guard
p66
aVvenoshock
p67
aVvenom-drench
p68
aVliquidation
p69
asg43
g12
sg44
Vlimber
p70
sbag1
(g25
g3
Ntp71
Rp72
(dp73
g29
V753
p74
sg31
VFomantis
p75
sg33
g63
sg35
V34
p76
sg37
(lp77
Vsunny-day
p78
aVingrain
p79
aVleaf-blade
p80
aVleafage
p81
asg43
g12
sg44
Vleaf-guard
p82
sbasg46
I00
sg47
g48
sbag1
(g2
g3
Ntp83
Rp84
(dp85
g7
VVSTeam Skull Grunt M.png
p86
sg9
VTeam Skull Grunt
p87
sg11
g12
sg13
V1,056
p88
sg15
g16
sg17
g18
sg19
g20
sg21
g22
sg23
(lp89
g1
(g25
g3
Ntp90
Rp91
(dp92
g29
V757
p93
sg31
VSalandit
p94
sg33
g34
sg35
V33
p95
sg37
(lp96
Vnasty-plot
p97
aVvenoshock
p98
aVflame-burst
p99
aVvenom-drench
p100
asg43
g12
sg44
Vcorrosion
p101
sbasg46
I00
sg47
g48
sbag1
(g2
g3
Ntp102
Rp103
(dp104
g7
VVSTeam Skull Grunt F.png
p105
sg9
VTeam Skull Grunt
p106
sg11
g12
sg13
V1,088
p107
sg15
g55
sg17
g18
sg19
g20
sg21
g56
sg23
(lp108
g1
(g25
g3
Ntp109
Rp110
(dp111
g29
V019A
p112
sg31
VRattata
p113
sg33
g63
sg35
V33
p114
sg37
(lp115
Vcrunch
p116
aVendeavor
p117
aVassurance
p118
aVsucker-punch
p119
asg43
g12
sg44
Vguts
p120
sbag1
(g25
g3
Ntp121
Rp122
(dp123
g29
V020A
p124
sg31
VRaticate
p125
sg33
g63
sg35
V34
p126
sg37
(lp127
Vcrunch
p128
aVendeavor
p129
aVassurance
p130
aVsucker-punch
p131
asg43
g12
sg44
Vrun-away
p132
sbasg46
I00
sg47
g48
sbag1
(g2
g3
Ntp133
Rp134
(dp135
g7
VVSTeam Skull Grunt M.png
p136
sg9
VTeam Skull Grunt
p137
sg11
g12
sg13
V1,088<br><sup>[[Double Battle]] with the following Grunt</sup>
p138
sg15
g16
sg17
g18
sg19
g20
sg21
g22
sg23
(lp139
g1
(g25
g3
Ntp140
Rp141
(dp142
g29
V096
p143
sg31
VDrowzee
p144
sg33
g34
sg35
V34
p145
sg37
(lp146
Vnasty-plot
p147
aVzen-headbutt
p148
aVpsyshock
p149
aVsynchronoise
p150
asg43
g12
sg44
Vforewarn
p151
sbasg46
I00
sg47
g48
sbag1
(g2
g3
Ntp152
Rp153
(dp154
g7
VVSTeam Skull Grunt F.png
p155
sg9
VTeam Skull Grunt
p156
sg11
g12
sg13
V1,088<br><sup>[[Double Battle]] with the previous Grunt</sup>
p157
sg15
g16
sg17
g18
sg19
g20
sg21
g56
sg23
(lp158
g1
(g25
g3
Ntp159
Rp160
(dp161
g29
V093
p162
sg31
VHaunter
p163
sg33
g63
sg35
V34
p164
sg37
(lp165
Vpayback
p166
aVsucker-punch
p167
aVdark-pulse
p168
aVhex
p169
asg43
g12
sg44
Vlevitate
p170
sbasg46
I00
sg47
g48
sbag1
(g2
g3
Ntp171
Rp172
(dp173
g7
VVSTeam Skull Grunt M.png
p174
sg9
VTeam Skull Grunt
p175
sg11
g12
sg13
V1,152
p176
sg15
g55
sg17
g18
sg19
g20
sg21
g22
sg23
(lp177
g1
(g25
g3
Ntp178
Rp179
(dp180
g29
V019A
p181
sg31
VRattata
p182
sg33
g34
sg35
V36
p183
sg37
(lp184
Vcrunch
p185
aVendeavor
p186
aVassurance
p187
aVsucker-punch
p188
asg43
g12
sg44
Vrun-away
p189
sbag1
(g25
g3
Ntp190
Rp191
(dp192
g29
V093
p193
sg31
VHaunter
p194
sg33
g34
sg35
V36
p195
sg37
(lp196
Vpayback
p197
aVsucker-punch
p198
aVdark-pulse
p199
aVhex
p200
asg43
g12
sg44
Vlevitate
p201
sbasg46
I00
sg47
g48
sbag1
(g2
g3
Ntp202
Rp203
(dp204
g7
VVSTeam Skull Grunt F.png
p205
sg9
VTeam Skull Grunt
p206
sg11
g12
sg13
V1,152
p207
sg15
g55
sg17
g18
sg19
g20
sg21
g56
sg23
(lp208
g1
(g25
g3
Ntp209
Rp210
(dp211
g29
V747
p212
sg31
VMareanie
p213
sg33
g63
sg35
V36
p214
sg37
(lp215
Vwide-guard
p216
aVvenoshock
p217
aVvenom-drench
p218
aVliquidation
p219
asg43
g12
sg44
Vmerciless
p220
sbag1
(g25
g3
Ntp221
Rp222
(dp223
g29
V088A
p224
sg31
VGrimer
p225
sg33
g63
sg35
V36
p226
sg37
(lp227
Vmud-bomb
p228
aVgunk-shot
p229
aVsludge-wave
p230
aVbelch
p231
asg43
g12
sg44
Vsticky-hold
p232
sbasg46
I00
sg47
g48
sbag1
(g2
g3
Ntp233
Rp234
(dp235
g7
VVSTeam Skull Grunt F.png
p236
sg9
VTeam Skull Grunt
p237
sg11
g12
sg13
V1,152
p238
sg15
g16
sg17
g18
sg19
g20
sg21
g56
sg23
(lp239
g1
(g25
g3
Ntp240
Rp241
(dp242
g29
V023
p243
sg31
VEkans
p244
sg33
g63
sg35
V36
p245
sg37
(lp246
Vgunk-shot
p247
aVcoil
p248
aVacid-spray
p249
aVbelch
p250
asg43
g12
sg44
Vintimidate
p251
sbasg46
I00
sg47
g48
sbag1
(g2
g3
Ntp252
Rp253
(dp254
g7
VVSTeam Skull Grunt M.png
p255
sg9
VTeam Skull Grunt
p256
sg11
g12
sg13
V1,152<br><sup>[[Double Battle]] with the following Grunt</sup>
p257
sg15
g16
sg17
g18
sg19
g20
sg21
g22
sg23
(lp258
g1
(g25
g3
Ntp259
Rp260
(dp261
g29
V624
p262
sg31
VPawniard
p263
sg33
g34
sg35
V36
p264
sg37
(lp265
Vassurance
p266
aVembargo
p267
aVnight-slash
p268
aViron-head
p269
asg43
g12
sg44
Vinner-focus
p270
sbasg46
I00
sg47
g48
sbag1
(g2
g3
Ntp271
Rp272
(dp273
g7
VVSTeam Skull Grunt F.png
p274
sg9
VTeam Skull Grunt
p275
sg11
g12
sg13
V1,152<br><sup>[[Double Battle]] with the previous Grunt</sup>
p276
sg15
g16
sg17
g18
sg19
g20
sg21
g56
sg23
(lp277
g1
(g25
g3
Ntp278
Rp279
(dp280
g29
V559
p281
sg31
VScraggy
p282
sg33
g63
sg35
V36
p283
sg37
(lp284
Vpayback
p285
aVrock-climb
p286
aVhead-smash
p287
aVchip-away
p288
asg43
g12
sg44
Vmoxie
p289
sbasg46
I00
sg47
g48
sba.