(lp0
ccopy_reg
_reconstructor
p1
(c__main__
Trainer
p2
c__builtin__
object
p3
Ntp4
Rp5
(dp6
VtSprite
p7
VVSFirefighter.png
p8
sVtClass
p9
VFirefighter
p10
sVtName
p11
VAlex
p12
sVtMoney
p13
V1,120
p14
sVtPokeCount
p15
V1
p16
sVtLocation
p17
Vwiki/Alola_Route_10
p18
sVtRegion
p19
VAlola
p20
sVtGame
p21
VSM
p22
sVtPokes
p23
(lp24
g1
(c__main__
FinishedPokemon
p25
g3
Ntp26
Rp27
(dp28
VpDexNo
p29
V061
p30
sVpSpecies
p31
VPoliwhirl
p32
sVpGender
p33
VM
p34
sVpLevel
p35
V28
p36
sVpMoves
p37
(lp38
Vmud-shot
p39
aVwater-sport
p40
aVwake-up-slap
p41
aVmud-bomb
p42
asVpHold
p43
V
p44
sVpAbility
p45
Vwater-absorb
p46
sbasVbossFlag
p47
I00
sVtLongGame
p48
Vsun-moon
p49
sbag1
(g2
g3
Ntp50
Rp51
(dp52
g7
VVSBeauty SM.png
p53
sg9
VBeauty
p54
sg11
VAndrea
p55
sg13
V864
p56
sg15
g16
sg17
g18
sg19
g20
sg21
VSM
p57
sg23
(lp58
g1
(g25
g3
Ntp59
Rp60
(dp61
g29
V762
p62
sg31
VSteenee
p63
sg33
VF
p64
sg35
V27
p65
sg37
(lp66
Vcaptivate
p67
aVplay-nice
p68
ag68
aVaromatic-mist
p69
asg43
g44
sg45
Voblivious
p70
sbasg47
I00
sg48
g49
sbag1
(g2
g3
Ntp71
Rp72
(dp73
g7
VVSPolice Officer.png
p74
sg9
VPolice Officer
p75
sg11
VMitchell
p76
sg13
V1,120
p77
sg15
g16
sg17
g18
sg19
g20
sg21
VSM
p78
sg23
(lp79
g1
(g25
g3
Ntp80
Rp81
(dp82
g29
V058
p83
sg31
VGrowlithe
p84
sg33
g34
sg35
V28
p85
sg37
(lp86
Vflare-blitz
p87
aVfire-fang
p88
aVflame-burst
p89
aVretaliate
p90
asg43
g44
sg45
Vintimidate
p91
sbasg47
I00
sg48
g49
sbag1
(g2
g3
Ntp92
Rp93
(dp94
g7
VVSTeam Skull Grunt M.png
p95
sg9
VTeam Skull Grunt
p96
sg11
g44
sg13
V864
p97
sg15
g16
sg17
g18
sg19
g20
sg21
VSM
p98
sg23
(lp99
g1
(g25
g3
Ntp100
Rp101
(dp102
g29
V042
p103
sg31
VGolbat
p104
sg33
g34
sg35
V27
p105
sg37
(lp106
Vair-cutter
p107
aVair-slash
p108
aVvenoshock
p109
aVquick-guard
p110
asg43
g44
sg45
Vinner-focus
p111
sbasg47
I00
sg48
g49
sbag1
(g2
g3
Ntp112
Rp113
(dp114
g7
VVSTeam Skull Grunt M.png
p115
sg9
VTeam Skull Grunt
p116
sg11
g44
sg13
V864
p117
sg15
g16
sg17
g18
sg19
g20
sg21
g98
sg23
(lp118
g1
(g25
g3
Ntp119
Rp120
(dp121
g29
V020A
p122
sg31
VRaticate
p123
sg33
g34
sg35
V27
p124
sg37
(lp125
Vcrunch
p126
aVendeavor
p127
aVassurance
p128
aVsucker-punch
p129
asg43
g44
sg45
Vguts
p130
sbasg47
I00
sg48
g49
sbag1
(g2
g3
Ntp131
Rp132
(dp133
g7
VVSFirefighter.png
p134
sg9
VFirefighter
p135
sg11
VAlex
p136
sg13
V1,200
p137
sg15
g16
sg17
g18
sg19
g20
sg21
g22
sg23
(lp138
g1
(g25
g3
Ntp139
Rp140
(dp141
g29
V224
p142
sg31
VOctillery
p143
sg33
g34
sg35
V30
p144
sg37
(lp145
Vrock-blast
p146
aVwring-out
p147
aVgunk-shot
p148
aVsoak
p149
asg43
g44
sg45
Vsuction-cups
p150
sbasg47
I00
sg48
g49
sbag1
(g2
g3
Ntp151
Rp152
(dp153
g7
VVSBeauty SM.png
p154
sg9
VBeauty
p155
sg11
VAndrea
p156
sg13
V928
p157
sg15
g16
sg17
g18
sg19
g20
sg21
g57
sg23
(lp158
g1
(g25
g3
Ntp159
Rp160
(dp161
g29
V180
p162
sg31
VFlaaffy
p163
sg33
g64
sg35
V29
p164
sg37
(lp165
Vpower-gem
p166
aVdischarge
p167
aVelectro-ball
p168
aVcotton-guard
p169
asg43
g44
sg45
Vstatic
p170
sbasg47
I00
sg48
g49
sbag1
(g2
g3
Ntp171
Rp172
(dp173
g7
VVSPolice Officer.png
p174
sg9
VPolice Officer
p175
sg11
VMitchell
p176
sg13
V1,200
p177
sg15
g16
sg17
g18
sg19
g20
sg21
g78
sg23
(lp178
g1
(g25
g3
Ntp179
Rp180
(dp181
g29
V058
p182
sg31
VGrowlithe
p183
sg33
g34
sg35
V30
p184
sg37
(lp185
Vflare-blitz
p186
aVfire-fang
p187
aVflame-burst
p188
aVretaliate
p189
asg43
g44
sg45
Vintimidate
p190
sbasg47
I00
sg48
g49
sbag1
(g2
g3
Ntp191
Rp192
(dp193
g7
VVSTeam Skull Grunt M.png
p194
sg9
VTeam Skull Grunt
p195
sg11
g44
sg13
V928
p196
sg15
g16
sg17
g18
sg19
g20
sg21
g98
sg23
(lp197
g1
(g25
g3
Ntp198
Rp199
(dp200
g29
V228
p201
sg31
VHoundour
p202
sg33
g34
sg35
V29
p203
sg37
(lp204
Vnasty-plot
p205
aVfire-fang
p206
aVfoul-play
p207
aVinferno
p208
asg43
g44
sg45
Vearly-bird
p209
sbasg47
I00
sg48
g49
sbag1
(g2
g3
Ntp210
Rp211
(dp212
g7
VVSTeam Skull Grunt M.png
p213
sg9
VTeam Skull Grunt
p214
sg11
g44
sg13
V928
p215
sg15
g16
sg17
g18
sg19
g20
sg21
g98
sg23
(lp216
g1
(g25
g3
Ntp217
Rp218
(dp219
g29
V042
p220
sg31
VGolbat
p221
sg33
g34
sg35
V29
p222
sg37
(lp223
Vair-cutter
p224
aVair-slash
p225
aVvenoshock
p226
aVquick-guard
p227
asg43
g44
sg45
Vinner-focus
p228
sbasg47
I00
sg48
g49
sba.