(lp0
ccopy_reg
_reconstructor
p1
(c__main__
Trainer
p2
c__builtin__
object
p3
Ntp4
Rp5
(dp6
VtSprite
p7
VVSPsychic.png
p8
sVtClass
p9
VPsychic
p10
sVtName
p11
VPaschal
p12
sVtMoney
p13
V2,576
p14
sVtPokeCount
p15
V1
p16
sVtLocation
p17
Vwiki/Anistar_Gym
p18
sVtRegion
p19
VKalos
p20
sVtGame
p21
VSM
p22
sVtPokes
p23
(lp24
g1
(c__main__
FinishedPokemon
p25
g3
Ntp26
Rp27
(dp28
VpDexNo
p29
V103
p30
sVpSpecies
p31
VExeggutor
p32
sVpGender
p33
VM
p34
sVpLevel
p35
V46
p36
sVpMoves
p37
(lp38
Vseed-bomb
p39
aVleaf-storm
p40
aVwood-hammer
p41
aVpsyshock
p42
asVpHold
p43
V
p44
sVpAbility
p45
Vchlorophyll
p46
sbasVbossFlag
p47
I00
sVtLongGame
p48
Vsun-moon
p49
sbag1
(g2
g3
Ntp50
Rp51
(dp52
g7
VVSPsychic.png
p53
sg9
VPsychic
p54
sg11
VHarry
p55
sg13
V2,576
p56
sg15
g16
sg17
g18
sg19
g20
sg21
g22
sg23
(lp57
g1
(g25
g3
Ntp58
Rp59
(dp60
g29
V308
p61
sg31
VMedicham
p62
sg33
g34
sg35
V46
p63
sg37
(lp64
Vacupressure
p65
aVpower-trick
p66
aVforce-palm
p67
aVzen-headbutt
p68
asg43
g44
sg45
Vpure-power
p69
sbasg47
I00
sg48
g49
sbag1
(g2
g3
Ntp70
Rp71
(dp72
g7
VVSPsychic.png
p73
sg9
VPsychic
p74
sg11
VArthur
p75
sg13
V2,576
p76
sg15
g16
sg17
g18
sg19
g20
sg21
g22
sg23
(lp77
g1
(g25
g3
Ntp78
Rp79
(dp80
g29
V579
p81
sg31
VReuniclus
p82
sg33
g34
sg35
V46
p83
sg37
(lp84
Vsnatch
p85
aVheal-block
p86
aVwonder-room
p87
aVpsyshock
p88
asg43
g44
sg45
Vmagic-guard
p89
sbasg47
I00
sg48
g49
sbag1
(g2
g3
Ntp90
Rp91
(dp92
g7
VVSHex Maniac.png
p93
sg9
VHex Maniac
p94
sg11
VArachna
p95
sg13
V1,472
p96
sg15
g16
sg17
g18
sg19
g20
sg21
VSM
p97
sg23
(lp98
g1
(g25
g3
Ntp99
Rp100
(dp101
g29
V124
p102
sg31
VJynx
p103
sg33
VF
p104
sg35
V46
p105
sg37
(lp106
Vwring-out
p107
aVavalanche
p108
aVheart-stamp
p109
aVdraining-kiss
p110
asg43
g44
sg45
Voblivious
p111
sbasg47
I00
sg48
g49
sbag1
(g2
g3
Ntp112
Rp113
(dp114
g7
VVSHex Maniac.png
p115
sg9
VHex Maniac
p116
sg11
VMelanie
p117
sg13
V1,472
p118
sg15
g16
sg17
g18
sg19
g20
sg21
g97
sg23
(lp119
g1
(g25
g3
Ntp120
Rp121
(dp122
g29
V282
p123
sg31
VGardevoir
p124
sg33
g104
sg35
V46
p125
sg37
(lp126
Vdraining-kiss
p127
aVmisty-terrain
p128
aVmoonblast
p129
ag129
asg43
g44
sg45
Vtrace
p130
sbasg47
I00
sg48
g49
sbag1
(g2
g3
Ntp131
Rp132
(dp133
g7
VVSOlympia.png
p134
sg9
VLeader
p135
sg11
VOlympia
p136
sg13
V7,680
p137
sg15
I3
sg17
g18
sg19
g20
sg21
VSM
p138
sg23
(lp139
g1
(g25
g3
Ntp140
Rp141
(dp142
g29
I561
sg31
VSigilyph
p143
sg33
g104
sg35
V44
p144
sg37
(lp145
VPsychic
p146
aVAir Slash
p147
aVLight Screen
p148
aVReflect
p149
asg43
g44
sg45
VMagic Guard
p150
sbag1
(g25
g3
Ntp151
Rp152
(dp153
g29
I199
sg31
VSlowking
p154
sg33
g104
sg35
V45
p155
sg37
(lp156
VPsychic
p157
aVCalm Mind
p158
aVPower Gem
p159
aVYawn
p160
asg43
g44
sg45
VOblivious
p161
sbag1
(g25
g3
Ntp162
Rp163
(dp164
g29
I678
sg31
VMeowstic
p165
sg33
g104
sg35
V48
p166
sg37
(lp167
VPsychic
p168
aVCalm Mind
p169
aVFake Out
p170
aVShadow Ball
p171
asg43
g44
sg45
VInfiltrator
p172
sbasg47
I01
sg48
g49
sba.