(lp0
ccopy_reg
_reconstructor
p1
(c__main__
Trainer
p2
c__builtin__
object
p3
Ntp4
Rp5
(dp6
VtSprite
p7
VSpr B2W2 Hugh.png
p8
sVtClass
p9
VPokemon Trainer
p10
sVtName
p11
VHugh
p12
sVtMoney
p13
I0
sVtPokeCount
p14
I1
sVtLocation
p15
Vwiki/Aspertia_City
p16
sVtRegion
p17
VUnova
p18
sVtGame
p19
VB2W2
p20
sVtPokes
p21
(lp22
g1
(c__main__
FinishedPokemon
p23
g3
Ntp24
Rp25
(dp26
VpDexNo
p27
I498
sVpSpecies
p28
VTepig
p29
sVpGender
p30
VM
p31
sVpLevel
p32
g1
(cmwparserfromhell.wikicode
Wikicode
p33
g3
Ntp34
Rp35
(dp36
V_nodes
p37
g1
(cmwparserfromhell.smart_list.smart_list
SmartList
p38
c__builtin__
list
p39
(lp40
g1
(cmwparserfromhell.nodes.text
Text
p41
g3
Ntp42
Rp43
(dp44
V_value
p45
V5
p46
sbatp47
Rp48
(dp49
V_children
p50
(dp51
sbsbsVpMoves
p52
(lp53
VTackle
p54
aVTail Whip
p55
asVpHold
p56
V
p57
sVpAbility
p58
VBlaze
p59
sbasVbossFlag
p60
I01
sVtLongGame
p61
Vblack-2-white-2
p62
sbag1
(g2
g3
Ntp63
Rp64
(dp65
g7
VSpr B2W2 Hugh.png
p66
sg9
VPokemon Trainer
p67
sg11
VHugh
p68
sg13
I0
sg14
I1
sg15
g16
sg17
g18
sg19
g20
sg21
(lp69
g1
(g23
g3
Ntp70
Rp71
(dp72
g27
I501
sg28
VOshawott
p73
sg30
g31
sg32
g1
(g33
g3
Ntp74
Rp75
(dp76
g37
g1
(g38
g39
(lp77
g1
(g41
g3
Ntp78
Rp79
(dp80
g45
g46
sbatp81
Rp82
(dp83
g50
(dp84
sbsbsg52
(lp85
VTackle
p86
aVTail Whip
p87
asg56
g57
sg58
VTorrent
p88
sbasg60
I01
sg61
g62
sbag1
(g2
g3
Ntp89
Rp90
(dp91
g7
VSpr B2W2 Hugh.png
p92
sg9
VPokemon Trainer
p93
sg11
VHugh
p94
sg13
I0
sg14
I1
sg15
g16
sg17
g18
sg19
g20
sg21
(lp95
g1
(g23
g3
Ntp96
Rp97
(dp98
g27
I495
sg28
VSnivy
p99
sg30
g31
sg32
g1
(g33
g3
Ntp100
Rp101
(dp102
g37
g1
(g38
g39
(lp103
g1
(g41
g3
Ntp104
Rp105
(dp106
g45
g46
sbatp107
Rp108
(dp109
g50
(dp110
sbsbsg52
(lp111
VTackle
p112
aVLeer
p113
asg56
g57
sg58
VOvergrow
p114
sbasg60
I01
sg61
g62
sba.