(lp0
ccopy_reg
_reconstructor
p1
(c__main__
Trainer
p2
c__builtin__
object
p3
Ntp4
Rp5
(dp6
VtSprite
p7
VSpr B2W2 Youngster.png
p8
sVtClass
p9
VYoungster
p10
sVtName
p11
VPedro
p12
sVtMoney
p13
g1
(cmwparserfromhell.wikicode
Wikicode
p14
g3
Ntp15
Rp16
(dp17
V_nodes
p18
g1
(cmwparserfromhell.smart_list.smart_list
SmartList
p19
c__builtin__
list
p20
(lp21
g1
(cmwparserfromhell.nodes.text
Text
p22
g3
Ntp23
Rp24
(dp25
V_value
p26
V144
p27
sbatp28
Rp29
(dp30
V_children
p31
(dp32
sbsbsVtPokeCount
p33
V2
p34
sVtLocation
p35
Vwiki/Aspertia_Gym
p36
sVtRegion
p37
VUnova
p38
sVtGame
p39
VB2W2
p40
sVtPokes
p41
(lp42
g1
(c__main__
FinishedPokemon
p43
g3
Ntp44
Rp45
(dp46
VpDexNo
p47
V504
p48
sVpSpecies
p49
VPatrat
p50
sVpGender
p51
VM
p52
sVpLevel
p53
V9
p54
sVpMoves
p55
(lp56
Vbaton-pass
p57
aVcrunch
p58
aVafter-you
p59
aVwork-up
p60
asVpHold
p61
V
p62
sVpAbility
p63
Vrun-away
p64
sbag1
(g43
g3
Ntp65
Rp66
(dp67
g47
V506
p68
sg49
VLillipup
p69
sg51
g52
sg53
g54
sg55
(lp70
Vlast-resort
p71
aVgiga-impact
p72
aVretaliate
p73
aVwork-up
p74
asg61
g62
sg63
Vpickup
p75
sbasVbossFlag
p76
I00
sVtLongGame
p77
Vblack-2-white-2
p78
sbag1
(g2
g3
Ntp79
Rp80
(dp81
g7
VSpr B2W2 Lass.png
p82
sg9
VLass
p83
sg11
VSerena
p84
sg13
g1
(g14
g3
Ntp85
Rp86
(dp87
g18
g1
(g19
g20
(lp88
g1
(g22
g3
Ntp89
Rp90
(dp91
g26
V144
p92
sbatp93
Rp94
(dp95
g31
(dp96
sbsbsg33
g34
sg35
g36
sg37
g38
sg39
g40
sg41
(lp97
g1
(g43
g3
Ntp98
Rp99
(dp100
g47
V506
p101
sg49
VLillipup
p102
sg51
VF
p103
sg53
g54
sg55
(lp104
Vlast-resort
p105
aVgiga-impact
p106
aVretaliate
p107
aVwork-up
p108
asg61
g62
sg63
Vvital-spirit
p109
sbag1
(g43
g3
Ntp110
Rp111
(dp112
g47
V504
p113
sg49
VPatrat
p114
sg51
g103
sg53
g54
sg55
(lp115
Vbaton-pass
p116
aVcrunch
p117
aVafter-you
p118
aVwork-up
p119
asg61
g62
sg63
Vkeen-eye
p120
sbasg76
I00
sg77
g78
sbag1
(g2
g3
Ntp121
Rp122
(dp123
g7
VSpr B2W2 Cheren.png
p124
sg9
VLeader
p125
sg11
VCheren
p126
sg13
g1
(g14
g3
Ntp127
Rp128
(dp129
g18
g1
(g19
g20
(lp130
g1
(g22
g3
Ntp131
Rp132
(dp133
g26
V1440
p134
sbatp135
Rp136
(dp137
g31
(dp138
sbsbsg33
I2
sg35
g36
sg37
g38
sg39
g40
sg41
(lp139
g1
(g43
g3
Ntp140
Rp141
(dp142
g47
I504
sg49
VPatrat
p143
sg51
g52
sg53
g1
(g14
g3
Ntp144
Rp145
(dp146
g18
g1
(g19
g20
(lp147
g1
(g22
g3
Ntp148
Rp149
(dp150
g26
V10
p151
sbatp152
Rp153
(dp154
g31
(dp155
sbsbsg55
(lp156
VTackle
p157
aVWork Up
p158
aVBite
p159
asg61
g62
sg63
VKeen Eye
p160
sbag1
(g43
g3
Ntp161
Rp162
(dp163
g47
I506
sg49
VLillipup
p164
sg51
g52
sg53
g1
(g14
g3
Ntp165
Rp166
(dp167
g18
g1
(g19
g20
(lp168
g1
(g22
g3
Ntp169
Rp170
(dp171
g26
V12
p172
sbatp173
Rp174
(dp175
g31
(dp176
sbsbsg55
(lp177
VTackle
p178
aVWork Up
p179
aVBite
p180
asg61
g62
sg63
VVital Spirit
p181
sbasg76
I01
sg77
g78
sbag1
(g2
g3
Ntp182
Rp183
(dp184
g7
VSpr B2W2 Cheren.png
p185
sg9
VLeader
p186
sg11
VCheren
p187
sg13
V1680
p188
sg33
I3
sg35
g36
sg37
g38
sg39
g40
sg41
(lp189
g1
(g43
g3
Ntp190
Rp191
(dp192
g47
I504
sg49
VPatrat
p193
sg51
g52
sg53
V12
p194
sg55
(lp195
VTackle
p196
aVWork Up
p197
aVBite
p198
aVDetect
p199
asg61
g62
sg63
VKeen Eye
p200
sbag1
(g43
g3
Ntp201
Rp202
(dp203
g47
I519
sg49
VPidove
p204
sg51
g52
sg53
V12
p205
sg55
(lp206
VQuick Attack
p207
aVWork Up
p208
aVLeer
p209
aVGrowl
p210
asg61
g62
sg63
VSuper Luck
p211
sbag1
(g43
g3
Ntp212
Rp213
(dp214
g47
I506
sg49
VLillipup
p215
sg51
g52
sg53
V14
p216
sg55
(lp217
VTackle
p218
aVWork Up
p219
aVBite
p220
aVHelping Hand
p221
asg61
VOran Berry
p222
sg63
VVital Spirit
p223
sbasg76
I01
sg77
g78
sba.