(lp0
ccopy_reg
_reconstructor
p1
(c__main__
Trainer
p2
c__builtin__
object
p3
Ntp4
Rp5
(dp6
VtSprite
p7
VSpr GS Silver 1.png
p8
sVtClass
p9
VLeader
p10
sVtName
p11
VSilver (game)
p12
sVtMoney
p13
V960
p14
sVtPokeCount
p15
I3
sVtLocation
p16
Vwiki/Azalea_Town
p17
sVtRegion
p18
VJohto
p19
sVtGame
p20
VGS
p21
sVtPokes
p22
(lp23
g1
(c__main__
FinishedPokemon
p24
g3
Ntp25
Rp26
(dp27
VpDexNo
p28
I92
sVpSpecies
p29
VGastly
p30
sVpGender
p31
VM
p32
sVpLevel
p33
V12
p34
sVpMoves
p35
(lp36
VHypnosis
p37
aVLick
p38
aVSpite
p39
asVpHold
p40
V
p41
sVpAbility
p42
Vlevitate
p43
sbag1
(g24
g3
Ntp44
Rp45
(dp46
g28
I41
sg29
VZubat
p47
sg31
g32
sg33
V14
p48
sg35
(lp49
VLeech Life
p50
aVSupersonic
p51
aVBite
p52
asg40
g41
sg42
Vinner-focus
p53
sbag1
(g24
g3
Ntp54
Rp55
(dp56
g28
I156
sg29
VQuilava
p57
sg31
g32
sg33
V16
p58
sg35
(lp59
VTackle
p60
aVLeer
p61
aVSmokeScreen
p62
aVEmber
p63
asg40
g41
sg42
Vblaze
p64
sbasVbossFlag
p65
I01
sVtLongGame
p66
Vgold-silver
p67
sbag1
(g2
g3
Ntp68
Rp69
(dp70
g7
VSpr GS Silver 1.png
p71
sg9
g10
sg11
VSilver (game)
p72
sg13
V960
p73
sg15
I3
sg16
g17
sg18
g19
sg20
g21
sg22
(lp74
g1
(g24
g3
Ntp75
Rp76
(dp77
g28
I92
sg29
VGastly
p78
sg31
g32
sg33
V12
p79
sg35
(lp80
VHypnosis
p81
aVLick
p82
aVSpite
p83
asg40
g41
sg42
Vlevitate
p84
sbag1
(g24
g3
Ntp85
Rp86
(dp87
g28
I41
sg29
VZubat
p88
sg31
g32
sg33
V14
p89
sg35
(lp90
VLeech Life
p91
aVSupersonic
p92
aVBite
p93
asg40
g41
sg42
Vinner-focus
p94
sbag1
(g24
g3
Ntp95
Rp96
(dp97
g28
I159
sg29
VCroconaw
p98
sg31
g32
sg33
V16
p99
sg35
(lp100
VScratch
p101
aVLeer
p102
aVRage
p103
aVWater Gun
p104
asg40
g41
sg42
Vtorrent
p105
sbasg65
I01
sg66
g67
sbag1
(g2
g3
Ntp106
Rp107
(dp108
g7
VSpr GS Silver 1.png
p109
sg9
g10
sg11
VSilver (game)
p110
sg13
V960
p111
sg15
I3
sg16
g17
sg18
g19
sg20
g21
sg22
(lp112
g1
(g24
g3
Ntp113
Rp114
(dp115
g28
I92
sg29
VGastly
p116
sg31
g32
sg33
V12
p117
sg35
(lp118
VHypnosis
p119
aVLick
p120
aVSpite
p121
asg40
g41
sg42
Vlevitate
p122
sbag1
(g24
g3
Ntp123
Rp124
(dp125
g28
I41
sg29
VZubat
p126
sg31
g32
sg33
V14
p127
sg35
(lp128
VLeech Life
p129
aVSupersonic
p130
aVBite
p131
asg40
g41
sg42
Vinner-focus
p132
sbag1
(g24
g3
Ntp133
Rp134
(dp135
g28
I153
sg29
VBayleef
p136
sg31
g32
sg33
V16
p137
sg35
(lp138
VGrowl
p139
aVRazor Leaf
p140
aVReflect
p141
aVPoisonPowder
p142
asg40
g41
sg42
Vovergrow
p143
sbasg65
I01
sg66
g67
sbag1
(g2
g3
Ntp144
Rp145
(dp146
g7
VSpr HGSS Silver.png
p147
sg9
VRival
p148
sg11
VSilver (game)
p149
sg13
V1152
p150
sg15
I3
sg16
g17
sg18
g19
sg20
VHGSS
p151
sg22
(lp152
g1
(g24
g3
Ntp153
Rp154
(dp155
g28
I92
sg29
VGastly
p156
sg31
g32
sg33
V14
p157
sg35
(lp158
VLick
p159
aVSpite
p160
aVMean Look
p161
aVCurse
p162
asg40
g41
sg42
VLevitate
p163
sbag1
(g24
g3
Ntp164
Rp165
(dp166
g28
I41
sg29
VZubat
p167
sg31
g32
sg33
V16
p168
sg35
(lp169
VLeech Life
p170
aVSupersonic
p171
aVAstonish
p172
aVBite
p173
asg40
g41
sg42
VInner Focus
p174
sbag1
(g24
g3
Ntp175
Rp176
(dp177
g28
I156
sg29
VQuilava
p178
sg31
g32
sg33
V18
p179
sg35
(lp180
VLeer
p181
aVSmokeScreen
p182
aVEmber
p183
aVQuick Attack
p184
asg40
g41
sg42
VBlaze
p185
sbasg65
I01
sg66
Vheartgold-soulsilver
p186
sbag1
(g2
g3
Ntp187
Rp188
(dp189
g7
VSpr HGSS Silver.png
p190
sg9
VRival
p191
sg11
VSilver (game)
p192
sg13
V1152
p193
sg15
I3
sg16
g17
sg18
g19
sg20
g151
sg22
(lp194
g1
(g24
g3
Ntp195
Rp196
(dp197
g28
I92
sg29
VGastly
p198
sg31
g32
sg33
V14
p199
sg35
(lp200
VLick
p201
aVSpite
p202
aVMean Look
p203
aVCurse
p204
asg40
g41
sg42
VLevitate
p205
sbag1
(g24
g3
Ntp206
Rp207
(dp208
g28
I41
sg29
VZubat
p209
sg31
g32
sg33
V16
p210
sg35
(lp211
VLeech Life
p212
aVSupersonic
p213
aVAstonish
p214
aVBite
p215
asg40
g41
sg42
VInner Focus
p216
sbag1
(g24
g3
Ntp217
Rp218
(dp219
g28
I159
sg29
VCroconaw
p220
sg31
g32
sg33
V18
p221
sg35
(lp222
VWater Gun
p223
aVRage
p224
aVBite
p225
aVScary Face
p226
asg40
g41
sg42
VTorrent
p227
sbasg65
I01
sg66
g186
sbag1
(g2
g3
Ntp228
Rp229
(dp230
g7
VSpr HGSS Silver.png
p231
sg9
VRival
p232
sg11
VSilver (game)
p233
sg13
V1152
p234
sg15
I3
sg16
g17
sg18
g19
sg20
g151
sg22
(lp235
g1
(g24
g3
Ntp236
Rp237
(dp238
g28
I92
sg29
VGastly
p239
sg31
g32
sg33
V14
p240
sg35
(lp241
VLick
p242
aVSpite
p243
aVMean Look
p244
aVCurse
p245
asg40
g41
sg42
VLevitate
p246
sbag1
(g24
g3
Ntp247
Rp248
(dp249
g28
I41
sg29
VZubat
p250
sg31
g32
sg33
V16
p251
sg35
(lp252
VLeech Life
p253
aVSupersonic
p254
aVAstonish
p255
aVBite
p256
asg40
g41
sg42
VInner Focus
p257
sbag1
(g24
g3
Ntp258
Rp259
(dp260
g28
I153
sg29
VBayleef
p261
sg31
g32
sg33
V18
p262
sg35
(lp263
VPoisonPowder
p264
aVReflect
p265
aVSynthesis
p266
aVRazor Leaf
p267
asg40
g41
sg42
VOvergrow
p268
sbasg65
I01
sg66
g186
sba.