(lp0
ccopy_reg
_reconstructor
p1
(c__main__
Trainer
p2
c__builtin__
object
p3
Ntp4
Rp5
(dp6
VtSprite
p7
VSpr GS Twins.png
p8
sVtClass
p9
VTwins
p10
sVtName
p11
VAmy & May
p12
sVtMoney
p13
V200
p14
sVtPokeCount
p15
V2
p16
sVtLocation
p17
Vwiki/Azalea_Gym
p18
sVtRegion
p19
VJohto
p20
sVtGame
p21
VGS
p22
sVtPokes
p23
(lp24
g1
(c__main__
FinishedPokemon
p25
g3
Ntp26
Rp27
(dp28
VpDexNo
p29
V165
p30
sVpSpecies
p31
VLedyba
p32
sVpGender
p33
VF
p34
sVpLevel
p35
V10
p36
sVpMoves
p37
(lp38
Vreflect
p39
aVswift
p40
aVsafeguard
p41
aVbaton-pass
p42
asVpHold
p43
V
p44
sVpAbility
p45
Vswarm
p46
sbag1
(g25
g3
Ntp47
Rp48
(dp49
g29
V167
p50
sg31
VSpinarak
p51
sg33
g34
sg35
V10
p52
sg37
(lp53
Vleech-life
p54
aVfury-swipes
p55
aVspider-web
p56
aVscary-face
p57
asg43
g44
sg45
Vswarm
p58
sbasVbossFlag
p59
I00
sVtLongGame
p60
Vgold-silver
p61
sbag1
(g2
g3
Ntp62
Rp63
(dp64
g7
VSpr GS Bug Catcher.png
p65
sg9
VBug Catcher
p66
sg11
VAl
p67
sg13
V192
p68
sg15
g16
sg17
g18
sg19
g20
sg21
g22
sg23
(lp69
g1
(g25
g3
Ntp70
Rp71
(dp72
g29
V010
p73
sg31
VCaterpie
p74
sg33
VM
p75
sg35
V12
p76
sg37
(lp77
Vtackle
p78
aVstring-shot
p79
asg43
g44
sg45
Vshield-dust
p80
sbag1
(g25
g3
Ntp81
Rp82
(dp83
g29
V013
p84
sg31
VWeedle
p85
sg33
g75
sg35
V12
p86
sg37
(lp87
Vpoison-sting
p88
aVstring-shot
p89
asg43
g44
sg45
Vshield-dust
p90
sbasg59
I00
sg60
g61
sbag1
(g2
g3
Ntp91
Rp92
(dp93
g7
VSpr GS Bug Catcher.png
p94
sg9
VBug Catcher
p95
sg11
VBenny
p96
sg13
V192
p97
sg15
V3
p98
sg17
g18
sg19
g20
sg21
g22
sg23
(lp99
g1
(g25
g3
Ntp100
Rp101
(dp102
g29
V013
p103
sg31
VWeedle
p104
sg33
g75
sg35
V7
p105
sg37
(lp106
Vpoison-sting
p107
aVstring-shot
p108
asg43
g44
sg45
Vshield-dust
p109
sbag1
(g25
g3
Ntp110
Rp111
(dp112
g29
V014
p113
sg31
VKakuna
p114
sg33
g75
sg35
V9
p115
sg37
(lp116
Vharden
p117
ag117
asg43
g44
sg45
Vshed-skin
p118
sbag1
(g25
g3
Ntp119
Rp120
(dp121
g29
V015
p122
sg31
VBeedrill
p123
sg33
g75
sg35
V12
p124
sg37
(lp125
Vagility
p126
aVrage
p127
aVfocus-energy
p128
aVpursuit
p129
asg43
g44
sg45
Vswarm
p130
sbasg59
I00
sg60
g61
sbag1
(g2
g3
Ntp131
Rp132
(dp133
g7
VSpr GS Bug Catcher.png
p134
sg9
VBug Catcher
p135
sg11
VJosh
p136
sg13
V208
p137
sg15
V1
p138
sg17
g18
sg19
g20
sg21
g22
sg23
(lp139
g1
(g25
g3
Ntp140
Rp141
(dp142
g29
V046
p143
sg31
VParas
p144
sg33
g75
sg35
V13
p145
sg37
(lp146
Vleech-life
p147
aVspore
p148
aVslash
p149
aVgiga-drain
p150
asg43
g44
sg45
Vdry-skin
p151
sbasg59
I00
sg60
g61
sbag1
(g2
g3
Ntp152
Rp153
(dp154
g7
VSpr HGSS Bug Catcher.png
p155
sg9
VBug Catcher
p156
sg11
VAl
p157
sg13
V192
p158
sg15
g16
sg17
g18
sg19
g20
sg21
VHGSS
p159
sg23
(lp160
g1
(g25
g3
Ntp161
Rp162
(dp163
g29
V010
p164
sg31
VCaterpie
p165
sg33
g75
sg35
V12
p166
sg37
(lp167
Vtackle
p168
aVstring-shot
p169
aVbug-bite
p170
asg43
g44
sg45
Vshield-dust
p171
sbag1
(g25
g3
Ntp172
Rp173
(dp174
g29
V013
p175
sg31
VWeedle
p176
sg33
g75
sg35
V12
p177
sg37
(lp178
Vpoison-sting
p179
aVstring-shot
p180
aVbug-bite
p181
asg43
g44
sg45
Vshield-dust
p182
sbasg59
I00
sg60
Vheartgold-soulsilver
p183
sbag1
(g2
g3
Ntp184
Rp185
(dp186
g7
VSpr HGSS Bug Catcher.png
p187
sg9
VBug Catcher
p188
sg11
VBenny
p189
sg13
V192
p190
sg15
g98
sg17
g18
sg19
g20
sg21
g159
sg23
(lp191
g1
(g25
g3
Ntp192
Rp193
(dp194
g29
V013
p195
sg31
VWeedle
p196
sg33
g75
sg35
g105
sg37
(lp197
Vpoison-sting
p198
aVstring-shot
p199
aVbug-bite
p200
asg43
g44
sg45
Vshield-dust
p201
sbag1
(g25
g3
Ntp202
Rp203
(dp204
g29
V014
p205
sg31
VKakuna
p206
sg33
g75
sg35
g115
sg37
(lp207
Vharden
p208
ag208
asg43
g44
sg45
Vshed-skin
p209
sbag1
(g25
g3
Ntp210
Rp211
(dp212
g29
V015
p213
sg31
VBeedrill
p214
sg33
g75
sg35
V12
p215
sg37
(lp216
Vendeavor
p217
aVassurance
p218
aVtoxic-spikes
p219
aVpoison-jab
p220
asg43
g44
sg45
Vswarm
p221
sbasg59
I00
sg60
g183
sbag1
(g2
g3
Ntp222
Rp223
(dp224
g7
VSpr HGSS Bug Catcher.png
p225
sg9
VBug Catcher
p226
sg11
VJosh
p227
sg13
V208
p228
sg15
g138
sg17
g18
sg19
g20
sg21
g159
sg23
(lp229
g1
(g25
g3
Ntp230
Rp231
(dp232
g29
V046
p233
sg31
VParas
p234
sg33
g75
sg35
V13
p235
sg37
(lp236
Vslash
p237
aVgiga-drain
p238
aVaromatherapy
p239
aVx-scissor
p240
asg43
g44
sg45
Vdry-skin
p241
sbasg59
I00
sg60
g183
sbag1
(g2
g3
Ntp242
Rp243
(dp244
g7
VSpr HGSS Twins.png
p245
sg9
VTwins
p246
sg11
VAmy & Mimi
p247
sg13
V320
p248
sg15
g16
sg17
g18
sg19
g20
sg21
g159
sg23
(lp249
g1
(g25
g3
Ntp250
Rp251
(dp252
g29
V165
p253
sg31
VLedyba
p254
sg33
g34
sg35
V10
p255
sg37
(lp256
Vsafeguard
p257
aVbaton-pass
p258
aVsilver-wind
p259
aVbug-buzz
p260
asg43
g44
sg45
Vswarm
p261
sbag1
(g25
g3
Ntp262
Rp263
(dp264
g29
V167
p265
sg31
VSpinarak
p266
sg33
g34
sg35
V10
p267
sg37
(lp268
Vscary-face
p269
aVsucker-punch
p270
aVpoison-jab
p271
aVshadow-sneak
p272
asg43
g44
sg45
Vswarm
p273
sbasg59
I00
sg60
g183
sbag1
(g2
g3
Ntp274
Rp275
(dp276
g7
VSpr GS Bugsy.png
p277
sg9
VLeader
p278
sg11
VBugsy
p279
sg13
V1600
p280
sg15
I3
sg17
g18
sg19
g20
sg21
g22
sg23
(lp281
g1
(g25
g3
Ntp282
Rp283
(dp284
g29
I11
sg31
VMetapod
p285
sg33
g75
sg35
V14
p286
sg37
(lp287
VTackle
p288
aVString Shot
p289
aVHarden
p290
asg43
g44
sg45
Vshed-skin
p291
sbag1
(g25
g3
Ntp292
Rp293
(dp294
g29
I14
sg31
VKakuna
p295
sg33
g75
sg35
V14
p296
sg37
(lp297
VPoison Sting
p298
aVString Shot
p299
aVHarden
p300
asg43
g44
sg45
Vshed-skin
p301
sbag1
(g25
g3
Ntp302
Rp303
(dp304
g29
I123
sg31
VScyther
p305
sg33
g75
sg35
V16
p306
sg37
(lp307
VFury Cutter
p308
aVQuick Attack
p309
aVLeer
p310
asg43
g44
sg45
Vtechnician
p311
sbasg59
I01
sg60
g61
sbag1
(g2
g3
Ntp312
Rp313
(dp314
g7
VSpr HGSS Bugsy.png
p315
sg9
VLeader
p316
sg11
VBugsy
p317
sg13
V1800
p318
sg15
I3
sg17
g18
sg19
g20
sg21
g159
sg23
(lp319
g1
(g25
g3
Ntp320
Rp321
(dp322
g29
I123
sg31
VScyther
p323
sg33
g34
sg35
V17
p324
sg37
(lp325
VQuick Attack
p326
aVLeer
p327
aVU-turn
p328
aVFocus Energy
p329
asg43
VSitrus Berry
p330
sg45
VTechnician
p331
sbag1
(g25
g3
Ntp332
Rp333
(dp334
g29
I11
sg31
VMetapod
p335
sg33
g34
sg35
V15
p336
sg37
(lp337
VTackle
p338
asg43
g44
sg45
VShed Skin
p339
sbag1
(g25
g3
Ntp340
Rp341
(dp342
g29
I14
sg31
VKakuna
p343
sg33
g34
sg35
V15
p344
sg37
(lp345
VPoison Sting
p346
asg43
g44
sg45
VShed Skin
p347
sbasg59
I01
sg60
g183
sba.