(lp0
ccopy_reg
_reconstructor
p1
(c__main__
Trainer
p2
c__builtin__
object
p3
Ntp4
Rp5
(dp6
VtSprite
p7
VVSSwimmer M VI.png
p8
sVtClass
p9
VSwimmer \u2642
p10
sVtName
p11
VKieran
p12
sVtMoney
p13
V432
p14
sVtPokeCount
p15
V3
p16
sVtLocation
p17
Vwiki/Azure_Bay
p18
sVtRegion
p19
VKalos
p20
sVtGame
p21
VSM
p22
sVtPokes
p23
(lp24
g1
(c__main__
FinishedPokemon
p25
g3
Ntp26
Rp27
(dp28
VpDexNo
p29
V223
p30
sVpSpecies
p31
VRemoraid
p32
sVpGender
p33
VM
p34
sVpLevel
p35
V27
p36
sVpMoves
p37
(lp38
Vsignal-beam
p39
aVbullet-seed
p40
aVwater-pulse
p41
aVsoak
p42
asVpHold
p43
V
p44
sVpAbility
p45
Vhustle
p46
sbag1
(g25
g3
Ntp47
Rp48
(dp49
g29
V690
p50
sg31
VSkrelp
p51
sg33
g34
sg35
V27
p52
sg37
(lp53
Vpoison-tail
p54
aVwater-pulse
p55
aVaqua-tail
p56
aVdragon-pulse
p57
asg43
g44
sg45
Vpoison-point
p58
sbag1
(g25
g3
Ntp59
Rp60
(dp61
g29
V320
p62
sg31
VWailmer
p63
sg33
g34
sg35
V27
p64
sg37
(lp65
Vbounce
p66
aVwater-pulse
p67
aVbrine
p68
aVheavy-slam
p69
asg43
g44
sg45
Vwater-veil
p70
sbasVbossFlag
p71
I00
sVtLongGame
p72
Vsun-moon
p73
sbag1
(g2
g3
Ntp74
Rp75
(dp76
g7
VVSSwimmer F XY.png
p77
sg9
VSwimmer \u2640
p78
sg11
VRomy
p79
sg13
V480
p80
sg15
V1
p81
sg17
g18
sg19
g20
sg21
VSM
p82
sg23
(lp83
g1
(g25
g3
Ntp84
Rp85
(dp86
g29
V079
p87
sg31
VSlowpoke
p88
sg33
VF
p89
sg35
V30
p90
sg37
(lp91
Vslack-off
p92
aVwater-pulse
p93
aVzen-headbutt
p94
aVheal-pulse
p95
asg43
g44
sg45
Vown-tempo
p96
sbasg71
I00
sg72
g73
sbag1
(g2
g3
Ntp97
Rp98
(dp99
g7
VVSFisherman.png
p100
sg9
VFisherman
p101
sg11
VEwan
p102
sg13
V1,624
p103
sg15
V2
p104
sg17
g18
sg19
g20
sg21
VSM
p105
sg23
(lp106
g1
(g25
g3
Ntp107
Rp108
(dp109
g29
V692
p110
sg31
VClauncher
p111
sg33
g34
sg35
V27
p112
sg37
(lp113
Vwater-sport
p114
aVwater-pulse
p115
aVaqua-jet
p116
aVsmack-down
p117
asg43
g44
sg45
Vmega-launcher
p118
sbag1
(g25
g3
Ntp119
Rp120
(dp121
g29
V318
p122
sg31
VCarvanha
p123
sg33
g34
sg35
V29
p124
sg37
(lp125
Vpoison-fang
p126
aVassurance
p127
aVice-fang
p128
aVaqua-jet
p129
asg43
g44
sg45
Vrough-skin
p130
sbasg71
I00
sg72
g73
sbag1
(g2
g3
Ntp131
Rp132
(dp133
g7
VVSSky Trainer M.png
p134
sg9
VSky Trainer
p135
sg11
VIndra
p136
sg13
V3,100
p137
sg15
g81
sg17
g18
sg19
g20
sg21
VSM
p138
sg23
(lp139
g1
(g25
g3
Ntp140
Rp141
(dp142
g29
V561
p143
sg31
VSigilyph
p144
sg33
g34
sg35
V31
p145
sg37
(lp146
Vmiracle-eye
p147
aVtailwind
p148
aVair-slash
p149
aVsynchronoise
p150
asg43
g44
sg45
Vwonder-skin
p151
sbasg71
I00
sg72
g73
sbag1
(g2
g3
Ntp152
Rp153
(dp154
g7
VVSSwimmer F XY.png
p155
sg9
VSwimmer \u2640
p156
sg11
VIsla
p157
sg13
V448
p158
sg15
g104
sg17
g18
sg19
g20
sg21
g82
sg23
(lp159
g1
(g25
g3
Ntp160
Rp161
(dp162
g29
V222
p163
sg31
VCorsola
p164
sg33
g89
sg35
V28
p165
sg37
(lp166
Vlucky-chant
p167
aVaqua-ring
p168
aVpower-gem
p169
aVearth-power
p170
asg43
g44
sg45
Vhustle
p171
sbag1
(g25
g3
Ntp172
Rp173
(dp174
g29
V171
p175
sg31
VLanturn
p176
sg33
g89
sg35
V28
p177
sg37
(lp178
Velectro-ball
p179
ag179
aVion-deluge
p180
aVeerie-impulse
p181
asg43
g44
sg45
Vvolt-absorb
p182
sbasg71
I00
sg72
g73
sbag1
(g2
g3
Ntp183
Rp184
(dp185
g7
VVSSky Trainer F.png
p186
sg9
VSky Trainer
p187
sg11
VElata
p188
sg13
V2,900
p189
sg15
g104
sg17
g18
sg19
g20
sg21
VSM
p190
sg23
(lp191
g1
(g25
g3
Ntp192
Rp193
(dp194
g29
V662
p195
sg31
VFletchinder
p196
sg33
g89
sg35
V28
p197
sg37
(lp198
Vtailwind
p199
aVme-first
p200
aVflame-charge
p201
aVacrobatics
p202
asg43
g44
sg45
Vflame-body
p203
sbag1
(g25
g3
Ntp204
Rp205
(dp206
g29
V279
p207
sg31
VPelipper
p208
sg33
g89
sg35
V29
p209
sg37
(lp210
Vfling
p211
aVsoak
p212
aVhurricane
p213
ag213
asg43
g44
sg45
Vdrizzle
p214
sbasg71
I00
sg72
g73
sba.