(lp0
ccopy_reg
_reconstructor
p1
(c__main__
Trainer
p2
c__builtin__
object
p3
Ntp4
Rp5
(dp6
VtSprite
p7
VVSGym Trainer Fairy F.png
p8
sVtClass
p9
VGym Trainer
p10
sVtName
p11
VAnnette
p12
sVtMoney
p13
V3,264
p14
sVtPokeCount
p15
V2
p16
sVtLocation
p17
Vwiki/Ballonlea_Stadium
p18
sVtRegion
p19
VGalar
p20
sVtGame
p21
VSM
p22
sVtPokes
p23
(lp24
g1
(c__main__
FinishedPokemon
p25
g3
Ntp26
Rp27
(dp28
VpDexNo
p29
V682
p30
sVpSpecies
p31
VSpritzee
p32
sVpGender
p33
VF
p34
sVpLevel
p35
V34
p36
sVpMoves
p37
(lp38
Vdraining-kiss
p39
aVmisty-terrain
p40
aVfairy-wind
p41
aVmoonblast
p42
asVpHold
p43
V
p44
sVpAbility
p45
Vhealer
p46
sbag1
(g25
g3
Ntp47
Rp48
(dp49
g29
V685
p50
sg31
VSlurpuff
p51
sg33
g34
sg35
V34
p52
sg37
(lp53
Vfairy-wind
p54
ag54
aVplay-nice
p55
ag55
asg43
g44
sg45
Vsweet-veil
p56
sbasVbossFlag
p57
I00
sVtLongGame
p58
Vsun-moon
p59
sbag1
(g2
g3
Ntp60
Rp61
(dp62
g7
VVSGym Trainer Fairy F.png
p63
sg9
VGym Trainer
p64
sg11
VTeresa
p65
sg13
V3,264
p66
sg15
g16
sg17
g18
sg19
g20
sg21
g22
sg23
(lp67
g1
(g25
g3
Ntp68
Rp69
(dp70
g29
V684
p71
sg31
VSwirlix
p72
sg33
VM
p73
sg35
V34
p74
sg37
(lp75
Vdraining-kiss
p76
aVplay-rough
p77
aVfairy-wind
p78
aVplay-nice
p79
asg43
g44
sg45
Vsweet-veil
p80
sbag1
(g25
g3
Ntp81
Rp82
(dp83
g29
V683
p84
sg31
VAromatisse
p85
sg33
g73
sg35
V34
p86
sg37
(lp87
Vmisty-terrain
p88
aVfairy-wind
p89
aVmoonblast
p90
aVaromatic-mist
p91
asg43
g44
sg45
Vhealer
p92
sbasg57
I00
sg58
g59
sbag1
(g2
g3
Ntp93
Rp94
(dp95
g7
VVSGym Trainer Fairy F.png
p96
sg9
VGym Trainer
p97
sg11
VTheodora
p98
sg13
V3,360
p99
sg15
g16
sg17
g18
sg19
g20
sg21
g22
sg23
(lp100
g1
(g25
g3
Ntp101
Rp102
(dp103
g29
V860
p104
sg31
VMorgrem
p105
sg33
g73
sg35
V35
p106
sg37
(lp107
sg43
g44
sg45
Vprankster
p108
sbag1
(g25
g3
Ntp109
Rp110
(dp111
g29
V282
p112
sg31
VGardevoir
p113
sg33
g73
sg35
V35
p114
sg37
(lp115
Vdraining-kiss
p116
aVmisty-terrain
p117
aVmoonblast
p118
ag118
asg43
g44
sg45
Vtrace
p119
sbasg57
I00
sg58
g59
sbag1
(g2
g3
Ntp120
Rp121
(dp122
g7
VVSOpal.png
p123
sg9
VGym Leader
p124
sg11
VOpal
p125
sg13
V6,080
p126
sg15
I4
sg17
g18
sg19
g20
sg21
VSM
p127
sg23
(lp128
g1
(g25
g3
Ntp129
Rp130
(dp131
g29
I110
sg31
VWeezing
p132
sg33
g34
sg35
V36
p133
sg37
(lp134
VSludge
p135
aVFairy Wind
p136
aVTackle
p137
asg43
g44
sg45
VLevitate
p138
sbag1
(g25
g3
Ntp139
Rp140
(dp141
g29
I303
sg31
VMawile
p142
sg33
g34
sg35
V36
p143
sg37
(lp144
VDraining Kiss
p145
aVCrunch
p146
aVIron Defense
p147
aVAstonish
p148
asg43
g44
sg45
VIntimidate
p149
sbag1
(g25
g3
Ntp150
Rp151
(dp152
g29
I468
sg31
VTogekiss
p153
sg33
g34
sg35
V37
p154
sg37
(lp155
VAir Slash
p156
aVDraining Kiss
p157
aVAncient Power
p158
asg43
g44
sg45
VHustle
p159
sbag1
(g25
g3
Ntp160
Rp161
(dp162
g29
I869
sg31
VAlcremie
p163
sg33
g34
sg35
V38
p164
sg37
(lp165
VDraining Kiss
p166
aVAcid Armor
p167
aVSweet Kiss
p168
asg43
g44
sg45
VSweet Veil
p169
sbasg57
I01
sg58
g59
sbag1
(g2
g3
Ntp170
Rp171
(dp172
g7
VVSBede 2.png
p173
sg9
VGym Leader
p174
sg11
VBede
p175
sg13
V10,080
p176
sg15
I4
sg17
g18
sg19
g20
sg21
VSM
p177
sg23
(lp178
g1
(g25
g3
Ntp179
Rp180
(dp181
g29
I303
sg31
VMawile
p182
sg33
g34
sg35
V61
p183
sg37
(lp184
VPlay Rough
p185
aVFake Tears
p186
aVIron Head
p187
aVCrunch
p188
asg43
g44
sg45
VIntimidate
p189
sbag1
(g25
g3
Ntp190
Rp191
(dp192
g29
I282
sg31
VGardevoir
p193
sg33
g34
sg35
V61
p194
sg37
(lp195
VDazzling Gleam
p196
aVPsychic
p197
aVFuture Sight
p198
aVMagical Leaf
p199
asg43
g44
sg45
VSynchronize
p200
sbag1
(g25
g3
Ntp201
Rp202
(dp203
g29
I78
sg31
VRapidash
p204
sg33
g73
sg35
V62
p205
sg37
(lp206
VSmart Strike
p207
aVPsycho Cut
p208
aVDazzling Gleam
p209
aVStomp
p210
asg43
g44
sg45
VPastel Veil
p211
sbag1
(g25
g3
Ntp212
Rp213
(dp214
g29
I858
sg31
VHatterene
p215
sg33
g34
sg35
V63
p216
sg37
(lp217
VPsychic
p218
aVCalm Mind
p219
aVDazzling Gleam
p220
aVMystical Fire
p221
asg43
g44
sg45
VAnticipation
p222
sbasg57
I01
sg58
g59
sba.