(lp0
ccopy_reg
_reconstructor
p1
(c__main__
Trainer
p2
c__builtin__
object
p3
Ntp4
Rp5
(dp6
VtSprite
p7
VSpr E Anabel.png
p8
sVtClass
p9
VSalon Maiden
p10
sVtName
p11
VAnabel
p12
sVtMoney
p13
V15{{color2|000|battle point|bp}}
p14
sVtPokeCount
p15
I3
sVtLocation
p16
Vwiki/Battle_Tower_(Generation_III)
p17
sVtRegion
p18
VHoenn
p19
sVtGame
p20
VE
p21
sVtPokes
p22
(lp23
g1
(c__main__
FinishedPokemon
p24
g3
Ntp25
Rp26
(dp27
VpDexNo
p28
I65
sVpSpecies
p29
VAlakazam
p30
sVpGender
p31
VU
p32
sVpLevel
p33
g1
(cmwparserfromhell.wikicode
Wikicode
p34
g3
Ntp35
Rp36
(dp37
V_nodes
p38
g1
(cmwparserfromhell.smart_list.smart_list
SmartList
p39
c__builtin__
list
p40
(lp41
g1
(cmwparserfromhell.nodes.text
Text
p42
g3
Ntp43
Rp44
(dp45
V_value
p46
V50
p47
sbatp48
Rp49
(dp50
V_children
p51
(dp52
sbsbsVpMoves
p53
(lp54
VIce Punch
p55
aVThunderPunch
p56
aVFire Punch
p57
aVDisable
p58
asVpHold
p59
VBrightPowder
p60
sVpAbility
p61
VSynchronize
p62
sbag1
(g24
g3
Ntp63
Rp64
(dp65
g28
I244
sg29
VEntei
p66
sg31
g32
sg33
g1
(g34
g3
Ntp67
Rp68
(dp69
g38
g1
(g39
g40
(lp70
g1
(g42
g3
Ntp71
Rp72
(dp73
g46
V50
p74
sbatp75
Rp76
(dp77
g51
(dp78
sbsbsg53
(lp79
VFire Blast
p80
aVCalm Mind
p81
aVReturn
p82
aVRoar
p83
asg59
VLum Berry
p84
sg61
VPressure
p85
sbag1
(g24
g3
Ntp86
Rp87
(dp88
g28
I143
sg29
VSnorlax
p89
sg31
g32
sg33
g1
(g34
g3
Ntp90
Rp91
(dp92
g38
g1
(g39
g40
(lp93
g1
(g42
g3
Ntp94
Rp95
(dp96
g46
V50
p97
sbatp98
Rp99
(dp100
g51
(dp101
sbsbsg53
(lp102
VBody Slam
p103
aVBelly Drum
p104
aVYawn
p105
aVShadow Ball
p106
asg59
VQuick Claw
p107
sg61
VImmunity
p108
sbasVbossFlag
p109
I01
sVtLongGame
p110
Vemerald
p111
sbag1
(g2
g3
Ntp112
Rp113
(dp114
g7
VSpr E Anabel.png
p115
sg9
VSalon Maiden
p116
sg11
VAnabel
p117
sg13
V20{{color2|000|battle point|bp}}
p118
sg15
I3
sg16
g17
sg18
g19
sg20
g21
sg22
(lp119
g1
(g24
g3
Ntp120
Rp121
(dp122
g28
I243
sg29
VRaikou
p123
sg31
g32
sg33
g1
(g34
g3
Ntp124
Rp125
(dp126
g38
g1
(g39
g40
(lp127
g1
(g42
g3
Ntp128
Rp129
(dp130
g46
V50
p131
sbatp132
Rp133
(dp134
g51
(dp135
sbsbsg53
(lp136
VThunderbolt
p137
aVCalm Mind
p138
aVReflect
p139
aVRest
p140
asg59
VLum Berry
p141
sg61
VPressure
p142
sbag1
(g24
g3
Ntp143
Rp144
(dp145
g28
I381
sg29
VLatios
p146
sg31
VM
p147
sg33
g1
(g34
g3
Ntp148
Rp149
(dp150
g38
g1
(g39
g40
(lp151
g1
(g42
g3
Ntp152
Rp153
(dp154
g46
V50
p155
sbatp156
Rp157
(dp158
g51
(dp159
sbsbsg53
(lp160
VPsychic
p161
aVDragon Claw
p162
aVCalm Mind
p163
aVRecover
p164
asg59
VBrightPowder
p165
sg61
VLevitate
p166
sbag1
(g24
g3
Ntp167
Rp168
(dp169
g28
I143
sg29
VSnorlax
p170
sg31
g32
sg33
g1
(g34
g3
Ntp171
Rp172
(dp173
g38
g1
(g39
g40
(lp174
g1
(g42
g3
Ntp175
Rp176
(dp177
g46
V50
p178
sbatp179
Rp180
(dp181
g51
(dp182
sbsbsg53
(lp183
VCurse
p184
aVReturn
p185
aVRest
p186
aVShadow Ball
p187
asg59
VChesto Berry
p188
sg61
VImmunity
p189
sbasg109
I01
sg110
g111
sba.