(lp0
ccopy_reg
_reconstructor
p1
(c__main__
Trainer
p2
c__builtin__
object
p3
Ntp4
Rp5
(dp6
VtSprite
p7
VSpr Pt Darach Caitlin.png
p8
sVtClass
p9
VCastle Valet
p10
sVtName
p11
VDarach
p12
sVtMoney
p13
V20{{color2|000|battle point|bp}}
p14
sVtPokeCount
p15
I3
sVtLocation
p16
Vwiki/Battle_Castle
p17
sVtRegion
p18
V
p19
sVtGame
p20
VPt
p21
sVtPokes
p22
(lp23
g1
(c__main__
FinishedPokemon
p24
g3
Ntp25
Rp26
(dp27
VpDexNo
p28
I398
sVpSpecies
p29
VStaraptor
p30
sVpGender
p31
VU
p32
sVpLevel
p33
g1
(cmwparserfromhell.wikicode
Wikicode
p34
g3
Ntp35
Rp36
(dp37
V_nodes
p38
g1
(cmwparserfromhell.smart_list.smart_list
SmartList
p39
c__builtin__
list
p40
(lp41
g1
(cmwparserfromhell.nodes.text
Text
p42
g3
Ntp43
Rp44
(dp45
V_value
p46
V50
p47
sbatp48
Rp49
(dp50
V_children
p51
(dp52
sbsbsVpMoves
p53
(lp54
VReturn
p55
aVDouble Team
p56
aVAerial Ace
p57
aVRoost
p58
asVpHold
p59
VKing's Rock
p60
sVpAbility
p61
VIntimidate
p62
sbag1
(g24
g3
Ntp63
Rp64
(dp65
g28
I395
sg29
VEmpoleon
p66
sg31
g32
sg33
g1
(g34
g3
Ntp67
Rp68
(dp69
g38
g1
(g39
g40
(lp70
g1
(g42
g3
Ntp71
Rp72
(dp73
g46
V50
p74
sbatp75
Rp76
(dp77
g51
(dp78
sbsbsg53
(lp79
VWaterfall
p80
aVMetal Claw
p81
aVBrick Break
p82
aVKnock Off
p83
asg59
VRazor Claw
p84
sg61
VTorrent
p85
sbag1
(g24
g3
Ntp86
Rp87
(dp88
g28
I229
sg29
VHoundoom
p89
sg31
g32
sg33
g1
(g34
g3
Ntp90
Rp91
(dp92
g38
g1
(g39
g40
(lp93
g1
(g42
g3
Ntp94
Rp95
(dp96
g46
V50
p97
sbatp98
Rp99
(dp100
g51
(dp101
sbsbsg53
(lp102
VCrunch
p103
aVFire Fang
p104
aVCounter
p105
aVRoar
p106
asg59
VFocus Sash
p107
sg61
VEarly Bird
p108
sbasVbossFlag
p109
I01
sVtLongGame
p110
Vplatinum
p111
sbag1
(g2
g3
Ntp112
Rp113
(dp114
g7
VSpr Pt Darach Caitlin.png
p115
sg9
VCastle Valet
p116
sg11
VDarach
p117
sg13
V20{{color2|000|battle point|bp}}
p118
sg15
I3
sg16
g17
sg18
g19
sg20
g21
sg22
(lp119
g1
(g24
g3
Ntp120
Rp121
(dp122
g28
I398
sg29
VStaraptor
p123
sg31
g32
sg33
g1
(g34
g3
Ntp124
Rp125
(dp126
g38
g1
(g39
g40
(lp127
g1
(g42
g3
Ntp128
Rp129
(dp130
g46
V50
p131
sbatp132
Rp133
(dp134
g51
(dp135
sbsbsg53
(lp136
VAerial Ace
p137
aVEndure
p138
aVQuick Attack
p139
aVEndeavor
p140
asg59
VKing's Rock
p141
sg61
VIntimidate
p142
sbag1
(g24
g3
Ntp143
Rp144
(dp145
g28
I395
sg29
VEmpoleon
p146
sg31
g32
sg33
g1
(g34
g3
Ntp147
Rp148
(dp149
g38
g1
(g39
g40
(lp150
g1
(g42
g3
Ntp151
Rp152
(dp153
g46
V50
p154
sbatp155
Rp156
(dp157
g51
(dp158
sbsbsg53
(lp159
VAqua Jet
p160
aVDrill Peck
p161
aVRock Slide
p162
aVShadow Claw
p163
asg59
VRazor Claw
p164
sg61
VTorrent
p165
sbag1
(g24
g3
Ntp166
Rp167
(dp168
g28
I229
sg29
VHoundoom
p169
sg31
g32
sg33
g1
(g34
g3
Ntp170
Rp171
(dp172
g38
g1
(g39
g40
(lp173
g1
(g42
g3
Ntp174
Rp175
(dp176
g46
V50
p177
sbatp178
Rp179
(dp180
g51
(dp181
sbsbsg53
(lp182
VFire Fang
p183
aVThunder Fang
p184
aVReversal
p185
aVEndure
p186
asg59
VFocus Sash
p187
sg61
VEarly Bird
p188
sbasg109
I01
sg110
g111
sbag1
(g2
g3
Ntp189
Rp190
(dp191
g7
VSpr Pt Darach Caitlin.png
p192
sg9
VCastle Valet
p193
sg11
VDarach
p194
sg13
V20{{color2|000|battle point|bp}}
p195
sg15
I3
sg16
g17
sg18
g19
sg20
g21
sg22
(lp196
g1
(g24
g3
Ntp197
Rp198
(dp199
g28
I244
sg29
VEntei
p200
sg31
g32
sg33
g1
(g34
g3
Ntp201
Rp202
(dp203
g38
g1
(g39
g40
(lp204
g1
(g42
g3
Ntp205
Rp206
(dp207
g46
V50
p208
sbatp209
Rp210
(dp211
g51
(dp212
sbsbsg53
(lp213
VFire Blast
p214
aVSunny Day
p215
aVSolarBeam
p216
aVHyper Beam
p217
asg59
VShuca Berry
p218
sg61
VPressure
p219
sbag1
(g24
g3
Ntp220
Rp221
(dp222
g28
I395
sg29
VEmpoleon
p223
sg31
g32
sg33
g1
(g34
g3
Ntp224
Rp225
(dp226
g38
g1
(g39
g40
(lp227
g1
(g42
g3
Ntp228
Rp229
(dp230
g46
V50
p231
sbatp232
Rp233
(dp234
g51
(dp235
sbsbsg53
(lp236
VSurf
p237
aVBlizzard
p238
aVEarthquake
p239
aVSignal Beam
p240
asg59
VQuick Claw
p241
sg61
VTorrent
p242
sbag1
(g24
g3
Ntp243
Rp244
(dp245
g28
I475
sg29
VGallade
p246
sg31
VM
p247
sg33
g1
(g34
g3
Ntp248
Rp249
(dp250
g38
g1
(g39
g40
(lp251
g1
(g42
g3
Ntp252
Rp253
(dp254
g46
V50
p255
sbatp256
Rp257
(dp258
g51
(dp259
sbsbsg53
(lp260
VPsycho Cut
p261
aVStone Edge
p262
aVX-Scissor
p263
aVAerial Ace
p264
asg59
VScope Lens
p265
sg61
VSteadfast
p266
sbasg109
I01
sg110
g111
sbag1
(g2
g3
Ntp267
Rp268
(dp269
g7
VSpr Pt Darach Caitlin.png
p270
sg9
VCastle Valet
p271
sg11
VDarach
p272
sg13
V20{{color2|000|battle point|bp}}
p273
sg15
I3
sg16
g17
sg18
g19
sg20
g21
sg22
(lp274
g1
(g24
g3
Ntp275
Rp276
(dp277
g28
I244
sg29
VEntei
p278
sg31
g32
sg33
g1
(g34
g3
Ntp279
Rp280
(dp281
g38
g1
(g39
g40
(lp282
g1
(g42
g3
Ntp283
Rp284
(dp285
g46
V50
p286
sbatp287
Rp288
(dp289
g51
(dp290
sbsbsg53
(lp291
VOverheat
p292
aVShadow Ball
p293
aVExtrasensory
p294
aVCalm Mind
p295
asg59
VShuca Berry
p296
sg61
VPressure
p297
sbag1
(g24
g3
Ntp298
Rp299
(dp300
g28
I395
sg29
VEmpoleon
p301
sg31
g32
sg33
g1
(g34
g3
Ntp302
Rp303
(dp304
g38
g1
(g39
g40
(lp305
g1
(g42
g3
Ntp306
Rp307
(dp308
g46
V50
p309
sbatp310
Rp311
(dp312
g51
(dp313
sbsbsg53
(lp314
VHydro Cannon
p315
aVFlash Cannon
p316
aVEarthquake
p317
aVDrill Peck
p318
asg59
VQuick Claw
p319
sg61
VTorrent
p320
sbag1
(g24
g3
Ntp321
Rp322
(dp323
g28
I475
sg29
VGallade
p324
sg31
g247
sg33
g1
(g34
g3
Ntp325
Rp326
(dp327
g38
g1
(g39
g40
(lp328
g1
(g42
g3
Ntp329
Rp330
(dp331
g46
V50
p332
sbatp333
Rp334
(dp335
g51
(dp336
sbsbsg53
(lp337
VClose Combat
p338
aVPsycho Cut
p339
aVLeaf Blade
p340
aVNight Slash
p341
asg59
VScope Lens
p342
sg61
VSteadfast
p343
sbasg109
I01
sg110
g111
sba.