(lp0
ccopy_reg
_reconstructor
p1
(c__main__
Trainer
p2
c__builtin__
object
p3
Ntp4
Rp5
(dp6
VtSprite
p7
VSpr Pt Roark.png
p8
sVtClass
p9
VLeader
p10
sVtName
p11
VRoark
p12
sVtMoney
p13
V7800
p14
sVtPokeCount
p15
I5
sVtLocation
p16
Vwiki/Battleground
p17
sVtRegion
p18
VSinnoh
p19
sVtGame
p20
VPt
p21
sVtPokes
p22
(lp23
g1
(c__main__
FinishedPokemon
p24
g3
Ntp25
Rp26
(dp27
VpDexNo
p28
I142
sVpSpecies
p29
VAerodactyl
p30
sVpGender
p31
VM
p32
sVpLevel
p33
V62
p34
sVpMoves
p35
(lp36
VStone Edge
p37
aVEarthquake
p38
aVDragon Claw
p39
aVAerial Ace
p40
asVpHold
p41
V
p42
sVpAbility
p43
VRock Head
p44
sbag1
(g24
g3
Ntp45
Rp46
(dp47
g28
I476
sg29
VProbopass
p48
sg31
g32
sg33
V61
p49
sg35
(lp50
VStone Edge
p51
aVEarth Power
p52
aVDischarge
p53
aVStealth Rock
p54
asg41
g42
sg43
VSturdy
p55
sbag1
(g24
g3
Ntp56
Rp57
(dp58
g28
I76
sg29
VGolem
p59
sg31
g32
sg33
V61
p60
sg35
(lp61
VStone Edge
p62
aVEarthquake
p63
aVBrick Break
p64
aVFlamethrower
p65
asg41
g42
sg43
VRock Head
p66
sbag1
(g24
g3
Ntp67
Rp68
(dp69
g28
I409
sg29
VRampardos
p70
sg31
g32
sg33
V63
p71
sg35
(lp72
VHead Smash
p73
aVEarthquake
p74
aVZen Headbutt
p75
aVAvalanche
p76
asg41
g42
sg43
VMold Breaker
p77
sbag1
(g24
g3
Ntp78
Rp79
(dp80
g28
I248
sg29
VTyranitar
p81
sg31
g32
sg33
V65
p82
sg35
(lp83
VStone Edge
p84
aVCrunch
p85
aVFire Fang
p86
aVAerial Ace
p87
asg41
VSitrus Berry
p88
sg43
VSand Stream
p89
sbasVbossFlag
p90
I01
sVtLongGame
p91
Vplatinum
p92
sbag1
(g2
g3
Ntp93
Rp94
(dp95
g7
VSpr Pt Gardenia.png
p96
sg9
VLeader
p97
sg11
VGardenia
p98
sg13
V7800
p99
sg15
I5
sg16
g17
sg18
g19
sg20
g21
sg22
(lp100
g1
(g24
g3
Ntp101
Rp102
(dp103
g28
I189
sg29
VJumpluff
p104
sg31
VF
p105
sg33
V61
p106
sg35
(lp107
VSilver Wind
p108
aVToxic
p109
aVSunny Day
p110
aVBounce
p111
asg41
g42
sg43
VChlorophyll
p112
sbag1
(g24
g3
Ntp113
Rp114
(dp115
g28
I421
sg29
VCherrim
p116
sg31
g105
sg33
V62
p117
sg35
(lp118
VSolarBeam
p119
aVLeech Seed
p120
aVToxic
p121
aVSunny Day
p122
asg41
g42
sg43
VFlower Gift
p123
sbag1
(g24
g3
Ntp124
Rp125
(dp126
g28
I182
sg29
VBellossom
p127
sg31
g105
sg33
V61
p128
sg35
(lp129
VDrain Punch
p130
aVGiga Drain
p131
aVIngrain
p132
aVSunny Day
p133
asg41
g42
sg43
VChlorophyll
p134
sbag1
(g24
g3
Ntp135
Rp136
(dp137
g28
I389
sg29
VTorterra
p138
sg31
g32
sg33
V63
p139
sg35
(lp140
VWood Hammer
p141
aVCrunch
p142
aVEarthquake
p143
aVStone Edge
p144
asg41
g42
sg43
VOvergrow
p145
sbag1
(g24
g3
Ntp146
Rp147
(dp148
g28
I407
sg29
VRoserade
p149
sg31
g105
sg33
V65
p150
sg35
(lp151
VLeaf Storm
p152
aVSludge Bomb
p153
aVShadow Ball
p154
aVHyper Beam
p155
asg41
VSitrus Berry
p156
sg43
VNatural Cure
p157
sbasg90
I01
sg91
g92
sbag1
(g2
g3
Ntp158
Rp159
(dp160
g7
VSpr Pt Fantina.png
p161
sg9
VLeader
p162
sg11
VFantina
p163
sg13
V7800
p164
sg15
I5
sg16
g17
sg18
g19
sg20
g21
sg22
(lp165
g1
(g24
g3
Ntp166
Rp167
(dp168
g28
I354
sg29
VBanette
p169
sg31
g105
sg33
V61
p170
sg35
(lp171
VShadow Claw
p172
aVFaint Attack
p173
aVThunderbolt
p174
aVWill-O-Wisp
p175
asg41
g42
sg43
VInsomnia
p176
sbag1
(g24
g3
Ntp177
Rp178
(dp179
g28
I429
sg29
VMismagius
p180
sg31
g105
sg33
V63
p181
sg35
(lp182
VShadow Ball
p183
aVThunderbolt
p184
aVPsychic
p185
aVMagical Leaf
p186
asg41
g42
sg43
VLevitate
p187
sbag1
(g24
g3
Ntp188
Rp189
(dp190
g28
I426
sg29
VDrifblim
p191
sg31
g105
sg33
V61
p192
sg35
(lp193
VPsychic
p194
aVSilver Wind
p195
aVOminous Wind
p196
aVBaton Pass
p197
asg41
g42
sg43
VAftermath
p198
sbag1
(g24
g3
Ntp199
Rp200
(dp201
g28
I477
sg29
VDusknoir
p202
sg31
g105
sg33
V62
p203
sg35
(lp204
VShadow Punch
p205
aVRock Slide
p206
aVDouble Team
p207
aVProtect
p208
asg41
g42
sg43
VPressure
p209
sbag1
(g24
g3
Ntp210
Rp211
(dp212
g28
I94
sg29
VGengar
p213
sg31
g105
sg33
V65
p214
sg35
(lp215
VFocus Blast
p216
aVThunder
p217
aVShadow Ball
p218
aVPsychic
p219
asg41
VSitrus Berry
p220
sg43
VLevitate
p221
sbasg90
I01
sg91
g92
sbag1
(g2
g3
Ntp222
Rp223
(dp224
g7
VSpr Pt Maylene.png
p225
sg9
VLeader
p226
sg11
VMaylene
p227
sg13
V7920
p228
sg15
I5
sg16
g17
sg18
g19
sg20
g21
sg22
(lp229
g1
(g24
g3
Ntp230
Rp231
(dp232
g28
I237
sg29
VHitmontop
p233
sg31
g32
sg33
V62
p234
sg35
(lp235
VFake Out
p236
aVTriple Kick
p237
aVAerial Ace
p238
aVQuick Attack
p239
asg41
g42
sg43
VIntimidate
p240
sbag1
(g24
g3
Ntp241
Rp242
(dp243
g28
I308
sg29
VMedicham
p244
sg31
g105
sg33
V63
p245
sg35
(lp246
VHi Jump Kick
p247
aVThunderPunch
p248
aVIce Punch
p249
aVFire Punch
p250
asg41
g42
sg43
VPure Power
p251
sbag1
(g24
g3
Ntp252
Rp253
(dp254
g28
I286
sg29
VBreloom
p255
sg31
g105
sg33
V62
p256
sg35
(lp257
VSpore
p258
aVMach Punch
p259
aVSeed Bomb
p260
aVStone Edge
p261
asg41
g42
sg43
VEffect Spore
p262
sbag1
(g24
g3
Ntp263
Rp264
(dp265
g28
I68
sg29
VMachamp
p266
sg31
g32
sg33
V64
p267
sg35
(lp268
VCross Chop
p269
aVRock Climb
p270
aVStone Edge
p271
aVEarthquake
p272
asg41
g42
sg43
VGuts
p273
sbag1
(g24
g3
Ntp274
Rp275
(dp276
g28
I448
sg29
VLucario
p277
sg31
g32
sg33
V66
p278
sg35
(lp279
VClose Combat
p280
aVExtremeSpeed
p281
aVDrain Punch
p282
aVBone Rush
p283
asg41
g42
sg43
VSteadfast
p284
sbasg90
I01
sg91
g92
sbag1
(g2
g3
Ntp285
Rp286
(dp287
g7
VSpr Pt Crasher Wake.png
p288
sg9
VLeader
p289
sg11
VCrasher Wake
p290
sg13
V7800
p291
sg15
I5
sg16
g17
sg18
g19
sg20
g21
sg22
(lp292
g1
(g24
g3
Ntp293
Rp294
(dp295
g28
I319
sg29
VSharpedo
p296
sg31
g32
sg33
V61
p297
sg35
(lp298
VNight Slash
p299
aVSlash
p300
aVAqua Jet
p301
aVEndure
p302
asg41
g42
sg43
VRough Skin
p303
sbag1
(g24
g3
Ntp304
Rp305
(dp306
g28
I195
sg29
VQuagsire
p307
sg31
g32
sg33
V61
p308
sg35
(lp309
VSurf
p310
aVEarthquake
p311
aVStone Edge
p312
aVYawn
p313
asg41
g42
sg43
VDamp
p314
sbag1
(g24
g3
Ntp315
Rp316
(dp317
g28
I419
sg29
VFloatzel
p318
sg31
g32
sg33
V63
p319
sg35
(lp320
VBrine
p321
aVCrunch
p322
aVIce Fang
p323
aVAqua Jet
p324
asg41
g42
sg43
VSwift Swim
p325
sbag1
(g24
g3
Ntp326
Rp327
(dp328
g28
I130
sg29
VGyarados
p329
sg31
g32
sg33
V62
p330
sg35
(lp331
VBite
p332
aVAvalanche
p333
aVAqua Tail
p334
aVGiga Impact
p335
asg41
g42
sg43
VIntimidate
p336
sbag1
(g24
g3
Ntp337
Rp338
(dp339
g28
I272
sg29
VLudicolo
p340
sg31
g32
sg33
V65
p341
sg35
(lp342
VSurf
p343
aVEnergy Ball
p344
aVIce Beam
p345
aVFocus Blast
p346
asg41
VSitrus Berry
p347
sg43
VSwift Swim
p348
sbasg90
I01
sg91
g92
sbag1
(g2
g3
Ntp349
Rp350
(dp351
g7
VSpr Pt Byron.png
p352
sg9
VLeader
p353
sg11
VByron
p354
sg13
V7800
p355
sg15
I5
sg16
g17
sg18
g19
sg20
g21
sg22
(lp356
g1
(g24
g3
Ntp357
Rp358
(dp359
g28
I227
sg29
VSkarmory
p360
sg31
g32
sg33
V61
p361
sg35
(lp362
VDrill Peck
p363
aVNight Slash
p364
aVRock Tomb
p365
aVStealth Rock
p366
asg41
g42
sg43
VKeen Eye
p367
sbag1
(g24
g3
Ntp368
Rp369
(dp370
g28
I462
sg29
VMagnezone
p371
sg31
VU
p372
sg33
V62
p373
sg35
(lp374
VThunderbolt
p375
aVFlash Cannon
p376
aVThunder Wave
p377
aVSupersonic
p378
asg41
g42
sg43
VMagnet Pull
p379
sbag1
(g24
g3
Ntp380
Rp381
(dp382
g28
I208
sg29
VSteelix
p383
sg31
g32
sg33
V61
p384
sg35
(lp385
VGyro Ball
p386
aVIce Fang
p387
aVDragonBreath
p388
aVSandstorm
p389
asg41
g42
sg43
VRock Head
p390
sbag1
(g24
g3
Ntp391
Rp392
(dp393
g28
I411
sg29
VBastiodon
p394
sg31
g32
sg33
V63
p395
sg35
(lp396
VMetal Burst
p397
aVAncientPower
p398
aVIron Defense
p399
aVRest
p400
asg41
g42
sg43
VSturdy
p401
sbag1
(g24
g3
Ntp402
Rp403
(dp404
g28
I306
sg29
VAggron
p405
sg31
g32
sg33
V65
p406
sg35
(lp407
VMetal Burst
p408
aVStone Edge
p409
aVEarthquake
p410
aVAvalanche
p411
asg41
VSitrus Berry
p412
sg43
VSturdy
p413
sbasg90
I01
sg91
g92
sbag1
(g2
g3
Ntp414
Rp415
(dp416
g7
VSpr Pt Candice.png
p417
sg9
VLeader
p418
sg11
VCandice
p419
sg13
V7800
p420
sg15
I5
sg16
g17
sg18
g19
sg20
g21
sg22
(lp421
g1
(g24
g3
Ntp422
Rp423
(dp424
g28
I461
sg29
VWeavile
p425
sg31
g105
sg33
V62
p426
sg35
(lp427
VFaint Attack
p428
aVSlash
p429
aVTaunt
p430
aVAvalanche
p431
asg41
g42
sg43
VPressure
p432
sbag1
(g24
g3
Ntp433
Rp434
(dp435
g28
I473
sg29
VMamoswine
p436
sg31
g105
sg33
V61
p437
sg35
(lp438
VHail
p439
aVEarthquake
p440
aVAncientPower
p441
aVAvalanche
p442
asg41
g42
sg43
VOblivious
p443
sbag1
(g24
g3
Ntp444
Rp445
(dp446
g28
I460
sg29
VAbomasnow
p447
sg31
g105
sg33
V61
p448
sg35
(lp449
VWood Hammer
p450
aVIngrain
p451
aVGrassWhistle
p452
aVAvalanche
p453
asg41
g42
sg43
VSnow Warning
p454
sbag1
(g24
g3
Ntp455
Rp456
(dp457
g28
I478
sg29
VFroslass
p458
sg31
g105
sg33
V63
p459
sg35
(lp460
VHail
p461
aVOminous Wind
p462
aVConfuse Ray
p463
aVBlizzard
p464
asg41
g42
sg43
VSnow Cloak
p465
sbag1
(g24
g3
Ntp466
Rp467
(dp468
g28
I471
sg29
VGlaceon
p469
sg31
g32
sg33
V65
p470
sg35
(lp471
VBlizzard
p472
aVShadow Ball
p473
aVWater Pulse
p474
aVMirror Coat
p475
asg41
VSitrus Berry
p476
sg43
VSnow Cloak
p477
sbasg90
I01
sg91
g92
sbag1
(g2
g3
Ntp478
Rp479
(dp480
g7
VSpr Pt Volkner.png
p481
sg9
VLeader
p482
sg11
VVolkner
p483
sg13
V7800
p484
sg15
I5
sg16
g17
sg18
g19
sg20
g21
sg22
(lp485
g1
(g24
g3
Ntp486
Rp487
(dp488
g28
I135
sg29
VJolteon
p489
sg31
g32
sg33
V61
p490
sg35
(lp491
VCharge Beam
p492
aVPin Missile
p493
aVDouble Kick
p494
aVQuick Attack
p495
asg41
g42
sg43
VVolt Absorb
p496
sbag1
(g24
g3
Ntp497
Rp498
(dp499
g28
I26
sg29
VRaichu
p500
sg31
g32
sg33
V61
p501
sg35
(lp502
VCharge Beam
p503
aVThunder Wave
p504
aVLight Screen
p505
aVBrick Break
p506
asg41
g42
sg43
VStatic
p507
sbag1
(g24
g3
Ntp508
Rp509
(dp510
g28
I405
sg29
VLuxray
p511
sg31
g32
sg33
V62
p512
sg35
(lp513
VThunder Fang
p514
aVFire Fang
p515
aVCrunch
p516
aVIce Fang
p517
asg41
g42
sg43
VRivalry
p518
sbag1
(g24
g3
Ntp519
Rp520
(dp521
g28
I171
sg29
VLanturn
p522
sg31
g32
sg33
V63
p523
sg35
(lp524
VDischarge
p525
aVSurf
p526
aVSignal Beam
p527
aVIce Beam
p528
asg41
g42
sg43
VVolt Absorb
p529
sbag1
(g24
g3
Ntp530
Rp531
(dp532
g28
I466
sg29
VElectivire
p533
sg31
g32
sg33
V65
p534
sg35
(lp535
VThunderPunch
p536
aVFire Punch
p537
aVGiga Impact
p538
aVBrick Break
p539
asg41
VSitrus Berry
p540
sg43
VMotor Drive
p541
sbasg90
I01
sg91
g92
sbag1
(g2
g3
Ntp542
Rp543
(dp544
g7
VSpr Pt Cheryl.png
p545
sg9
VPokemon Trainer
p546
sg11
VCheryl
p547
sg13
V7800
p548
sg15
I5
sg16
g17
sg18
g19
sg20
g21
sg22
(lp549
g1
(g24
g3
Ntp550
Rp551
(dp552
g28
I202
sg29
VWobbuffet
p553
sg31
g105
sg33
V61
p554
sg35
(lp555
VCounter
p556
aVMirror Coat
p557
aVSafeguard
p558
aVEncore
p559
asg41
g42
sg43
VShadow Tag
p560
sbag1
(g24
g3
Ntp561
Rp562
(dp563
g28
I426
sg29
VDrifblim
p564
sg31
g105
sg33
V61
p565
sg35
(lp566
VProtect
p567
aVToxic
p568
aVOminous Wind
p569
aVFly
p570
asg41
g42
sg43
VAftermath
p571
sbag1
(g24
g3
Ntp572
Rp573
(dp574
g28
I297
sg29
VHariyama
p575
sg31
g32
sg33
V62
p576
sg35
(lp577
VStone Edge
p578
aVBullet Punch
p579
aVClose Combat
p580
aVEarthquake
p581
asg41
g42
sg43
VThick Fat
p582
sbag1
(g24
g3
Ntp583
Rp584
(dp585
g28
I321
sg29
VWailord
p586
sg31
g105
sg33
V63
p587
sg35
(lp588
VAvalanche
p589
aVEarthquake
p590
aVWater Spout
p591
aVBrine
p592
asg41
g42
sg43
VWater Veil
p593
sbag1
(g24
g3
Ntp594
Rp595
(dp596
g28
I242
sg29
VBlissey
p597
sg31
g105
sg33
V65
p598
sg35
(lp599
VCounter
p600
aVSoftboiled
p601
aVPsychic
p602
aVToxic
p603
asg41
VSitrus Berry
p604
sg43
VNatural Cure
p605
sbasg90
I01
sg91
g92
sbag1
(g2
g3
Ntp606
Rp607
(dp608
g7
VSpr Pt Mira.png
p609
sg9
VPokemon Trainer
p610
sg11
VMira
p611
sg13
V7800
p612
sg15
I5
sg16
g17
sg18
g19
sg20
g21
sg22
(lp613
g1
(g24
g3
Ntp614
Rp615
(dp616
g28
I474
sg29
VPorygon-Z
p617
sg31
g372
sg33
V61
p618
sg35
(lp619
VTri Attack
p620
aVDark Pulse
p621
aVPsychic
p622
aVThunderbolt
p623
asg41
g42
sg43
VAdaptability
p624
sbag1
(g24
g3
Ntp625
Rp626
(dp627
g28
I94
sg29
VGengar
p628
sg31
g105
sg33
V61
p629
sg35
(lp630
VShadow Ball
p631
aVEnergy Ball
p632
aVSludge Bomb
p633
aVPsychic
p634
asg41
g42
sg43
VLevitate
p635
sbag1
(g24
g3
Ntp636
Rp637
(dp638
g28
I462
sg29
VMagnezone
p639
sg31
g372
sg33
V62
p640
sg35
(lp641
VFlash Cannon
p642
aVHyper Beam
p643
aVThunder Wave
p644
aVThunder
p645
asg41
g42
sg43
VMagnet Pull
p646
sbag1
(g24
g3
Ntp647
Rp648
(dp649
g28
I468
sg29
VTogekiss
p650
sg31
g32
sg33
V63
p651
sg35
(lp652
VAura Sphere
p653
aVExtremeSpeed
p654
aVPsychic
p655
aVAir Slash
p656
asg41
g42
sg43
VHustle
p657
sbag1
(g24
g3
Ntp658
Rp659
(dp660
g28
I65
sg29
VAlakazam
p661
sg31
g32
sg33
V65
p662
sg35
(lp663
VFocus Blast
p664
aVCalm Mind
p665
aVPsychic
p666
aVHyper Beam
p667
asg41
VSitrus Berry
p668
sg43
VSynchronize
p669
sbasg90
I01
sg91
g92
sbag1
(g2
g3
Ntp670
Rp671
(dp672
g7
VSpr Pt Riley.png
p673
sg9
VPokemon Trainer
p674
sg11
VRiley
p675
sg13
V7800
p676
sg15
I5
sg16
g17
sg18
g19
sg20
g21
sg22
(lp677
g1
(g24
g3
Ntp678
Rp679
(dp680
g28
I359
sg29
VAbsol
p681
sg31
g32
sg33
V61
p682
sg35
(lp683
VSwords Dance
p684
aVNight Slash
p685
aVPsycho Cut
p686
aVQuick Attack
p687
asg41
g42
sg43
VPressure
p688
sbag1
(g24
g3
Ntp689
Rp690
(dp691
g28
I217
sg29
VUrsaring
p692
sg31
g32
sg33
V61
p693
sg35
(lp694
VSlash
p695
aVAvalanche
p696
aVShadow Claw
p697
aVAerial Ace
p698
asg41
g42
sg43
VGuts
p699
sbag1
(g24
g3
Ntp700
Rp701
(dp702
g28
I376
sg29
VMetagross
p703
sg31
g372
sg33
V62
p704
sg35
(lp705
VMeteor Mash
p706
aVZen Headbutt
p707
aVHammer Arm
p708
aVBullet Punch
p709
asg41
g42
sg43
VClear Body
p710
sbag1
(g24
g3
Ntp711
Rp712
(dp713
g28
I373
sg29
VSalamence
p714
sg31
g32
sg33
V63
p715
sg35
(lp716
VDragon Claw
p717
aVCrunch
p718
aVFire Fang
p719
aVThunder Fang
p720
asg41
g42
sg43
VIntimidate
p721
sbag1
(g24
g3
Ntp722
Rp723
(dp724
g28
I448
sg29
VLucario
p725
sg31
g32
sg33
V65
p726
sg35
(lp727
VClose Combat
p728
aVBlaze Kick
p729
aVExtremeSpeed
p730
aVBone Rush
p731
asg41
VSitrus Berry
p732
sg43
VSteadfast
p733
sbasg90
I01
sg91
g92
sbag1
(g2
g3
Ntp734
Rp735
(dp736
g7
VSpr Pt Marley.png
p737
sg9
VPokemon Trainer
p738
sg11
VMarley
p739
sg13
V7800
p740
sg15
I5
sg16
g17
sg18
g19
sg20
g21
sg22
(lp741
g1
(g24
g3
Ntp742
Rp743
(dp744
g28
I291
sg29
VNinjask
p745
sg31
g105
sg33
V61
p746
sg35
(lp747
VSwords Dance
p748
aVAerial Ace
p749
aVX-Scissor
p750
aVSlash
p751
asg41
g42
sg43
VSpeed Boost
p752
sbag1
(g24
g3
Ntp753
Rp754
(dp755
g28
I101
sg29
VElectrode
p756
sg31
g372
sg33
V61
p757
sg35
(lp758
VDouble Team
p759
aVThunder Wave
p760
aVThunder
p761
aVHyper Beam
p762
asg41
g42
sg43
VSoundproof
p763
sbag1
(g24
g3
Ntp764
Rp765
(dp766
g28
I169
sg29
VCrobat
p767
sg31
g105
sg33
V62
p768
sg35
(lp769
VDouble Team
p770
aVConfuse Ray
p771
aVAir Slash
p772
aVPoison Fang
p773
asg41
g42
sg43
VInner Focus
p774
sbag1
(g24
g3
Ntp775
Rp776
(dp777
g28
I461
sg29
VWeavile
p778
sg31
g105
sg33
V63
p779
sg35
(lp780
VIce Punch
p781
aVAerial Ace
p782
aVNight Slash
p783
aVIce Shard
p784
asg41
g42
sg43
VPressure
p785
sbag1
(g24
g3
Ntp786
Rp787
(dp788
g28
I59
sg29
VArcanine
p789
sg31
g32
sg33
V65
p790
sg35
(lp791
VFlare Blitz
p792
aVExtremeSpeed
p793
aVThunder Fang
p794
aVCrunch
p795
asg41
VSitrus Berry
p796
sg43
VIntimidate
p797
sbasg90
I01
sg91
g92
sbag1
(g2
g3
Ntp798
Rp799
(dp800
g7
VSpr Pt Buck.png
p801
sg9
VPokemon Trainer
p802
sg11
VBuck
p803
sg13
V7800
p804
sg15
I5
sg16
g17
sg18
g19
sg20
g21
sg22
(lp805
g1
(g24
g3
Ntp806
Rp807
(dp808
g28
I213
sg29
VShuckle
p809
sg31
g32
sg33
V61
p810
sg35
(lp811
VToxic
p812
aVProtect
p813
aVSandstorm
p814
aVRest
p815
asg41
g42
sg43
VSturdy
p816
sbag1
(g24
g3
Ntp817
Rp818
(dp819
g28
I197
sg29
VUmbreon
p820
sg31
g32
sg33
V62
p821
sg35
(lp822
VDark Pulse
p823
aVConfuse Ray
p824
aVDouble Team
p825
aVPsychic
p826
asg41
g42
sg43
VSynchronize
p827
sbag1
(g24
g3
Ntp828
Rp829
(dp830
g28
I324
sg29
VTorkoal
p831
sg31
g32
sg33
V61
p832
sg35
(lp833
VProtect
p834
aVWill-O-Wisp
p835
aVEarthquake
p836
aVEruption
p837
asg41
g42
sg43
VWhite Smoke
p838
sbag1
(g24
g3
Ntp839
Rp840
(dp841
g28
I477
sg29
VDusknoir
p842
sg31
g32
sg33
V63
p843
sg35
(lp844
VFire Punch
p845
aVIce Punch
p846
aVThunderPunch
p847
aVShadow Ball
p848
asg41
g42
sg43
VPressure
p849
sbag1
(g24
g3
Ntp850
Rp851
(dp852
g28
I344
sg29
VClaydol
p853
sg31
g372
sg33
V65
p854
sg35
(lp855
VPsychic
p856
aVEarth Power
p857
aVCalm Mind
p858
aVAncientPower
p859
asg41
VSitrus Berry
p860
sg43
VLevitate
p861
sbasg90
I01
sg91
g92
sba.