(lp0
ccopy_reg
_reconstructor
p1
(c__main__
Trainer
p2
c__builtin__
object
p3
Ntp4
Rp5
(dp6
VtSprite
p7
VSpr E Tucker.png
p8
sVtClass
p9
VDome Ace
p10
sVtName
p11
VTucker
p12
sVtMoney
p13
V13{{color2|000|battle point|bp}}
p14
sVtPokeCount
p15
I2
sVtLocation
p16
Vwiki/Battle_Dome
p17
sVtRegion
p18
V
p19
sVtGame
p20
VE
p21
sVtPokes
p22
(lp23
g1
(c__main__
FinishedPokemon
p24
g3
Ntp25
Rp26
(dp27
VpDexNo
p28
I260
sVpSpecies
p29
VSwampert
p30
sVpGender
p31
VU
p32
sVpLevel
p33
g1
(cmwparserfromhell.wikicode
Wikicode
p34
g3
Ntp35
Rp36
(dp37
V_nodes
p38
g1
(cmwparserfromhell.smart_list.smart_list
SmartList
p39
c__builtin__
list
p40
(lp41
g1
(cmwparserfromhell.nodes.text
Text
p42
g3
Ntp43
Rp44
(dp45
V_value
p46
V50
p47
sbatp48
Rp49
(dp50
V_children
p51
(dp52
sbsbsVpMoves
p53
(lp54
VSurf
p55
aVIce Beam
p56
aVEarthquake
p57
aVCounter
p58
asVpHold
p59
VFocus Band
p60
sVpAbility
p61
VTorrent
p62
sbag1
(g24
g3
Ntp63
Rp64
(dp65
g28
I373
sg29
VSalamence
p66
sg31
g32
sg33
g1
(g34
g3
Ntp67
Rp68
(dp69
g38
g1
(g39
g40
(lp70
g1
(g42
g3
Ntp71
Rp72
(dp73
g46
V50
p74
sbatp75
Rp76
(dp77
g51
(dp78
sbsbsg53
(lp79
VDragon Claw
p80
aVAerial Ace
p81
aVEarthquake
p82
aVBrick Break
p83
asg59
VLum Berry
p84
sg61
VIntimidate
p85
sbag1
(g24
g3
Ntp86
Rp87
(dp88
g28
I6
sg29
VCharizard
p89
sg31
g32
sg33
g1
(g34
g3
Ntp90
Rp91
(dp92
g38
g1
(g39
g40
(lp93
g1
(g42
g3
Ntp94
Rp95
(dp96
g46
V50
p97
sbatp98
Rp99
(dp100
g51
(dp101
sbsbsg53
(lp102
VOverheat
p103
aVAerial Ace
p104
aVEarthquake
p105
aVRock Slide
p106
asg59
VWhite Herb
p107
sg61
VBlaze
p108
sbasVbossFlag
p109
I01
sVtLongGame
p110
Vemerald
p111
sbag1
(g2
g3
Ntp112
Rp113
(dp114
g7
VSpr E Tucker.png
p115
sg9
VDome Ace
p116
sg11
VTucker
p117
sg13
V15{{color2|000|battle point|bp}}
p118
sg15
I2
sg16
g17
sg18
g19
sg20
g21
sg22
(lp119
g1
(g24
g3
Ntp120
Rp121
(dp122
g28
I260
sg29
VSwampert
p123
sg31
g32
sg33
g1
(g34
g3
Ntp124
Rp125
(dp126
g38
g1
(g39
g40
(lp127
g1
(g42
g3
Ntp128
Rp129
(dp130
g46
V50
p131
sbatp132
Rp133
(dp134
g51
(dp135
sbsbsg53
(lp136
VSurf
p137
aVIce Beam
p138
aVEarthquake
p139
aVMirror Coat
p140
asg59
VLeftovers
p141
sg61
VTorrent
p142
sbag1
(g24
g3
Ntp143
Rp144
(dp145
g28
I376
sg29
VMetagross
p146
sg31
g32
sg33
g1
(g34
g3
Ntp147
Rp148
(dp149
g38
g1
(g39
g40
(lp150
g1
(g42
g3
Ntp151
Rp152
(dp153
g46
V50
p154
sbatp155
Rp156
(dp157
g51
(dp158
sbsbsg53
(lp159
VMeteor Mash
p160
aVPsychic
p161
aVEarthquake
p162
aVProtect
p163
asg59
VQuick Claw
p164
sg61
VClear Body
p165
sbag1
(g24
g3
Ntp166
Rp167
(dp168
g28
I380
sg29
VLatias
p169
sg31
VF
p170
sg33
g1
(g34
g3
Ntp171
Rp172
(dp173
g38
g1
(g39
g40
(lp174
g1
(g42
g3
Ntp175
Rp176
(dp177
g46
V50
p178
sbatp179
Rp180
(dp181
g51
(dp182
sbsbsg53
(lp183
VPsychic
p184
aVCalm Mind
p185
aVThunderbolt
p186
aVRest
p187
asg59
VChesto Berry
p188
sg61
VLevitate
p189
sbasg109
I01
sg110
g111
sba.