(lp0
ccopy_reg
_reconstructor
p1
(c__main__
Trainer
p2
c__builtin__
object
p3
Ntp4
Rp5
(dp6
VtSprite
p7
VVSTeam Skull Grunt M.png
p8
sVtClass
p9
VTeam Skull Grunt
p10
sVtName
p11
V
p12
sVtMoney
p13
V320
p14
sVtPokeCount
p15
V1
p16
sVtLocation
p17
Vwiki/Berry_fields_(Alola)
p18
sVtRegion
p19
VAlola
p20
sVtGame
p21
VSM
p22
sVtPokes
p23
(lp24
g1
(c__main__
FinishedPokemon
p25
g3
Ntp26
Rp27
(dp28
VpDexNo
p29
V096
p30
sVpSpecies
p31
VDrowzee
p32
sVpGender
p33
VM
p34
sVpLevel
p35
V10
p36
sVpMoves
p37
(lp38
Vnasty-plot
p39
aVzen-headbutt
p40
aVpsyshock
p41
aVsynchronoise
p42
asVpHold
p43
g12
sVpAbility
p44
Vinsomnia
p45
sbasVbossFlag
p46
I00
sVtLongGame
p47
Vsun-moon
p48
sba.