(lp0
ccopy_reg
_reconstructor
p1
(c__main__
Trainer
p2
c__builtin__
object
p3
Ntp4
Rp5
(dp6
VtSprite
p7
VSpr B2W2 Infielder.png
p8
sVtClass
p9
VInfielder
p10
sVtName
p11
VAlex
p12
sVtMoney
p13
g1
(cmwparserfromhell.wikicode
Wikicode
p14
g3
Ntp15
Rp16
(dp17
V_nodes
p18
g1
(cmwparserfromhell.smart_list.smart_list
SmartList
p19
c__builtin__
list
p20
(lp21
g1
(cmwparserfromhell.nodes.text
Text
p22
g3
Ntp23
Rp24
(dp25
V_value
p26
V2400
p27
sbatp28
Rp29
(dp30
V_children
p31
(dp32
sbsbsVtPokeCount
p33
V3
p34
sVtLocation
p35
Vwiki/Big_Stadium_and_Small_Court
p36
sVtRegion
p37
VUnova
p38
sVtGame
p39
VB2W2
p40
sVtPokes
p41
(lp42
g1
(c__main__
FinishedPokemon
p43
g3
Ntp44
Rp45
(dp46
VpDexNo
p47
V513
p48
sVpSpecies
p49
VPansear
p50
sVpGender
p51
VM
p52
sVpLevel
p53
V24
p54
sVpMoves
p55
(lp56
Vfling
p57
aVflame-burst
p58
aVincinerate
p59
aVacrobatics
p60
asVpHold
p61
V
p62
sVpAbility
p63
Vgluttony
p64
sbag1
(g43
g3
Ntp65
Rp66
(dp67
g47
V515
p68
sg49
VPanpour
p69
sg51
g52
sg53
V24
p70
sg55
(lp71
Vnatural-gift
p72
aVfling
p73
aVscald
p74
aVacrobatics
p75
asg61
g62
sg63
Vgluttony
p76
sbag1
(g43
g3
Ntp77
Rp78
(dp79
g47
V511
p80
sg49
VPansage
p81
sg51
g52
sg53
V24
p82
sg55
(lp83
Vfling
p84
aVseed-bomb
p85
aVgrass-knot
p86
aVacrobatics
p87
asg61
g62
sg63
Vgluttony
p88
sbasVbossFlag
p89
I00
sVtLongGame
p90
Vblack-2-white-2
p91
sbag1
(g2
g3
Ntp92
Rp93
(dp94
g7
VSpr B2W2 Infielder.png
p95
sg9
VInfielder
p96
sg11
VConnor
p97
sg13
g1
(g14
g3
Ntp98
Rp99
(dp100
g18
g1
(g19
g20
(lp101
g1
(g22
g3
Ntp102
Rp103
(dp104
g26
V2500
p105
sbatp106
Rp107
(dp108
g31
(dp109
sbsbsg33
V2
p110
sg35
g36
sg37
g38
sg39
g40
sg41
(lp111
g1
(g43
g3
Ntp112
Rp113
(dp114
g47
V520
p115
sg49
VTranquill
p116
sg51
g52
sg53
V25
p117
sg55
(lp118
Vair-cutter
p119
aVroost
p120
aVtailwind
p121
aVair-slash
p122
asg61
g62
sg63
Vsuper-luck
p123
sbag1
(g43
g3
Ntp124
Rp125
(dp126
g47
V551
p127
sg49
VSandile
p128
sg51
g52
sg53
V25
p129
sg55
(lp130
Vsand-tomb
p131
aVassurance
p132
aVembargo
p133
aVfoul-play
p134
asg61
g62
sg63
Vmoxie
p135
sbasg89
I00
sg90
g91
sbag1
(g2
g3
Ntp136
Rp137
(dp138
g7
VSpr B2W2 Infielder.png
p139
sg9
VInfielder
p140
sg11
VTodd
p141
sg13
g1
(g14
g3
Ntp142
Rp143
(dp144
g18
g1
(g19
g20
(lp145
g1
(g22
g3
Ntp146
Rp147
(dp148
g26
V2600
p149
sbatp150
Rp151
(dp152
g31
(dp153
sbsbsg33
V1
p154
sg35
g36
sg37
g38
sg39
g40
sg41
(lp155
g1
(g43
g3
Ntp156
Rp157
(dp158
g47
V532
p159
sg49
VTimburr
p160
sg51
g52
sg53
V26
p161
sg55
(lp162
Vwake-up-slap
p163
aVhammer-arm
p164
aVstone-edge
p165
aVchip-away
p166
asg61
g62
sg63
Vsheer-force
p167
sbasg89
I00
sg90
g91
sbag1
(g2
g3
Ntp168
Rp169
(dp170
g7
VSpr B2W2 Striker.png
p171
sg9
VStriker
p172
sg11
VRoberto
p173
sg13
V2600
p174
sg33
g154
sg35
g36
sg37
g38
sg39
g40
sg41
(lp175
g1
(g43
g3
Ntp176
Rp177
(dp178
g47
V510
p179
sg49
VLiepard
p180
sg51
g52
sg53
V26
p181
sg55
(lp182
Vsucker-punch
p183
aVnight-slash
p184
aVnasty-plot
p185
aVhone-claws
p186
asg61
g62
sg63
Vlimber
p187
sbasg89
I00
sg90
g91
sbag1
(g2
g3
Ntp188
Rp189
(dp190
g7
VSpr B2W2 Striker.png
p191
sg9
VStriker
p192
sg11
VTony
p193
sg13
V2600
p194
sg33
g154
sg35
g36
sg37
g38
sg39
g40
sg41
(lp195
g1
(g43
g3
Ntp196
Rp197
(dp198
g47
V520
p199
sg49
VTranquill
p200
sg51
g52
sg53
V26
p201
sg55
(lp202
Vair-cutter
p203
aVroost
p204
aVtailwind
p205
aVair-slash
p206
asg61
g62
sg63
Vbig-pecks
p207
sbasg89
I00
sg90
g91
sbag1
(g2
g3
Ntp208
Rp209
(dp210
g7
VSpr B2W2 Striker.png
p211
sg9
VStriker
p212
sg11
VMarco
p213
sg13
V2600
p214
sg33
g154
sg35
g36
sg37
g38
sg39
g40
sg41
(lp215
g1
(g43
g3
Ntp216
Rp217
(dp218
g47
V524
p219
sg49
VRoggenrola
p220
sg51
g52
sg53
V26
p221
sg55
(lp222
Vrock-blast
p223
aVstone-edge
p224
aVstealth-rock
p225
aVsmack-down
p226
asg61
g62
sg63
Vweak-armor
p227
sbasg89
I00
sg90
g91
sbag1
(g2
g3
Ntp228
Rp229
(dp230
g7
VSpr B2W2 Linebacker.png
p231
sg9
VLinebacker
p232
sg11
VBob
p233
sg13
g1
(g14
g3
Ntp234
Rp235
(dp236
g18
g1
(g19
g20
(lp237
g1
(g22
g3
Ntp238
Rp239
(dp240
g26
V2500
p241
sbatp242
Rp243
(dp244
g31
(dp245
sbsbsg33
g110
sg35
g36
sg37
g38
sg39
g40
sg41
(lp246
g1
(g43
g3
Ntp247
Rp248
(dp249
g47
V532
p250
sg49
VTimburr
p251
sg51
g52
sg53
V25
p252
sg55
(lp253
Vwake-up-slap
p254
aVhammer-arm
p255
aVstone-edge
p256
aVchip-away
p257
asg61
g62
sg63
Vguts
p258
sbag1
(g43
g3
Ntp259
Rp260
(dp261
g47
V532
p262
sg49
VTimburr
p263
sg51
g52
sg53
V25
p264
sg55
(lp265
Vwake-up-slap
p266
aVhammer-arm
p267
aVstone-edge
p268
aVchip-away
p269
asg61
g62
sg63
Vguts
p270
sbasg89
I00
sg90
g91
sbag1
(g2
g3
Ntp271
Rp272
(dp273
g7
VSpr B2W2 Linebacker.png
p274
sg9
VLinebacker
p275
sg11
VDan
p276
sg13
g1
(g14
g3
Ntp277
Rp278
(dp279
g18
g1
(g19
g20
(lp280
g1
(g22
g3
Ntp281
Rp282
(dp283
g26
V2500
p284
sbatp285
Rp286
(dp287
g31
(dp288
sbsbsg33
g110
sg35
g36
sg37
g38
sg39
g40
sg41
(lp289
g1
(g43
g3
Ntp290
Rp291
(dp292
g47
V554
p293
sg49
VDarumaka
p294
sg51
g52
sg53
V25
p295
sg55
(lp296
Vflare-blitz
p297
aVfire-fang
p298
aVincinerate
p299
aVwork-up
p300
asg61
g62
sg63
Vhustle
p301
sbag1
(g43
g3
Ntp302
Rp303
(dp304
g47
V532
p305
sg49
VTimburr
p306
sg51
g52
sg53
V25
p307
sg55
(lp308
Vwake-up-slap
p309
aVhammer-arm
p310
aVstone-edge
p311
aVchip-away
p312
asg61
g62
sg63
Vsheer-force
p313
sbasg89
I00
sg90
g91
sbag1
(g2
g3
Ntp314
Rp315
(dp316
g7
VSpr B2W2 Linebacker.png
p317
sg9
VLinebacker
p318
sg11
VJonah
p319
sg13
g1
(g14
g3
Ntp320
Rp321
(dp322
g18
g1
(g19
g20
(lp323
g1
(g22
g3
Ntp324
Rp325
(dp326
g26
V2600
p327
sbatp328
Rp329
(dp330
g31
(dp331
sbsbsg33
g154
sg35
g36
sg37
g38
sg39
g40
sg41
(lp332
g1
(g43
g3
Ntp333
Rp334
(dp335
g47
V557
p336
sg49
VDwebble
p337
sg51
g52
sg53
V26
p338
sg55
(lp339
Vstealth-rock
p340
aVbug-bite
p341
aVsmack-down
p342
aVshell-smash
p343
asg61
g62
sg63
Vshell-armor
p344
sbasg89
I00
sg90
g91
sbag1
(g2
g3
Ntp345
Rp346
(dp347
g7
VSpr B2W2 Infielder.png
p348
sg9
VInfielder
p349
sg11
VAlex
p350
sg13
V3200
p351
sg33
g34
sg35
g36
sg37
g38
sg39
g40
sg41
(lp352
g1
(g43
g3
Ntp353
Rp354
(dp355
g47
V511
p356
sg49
VPansage
p357
sg51
g52
sg53
V32
p358
sg55
(lp359
Vfling
p360
aVseed-bomb
p361
aVgrass-knot
p362
aVacrobatics
p363
asg61
g62
sg63
Vgluttony
p364
sbag1
(g43
g3
Ntp365
Rp366
(dp367
g47
V515
p368
sg49
VPanpour
p369
sg51
g52
sg53
V32
p370
sg55
(lp371
Vnatural-gift
p372
aVfling
p373
aVscald
p374
aVacrobatics
p375
asg61
g62
sg63
Vgluttony
p376
sbag1
(g43
g3
Ntp377
Rp378
(dp379
g47
V513
p380
sg49
VPansear
p381
sg51
g52
sg53
V32
p382
sg55
(lp383
Vfling
p384
aVflame-burst
p385
aVincinerate
p386
aVacrobatics
p387
asg61
g62
sg63
Vgluttony
p388
sbasg89
I00
sg90
g91
sbag1
(g2
g3
Ntp389
Rp390
(dp391
g7
VSpr B2W2 Infielder.png
p392
sg9
VInfielder
p393
sg11
VConnor
p394
sg13
V3300
p395
sg33
g110
sg35
g36
sg37
g38
sg39
g40
sg41
(lp396
g1
(g43
g3
Ntp397
Rp398
(dp399
g47
V551
p400
sg49
VSandile
p401
sg51
g52
sg53
V33
p402
sg55
(lp403
Vsand-tomb
p404
aVassurance
p405
aVembargo
p406
aVfoul-play
p407
asg61
g62
sg63
Vmoxie
p408
sbag1
(g43
g3
Ntp409
Rp410
(dp411
g47
V521
p412
sg49
VUnfezant
p413
sg51
g52
sg53
V33
p414
sg55
(lp415
Vair-cutter
p416
aVroost
p417
aVtailwind
p418
aVair-slash
p419
asg61
g62
sg63
Vsuper-luck
p420
sbasg89
I00
sg90
g91
sbag1
(g2
g3
Ntp421
Rp422
(dp423
g7
VSpr B2W2 Infielder.png
p424
sg9
VInfielder
p425
sg11
VTodd
p426
sg13
V3400
p427
sg33
g154
sg35
g36
sg37
g38
sg39
g40
sg41
(lp428
g1
(g43
g3
Ntp429
Rp430
(dp431
g47
V533
p432
sg49
VGurdurr
p433
sg51
g52
sg53
V34
p434
sg55
(lp435
Vwake-up-slap
p436
aVhammer-arm
p437
aVstone-edge
p438
aVchip-away
p439
asg61
g62
sg63
Vguts
p440
sbasg89
I00
sg90
g91
sbag1
(g2
g3
Ntp441
Rp442
(dp443
g7
VSpr B2W2 Backers F.png
p444
sg9
VBackers
p445
sg11
VAmi & Eira
p446
sg13
V1488
p447
sg33
g110
sg35
g36
sg37
g38
sg39
g40
sg41
(lp448
g1
(g43
g3
Ntp449
Rp450
(dp451
g47
V515
p452
sg49
VPanpour
p453
sg51
g52
sg53
V31
p454
sg55
(lp455
Vnatural-gift
p456
aVfling
p457
aVscald
p458
aVacrobatics
p459
asg61
g62
sg63
Vgluttony
p460
sbag1
(g43
g3
Ntp461
Rp462
(dp463
g47
V513
p464
sg49
VPansear
p465
sg51
g52
sg53
V31
p466
sg55
(lp467
Vfling
p468
aVflame-burst
p469
aVincinerate
p470
aVacrobatics
p471
asg61
g62
sg63
Vgluttony
p472
sbasg89
I00
sg90
g91
sbag1
(g2
g3
Ntp473
Rp474
(dp475
g7
VSpr B2W2 Striker.png
p476
sg9
VStriker
p477
sg11
VRoberto
p478
sg13
V3400
p479
sg33
g154
sg35
g36
sg37
g38
sg39
g40
sg41
(lp480
g1
(g43
g3
Ntp481
Rp482
(dp483
g47
V510
p484
sg49
VLiepard
p485
sg51
g52
sg53
V34
p486
sg55
(lp487
Vsucker-punch
p488
aVnight-slash
p489
aVnasty-plot
p490
aVhone-claws
p491
asg61
g62
sg63
Vunburden
p492
sbasg89
I00
sg90
g91
sbag1
(g2
g3
Ntp493
Rp494
(dp495
g7
VSpr B2W2 Striker.png
p496
sg9
VStriker
p497
sg11
VTony
p498
sg13
V3400
p499
sg33
g154
sg35
g36
sg37
g38
sg39
g40
sg41
(lp500
g1
(g43
g3
Ntp501
Rp502
(dp503
g47
V580
p504
sg49
VDucklett
p505
sg51
g52
sg53
V34
p506
sg55
(lp507
Vair-slash
p508
aVbrave-bird
p509
aVdefog
p510
aVhurricane
p511
asg61
g62
sg63
Vkeen-eye
p512
sbasg89
I00
sg90
g91
sbag1
(g2
g3
Ntp513
Rp514
(dp515
g7
VSpr B2W2 Striker.png
p516
sg9
VStriker
p517
sg11
VMarco
p518
sg13
V3400
p519
sg33
g154
sg35
g36
sg37
g38
sg39
g40
sg41
(lp520
g1
(g43
g3
Ntp521
Rp522
(dp523
g47
V525
p524
sg49
VBoldore
p525
sg51
g52
sg53
V34
p526
sg55
(lp527
Vpower-gem
p528
aVstone-edge
p529
aVstealth-rock
p530
aVsmack-down
p531
asg61
g62
sg63
Vsturdy
p532
sbasg89
I00
sg90
g91
sbag1
(g2
g3
Ntp533
Rp534
(dp535
g7
VSpr B2W2 Backers F.png
p536
sg9
VBackers
p537
sg11
VKay & Ali
p538
sg13
V1488
p539
sg33
g110
sg35
g36
sg37
g38
sg39
g40
sg41
(lp540
g1
(g43
g3
Ntp541
Rp542
(dp543
g47
V580
p544
sg49
VDucklett
p545
sg51
VF
p546
sg53
V31
p547
sg55
(lp548
Vair-slash
p549
aVbrave-bird
p550
aVdefog
p551
aVhurricane
p552
asg61
g62
sg63
Vbig-pecks
p553
sbag1
(g43
g3
Ntp554
Rp555
(dp556
g47
V580
p557
sg49
VDucklett
p558
sg51
g546
sg53
V31
p559
sg55
(lp560
Vair-slash
p561
aVbrave-bird
p562
aVdefog
p563
aVhurricane
p564
asg61
g62
sg63
Vbig-pecks
p565
sbasg89
I00
sg90
g91
sbag1
(g2
g3
Ntp566
Rp567
(dp568
g7
VSpr B2W2 Linebacker.png
p569
sg9
VLinebacker
p570
sg11
VDan
p571
sg13
V3300
p572
sg33
g110
sg35
g36
sg37
g38
sg39
g40
sg41
(lp573
g1
(g43
g3
Ntp574
Rp575
(dp576
g47
V554
p577
sg49
VDarumaka
p578
sg51
g52
sg53
V33
p579
sg55
(lp580
Vflare-blitz
p581
aVfire-fang
p582
aVincinerate
p583
aVwork-up
p584
asg61
g62
sg63
Vhustle
p585
sbag1
(g43
g3
Ntp586
Rp587
(dp588
g47
V533
p589
sg49
VGurdurr
p590
sg51
g52
sg53
V33
p591
sg55
(lp592
Vwake-up-slap
p593
aVhammer-arm
p594
aVstone-edge
p595
aVchip-away
p596
asg61
g62
sg63
Vguts
p597
sbasg89
I00
sg90
g91
sbag1
(g2
g3
Ntp598
Rp599
(dp600
g7
VSpr B2W2 Linebacker.png
p601
sg9
VLinebacker
p602
sg11
VBob
p603
sg13
V3300
p604
sg33
g110
sg35
g36
sg37
g38
sg39
g40
sg41
(lp605
g1
(g43
g3
Ntp606
Rp607
(dp608
g47
V533
p609
sg49
VGurdurr
p610
sg51
g52
sg53
V33
p611
sg55
(lp612
Vwake-up-slap
p613
aVhammer-arm
p614
aVstone-edge
p615
aVchip-away
p616
asg61
g62
sg63
Vsheer-force
p617
sbag1
(g43
g3
Ntp618
Rp619
(dp620
g47
V533
p621
sg49
VGurdurr
p622
sg51
g52
sg53
V33
p623
sg55
(lp624
Vwake-up-slap
p625
aVhammer-arm
p626
aVstone-edge
p627
aVchip-away
p628
asg61
g62
sg63
Vguts
p629
sbasg89
I00
sg90
g91
sbag1
(g2
g3
Ntp630
Rp631
(dp632
g7
VSpr B2W2 Linebacker.png
p633
sg9
VLinebacker
p634
sg11
VJonah
p635
sg13
V3400
p636
sg33
g154
sg35
g36
sg37
g38
sg39
g40
sg41
(lp637
g1
(g43
g3
Ntp638
Rp639
(dp640
g47
V557
p641
sg49
VDwebble
p642
sg51
g52
sg53
V34
p643
sg55
(lp644
Vstealth-rock
p645
aVbug-bite
p646
aVsmack-down
p647
aVshell-smash
p648
asg61
g62
sg63
Vsturdy
p649
sbasg89
I00
sg90
g91
sbag1
(g2
g3
Ntp650
Rp651
(dp652
g7
VSpr B2W2 Backers M.png
p653
sg9
VBackers
p654
sg11
VHawk & Dar
p655
sg13
V1488
p656
sg33
g110
sg35
g36
sg37
g38
sg39
g40
sg41
(lp657
g1
(g43
g3
Ntp658
Rp659
(dp660
g47
V554
p661
sg49
VDarumaka
p662
sg51
g52
sg53
V31
p663
sg55
(lp664
Vflare-blitz
p665
aVfire-fang
p666
aVincinerate
p667
aVwork-up
p668
asg61
g62
sg63
Vhustle
p669
sbag1
(g43
g3
Ntp670
Rp671
(dp672
g47
V554
p673
sg49
VDarumaka
p674
sg51
g52
sg53
V31
p675
sg55
(lp676
Vflare-blitz
p677
aVfire-fang
p678
aVincinerate
p679
aVwork-up
p680
asg61
g62
sg63
Vhustle
p681
sbasg89
I00
sg90
g91
sbag1
(g2
g3
Ntp682
Rp683
(dp684
g7
VSpr B2W2 Infielder.png
p685
sg9
VInfielder
p686
sg11
VAlex
p687
sg13
V4600
p688
sg33
g34
sg35
g36
sg37
g38
sg39
g40
sg41
(lp689
g1
(g43
g3
Ntp690
Rp691
(dp692
g47
V516
p693
sg49
VSimipour
p694
sg51
g52
sg53
V46
p695
sg55
(lp696
Vleer
p697
aVlick
p698
aVfury-swipes
p699
aVscald
p700
asg61
g62
sg63
Vgluttony
p701
sbag1
(g43
g3
Ntp702
Rp703
(dp704
g47
V512
p705
sg49
VSimisage
p706
sg51
g52
sg53
V46
p707
sg55
(lp708
Vleer
p709
aVlick
p710
aVfury-swipes
p711
aVseed-bomb
p712
asg61
g62
sg63
Vgluttony
p713
sbag1
(g43
g3
Ntp714
Rp715
(dp716
g47
V514
p717
sg49
VSimisear
p718
sg51
g52
sg53
V46
p719
sg55
(lp720
Vleer
p721
aVlick
p722
aVfury-swipes
p723
aVflame-burst
p724
asg61
g62
sg63
Vgluttony
p725
sbasg89
I00
sg90
g91
sbag1
(g2
g3
Ntp726
Rp727
(dp728
g7
VSpr B2W2 Infielder.png
p729
sg9
VInfielder
p730
sg11
VConnor
p731
sg13
g1
(g14
g3
Ntp732
Rp733
(dp734
g18
g1
(g19
g20
(lp735
g1
(g22
g3
Ntp736
Rp737
(dp738
g26
V4700
p739
sbatp740
Rp741
(dp742
g31
(dp743
sbsbsg33
g110
sg35
g36
sg37
g38
sg39
g40
sg41
(lp744
g1
(g43
g3
Ntp745
Rp746
(dp747
g47
V552
p748
sg49
VKrokorok
p749
sg51
g52
sg53
V47
p750
sg55
(lp751
Vsand-tomb
p752
aVassurance
p753
aVembargo
p754
aVfoul-play
p755
asg61
g62
sg63
Vmoxie
p756
sbag1
(g43
g3
Ntp757
Rp758
(dp759
g47
V521
p760
sg49
VUnfezant
p761
sg51
g52
sg53
V47
p762
sg55
(lp763
Vair-cutter
p764
aVroost
p765
aVtailwind
p766
aVair-slash
p767
asg61
g62
sg63
Vsuper-luck
p768
sbasg89
I00
sg90
g91
sbag1
(g2
g3
Ntp769
Rp770
(dp771
g7
VSpr B2W2 Infielder.png
p772
sg9
VInfielder
p773
sg11
VTodd
p774
sg13
g1
(g14
g3
Ntp775
Rp776
(dp777
g18
g1
(g19
g20
(lp778
g1
(g22
g3
Ntp779
Rp780
(dp781
g26
V4700
p782
sbatp783
Rp784
(dp785
g31
(dp786
sbsbsg33
g110
sg35
g36
sg37
g38
sg39
g40
sg41
(lp787
g1
(g43
g3
Ntp788
Rp789
(dp790
g47
V533
p791
sg49
VGurdurr
p792
sg51
g52
sg53
V47
p793
sg55
(lp794
Vwake-up-slap
p795
aVhammer-arm
p796
aVstone-edge
p797
aVchip-away
p798
asg61
g62
sg63
Vsheer-force
p799
sbag1
(g43
g3
Ntp800
Rp801
(dp802
g47
V624
p803
sg49
VPawniard
p804
sg51
g52
sg53
V47
p805
sg55
(lp806
Vassurance
p807
aVembargo
p808
aVnight-slash
p809
aViron-head
p810
asg61
g62
sg63
Vdefiant
p811
sbasg89
I00
sg90
g91
sbag1
(g2
g3
Ntp812
Rp813
(dp814
g7
VSpr B2W2 Backers F.png
p815
sg9
VBackers
p816
sg11
VAmi & Eira
p817
sg13
g1
(g14
g3
Ntp818
Rp819
(dp820
g18
g1
(g19
g20
(lp821
g1
(g22
g3
Ntp822
Rp823
(dp824
g26
V2160
p825
sbatp826
Rp827
(dp828
g31
(dp829
sbsbsg33
g110
sg35
g36
sg37
g38
sg39
g40
sg41
(lp830
g1
(g43
g3
Ntp831
Rp832
(dp833
g47
V514
p834
sg49
VSimisear
p835
sg51
g52
sg53
V45
p836
sg55
(lp837
Vleer
p838
aVlick
p839
aVfury-swipes
p840
aVflame-burst
p841
asg61
g62
sg63
Vgluttony
p842
sbag1
(g43
g3
Ntp843
Rp844
(dp845
g47
V516
p846
sg49
VSimipour
p847
sg51
g52
sg53
V45
p848
sg55
(lp849
Vleer
p850
aVlick
p851
aVfury-swipes
p852
aVscald
p853
asg61
g62
sg63
Vgluttony
p854
sbasg89
I00
sg90
g91
sbag1
(g2
g3
Ntp855
Rp856
(dp857
g7
VSpr B2W2 Striker.png
p858
sg9
VStriker
p859
sg11
VRoberto
p860
sg13
g1
(g14
g3
Ntp861
Rp862
(dp863
g18
g1
(g19
g20
(lp864
g1
(g22
g3
Ntp865
Rp866
(dp867
g26
V4800
p868
sbatp869
Rp870
(dp871
g31
(dp872
sbsbsg33
g154
sg35
g36
sg37
g38
sg39
g40
sg41
(lp873
g1
(g43
g3
Ntp874
Rp875
(dp876
g47
V510
p877
sg49
VLiepard
p878
sg51
g52
sg53
V48
p879
sg55
(lp880
Vsucker-punch
p881
aVnight-slash
p882
aVnasty-plot
p883
aVhone-claws
p884
asg61
g62
sg63
Vlimber
p885
sbasg89
I00
sg90
g91
sbag1
(g2
g3
Ntp886
Rp887
(dp888
g7
VSpr B2W2 Striker.png
p889
sg9
VStriker
p890
sg11
VTony
p891
sg13
g1
(g14
g3
Ntp892
Rp893
(dp894
g18
g1
(g19
g20
(lp895
g1
(g22
g3
Ntp896
Rp897
(dp898
g26
V4800
p899
sbatp900
Rp901
(dp902
g31
(dp903
sbsbsg33
g154
sg35
g36
sg37
g38
sg39
g40
sg41
(lp904
g1
(g43
g3
Ntp905
Rp906
(dp907
g47
V581
p908
sg49
VSwanna
p909
sg51
g52
sg53
V48
p910
sg55
(lp911
Vbrave-bird
p912
aVdefog
p913
ag913
aVhurricane
p914
asg61
g62
sg63
Vkeen-eye
p915
sbasg89
I00
sg90
g91
sbag1
(g2
g3
Ntp916
Rp917
(dp918
g7
VSpr B2W2 Striker.png
p919
sg9
VStriker
p920
sg11
VMarco
p921
sg13
g1
(g14
g3
Ntp922
Rp923
(dp924
g18
g1
(g19
g20
(lp925
g1
(g22
g3
Ntp926
Rp927
(dp928
g26
V4700
p929
sbatp930
Rp931
(dp932
g31
(dp933
sbsbsg33
g110
sg35
g36
sg37
g38
sg39
g40
sg41
(lp934
g1
(g43
g3
Ntp935
Rp936
(dp937
g47
V525
p938
sg49
VBoldore
p939
sg51
g52
sg53
V47
p940
sg55
(lp941
Vpower-gem
p942
aVstone-edge
p943
aVstealth-rock
p944
aVsmack-down
p945
asg61
g62
sg63
Vweak-armor
p946
sbag1
(g43
g3
Ntp947
Rp948
(dp949
g47
V525
p950
sg49
VBoldore
p951
sg51
g52
sg53
V47
p952
sg55
(lp953
Vpower-gem
p954
aVstone-edge
p955
aVstealth-rock
p956
aVsmack-down
p957
asg61
g62
sg63
Vsturdy
p958
sbasg89
I00
sg90
g91
sbag1
(g2
g3
Ntp959
Rp960
(dp961
g7
VSpr B2W2 Backers F.png
p962
sg9
VBackers
p963
sg11
VKay & Ali
p964
sg13
g1
(g14
g3
Ntp965
Rp966
(dp967
g18
g1
(g19
g20
(lp968
g1
(g22
g3
Ntp969
Rp970
(dp971
g26
V2160
p972
sbatp973
Rp974
(dp975
g31
(dp976
sbsbsg33
g110
sg35
g36
sg37
g38
sg39
g40
sg41
(lp977
g1
(g43
g3
Ntp978
Rp979
(dp980
g47
V581
p981
sg49
VSwanna
p982
sg51
g546
sg53
V45
p983
sg55
(lp984
Vbrave-bird
p985
aVdefog
p986
ag986
aVhurricane
p987
asg61
g62
sg63
Vkeen-eye
p988
sbag1
(g43
g3
Ntp989
Rp990
(dp991
g47
V581
p992
sg49
VSwanna
p993
sg51
g546
sg53
V45
p994
sg55
(lp995
Vbrave-bird
p996
aVdefog
p997
ag997
aVhurricane
p998
asg61
g62
sg63
Vbig-pecks
p999
sbasg89
I00
sg90
g91
sbag1
(g2
g3
Ntp1000
Rp1001
(dp1002
g7
VSpr B2W2 Linebacker.png
p1003
sg9
VLinebacker
p1004
sg11
VDan
p1005
sg13
V4700
p1006
sg33
g110
sg35
g36
sg37
g38
sg39
g40
sg41
(lp1007
g1
(g43
g3
Ntp1008
Rp1009
(dp1010
g47
V533
p1011
sg49
VGurdurr
p1012
sg51
g52
sg53
V47
p1013
sg55
(lp1014
Vwake-up-slap
p1015
aVhammer-arm
p1016
aVstone-edge
p1017
aVchip-away
p1018
asg61
g62
sg63
Vsheer-force
p1019
sbasg89
I00
sg90
g91
sbag1
(g2
g3
Ntp1020
Rp1021
(dp1022
g7
VSpr B2W2 Linebacker.png
p1023
sg9
VLinebacker
p1024
sg11
VBob
p1025
sg13
V4700
p1026
sg33
g110
sg35
g36
sg37
g38
sg39
g40
sg41
(lp1027
g1
(g43
g3
Ntp1028
Rp1029
(dp1030
g47
V533
p1031
sg49
VGurdurr
p1032
sg51
g52
sg53
V47
p1033
sg55
(lp1034
Vwake-up-slap
p1035
aVhammer-arm
p1036
aVstone-edge
p1037
aVchip-away
p1038
asg61
g62
sg63
Vsheer-force
p1039
sbag1
(g43
g3
Ntp1040
Rp1041
(dp1042
g47
V533
p1043
sg49
VGurdurr
p1044
sg51
g52
sg53
V47
p1045
sg55
(lp1046
Vwake-up-slap
p1047
aVhammer-arm
p1048
aVstone-edge
p1049
aVchip-away
p1050
asg61
g62
sg63
Vguts
p1051
sbasg89
I00
sg90
g91
sbag1
(g2
g3
Ntp1052
Rp1053
(dp1054
g7
VSpr B2W2 Backers M.png
p1055
sg9
VBackers
p1056
sg11
VHawk & Dar
p1057
sg13
g1
(g14
g3
Ntp1058
Rp1059
(dp1060
g18
g1
(g19
g20
(lp1061
g1
(g22
g3
Ntp1062
Rp1063
(dp1064
g26
V2160
p1065
sbatp1066
Rp1067
(dp1068
g31
(dp1069
sbsbsg33
g110
sg35
g36
sg37
g38
sg39
g40
sg41
(lp1070
sg89
I00
sg90
g91
sbag1
(g2
g3
Ntp1071
Rp1072
(dp1073
g7
VSpr B2W2 Linebacker.png
p1074
sg9
VLinebacker
p1075
sg11
VJonah
p1076
sg13
g1
(g14
g3
Ntp1077
Rp1078
(dp1079
g18
g1
(g19
g20
(lp1080
g1
(g22
g3
Ntp1081
Rp1082
(dp1083
g26
V4800
p1084
sbatp1085
Rp1086
(dp1087
g31
(dp1088
sbsbsg33
g154
sg35
g36
sg37
g38
sg39
g40
sg41
(lp1089
g1
(g43
g3
Ntp1090
Rp1091
(dp1092
g47
V558
p1093
sg49
VCrustle
p1094
sg51
g52
sg53
V48
p1095
sg55
(lp1096
Vbug-bite
p1097
aVsmack-down
p1098
aVshell-smash
p1099
ag1099
asg61
g62
sg63
Vsturdy
p1100
sbasg89
I00
sg90
g91
sbag1
(g2
g3
Ntp1101
Rp1102
(dp1103
g7
VSpr B2W2 Infielder.png
p1104
sg9
VInfielder
p1105
sg11
VAlex
p1106
sg13
g1
(g14
g3
Ntp1107
Rp1108
(dp1109
g18
g1
(g19
g20
(lp1110
g1
(g22
g3
Ntp1111
Rp1112
(dp1113
g26
V6200
p1114
sbatp1115
Rp1116
(dp1117
g31
(dp1118
sbsbsg33
g34
sg35
g36
sg37
g38
sg39
g40
sg41
(lp1119
g1
(g43
g3
Ntp1120
Rp1121
(dp1122
g47
V516
p1123
sg49
VSimipour
p1124
sg51
g52
sg53
V62
p1125
sg55
(lp1126
Vleer
p1127
aVlick
p1128
aVfury-swipes
p1129
aVscald
p1130
asg61
g62
sg63
Vgluttony
p1131
sbag1
(g43
g3
Ntp1132
Rp1133
(dp1134
g47
V514
p1135
sg49
VSimisear
p1136
sg51
g52
sg53
V62
p1137
sg55
(lp1138
Vleer
p1139
aVlick
p1140
aVfury-swipes
p1141
aVflame-burst
p1142
asg61
g62
sg63
Vgluttony
p1143
sbag1
(g43
g3
Ntp1144
Rp1145
(dp1146
g47
V512
p1147
sg49
VSimisage
p1148
sg51
g52
sg53
V62
p1149
sg55
(lp1150
Vleer
p1151
aVlick
p1152
aVfury-swipes
p1153
aVseed-bomb
p1154
asg61
g62
sg63
Vgluttony
p1155
sbasg89
I00
sg90
g91
sbag1
(g2
g3
Ntp1156
Rp1157
(dp1158
g7
VSpr B2W2 Infielder.png
p1159
sg9
VInfielder
p1160
sg11
VConnor
p1161
sg13
g1
(g14
g3
Ntp1162
Rp1163
(dp1164
g18
g1
(g19
g20
(lp1165
g1
(g22
g3
Ntp1166
Rp1167
(dp1168
g26
V6300
p1169
sbatp1170
Rp1171
(dp1172
g31
(dp1173
sbsbsg33
g110
sg35
g36
sg37
g38
sg39
g40
sg41
(lp1174
g1
(g43
g3
Ntp1175
Rp1176
(dp1177
g47
V521
p1178
sg49
VUnfezant
p1179
sg51
g52
sg53
V63
p1180
sg55
(lp1181
Vair-cutter
p1182
aVroost
p1183
aVtailwind
p1184
aVair-slash
p1185
asg61
g62
sg63
Vsuper-luck
p1186
sbag1
(g43
g3
Ntp1187
Rp1188
(dp1189
g47
V553
p1190
sg49
VKrookodile
p1191
sg51
g52
sg53
V63
p1192
sg55
(lp1193
Vsand-tomb
p1194
aVassurance
p1195
aVembargo
p1196
aVfoul-play
p1197
asg61
g62
sg63
Vmoxie
p1198
sbasg89
I00
sg90
g91
sbag1
(g2
g3
Ntp1199
Rp1200
(dp1201
g7
VSpr B2W2 Infielder.png
p1202
sg9
VInfielder
p1203
sg11
VTodd
p1204
sg13
g1
(g14
g3
Ntp1205
Rp1206
(dp1207
g18
g1
(g19
g20
(lp1208
g1
(g22
g3
Ntp1209
Rp1210
(dp1211
g26
V6300
p1212
sbatp1213
Rp1214
(dp1215
g31
(dp1216
sbsbsg33
g110
sg35
g36
sg37
g38
sg39
g40
sg41
(lp1217
g1
(g43
g3
Ntp1218
Rp1219
(dp1220
g47
V104
p1221
sg49
VCubone
p1222
sg51
g52
sg53
V63
p1223
sg55
(lp1224
Vfalse-swipe
p1225
aVendeavor
p1226
aVfling
p1227
aVretaliate
p1228
asg61
g62
sg63
Vlightning-rod
p1229
sbag1
(g43
g3
Ntp1230
Rp1231
(dp1232
g47
V625
p1233
sg49
VBisharp
p1234
sg51
g52
sg53
V63
p1235
sg55
(lp1236
Vassurance
p1237
aVembargo
p1238
aVnight-slash
p1239
aViron-head
p1240
asg61
g62
sg63
Vinner-focus
p1241
sbasg89
I00
sg90
g91
sbag1
(g2
g3
Ntp1242
Rp1243
(dp1244
g7
VSpr B2W2 Backers F.png
p1245
sg9
VBackers
p1246
sg11
VAmi & Eira
p1247
sg13
g1
(g14
g3
Ntp1248
Rp1249
(dp1250
g18
g1
(g19
g20
(lp1251
g1
(g22
g3
Ntp1252
Rp1253
(dp1254
g26
V2928
p1255
sbatp1256
Rp1257
(dp1258
g31
(dp1259
sbsbsg33
g110
sg35
g36
sg37
g38
sg39
g40
sg41
(lp1260
g1
(g43
g3
Ntp1261
Rp1262
(dp1263
g47
V514
p1264
sg49
VSimisear
p1265
sg51
g52
sg53
V61
p1266
sg55
(lp1267
Vleer
p1268
aVlick
p1269
aVfury-swipes
p1270
aVflame-burst
p1271
asg61
g62
sg63
Vgluttony
p1272
sbag1
(g43
g3
Ntp1273
Rp1274
(dp1275
g47
V516
p1276
sg49
VSimipour
p1277
sg51
g52
sg53
V61
p1278
sg55
(lp1279
Vleer
p1280
aVlick
p1281
aVfury-swipes
p1282
aVscald
p1283
asg61
g62
sg63
Vgluttony
p1284
sbasg89
I00
sg90
g91
sbag1
(g2
g3
Ntp1285
Rp1286
(dp1287
g7
VSpr B2W2 Backers M.png
p1288
sg9
VBackers
p1289
sg11
VAlf & Fred
p1290
sg13
g1
(g14
g3
Ntp1291
Rp1292
(dp1293
g18
g1
(g19
g20
(lp1294
g1
(g22
g3
Ntp1295
Rp1296
(dp1297
g26
V2928
p1298
sbatp1299
Rp1300
(dp1301
g31
(dp1302
sbsbsg33
g110
sg35
g36
sg37
g38
sg39
g40
sg41
(lp1303
g1
(g43
g3
Ntp1304
Rp1305
(dp1306
g47
V625
p1307
sg49
VBisharp
p1308
sg51
g52
sg53
V61
p1309
sg55
(lp1310
Vassurance
p1311
aVembargo
p1312
aVnight-slash
p1313
aViron-head
p1314
asg61
g62
sg63
Vdefiant
p1315
sbag1
(g43
g3
Ntp1316
Rp1317
(dp1318
g47
V512
p1319
sg49
VSimisage
p1320
sg51
g52
sg53
V61
p1321
sg55
(lp1322
Vleer
p1323
aVlick
p1324
aVfury-swipes
p1325
aVseed-bomb
p1326
asg61
g62
sg63
Vgluttony
p1327
sbasg89
I00
sg90
g91
sbag1
(g2
g3
Ntp1328
Rp1329
(dp1330
g7
VSpr B2W2 Striker.png
p1331
sg9
VStriker
p1332
sg11
VTony
p1333
sg13
g1
(g14
g3
Ntp1334
Rp1335
(dp1336
g18
g1
(g19
g20
(lp1337
g1
(g22
g3
Ntp1338
Rp1339
(dp1340
g26
V6300
p1341
sbatp1342
Rp1343
(dp1344
g31
(dp1345
sbsbsg33
g110
sg35
g36
sg37
g38
sg39
g40
sg41
(lp1346
g1
(g43
g3
Ntp1347
Rp1348
(dp1349
g47
V581
p1350
sg49
VSwanna
p1351
sg51
g52
sg53
V63
p1352
sg55
(lp1353
Vbrave-bird
p1354
aVdefog
p1355
ag1355
aVhurricane
p1356
asg61
g62
sg63
Vkeen-eye
p1357
sbag1
(g43
g3
Ntp1358
Rp1359
(dp1360
g47
V352
p1361
sg49
VKecleon
p1362
sg51
g52
sg53
V63
p1363
sg55
(lp1364
Vsucker-punch
p1365
aVshadow-claw
p1366
aVshadow-sneak
p1367
aVsynchronoise
p1368
asg61
g62
sg63
Vcolor-change
p1369
sbasg89
I00
sg90
g91
sbag1
(g2
g3
Ntp1370
Rp1371
(dp1372
g7
VSpr B2W2 Striker.png
p1373
sg9
VStriker
p1374
sg11
VRoberto
p1375
sg13
g1
(g14
g3
Ntp1376
Rp1377
(dp1378
g18
g1
(g19
g20
(lp1379
g1
(g22
g3
Ntp1380
Rp1381
(dp1382
g26
V6200
p1383
sbatp1384
Rp1385
(dp1386
g31
(dp1387
sbsbsg33
g34
sg35
g36
sg37
g38
sg39
g40
sg41
(lp1388
g1
(g43
g3
Ntp1389
Rp1390
(dp1391
g47
V276
p1392
sg49
VTaillow
p1393
sg51
g52
sg53
V62
p1394
sg55
(lp1395
Vfocus-energy
p1396
aVendeavor
p1397
aVaerial-ace
p1398
aVair-slash
p1399
asg61
g62
sg63
Vguts
p1400
sbag1
(g43
g3
Ntp1401
Rp1402
(dp1403
g47
V215
p1404
sg49
VSneasel
p1405
sg51
g52
sg53
V62
p1406
sg55
(lp1407
Vsnatch
p1408
aVpunishment
p1409
aVice-shard
p1410
aVhone-claws
p1411
asg61
g62
sg63
Vkeen-eye
p1412
sbag1
(g43
g3
Ntp1413
Rp1414
(dp1415
g47
V510
p1416
sg49
VLiepard
p1417
sg51
g52
sg53
V62
p1418
sg55
(lp1419
Vsucker-punch
p1420
aVnight-slash
p1421
aVnasty-plot
p1422
aVhone-claws
p1423
asg61
g62
sg63
Vlimber
p1424
sbasg89
I00
sg90
g91
sbag1
(g2
g3
Ntp1425
Rp1426
(dp1427
g7
VSpr B2W2 Striker.png
p1428
sg9
VStriker
p1429
sg11
VMarco
p1430
sg13
g1
(g14
g3
Ntp1431
Rp1432
(dp1433
g18
g1
(g19
g20
(lp1434
g1
(g22
g3
Ntp1435
Rp1436
(dp1437
g26
V6300
p1438
sbatp1439
Rp1440
(dp1441
g31
(dp1442
sbsbsg33
g110
sg35
g36
sg37
g38
sg39
g40
sg41
(lp1443
g1
(g43
g3
Ntp1444
Rp1445
(dp1446
g47
V075
p1447
sg49
VGraveler
p1448
sg51
g52
sg53
V63
p1449
sg55
(lp1450
Vstone-edge
p1451
aVstealth-rock
p1452
aVsmack-down
p1453
aVbulldoze
p1454
asg61
g62
sg63
Vsturdy
p1455
sbag1
(g43
g3
Ntp1456
Rp1457
(dp1458
g47
V106
p1459
sg49
VHitmonlee
p1460
sg51
g52
sg53
V63
p1461
sg55
(lp1462
Vblaze-kick
p1463
aVfeint
p1464
aVclose-combat
p1465
aVwide-guard
p1466
asg61
g62
sg63
Vlimber
p1467
sbasg89
I00
sg90
g91
sbag1
(g2
g3
Ntp1468
Rp1469
(dp1470
g7
VSpr B2W2 Backers F.png
p1471
sg9
VBackers
p1472
sg11
VKay & Ali
p1473
sg13
g1
(g14
g3
Ntp1474
Rp1475
(dp1476
g18
g1
(g19
g20
(lp1477
g1
(g22
g3
Ntp1478
Rp1479
(dp1480
g26
V2928
p1481
sbatp1482
Rp1483
(dp1484
g31
(dp1485
sbsbsg33
g110
sg35
g36
sg37
g38
sg39
g40
sg41
(lp1486
g1
(g43
g3
Ntp1487
Rp1488
(dp1489
g47
V581
p1490
sg49
VSwanna
p1491
sg51
g546
sg53
V61
p1492
sg55
(lp1493
Vbrave-bird
p1494
aVdefog
p1495
ag1495
aVhurricane
p1496
asg61
g62
sg63
Vkeen-eye
p1497
sbag1
(g43
g3
Ntp1498
Rp1499
(dp1500
g47
V581
p1501
sg49
VSwanna
p1502
sg51
g546
sg53
V61
p1503
sg55
(lp1504
Vbrave-bird
p1505
aVdefog
p1506
ag1506
aVhurricane
p1507
asg61
g62
sg63
Vbig-pecks
p1508
sbasg89
I00
sg90
g91
sbag1
(g2
g3
Ntp1509
Rp1510
(dp1511
g7
VSpr B2W2 Backers M.png
p1512
sg9
VBackers
p1513
sg11
VLes & Web
p1514
sg13
g1
(g14
g3
Ntp1515
Rp1516
(dp1517
g18
g1
(g19
g20
(lp1518
g1
(g22
g3
Ntp1519
Rp1520
(dp1521
g26
V2928
p1522
sbatp1523
Rp1524
(dp1525
g31
(dp1526
sbsbsg33
g110
sg35
g36
sg37
g38
sg39
g40
sg41
(lp1527
g1
(g43
g3
Ntp1528
Rp1529
(dp1530
g47
V510
p1531
sg49
VLiepard
p1532
sg51
g52
sg53
V61
p1533
sg55
(lp1534
Vsucker-punch
p1535
aVnight-slash
p1536
aVnasty-plot
p1537
aVhone-claws
p1538
asg61
g62
sg63
Vunburden
p1539
sbag1
(g43
g3
Ntp1540
Rp1541
(dp1542
g47
V510
p1543
sg49
VLiepard
p1544
sg51
g52
sg53
V61
p1545
sg55
(lp1546
Vsucker-punch
p1547
aVnight-slash
p1548
aVnasty-plot
p1549
aVhone-claws
p1550
asg61
g62
sg63
Vlimber
p1551
sbasg89
I00
sg90
g91
sbag1
(g2
g3
Ntp1552
Rp1553
(dp1554
g7
VSpr B2W2 Linebacker.png
p1555
sg9
VLinebacker
p1556
sg11
VDan
p1557
sg13
g1
(g14
g3
Ntp1558
Rp1559
(dp1560
g18
g1
(g19
g20
(lp1561
g1
(g22
g3
Ntp1562
Rp1563
(dp1564
g26
V6200
p1565
sbatp1566
Rp1567
(dp1568
g31
(dp1569
sbsbsg33
g34
sg35
g36
sg37
g38
sg39
g40
sg41
(lp1570
g1
(g43
g3
Ntp1571
Rp1572
(dp1573
g47
V108
p1574
sg49
VLickitung
p1575
sg51
g52
sg53
V62
p1576
sg55
(lp1577
Vwring-out
p1578
aVme-first
p1579
aVpower-whip
p1580
aVchip-away
p1581
asg61
g62
sg63
Voblivious
p1582
sbasg89
I00
sg90
g91
sbag1
(g2
g3
Ntp1583
Rp1584
(dp1585
g7
VSpr B2W2 Linebacker.png
p1586
sg9
VLinebacker
p1587
sg11
VBob
p1588
sg13
g1
(g14
g3
Ntp1589
Rp1590
(dp1591
g18
g1
(g19
g20
(lp1592
g1
(g22
g3
Ntp1593
Rp1594
(dp1595
g26
V6200
p1596
sbatp1597
Rp1598
(dp1599
g31
(dp1600
sbsbsg33
g34
sg35
g36
sg37
g38
sg39
g40
sg41
(lp1601
g1
(g43
g3
Ntp1602
Rp1603
(dp1604
g47
V539
p1605
sg49
VSawk
p1606
sg51
g52
sg53
V62
p1607
sg55
(lp1608
Vclose-combat
p1609
aVlow-sweep
p1610
aVquick-guard
p1611
aVretaliate
p1612
asg61
g62
sg63
Vinner-focus
p1613
sbag1
(g43
g3
Ntp1614
Rp1615
(dp1616
g47
V538
p1617
sg49
VThroh
p1618
sg51
g52
sg53
V62
p1619
sg55
(lp1620
Vbulk-up
p1621
aVwide-guard
p1622
aVstorm-throw
p1623
aVcircle-throw
p1624
asg61
g62
sg63
Vguts
p1625
sbag1
(g43
g3
Ntp1626
Rp1627
(dp1628
g47
V297
p1629
sg49
VHariyama
p1630
sg51
g52
sg53
V62
p1631
sg55
(lp1632
Vbrine
p1633
aVclose-combat
p1634
aVforce-palm
p1635
aVheavy-slam
p1636
asg61
g62
sg63
Vguts
p1637
sbasg89
I00
sg90
g91
sbag1
(g2
g3
Ntp1638
Rp1639
(dp1640
g7
VSpr B2W2 Linebacker.png
p1641
sg9
VLinebacker
p1642
sg11
VJonah
p1643
sg13
g1
(g14
g3
Ntp1644
Rp1645
(dp1646
g18
g1
(g19
g20
(lp1647
g1
(g22
g3
Ntp1648
Rp1649
(dp1650
g26
V6400
p1651
sbatp1652
Rp1653
(dp1654
g31
(dp1655
sbsbsg33
g154
sg35
g36
sg37
g38
sg39
g40
sg41
(lp1656
g1
(g43
g3
Ntp1657
Rp1658
(dp1659
g47
V205
p1660
sg49
VForretress
p1661
sg51
g52
sg53
V64
p1662
sg55
(lp1663
Vbug-bite
p1664
ag1664
aVautotomize
p1665
aVheavy-slam
p1666
asg61
g62
sg63
Vsturdy
p1667
sbasg89
I00
sg90
g91
sbag1
(g2
g3
Ntp1668
Rp1669
(dp1670
g7
VSpr B2W2 Backers M.png
p1671
sg9
VBackers
p1672
sg11
VHawk & Dar
p1673
sg13
g1
(g14
g3
Ntp1674
Rp1675
(dp1676
g18
g1
(g19
g20
(lp1677
g1
(g22
g3
Ntp1678
Rp1679
(dp1680
g26
V2928
p1681
sbatp1682
Rp1683
(dp1684
g31
(dp1685
sbsbsg33
g110
sg35
g36
sg37
g38
sg39
g40
sg41
(lp1686
sg89
I00
sg90
g91
sbag1
(g2
g3
Ntp1687
Rp1688
(dp1689
g7
VSpr B2W2 Backers F.png
p1690
sg9
VBackers
p1691
sg11
VCam & Abby
p1692
sg13
g1
(g14
g3
Ntp1693
Rp1694
(dp1695
g18
g1
(g19
g20
(lp1696
g1
(g22
g3
Ntp1697
Rp1698
(dp1699
g26
V2928
p1700
sbatp1701
Rp1702
(dp1703
g31
(dp1704
sbsbsg33
g110
sg35
g36
sg37
g38
sg39
g40
sg41
(lp1705
g1
(g43
g3
Ntp1706
Rp1707
(dp1708
g47
V539
p1709
sg49
VSawk
p1710
sg51
g52
sg53
V61
p1711
sg55
(lp1712
Vclose-combat
p1713
aVlow-sweep
p1714
aVquick-guard
p1715
aVretaliate
p1716
asg61
g62
sg63
Vsturdy
p1717
sbag1
(g43
g3
Ntp1718
Rp1719
(dp1720
g47
V538
p1721
sg49
VThroh
p1722
sg51
g52
sg53
V61
p1723
sg55
(lp1724
Vbulk-up
p1725
aVwide-guard
p1726
aVstorm-throw
p1727
aVcircle-throw
p1728
asg61
g62
sg63
Vguts
p1729
sbasg89
I00
sg90
g91
sbag1
(g2
g3
Ntp1730
Rp1731
(dp1732
g7
VSpr B2W2 Smasher.png
p1733
sg9
VSmasher
p1734
sg11
VElena
p1735
sg13
g1
(g14
g3
Ntp1736
Rp1737
(dp1738
g18
g1
(g19
g20
(lp1739
g1
(g22
g3
Ntp1740
Rp1741
(dp1742
g26
V2600
p1743
sbatp1744
Rp1745
(dp1746
g31
(dp1747
sbsbsg33
g154
sg35
g36
sg37
g38
sg39
g40
sg41
(lp1748
g1
(g43
g3
Ntp1749
Rp1750
(dp1751
g47
V522
p1752
sg49
VBlitzle
p1753
sg51
g546
sg53
V26
p1754
sg55
(lp1755
Vshock-wave
p1756
aVdischarge
p1757
aVflame-charge
p1758
aVwild-charge
p1759
asg61
g62
sg63
Vmotor-drive
p1760
sbasg89
I00
sg90
g91
sbag1
(g2
g3
Ntp1761
Rp1762
(dp1763
g7
VSpr B2W2 Smasher.png
p1764
sg9
VSmasher
p1765
sg11
VAspen
p1766
sg13
g1
(g14
g3
Ntp1767
Rp1768
(dp1769
g18
g1
(g19
g20
(lp1770
g1
(g22
g3
Ntp1771
Rp1772
(dp1773
g26
V2500
p1774
sbatp1775
Rp1776
(dp1777
g31
(dp1778
sbsbsg33
g110
sg35
g36
sg37
g38
sg39
g40
sg41
(lp1779
g1
(g43
g3
Ntp1780
Rp1781
(dp1782
g47
V546
p1783
sg49
VCottonee
p1784
sg51
g546
sg53
V25
p1785
sg55
(lp1786
Vhelping-hand
p1787
aVendeavor
p1788
aVenergy-ball
p1789
aVcotton-guard
p1790
asg61
g62
sg63
Vprankster
p1791
sbag1
(g43
g3
Ntp1792
Rp1793
(dp1794
g47
V548
p1795
sg49
VPetilil
p1796
sg51
g546
sg53
V25
p1797
sg55
(lp1798
Venergy-ball
p1799
aVleaf-storm
p1800
aVentrainment
p1801
aVafter-you
p1802
asg61
g62
sg63
Vchlorophyll
p1803
sbasg89
I00
sg90
g91
sbag1
(g2
g3
Ntp1804
Rp1805
(dp1806
g7
VSpr B2W2 Smasher.png
p1807
sg9
VSmasher
p1808
sg11
VMari
p1809
sg13
g1
(g14
g3
Ntp1810
Rp1811
(dp1812
g18
g1
(g19
g20
(lp1813
g1
(g22
g3
Ntp1814
Rp1815
(dp1816
g26
V2600
p1817
sbatp1818
Rp1819
(dp1820
g31
(dp1821
sbsbsg33
g154
sg35
g36
sg37
g38
sg39
g40
sg41
(lp1822
g1
(g43
g3
Ntp1823
Rp1824
(dp1825
g47
V183
p1826
sg49
VMarill
p1827
sg51
g546
sg53
V26
p1828
sg55
(lp1829
Vsuperpower
p1830
aVwater-sport
p1831
aVaqua-ring
p1832
aVaqua-tail
p1833
asg61
g62
sg63
Vhuge-power
p1834
sbasg89
I00
sg90
g91
sbag1
(g2
g3
Ntp1835
Rp1836
(dp1837
g7
VSpr B2W2 Hoopster.png
p1838
sg9
VHoopster
p1839
sg11
VBobby
p1840
sg13
g1
(g14
g3
Ntp1841
Rp1842
(dp1843
g18
g1
(g19
g20
(lp1844
g1
(g22
g3
Ntp1845
Rp1846
(dp1847
g26
V2600
p1848
sbatp1849
Rp1850
(dp1851
g31
(dp1852
sbsbsg33
g154
sg35
g36
sg37
g38
sg39
g40
sg41
(lp1853
g1
(g43
g3
Ntp1854
Rp1855
(dp1856
g47
V544
p1857
sg49
VWhirlipede
p1858
sg51
g52
sg53
V26
p1859
sg55
(lp1860
Vrock-climb
p1861
aVbug-bite
p1862
aVvenoshock
p1863
aVsteamroller
p1864
asg61
g62
sg63
Vswarm
p1865
sbasg89
I00
sg90
g91
sbag1
(g2
g3
Ntp1866
Rp1867
(dp1868
g7
VSpr B2W2 Hoopster.png
p1869
sg9
VHoopster
p1870
sg11
VJohn
p1871
sg13
g1
(g14
g3
Ntp1872
Rp1873
(dp1874
g18
g1
(g19
g20
(lp1875
g1
(g22
g3
Ntp1876
Rp1877
(dp1878
g26
V2500
p1879
sbatp1880
Rp1881
(dp1882
g31
(dp1883
sbsbsg33
g110
sg35
g36
sg37
g38
sg39
g40
sg41
(lp1884
g1
(g43
g3
Ntp1885
Rp1886
(dp1887
g47
V507
p1888
sg49
VHerdier
p1889
sg51
g52
sg53
V25
p1890
sg55
(lp1891
Vlast-resort
p1892
aVgiga-impact
p1893
aVretaliate
p1894
aVwork-up
p1895
asg61
g62
sg63
Vintimidate
p1896
sbag1
(g43
g3
Ntp1897
Rp1898
(dp1899
g47
V524
p1900
sg49
VRoggenrola
p1901
sg51
g52
sg53
V25
p1902
sg55
(lp1903
Vrock-blast
p1904
aVstone-edge
p1905
aVstealth-rock
p1906
aVsmack-down
p1907
asg61
g62
sg63
Vsturdy
p1908
sbasg89
I00
sg90
g91
sbag1
(g2
g3
Ntp1909
Rp1910
(dp1911
g7
VSpr B2W2 Hoopster.png
p1912
sg9
VHoopster
p1913
sg11
VLamarcus
p1914
sg13
g1
(g14
g3
Ntp1915
Rp1916
(dp1917
g18
g1
(g19
g20
(lp1918
g1
(g22
g3
Ntp1919
Rp1920
(dp1921
g26
V2500
p1922
sbatp1923
Rp1924
(dp1925
g31
(dp1926
sbsbsg33
g110
sg35
g36
sg37
g38
sg39
g40
sg41
(lp1927
g1
(g43
g3
Ntp1928
Rp1929
(dp1930
g47
V541
p1931
sg49
VSwadloon
p1932
sg51
g52
sg53
V25
p1933
sg55
(lp1934
Vstring-shot
p1935
aVprotect
p1936
aVgrass-whistle
p1937
aVbug-bite
p1938
asg61
g62
sg63
Vleaf-guard
p1939
sbag1
(g43
g3
Ntp1940
Rp1941
(dp1942
g47
V507
p1943
sg49
VHerdier
p1944
sg51
g52
sg53
V25
p1945
sg55
(lp1946
Vlast-resort
p1947
aVgiga-impact
p1948
aVretaliate
p1949
aVwork-up
p1950
asg61
g62
sg63
Vintimidate
p1951
sbasg89
I00
sg90
g91
sbag1
(g2
g3
Ntp1952
Rp1953
(dp1954
g7
VSpr B2W2 Backers M.png
p1955
sg9
VBackers
p1956
sg11
VJoe & Ross
p1957
sg13
V1488
p1958
sg33
g110
sg35
g36
sg37
g38
sg39
g40
sg41
(lp1959
g1
(g43
g3
Ntp1960
Rp1961
(dp1962
g47
V523
p1963
sg49
VZebstrika
p1964
sg51
g52
sg53
V31
p1965
sg55
(lp1966
Vshock-wave
p1967
aVdischarge
p1968
aVflame-charge
p1969
aVwild-charge
p1970
asg61
g62
sg63
Vlightning-rod
p1971
sbag1
(g43
g3
Ntp1972
Rp1973
(dp1974
g47
V523
p1975
sg49
VZebstrika
p1976
sg51
g52
sg53
V31
p1977
sg55
(lp1978
Vshock-wave
p1979
aVdischarge
p1980
aVflame-charge
p1981
aVwild-charge
p1982
asg61
g62
sg63
Vmotor-drive
p1983
sbasg89
I00
sg90
g91
sbag1
(g2
g3
Ntp1984
Rp1985
(dp1986
g7
VSpr B2W2 Smasher.png
p1987
sg9
VSmasher
p1988
sg11
VElena
p1989
sg13
V3400
p1990
sg33
g154
sg35
g36
sg37
g38
sg39
g40
sg41
(lp1991
g1
(g43
g3
Ntp1992
Rp1993
(dp1994
g47
V523
p1995
sg49
VZebstrika
p1996
sg51
g546
sg53
V34
p1997
sg55
(lp1998
Vshock-wave
p1999
aVdischarge
p2000
aVflame-charge
p2001
aVwild-charge
p2002
asg61
g62
sg63
Vlightning-rod
p2003
sbasg89
I00
sg90
g91
sbag1
(g2
g3
Ntp2004
Rp2005
(dp2006
g7
VSpr B2W2 Smasher.png
p2007
sg9
VSmasher
p2008
sg11
VAspen
p2009
sg13
V3300
p2010
sg33
g110
sg35
g36
sg37
g38
sg39
g40
sg41
(lp2011
g1
(g43
g3
Ntp2012
Rp2013
(dp2014
g47
V547
p2015
sg49
VWhimsicott
p2016
sg51
g546
sg53
V33
p2017
sg55
(lp2018
Vgrowth
p2019
aVcotton-spore
p2020
aVtailwind
p2021
aVhurricane
p2022
asg61
g62
sg63
Vinfiltrator
p2023
sbag1
(g43
g3
Ntp2024
Rp2025
(dp2026
g47
V549
p2027
sg49
VLilligant
p2028
sg51
g546
sg53
V33
p2029
sg55
(lp2030
Vpetal-dance
p2031
aVsynthesis
p2032
aVteeter-dance
p2033
aVquiver-dance
p2034
asg61
g62
sg63
Vown-tempo
p2035
sbasg89
I00
sg90
g91
sbag1
(g2
g3
Ntp2036
Rp2037
(dp2038
g7
VSpr B2W2 Smasher.png
p2039
sg9
VSmasher
p2040
sg11
VMari
p2041
sg13
V3400
p2042
sg33
g154
sg35
g36
sg37
g38
sg39
g40
sg41
(lp2043
g1
(g43
g3
Ntp2044
Rp2045
(dp2046
g47
V592
p2047
sg49
VFrillish
p2048
sg51
g546
sg53
V34
p2049
sg55
(lp2050
Vbrine
p2051
aVwring-out
p2052
aVominous-wind
p2053
aVhex
p2054
asg61
g62
sg63
Vcursed-body
p2055
sbasg89
I00
sg90
g91
sbag1
(g2
g3
Ntp2056
Rp2057
(dp2058
g7
VSpr B2W2 Hoopster.png
p2059
sg9
VHoopster
p2060
sg11
VBobby
p2061
sg13
V3400
p2062
sg33
g154
sg35
g36
sg37
g38
sg39
g40
sg41
(lp2063
g1
(g43
g3
Ntp2064
Rp2065
(dp2066
g47
V545
p2067
sg49
VScolipede
p2068
sg51
g52
sg53
V34
p2069
sg55
(lp2070
Vrock-climb
p2071
aVbug-bite
p2072
aVvenoshock
p2073
aVsteamroller
p2074
asg61
g62
sg63
Vpoison-point
p2075
sbasg89
I00
sg90
g91
sbag1
(g2
g3
Ntp2076
Rp2077
(dp2078
g7
VSpr B2W2 Backers M.png
p2079
sg9
VBackers
p2080
sg11
VMasa & Yas
p2081
sg13
V1488
p2082
sg33
g110
sg35
g36
sg37
g38
sg39
g40
sg41
(lp2083
g1
(g43
g3
Ntp2084
Rp2085
(dp2086
g47
V545
p2087
sg49
VScolipede
p2088
sg51
g52
sg53
V31
p2089
sg55
(lp2090
Vrock-climb
p2091
aVbug-bite
p2092
aVvenoshock
p2093
aVsteamroller
p2094
asg61
g62
sg63
Vpoison-point
p2095
sbag1
(g43
g3
Ntp2096
Rp2097
(dp2098
g47
V545
p2099
sg49
VScolipede
p2100
sg51
g52
sg53
V31
p2101
sg55
(lp2102
Vrock-climb
p2103
aVbug-bite
p2104
aVvenoshock
p2105
aVsteamroller
p2106
asg61
g62
sg63
Vswarm
p2107
sbasg89
I00
sg90
g91
sbag1
(g2
g3
Ntp2108
Rp2109
(dp2110
g7
VSpr B2W2 Hoopster.png
p2111
sg9
VHoopster
p2112
sg11
VJohn
p2113
sg13
V3300
p2114
sg33
g110
sg35
g36
sg37
g38
sg39
g40
sg41
(lp2115
g1
(g43
g3
Ntp2116
Rp2117
(dp2118
g47
V508
p2119
sg49
VStoutland
p2120
sg51
g52
sg53
V33
p2121
sg55
(lp2122
Vice-fang
p2123
aVfire-fang
p2124
aVretaliate
p2125
aVwork-up
p2126
asg61
g62
sg63
Vsand-rush
p2127
sbag1
(g43
g3
Ntp2128
Rp2129
(dp2130
g47
V525
p2131
sg49
VBoldore
p2132
sg51
g52
sg53
V33
p2133
sg55
(lp2134
Vpower-gem
p2135
aVstone-edge
p2136
aVstealth-rock
p2137
aVsmack-down
p2138
asg61
g62
sg63
Vsturdy
p2139
sbasg89
I00
sg90
g91
sbag1
(g2
g3
Ntp2140
Rp2141
(dp2142
g7
VSpr B2W2 Hoopster.png
p2143
sg9
VHoopster
p2144
sg11
VLamarcus
p2145
sg13
V3300
p2146
sg33
g110
sg35
g36
sg37
g38
sg39
g40
sg41
(lp2147
g1
(g43
g3
Ntp2148
Rp2149
(dp2150
g47
V542
p2151
sg49
VLeavanny
p2152
sg51
g52
sg53
V33
p2153
sg55
(lp2154
Vbug-bite
p2155
ag2155
aVentrainment
p2156
aVstruggle-bug
p2157
asg61
g62
sg63
Vswarm
p2158
sbag1
(g43
g3
Ntp2159
Rp2160
(dp2161
g47
V507
p2162
sg49
VHerdier
p2163
sg51
g52
sg53
V33
p2164
sg55
(lp2165
Vlast-resort
p2166
aVgiga-impact
p2167
aVretaliate
p2168
aVwork-up
p2169
asg61
g62
sg63
Vsand-rush
p2170
sbasg89
I00
sg90
g91
sbag1
(g2
g3
Ntp2171
Rp2172
(dp2173
g7
VSpr B2W2 Backers M.png
p2174
sg9
VBackers
p2175
sg11
VJoe & Ross
p2176
sg13
g1
(g14
g3
Ntp2177
Rp2178
(dp2179
g18
g1
(g19
g20
(lp2180
g1
(g22
g3
Ntp2181
Rp2182
(dp2183
g26
V2160
p2184
sbatp2185
Rp2186
(dp2187
g31
(dp2188
sbsbsg33
g110
sg35
g36
sg37
g38
sg39
g40
sg41
(lp2189
g1
(g43
g3
Ntp2190
Rp2191
(dp2192
g47
V523
p2193
sg49
VZebstrika
p2194
sg51
g52
sg53
V45
p2195
sg55
(lp2196
Vshock-wave
p2197
aVdischarge
p2198
aVflame-charge
p2199
aVwild-charge
p2200
asg61
g62
sg63
Vmotor-drive
p2201
sbag1
(g43
g3
Ntp2202
Rp2203
(dp2204
g47
V523
p2205
sg49
VZebstrika
p2206
sg51
g52
sg53
V45
p2207
sg55
(lp2208
Vshock-wave
p2209
aVdischarge
p2210
aVflame-charge
p2211
aVwild-charge
p2212
asg61
g62
sg63
Vmotor-drive
p2213
sbasg89
I00
sg90
g91
sbag1
(g2
g3
Ntp2214
Rp2215
(dp2216
g7
VSpr B2W2 Smasher.png
p2217
sg9
VSmasher
p2218
sg11
VElena
p2219
sg13
g1
(g14
g3
Ntp2220
Rp2221
(dp2222
g18
g1
(g19
g20
(lp2223
g1
(g22
g3
Ntp2224
Rp2225
(dp2226
g26
V4800
p2227
sbatp2228
Rp2229
(dp2230
g31
(dp2231
sbsbsg33
g154
sg35
g36
sg37
g38
sg39
g40
sg41
(lp2232
g1
(g43
g3
Ntp2233
Rp2234
(dp2235
g47
V523
p2236
sg49
VZebstrika
p2237
sg51
g546
sg53
V48
p2238
sg55
(lp2239
Vshock-wave
p2240
aVdischarge
p2241
aVflame-charge
p2242
aVwild-charge
p2243
asg61
g62
sg63
Vmotor-drive
p2244
sbasg89
I00
sg90
g91
sbag1
(g2
g3
Ntp2245
Rp2246
(dp2247
g7
VSpr B2W2 Smasher.png
p2248
sg9
VSmasher
p2249
sg11
VAspen
p2250
sg13
g1
(g14
g3
Ntp2251
Rp2252
(dp2253
g18
g1
(g19
g20
(lp2254
g1
(g22
g3
Ntp2255
Rp2256
(dp2257
g26
V4700
p2258
sbatp2259
Rp2260
(dp2261
g31
(dp2262
sbsbsg33
g110
sg35
g36
sg37
g38
sg39
g40
sg41
(lp2263
g1
(g43
g3
Ntp2264
Rp2265
(dp2266
g47
V547
p2267
sg49
VWhimsicott
p2268
sg51
g546
sg53
V47
p2269
sg55
(lp2270
Vgrowth
p2271
aVcotton-spore
p2272
aVtailwind
p2273
aVhurricane
p2274
asg61
g62
sg63
Vprankster
p2275
sbag1
(g43
g3
Ntp2276
Rp2277
(dp2278
g47
V549
p2279
sg49
VLilligant
p2280
sg51
g546
sg53
V47
p2281
sg55
(lp2282
Vpetal-dance
p2283
aVsynthesis
p2284
aVteeter-dance
p2285
aVquiver-dance
p2286
asg61
g62
sg63
Vown-tempo
p2287
sbasg89
I00
sg90
g91
sbag1
(g2
g3
Ntp2288
Rp2289
(dp2290
g7
VSpr B2W2 Smasher.png
p2291
sg9
VSmasher
p2292
sg11
VMari
p2293
sg13
g1
(g14
g3
Ntp2294
Rp2295
(dp2296
g18
g1
(g19
g20
(lp2297
g1
(g22
g3
Ntp2298
Rp2299
(dp2300
g26
V4800
p2301
sbatp2302
Rp2303
(dp2304
g31
(dp2305
sbsbsg33
g154
sg35
g36
sg37
g38
sg39
g40
sg41
(lp2306
g1
(g43
g3
Ntp2307
Rp2308
(dp2309
g47
V593
p2310
sg49
VJellicent
p2311
sg51
g546
sg53
V48
p2312
sg55
(lp2313
Vbrine
p2314
aVwring-out
p2315
aVominous-wind
p2316
aVhex
p2317
asg61
g62
sg63
Vcursed-body
p2318
sbasg89
I00
sg90
g91
sbag1
(g2
g3
Ntp2319
Rp2320
(dp2321
g7
VSpr B2W2 Hoopster.png
p2322
sg9
VHoopster
p2323
sg11
VBobby
p2324
sg13
g1
(g14
g3
Ntp2325
Rp2326
(dp2327
g18
g1
(g19
g20
(lp2328
g1
(g22
g3
Ntp2329
Rp2330
(dp2331
g26
V4800
p2332
sbatp2333
Rp2334
(dp2335
g31
(dp2336
sbsbsg33
g154
sg35
g36
sg37
g38
sg39
g40
sg41
(lp2337
g1
(g43
g3
Ntp2338
Rp2339
(dp2340
g47
V545
p2341
sg49
VScolipede
p2342
sg51
g52
sg53
V48
p2343
sg55
(lp2344
Vrock-climb
p2345
aVbug-bite
p2346
aVvenoshock
p2347
aVsteamroller
p2348
asg61
g62
sg63
Vpoison-point
p2349
sbasg89
I00
sg90
g91
sbag1
(g2
g3
Ntp2350
Rp2351
(dp2352
g7
VSpr B2W2 Backers M.png
p2353
sg9
VBackers
p2354
sg11
VMasa & Yas
p2355
sg13
g1
(g14
g3
Ntp2356
Rp2357
(dp2358
g18
g1
(g19
g20
(lp2359
g1
(g22
g3
Ntp2360
Rp2361
(dp2362
g26
V2160
p2363
sbatp2364
Rp2365
(dp2366
g31
(dp2367
sbsbsg33
g110
sg35
g36
sg37
g38
sg39
g40
sg41
(lp2368
g1
(g43
g3
Ntp2369
Rp2370
(dp2371
g47
V525
p2372
sg49
VBoldore
p2373
sg51
g52
sg53
V45
p2374
sg55
(lp2375
Vpower-gem
p2376
aVstone-edge
p2377
aVstealth-rock
p2378
aVsmack-down
p2379
asg61
g62
sg63
Vsturdy
p2380
sbag1
(g43
g3
Ntp2381
Rp2382
(dp2383
g47
V545
p2384
sg49
VScolipede
p2385
sg51
g52
sg53
V45
p2386
sg55
(lp2387
Vrock-climb
p2388
aVbug-bite
p2389
aVvenoshock
p2390
aVsteamroller
p2391
asg61
g62
sg63
Vpoison-point
p2392
sbasg89
I00
sg90
g91
sbag1
(g2
g3
Ntp2393
Rp2394
(dp2395
g7
VSpr B2W2 Hoopster.png
p2396
sg9
VHoopster
p2397
sg11
VJohn
p2398
sg13
g1
(g14
g3
Ntp2399
Rp2400
(dp2401
g18
g1
(g19
g20
(lp2402
g1
(g22
g3
Ntp2403
Rp2404
(dp2405
g26
V4700
p2406
sbatp2407
Rp2408
(dp2409
g31
(dp2410
sbsbsg33
g110
sg35
g36
sg37
g38
sg39
g40
sg41
(lp2411
g1
(g43
g3
Ntp2412
Rp2413
(dp2414
g47
V508
p2415
sg49
VStoutland
p2416
sg51
g52
sg53
V47
p2417
sg55
(lp2418
Vice-fang
p2419
aVfire-fang
p2420
aVretaliate
p2421
aVwork-up
p2422
asg61
g62
sg63
Vintimidate
p2423
sbag1
(g43
g3
Ntp2424
Rp2425
(dp2426
g47
V525
p2427
sg49
VBoldore
p2428
sg51
g52
sg53
V47
p2429
sg55
(lp2430
Vpower-gem
p2431
aVstone-edge
p2432
aVstealth-rock
p2433
aVsmack-down
p2434
asg61
g62
sg63
Vweak-armor
p2435
sbasg89
I00
sg90
g91
sbag1
(g2
g3
Ntp2436
Rp2437
(dp2438
g7
VSpr B2W2 Hoopster.png
p2439
sg9
VHoopster
p2440
sg11
VLamarcus
p2441
sg13
g1
(g14
g3
Ntp2442
Rp2443
(dp2444
g18
g1
(g19
g20
(lp2445
g1
(g22
g3
Ntp2446
Rp2447
(dp2448
g26
V4700
p2449
sbatp2450
Rp2451
(dp2452
g31
(dp2453
sbsbsg33
g110
sg35
g36
sg37
g38
sg39
g40
sg41
(lp2454
g1
(g43
g3
Ntp2455
Rp2456
(dp2457
g47
V542
p2458
sg49
VLeavanny
p2459
sg51
g52
sg53
V47
p2460
sg55
(lp2461
Vbug-bite
p2462
ag2462
aVentrainment
p2463
aVstruggle-bug
p2464
asg61
g62
sg63
Vchlorophyll
p2465
sbag1
(g43
g3
Ntp2466
Rp2467
(dp2468
g47
V508
p2469
sg49
VStoutland
p2470
sg51
g52
sg53
V47
p2471
sg55
(lp2472
Vice-fang
p2473
aVfire-fang
p2474
aVretaliate
p2475
aVwork-up
p2476
asg61
g62
sg63
Vintimidate
p2477
sbasg89
I00
sg90
g91
sbag1
(g2
g3
Ntp2478
Rp2479
(dp2480
g7
VSpr B2W2 Backers M.png
p2481
sg9
VBackers
p2482
sg11
VJoe & Ross
p2483
sg13
g1
(g14
g3
Ntp2484
Rp2485
(dp2486
g18
g1
(g19
g20
(lp2487
g1
(g22
g3
Ntp2488
Rp2489
(dp2490
g26
V2928
p2491
sbatp2492
Rp2493
(dp2494
g31
(dp2495
sbsbsg33
g110
sg35
g36
sg37
g38
sg39
g40
sg41
(lp2496
g1
(g43
g3
Ntp2497
Rp2498
(dp2499
g47
V523
p2500
sg49
VZebstrika
p2501
sg51
g546
sg53
V61
p2502
sg55
(lp2503
Vshock-wave
p2504
aVdischarge
p2505
aVflame-charge
p2506
aVwild-charge
p2507
asg61
g62
sg63
Vmotor-drive
p2508
sbag1
(g43
g3
Ntp2509
Rp2510
(dp2511
g47
V593
p2512
sg49
VJellicent
p2513
sg51
g546
sg53
V61
p2514
sg55
(lp2515
Vbrine
p2516
aVwring-out
p2517
aVominous-wind
p2518
aVhex
p2519
asg61
g62
sg63
Vcursed-body
p2520
sbasg89
I00
sg90
g91
sbag1
(g2
g3
Ntp2521
Rp2522
(dp2523
g7
VSpr B2W2 Smasher.png
p2524
sg9
VSmasher
p2525
sg11
VElena
p2526
sg13
g1
(g14
g3
Ntp2527
Rp2528
(dp2529
g18
g1
(g19
g20
(lp2530
g1
(g22
g3
Ntp2531
Rp2532
(dp2533
g26
V6300
p2534
sbatp2535
Rp2536
(dp2537
g31
(dp2538
sbsbsg33
g110
sg35
g36
sg37
g38
sg39
g40
sg41
(lp2539
g1
(g43
g3
Ntp2540
Rp2541
(dp2542
g47
V343
p2543
sg49
VBaltoy
p2544
sg51
VU
p2545
sg53
V63
p2546
sg55
(lp2547
Vpower-trick
p2548
aVearth-power
p2549
aVguard-split
p2550
aVpower-split
p2551
asg61
g62
sg63
Vlevitate
p2552
sbag1
(g43
g3
Ntp2553
Rp2554
(dp2555
g47
V523
p2556
sg49
VZebstrika
p2557
sg51
g546
sg53
V63
p2558
sg55
(lp2559
Vshock-wave
p2560
aVdischarge
p2561
aVflame-charge
p2562
aVwild-charge
p2563
asg61
g62
sg63
Vlightning-rod
p2564
sbasg89
I00
sg90
g91
sbag1
(g2
g3
Ntp2565
Rp2566
(dp2567
g7
VSpr B2W2 Backers F.png
p2568
sg9
VBackers
p2569
sg11
VAi & Ciel
p2570
sg13
g1
(g14
g3
Ntp2571
Rp2572
(dp2573
g18
g1
(g19
g20
(lp2574
g1
(g22
g3
Ntp2575
Rp2576
(dp2577
g26
V2928
p2578
sbatp2579
Rp2580
(dp2581
g31
(dp2582
sbsbsg33
g110
sg35
g36
sg37
g38
sg39
g40
sg41
(lp2583
g1
(g43
g3
Ntp2584
Rp2585
(dp2586
g47
V547
p2587
sg49
VWhimsicott
p2588
sg51
g546
sg53
V61
p2589
sg55
(lp2590
Vgrowth
p2591
aVcotton-spore
p2592
aVtailwind
p2593
aVhurricane
p2594
asg61
g62
sg63
Vprankster
p2595
sbag1
(g43
g3
Ntp2596
Rp2597
(dp2598
g47
V549
p2599
sg49
VLilligant
p2600
sg51
g546
sg53
V61
p2601
sg55
(lp2602
Vpetal-dance
p2603
aVsynthesis
p2604
aVteeter-dance
p2605
aVquiver-dance
p2606
asg61
g62
sg63
Vchlorophyll
p2607
sbasg89
I00
sg90
g91
sbag1
(g2
g3
Ntp2608
Rp2609
(dp2610
g7
VSpr B2W2 Smasher.png
p2611
sg9
VSmasher
p2612
sg11
VAspen
p2613
sg13
g1
(g14
g3
Ntp2614
Rp2615
(dp2616
g18
g1
(g19
g20
(lp2617
g1
(g22
g3
Ntp2618
Rp2619
(dp2620
g26
V6300
p2621
sbatp2622
Rp2623
(dp2624
g31
(dp2625
sbsbsg33
g110
sg35
g36
sg37
g38
sg39
g40
sg41
(lp2626
g1
(g43
g3
Ntp2627
Rp2628
(dp2629
g47
V547
p2630
sg49
VWhimsicott
p2631
sg51
g546
sg53
V63
p2632
sg55
(lp2633
Vgrowth
p2634
aVcotton-spore
p2635
aVtailwind
p2636
aVhurricane
p2637
asg61
g62
sg63
Vprankster
p2638
sbag1
(g43
g3
Ntp2639
Rp2640
(dp2641
g47
V549
p2642
sg49
VLilligant
p2643
sg51
g546
sg53
V63
p2644
sg55
(lp2645
Vpetal-dance
p2646
aVsynthesis
p2647
aVteeter-dance
p2648
aVquiver-dance
p2649
asg61
g62
sg63
Vchlorophyll
p2650
sbasg89
I00
sg90
g91
sbag1
(g2
g3
Ntp2651
Rp2652
(dp2653
g7
VSpr B2W2 Smasher.png
p2654
sg9
VSmasher
p2655
sg11
VMari
p2656
sg13
g1
(g14
g3
Ntp2657
Rp2658
(dp2659
g18
g1
(g19
g20
(lp2660
g1
(g22
g3
Ntp2661
Rp2662
(dp2663
g26
V6300
p2664
sbatp2665
Rp2666
(dp2667
g31
(dp2668
sbsbsg33
g110
sg35
g36
sg37
g38
sg39
g40
sg41
(lp2669
g1
(g43
g3
Ntp2670
Rp2671
(dp2672
g47
V100
p2673
sg49
VVoltorb
p2674
sg51
g2545
sg53
V63
p2675
sg55
(lp2676
Vgyro-ball
p2677
aVmagnet-rise
p2678
aVcharge-beam
p2679
aVelectro-ball
p2680
asg61
g62
sg63
Vstatic
p2681
sbag1
(g43
g3
Ntp2682
Rp2683
(dp2684
g47
V593
p2685
sg49
VJellicent
p2686
sg51
g546
sg53
V63
p2687
sg55
(lp2688
Vbrine
p2689
aVwring-out
p2690
aVominous-wind
p2691
aVhex
p2692
asg61
g62
sg63
Vwater-absorb
p2693
sbasg89
I00
sg90
g91
sbag1
(g2
g3
Ntp2694
Rp2695
(dp2696
g7
VSpr B2W2 Hoopster.png
p2697
sg9
VHoopster
p2698
sg11
VBobby
p2699
sg13
g1
(g14
g3
Ntp2700
Rp2701
(dp2702
g18
g1
(g19
g20
(lp2703
g1
(g22
g3
Ntp2704
Rp2705
(dp2706
g26
V6300
p2707
sbatp2708
Rp2709
(dp2710
g31
(dp2711
sbsbsg33
g110
sg35
g36
sg37
g38
sg39
g40
sg41
(lp2712
g1
(g43
g3
Ntp2713
Rp2714
(dp2715
g47
V458
p2716
sg49
VMantyke
p2717
sg51
g52
sg53
V63
p2718
sg55
(lp2719
Vwater-pulse
p2720
aVaqua-ring
p2721
aVair-slash
p2722
aVwide-guard
p2723
asg61
g62
sg63
Vswift-swim
p2724
sbag1
(g43
g3
Ntp2725
Rp2726
(dp2727
g47
V545
p2728
sg49
VScolipede
p2729
sg51
g52
sg53
V63
p2730
sg55
(lp2731
Vrock-climb
p2732
aVbug-bite
p2733
aVvenoshock
p2734
aVsteamroller
p2735
asg61
g62
sg63
Vswarm
p2736
sbasg89
I00
sg90
g91
sbag1
(g2
g3
Ntp2737
Rp2738
(dp2739
g7
VSpr B2W2 Backers M.png
p2740
sg9
VBackers
p2741
sg11
VMasa & Yas
p2742
sg13
g1
(g14
g3
Ntp2743
Rp2744
(dp2745
g18
g1
(g19
g20
(lp2746
g1
(g22
g3
Ntp2747
Rp2748
(dp2749
g26
V2928
p2750
sbatp2751
Rp2752
(dp2753
g31
(dp2754
sbsbsg33
g110
sg35
g36
sg37
g38
sg39
g40
sg41
(lp2755
g1
(g43
g3
Ntp2756
Rp2757
(dp2758
g47
V545
p2759
sg49
VScolipede
p2760
sg51
g52
sg53
V61
p2761
sg55
(lp2762
Vrock-climb
p2763
aVbug-bite
p2764
aVvenoshock
p2765
aVsteamroller
p2766
asg61
g62
sg63
Vswarm
p2767
sbag1
(g43
g3
Ntp2768
Rp2769
(dp2770
g47
V526
p2771
sg49
VGigalith
p2772
sg51
g52
sg53
V61
p2773
sg55
(lp2774
Vpower-gem
p2775
aVstone-edge
p2776
aVstealth-rock
p2777
aVsmack-down
p2778
asg61
g62
sg63
Vsturdy
p2779
sbasg89
I00
sg90
g91
sbag1
(g2
g3
Ntp2780
Rp2781
(dp2782
g7
VSpr B2W2 Hoopster.png
p2783
sg9
VHoopster
p2784
sg11
VJohn
p2785
sg13
g1
(g14
g3
Ntp2786
Rp2787
(dp2788
g18
g1
(g19
g20
(lp2789
g1
(g22
g3
Ntp2790
Rp2791
(dp2792
g26
V6300
p2793
sbatp2794
Rp2795
(dp2796
g31
(dp2797
sbsbsg33
g110
sg35
g36
sg37
g38
sg39
g40
sg41
(lp2798
g1
(g43
g3
Ntp2799
Rp2800
(dp2801
g47
V508
p2802
sg49
VStoutland
p2803
sg51
g52
sg53
V63
p2804
sg55
(lp2805
Vice-fang
p2806
aVfire-fang
p2807
aVretaliate
p2808
aVwork-up
p2809
asg61
g62
sg63
Vsand-rush
p2810
sbag1
(g43
g3
Ntp2811
Rp2812
(dp2813
g47
V526
p2814
sg49
VGigalith
p2815
sg51
g52
sg53
V63
p2816
sg55
(lp2817
Vpower-gem
p2818
aVstone-edge
p2819
aVstealth-rock
p2820
aVsmack-down
p2821
asg61
g62
sg63
Vsand-stream
p2822
sbasg89
I00
sg90
g91
sbag1
(g2
g3
Ntp2823
Rp2824
(dp2825
g7
VSpr B2W2 Backers F.png
p2826
sg9
VBackers
p2827
sg11
VKat & Phae
p2828
sg13
g1
(g14
g3
Ntp2829
Rp2830
(dp2831
g18
g1
(g19
g20
(lp2832
g1
(g22
g3
Ntp2833
Rp2834
(dp2835
g26
V2928
p2836
sbatp2837
Rp2838
(dp2839
g31
(dp2840
sbsbsg33
g110
sg35
g36
sg37
g38
sg39
g40
sg41
(lp2841
g1
(g43
g3
Ntp2842
Rp2843
(dp2844
g47
V508
p2845
sg49
VStoutland
p2846
sg51
g546
sg53
V61
p2847
sg55
(lp2848
Vice-fang
p2849
aVfire-fang
p2850
aVretaliate
p2851
aVwork-up
p2852
asg61
g62
sg63
Vsand-rush
p2853
sbag1
(g43
g3
Ntp2854
Rp2855
(dp2856
g47
V626
p2857
sg49
VBouffalant
p2858
sg51
g546
sg53
V61
p2859
sg55
(lp2860
Vpursuit
p2861
aVrevenge
p2862
aVgiga-impact
p2863
aVhead-charge
p2864
asg61
g62
sg63
Vreckless
p2865
sbasg89
I00
sg90
g91
sbag1
(g2
g3
Ntp2866
Rp2867
(dp2868
g7
VSpr B2W2 Hoopster.png
p2869
sg9
VHoopster
p2870
sg11
VLamarcus
p2871
sg13
g1
(g14
g3
Ntp2872
Rp2873
(dp2874
g18
g1
(g19
g20
(lp2875
g1
(g22
g3
Ntp2876
Rp2877
(dp2878
g26
V6300
p2879
sbatp2880
Rp2881
(dp2882
g31
(dp2883
sbsbsg33
g110
sg35
g36
sg37
g38
sg39
g40
sg41
(lp2884
g1
(g43
g3
Ntp2885
Rp2886
(dp2887
g47
V284
p2888
sg49
VMasquerain
p2889
sg51
g52
sg53
V63
p2890
sg55
(lp2891
Vair-slash
p2892
aVbug-buzz
p2893
aVominous-wind
p2894
aVquiver-dance
p2895
asg61
g62
sg63
Vintimidate
p2896
sbag1
(g43
g3
Ntp2897
Rp2898
(dp2899
g47
V626
p2900
sg49
VBouffalant
p2901
sg51
g52
sg53
V63
p2902
sg55
(lp2903
Vpursuit
p2904
aVrevenge
p2905
aVgiga-impact
p2906
aVhead-charge
p2907
asg61
g62
sg63
Vsap-sipper
p2908
sbasg89
I00
sg90
g91
sbag1
(g2
g3
Ntp2909
Rp2910
(dp2911
g7
VSpr B2W2 Ace Trainer M.png
p2912
sg9
VAce Trainer
p2913
sg11
VCharlie
p2914
sg13
g1
(g14
g3
Ntp2915
Rp2916
(dp2917
g18
g1
(g19
g20
(lp2918
g1
(g22
g3
Ntp2919
Rp2920
(dp2921
g26
V3780
p2922
sbatp2923
Rp2924
(dp2925
g31
(dp2926
sbsbsg33
g34
sg35
g36
sg37
g38
sg39
g40
sg41
(lp2927
g1
(g43
g3
Ntp2928
Rp2929
(dp2930
g47
V596
p2931
sg49
VGalvantula
p2932
sg51
g52
sg53
V63
p2933
sg55
(lp2934
Vdischarge
p2935
aVbug-bite
p2936
aVelectro-ball
p2937
aVelectroweb
p2938
asg61
g62
sg63
Vcompound-eyes
p2939
sbag1
(g43
g3
Ntp2940
Rp2941
(dp2942
g47
V357
p2943
sg49
VTropius
p2944
sg51
g52
sg53
V63
p2945
sg55
(lp2946
Vair-slash
p2947
aVleaf-storm
p2948
aVbestow
p2949
aVleaf-tornado
p2950
asg61
g62
sg63
Vsolar-power
p2951
sbag1
(g43
g3
Ntp2952
Rp2953
(dp2954
g47
V473
p2955
sg49
VMamoswine
p2956
sg51
g52
sg53
V63
p2957
sg55
(lp2958
Vodor-sleuth
p2959
aVice-fang
p2960
aVmud-bomb
p2961
aVdouble-hit
p2962
asg61
g62
sg63
Voblivious
p2963
sbasg89
I00
sg90
g91
sbag1
(g2
g3
Ntp2964
Rp2965
(dp2966
g7
VSpr B2W2 Ace Trainer F.png
p2967
sg9
VAce Trainer
p2968
sg11
VLucille
p2969
sg13
g1
(g14
g3
Ntp2970
Rp2971
(dp2972
g18
g1
(g19
g20
(lp2973
g1
(g22
g3
Ntp2974
Rp2975
(dp2976
g26
V3780
p2977
sbatp2978
Rp2979
(dp2980
g31
(dp2981
sbsbsg33
g34
sg35
g36
sg37
g38
sg39
g40
sg41
(lp2982
g1
(g43
g3
Ntp2983
Rp2984
(dp2985
g47
V124
p2986
sg49
VJynx
p2987
sg51
g546
sg53
V63
p2988
sg55
(lp2989
Vwake-up-slap
p2990
aVwring-out
p2991
aVavalanche
p2992
aVheart-stamp
p2993
asg61
g62
sg63
Vforewarn
p2994
sbag1
(g43
g3
Ntp2995
Rp2996
(dp2997
g47
V134
p2998
sg49
VVaporeon
p2999
sg51
g52
sg53
V63
p3000
sg55
(lp3001
Vmuddy-water
p3002
aVwater-pulse
p3003
aVlast-resort
p3004
aVaqua-ring
p3005
asg61
g62
sg63
Vwater-absorb
p3006
sbag1
(g43
g3
Ntp3007
Rp3008
(dp3009
g47
V142
p3010
sg49
VAerodactyl
p3011
sg51
g52
sg53
V63
p3012
sg55
(lp3013
Vice-fang
p3014
aVfire-fang
p3015
aViron-head
p3016
aVsky-drop
p3017
asg61
g62
sg63
Vpressure
p3018
sbasg89
I00
sg90
g91
sbag1
(g2
g3
Ntp3019
Rp3020
(dp3021
g7
VSpr B2W2 Artist.png
p3022
sg9
VArtist
p3023
sg11
VPierre
p3024
sg13
g1
(g14
g3
Ntp3025
Rp3026
(dp3027
g18
g1
(g19
g20
(lp3028
g1
(g22
g3
Ntp3029
Rp3030
(dp3031
g26
V2976
p3032
sbatp3033
Rp3034
(dp3035
g31
(dp3036
sbsbsg33
g154
sg35
g36
sg37
g38
sg39
g40
sg41
(lp3037
g1
(g43
g3
Ntp3038
Rp3039
(dp3040
g47
V235
p3041
sg49
VSmeargle
p3042
sg51
g52
sg53
V62
p3043
sg55
(lp3044
Vsketch
p3045
ag3045
ag3045
ag3045
asg61
g62
sg63
Vown-tempo
p3046
sbasg89
I00
sg90
g91
sbag1
(g2
g3
Ntp3047
Rp3048
(dp3049
g7
VSpr B2W2 Backpacker M.png
p3050
sg9
VBackpacker
p3051
sg11
VAlexander
p3052
sg13
V1488
p3053
sg33
g154
sg35
g36
sg37
g38
sg39
g40
sg41
(lp3054
g1
(g43
g3
Ntp3055
Rp3056
(dp3057
g47
V335
p3058
sg49
VZangoose
p3059
sg51
g52
sg53
V62
p3060
sg55
(lp3061
Vcrush-claw
p3062
aVclose-combat
p3063
aVembargo
p3064
aVx-scissor
p3065
asg61
g62
sg63
Vimmunity
p3066
sbasg89
I00
sg90
g91
sbag1
(g2
g3
Ntp3067
Rp3068
(dp3069
g7
VSpr B2W2 Backpacker F.png
p3070
sg9
VBackpacker
p3071
sg11
VPatty
p3072
sg13
g1
(g14
g3
Ntp3073
Rp3074
(dp3075
g18
g1
(g19
g20
(lp3076
g1
(g22
g3
Ntp3077
Rp3078
(dp3079
g26
V1488
p3080
sbatp3081
Rp3082
(dp3083
g31
(dp3084
sbsbsg33
g154
sg35
g36
sg37
g38
sg39
g40
sg41
(lp3085
g1
(g43
g3
Ntp3086
Rp3087
(dp3088
g47
V136
p3089
sg49
VFlareon
p3090
sg51
g52
sg53
V62
p3091
sg55
(lp3092
Vhelping-hand
p3093
aVlast-resort
p3094
aVfire-fang
p3095
aVlava-plume
p3096
asg61
g62
sg63
Vflash-fire
p3097
sbasg89
I00
sg90
g91
sbag1
(g2
g3
Ntp3098
Rp3099
(dp3100
g7
VSpr B2W2 Baker.png
p3101
sg9
VBaker
p3102
sg11
VLilly
p3103
sg13
V2440
p3104
sg33
g110
sg35
g36
sg37
g38
sg39
g40
sg41
(lp3105
g1
(g43
g3
Ntp3106
Rp3107
(dp3108
g47
V324
p3109
sg49
VTorkoal
p3110
sg51
g546
sg53
V61
p3111
sg55
(lp3112
Viron-defense
p3113
aVlava-plume
p3114
aVshell-smash
p3115
aVinferno
p3116
asg61
g62
sg63
Vdrought
p3117
sbag1
(g43
g3
Ntp3118
Rp3119
(dp3120
g47
V241
p3121
sg49
VMiltank
p3122
sg51
g546
sg53
V61
p3123
sg55
(lp3124
Vwake-up-slap
p3125
aVgyro-ball
p3126
aVzen-headbutt
p3127
aVcaptivate
p3128
asg61
g62
sg63
Vthick-fat
p3129
sbasg89
I00
sg90
g91
sbag1
(g2
g3
Ntp3130
Rp3131
(dp3132
g7
VSpr B2W2 Battle Girl.png
p3133
sg9
VBattle Girl
p3134
sg11
VJanie
p3135
sg13
g1
(g14
g3
Ntp3136
Rp3137
(dp3138
g18
g1
(g19
g20
(lp3139
g1
(g22
g3
Ntp3140
Rp3141
(dp3142
g26
V2016
p3143
sbatp3144
Rp3145
(dp3146
g31
(dp3147
sbsbsg33
g154
sg35
g36
sg37
g38
sg39
g40
sg41
(lp3148
g1
(g43
g3
Ntp3149
Rp3150
(dp3151
g47
V107
p3152
sg49
VHitmonchan
p3153
sg51
g52
sg53
V63
p3154
sg55
(lp3155
Vclose-combat
p3156
aVvacuum-wave
p3157
aVbullet-punch
p3158
aVquick-guard
p3159
asg61
g62
sg63
Vkeen-eye
p3160
sbasg89
I00
sg90
g91
sbag1
(g2
g3
Ntp3161
Rp3162
(dp3163
g7
VSpr B2W2 Black Belt.png
p3164
sg9
VBlack Belt
p3165
sg11
VLao
p3166
sg13
g1
(g14
g3
Ntp3167
Rp3168
(dp3169
g18
g1
(g19
g20
(lp3170
g1
(g22
g3
Ntp3171
Rp3172
(dp3173
g26
V1952
p3174
sbatp3175
Rp3176
(dp3177
g31
(dp3178
sbsbsg33
g34
sg35
g36
sg37
g38
sg39
g40
sg41
(lp3179
g1
(g43
g3
Ntp3180
Rp3181
(dp3182
g47
V056
p3183
sg49
VMankey
p3184
sg51
g52
sg53
V61
p3185
sg55
(lp3186
Vclose-combat
p3187
aVassurance
p3188
aVpunishment
p3189
aVfinal-gambit
p3190
asg61
g62
sg63
Vanger-point
p3191
sbag1
(g43
g3
Ntp3192
Rp3193
(dp3194
g47
V214
p3195
sg49
VHeracross
p3196
sg51
g52
sg53
V61
p3197
sg55
(lp3198
Vfeint
p3199
aVclose-combat
p3200
aVnight-slash
p3201
aVchip-away
p3202
asg61
g62
sg63
Vswarm
p3203
sbag1
(g43
g3
Ntp3204
Rp3205
(dp3206
g47
V534
p3207
sg49
VConkeldurr
p3208
sg51
g52
sg53
V61
p3209
sg55
(lp3210
Vwake-up-slap
p3211
aVhammer-arm
p3212
aVstone-edge
p3213
aVchip-away
p3214
asg61
g62
sg63
Vguts
p3215
sbasg89
I00
sg90
g91
sbag1
(g2
g3
Ntp3216
Rp3217
(dp3218
g7
VSpr B2W2 Clerk M.png
p3219
sg9
VClerk \u2642
p3220
sg11
VNelson
p3221
sg13
V2320
p3222
sg33
V5
p3223
sg35
g36
sg37
g38
sg39
g40
sg41
(lp3224
g1
(g43
g3
Ntp3225
Rp3226
(dp3227
g47
V193
p3228
sg49
VYanma
p3229
sg51
g52
sg53
V58
p3230
sg55
(lp3231
Vuproar
p3232
aVu-turn
p3233
aVair-slash
p3234
aVbug-buzz
p3235
asg61
g62
sg63
Vspeed-boost
p3236
sbag1
(g43
g3
Ntp3237
Rp3238
(dp3239
g47
V166
p3240
sg49
VLedian
p3241
sg51
g52
sg53
V58
p3242
sg55
(lp3243
Vsafeguard
p3244
aVbaton-pass
p3245
aVsilver-wind
p3246
aVbug-buzz
p3247
asg61
g62
sg63
Vearly-bird
p3248
sbag1
(g43
g3
Ntp3249
Rp3250
(dp3251
g47
V402
p3252
sg49
VKricketune
p3253
sg51
g52
sg53
V58
p3254
sg55
(lp3255
Vtaunt
p3256
aVnight-slash
p3257
aVx-scissor
p3258
aVbug-buzz
p3259
asg61
g62
sg63
Vswarm
p3260
sbag1
(g43
g3
Ntp3261
Rp3262
(dp3263
g47
V212
p3264
sg49
VScizor
p3265
sg51
g52
sg53
V58
p3266
sg55
(lp3267
Vx-scissor
p3268
aVbullet-punch
p3269
aViron-head
p3270
aVdouble-hit
p3271
asg61
g62
sg63
Vswarm
p3272
sbag1
(g43
g3
Ntp3273
Rp3274
(dp3275
g47
V545
p3276
sg49
VScolipede
p3277
sg51
g52
sg53
V58
p3278
sg55
(lp3279
Vrock-climb
p3280
aVbug-bite
p3281
aVvenoshock
p3282
aVsteamroller
p3283
asg61
g62
sg63
Vpoison-point
p3284
sbasg89
I00
sg90
g91
sbag1
(g2
g3
Ntp3285
Rp3286
(dp3287
g7
VSpr B2W2 Clerk M B.png
p3288
sg9
VClerk \u2642
p3289
sg11
VFredric
p3290
sg13
V4960
p3291
sg33
g110
sg35
g36
sg37
g38
sg39
g40
sg41
(lp3292
g1
(g43
g3
Ntp3293
Rp3294
(dp3295
g47
V053
p3296
sg49
VPersian
p3297
sg51
g52
sg53
V62
p3298
sg55
(lp3299
Vpower-gem
p3300
aVswitcheroo
p3301
aVnasty-plot
p3302
aVcaptivate
p3303
asg61
g62
sg63
Vlimber
p3304
sbag1
(g43
g3
Ntp3305
Rp3306
(dp3307
g47
V430
p3308
sg49
VHonchkrow
p3309
sg51
g52
sg53
V62
p3310
sg55
(lp3311
Vnight-slash
p3312
aVnasty-plot
p3313
aVfoul-play
p3314
aVquash
p3315
asg61
g62
sg63
Vsuper-luck
p3316
sbasg89
I00
sg90
g91
sbag1
(g2
g3
Ntp3317
Rp3318
(dp3319
g7
VSpr B2W2 Clerk F.png
p3320
sg9
VClerk \u2640
p3321
sg11
VWren
p3322
sg13
V2400
p3323
sg33
g34
sg35
g36
sg37
g38
sg39
g40
sg41
(lp3324
g1
(g43
g3
Ntp3325
Rp3326
(dp3327
g47
V420
p3328
sg49
VCherubi
p3329
sg51
g546
sg53
V60
p3330
sg55
(lp3331
Vhelping-hand
p3332
aVmagical-leaf
p3333
aVlucky-chant
p3334
aVworry-seed
p3335
asg61
g62
sg63
Vchlorophyll
p3336
sbag1
(g43
g3
Ntp3337
Rp3338
(dp3339
g47
V192
p3340
sg49
VSunflora
p3341
sg51
g546
sg53
V60
p3342
sg55
(lp3343
Vbullet-seed
p3344
aVnatural-gift
p3345
aVworry-seed
p3346
aVleaf-storm
p3347
asg61
g62
sg63
Vsolar-power
p3348
sbag1
(g43
g3
Ntp3349
Rp3350
(dp3351
g47
V421
p3352
sg49
VCherrim
p3353
sg51
g546
sg53
V60
p3354
sg55
(lp3355
Vhelping-hand
p3356
aVmagical-leaf
p3357
aVlucky-chant
p3358
aVworry-seed
p3359
asg61
g62
sg63
Vflower-gift
p3360
sbasg89
I00
sg90
g91
sbag1
(g2
g3
Ntp3361
Rp3362
(dp3363
g7
VSpr B2W2 Dancer.png
p3364
sg9
VDancer
p3365
sg11
VDavey
p3366
sg13
g1
(g14
g3
Ntp3367
Rp3368
(dp3369
g18
g1
(g19
g20
(lp3370
g1
(g22
g3
Ntp3371
Rp3372
(dp3373
g26
V1952
p3374
sbatp3375
Rp3376
(dp3377
g31
(dp3378
sbsbsg33
g110
sg35
g36
sg37
g38
sg39
g40
sg41
(lp3379
g1
(g43
g3
Ntp3380
Rp3381
(dp3382
g47
V122
p3383
sg49
VMr. Mime
p3384
sg51
g52
sg53
V61
p3385
sg55
(lp3386
Vpower-swap
p3387
aVguard-swap
p3388
aVwide-guard
p3389
aVquick-guard
p3390
asg61
g62
sg63
Vsoundproof
p3391
sbag1
(g43
g3
Ntp3392
Rp3393
(dp3394
g47
V122
p3395
sg49
VMr. Mime
p3396
sg51
g52
sg53
V61
p3397
sg55
(lp3398
Vpower-swap
p3399
aVguard-swap
p3400
aVwide-guard
p3401
aVquick-guard
p3402
asg61
g62
sg63
Vfilter
p3403
sbasg89
I00
sg90
g91
sbag1
(g2
g3
Ntp3404
Rp3405
(dp3406
g7
VSpr B2W2 Depot Agent.png
p3407
sg9
VDepot Agent
p3408
sg11
VJosh
p3409
sg13
g1
(g14
g3
Ntp3410
Rp3411
(dp3412
g18
g1
(g19
g20
(lp3413
g1
(g22
g3
Ntp3414
Rp3415
(dp3416
g26
V2440
p3417
sbatp3418
Rp3419
(dp3420
g31
(dp3421
sbsbsg33
g110
sg35
g36
sg37
g38
sg39
g40
sg41
(lp3422
g1
(g43
g3
Ntp3423
Rp3424
(dp3425
g47
V050
p3426
sg49
VDiglett
p3427
sg51
g52
sg53
V61
p3428
sg55
(lp3429
Vsucker-punch
p3430
aVearth-power
p3431
aVmud-bomb
p3432
aVbulldoze
p3433
asg61
g62
sg63
Varena-trap
p3434
sbag1
(g43
g3
Ntp3435
Rp3436
(dp3437
g47
V051
p3438
sg49
VDugtrio
p3439
sg51
g52
sg53
V61
p3440
sg55
(lp3441
Vnight-slash
p3442
aVearth-power
p3443
aVmud-bomb
p3444
aVbulldoze
p3445
asg61
g62
sg63
Varena-trap
p3446
sbasg89
I00
sg90
g91
sbag1
(g2
g3
Ntp3447
Rp3448
(dp3449
g7
VSpr B2W2 Doctor.png
p3450
sg9
VDoctor
p3451
sg11
VJules
p3452
sg13
V3720
p3453
sg33
g154
sg35
g36
sg37
g38
sg39
g40
sg41
(lp3454
g1
(g43
g3
Ntp3455
Rp3456
(dp3457
g47
V113
p3458
sg49
VChansey
p3459
sg51
g546
sg53
V62
p3460
sg55
(lp3461
Vhealing-wish
p3462
aVfling
p3463
aVheal-pulse
p3464
aVbestow
p3465
asg61
g62
sg63
Vserene-grace
p3466
sbasg89
I00
sg90
g91
sbag1
(g2
g3
Ntp3467
Rp3468
(dp3469
g7
VSpr B2W2 Fisherman.png
p3470
sg9
VFisherman
p3471
sg11
VDevon
p3472
sg13
g1
(g14
g3
Ntp3473
Rp3474
(dp3475
g18
g1
(g19
g20
(lp3476
g1
(g22
g3
Ntp3477
Rp3478
(dp3479
g26
V1888
p3480
sbatp3481
Rp3482
(dp3483
g31
(dp3484
sbsbsg33
V4
p3485
sg35
g36
sg37
g38
sg39
g40
sg41
(lp3486
g1
(g43
g3
Ntp3487
Rp3488
(dp3489
g47
V456
p3490
sg49
VFinneon
p3491
sg51
g52
sg53
V59
p3492
sg55
(lp3493
Vu-turn
p3494
aVaqua-ring
p3495
aVcaptivate
p3496
aVsoak
p3497
asg61
g62
sg63
Vstorm-drain
p3498
sbag1
(g43
g3
Ntp3499
Rp3500
(dp3501
g47
V368
p3502
sg49
VGorebyss
p3503
sg51
g52
sg53
V59
p3504
sg55
(lp3505
Vwater-pulse
p3506
aVaqua-ring
p3507
aVaqua-tail
p3508
aVcaptivate
p3509
asg61
g62
sg63
Vswift-swim
p3510
sbag1
(g43
g3
Ntp3511
Rp3512
(dp3513
g47
V367
p3514
sg49
VHuntail
p3515
sg51
g52
sg53
V59
p3516
sg55
(lp3517
Vwater-pulse
p3518
aVbrine
p3519
aVaqua-tail
p3520
aVice-fang
p3521
asg61
g62
sg63
Vswift-swim
p3522
sbag1
(g43
g3
Ntp3523
Rp3524
(dp3525
g47
V457
p3526
sg49
VLumineon
p3527
sg51
g52
sg53
V59
p3528
sg55
(lp3529
Vu-turn
p3530
aVaqua-ring
p3531
aVcaptivate
p3532
aVsoak
p3533
asg61
g62
sg63
Vswift-swim
p3534
sbasg89
I00
sg90
g91
sbag1
(g2
g3
Ntp3535
Rp3536
(dp3537
g7
VSpr B2W2 Gentleman.png
p3538
sg9
VGentleman
p3539
sg11
VRenaud
p3540
sg13
g1
(g14
g3
Ntp3541
Rp3542
(dp3543
g18
g1
(g19
g20
(lp3544
g1
(g22
g3
Ntp3545
Rp3546
(dp3547
g26
V12400
p3548
sbatp3549
Rp3550
(dp3551
g31
(dp3552
sbsbsg33
g154
sg35
g36
sg37
g38
sg39
g40
sg41
(lp3553
g1
(g43
g3
Ntp3554
Rp3555
(dp3556
g47
V199
p3557
sg49
VSlowking
p3558
sg51
g52
sg53
V62
p3559
sg55
(lp3560
Vpower-gem
p3561
aVnasty-plot
p3562
aVzen-headbutt
p3563
aVheal-pulse
p3564
asg61
g62
sg63
Vown-tempo
p3565
sbasg89
I00
sg90
g91
sbag1
(g2
g3
Ntp3566
Rp3567
(dp3568
g7
VSpr B2W2 Harlequin.png
p3569
sg9
VHarlequin
p3570
sg11
VCharley
p3571
sg13
V1952
p3572
sg33
g110
sg35
g36
sg37
g38
sg39
g40
sg41
(lp3573
g1
(g43
g3
Ntp3574
Rp3575
(dp3576
g47
V102
p3577
sg49
VExeggcute
p3578
sg51
g52
sg53
V61
p3579
sg55
(lp3580
Vbullet-seed
p3581
aVnatural-gift
p3582
aVworry-seed
p3583
aVbestow
p3584
asg61
g62
sg63
Vchlorophyll
p3585
sbag1
(g43
g3
Ntp3586
Rp3587
(dp3588
g47
V101
p3589
sg49
VElectrode
p3590
sg51
g2545
sg53
V61
p3591
sg55
(lp3592
Vgyro-ball
p3593
aVmagnet-rise
p3594
aVcharge-beam
p3595
aVelectro-ball
p3596
asg61
g62
sg63
Vstatic
p3597
sbasg89
I00
sg90
g91
sbag1
(g2
g3
Ntp3598
Rp3599
(dp3600
g7
VSpr B2W2 Hiker.png
p3601
sg9
VHiker
p3602
sg11
VRussel
p3603
sg13
V1920
p3604
sg33
g34
sg35
g36
sg37
g38
sg39
g40
sg41
(lp3605
g1
(g43
g3
Ntp3606
Rp3607
(dp3608
g47
V074
p3609
sg49
VGeodude
p3610
sg51
g52
sg53
V60
p3611
sg55
(lp3612
Vstone-edge
p3613
aVstealth-rock
p3614
aVsmack-down
p3615
aVbulldoze
p3616
asg61
g62
sg63
Vrock-head
p3617
sbag1
(g43
g3
Ntp3618
Rp3619
(dp3620
g47
V075
p3621
sg49
VGraveler
p3622
sg51
g52
sg53
V60
p3623
sg55
(lp3624
Vstone-edge
p3625
aVstealth-rock
p3626
aVsmack-down
p3627
aVbulldoze
p3628
asg61
g62
sg63
Vrock-head
p3629
sbag1
(g43
g3
Ntp3630
Rp3631
(dp3632
g47
V076
p3633
sg49
VGolem
p3634
sg51
g52
sg53
V60
p3635
sg55
(lp3636
Vsmack-down
p3637
aVheavy-slam
p3638
aVbulldoze
p3639
aVsteamroller
p3640
asg61
g62
sg63
Vsturdy
p3641
sbasg89
I00
sg90
g91
sbag1
(g2
g3
Ntp3642
Rp3643
(dp3644
g7
VSpr B2W2 Janitor.png
p3645
sg9
VJanitor
p3646
sg11
VCaleb
p3647
sg13
V2440
p3648
sg33
g110
sg35
g36
sg37
g38
sg39
g40
sg41
(lp3649
g1
(g43
g3
Ntp3650
Rp3651
(dp3652
g47
V109
p3653
sg49
VKoffing
p3654
sg51
g52
sg53
V61
p3655
sg55
(lp3656
Vmemento
p3657
aVgyro-ball
p3658
aVassurance
p3659
aVclear-smog
p3660
asg61
g62
sg63
Vlevitate
p3661
sbag1
(g43
g3
Ntp3662
Rp3663
(dp3664
g47
V110
p3665
sg49
VWeezing
p3666
sg51
g52
sg53
V61
p3667
sg55
(lp3668
Vmemento
p3669
aVassurance
p3670
aVdouble-hit
p3671
aVclear-smog
p3672
asg61
g62
sg63
Vlevitate
p3673
sbasg89
I00
sg90
g91
sbag1
(g2
g3
Ntp3674
Rp3675
(dp3676
g7
VSpr B2W2 Lady.png
p3677
sg9
VLady
p3678
sg11
VSophie
p3679
sg13
V9920
p3680
sg33
g154
sg35
g36
sg37
g38
sg39
g40
sg41
(lp3681
g1
(g43
g3
Ntp3682
Rp3683
(dp3684
g47
V314
p3685
sg49
VIllumise
p3686
sg51
g546
sg53
V62
p3687
sg55
(lp3688
Vwish
p3689
aVcovet
p3690
aVbug-buzz
p3691
aVzen-headbutt
p3692
asg61
g62
sg63
Voblivious
p3693
sbasg89
I00
sg90
g91
sbag1
(g2
g3
Ntp3694
Rp3695
(dp3696
g7
VSpr B2W2 Lass.png
p3697
sg9
VLass
p3698
sg11
VDana
p3699
sg13
V960
p3700
sg33
g34
sg35
g36
sg37
g38
sg39
g40
sg41
(lp3701
g1
(g43
g3
Ntp3702
Rp3703
(dp3704
g47
V200
p3705
sg49
VMisdreavus
p3706
sg51
g546
sg53
V60
p3707
sg55
(lp3708
Vastonish
p3709
aVpayback
p3710
aVpower-gem
p3711
aVhex
p3712
asg61
g62
sg63
Vlevitate
p3713
sbag1
(g43
g3
Ntp3714
Rp3715
(dp3716
g47
V417
p3717
sg49
VPachirisu
p3718
sg51
g546
sg53
V60
p3719
sg55
(lp3720
Vspark
p3721
aVlast-resort
p3722
aVdischarge
p3723
aVelectro-ball
p3724
asg61
g62
sg63
Vpickup
p3725
sbag1
(g43
g3
Ntp3726
Rp3727
(dp3728
g47
V301
p3729
sg49
VDelcatty
p3730
sg51
g546
sg53
V60
p3731
sg55
(lp3732
Vdouble-slap
p3733
aVsing
p3734
aVattract
p3735
aVfake-out
p3736
asg61
g62
sg63
Vcute-charm
p3737
sbasg89
I00
sg90
g91
sbag1
(g2
g3
Ntp3738
Rp3739
(dp3740
g7
VSpr B2W2 Maid.png
p3741
sg9
VMaid
p3742
sg11
VAlica
p3743
sg13
g1
(g14
g3
Ntp3744
Rp3745
(dp3746
g18
g1
(g19
g20
(lp3747
g1
(g22
g3
Ntp3748
Rp3749
(dp3750
g26
V2440
p3751
sbatp3752
Rp3753
(dp3754
g31
(dp3755
sbsbsg33
g110
sg35
g36
sg37
g38
sg39
g40
sg41
(lp3756
g1
(g43
g3
Ntp3757
Rp3758
(dp3759
g47
V058
p3760
sg49
VGrowlithe
p3761
sg51
g52
sg53
V61
p3762
sg55
(lp3763
Vflare-blitz
p3764
aVfire-fang
p3765
aVflame-burst
p3766
aVretaliate
p3767
asg61
g62
sg63
Vflash-fire
p3768
sbag1
(g43
g3
Ntp3769
Rp3770
(dp3771
g47
V573
p3772
sg49
VCinccino
p3773
sg51
g546
sg53
V61
p3774
sg55
(lp3775
Vtickle
p3776
aVbullet-seed
p3777
aVrock-blast
p3778
aVtail-slap
p3779
asg61
g62
sg63
Vtechnician
p3780
sbasg89
I00
sg90
g91
sbag1
(g2
g3
Ntp3781
Rp3782
(dp3783
g7
VSpr B2W2 Musician.png
p3784
sg9
VMusician
p3785
sg11
VBoris
p3786
sg13
g1
(g14
g3
Ntp3787
Rp3788
(dp3789
g18
g1
(g19
g20
(lp3790
g1
(g22
g3
Ntp3791
Rp3792
(dp3793
g26
V1952
p3794
sbatp3795
Rp3796
(dp3797
g31
(dp3798
sbsbsg33
g110
sg35
g36
sg37
g38
sg39
g40
sg41
(lp3799
g1
(g43
g3
Ntp3800
Rp3801
(dp3802
g47
V441
p3803
sg49
VChatot
p3804
sg51
g52
sg53
V61
p3805
sg55
(lp3806
Vchatter
p3807
aVsynchronoise
p3808
aVround
p3809
aVechoed-voice
p3810
asg61
g62
sg63
Vtangled-feet
p3811
sbag1
(g43
g3
Ntp3812
Rp3813
(dp3814
g47
V040
p3815
sg49
VWigglytuff
p3816
sg51
g546
sg53
V61
p3817
sg55
(lp3818
Vdouble-slap
p3819
aVsing
p3820
aVdisable
p3821
aVdefense-curl
p3822
asg61
g62
sg63
Vcute-charm
p3823
sbasg89
I00
sg90
g91
sbag1
(g2
g3
Ntp3824
Rp3825
(dp3826
g7
VSpr B2W2 Nurse.png
p3827
sg9
VNurse
p3828
sg11
VKirsten
p3829
sg13
g1
(g14
g3
Ntp3830
Rp3831
(dp3832
g18
g1
(g19
g20
(lp3833
g1
(g22
g3
Ntp3834
Rp3835
(dp3836
g26
V2480
p3837
sbatp3838
Rp3839
(dp3840
g31
(dp3841
sbsbsg33
g154
sg35
g36
sg37
g38
sg39
g40
sg41
(lp3842
g1
(g43
g3
Ntp3843
Rp3844
(dp3845
g47
V113
p3846
sg49
VChansey
p3847
sg51
g546
sg53
V62
p3848
sg55
(lp3849
Vhealing-wish
p3850
aVfling
p3851
aVheal-pulse
p3852
aVbestow
p3853
asg61
g62
sg63
Vnatural-cure
p3854
sbasg89
I00
sg90
g91
sbag1
(g2
g3
Ntp3855
Rp3856
(dp3857
g7
VSpr B2W2 Nursery Aide.png
p3858
sg9
VNursery Aide
p3859
sg11
VLeah
p3860
sg13
V2440
p3861
sg33
g110
sg35
g36
sg37
g38
sg39
g40
sg41
(lp3862
g1
(g43
g3
Ntp3863
Rp3864
(dp3865
g47
V035
p3866
sg49
VClefairy
p3867
sg51
g546
sg53
V61
p3868
sg55
(lp3869
Vlucky-chant
p3870
aVafter-you
p3871
aVstored-power
p3872
aVbestow
p3873
asg61
g62
sg63
Vcute-charm
p3874
sbag1
(g43
g3
Ntp3875
Rp3876
(dp3877
g47
V036
p3878
sg49
VClefable
p3879
sg51
g546
sg53
V61
p3880
sg55
(lp3881
Vdouble-slap
p3882
aVsing
p3883
aVminimize
p3884
aVmetronome
p3885
asg61
g62
sg63
Vmagic-guard
p3886
sbasg89
I00
sg90
g91
sbag1
(g2
g3
Ntp3887
Rp3888
(dp3889
g7
VSpr B2W2 Parasol Lady.png
p3890
sg9
VParasol Lady
p3891
sg11
VGwyneth
p3892
sg13
g1
(g14
g3
Ntp3893
Rp3894
(dp3895
g18
g1
(g19
g20
(lp3896
g1
(g22
g3
Ntp3897
Rp3898
(dp3899
g26
V1984
p3900
sbatp3901
Rp3902
(dp3903
g31
(dp3904
sbsbsg33
g154
sg35
g36
sg37
g38
sg39
g40
sg41
(lp3905
g1
(g43
g3
Ntp3906
Rp3907
(dp3908
g47
V351
p3909
sg49
VCastform
p3910
sg51
g546
sg53
V62
p3911
sg55
(lp3912
Vrain-dance
p3913
aVsunny-day
p3914
aVhail
p3915
aVweather-ball
p3916
asg61
g62
sg63
Vforecast
p3917
sbasg89
I00
sg90
g91
sbag1
(g2
g3
Ntp3918
Rp3919
(dp3920
g7
VSpr B2W2 Pilot.png
p3921
sg9
VPilot
p3922
sg11
VLeonard
p3923
sg13
V3600
p3924
sg33
g34
sg35
g36
sg37
g38
sg39
g40
sg41
(lp3925
g1
(g43
g3
Ntp3926
Rp3927
(dp3928
g47
V163
p3929
sg49
VHoothoot
p3930
sg51
g52
sg53
V60
p3931
sg55
(lp3932
Vair-slash
p3933
aVzen-headbutt
p3934
aVsynchronoise
p3935
aVechoed-voice
p3936
asg61
g62
sg63
Vinsomnia
p3937
sbag1
(g43
g3
Ntp3938
Rp3939
(dp3940
g47
V521
p3941
sg49
VUnfezant
p3942
sg51
g52
sg53
V60
p3943
sg55
(lp3944
Vair-cutter
p3945
aVroost
p3946
aVtailwind
p3947
aVair-slash
p3948
asg61
g62
sg63
Vbig-pecks
p3949
sbag1
(g43
g3
Ntp3950
Rp3951
(dp3952
g47
V277
p3953
sg49
VSwellow
p3954
sg51
g52
sg53
V60
p3955
sg55
(lp3956
Vendeavor
p3957
aVaerial-ace
p3958
aVpluck
p3959
aVair-slash
p3960
asg61
g62
sg63
Vguts
p3961
sbasg89
I00
sg90
g91
sbag1
(g2
g3
Ntp3962
Rp3963
(dp3964
g7
VSpr B2W2 Pokfan M.png
p3965
sg9
VPokfan
p3966
sg11
VColin
p3967
sg13
g1
(g14
g3
Ntp3968
Rp3969
(dp3970
g18
g1
(g19
g20
(lp3971
g1
(g22
g3
Ntp3972
Rp3973
(dp3974
g26
V3904
p3975
sbatp3976
Rp3977
(dp3978
g31
(dp3979
sbsbsg33
g110
sg35
g36
sg37
g38
sg39
g40
sg41
(lp3980
g1
(g43
g3
Ntp3981
Rp3982
(dp3983
g47
V079
p3984
sg49
VSlowpoke
p3985
sg51
g52
sg53
V61
p3986
sg55
(lp3987
Vslack-off
p3988
aVwater-pulse
p3989
aVzen-headbutt
p3990
aVheal-pulse
p3991
asg61
g62
sg63
Voblivious
p3992
sbag1
(g43
g3
Ntp3993
Rp3994
(dp3995
g47
V080
p3996
sg49
VSlowbro
p3997
sg51
g52
sg53
V61
p3998
sg55
(lp3999
Vslack-off
p4000
aVwater-pulse
p4001
aVzen-headbutt
p4002
aVheal-pulse
p4003
asg61
g62
sg63
Vown-tempo
p4004
sbasg89
I00
sg90
g91
sbag1
(g2
g3
Ntp4005
Rp4006
(dp4007
g7
VSpr B2W2 Pokfan F.png
p4008
sg9
VPokfan
p4009
sg11
VDarcy
p4010
sg13
g1
(g14
g3
Ntp4011
Rp4012
(dp4013
g18
g1
(g19
g20
(lp4014
g1
(g22
g3
Ntp4015
Rp4016
(dp4017
g26
V3712
p4018
sbatp4019
Rp4020
(dp4021
g31
(dp4022
sbsbsg33
g3223
sg35
g36
sg37
g38
sg39
g40
sg41
(lp4023
g1
(g43
g3
Ntp4024
Rp4025
(dp4026
g47
V019
p4027
sg49
VRattata
p4028
sg51
g546
sg53
V58
p4029
sg55
(lp4030
Vcrunch
p4031
aVendeavor
p4032
aVassurance
p4033
aVsucker-punch
p4034
asg61
g62
sg63
Vguts
p4035
sbag1
(g43
g3
Ntp4036
Rp4037
(dp4038
g47
V161
p4039
sg49
VSentret
p4040
sg51
g546
sg53
V58
p4041
sg55
(lp4042
Vhelping-hand
p4043
aVhyper-voice
p4044
aVme-first
p4045
aVsucker-punch
p4046
asg61
g62
sg63
Vrun-away
p4047
sbag1
(g43
g3
Ntp4048
Rp4049
(dp4050
g47
V263
p4051
sg49
VZigzagoon
p4052
sg51
g546
sg53
V58
p4053
sg55
(lp4054
Vodor-sleuth
p4055
aVcovet
p4056
aVfling
p4057
aVbestow
p4058
asg61
g62
sg63
Vpickup
p4059
sbag1
(g43
g3
Ntp4060
Rp4061
(dp4062
g47
V399
p4063
sg49
VBidoof
p4064
sg51
g546
sg53
V58
p4065
sg55
(lp4066
Vcurse
p4067
aVrollout
p4068
aVsuperpower
p4069
aVyawn
p4070
asg61
g62
sg63
Vsimple
p4071
sbag1
(g43
g3
Ntp4072
Rp4073
(dp4074
g47
V504
p4075
sg49
VPatrat
p4076
sg51
g546
sg53
V58
p4077
sg55
(lp4078
Vbaton-pass
p4079
aVcrunch
p4080
aVafter-you
p4081
aVwork-up
p4082
asg61
g62
sg63
Vkeen-eye
p4083
sbasg89
I00
sg90
g91
sbag1
(g2
g3
Ntp4084
Rp4085
(dp4086
g7
VSpr B2W2 Pokmon Breeder M.png
p4087
sg9
VPokmon Breeder
p4088
sg11
VOwen
p4089
sg13
g1
(g14
g3
Ntp4090
Rp4091
(dp4092
g18
g1
(g19
g20
(lp4093
g1
(g22
g3
Ntp4094
Rp4095
(dp4096
g26
V1824
p4097
sbatp4098
Rp4099
(dp4100
g31
(dp4101
sbsbsg33
V6
p4102
sg35
g36
sg37
g38
sg39
g40
sg41
(lp4103
g1
(g43
g3
Ntp4104
Rp4105
(dp4106
g47
V438
p4107
sg49
VBonsly
p4108
sg51
g52
sg53
V57
p4109
sg55
(lp4110
Vrock-tomb
p4111
aVblock
p4112
aVcopycat
p4113
aVsucker-punch
p4114
asg61
g62
sg63
Vsturdy
p4115
sbag1
(g43
g3
Ntp4116
Rp4117
(dp4118
g47
V194
p4119
sg49
VWooper
p4120
sg51
g52
sg53
V57
p4121
sg55
(lp4122
Vmud-sport
p4123
aVmuddy-water
p4124
aVmud-shot
p4125
aVmud-bomb
p4126
asg61
g62
sg63
Vdamp
p4127
sbag1
(g43
g3
Ntp4128
Rp4129
(dp4130
g47
V446
p4131
sg49
VMunchlax
p4132
sg51
g52
sg53
V57
p4133
sg55
(lp4134
Vnatural-gift
p4135
aVfling
p4136
aVlast-resort
p4137
aVchip-away
p4138
asg61
g62
sg63
Vthick-fat
p4139
sbag1
(g43
g3
Ntp4140
Rp4141
(dp4142
g47
V027
p4143
sg49
VSandshrew
p4144
sg51
g52
sg53
V57
p4145
sg55
(lp4146
Vmagnitude
p4147
aVrapid-spin
p4148
aVsand-tomb
p4149
aVgyro-ball
p4150
asg61
g62
sg63
Vsand-veil
p4151
sbag1
(g43
g3
Ntp4152
Rp4153
(dp4154
g47
V360
p4155
sg49
VWynaut
p4156
sg51
g52
sg53
V57
p4157
sg55
(lp4158
Vcharm
p4159
aVsafeguard
p4160
aVencore
p4161
aVmirror-coat
p4162
asg61
g62
sg63
Vshadow-tag
p4163
sbag1
(g43
g3
Ntp4164
Rp4165
(dp4166
g47
V325
p4167
sg49
VSpoink
p4168
sg51
g52
sg53
V57
p4169
sg55
(lp4170
Vpayback
p4171
aVpower-gem
p4172
aVzen-headbutt
p4173
aVpsyshock
p4174
asg61
g62
sg63
Vown-tempo
p4175
sbasg89
I00
sg90
g91
sbag1
(g2
g3
Ntp4176
Rp4177
(dp4178
g7
VSpr B2W2 Pokmon Breeder F.png
p4179
sg9
VPokmon Breeder
p4180
sg11
VBrooke
p4181
sg13
g1
(g14
g3
Ntp4182
Rp4183
(dp4184
g18
g1
(g19
g20
(lp4185
g1
(g22
g3
Ntp4186
Rp4187
(dp4188
g26
V1824
p4189
sbatp4190
Rp4191
(dp4192
g31
(dp4193
sbsbsg33
g4102
sg35
g36
sg37
g38
sg39
g40
sg41
(lp4194
g1
(g43
g3
Ntp4195
Rp4196
(dp4197
g47
V220
p4198
sg49
VSwinub
p4199
sg51
g546
sg53
V57
p4200
sg55
(lp4201
Vmud-sport
p4202
aVodor-sleuth
p4203
aVice-shard
p4204
aVmud-bomb
p4205
asg61
g62
sg63
Voblivious
p4206
sbag1
(g43
g3
Ntp4207
Rp4208
(dp4209
g47
V060
p4210
sg49
VPoliwag
p4211
sg51
g546
sg53
V57
p4212
sg55
(lp4213
Vmud-shot
p4214
aVwater-sport
p4215
aVwake-up-slap
p4216
aVmud-bomb
p4217
asg61
g62
sg63
Vdamp
p4218
sbag1
(g43
g3
Ntp4219
Rp4220
(dp4221
g47
V173
p4222
sg49
VCleffa
p4223
sg51
g546
sg53
V57
p4224
sg55
(lp4225
Vcharm
p4226
aVencore
p4227
aVmagical-leaf
p4228
aVcopycat
p4229
asg61
g62
sg63
Vcute-charm
p4230
sbag1
(g43
g3
Ntp4231
Rp4232
(dp4233
g47
V443
p4234
sg49
VGible
p4235
sg51
g546
sg53
V57
p4236
sg55
(lp4237
Vsandstorm
p4238
aVsand-tomb
p4239
aVdragon-claw
p4240
aVdragon-rush
p4241
asg61
g62
sg63
Vsand-veil
p4242
sbag1
(g43
g3
Ntp4243
Rp4244
(dp4245
g47
V174
p4246
sg49
VIgglybuff
p4247
sg51
g546
sg53
V57
p4248
sg55
(lp4249
Vdefense-curl
p4250
aVsweet-kiss
p4251
aVcharm
p4252
aVcopycat
p4253
asg61
g62
sg63
Vcompetitive
p4254
sbag1
(g43
g3
Ntp4255
Rp4256
(dp4257
g47
V246
p4258
sg49
VLarvitar
p4259
sg51
g546
sg53
V57
p4260
sg55
(lp4261
Vpayback
p4262
aVdark-pulse
p4263
aVstone-edge
p4264
aVchip-away
p4265
asg61
g62
sg63
Vguts
p4266
sbasg89
I00
sg90
g91
sbag1
(g2
g3
Ntp4267
Rp4268
(dp4269
g7
VSpr B2W2 Pokmon Ranger M.png
p4270
sg9
VPokmon Ranger
p4271
sg11
VAlain
p4272
sg13
g1
(g14
g3
Ntp4273
Rp4274
(dp4275
g18
g1
(g19
g20
(lp4276
g1
(g22
g3
Ntp4277
Rp4278
(dp4279
g26
V3660
p4280
sbatp4281
Rp4282
(dp4283
g31
(dp4284
sbsbsg33
g34
sg35
g36
sg37
g38
sg39
g40
sg41
(lp4285
g1
(g43
g3
Ntp4286
Rp4287
(dp4288
g47
V424
p4289
sg49
VAmbipom
p4290
sg51
g52
sg53
V61
p4291
sg55
(lp4292
Vfling
p4293
aVlast-resort
p4294
aVnasty-plot
p4295
aVdouble-hit
p4296
asg61
g62
sg63
Vtechnician
p4297
sbag1
(g43
g3
Ntp4298
Rp4299
(dp4300
g47
V455
p4301
sg49
VCarnivine
p4302
sg51
g52
sg53
V61
p4303
sg55
(lp4304
Vingrain
p4305
aVwring-out
p4306
aVpower-whip
p4307
aVleaf-tornado
p4308
asg61
g62
sg63
Vlevitate
p4309
sbag1
(g43
g3
Ntp4310
Rp4311
(dp4312
g47
V208
p4313
sg49
VSteelix
p4314
sg51
g52
sg53
V61
p4315
sg55
(lp4316
Vstone-edge
p4317
aVstealth-rock
p4318
aVautotomize
p4319
aVsmack-down
p4320
asg61
g62
sg63
Vrock-head
p4321
sbasg89
I00
sg90
g91
sbag1
(g2
g3
Ntp4322
Rp4323
(dp4324
g7
VSpr B2W2 Pokmon Ranger F.png
p4325
sg9
VPokmon Ranger
p4326
sg11
VHeidi
p4327
sg13
g1
(g14
g3
Ntp4328
Rp4329
(dp4330
g18
g1
(g19
g20
(lp4331
g1
(g22
g3
Ntp4332
Rp4333
(dp4334
g26
V3660
p4335
sbatp4336
Rp4337
(dp4338
g31
(dp4339
sbsbsg33
g34
sg35
g36
sg37
g38
sg39
g40
sg41
(lp4340
g1
(g43
g3
Ntp4341
Rp4342
(dp4343
g47
V518
p4344
sg49
VMusharna
p4345
sg51
g546
sg53
V61
p4346
sg55
(lp4347
Vpsybeam
p4348
aVhypnosis
p4349
aVdefense-curl
p4350
aVlucky-chant
p4351
asg61
g62
sg63
Vforewarn
p4352
sbag1
(g43
g3
Ntp4353
Rp4354
(dp4355
g47
V426
p4356
sg49
VDrifblim
p4357
sg51
g546
sg53
V61
p4358
sg55
(lp4359
Vastonish
p4360
aVpayback
p4361
aVominous-wind
p4362
aVhex
p4363
asg61
g62
sg63
Vunburden
p4364
sbag1
(g43
g3
Ntp4365
Rp4366
(dp4367
g47
V197
p4368
sg49
VUmbreon
p4369
sg51
g52
sg53
V61
p4370
sg55
(lp4371
Vhelping-hand
p4372
aVassurance
p4373
aVguard-swap
p4374
aVlast-resort
p4375
asg61
g62
sg63
Vsynchronize
p4376
sbasg89
I00
sg90
g91
sbag1
(g2
g3
Ntp4377
Rp4378
(dp4379
g7
VSpr B2W2 Policeman.png
p4380
sg9
VPoliceman
p4381
sg11
VJeff
p4382
sg13
g1
(g14
g3
Ntp4383
Rp4384
(dp4385
g18
g1
(g19
g20
(lp4386
g1
(g22
g3
Ntp4387
Rp4388
(dp4389
g26
V2440
p4390
sbatp4391
Rp4392
(dp4393
g31
(dp4394
sbsbsg33
g110
sg35
g36
sg37
g38
sg39
g40
sg41
(lp4395
g1
(g43
g3
Ntp4396
Rp4397
(dp4398
g47
V059
p4399
sg49
VArcanine
p4400
sg51
g52
sg53
V61
p4401
sg55
(lp4402
Vextreme-speed
p4403
aVodor-sleuth
p4404
aVthunder-fang
p4405
aVfire-fang
p4406
asg61
g62
sg63
Vflash-fire
p4407
sbag1
(g43
g3
Ntp4408
Rp4409
(dp4410
g47
V620
p4411
sg49
VMienshao
p4412
sg51
g52
sg53
V61
p4413
sg55
(lp4414
Vforce-palm
p4415
aVaura-sphere
p4416
aVdrain-punch
p4417
aVwide-guard
p4418
asg61
g62
sg63
Vregenerator
p4419
sbasg89
I00
sg90
g91
sbag1
(g2
g3
Ntp4420
Rp4421
(dp4422
g7
VSpr B2W2 Preschooler M.png
p4423
sg9
VPreschooler
p4424
sg11
VEvan
p4425
sg13
g1
(g14
g3
Ntp4426
Rp4427
(dp4428
g18
g1
(g19
g20
(lp4429
g1
(g22
g3
Ntp4430
Rp4431
(dp4432
g26
V244
p4433
sbatp4434
Rp4435
(dp4436
g31
(dp4437
sbsbsg33
g154
sg35
g36
sg37
g38
sg39
g40
sg41
(lp4438
sg89
I00
sg90
g91
sbag1
(g2
g3
Ntp4439
Rp4440
(dp4441
g7
VSpr B2W2 Preschooler F.png
p4442
sg9
VPreschooler
p4443
sg11
VMia
p4444
sg13
g1
(g14
g3
Ntp4445
Rp4446
(dp4447
g18
g1
(g19
g20
(lp4448
g1
(g22
g3
Ntp4449
Rp4450
(dp4451
g26
V244
p4452
sbatp4453
Rp4454
(dp4455
g31
(dp4456
sbsbsg33
g154
sg35
g36
sg37
g38
sg39
g40
sg41
(lp4457
g1
(g43
g3
Ntp4458
Rp4459
(dp4460
g47
V238
p4461
sg49
VSmoochum
p4462
sg51
g546
sg53
V61
p4463
sg55
(lp4464
Vlucky-chant
p4465
aVcopycat
p4466
aVavalanche
p4467
aVheart-stamp
p4468
asg61
g62
sg63
Vforewarn
p4469
sbasg89
I00
sg90
g91
sbag1
(g2
g3
Ntp4470
Rp4471
(dp4472
g7
VSpr B2W2 Psychic M.png
p4473
sg9
VPsychic
p4474
sg11
VGerard
p4475
sg13
g1
(g14
g3
Ntp4476
Rp4477
(dp4478
g18
g1
(g19
g20
(lp4479
g1
(g22
g3
Ntp4480
Rp4481
(dp4482
g26
V1984
p4483
sbatp4484
Rp4485
(dp4486
g31
(dp4487
sbsbsg33
g34
sg35
g36
sg37
g38
sg39
g40
sg41
(lp4488
g1
(g43
g3
Ntp4489
Rp4490
(dp4491
g47
V203
p4492
sg49
VGirafarig
p4493
sg51
g52
sg53
V61
p4494
sg55
(lp4495
Vpower-swap
p4496
aVguard-swap
p4497
aVzen-headbutt
p4498
aVdouble-hit
p4499
asg61
g62
sg63
Vinner-focus
p4500
sbag1
(g43
g3
Ntp4501
Rp4502
(dp4503
g47
V561
p4504
sg49
VSigilyph
p4505
sg51
g52
sg53
V61
p4506
sg55
(lp4507
Vmiracle-eye
p4508
aVtailwind
p4509
aVair-slash
p4510
aVsynchronoise
p4511
asg61
g62
sg63
Vmagic-guard
p4512
sbag1
(g43
g3
Ntp4513
Rp4514
(dp4515
g47
V344
p4516
sg49
VClaydol
p4517
sg51
g52
sg53
V61
p4518
sg55
(lp4519
Vpower-trick
p4520
aVearth-power
p4521
aVguard-split
p4522
aVpower-split
p4523
asg61
g62
sg63
Vlevitate
p4524
sbasg89
I00
sg90
g91
sbag1
(g2
g3
Ntp4525
Rp4526
(dp4527
g7
VSpr B2W2 Psychic F.png
p4528
sg9
VPsychic
p4529
sg11
VMadhu
p4530
sg13
g1
(g14
g3
Ntp4531
Rp4532
(dp4533
g18
g1
(g19
g20
(lp4534
g1
(g22
g3
Ntp4535
Rp4536
(dp4537
g26
V1984
p4538
sbatp4539
Rp4540
(dp4541
g31
(dp4542
sbsbsg33
g110
sg35
g36
sg37
g38
sg39
g40
sg41
(lp4543
g1
(g43
g3
Ntp4544
Rp4545
(dp4546
g47
V429
p4547
sg49
VMismagius
p4548
sg51
g546
sg53
V62
p4549
sg55
(lp4550
Vspite
p4551
aVastonish
p4552
aVmagical-leaf
p4553
aVlucky-chant
p4554
asg61
g62
sg63
Vlevitate
p4555
sbag1
(g43
g3
Ntp4556
Rp4557
(dp4558
g47
V576
p4559
sg49
VGothitelle
p4560
sg51
g546
sg53
V62
p4561
sg55
(lp4562
Vheal-block
p4563
aVpsyshock
p4564
aVtelekinesis
p4565
aVmagic-room
p4566
asg61
g62
sg63
Vcompetitive
p4567
sbasg89
I00
sg90
g91
sbag1
(g2
g3
Ntp4568
Rp4569
(dp4570
g7
VSpr B2W2 Rich Boy.png
p4571
sg9
VRich Boy
p4572
sg11
VAnthony
p4573
sg13
V9920
p4574
sg33
g154
sg35
g36
sg37
g38
sg39
g40
sg41
(lp4575
g1
(g43
g3
Ntp4576
Rp4577
(dp4578
g47
V313
p4579
sg49
VVolbeat
p4580
sg51
g52
sg53
V62
p4581
sg55
(lp4582
Vtail-glow
p4583
aVsignal-beam
p4584
aVbug-buzz
p4585
aVzen-headbutt
p4586
asg61
g62
sg63
Villuminate
p4587
sbasg89
I00
sg90
g91
sbag1
(g2
g3
Ntp4588
Rp4589
(dp4590
g7
VSpr B2W2 Roughneck.png
p4591
sg9
VRoughneck
p4592
sg11
VFletcher
p4593
sg13
g1
(g14
g3
Ntp4594
Rp4595
(dp4596
g18
g1
(g19
g20
(lp4597
g1
(g22
g3
Ntp4598
Rp4599
(dp4600
g26
V1440
p4601
sbatp4602
Rp4603
(dp4604
g31
(dp4605
sbsbsg33
g34
sg35
g36
sg37
g38
sg39
g40
sg41
(lp4606
g1
(g43
g3
Ntp4607
Rp4608
(dp4609
g47
V262
p4610
sg49
VMightyena
p4611
sg51
g52
sg53
V60
p4612
sg55
(lp4613
Vhowl
p4614
aVassurance
p4615
aVembargo
p4616
aVsucker-punch
p4617
asg61
g62
sg63
Vquick-feet
p4618
sbag1
(g43
g3
Ntp4619
Rp4620
(dp4621
g47
V435
p4622
sg49
VSkuntank
p4623
sg51
g52
sg53
V60
p4624
sg55
(lp4625
Vmemento
p4626
aVfeint
p4627
aVnight-slash
p4628
aVacid-spray
p4629
asg61
g62
sg63
Vstench
p4630
sbag1
(g43
g3
Ntp4631
Rp4632
(dp4633
g47
V342
p4634
sg49
VCrawdaunt
p4635
sg51
g52
sg53
V60
p4636
sg55
(lp4637
Vcrunch
p4638
aVtaunt
p4639
aVknock-off
p4640
aVnight-slash
p4641
asg61
g62
sg63
Vshell-armor
p4642
sbasg89
I00
sg90
g91
sbag1
(g2
g3
Ntp4643
Rp4644
(dp4645
g7
VSpr B2W2 School Kid M.png
p4646
sg9
VSchool Kid
p4647
sg11
VAlan
p4648
sg13
V1200
p4649
sg33
g34
sg35
g36
sg37
g38
sg39
g40
sg41
(lp4650
g1
(g43
g3
Ntp4651
Rp4652
(dp4653
g47
V117
p4654
sg49
VSeadra
p4655
sg51
g52
sg53
V60
p4656
sg55
(lp4657
Vtwister
p4658
aVdragon-dance
p4659
aVbrine
p4660
aVdragon-pulse
p4661
asg61
g62
sg63
Vsniper
p4662
sbag1
(g43
g3
Ntp4663
Rp4664
(dp4665
g47
V372
p4666
sg49
VShelgon
p4667
sg51
g52
sg53
V60
p4668
sg55
(lp4669
Vdragon-breath
p4670
aVcrunch
p4671
aVdragon-claw
p4672
aVzen-headbutt
p4673
asg61
g62
sg63
Vrock-head
p4674
sbag1
(g43
g3
Ntp4675
Rp4676
(dp4677
g47
V148
p4678
sg49
VDragonair
p4679
sg51
g52
sg53
V60
p4680
sg55
(lp4681
Vdragon-dance
p4682
aVaqua-tail
p4683
aVdragon-rush
p4684
aVdragon-tail
p4685
asg61
g62
sg63
Vshed-skin
p4686
sbasg89
I00
sg90
g91
sbag1
(g2
g3
Ntp4687
Rp4688
(dp4689
g7
VSpr B2W2 School Kid F.png
p4690
sg9
VSchool Kid
p4691
sg11
VSally
p4692
sg13
g1
(g14
g3
Ntp4693
Rp4694
(dp4695
g18
g1
(g19
g20
(lp4696
g1
(g22
g3
Ntp4697
Rp4698
(dp4699
g26
V1200
p4700
sbatp4701
Rp4702
(dp4703
g31
(dp4704
sbsbsg33
g34
sg35
g36
sg37
g38
sg39
g40
sg41
(lp4705
g1
(g43
g3
Ntp4706
Rp4707
(dp4708
g47
V370
p4709
sg49
VLuvdisc
p4710
sg51
g546
sg53
V60
p4711
sg55
(lp4712
Vwater-pulse
p4713
aVlucky-chant
p4714
aVaqua-ring
p4715
aVcaptivate
p4716
asg61
g62
sg63
Vswift-swim
p4717
sbag1
(g43
g3
Ntp4718
Rp4719
(dp4720
g47
V083
p4721
sg49
VFarfetch'd
p4722
sg51
g546
sg53
V60
p4723
sg55
(lp4724
Vnight-slash
p4725
aVair-slash
p4726
aVbrave-bird
p4727
aVacrobatics
p4728
asg61
g62
sg63
Vinner-focus
p4729
sbag1
(g43
g3
Ntp4730
Rp4731
(dp4732
g47
V108
p4733
sg49
VLickitung
p4734
sg51
g546
sg53
V60
p4735
sg55
(lp4736
Vwring-out
p4737
aVme-first
p4738
aVpower-whip
p4739
aVchip-away
p4740
asg61
g62
sg63
Vown-tempo
p4741
sbasg89
I00
sg90
g91
sbag1
(g2
g3
Ntp4742
Rp4743
(dp4744
g7
VSpr B2W2 Scientist M.png
p4745
sg9
VScientist
p4746
sg11
VSimon
p4747
sg13
g1
(g14
g3
Ntp4748
Rp4749
(dp4750
g18
g1
(g19
g20
(lp4751
g1
(g22
g3
Ntp4752
Rp4753
(dp4754
g26
V2928
p4755
sbatp4756
Rp4757
(dp4758
g31
(dp4759
sbsbsg33
g110
sg35
g36
sg37
g38
sg39
g40
sg41
(lp4760
g1
(g43
g3
Ntp4761
Rp4762
(dp4763
g47
V434
p4764
sg49
VStunky
p4765
sg51
g52
sg53
V61
p4766
sg55
(lp4767
Vmemento
p4768
aVfeint
p4769
aVnight-slash
p4770
aVacid-spray
p4771
asg61
g62
sg63
Vaftermath
p4772
sbag1
(g43
g3
Ntp4773
Rp4774
(dp4775
g47
V089
p4776
sg49
VMuk
p4777
sg51
g52
sg53
V61
p4778
sg55
(lp4779
Vfling
p4780
aVmud-bomb
p4781
aVgunk-shot
p4782
aVsludge-wave
p4783
asg61
g62
sg63
Vstench
p4784
sbasg89
I00
sg90
g91
sbag1
(g2
g3
Ntp4785
Rp4786
(dp4787
g7
VSpr B2W2 Scientist F.png
p4788
sg9
VScientist
p4789
sg11
VBlythe
p4790
sg13
V2928
p4791
sg33
g110
sg35
g36
sg37
g38
sg39
g40
sg41
(lp4792
g1
(g43
g3
Ntp4793
Rp4794
(dp4795
g47
V451
p4796
sg49
VSkorupi
p4797
sg51
g546
sg53
V61
p4798
sg55
(lp4799
Vcross-poison
p4800
aVbug-bite
p4801
aVhone-claws
p4802
aVvenoshock
p4803
asg61
g62
sg63
Vbattle-armor
p4804
sbag1
(g43
g3
Ntp4805
Rp4806
(dp4807
g47
V317
p4808
sg49
VSwalot
p4809
sg51
g546
sg53
V61
p4810
sg55
(lp4811
Vwring-out
p4812
aVgastro-acid
p4813
aVgunk-shot
p4814
aVacid-spray
p4815
asg61
g62
sg63
Vliquid-ooze
p4816
sbasg89
I00
sg90
g91
sbag1
(g2
g3
Ntp4817
Rp4818
(dp4819
g7
VSpr B2W2 Socialite.png
p4820
sg9
VSocialite
p4821
sg11
VEmilia
p4822
sg13
g1
(g14
g3
Ntp4823
Rp4824
(dp4825
g18
g1
(g19
g20
(lp4826
g1
(g22
g3
Ntp4827
Rp4828
(dp4829
g26
V12200
p4830
sbatp4831
Rp4832
(dp4833
g31
(dp4834
sbsbsg33
g110
sg35
g36
sg37
g38
sg39
g40
sg41
(lp4835
g1
(g43
g3
Ntp4836
Rp4837
(dp4838
g47
V302
p4839
sg49
VSableye
p4840
sg51
g546
sg53
V61
p4841
sg55
(lp4842
Vshadow-claw
p4843
aVshadow-sneak
p4844
aVzen-headbutt
p4845
aVfoul-play
p4846
asg61
g62
sg63
Vstall
p4847
sbag1
(g43
g3
Ntp4848
Rp4849
(dp4850
g47
V510
p4851
sg49
VLiepard
p4852
sg51
g546
sg53
V61
p4853
sg55
(lp4854
Vsucker-punch
p4855
aVnight-slash
p4856
aVnasty-plot
p4857
aVhone-claws
p4858
asg61
g62
sg63
Vunburden
p4859
sbasg89
I00
sg90
g91
sbag1
(g2
g3
Ntp4860
Rp4861
(dp4862
g7
VSpr B2W2 Veteran M.png
p4863
sg9
VVeteran
p4864
sg11
VArlen
p4865
sg13
g1
(g14
g3
Ntp4866
Rp4867
(dp4868
g18
g1
(g19
g20
(lp4869
g1
(g22
g3
Ntp4870
Rp4871
(dp4872
g26
V5040
p4873
sbatp4874
Rp4875
(dp4876
g31
(dp4877
sbsbsg33
g3485
sg35
g36
sg37
g38
sg39
g40
sg41
(lp4878
g1
(g43
g3
Ntp4879
Rp4880
(dp4881
g47
V135
p4882
sg49
VJolteon
p4883
sg51
g52
sg53
V63
p4884
sg55
(lp4885
Vhelping-hand
p4886
aVlast-resort
p4887
aVthunder-fang
p4888
aVdischarge
p4889
asg61
g62
sg63
Vvolt-absorb
p4890
sbag1
(g43
g3
Ntp4891
Rp4892
(dp4893
g47
V028
p4894
sg49
VSandslash
p4895
sg51
g52
sg53
V63
p4896
sg55
(lp4897
Vrapid-spin
p4898
aVcrush-claw
p4899
aVsand-tomb
p4900
aVgyro-ball
p4901
asg61
g62
sg63
Vsand-veil
p4902
sbag1
(g43
g3
Ntp4903
Rp4904
(dp4905
g47
V227
p4906
sg49
VSkarmory
p4907
sg51
g52
sg53
V63
p4908
sg55
(lp4909
Vfeint
p4910
aVnight-slash
p4911
aVair-slash
p4912
aVautotomize
p4913
asg61
g62
sg63
Vkeen-eye
p4914
sbag1
(g43
g3
Ntp4915
Rp4916
(dp4917
g47
V248
p4918
sg49
VTyranitar
p4919
sg51
g52
sg53
V63
p4920
sg55
(lp4921
Vice-fang
p4922
aVfire-fang
p4923
aVstone-edge
p4924
aVchip-away
p4925
asg61
g62
sg63
Vsand-stream
p4926
sbasg89
I00
sg90
g91
sbag1
(g2
g3
Ntp4927
Rp4928
(dp4929
g7
VSpr B2W2 Veteran F.png
p4930
sg9
VVeteran
p4931
sg11
VSayuri
p4932
sg13
g1
(g14
g3
Ntp4933
Rp4934
(dp4935
g18
g1
(g19
g20
(lp4936
g1
(g22
g3
Ntp4937
Rp4938
(dp4939
g26
V5040
p4940
sbatp4941
Rp4942
(dp4943
g31
(dp4944
sbsbsg33
g3485
sg35
g36
sg37
g38
sg39
g40
sg41
(lp4945
g1
(g43
g3
Ntp4946
Rp4947
(dp4948
g47
V369
p4949
sg49
VRelicanth
p4950
sg51
g52
sg53
V63
p4951
sg55
(lp4952
Vdive
p4953
aVmud-sport
p4954
aVrock-tomb
p4955
aVhead-smash
p4956
asg61
g62
sg63
Vrock-head
p4957
sbag1
(g43
g3
Ntp4958
Rp4959
(dp4960
g47
V219
p4961
sg49
VMagcargo
p4962
sg51
g546
sg53
V63
p4963
sg55
(lp4964
Vearth-power
p4965
aVlava-plume
p4966
aVflame-burst
p4967
aVshell-smash
p4968
asg61
g62
sg63
Vflame-body
p4969
sbag1
(g43
g3
Ntp4970
Rp4971
(dp4972
g47
V471
p4973
sg49
VGlaceon
p4974
sg51
g52
sg53
V63
p4975
sg55
(lp4976
Vhelping-hand
p4977
aVlast-resort
p4978
aVice-shard
p4979
aVice-fang
p4980
asg61
g62
sg63
Vsnow-cloak
p4981
sbag1
(g43
g3
Ntp4982
Rp4983
(dp4984
g47
V149
p4985
sg49
VDragonite
p4986
sg51
g546
sg53
V63
p4987
sg55
(lp4988
Vaqua-tail
p4989
aVdragon-rush
p4990
aVdragon-tail
p4991
aVhurricane
p4992
asg61
g62
sg63
Vinner-focus
p4993
sbasg89
I00
sg90
g91
sbag1
(g2
g3
Ntp4994
Rp4995
(dp4996
g7
VSpr B2W2 Waiter.png
p4997
sg9
VWaiter
p4998
sg11
VClint
p4999
sg13
V2400
p5000
sg33
g34
sg35
g36
sg37
g38
sg39
g40
sg41
(lp5001
g1
(g43
g3
Ntp5002
Rp5003
(dp5004
g47
V366
p5005
sg49
VClamperl
p5006
sg51
g52
sg53
V60
p5007
sg55
(lp5008
Vclamp
p5009
aVwhirlpool
p5010
aViron-defense
p5011
aVshell-smash
p5012
asg61
g62
sg63
Vshell-armor
p5013
sbag1
(g43
g3
Ntp5014
Rp5015
(dp5016
g47
V431
p5017
sg49
VGlameow
p5018
sg51
g546
sg53
V60
p5019
sg55
(lp5020
Vassist
p5021
aVsucker-punch
p5022
aVcaptivate
p5023
aVhone-claws
p5024
asg61
g62
sg63
Vown-tempo
p5025
sbag1
(g43
g3
Ntp5026
Rp5027
(dp5028
g47
V521
p5029
sg49
VUnfezant
p5030
sg51
g52
sg53
V60
p5031
sg55
(lp5032
Vair-cutter
p5033
aVroost
p5034
aVtailwind
p5035
aVair-slash
p5036
asg61
g62
sg63
Vbig-pecks
p5037
sbasg89
I00
sg90
g91
sbag1
(g2
g3
Ntp5038
Rp5039
(dp5040
g7
VSpr B2W2 Waitress.png
p5041
sg9
VWaitress
p5042
sg11
VBonita
p5043
sg13
V2440
p5044
sg33
g110
sg35
g36
sg37
g38
sg39
g40
sg41
(lp5045
g1
(g43
g3
Ntp5046
Rp5047
(dp5048
g47
V054
p5049
sg49
VPsyduck
p5050
sg51
g546
sg53
V61
p5051
sg55
(lp5052
Vaqua-tail
p5053
aVzen-headbutt
p5054
aVwonder-room
p5055
aVsoak
p5056
asg61
g62
sg63
Vdamp
p5057
sbag1
(g43
g3
Ntp5058
Rp5059
(dp5060
g47
V470
p5061
sg49
VLeafeon
p5062
sg51
g52
sg53
V61
p5063
sg55
(lp5064
Vgrass-whistle
p5065
aVmagical-leaf
p5066
aVleaf-blade
p5067
aVlast-resort
p5068
asg61
g62
sg63
Vleaf-guard
p5069
sbasg89
I00
sg90
g91
sbag1
(g2
g3
Ntp5070
Rp5071
(dp5072
g7
VSpr B2W2 Worker.png
p5073
sg9
VWorker
p5074
sg11
VTyler
p5075
sg13
g1
(g14
g3
Ntp5076
Rp5077
(dp5078
g18
g1
(g19
g20
(lp5079
g1
(g22
g3
Ntp5080
Rp5081
(dp5082
g26
V2440
p5083
sbatp5084
Rp5085
(dp5086
g31
(dp5087
sbsbsg33
g110
sg35
g36
sg37
g38
sg39
g40
sg41
(lp5088
g1
(g43
g3
Ntp5089
Rp5090
(dp5091
g47
V303
p5092
sg49
VMawile
p5093
sg51
g52
sg53
V61
p5094
sg55
(lp5095
Vfake-tears
p5096
aViron-defense
p5097
aVsucker-punch
p5098
aViron-head
p5099
asg61
g62
sg63
Vintimidate
p5100
sbag1
(g43
g3
Ntp5101
Rp5102
(dp5103
g47
V530
p5104
sg49
VExcadrill
p5105
sg51
g52
sg53
V61
p5106
sg55
(lp5107
Vmetal-claw
p5108
aVmud-sport
p5109
aVhone-claws
p5110
aVdrill-run
p5111
asg61
g62
sg63
Vsand-force
p5112
sbasg89
I00
sg90
g91
sbag1
(g2
g3
Ntp5113
Rp5114
(dp5115
g7
VSpr B2W2 WorkerIce.png
p5116
sg9
VWorker
p5117
sg11
VMatthew
p5118
sg13
g1
(g14
g3
Ntp5119
Rp5120
(dp5121
g18
g1
(g19
g20
(lp5122
g1
(g22
g3
Ntp5123
Rp5124
(dp5125
g26
V2440
p5126
sbatp5127
Rp5128
(dp5129
g31
(dp5130
sbsbsg33
g34
sg35
g36
sg37
g38
sg39
g40
sg41
(lp5131
g1
(g43
g3
Ntp5132
Rp5133
(dp5134
g47
V364
p5135
sg49
VSealeo
p5136
sg51
g52
sg53
V61
p5137
sg55
(lp5138
Vencore
p5139
aVhail
p5140
aVice-ball
p5141
aVsheer-cold
p5142
asg61
g62
sg63
Vthick-fat
p5143
sbag1
(g43
g3
Ntp5144
Rp5145
(dp5146
g47
V362
p5147
sg49
VGlalie
p5148
sg51
g52
sg53
V61
p5149
sg55
(lp5150
Vcrunch
p5151
aVhail
p5152
aVsheer-cold
p5153
aVice-fang
p5154
asg61
g62
sg63
Vinner-focus
p5155
sbag1
(g43
g3
Ntp5156
Rp5157
(dp5158
g47
V365
p5159
sg49
VWalrein
p5160
sg51
g546
sg53
V76
p5161
sg55
(lp5162
Vhail
p5163
aVice-ball
p5164
aVsheer-cold
p5165
aVice-fang
p5166
asg61
g62
sg63
Vice-body
p5167
sbasg89
I00
sg90
g91
sbag1
(g2
g3
Ntp5168
Rp5169
(dp5170
g7
VSpr B2W2 Youngster.png
p5171
sg9
VYoungster
p5172
sg11
VKevin
p5173
sg13
g1
(g14
g3
Ntp5174
Rp5175
(dp5176
g18
g1
(g19
g20
(lp5177
g1
(g22
g3
Ntp5178
Rp5179
(dp5180
g26
V960
p5181
sbatp5182
Rp5183
(dp5184
g31
(dp5185
sbsbsg33
g34
sg35
g36
sg37
g38
sg39
g40
sg41
(lp5186
g1
(g43
g3
Ntp5187
Rp5188
(dp5189
g47
V048
p5190
sg49
VVenonat
p5191
sg51
g52
sg53
V60
p5192
sg55
(lp5193
Vforesight
p5194
aVpoison-fang
p5195
aVsignal-beam
p5196
aVzen-headbutt
p5197
asg61
g62
sg63
Vtinted-lens
p5198
sbag1
(g43
g3
Ntp5199
Rp5200
(dp5201
g47
V049
p5202
sg49
VVenomoth
p5203
sg51
g52
sg53
V60
p5204
sg55
(lp5205
Vsignal-beam
p5206
aVbug-buzz
p5207
aVzen-headbutt
p5208
aVquiver-dance
p5209
asg61
g62
sg63
Vtinted-lens
p5210
sbag1
(g43
g3
Ntp5211
Rp5212
(dp5213
g47
V020
p5214
sg49
VRaticate
p5215
sg51
g52
sg53
V60
p5216
sg55
(lp5217
Vcrunch
p5218
aVendeavor
p5219
aVassurance
p5220
aVsucker-punch
p5221
asg61
g62
sg63
Vguts
p5222
sbasg89
I00
sg90
g91
sba.