(lp0
ccopy_reg
_reconstructor
p1
(c__main__
Trainer
p2
c__builtin__
object
p3
Ntp4
Rp5
(dp6
VtSprite
p7
VSpr GS Cooltrainer M.png
p8
sVtClass
p9
VCooltrainer
p10
sVtName
p11
VPaul
p12
sVtMoney
p13
V1632
p14
sVtPokeCount
p15
V3
p16
sVtLocation
p17
Vwiki/Blackthorn_Gym
p18
sVtRegion
p19
VJohto
p20
sVtGame
p21
VGS
p22
sVtPokes
p23
(lp24
g1
(c__main__
FinishedPokemon
p25
g3
Ntp26
Rp27
(dp28
VpDexNo
p29
V147
p30
sVpSpecies
p31
VDratini
p32
sVpGender
p33
VM
p34
sVpLevel
p35
V34
p36
sVpMoves
p37
(lp38
Vagility
p39
aVoutrage
p40
aVsafeguard
p41
aVtwister
p42
asVpHold
p43
V
p44
sVpAbility
p45
Vshed-skin
p46
sbag1
(g25
g3
Ntp47
Rp48
(dp49
g29
V147
p50
sg31
VDratini
p51
sg33
g34
sg35
V34
p52
sg37
(lp53
Vagility
p54
aVoutrage
p55
aVsafeguard
p56
aVtwister
p57
asg43
g44
sg45
Vshed-skin
p58
sbag1
(g25
g3
Ntp59
Rp60
(dp61
g29
V147
p62
sg31
VDratini
p63
sg33
g34
sg35
V34
p64
sg37
(lp65
Vagility
p66
aVoutrage
p67
aVsafeguard
p68
aVtwister
p69
asg43
g44
sg45
Vshed-skin
p70
sbasVbossFlag
p71
I00
sVtLongGame
p72
Vgold-silver
p73
sbag1
(g2
g3
Ntp74
Rp75
(dp76
g7
VSpr GS Cooltrainer F.png
p77
sg9
VCooltrainer
p78
sg11
VFran
p79
sg13
V1776
p80
sg15
V1
p81
sg17
g18
sg19
g20
sg21
g22
sg23
(lp82
g1
(g25
g3
Ntp83
Rp84
(dp85
g29
V117
p86
sg31
VSeadra
p87
sg33
VF
p88
sg35
V37
p89
sg37
(lp90
Vsmokescreen
p91
ag91
aVbubble
p92
aVtwister
p93
asg43
g44
sg45
Vpoison-point
p94
sbasg71
I00
sg72
g73
sbag1
(g2
g3
Ntp95
Rp96
(dp97
g7
VSpr GS Cooltrainer M.png
p98
sg9
VCooltrainer
p99
sg11
VCody
p100
sg13
V1728
p101
sg15
V2
p102
sg17
g18
sg19
g20
sg21
g22
sg23
(lp103
g1
(g25
g3
Ntp104
Rp105
(dp106
g29
V116
p107
sg31
VHorsea
p108
sg33
g34
sg35
V34
p109
sg37
(lp110
Vagility
p111
aVsmokescreen
p112
aVbubble
p113
aVtwister
p114
asg43
g44
sg45
Vswift-swim
p115
sbag1
(g25
g3
Ntp116
Rp117
(dp118
g29
V117
p119
sg31
VSeadra
p120
sg33
g34
sg35
V36
p121
sg37
(lp122
Vsmokescreen
p123
ag123
aVbubble
p124
aVtwister
p125
asg43
g44
sg45
Vsniper
p126
sbasg71
I00
sg72
g73
sbag1
(g2
g3
Ntp127
Rp128
(dp129
g7
VSpr GS Cooltrainer M.png
p130
sg9
VCooltrainer
p131
sg11
VMike
p132
sg13
V1776
p133
sg15
g81
sg17
g18
sg19
g20
sg21
g22
sg23
(lp134
g1
(g25
g3
Ntp135
Rp136
(dp137
g29
V148
p138
sg31
VDragonair
p139
sg33
g34
sg35
V37
p140
sg37
(lp141
Voutrage
p142
aVsafeguard
p143
aVtwister
p144
ag144
asg43
g44
sg45
Vshed-skin
p145
sbasg71
I00
sg72
g73
sbag1
(g2
g3
Ntp146
Rp147
(dp148
g7
VSpr GS Cooltrainer F.png
p149
sg9
VCooltrainer
p150
sg11
VLola
p151
sg13
V1728
p152
sg15
g102
sg17
g18
sg19
g20
sg21
g22
sg23
(lp153
g1
(g25
g3
Ntp154
Rp155
(dp156
g29
V147
p157
sg31
VDratini
p158
sg33
g88
sg35
V34
p159
sg37
(lp160
Vagility
p161
aVoutrage
p162
aVsafeguard
p163
aVtwister
p164
asg43
g44
sg45
Vshed-skin
p165
sbag1
(g25
g3
Ntp166
Rp167
(dp168
g29
V148
p169
sg31
VDragonair
p170
sg33
g88
sg35
V36
p171
sg37
(lp172
Voutrage
p173
aVsafeguard
p174
aVtwister
p175
ag175
asg43
g44
sg45
Vshed-skin
p176
sbasg71
I00
sg72
g73
sbag1
(g2
g3
Ntp177
Rp178
(dp179
g7
VSpr HGSS Ace Trainer M.png
p180
sg9
VAce Trainer
p181
sg11
VPaulo
p182
sg13
V2100
p183
sg15
g16
sg17
g18
sg19
g20
sg21
VHGSS
p184
sg23
(lp185
g1
(g25
g3
Ntp186
Rp187
(dp188
g29
V147
p189
sg31
VDratini
p190
sg33
g34
sg35
V35
p191
sg37
(lp192
Vtwister
p193
aVdragon-dance
p194
aVaqua-tail
p195
aVdragon-rush
p196
asg43
g44
sg45
Vshed-skin
p197
sbag1
(g25
g3
Ntp198
Rp199
(dp200
g29
V147
p201
sg31
VDratini
p202
sg33
g34
sg35
V35
p203
sg37
(lp204
Vtwister
p205
aVdragon-dance
p206
aVaqua-tail
p207
aVdragon-rush
p208
asg43
g44
sg45
Vshed-skin
p209
sbag1
(g25
g3
Ntp210
Rp211
(dp212
g29
V117
p213
sg31
VSeadra
p214
sg33
g34
sg35
V35
p215
sg37
(lp216
Vtwister
p217
aVdragon-dance
p218
aVbrine
p219
aVdragon-pulse
p220
asg43
g44
sg45
Vsniper
p221
sbasg71
I00
sg72
Vheartgold-soulsilver
p222
sbag1
(g2
g3
Ntp223
Rp224
(dp225
g7
VSpr HGSS Ace Trainer F.png
p226
sg9
VAce Trainer
p227
sg11
VLola
p228
sg13
V2220
p229
sg15
g102
sg17
g18
sg19
g20
sg21
g184
sg23
(lp230
g1
(g25
g3
Ntp231
Rp232
(dp233
g29
V147
p234
sg31
VDratini
p235
sg33
g88
sg35
V35
p236
sg37
(lp237
Vtwister
p238
aVdragon-dance
p239
aVaqua-tail
p240
aVdragon-rush
p241
asg43
g44
sg45
Vshed-skin
p242
sbag1
(g25
g3
Ntp243
Rp244
(dp245
g29
V148
p246
sg31
VDragonair
p247
sg33
g88
sg35
V37
p248
sg37
(lp249
Vtwister
p250
aVdragon-dance
p251
aVaqua-tail
p252
aVdragon-rush
p253
asg43
g44
sg45
Vshed-skin
p254
sbasg71
I00
sg72
g222
sbag1
(g2
g3
Ntp255
Rp256
(dp257
g7
VSpr HGSS Ace Trainer M.png
p258
sg9
VAce Trainer
p259
sg11
VCody
p260
sg13
V2220
p261
sg15
g102
sg17
g18
sg19
g20
sg21
g184
sg23
(lp262
g1
(g25
g3
Ntp263
Rp264
(dp265
g29
V116
p266
sg31
VHorsea
p267
sg33
g34
sg35
V35
p268
sg37
(lp269
Vtwister
p270
aVdragon-dance
p271
aVbrine
p272
aVdragon-pulse
p273
asg43
g44
sg45
Vswift-swim
p274
sbag1
(g25
g3
Ntp275
Rp276
(dp277
g29
V117
p278
sg31
VSeadra
p279
sg33
g34
sg35
V37
p280
sg37
(lp281
Vtwister
p282
aVdragon-dance
p283
aVbrine
p284
aVdragon-pulse
p285
asg43
g44
sg45
Vsniper
p286
sbasg71
I00
sg72
g222
sbag1
(g2
g3
Ntp287
Rp288
(dp289
g7
VSpr HGSS Ace Trainer F.png
p290
sg9
VAce Trainer
p291
sg11
VFran
p292
sg13
V2280
p293
sg15
g81
sg17
g18
sg19
g20
sg21
g184
sg23
(lp294
g1
(g25
g3
Ntp295
Rp296
(dp297
g29
V117
p298
sg31
VSeadra
p299
sg33
g88
sg35
V38
p300
sg37
(lp301
Vtwister
p302
aVdragon-dance
p303
aVbrine
p304
aVdragon-pulse
p305
asg43
g44
sg45
Vpoison-point
p306
sbasg71
I00
sg72
g222
sbag1
(g2
g3
Ntp307
Rp308
(dp309
g7
VSpr HGSS Ace Trainer M.png
p310
sg9
VAce Trainer
p311
sg11
VMike
p312
sg13
V2280
p313
sg15
g81
sg17
g18
sg19
g20
sg21
g184
sg23
(lp314
g1
(g25
g3
Ntp315
Rp316
(dp317
g29
V148
p318
sg31
VDragonair
p319
sg33
g34
sg35
V38
p320
sg37
(lp321
Vtwister
p322
aVdragon-dance
p323
aVaqua-tail
p324
aVdragon-rush
p325
asg43
g44
sg45
Vshed-skin
p326
sbasg71
I00
sg72
g222
sbag1
(g2
g3
Ntp327
Rp328
(dp329
g7
VSpr GS Clair.png
p330
sg9
VLeader
p331
sg11
VClair
p332
sg13
V4000
p333
sg15
I4
sg17
g18
sg19
g20
sg21
g22
sg23
(lp334
g1
(g25
g3
Ntp335
Rp336
(dp337
g29
I148
sg31
VDragonair
p338
sg33
g88
sg35
V37
p339
sg37
(lp340
VSurf
p341
aVSlam
p342
aVThunder Wave
p343
aVDragonBreath
p344
asg43
g44
sg45
Vshed-skin
p345
sbag1
(g25
g3
Ntp346
Rp347
(dp348
g29
I148
sg31
VDragonair
p349
sg33
g88
sg35
V37
p350
sg37
(lp351
VThunderbolt
p352
aVSlam
p353
aVThunder Wave
p354
aVDragonBreath
p355
asg43
g44
sg45
Vshed-skin
p356
sbag1
(g25
g3
Ntp357
Rp358
(dp359
g29
I148
sg31
VDragonair
p360
sg33
g88
sg35
V37
p361
sg37
(lp362
VIce Beam
p363
aVSlam
p364
aVThunder Wave
p365
aVDragonBreath
p366
asg43
g44
sg45
Vshed-skin
p367
sbag1
(g25
g3
Ntp368
Rp369
(dp370
g29
I230
sg31
VKingdra
p371
sg33
g88
sg35
V40
p372
sg37
(lp373
VSurf
p374
aVDragonBreath
p375
aVSmokeScreen
p376
aVHyper Beam
p377
asg43
g44
sg45
Vsniper
p378
sbasg71
I01
sg72
g73
sbag1
(g2
g3
Ntp379
Rp380
(dp381
g7
VSpr HGSS Clair.png
p382
sg9
VLeader
p383
sg11
VClair
p384
sg13
V4920
p385
sg15
I4
sg17
g18
sg19
g20
sg21
g184
sg23
(lp386
g1
(g25
g3
Ntp387
Rp388
(dp389
g29
I130
sg31
VGyarados
p390
sg33
g88
sg35
V38
p391
sg37
(lp392
VBite
p393
aVTwister
p394
aVDragon Rage
p395
aVDragon Pulse
p396
asg43
g44
sg45
VIntimidate
p397
sbag1
(g25
g3
Ntp398
Rp399
(dp400
g29
I148
sg31
VDragonair
p401
sg33
g88
sg35
V38
p402
sg37
(lp403
VThunder Wave
p404
aVSlam
p405
aVAqua Tail
p406
aVDragon Pulse
p407
asg43
g44
sg45
VShed Skin
p408
sbag1
(g25
g3
Ntp409
Rp410
(dp411
g29
I148
sg31
VDragonair
p412
sg33
g88
sg35
V38
p413
sg37
(lp414
VThunder Wave
p415
aVSlam
p416
aVFire Blast
p417
aVDragon Pulse
p418
asg43
g44
sg45
VShed Skin
p419
sbag1
(g25
g3
Ntp420
Rp421
(dp422
g29
I230
sg31
VKingdra
p423
sg33
g88
sg35
V41
p424
sg37
(lp425
VHydro Pump
p426
aVSmokeScreen
p427
aVHyper Beam
p428
aVDragon Pulse
p429
asg43
VSitrus Berry
p430
sg45
VSniper
p431
sbasg71
I01
sg72
g222
sba.