(lp0
ccopy_reg
_reconstructor
p1
(c__main__
Trainer
p2
c__builtin__
object
p3
Ntp4
Rp5
(dp6
VtSprite
p7
VSpr FRLG Twins.png
p8
sVtClass
p9
VTwins
p10
sVtName
p11
VJoy & Meg
p12
sVtMoney
p13
V888
p14
sVtPokeCount
p15
V2
p16
sVtLocation
p17
Vwiki/Bond_Bridge
p18
sVtRegion
p19
Vlands
p20
sVtGame
p21
VFRLG
p22
sVtPokes
p23
(lp24
g1
(c__main__
FinishedPokemon
p25
g3
Ntp26
Rp27
(dp28
VpDexNo
p29
V035
p30
sVpSpecies
p31
VClefairy
p32
sVpGender
p33
VF
p34
sVpLevel
p35
V37
p36
sVpMoves
p37
(lp38
Vmoonlight
p39
aVfollow-me
p40
aVmeteor-mash
p41
aVcosmic-power
p42
asVpHold
p43
V
p44
sVpAbility
p45
Vmagic-guard
p46
sbag1
(g25
g3
Ntp47
Rp48
(dp49
g29
V035
p50
sg31
VClefairy
p51
sg33
g34
sg35
V37
p52
sg37
(lp53
Vmoonlight
p54
aVfollow-me
p55
aVmeteor-mash
p56
aVcosmic-power
p57
asg43
g44
sg45
Vcute-charm
p58
sbasVbossFlag
p59
I00
sVtLongGame
p60
Vfirered-leafgreen
p61
sbag1
(g2
g3
Ntp62
Rp63
(dp64
g7
VSpr FRLG Aroma Lady.png
p65
sg9
VAroma Lady
p66
sg11
VViolet
p67
sg13
V1008
p68
sg15
V3
p69
sg17
g18
sg19
g20
sg21
g22
sg23
(lp70
g1
(g25
g3
Ntp71
Rp72
(dp73
g29
V001
p74
sg31
VBulbasaur
p75
sg33
VM
p76
sg35
V36
p77
sg37
(lp78
Vpoison-powder
p79
aVsleep-powder
p80
aVsweet-scent
p81
aVsynthesis
p82
asg43
g44
sg45
Vovergrow
p83
sbag1
(g25
g3
Ntp84
Rp85
(dp86
g29
V002
p87
sg31
VIvysaur
p88
sg33
g76
sg35
V36
p89
sg37
(lp90
Vpoison-powder
p91
aVsleep-powder
p92
aVsweet-scent
p93
aVsynthesis
p94
asg43
g44
sg45
Vovergrow
p95
sbag1
(g25
g3
Ntp96
Rp97
(dp98
g29
V002
p99
sg31
VIvysaur
p100
sg33
g76
sg35
V36
p101
sg37
(lp102
Vpoison-powder
p103
aVsleep-powder
p104
aVsweet-scent
p105
aVsynthesis
p106
asg43
g44
sg45
Vovergrow
p107
sbasg59
I00
sg60
g61
sbag1
(g2
g3
Ntp108
Rp109
(dp110
g7
VSpr FRLG Tuber.png
p111
sg9
VTuber
p112
sg11
VAlexis
p113
sg13
V136
p114
sg15
V4
p115
sg17
g18
sg19
g20
sg21
g22
sg23
(lp116
g1
(g25
g3
Ntp117
Rp118
(dp119
g29
V120
p120
sg31
VStaryu
p121
sg33
VU
p122
sg35
V34
p123
sg37
(lp124
Vswift
p125
aVrapid-spin
p126
aVcamouflage
p127
aVcosmic-power
p128
asg43
g44
sg45
Villuminate
p129
sbag1
(g25
g3
Ntp130
Rp131
(dp132
g29
V120
p133
sg31
VStaryu
p134
sg33
g122
sg35
V34
p135
sg37
(lp136
Vswift
p137
aVrapid-spin
p138
aVcamouflage
p139
aVcosmic-power
p140
asg43
g44
sg45
Vnatural-cure
p141
sbag1
(g25
g3
Ntp142
Rp143
(dp144
g29
V098
p145
sg31
VKrabby
p146
sg33
g76
sg35
V34
p147
sg37
(lp148
Vcrabhammer
p149
aVflail
p150
aVprotect
p151
aVmud-shot
p152
asg43
g44
sg45
Vhyper-cutter
p153
sbag1
(g25
g3
Ntp154
Rp155
(dp156
g29
V098
p157
sg31
VKrabby
p158
sg33
g76
sg35
V34
p159
sg37
(lp160
Vcrabhammer
p161
aVflail
p162
aVprotect
p163
aVmud-shot
p164
asg43
g44
sg45
Vshell-armor
p165
sbasg59
I00
sg60
g61
sbag1
(g2
g3
Ntp166
Rp167
(dp168
g7
VSpr FRLG Swimmer F.png
p169
sg9
VSwimmer\u2640
p170
sg11
VTisha
p171
sg13
V152<br><small>Requires {{m|Surf}}</small>
p172
sg15
V1
p173
sg17
g18
sg19
g20
sg21
g22
sg23
(lp174
g1
(g25
g3
Ntp175
Rp176
(dp177
g29
V099
p178
sg31
VKingler
p179
sg33
g34
sg35
V38
p180
sg37
(lp181
Vflail
p182
aVprotect
p183
aVmetal-claw
p184
aVmud-shot
p185
asg43
g44
sg45
Vshell-armor
p186
sbasg59
I00
sg60
g61
sbag1
(g2
g3
Ntp187
Rp188
(dp189
g7
VSpr FRLG Tuber.png
p190
sg9
VTuber
p191
sg11
VAmira
p192
sg13
V136
p193
sg15
g69
sg17
g18
sg19
g20
sg21
g22
sg23
(lp194
g1
(g25
g3
Ntp195
Rp196
(dp197
g29
V060
p198
sg31
VPoliwag
p199
sg33
g76
sg35
V34
p200
sg37
(lp201
Vhypnosis
p202
aVbubble
p203
aVbelly-drum
p204
aVrain-dance
p205
asg43
g44
sg45
Vdamp
p206
sbag1
(g25
g3
Ntp207
Rp208
(dp209
g29
V061
p210
sg31
VPoliwhirl
p211
sg33
g76
sg35
V35
p212
sg37
(lp213
Vhypnosis
p214
aVbubble
p215
aVbelly-drum
p216
aVrain-dance
p217
asg43
g44
sg45
Vwater-absorb
p218
sbag1
(g25
g3
Ntp219
Rp220
(dp221
g29
V060
p222
sg31
VPoliwag
p223
sg33
g76
sg35
V34
p224
sg37
(lp225
Vhypnosis
p226
aVbubble
p227
aVbelly-drum
p228
aVrain-dance
p229
asg43
g44
sg45
Vwater-absorb
p230
sbasg59
I00
sg60
g61
sbag1
(g2
g3
Ntp231
Rp232
(dp233
g7
VSpr FRLG Aroma Lady.png
p234
sg9
VAroma Lady
p235
sg11
VNikki
p236
sg13
V1036
p237
sg15
g16
sg17
g18
sg19
g20
sg21
g22
sg23
(lp238
g1
(g25
g3
Ntp239
Rp240
(dp241
g29
V069
p242
sg31
VBellsprout
p243
sg33
g34
sg35
V37
p244
sg37
(lp245
Vpoison-powder
p246
aVstun-spore
p247
aVsleep-powder
p248
aVsweet-scent
p249
asg43
g44
sg45
Vchlorophyll
p250
sbag1
(g25
g3
Ntp251
Rp252
(dp253
g29
V070
p254
sg31
VWeepinbell
p255
sg33
g34
sg35
V37
p256
sg37
(lp257
Vpoison-powder
p258
aVstun-spore
p259
aVsleep-powder
p260
aVsweet-scent
p261
asg43
g44
sg45
Vchlorophyll
p262
sbasg59
I00
sg60
g61
sbag1
(g2
g3
Ntp263
Rp264
(dp265
g7
VSpr FRLG Twins.png
p266
sg9
VTwins
p267
sg11
VJoy & Meg
p268
sg13
V1176
p269
sg15
g16
sg17
g18
sg19
g20
sg21
g22
sg23
(lp270
g1
(g25
g3
Ntp271
Rp272
(dp273
g29
V035
p274
sg31
VClefairy
p275
sg33
g34
sg35
V49
p276
sg37
(lp277
Vmoonlight
p278
aVfollow-me
p279
aVmeteor-mash
p280
aVcosmic-power
p281
asg43
g44
sg45
Vmagic-guard
p282
sbag1
(g25
g3
Ntp283
Rp284
(dp285
g29
V035
p286
sg31
VClefairy
p287
sg33
g34
sg35
V49
p288
sg37
(lp289
Vmoonlight
p290
aVfollow-me
p291
aVmeteor-mash
p292
aVcosmic-power
p293
asg43
g44
sg45
Vmagic-guard
p294
sbasg59
I00
sg60
g61
sbag1
(g2
g3
Ntp295
Rp296
(dp297
g7
VSpr FRLG Tuber.png
p298
sg9
VTuber
p299
sg11
VAmira
p300
sg13
V188
p301
sg15
g69
sg17
g18
sg19
g20
sg21
g22
sg23
(lp302
g1
(g25
g3
Ntp303
Rp304
(dp305
g29
V061
p306
sg31
VPoliwhirl
p307
sg33
g76
sg35
V47
p308
sg37
(lp309
Vhypnosis
p310
aVbubble
p311
aVbelly-drum
p312
aVrain-dance
p313
asg43
g44
sg45
Vwater-absorb
p314
sbag1
(g25
g3
Ntp315
Rp316
(dp317
g29
V061
p318
sg31
VPoliwhirl
p319
sg33
g76
sg35
V47
p320
sg37
(lp321
Vhypnosis
p322
aVbubble
p323
aVbelly-drum
p324
aVrain-dance
p325
asg43
g44
sg45
Vdamp
p326
sbag1
(g25
g3
Ntp327
Rp328
(dp329
g29
V061
p330
sg31
VPoliwhirl
p331
sg33
g76
sg35
V47
p332
sg37
(lp333
Vhypnosis
p334
aVbubble
p335
aVbelly-drum
p336
aVrain-dance
p337
asg43
g44
sg45
Vwater-absorb
p338
sbasg59
I00
sg60
g61
sba.