(lp0
ccopy_reg
_reconstructor
p1
(c__main__
Trainer
p2
c__builtin__
object
p3
Ntp4
Rp5
(dp6
VtSprite
p7
VSpr GS Firebreather.png
p8
sVtClass
p9
VFirebreather
p10
sVtName
p11
VNed{{sup/2|GS}}
p12
sVtMoney
p13
V720
p14
sVtPokeCount
p15
V3
p16
sVtLocation
p17
Vwiki/Burned_Tower
p18
sVtRegion
p19
VJohto
p20
sVtGame
p21
VGS
p22
sVtPokes
p23
(lp24
g1
(c__main__
FinishedPokemon
p25
g3
Ntp26
Rp27
(dp28
VpDexNo
p29
V109
p30
sVpSpecies
p31
VKoffing
p32
sVpGender
p33
VM
p34
sVpLevel
p35
V15
p36
sVpMoves
p37
(lp38
Vsludge
p39
aVpoison-gas
p40
aVexplosion
p41
aVdestiny-bond
p42
asVpHold
p43
V
p44
sVpAbility
p45
Vlevitate
p46
sbag1
(g25
g3
Ntp47
Rp48
(dp49
g29
V109
p50
sg31
VKoffing
p51
sg33
g34
sg35
V15
p52
sg37
(lp53
Vsludge
p54
aVpoison-gas
p55
aVexplosion
p56
aVdestiny-bond
p57
asg43
g44
sg45
Vlevitate
p58
sbag1
(g25
g3
Ntp59
Rp60
(dp61
g29
V058
p62
sg31
VGrowlithe
p63
sg33
g34
sg35
V16
p64
sg37
(lp65
Vember
p66
aVflamethrower
p67
aVagility
p68
aVflame-wheel
p69
asg43
g44
sg45
Vintimidate
p70
sbasVbossFlag
p71
I00
sVtLongGame
p72
Vgold-silver
p73
sbag1
(g2
g3
Ntp74
Rp75
(dp76
g7
VSpr GS Firebreather.png
p77
sg9
VFirebreather
p78
sg11
VDick{{sup/2|GS}}
p79
sg13
V816
p80
sg15
V1
p81
sg17
g18
sg19
g20
sg21
g22
sg23
(lp82
g1
(g25
g3
Ntp83
Rp84
(dp85
g29
V005
p86
sg31
VCharmeleon
p87
sg33
g34
sg35
V17
p88
sg37
(lp89
Vrage
p90
aVsmokescreen
p91
aVslash
p92
aVscary-face
p93
asg43
g44
sg45
Vblaze
p94
sbasg71
I00
sg72
g73
sbag1
(g2
g3
Ntp95
Rp96
(dp97
g7
VSpr HGSS Firebreather.png
p98
sg9
VFirebreather
p99
sg11
VNed
p100
sg13
V512
p101
sg15
g16
sg17
g18
sg19
g20
sg21
VHGSS
p102
sg23
(lp103
g1
(g25
g3
Ntp104
Rp105
(dp106
g29
V109
p107
sg31
VKoffing
p108
sg33
g34
sg35
V16
p109
sg37
(lp110
Vdestiny-bond
p111
aVmemento
p112
aVgyro-ball
p113
aVassurance
p114
asg43
g44
sg45
Vlevitate
p115
sbag1
(g25
g3
Ntp116
Rp117
(dp118
g29
V058
p119
sg31
VGrowlithe
p120
sg33
g34
sg35
V17
p121
sg37
(lp122
Vhelping-hand
p123
aVodor-sleuth
p124
aVflare-blitz
p125
aVfire-fang
p126
asg43
g44
sg45
Vflash-fire
p127
sbag1
(g25
g3
Ntp128
Rp129
(dp130
g29
V109
p131
sg31
VKoffing
p132
sg33
g34
sg35
V16
p133
sg37
(lp134
Vdestiny-bond
p135
aVmemento
p136
aVgyro-ball
p137
aVassurance
p138
asg43
g44
sg45
Vlevitate
p139
sbasg71
I00
sg72
Vheartgold-soulsilver
p140
sbag1
(g2
g3
Ntp141
Rp142
(dp143
g7
VSpr HGSS Firebreather.png
p144
sg9
VFirebreather
p145
sg11
VRichard
p146
sg13
V576
p147
sg15
g81
sg17
g18
sg19
g20
sg21
g102
sg23
(lp148
g1
(g25
g3
Ntp149
Rp150
(dp151
g29
V005
p152
sg31
VCharmeleon
p153
sg33
g34
sg35
V18
p154
sg37
(lp155
Vsmokescreen
p156
aVslash
p157
aVscary-face
p158
aVfire-fang
p159
asg43
g44
sg45
Vblaze
p160
sbasg71
I00
sg72
g140
sbag1
(g2
g3
Ntp161
Rp162
(dp163
g7
VSpr GS Silver 1.png
p164
sg9
VLeader
p165
sg11
VSilver (game)
p166
sg13
V1320
p167
sg15
I4
sg17
g18
sg19
g20
sg21
g22
sg23
(lp168
g1
(g25
g3
Ntp169
Rp170
(dp171
g29
I93
sg31
VHaunter
p172
sg33
g34
sg35
V20
p173
sg37
(lp174
VLick
p175
aVSpite
p176
aVMean Look
p177
aVCurse
p178
asg43
g44
sg45
Vlevitate
p179
sbag1
(g25
g3
Ntp180
Rp181
(dp182
g29
I41
sg31
VZubat
p183
sg33
g34
sg35
V20
p184
sg37
(lp185
VLeech Life
p186
aVSupersonic
p187
aVBite
p188
aVConfuse Ray
p189
asg43
g44
sg45
Vinner-focus
p190
sbag1
(g25
g3
Ntp191
Rp192
(dp193
g29
I81
sg31
VMagnemite
p194
sg33
VU
p195
sg35
V18
p196
sg37
(lp197
VTackle
p198
aVThunderShock
p199
aVSupersonic
p200
aVSonicBoom
p201
asg43
g44
sg45
Vmagnet-pull
p202
sbag1
(g25
g3
Ntp203
Rp204
(dp205
g29
I156
sg31
VQuilava
p206
sg33
g34
sg35
V22
p207
sg37
(lp208
VEmber
p209
aVLeer
p210
aVQuick Attack
p211
aVSmokeScreen
p212
asg43
g44
sg45
Vblaze
p213
sbasg71
I01
sg72
g73
sbag1
(g2
g3
Ntp214
Rp215
(dp216
g7
VSpr GS Silver 1.png
p217
sg9
g165
sg11
VSilver (game)
p218
sg13
V1320
p219
sg15
I4
sg17
g18
sg19
g20
sg21
g22
sg23
(lp220
g1
(g25
g3
Ntp221
Rp222
(dp223
g29
I93
sg31
VHaunter
p224
sg33
g34
sg35
V20
p225
sg37
(lp226
VLick
p227
aVSpite
p228
aVMean Look
p229
aVCurse
p230
asg43
g44
sg45
Vlevitate
p231
sbag1
(g25
g3
Ntp232
Rp233
(dp234
g29
I41
sg31
VZubat
p235
sg33
g34
sg35
V20
p236
sg37
(lp237
VLeech Life
p238
aVSupersonic
p239
aVBite
p240
aVConfuse Ray
p241
asg43
g44
sg45
Vinner-focus
p242
sbag1
(g25
g3
Ntp243
Rp244
(dp245
g29
I81
sg31
VMagnemite
p246
sg33
g195
sg35
V18
p247
sg37
(lp248
VTackle
p249
aVThunderShock
p250
aVSupersonic
p251
aVSonicBoom
p252
asg43
g44
sg45
Vsturdy
p253
sbag1
(g25
g3
Ntp254
Rp255
(dp256
g29
I159
sg31
VCroconaw
p257
sg33
g34
sg35
V22
p258
sg37
(lp259
VWater Gun
p260
aVLeer
p261
aVBite
p262
aVRage
p263
asg43
g44
sg45
Vtorrent
p264
sbasg71
I01
sg72
g73
sbag1
(g2
g3
Ntp265
Rp266
(dp267
g7
VSpr GS Silver 1.png
p268
sg9
g165
sg11
VSilver (game)
p269
sg13
V1320
p270
sg15
I4
sg17
g18
sg19
g20
sg21
g22
sg23
(lp271
g1
(g25
g3
Ntp272
Rp273
(dp274
g29
I93
sg31
VHaunter
p275
sg33
g34
sg35
V20
p276
sg37
(lp277
VLick
p278
aVSpite
p279
aVMean Look
p280
aVCurse
p281
asg43
g44
sg45
Vlevitate
p282
sbag1
(g25
g3
Ntp283
Rp284
(dp285
g29
I41
sg31
VZubat
p286
sg33
g34
sg35
V20
p287
sg37
(lp288
VLeech Life
p289
aVSupersonic
p290
aVBite
p291
aVConfuse Ray
p292
asg43
g44
sg45
Vinner-focus
p293
sbag1
(g25
g3
Ntp294
Rp295
(dp296
g29
I81
sg31
VMagnemite
p297
sg33
g195
sg35
V18
p298
sg37
(lp299
VTackle
p300
aVThunderShock
p301
aVSupersonic
p302
aVSonicBoom
p303
asg43
g44
sg45
Vmagnet-pull
p304
sbag1
(g25
g3
Ntp305
Rp306
(dp307
g29
I153
sg31
VBayleef
p308
sg33
g34
sg35
V22
p309
sg37
(lp310
VRazor Leaf
p311
aVGrowl
p312
aVPoisonPowder
p313
aVReflect
p314
asg43
g44
sg45
Vovergrow
p315
sbasg71
I01
sg72
g73
sbag1
(g2
g3
Ntp316
Rp317
(dp318
g7
VSpr HGSS Silver.png
p319
sg9
VRival
p320
sg11
VSilver (game)
p321
sg13
V1408
p322
sg15
I4
sg17
g18
sg19
g20
sg21
g102
sg23
(lp323
g1
(g25
g3
Ntp324
Rp325
(dp326
g29
I92
sg31
VGastly
p327
sg33
g34
sg35
V20
p328
sg37
(lp329
VLick
p330
aVConfuse Ray
p331
aVMean Look
p332
aVCurse
p333
asg43
g44
sg45
VLevitate
p334
sbag1
(g25
g3
Ntp335
Rp336
(dp337
g29
I41
sg31
VZubat
p338
sg33
g34
sg35
V20
p339
sg37
(lp340
VWing Attack
p341
aVSupersonic
p342
aVAstonish
p343
aVBite
p344
asg43
g44
sg45
VInner Focus
p345
sbag1
(g25
g3
Ntp346
Rp347
(dp348
g29
I81
sg31
VMagnemite
p349
sg33
g195
sg35
V18
p350
sg37
(lp351
VThunderShock
p352
aVSupersonic
p353
aVSonicBoom
p354
aVThunder Wave
p355
asg43
g44
sg45
VMagnet Pull
p356
sbag1
(g25
g3
Ntp357
Rp358
(dp359
g29
I156
sg31
VQuilava
p360
sg33
g34
sg35
V22
p361
sg37
(lp362
VFlame Wheel
p363
aVSmokeScreen
p364
aVEmber
p365
aVQuick Attack
p366
asg43
g44
sg45
VBlaze
p367
sbasg71
I01
sg72
g140
sbag1
(g2
g3
Ntp368
Rp369
(dp370
g7
VSpr HGSS Silver.png
p371
sg9
VRival
p372
sg11
VSilver (game)
p373
sg13
V1408
p374
sg15
I4
sg17
g18
sg19
g20
sg21
g102
sg23
(lp375
g1
(g25
g3
Ntp376
Rp377
(dp378
g29
I92
sg31
VGastly
p379
sg33
g34
sg35
V20
p380
sg37
(lp381
VLick
p382
aVConfuse Ray
p383
aVMean Look
p384
aVCurse
p385
asg43
g44
sg45
VLevitate
p386
sbag1
(g25
g3
Ntp387
Rp388
(dp389
g29
I41
sg31
VZubat
p390
sg33
g34
sg35
V20
p391
sg37
(lp392
VWing Attack
p393
aVSupersonic
p394
aVAstonish
p395
aVBite
p396
asg43
g44
sg45
VInner Focus
p397
sbag1
(g25
g3
Ntp398
Rp399
(dp400
g29
I81
sg31
VMagnemite
p401
sg33
g195
sg35
V18
p402
sg37
(lp403
VThunderShock
p404
aVSupersonic
p405
aVSonicBoom
p406
aVThunder Wave
p407
asg43
g44
sg45
VMagnet Pull
p408
sbag1
(g25
g3
Ntp409
Rp410
(dp411
g29
I159
sg31
VCroconaw
p412
sg33
g34
sg35
V22
p413
sg37
(lp414
VWater Gun
p415
aVScary Face
p416
aVIce Fang
p417
aVBite
p418
asg43
g44
sg45
VTorrent
p419
sbasg71
I01
sg72
g140
sbag1
(g2
g3
Ntp420
Rp421
(dp422
g7
VSpr HGSS Silver.png
p423
sg9
VRival
p424
sg11
VSilver (game)
p425
sg13
V1408
p426
sg15
I4
sg17
g18
sg19
g20
sg21
g102
sg23
(lp427
g1
(g25
g3
Ntp428
Rp429
(dp430
g29
I92
sg31
VGastly
p431
sg33
g34
sg35
V20
p432
sg37
(lp433
VLick
p434
aVConfuse Ray
p435
aVMean Look
p436
aVCurse
p437
asg43
g44
sg45
VLevitate
p438
sbag1
(g25
g3
Ntp439
Rp440
(dp441
g29
I41
sg31
VZubat
p442
sg33
g34
sg35
V20
p443
sg37
(lp444
VWing Attack
p445
aVSupersonic
p446
aVAstonish
p447
aVBite
p448
asg43
g44
sg45
VInner Focus
p449
sbag1
(g25
g3
Ntp450
Rp451
(dp452
g29
I81
sg31
VMagnemite
p453
sg33
g195
sg35
V18
p454
sg37
(lp455
VThunderShock
p456
aVSupersonic
p457
aVSonicBoom
p458
aVThunder Wave
p459
asg43
g44
sg45
VMagnet Pull
p460
sbag1
(g25
g3
Ntp461
Rp462
(dp463
g29
I153
sg31
VBayleef
p464
sg33
g34
sg35
V22
p465
sg37
(lp466
VReflect
p467
aVMagical Leaf
p468
aVPoisonPowder
p469
aVSynthesis
p470
asg43
g44
sg45
VOvergrow
p471
sbasg71
I01
sg72
g140
sba.