(lp0
ccopy_reg
_reconstructor
p1
(c__main__
Trainer
p2
c__builtin__
object
p3
Ntp4
Rp5
(dp6
VtSprite
p7
VSpr DP Waitress.png
p8
sVtClass
p9
VWaitress
p10
sVtName
p11
VKati
p12
sVtMoney
p13
V704
p14
sVtPokeCount
p15
V1
p16
sVtLocation
p17
Vwiki/Caf%C3%A9_Cabin
p18
sVtRegion
p19
VSinnoh
p20
sVtGame
p21
VDP
p22
sVtPokes
p23
(lp24
g1
(c__main__
FinishedPokemon
p25
g3
Ntp26
Rp27
(dp28
VpDexNo
p29
V035
p30
sVpSpecies
p31
VClefairy
p32
sVpGender
p33
VF
p34
sVpLevel
p35
V22
p36
sVpMoves
p37
(lp38
Vgravity
p39
aVwake-up-slap
p40
aVhealing-wish
p41
aVlucky-chant
p42
asVpHold
p43
V
p44
sVpAbility
p45
Vmagic-guard
p46
sbasVbossFlag
p47
I00
sVtLongGame
p48
Vdiamond-pearl
p49
sbag1
(g2
g3
Ntp50
Rp51
(dp52
g7
VSpr DP Collector.png
p53
sg9
VCollector
p54
sg11
VFernando
p55
sg13
V1280
p56
sg15
V3
p57
sg17
g18
sg19
g20
sg21
g22
sg23
(lp58
g1
(g25
g3
Ntp59
Rp60
(dp61
g29
V122
p62
sg31
VMr. Mime
p63
sg33
VM
p64
sg35
V17
p65
sg37
(lp66
Vmagical-leaf
p67
aVcopycat
p68
aVpower-swap
p69
aVguard-swap
p70
asg43
g44
sg45
Vfilter
p71
sbag1
(g25
g3
Ntp72
Rp73
(dp74
g29
V122
p75
sg31
VMr. Mime
p76
sg33
g64
sg35
V20
p77
sg37
(lp78
Vmagical-leaf
p79
aVcopycat
p80
aVpower-swap
p81
aVguard-swap
p82
asg43
g44
sg45
Vfilter
p83
sbag1
(g25
g3
Ntp84
Rp85
(dp86
g29
V122
p87
sg31
VMr. Mime
p88
sg33
g64
sg35
V20
p89
sg37
(lp90
Vmagical-leaf
p91
aVcopycat
p92
aVpower-swap
p93
aVguard-swap
p94
asg43
g44
sg45
Vsoundproof
p95
sbasg47
I00
sg48
g49
sbag1
(g2
g3
Ntp96
Rp97
(dp98
g7
VSpr DP Collector.png
p99
sg9
VCollector
p100
sg11
VEdwin
p101
sg13
V1216
p102
sg15
g57
sg17
g18
sg19
g20
sg21
g22
sg23
(lp103
g1
(g25
g3
Ntp104
Rp105
(dp106
g29
V185
p107
sg31
VSudowoodo
p108
sg33
g64
sg35
V19
p109
sg37
(lp110
Vhammer-arm
p111
aVcopycat
p112
aVsucker-punch
p113
aVwood-hammer
p114
asg43
g44
sg45
Vrock-head
p115
sbag1
(g25
g3
Ntp116
Rp117
(dp118
g29
V185
p119
sg31
VSudowoodo
p120
sg33
g64
sg35
V19
p121
sg37
(lp122
Vhammer-arm
p123
aVcopycat
p124
aVsucker-punch
p125
aVwood-hammer
p126
asg43
g44
sg45
Vsturdy
p127
sbag1
(g25
g3
Ntp128
Rp129
(dp130
g29
V185
p131
sg31
VSudowoodo
p132
sg33
g64
sg35
V19
p133
sg37
(lp134
Vhammer-arm
p135
aVcopycat
p136
aVsucker-punch
p137
aVwood-hammer
p138
asg43
g44
sg45
Vrock-head
p139
sbasg47
I00
sg48
g49
sbag1
(g2
g3
Ntp140
Rp141
(dp142
g7
VSpr DP Waitress.png
p143
sg9
VWaitress
p144
sg11
VKati
p145
sg13
V800
p146
sg15
g16
sg17
g18
sg19
g20
sg21
g22
sg23
(lp147
g1
(g25
g3
Ntp148
Rp149
(dp150
g29
V035
p151
sg31
VClefairy
p152
sg33
g34
sg35
V25
p153
sg37
(lp154
Vgravity
p155
aVwake-up-slap
p156
aVhealing-wish
p157
aVlucky-chant
p158
asg43
g44
sg45
Vcute-charm
p159
sbasg47
I00
sg48
g49
sbag1
(g2
g3
Ntp160
Rp161
(dp162
g7
VSpr DP Collector.png
p163
sg9
VCollector
p164
sg11
VEdwin
p165
sg13
V1600
p166
sg15
g16
sg17
g18
sg19
g20
sg21
g22
sg23
(lp167
g1
(g25
g3
Ntp168
Rp169
(dp170
g29
V446
p171
sg31
VMunchlax
p172
sg33
g64
sg35
V25
p173
sg37
(lp174
Vodor-sleuth
p175
aVnatural-gift
p176
aVfling
p177
aVlast-resort
p178
asg43
g44
sg45
Vthick-fat
p179
sbasg47
I00
sg48
g49
sbag1
(g2
g3
Ntp180
Rp181
(dp182
g7
VSpr DP Collector.png
p183
sg9
VCollector
p184
sg11
VFernando
p185
sg13
V1600
p186
sg15
g16
sg17
g18
sg19
g20
sg21
g22
sg23
(lp187
g1
(g25
g3
Ntp188
Rp189
(dp190
g29
V214
p191
sg31
VHeracross
p192
sg33
g64
sg35
V25
p193
sg37
(lp194
Vaerial-ace
p195
aVfeint
p196
aVclose-combat
p197
aVnight-slash
p198
asg43
g44
sg45
Vguts
p199
sbasg47
I00
sg48
g49
sba.