(lp0
ccopy_reg
_reconstructor
p1
(c__main__
Trainer
p2
c__builtin__
object
p3
Ntp4
Rp5
(dp6
VtSprite
p7
VSpr DP Black Belt.png
p8
sVtClass
p9
VBlack Belt
p10
sVtName
p11
VRicky
p12
sVtMoney
p13
V792
p14
sVtPokeCount
p15
V1
p16
sVtLocation
p17
Vwiki/Canalave_Gym
p18
sVtRegion
p19
VSinnoh
p20
sVtGame
p21
VDP
p22
sVtPokes
p23
(lp24
g1
(c__main__
FinishedPokemon
p25
g3
Ntp26
Rp27
(dp28
VpDexNo
p29
V208
p30
sVpSpecies
p31
VSteelix
p32
sVpGender
p33
VM
p34
sVpLevel
p35
V33
p36
sVpMoves
p37
(lp38
Vthunder-fang
p39
aVice-fang
p40
aVfire-fang
p41
aVstone-edge
p42
asVpHold
p43
V
p44
sVpAbility
p45
Vsturdy
p46
sbasVbossFlag
p47
I00
sVtLongGame
p48
Vdiamond-pearl
p49
sbag1
(g2
g3
Ntp50
Rp51
(dp52
g7
VSpr DP Worker.png
p53
sg9
VWorker
p54
sg11
VGary
p55
sg13
V1240
p56
sg15
g16
sg17
g18
sg19
g20
sg21
g22
sg23
(lp57
g1
(g25
g3
Ntp58
Rp59
(dp60
g29
V095
p61
sg31
VOnix
p62
sg33
g34
sg35
V31
p63
sg37
(lp64
Vrock-tomb
p65
aVsand-tomb
p66
aVrock-polish
p67
aVstone-edge
p68
asg43
g44
sg45
Vrock-head
p69
sbasg47
I00
sg48
g49
sbag1
(g2
g3
Ntp70
Rp71
(dp72
g7
VSpr DP Worker.png
p73
sg9
VWorker
p74
sg11
VJackson
p75
sg13
V1120
p76
sg15
V3
p77
sg17
g18
sg19
g20
sg21
g22
sg23
(lp78
g1
(g25
g3
Ntp79
Rp80
(dp81
g29
V095
p82
sg31
VOnix
p83
sg33
g34
sg35
V28
p84
sg37
(lp85
Vrock-tomb
p86
aVsand-tomb
p87
aVrock-polish
p88
aVstone-edge
p89
asg43
g44
sg45
Vsturdy
p90
sbag1
(g25
g3
Ntp91
Rp92
(dp93
g29
V095
p94
sg31
VOnix
p95
sg33
g34
sg35
V28
p96
sg37
(lp97
Vrock-tomb
p98
aVsand-tomb
p99
aVrock-polish
p100
aVstone-edge
p101
asg43
g44
sg45
Vrock-head
p102
sbag1
(g25
g3
Ntp103
Rp104
(dp105
g29
V095
p106
sg31
VOnix
p107
sg33
g34
sg35
V28
p108
sg37
(lp109
Vrock-tomb
p110
aVsand-tomb
p111
aVrock-polish
p112
aVstone-edge
p113
asg43
g44
sg45
Vsturdy
p114
sbasg47
I00
sg48
g49
sbag1
(g2
g3
Ntp115
Rp116
(dp117
g7
VSpr DP Ace Trainer M 1.png
p118
sg9
VAce Trainer
p119
sg11
VCesar
p120
sg13
V1920
p121
sg15
V2
p122
sg17
g18
sg19
g20
sg21
g22
sg23
(lp123
g1
(g25
g3
Ntp124
Rp125
(dp126
g29
V451
p127
sg31
VSkorupi
p128
sg33
g34
sg35
V30
p129
sg37
(lp130
Vpoison-fang
p131
aVacupressure
p132
aVtoxic-spikes
p133
aVcross-poison
p134
asg43
g44
sg45
Vbattle-armor
p135
sbag1
(g25
g3
Ntp136
Rp137
(dp138
g29
V208
p139
sg31
VSteelix
p140
sg33
g34
sg35
V32
p141
sg37
(lp142
Vthunder-fang
p143
aVice-fang
p144
aVfire-fang
p145
aVstone-edge
p146
asg43
g44
sg45
Vrock-head
p147
sbasg47
I00
sg48
g49
sbag1
(g2
g3
Ntp148
Rp149
(dp150
g7
VSpr DP Worker.png
p151
sg9
VWorker
p152
sg11
VGerardo
p153
sg13
V1160
p154
sg15
g122
sg17
g18
sg19
g20
sg21
g22
sg23
(lp155
g1
(g25
g3
Ntp156
Rp157
(dp158
g29
V095
p159
sg31
VOnix
p160
sg33
g34
sg35
V29
p161
sg37
(lp162
Vrock-tomb
p163
aVsand-tomb
p164
aVrock-polish
p165
aVstone-edge
p166
asg43
g44
sg45
Vsturdy
p167
sbag1
(g25
g3
Ntp168
Rp169
(dp170
g29
V095
p171
sg31
VOnix
p172
sg33
g34
sg35
V29
p173
sg37
(lp174
Vrock-tomb
p175
aVsand-tomb
p176
aVrock-polish
p177
aVstone-edge
p178
asg43
g44
sg45
Vsturdy
p179
sbasg47
I00
sg48
g49
sbag1
(g2
g3
Ntp180
Rp181
(dp182
g7
VSpr DP Black Belt.png
p183
sg9
VBlack Belt
p184
sg11
VDavid
p185
sg13
V768
p186
sg15
g122
sg17
g18
sg19
g20
sg21
g22
sg23
(lp187
g1
(g25
g3
Ntp188
Rp189
(dp190
g29
V095
p191
sg31
VOnix
p192
sg33
g34
sg35
V30
p193
sg37
(lp194
Vrock-tomb
p195
aVsand-tomb
p196
aVrock-polish
p197
aVstone-edge
p198
asg43
g44
sg45
Vsturdy
p199
sbag1
(g25
g3
Ntp200
Rp201
(dp202
g29
V208
p203
sg31
VSteelix
p204
sg33
g34
sg35
V32
p205
sg37
(lp206
Vthunder-fang
p207
aVice-fang
p208
aVfire-fang
p209
aVstone-edge
p210
asg43
g44
sg45
Vrock-head
p211
sbasg47
I00
sg48
g49
sbag1
(g2
g3
Ntp212
Rp213
(dp214
g7
VSpr DP Ace Trainer F 1.png
p215
sg9
VAce Trainer
p216
sg11
VBreanna
p217
sg13
V1980
p218
sg15
g16
sg17
g18
sg19
g20
sg21
g22
sg23
(lp219
g1
(g25
g3
Ntp220
Rp221
(dp222
g29
V184
p223
sg31
VAzumarill
p224
sg33
VF
p225
sg35
V33
p226
sg37
(lp227
Vrollout
p228
aVrain-dance
p229
aVaqua-ring
p230
aVaqua-tail
p231
asg43
g44
sg45
Vhuge-power
p232
sbasg47
I00
sg48
g49
sbag1
(g2
g3
Ntp233
Rp234
(dp235
g7
VSpr DP Black Belt.png
p236
sg9
VBlack Belt
p237
sg11
VRicky
p238
sg13
V912
p239
sg15
g16
sg17
g18
sg19
g20
sg21
g22
sg23
(lp240
g1
(g25
g3
Ntp241
Rp242
(dp243
g29
V208
p244
sg31
VSteelix
p245
sg33
g34
sg35
V38
p246
sg37
(lp247
Vthunder-fang
p248
aVice-fang
p249
aVfire-fang
p250
aVstone-edge
p251
asg43
g44
sg45
Vrock-head
p252
sbasg47
I00
sg48
g49
sbag1
(g2
g3
Ntp253
Rp254
(dp255
g7
VSpr DP Worker.png
p256
sg9
VWorker
p257
sg11
VGary
p258
sg13
V1480
p259
sg15
g16
sg17
g18
sg19
g20
sg21
g22
sg23
(lp260
g1
(g25
g3
Ntp261
Rp262
(dp263
g29
V081
p264
sg31
VMagnemite
p265
sg33
VU
p266
sg35
V37
p267
sg37
(lp268
Vmagnet-rise
p269
aVmirror-shot
p270
aVdischarge
p271
aVmagnet-bomb
p272
asg43
g44
sg45
Vmagnet-pull
p273
sbasg47
I00
sg48
g49
sbag1
(g2
g3
Ntp274
Rp275
(dp276
g7
VSpr DP Worker.png
p277
sg9
VWorker
p278
sg11
VJackson
p279
sg13
V1360
p280
sg15
g77
sg17
g18
sg19
g20
sg21
g22
sg23
(lp281
g1
(g25
g3
Ntp282
Rp283
(dp284
g29
V081
p285
sg31
VMagnemite
p286
sg33
g266
sg35
V34
p287
sg37
(lp288
Vmagnet-rise
p289
aVmirror-shot
p290
aVdischarge
p291
aVmagnet-bomb
p292
asg43
g44
sg45
Vmagnet-pull
p293
sbag1
(g25
g3
Ntp294
Rp295
(dp296
g29
V081
p297
sg31
VMagnemite
p298
sg33
g266
sg35
V34
p299
sg37
(lp300
Vmagnet-rise
p301
aVmirror-shot
p302
aVdischarge
p303
aVmagnet-bomb
p304
asg43
g44
sg45
Vsturdy
p305
sbag1
(g25
g3
Ntp306
Rp307
(dp308
g29
V081
p309
sg31
VMagnemite
p310
sg33
g266
sg35
V34
p311
sg37
(lp312
Vmagnet-rise
p313
aVmirror-shot
p314
aVdischarge
p315
aVmagnet-bomb
p316
asg43
g44
sg45
Vmagnet-pull
p317
sbasg47
I00
sg48
g49
sbag1
(g2
g3
Ntp318
Rp319
(dp320
g7
VSpr DP Ace Trainer M 1.png
p321
sg9
VAce Trainer
p322
sg11
VCesar
p323
sg13
V2400
p324
sg15
g16
sg17
g18
sg19
g20
sg21
g22
sg23
(lp325
g1
(g25
g3
Ntp326
Rp327
(dp328
g29
V212
p329
sg31
VScizor
p330
sg33
g34
sg35
V40
p331
sg37
(lp332
Vnight-slash
p333
aVx-scissor
p334
aViron-head
p335
aVdouble-hit
p336
asg43
g44
sg45
Vtechnician
p337
sbasg47
I00
sg48
g49
sbag1
(g2
g3
Ntp338
Rp339
(dp340
g7
VSpr DP Worker.png
p341
sg9
VWorker
p342
sg11
VGerardo
p343
sg13
V1400
p344
sg15
g122
sg17
g18
sg19
g20
sg21
g22
sg23
(lp345
g1
(g25
g3
Ntp346
Rp347
(dp348
g29
V081
p349
sg31
VMagnemite
p350
sg33
g266
sg35
V35
p351
sg37
(lp352
Vmagnet-rise
p353
aVmirror-shot
p354
aVdischarge
p355
aVmagnet-bomb
p356
asg43
g44
sg45
Vsturdy
p357
sbag1
(g25
g3
Ntp358
Rp359
(dp360
g29
V081
p361
sg31
VMagnemite
p362
sg33
g266
sg35
V35
p363
sg37
(lp364
Vmagnet-rise
p365
aVmirror-shot
p366
aVdischarge
p367
aVmagnet-bomb
p368
asg43
g44
sg45
Vmagnet-pull
p369
sbasg47
I00
sg48
g49
sbag1
(g2
g3
Ntp370
Rp371
(dp372
g7
VSpr DP Black Belt.png
p373
sg9
VBlack Belt
p374
sg11
VDavid
p375
sg13
V888
p376
sg15
g122
sg17
g18
sg19
g20
sg21
g22
sg23
(lp377
g1
(g25
g3
Ntp378
Rp379
(dp380
g29
V208
p381
sg31
VSteelix
p382
sg33
g34
sg35
V35
p383
sg37
(lp384
Vthunder-fang
p385
aVice-fang
p386
aVfire-fang
p387
aVstone-edge
p388
asg43
g44
sg45
Vrock-head
p389
sbag1
(g25
g3
Ntp390
Rp391
(dp392
g29
V208
p393
sg31
VSteelix
p394
sg33
g34
sg35
V37
p395
sg37
(lp396
Vthunder-fang
p397
aVice-fang
p398
aVfire-fang
p399
aVstone-edge
p400
asg43
g44
sg45
Vrock-head
p401
sbasg47
I00
sg48
g49
sbag1
(g2
g3
Ntp402
Rp403
(dp404
g7
VSpr DP Ace Trainer F 1.png
p405
sg9
VAce Trainer
p406
sg11
VBreanna
p407
sg13
V2280
p408
sg15
g77
sg17
g18
sg19
g20
sg21
g22
sg23
(lp409
g1
(g25
g3
Ntp410
Rp411
(dp412
g29
V436
p413
sg31
VBronzor
p414
sg33
g266
sg35
V35
p415
sg37
(lp416
Viron-defense
p417
aVgyro-ball
p418
aVpayback
p419
aVheal-block
p420
asg43
g44
sg45
Vheatproof
p421
sbag1
(g25
g3
Ntp422
Rp423
(dp424
g29
V436
p425
sg31
VBronzor
p426
sg33
g266
sg35
V36
p427
sg37
(lp428
Viron-defense
p429
aVgyro-ball
p430
aVpayback
p431
aVheal-block
p432
asg43
g44
sg45
Vheatproof
p433
sbag1
(g25
g3
Ntp434
Rp435
(dp436
g29
V436
p437
sg31
VBronzor
p438
sg33
g266
sg35
V38
p439
sg37
(lp440
Viron-defense
p441
aVgyro-ball
p442
aVpayback
p443
aVheal-block
p444
asg43
g44
sg45
Vlevitate
p445
sbasg47
I00
sg48
g49
sbag1
(g2
g3
Ntp446
Rp447
(dp448
g7
VSpr DP Byron.png
p449
sg9
VLeader
p450
sg11
VByron
p451
sg13
V4680
p452
sg15
I3
sg17
g18
sg19
g20
sg21
g22
sg23
(lp453
g1
(g25
g3
Ntp454
Rp455
(dp456
g29
I436
sg31
VBronzor
p457
sg33
g266
sg35
V36
p458
sg37
(lp459
VFlash Cannon
p460
aVExtrasensory
p461
aVConfuse Ray
p462
aVHypnosis
p463
asg43
g44
sg45
VLevitate
p464
sbag1
(g25
g3
Ntp465
Rp466
(dp467
g29
I208
sg31
VSteelix
p468
sg33
g34
sg35
V36
p469
sg37
(lp470
VGyro Ball
p471
aVDragonBreath
p472
aVIce Fang
p473
aVSandstorm
p474
asg43
g44
sg45
VSturdy
p475
sbag1
(g25
g3
Ntp476
Rp477
(dp478
g29
I411
sg31
VBastiodon
p479
sg33
g34
sg35
V39
p480
sg37
(lp481
VFlash Cannon
p482
aVAncientPower
p483
aVIron Defense
p484
aVRest
p485
asg43
VChesto Berry
p486
sg45
VSturdy
p487
sbasg47
I01
sg48
g49
sbag1
(g2
g3
Ntp488
Rp489
(dp490
g7
VSpr Pt Byron.png
p491
sg9
VLeader
p492
sg11
VByron
p493
sg13
V4920
p494
sg15
I3
sg17
g18
sg19
g20
sg21
VPt
p495
sg23
(lp496
g1
(g25
g3
Ntp497
Rp498
(dp499
g29
I82
sg31
VMagneton
p500
sg33
g266
sg35
V37
p501
sg37
(lp502
VFlash Cannon
p503
aVThunderbolt
p504
aVTri Attack
p505
aVMetal Sound
p506
asg43
g44
sg45
VMagnet Pull
p507
sbag1
(g25
g3
Ntp508
Rp509
(dp510
g29
I208
sg31
VSteelix
p511
sg33
g34
sg35
V38
p512
sg37
(lp513
VFlash Cannon
p514
aVEarthquake
p515
aVIce Fang
p516
aVSandstorm
p517
asg43
g44
sg45
VRock Head
p518
sbag1
(g25
g3
Ntp519
Rp520
(dp521
g29
I411
sg31
VBastiodon
p522
sg33
g34
sg35
V41
p523
sg37
(lp524
VMetal Burst
p525
aVStone Edge
p526
aVIron Defense
p527
aVTaunt
p528
asg43
VSitrus Berry
p529
sg45
VSturdy
p530
sbasg47
I01
sg48
Vplatinum
p531
sba.