(lp0
ccopy_reg
_reconstructor
p1
(c__main__
Trainer
p2
c__builtin__
object
p3
Ntp4
Rp5
(dp6
VtSprite
p7
VSpr BW Harlequin.png
p8
sVtClass
p9
VHarlequin
p10
sVtName
p11
VJack
p12
sVtMoney
p13
V640
p14
sVtPokeCount
p15
V2
p16
sVtLocation
p17
Vwiki/Castelia_Gym
p18
sVtRegion
p19
VUnova
p20
sVtGame
p21
VBW
p22
sVtPokes
p23
(lp24
g1
(c__main__
FinishedPokemon
p25
g3
Ntp26
Rp27
(dp28
VpDexNo
p29
V540
p30
sVpSpecies
p31
VSewaddle
p32
sVpGender
p33
VM
p34
sVpLevel
p35
V20
p36
sVpMoves
p37
(lp38
Vendure
p39
aVbug-buzz
p40
aVbug-bite
p41
aVstruggle-bug
p42
asVpHold
p43
V
p44
sVpAbility
p45
Vswarm
p46
sbag1
(g25
g3
Ntp47
Rp48
(dp49
g29
V543
p50
sg31
VVenipede
p51
sg33
g34
sg35
V20
p52
sg37
(lp53
Vrock-climb
p54
aVbug-bite
p55
aVvenoshock
p56
aVsteamroller
p57
asg43
g44
sg45
Vpoison-point
p58
sbasVbossFlag
p59
I00
sVtLongGame
p60
Vblack-white
p61
sbag1
(g2
g3
Ntp62
Rp63
(dp64
g7
VSpr BW Harlequin.png
p65
sg9
VHarlequin
p66
sg11
VKerry
p67
sg13
V640
p68
sg15
g16
sg17
g18
sg19
g20
sg21
g22
sg23
(lp69
g1
(g25
g3
Ntp70
Rp71
(dp72
g29
V540
p73
sg31
VSewaddle
p74
sg33
g34
sg35
V20
p75
sg37
(lp76
Vendure
p77
aVbug-buzz
p78
aVbug-bite
p79
aVstruggle-bug
p80
asg43
g44
sg45
Vswarm
p81
sbag1
(g25
g3
Ntp82
Rp83
(dp84
g29
V557
p85
sg31
VDwebble
p86
sg33
g34
sg35
V20
p87
sg37
(lp88
Vstealth-rock
p89
aVbug-bite
p90
aVsmack-down
p91
aVshell-smash
p92
asg43
g44
sg45
Vshell-armor
p93
sbasg59
I00
sg60
g61
sbag1
(g2
g3
Ntp94
Rp95
(dp96
g7
VSpr BW Harlequin.png
p97
sg9
VHarlequin
p98
sg11
VRick
p99
sg13
V672
p100
sg15
V1
p101
sg17
g18
sg19
g20
sg21
g22
sg23
(lp102
g1
(g25
g3
Ntp103
Rp104
(dp105
g29
V540
p106
sg31
VSewaddle
p107
sg33
g34
sg35
V21
p108
sg37
(lp109
Vendure
p110
aVbug-buzz
p111
aVbug-bite
p112
aVstruggle-bug
p113
asg43
g44
sg45
Vchlorophyll
p114
sbasg59
I00
sg60
g61
sbag1
(g2
g3
Ntp115
Rp116
(dp117
g7
VSpr BW Harlequin.png
p118
sg9
VHarlequin
p119
sg11
VLouis
p120
sg13
V640
p121
sg15
g16
sg17
g18
sg19
g20
sg21
g22
sg23
(lp122
g1
(g25
g3
Ntp123
Rp124
(dp125
g29
V543
p126
sg31
VVenipede
p127
sg33
g34
sg35
V20
p128
sg37
(lp129
Vrock-climb
p130
aVbug-bite
p131
aVvenoshock
p132
aVsteamroller
p133
asg43
g44
sg45
Vpoison-point
p134
sbag1
(g25
g3
Ntp135
Rp136
(dp137
g29
V540
p138
sg31
VSewaddle
p139
sg33
g34
sg35
V20
p140
sg37
(lp141
Vendure
p142
aVbug-buzz
p143
aVbug-bite
p144
aVstruggle-bug
p145
asg43
g44
sg45
Vchlorophyll
p146
sbasg59
I00
sg60
g61
sbag1
(g2
g3
Ntp147
Rp148
(dp149
g7
VSpr B2W2 Harlequin.png
p150
sg9
VHarlequin
p151
sg11
VClarence
p152
sg13
g1
(cmwparserfromhell.wikicode
Wikicode
p153
g3
Ntp154
Rp155
(dp156
V_nodes
p157
g1
(cmwparserfromhell.smart_list.smart_list
SmartList
p158
c__builtin__
list
p159
(lp160
g1
(cmwparserfromhell.nodes.text
Text
p161
g3
Ntp162
Rp163
(dp164
V_value
p165
V640
p166
sbatp167
Rp168
(dp169
V_children
p170
(dp171
sbsbsg15
g16
sg17
g18
sg19
g20
sg21
VB2W2
p172
sg23
(lp173
g1
(g25
g3
Ntp174
Rp175
(dp176
g29
V540
p177
sg31
VSewaddle
p178
sg33
g34
sg35
V20
p179
sg37
(lp180
Vendure
p181
aVbug-buzz
p182
aVbug-bite
p183
aVstruggle-bug
p184
asg43
g44
sg45
Vchlorophyll
p185
sbag1
(g25
g3
Ntp186
Rp187
(dp188
g29
V540
p189
sg31
VSewaddle
p190
sg33
g34
sg35
V20
p191
sg37
(lp192
Vendure
p193
aVbug-buzz
p194
aVbug-bite
p195
aVstruggle-bug
p196
asg43
g44
sg45
Vswarm
p197
sbasg59
I00
sg60
Vblack-2-white-2
p198
sbag1
(g2
g3
Ntp199
Rp200
(dp201
g7
VSpr B2W2 Harlequin.png
p202
sg9
VHarlequin
p203
sg11
VJack
p204
sg13
g1
(g153
g3
Ntp205
Rp206
(dp207
g157
g1
(g158
g159
(lp208
g1
(g161
g3
Ntp209
Rp210
(dp211
g165
V640
p212
sbatp213
Rp214
(dp215
g170
(dp216
sbsbsg15
g16
sg17
g18
sg19
g20
sg21
g172
sg23
(lp217
g1
(g25
g3
Ntp218
Rp219
(dp220
g29
V415
p221
sg31
VCombee
p222
sg33
g34
sg35
V20
p223
sg37
(lp224
Vgust
p225
aVsweet-scent
p226
aVbug-buzz
p227
aVbug-bite
p228
asg43
g44
sg45
Vhoney-gather
p229
sbag1
(g25
g3
Ntp230
Rp231
(dp232
g29
V541
p233
sg31
VSwadloon
p234
sg33
g34
sg35
V20
p235
sg37
(lp236
Vstring-shot
p237
aVprotect
p238
aVgrass-whistle
p239
aVbug-bite
p240
asg43
g44
sg45
Vleaf-guard
p241
sbasg59
I00
sg60
g198
sbag1
(g2
g3
Ntp242
Rp243
(dp244
g7
VSpr B2W2 Harlequin.png
p245
sg9
VHarlequin
p246
sg11
VGary
p247
sg13
g1
(g153
g3
Ntp248
Rp249
(dp250
g157
g1
(g158
g159
(lp251
g1
(g161
g3
Ntp252
Rp253
(dp254
g165
V608
p255
sbatp256
Rp257
(dp258
g170
(dp259
sbsbsg15
V3
p260
sg17
g18
sg19
g20
sg21
g172
sg23
(lp261
g1
(g25
g3
Ntp262
Rp263
(dp264
g29
V540
p265
sg31
VSewaddle
p266
sg33
g34
sg35
V19
p267
sg37
(lp268
Vendure
p269
aVbug-buzz
p270
aVbug-bite
p271
aVstruggle-bug
p272
asg43
g44
sg45
Vswarm
p273
sbag1
(g25
g3
Ntp274
Rp275
(dp276
g29
V415
p277
sg31
VCombee
p278
sg33
g34
sg35
V19
p279
sg37
(lp280
Vgust
p281
aVsweet-scent
p282
aVbug-buzz
p283
aVbug-bite
p284
asg43
g44
sg45
Vhoney-gather
p285
sbag1
(g25
g3
Ntp286
Rp287
(dp288
g29
V557
p289
sg31
VDwebble
p290
sg33
g34
sg35
V19
p291
sg37
(lp292
Vstealth-rock
p293
aVbug-bite
p294
aVsmack-down
p295
aVshell-smash
p296
asg43
g44
sg45
Vsturdy
p297
sbasg59
I00
sg60
g198
sbag1
(g2
g3
Ntp298
Rp299
(dp300
g7
VSpr B2W2 Harlequin.png
p301
sg9
VHarlequin
p302
sg11
VAnders
p303
sg13
g1
(g153
g3
Ntp304
Rp305
(dp306
g157
g1
(g158
g159
(lp307
g1
(g161
g3
Ntp308
Rp309
(dp310
g165
V640
p311
sbatp312
Rp313
(dp314
g170
(dp315
sbsbsg15
g16
sg17
g18
sg19
g20
sg21
g172
sg23
(lp316
g1
(g25
g3
Ntp317
Rp318
(dp319
g29
V557
p320
sg31
VDwebble
p321
sg33
g34
sg35
V20
p322
sg37
(lp323
Vstealth-rock
p324
aVbug-bite
p325
aVsmack-down
p326
aVshell-smash
p327
asg43
g44
sg45
Vsturdy
p328
sbag1
(g25
g3
Ntp329
Rp330
(dp331
g29
V541
p332
sg31
VSwadloon
p333
sg33
g34
sg35
V20
p334
sg37
(lp335
Vstring-shot
p336
aVprotect
p337
aVgrass-whistle
p338
aVbug-bite
p339
asg43
g44
sg45
Vchlorophyll
p340
sbasg59
I00
sg60
g198
sbag1
(g2
g3
Ntp341
Rp342
(dp343
g7
VSpr BW Burgh.png
p344
sg9
VLeader
p345
sg11
VBurgh
p346
sg13
V2760
p347
sg15
I3
sg17
g18
sg19
g20
sg21
g22
sg23
(lp348
g1
(g25
g3
Ntp349
Rp350
(dp351
g29
I544
sg31
VWhirlipede
p352
sg33
g34
sg35
V21
p353
sg37
(lp354
VPoison Tail
p355
aVStruggle Bug
p356
aVPursuit
p357
aVScreech
p358
asg43
g44
sg45
VSwarm
p359
sbag1
(g25
g3
Ntp360
Rp361
(dp362
g29
I557
sg31
VDwebble
p363
sg33
g34
sg35
V21
p364
sg37
(lp365
VSmack Down
p366
aVStruggle Bug
p367
aVFaint Attack
p368
aVSand-Attack
p369
asg43
g44
sg45
VShell Armor
p370
sbag1
(g25
g3
Ntp371
Rp372
(dp373
g29
I542
sg31
VLeavanny
p374
sg33
g34
sg35
V23
p375
sg37
(lp376
VRazor Leaf
p377
aVStruggle Bug
p378
aVString Shot
p379
aVProtect
p380
asg43
g44
sg45
VSwarm
p381
sbasg59
I01
sg60
g61
sbag1
(g2
g3
Ntp382
Rp383
(dp384
g7
VSpr B2W2 Burgh.png
p385
sg9
VLeader
p386
sg11
VBurgh
p387
sg13
g1
(g153
g3
Ntp388
Rp389
(dp390
g157
g1
(g158
g159
(lp391
g1
(g161
g3
Ntp392
Rp393
(dp394
g165
V2640
p395
sbatp396
Rp397
(dp398
g170
(dp399
sbsbsg15
I3
sg17
g18
sg19
g20
sg21
g172
sg23
(lp400
g1
(g25
g3
Ntp401
Rp402
(dp403
g29
I541
sg31
VSwadloon
p404
sg33
g34
sg35
g1
(g153
g3
Ntp405
Rp406
(dp407
g157
g1
(g158
g159
(lp408
g1
(g161
g3
Ntp409
Rp410
(dp411
g165
V20
p412
sbatp413
Rp414
(dp415
g170
(dp416
sbsbsg37
(lp417
VString Shot
p418
aVRazor Leaf
p419
aVStruggle Bug
p420
aVProtect
p421
asg43
g44
sg45
VLeaf Guard
p422
sbag1
(g25
g3
Ntp423
Rp424
(dp425
g29
I557
sg31
VDwebble
p426
sg33
g34
sg35
g1
(g153
g3
Ntp427
Rp428
(dp429
g157
g1
(g158
g159
(lp430
g1
(g161
g3
Ntp431
Rp432
(dp433
g165
V20
p434
sbatp435
Rp436
(dp437
g170
(dp438
sbsbsg37
(lp439
VSmack Down
p440
aVFaint Attack
p441
aVRock Polish
p442
aVStruggle Bug
p443
asg43
g44
sg45
VSturdy
p444
sbag1
(g25
g3
Ntp445
Rp446
(dp447
g29
I542
sg31
VLeavanny
p448
sg33
g34
sg35
g1
(g153
g3
Ntp449
Rp450
(dp451
g157
g1
(g158
g159
(lp452
g1
(g161
g3
Ntp453
Rp454
(dp455
g165
V22
p456
sbatp457
Rp458
(dp459
g170
(dp460
sbsbsg37
(lp461
VRazor Leaf
p462
aVCut
p463
aVString Shot
p464
aVStruggle Bug
p465
asg43
VSitrus Berry
p466
sg45
VSwarm
p467
sbasg59
I01
sg60
g198
sbag1
(g2
g3
Ntp468
Rp469
(dp470
g7
VSpr B2W2 Burgh.png
p471
sg9
VLeader
p472
sg11
VBurgh
p473
sg13
V3120
p474
sg15
I4
sg17
g18
sg19
g20
sg21
g172
sg23
(lp475
g1
(g25
g3
Ntp476
Rp477
(dp478
g29
I557
sg31
VDwebble
p479
sg33
g34
sg35
V24
p480
sg37
(lp481
VRock Polish
p482
aVFaint Attack
p483
aVRock Blast
p484
aVStruggle Bug
p485
asg43
VSitrus Berry
p486
sg45
VSturdy
p487
sbag1
(g25
g3
Ntp488
Rp489
(dp490
g29
I616
sg31
VShelmet
p491
sg33
g34
sg35
V24
p492
sg37
(lp493
VAcid
p494
aVMega Drain
p495
aVStruggle Bug
p496
aVCurse
p497
asg43
g44
sg45
VShell Armor
p498
sbag1
(g25
g3
Ntp499
Rp500
(dp501
g29
I588
sg31
VKarrablast
p502
sg33
g34
sg35
V24
p503
sg37
(lp504
VEndure
p505
aVAerial Ace
p506
aVStruggle Bug
p507
aVHeadbutt
p508
asg43
g44
sg45
VShed Skin
p509
sbag1
(g25
g3
Ntp510
Rp511
(dp512
g29
I542
sg31
VLeavanny
p513
sg33
g34
sg35
V26
p514
sg37
(lp515
VGrassWhistle
p516
aVAerial Ace
p517
aVRazor Leaf
p518
aVStruggle Bug
p519
asg43
VSitrus Berry
p520
sg45
VSwarm
p521
sbasg59
I01
sg60
g198
sba.