(lp0
ccopy_reg
_reconstructor
p1
(c__main__
Trainer
p2
c__builtin__
object
p3
Ntp4
Rp5
(dp6
VtSprite
p7
VSpr B2W2 Janitor.png
p8
sVtClass
p9
VJanitor
p10
sVtName
p11
VFelix
p12
sVtMoney
p13
g1
(cmwparserfromhell.wikicode
Wikicode
p14
g3
Ntp15
Rp16
(dp17
V_nodes
p18
g1
(cmwparserfromhell.smart_list.smart_list
SmartList
p19
c__builtin__
list
p20
(lp21
g1
(cmwparserfromhell.nodes.text
Text
p22
g3
Ntp23
Rp24
(dp25
V_value
p26
V640
p27
sbatp28
Rp29
(dp30
V_children
p31
(dp32
sbsbsVtPokeCount
p33
V2
p34
sVtLocation
p35
Vwiki/Castelia_Sewers
p36
sVtRegion
p37
VUnova
p38
sVtGame
p39
VB2W2
p40
sVtPokes
p41
(lp42
g1
(c__main__
FinishedPokemon
p43
g3
Ntp44
Rp45
(dp46
VpDexNo
p47
V506
p48
sVpSpecies
p49
VLillipup
p50
sVpGender
p51
VM
p52
sVpLevel
p53
V16
p54
sVpMoves
p55
(lp56
Vlast-resort
p57
aVgiga-impact
p58
aVretaliate
p59
aVwork-up
p60
asVpHold
p61
V
p62
sVpAbility
p63
Vvital-spirit
p64
sbag1
(g43
g3
Ntp65
Rp66
(dp67
g47
V568
p68
sg49
VTrubbish
p69
sg51
g52
sg53
V16
p70
sg55
(lp71
Vtoxic-spikes
p72
aVgunk-shot
p73
aVacid-spray
p74
aVclear-smog
p75
asg61
g62
sg63
Vstench
p76
sbasVbossFlag
p77
I00
sVtLongGame
p78
Vblack-2-white-2
p79
sbag1
(g2
g3
Ntp80
Rp81
(dp82
g7
VSpr B2W2 Doctor.png
p83
sg9
VDoctor
p84
sg11
VHeath
p85
sg13
g1
(g14
g3
Ntp86
Rp87
(dp88
g18
g1
(g19
g20
(lp89
g1
(g22
g3
Ntp90
Rp91
(dp92
g26
V1020
p93
sbatp94
Rp95
(dp96
g31
(dp97
sbsbsg33
V1
p98
sg35
g36
sg37
g38
sg39
g40
sg41
(lp99
g1
(g43
g3
Ntp100
Rp101
(dp102
g47
V540
p103
sg49
VSewaddle
p104
sg51
g52
sg53
V17
p105
sg55
(lp106
Vendure
p107
aVbug-buzz
p108
aVbug-bite
p109
aVstruggle-bug
p110
asg61
g62
sg63
Vswarm
p111
sbasg77
I00
sg78
g79
sbag1
(g2
g3
Ntp112
Rp113
(dp114
g7
VSpr B2W2 Worker.png
p115
sg9
VWorker
p116
sg11
VZack
p117
sg13
g1
(g14
g3
Ntp118
Rp119
(dp120
g18
g1
(g19
g20
(lp121
g1
(g22
g3
Ntp122
Rp123
(dp124
g26
V680
p125
sbatp126
Rp127
(dp128
g31
(dp129
sbsbsg33
g98
sg35
g36
sg37
g38
sg39
g40
sg41
(lp130
g1
(g43
g3
Ntp131
Rp132
(dp133
g47
V529
p134
sg49
VDrilbur
p135
sg51
g52
sg53
V17
p136
sg55
(lp137
Vmetal-claw
p138
aVmud-sport
p139
aVhone-claws
p140
aVdrill-run
p141
asg61
g62
sg63
Vsand-force
p142
sbasg77
I00
sg78
g79
sbag1
(g2
g3
Ntp143
Rp144
(dp145
g7
VSpr B2W2 Plasma Grunt M.png
p146
sg9
VTeam Plasma Grunt
p147
sg11
g62
sg13
g1
(g14
g3
Ntp148
Rp149
(dp150
g18
g1
(g19
g20
(lp151
g1
(g22
g3
Ntp152
Rp153
(dp154
g26
V1280
p155
sbatp156
Rp157
(dp158
g31
(dp159
sbsbsg33
g98
sg35
g36
sg37
g38
sg39
g40
sg41
(lp160
g1
(g43
g3
Ntp161
Rp162
(dp163
g47
V551
p164
sg49
VSandile
p165
sg51
g52
sg53
V16
p166
sg55
(lp167
Vsand-tomb
p168
aVassurance
p169
aVembargo
p170
aVfoul-play
p171
asg61
g62
sg63
Vmoxie
p172
sbasg77
I00
sg78
g79
sbag1
(g2
g3
Ntp173
Rp174
(dp175
g7
VSpr B2W2 Plasma Grunt M.png
p176
sg9
VTeam Plasma Grunt
p177
sg11
g62
sg13
g1
(g14
g3
Ntp178
Rp179
(dp180
g18
g1
(g19
g20
(lp181
g1
(g22
g3
Ntp182
Rp183
(dp184
g26
V1280
p185
sbatp186
Rp187
(dp188
g31
(dp189
sbsbsg33
g98
sg35
g36
sg37
g38
sg39
g40
sg41
(lp190
g1
(g43
g3
Ntp191
Rp192
(dp193
g47
V559
p194
sg49
VScraggy
p195
sg51
g52
sg53
V16
p196
sg55
(lp197
Vpayback
p198
aVrock-climb
p199
aVhead-smash
p200
aVchip-away
p201
asg61
g62
sg63
Vmoxie
p202
sbasg77
I00
sg78
g79
sbag1
(g2
g3
Ntp203
Rp204
(dp205
g7
VSpr B2W2 Worker.png
p206
sg9
VWorker
p207
sg11
VScott
p208
sg13
g1
(g14
g3
Ntp209
Rp210
(dp211
g18
g1
(g19
g20
(lp212
g1
(g22
g3
Ntp213
Rp214
(dp215
g26
V640
p216
sbatp217
Rp218
(dp219
g31
(dp220
sbsbsg33
g98
sg35
g36
sg37
g38
sg39
g40
sg41
(lp221
g1
(g43
g3
Ntp222
Rp223
(dp224
g47
V532
p225
sg49
VTimburr
p226
sg51
g52
sg53
V17
p227
sg55
(lp228
Vwake-up-slap
p229
aVhammer-arm
p230
aVstone-edge
p231
aVchip-away
p232
asg61
g62
sg63
Vguts
p233
sbasg77
I00
sg78
g79
sbag1
(g2
g3
Ntp234
Rp235
(dp236
g7
VSpr B2W2 Scientist F.png
p237
sg9
VScientist
p238
sg11
VCaroline
p239
sg13
g1
(g14
g3
Ntp240
Rp241
(dp242
g18
g1
(g19
g20
(lp243
g1
(g22
g3
Ntp244
Rp245
(dp246
g26
V816
p247
sbatp248
Rp249
(dp250
g31
(dp251
sbsbsg33
g98
sg35
g36
sg37
g38
sg39
g40
sg41
(lp252
g1
(g43
g3
Ntp253
Rp254
(dp255
g47
V088
p256
sg49
VGrimer
p257
sg51
VF
p258
sg53
V17
p259
sg55
(lp260
Vfling
p261
aVmud-bomb
p262
aVgunk-shot
p263
aVsludge-wave
p264
asg61
g62
sg63
Vstench
p265
sbasg77
I00
sg78
g79
sbag1
(g2
g3
Ntp266
Rp267
(dp268
g7
VSpr B2W2 Scientist M.png
p269
sg9
VScientist
p270
sg11
VClarke
p271
sg13
g1
(g14
g3
Ntp272
Rp273
(dp274
g18
g1
(g19
g20
(lp275
g1
(g22
g3
Ntp276
Rp277
(dp278
g26
V816
p279
sbatp280
Rp281
(dp282
g31
(dp283
sbsbsg33
g98
sg35
g36
sg37
g38
sg39
g40
sg41
(lp284
g1
(g43
g3
Ntp285
Rp286
(dp287
g47
V081
p288
sg49
VMagnemite
p289
sg51
VU
p290
sg53
V17
p291
sg55
(lp292
Vflash-cannon
p293
aVdischarge
p294
aVmagnet-bomb
p295
aVelectro-ball
p296
asg61
g62
sg63
Vsturdy
p297
sbasg77
I00
sg78
g79
sbag1
(g2
g3
Ntp298
Rp299
(dp300
g7
VSpr B2W2 Janitor.png
p301
sg9
VJanitor
p302
sg11
VBrady
p303
sg13
g1
(g14
g3
Ntp304
Rp305
(dp306
g18
g1
(g19
g20
(lp307
g1
(g22
g3
Ntp308
Rp309
(dp310
g26
V1240
p311
sbatp312
Rp313
(dp314
g31
(dp315
sbsbsg33
g34
sg35
g36
sg37
g38
sg39
g40
sg41
(lp316
g1
(g43
g3
Ntp317
Rp318
(dp319
g47
V183
p320
sg49
VMarill
p321
sg51
g52
sg53
V31
p322
sg55
(lp323
Vsuperpower
p324
aVwater-sport
p325
aVaqua-ring
p326
aVaqua-tail
p327
asg61
g62
sg63
Vthick-fat
p328
sbag1
(g43
g3
Ntp329
Rp330
(dp331
g47
V573
p332
sg49
VCinccino
p333
sg51
g258
sg53
V31
p334
sg55
(lp335
Vtickle
p336
aVbullet-seed
p337
aVrock-blast
p338
aVtail-slap
p339
asg61
g62
sg63
Vtechnician
p340
sbasg77
I00
sg78
g79
sbag1
(g2
g3
Ntp341
Rp342
(dp343
g7
VB2W2 Hugh Back.png
p344
sg9
VPokemon Trainer
p345
sg11
VHugh
p346
sg13
Vn/a
p347
sg33
I2
sg35
g36
sg37
g38
sg39
VSM
p348
sg41
(lp349
g1
(g43
g3
Ntp350
Rp351
(dp352
g47
I499
sg49
VPignite
p353
sg51
g52
sg53
V20
p354
sg55
(lp355
VFlame Charge
p356
aVArm Thrust
p357
aVSmog
p358
aVDefense Curl
p359
asg61
VCharcoal
p360
sg63
VBlaze
p361
sbag1
(g43
g3
Ntp362
Rp363
(dp364
g47
I519
sg49
VPidove
p365
sg51
g52
sg53
V18
p366
sg55
(lp367
VAir Cutter
p368
aVLeer
p369
aVQuick Attack
p370
aVRoost
p371
asg61
g62
sg63
VBig Pecks
p372
sbasg77
I01
sg78
Vsun-moon
p373
sbag1
(g2
g3
Ntp374
Rp375
(dp376
g7
VB2W2 Hugh Back.png
p377
sg9
VPokemon Trainer
p378
sg11
VHugh
p379
sg13
Vn/a
p380
sg33
I2
sg35
g36
sg37
g38
sg39
g348
sg41
(lp381
g1
(g43
g3
Ntp382
Rp383
(dp384
g47
I502
sg49
VDewott
p385
sg51
g52
sg53
V20
p386
sg55
(lp387
VRazor Shell
p388
aVFury Cutter
p389
aVWater Sport
p390
aVFocus Energy
p391
asg61
VMystic Water
p392
sg63
VTorrent
p393
sbag1
(g43
g3
Ntp394
Rp395
(dp396
g47
I519
sg49
VPidove
p397
sg51
g52
sg53
V18
p398
sg55
(lp399
VAir Cutter
p400
aVLeer
p401
aVQuick Attack
p402
aVRoost
p403
asg61
g62
sg63
VBig Pecks
p404
sbasg77
I01
sg78
g373
sbag1
(g2
g3
Ntp405
Rp406
(dp407
g7
VB2W2 Hugh Back.png
p408
sg9
VPokemon Trainer
p409
sg11
VHugh
p410
sg13
Vn/a
p411
sg33
I2
sg35
g36
sg37
g38
sg39
g348
sg41
(lp412
g1
(g43
g3
Ntp413
Rp414
(dp415
g47
I496
sg49
VServine
p416
sg51
g52
sg53
V20
p417
sg55
(lp418
VLeaf Tornado
p419
aVLeech Seed
p420
aVGrowth
p421
aVWrap
p422
asg61
VMiracle Seed
p423
sg63
VOvergrow
p424
sbag1
(g43
g3
Ntp425
Rp426
(dp427
g47
I519
sg49
VPidove
p428
sg51
g52
sg53
V18
p429
sg55
(lp430
VAir Cutter
p431
aVLeer
p432
aVQuick Attack
p433
aVRoost
p434
asg61
g62
sg63
VBig Pecks
p435
sbasg77
I01
sg78
g373
sba.