(lp0
ccopy_reg
_reconstructor
p1
(c__main__
Trainer
p2
c__builtin__
object
p3
Ntp4
Rp5
(dp6
VtSprite
p7
VSpr BW Clerk F.png
p8
sVtClass
p9
VClerk \u2640
p10
sVtName
p11
VIngrid
p12
sVtMoney
p13
V760
p14
sVtPokeCount
p15
V1
p16
sVtLocation
p17
Vwiki/Castelia_City
p18
sVtRegion
p19
VUnova
p20
sVtGame
p21
VBW
p22
sVtPokes
p23
(lp24
g1
(c__main__
FinishedPokemon
p25
g3
Ntp26
Rp27
(dp28
VpDexNo
p29
V507
p30
sVpSpecies
p31
VHerdier
p32
sVpGender
p33
VF
p34
sVpLevel
p35
V19
p36
sVpMoves
p37
(lp38
Vlast-resort
p39
aVgiga-impact
p40
aVretaliate
p41
aVwork-up
p42
asVpHold
p43
V
p44
sVpAbility
p45
Vsand-rush
p46
sbasVbossFlag
p47
I00
sVtLongGame
p48
Vblack-white
p49
sbag1
(g2
g3
Ntp50
Rp51
(dp52
g7
VSpr BW Clerk M A.png
p53
sg9
VClerk \u2642
p54
sg11
VClemens
p55
sg13
V760
p56
sg15
g16
sg17
g18
sg19
g20
sg21
g22
sg23
(lp57
g1
(g25
g3
Ntp58
Rp59
(dp60
g29
V532
p61
sg31
VTimburr
p62
sg33
VM
p63
sg35
V19
p64
sg37
(lp65
Vwake-up-slap
p66
aVhammer-arm
p67
aVstone-edge
p68
aVchip-away
p69
asg43
g44
sg45
Vguts
p70
sbasg47
I00
sg48
g49
sbag1
(g2
g3
Ntp71
Rp72
(dp73
g7
VSpr BW Scientist M.png
p74
sg9
VScientist
p75
sg11
VRandall
p76
sg13
V912
p77
sg15
g16
sg17
g18
sg19
g20
sg21
g22
sg23
(lp78
g1
(g25
g3
Ntp79
Rp80
(dp81
g29
V524
p82
sg31
VRoggenrola
p83
sg33
g63
sg35
V19
p84
sg37
(lp85
Vrock-blast
p86
aVstone-edge
p87
aVstealth-rock
p88
aVsmack-down
p89
asg43
g44
sg45
Vsturdy
p90
sbasg47
I00
sg48
g49
sbag1
(g2
g3
Ntp91
Rp92
(dp93
g7
VSpr BW Clerk M A.png
p94
sg9
VClerk \u2642
p95
sg11
VWarren
p96
sg13
V680
p97
sg15
V3
p98
sg17
g18
sg19
g20
sg21
g22
sg23
(lp99
sg47
I00
sg48
g49
sbag1
(g2
g3
Ntp100
Rp101
(dp102
g7
VSpr BW Clerk F.png
p103
sg9
VClerk \u2640
p104
sg11
VAlberta
p105
sg13
V720
p106
sg15
V2
p107
sg17
g18
sg19
g20
sg21
g22
sg23
(lp108
g1
(g25
g3
Ntp109
Rp110
(dp111
g29
V548
p112
sg31
VPetilil
p113
sg33
g34
sg35
V18
p114
sg37
(lp115
Venergy-ball
p116
aVleaf-storm
p117
aVentrainment
p118
aVafter-you
p119
asg43
g44
sg45
Vown-tempo
p120
sbag1
(g25
g3
Ntp121
Rp122
(dp123
g29
V546
p124
sg31
VCottonee
p125
sg33
g34
sg35
V18
p126
sg37
(lp127
Vhelping-hand
p128
aVendeavor
p129
aVenergy-ball
p130
aVcotton-guard
p131
asg43
g44
sg45
Vinfiltrator
p132
sbasg47
I00
sg48
g49
sbag1
(g2
g3
Ntp133
Rp134
(dp135
g7
VSpr BW Clerk M A.png
p136
sg9
VClerk \u2642
p137
sg11
VIvan
p138
sg13
V800
p139
sg15
g16
sg17
g18
sg19
g20
sg21
g22
sg23
(lp140
g1
(g25
g3
Ntp141
Rp142
(dp143
g29
V527
p144
sg31
VWoobat
p145
sg33
g63
sg35
V20
p146
sg37
(lp147
Vcalm-mind
p148
aVassurance
p149
aVair-slash
p150
aVheart-stamp
p151
asg43
g44
sg45
Vklutz
p152
sbasg47
I00
sg48
g49
sbag1
(g2
g3
Ntp153
Rp154
(dp155
g7
VSpr BW Scientist F.png
p156
sg9
VScientist
p157
sg11
VSamantha
p158
sg13
V960
p159
sg15
g16
sg17
g18
sg19
g20
sg21
g22
sg23
(lp160
g1
(g25
g3
Ntp161
Rp162
(dp163
g29
V517
p164
sg31
VMunna
p165
sg33
g34
sg35
V20
p166
sg37
(lp167
Vzen-headbutt
p168
aVtelekinesis
p169
aVsynchronoise
p170
aVstored-power
p171
asg43
g44
sg45
Vsynchronize
p172
sbasg47
I00
sg48
g49
sbag1
(g2
g3
Ntp173
Rp174
(dp175
g7
VSpr BW Scientist M.png
p176
sg9
VScientist
p177
sg11
VSteve
p178
sg13
V960
p179
sg15
g16
sg17
g18
sg19
g20
sg21
g22
sg23
(lp180
g1
(g25
g3
Ntp181
Rp182
(dp183
g29
V540
p184
sg31
VSewaddle
p185
sg33
g63
sg35
V20
p186
sg37
(lp187
Vendure
p188
aVbug-buzz
p189
aVbug-bite
p190
aVstruggle-bug
p191
asg43
g44
sg45
Vswarm
p192
sbasg47
I00
sg48
g49
sbag1
(g2
g3
Ntp193
Rp194
(dp195
g7
VSpr BW Clerk M B.png
p196
sg9
VClerk \u2642
p197
sg11
VWade
p198
sg13
V1520
p199
sg15
g98
sg17
g18
sg19
g20
sg21
g22
sg23
(lp200
g1
(g25
g3
Ntp201
Rp202
(dp203
g29
V513
p204
sg31
VPansear
p205
sg33
g63
sg35
V19
p206
sg37
(lp207
Vfling
p208
aVflame-burst
p209
aVincinerate
p210
aVacrobatics
p211
asg43
g44
sg45
Vgluttony
p212
sbag1
(g25
g3
Ntp213
Rp214
(dp215
g29
V511
p216
sg31
VPansage
p217
sg33
g63
sg35
V19
p218
sg37
(lp219
Vfling
p220
aVseed-bomb
p221
aVgrass-knot
p222
aVacrobatics
p223
asg43
g44
sg45
Vgluttony
p224
sbag1
(g25
g3
Ntp225
Rp226
(dp227
g29
V515
p228
sg31
VPanpour
p229
sg33
g63
sg35
V19
p230
sg37
(lp231
Vnatural-gift
p232
aVfling
p233
aVscald
p234
aVacrobatics
p235
asg43
g44
sg45
Vgluttony
p236
sbasg47
I00
sg48
g49
sbag1
(g2
g3
Ntp237
Rp238
(dp239
g7
VSpr BW Janitor.png
p240
sg9
VJanitor
p241
sg11
VGeoff
p242
sg13
V4000
p243
sg15
g107
sg17
g18
sg19
g20
sg21
g22
sg23
(lp244
g1
(g25
g3
Ntp245
Rp246
(dp247
g29
V568
p248
sg31
VTrubbish
p249
sg33
g63
sg35
V20
p250
sg37
(lp251
Vtoxic-spikes
p252
aVgunk-shot
p253
aVacid-spray
p254
aVclear-smog
p255
asg43
g44
sg45
Vstench
p256
sbag1
(g25
g3
Ntp257
Rp258
(dp259
g29
V572
p260
sg31
VMinccino
p261
sg33
g34
sg35
V20
p262
sg37
(lp263
Vcaptivate
p264
aVafter-you
p265
aVechoed-voice
p266
aVtail-slap
p267
asg43
g44
sg45
Vcute-charm
p268
sbasg47
I00
sg48
g49
sbag1
(g2
g3
Ntp269
Rp270
(dp271
g7
VSpr BW Dancer.png
p272
sg9
VDancer
p273
sg11
VMickey
p274
sg13
V672
p275
sg15
g16
sg17
g18
sg19
g20
sg21
g22
sg23
(lp276
g1
(g25
g3
Ntp277
Rp278
(dp279
g29
V511
p280
sg31
VPansage
p281
sg33
g63
sg35
V21
p282
sg37
(lp283
Vfling
p284
aVseed-bomb
p285
aVgrass-knot
p286
aVacrobatics
p287
asg43
g44
sg45
Vgluttony
p288
sbasg47
I00
sg48
g49
sbag1
(g2
g3
Ntp289
Rp290
(dp291
g7
VSpr BW Dancer.png
p292
sg9
VDancer
p293
sg11
VEdmond
p294
sg13
V672
p295
sg15
g16
sg17
g18
sg19
g20
sg21
g22
sg23
(lp296
g1
(g25
g3
Ntp297
Rp298
(dp299
g29
V515
p300
sg31
VPanpour
p301
sg33
g63
sg35
V21
p302
sg37
(lp303
Vnatural-gift
p304
aVfling
p305
aVscald
p306
aVacrobatics
p307
asg43
g44
sg45
Vgluttony
p308
sbasg47
I00
sg48
g49
sbag1
(g2
g3
Ntp309
Rp310
(dp311
g7
VSpr BW Dancer.png
p312
sg9
VDancer
p313
sg11
VRaymond
p314
sg13
V672
p315
sg15
g16
sg17
g18
sg19
g20
sg21
g22
sg23
(lp316
g1
(g25
g3
Ntp317
Rp318
(dp319
g29
V513
p320
sg31
VPansear
p321
sg33
g63
sg35
V21
p322
sg37
(lp323
Vfling
p324
aVflame-burst
p325
aVincinerate
p326
aVacrobatics
p327
asg43
g44
sg45
Vgluttony
p328
sbasg47
I00
sg48
g49
sbag1
(g2
g3
Ntp329
Rp330
(dp331
g7
VSpr BW Plasma Grunt M.png
p332
sg9
VTeam Plasma Grunt
p333
sg11
g44
sg13
V680
p334
sg15
g107
sg17
g18
sg19
g20
sg21
g22
sg23
(lp335
g1
(g25
g3
Ntp336
Rp337
(dp338
g29
V551
p339
sg31
VSandile
p340
sg33
g63
sg35
V17
p341
sg37
(lp342
Vsand-tomb
p343
aVassurance
p344
aVembargo
p345
aVfoul-play
p346
asg43
g44
sg45
Vmoxie
p347
sbag1
(g25
g3
Ntp348
Rp349
(dp350
g29
V551
p351
sg31
VSandile
p352
sg33
g63
sg35
V17
p353
sg37
(lp354
Vsand-tomb
p355
aVassurance
p356
aVembargo
p357
aVfoul-play
p358
asg43
g44
sg45
Vintimidate
p359
sbasg47
I00
sg48
g49
sbag1
(g2
g3
Ntp360
Rp361
(dp362
g7
VSpr B2W2 Clerk M.png
p363
sg9
VClerk \u2642
p364
sg11
VClemens
p365
sg13
g1
(cmwparserfromhell.wikicode
Wikicode
p366
g3
Ntp367
Rp368
(dp369
V_nodes
p370
g1
(cmwparserfromhell.smart_list.smart_list
SmartList
p371
c__builtin__
list
p372
(lp373
g1
(cmwparserfromhell.nodes.text
Text
p374
g3
Ntp375
Rp376
(dp377
V_value
p378
V640
p379
sbatp380
Rp381
(dp382
V_children
p383
(dp384
sbsbsg15
g16
sg17
g18
sg19
g20
sg21
VB2W2
p385
sg23
(lp386
g1
(g25
g3
Ntp387
Rp388
(dp389
g29
V058
p390
sg31
VGrowlithe
p391
sg33
g63
sg35
V16
p392
sg37
(lp393
Vflare-blitz
p394
aVfire-fang
p395
aVflame-burst
p396
aVretaliate
p397
asg43
g44
sg45
Vflash-fire
p398
sbasg47
I00
sg48
Vblack-2-white-2
p399
sbag1
(g2
g3
Ntp400
Rp401
(dp402
g7
VSpr B2W2 Clerk M.png
p403
sg9
VClerk \u2642
p404
sg11
VWarren
p405
sg13
g1
(g366
g3
Ntp406
Rp407
(dp408
g370
g1
(g371
g372
(lp409
g1
(g374
g3
Ntp410
Rp411
(dp412
g378
V640
p413
sbatp414
Rp415
(dp416
g383
(dp417
sbsbsg15
g16
sg17
g18
sg19
g20
sg21
g385
sg23
(lp418
g1
(g25
g3
Ntp419
Rp420
(dp421
g29
V183
p422
sg31
VMarill
p423
sg33
g63
sg35
V16
p424
sg37
(lp425
Vsuperpower
p426
aVwater-sport
p427
aVaqua-ring
p428
aVaqua-tail
p429
asg43
g44
sg45
Vhuge-power
p430
sbasg47
I00
sg48
g399
sbag1
(g2
g3
Ntp431
Rp432
(dp433
g7
VSpr B2W2 Clerk F.png
p434
sg9
VClerk \u2640
p435
sg11
VBritney
p436
sg13
g1
(g366
g3
Ntp437
Rp438
(dp439
g370
g1
(g371
g372
(lp440
g1
(g374
g3
Ntp441
Rp442
(dp443
g378
V640
p444
sbatp445
Rp446
(dp447
g383
(dp448
sbsbsg15
g16
sg17
g18
sg19
g20
sg21
g385
sg23
(lp449
g1
(g25
g3
Ntp450
Rp451
(dp452
g29
V406
p453
sg31
VBudew
p454
sg33
g34
sg35
V16
p455
sg37
(lp456
Vgrowth
p457
aVstun-spore
p458
aVwater-sport
p459
aVworry-seed
p460
asg43
g44
sg45
Vpoison-point
p461
sbasg47
I00
sg48
g399
sbag1
(g2
g3
Ntp462
Rp463
(dp464
g7
VSpr B2W2 Clerk M B.png
p465
sg9
VClerk \u2642
p466
sg11
VGilligan
p467
sg13
g1
(g366
g3
Ntp468
Rp469
(dp470
g370
g1
(g371
g372
(lp471
g1
(g374
g3
Ntp472
Rp473
(dp474
g378
V1360
p475
sbatp476
Rp477
(dp478
g383
(dp479
sbsbsg15
g16
sg17
g18
sg19
g20
sg21
g385
sg23
(lp480
g1
(g25
g3
Ntp481
Rp482
(dp483
g29
V519
p484
sg31
VPidove
p485
sg33
g63
sg35
V17
p486
sg37
(lp487
Vair-cutter
p488
aVroost
p489
aVtailwind
p490
aVair-slash
p491
asg43
g44
sg45
Vsuper-luck
p492
sbasg47
I00
sg48
g399
sbag1
(g2
g3
Ntp493
Rp494
(dp495
g7
VSpr B2W2 School Kid M.png
p496
sg9
VSchool Kid
p497
sg11
VNeil
p498
sg13
g1
(g366
g3
Ntp499
Rp500
(dp501
g370
g1
(g371
g372
(lp502
g1
(g374
g3
Ntp503
Rp504
(dp505
g378
V340
p506
sbatp507
Rp508
(dp509
g383
(dp510
sbsbsg15
g107
sg17
g18
sg19
g20
sg21
g385
sg23
(lp511
g1
(g25
g3
Ntp512
Rp513
(dp514
g29
V133
p515
sg31
VEevee
p516
sg33
g63
sg35
V17
p517
sg37
(lp518
Vhelping-hand
p519
aVcovet
p520
aVtrump-card
p521
aVlast-resort
p522
asg43
g44
sg45
Vrun-away
p523
sbag1
(g25
g3
Ntp524
Rp525
(dp526
g29
V507
p527
sg31
VHerdier
p528
sg33
g63
sg35
V17
p529
sg37
(lp530
Vlast-resort
p531
aVgiga-impact
p532
aVretaliate
p533
aVwork-up
p534
asg43
g44
sg45
Vintimidate
p535
sbasg47
I00
sg48
g399
sbag1
(g2
g3
Ntp536
Rp537
(dp538
g7
VSpr B2W2 Roughneck.png
p539
sg9
VRoughneck
p540
sg11
VRicky
p541
sg13
g1
(g366
g3
Ntp542
Rp543
(dp544
g370
g1
(g371
g372
(lp545
g1
(g374
g3
Ntp546
Rp547
(dp548
g378
V768
p549
sbatp550
Rp551
(dp552
g383
(dp553
sbsbsg15
g16
sg17
g18
sg19
g20
sg21
g385
sg23
(lp554
g1
(g25
g3
Ntp555
Rp556
(dp557
g29
V559
p558
sg31
VScraggy
p559
sg33
g63
sg35
V32
p560
sg37
(lp561
Vpayback
p562
aVrock-climb
p563
aVhead-smash
p564
aVchip-away
p565
asg43
g44
sg45
Vmoxie
p566
sbasg47
I00
sg48
g399
sbag1
(g2
g3
Ntp567
Rp568
(dp569
g7
VSpr B2W2 Dancer.png
p570
sg9
VDancer
p571
sg11
VJean-Paul
p572
sg13
g1
(g366
g3
Ntp573
Rp574
(dp575
g370
g1
(g371
g372
(lp576
g1
(g374
g3
Ntp577
Rp578
(dp579
g378
V1024
p580
sbatp581
Rp582
(dp583
g383
(dp584
sbsbsg15
g16
sg17
g18
sg19
g20
sg21
g385
sg23
(lp585
g1
(g25
g3
Ntp586
Rp587
(dp588
g29
V554
p589
sg31
VDarumaka
p590
sg33
g63
sg35
V32
p591
sg37
(lp592
Vflare-blitz
p593
aVfire-fang
p594
aVincinerate
p595
aVwork-up
p596
asg43
g44
sg45
Vhustle
p597
sbasg47
I00
sg48
g399
sbag1
(g2
g3
Ntp598
Rp599
(dp600
g7
VSpr B2W2 Guitarist.png
p601
sg9
VGuitarist
p602
sg11
VTina
p603
sg13
g1
(g366
g3
Ntp604
Rp605
(dp606
g370
g1
(g371
g372
(lp607
g1
(g374
g3
Ntp608
Rp609
(dp610
g378
V1056
p611
sbatp612
Rp613
(dp614
g383
(dp615
sbsbsg15
g107
sg17
g18
sg19
g20
sg21
g385
sg23
(lp616
g1
(g25
g3
Ntp617
Rp618
(dp619
g29
V552
p620
sg31
VKrokorok
p621
sg33
g34
sg35
V33
p622
sg37
(lp623
Vsand-tomb
p624
aVassurance
p625
aVembargo
p626
aVfoul-play
p627
asg43
g44
sg45
Vintimidate
p628
sbag1
(g25
g3
Ntp629
Rp630
(dp631
g29
V510
p632
sg31
VLiepard
p633
sg33
g34
sg35
V33
p634
sg37
(lp635
Vsucker-punch
p636
aVnight-slash
p637
aVnasty-plot
p638
aVhone-claws
p639
asg43
g44
sg45
Vlimber
p640
sbasg47
I00
sg48
g399
sbag1
(g2
g3
Ntp641
Rp642
(dp643
g7
VSpr BW Bianca.png
p644
sg9
VPokemon Trainer
p645
sg11
VBianca
p646
sg13
V2000
p647
sg15
I4
sg17
g18
sg19
g20
sg21
g22
sg23
(lp648
g1
(g25
g3
Ntp649
Rp650
(dp651
g29
I507
sg31
VHerdier
p652
sg33
g34
sg35
V18
p653
sg37
(lp654
VOdor Sleuth
p655
aVBite
p656
aVHelping Hand
p657
aVTake Down
p658
asg43
g44
sg45
VIntimidate
p659
sbag1
(g25
g3
Ntp660
Rp661
(dp662
g29
I513
sg31
VPansear
p663
sg33
g63
sg35
V18
p664
sg37
(lp665
VLick
p666
aVIncinerate
p667
aVFury Swipes
p668
aVYawn
p669
asg43
g44
sg45
VGluttony
p670
sbag1
(g25
g3
Ntp671
Rp672
(dp673
g29
I517
sg31
VMunna
p674
sg33
g34
sg35
V18
p675
sg37
(lp676
VYawn
p677
aVPsybeam
p678
aVImprison
p679
aVMoonlight
p680
asg43
g44
sg45
VForewarn
p681
sbag1
(g25
g3
Ntp682
Rp683
(dp684
g29
I502
sg31
VDewott
p685
sg33
g63
sg35
V20
p686
sg37
(lp687
VWater Sport
p688
aVFocus Energy
p689
aVRazor Shell
p690
aVFury Cutter
p691
asg43
g44
sg45
VTorrent
p692
sbasg47
I01
sg48
g49
sbag1
(g2
g3
Ntp693
Rp694
(dp695
g7
VSpr BW Bianca.png
p696
sg9
VPokemon Trainer
p697
sg11
VBianca
p698
sg13
V2000
p699
sg15
I4
sg17
g18
sg19
g20
sg21
g22
sg23
(lp700
g1
(g25
g3
Ntp701
Rp702
(dp703
g29
I507
sg31
VHerdier
p704
sg33
g34
sg35
V18
p705
sg37
(lp706
VOdor Sleuth
p707
aVBite
p708
aVHelping Hand
p709
aVTake Down
p710
asg43
g44
sg45
VIntimidate
p711
sbag1
(g25
g3
Ntp712
Rp713
(dp714
g29
I515
sg31
VPanpour
p715
sg33
g63
sg35
V18
p716
sg37
(lp717
VLick
p718
aVWater Gun
p719
aVFury Swipes
p720
aVWater Sport
p721
asg43
g44
sg45
VGluttony
p722
sbag1
(g25
g3
Ntp723
Rp724
(dp725
g29
I517
sg31
VMunna
p726
sg33
g34
sg35
V18
p727
sg37
(lp728
VYawn
p729
aVPsybeam
p730
aVImprison
p731
aVMoonlight
p732
asg43
g44
sg45
VForewarn
p733
sbag1
(g25
g3
Ntp734
Rp735
(dp736
g29
I496
sg31
VServine
p737
sg33
g63
sg35
V20
p738
sg37
(lp739
VWrap
p740
aVGrowth
p741
aVLeaf Tornado
p742
aVLeech Seed
p743
asg43
g44
sg45
VOvergrow
p744
sbasg47
I01
sg48
g49
sbag1
(g2
g3
Ntp745
Rp746
(dp747
g7
VSpr BW Bianca.png
p748
sg9
VPokemon Trainer
p749
sg11
VBianca
p750
sg13
V2000
p751
sg15
I4
sg17
g18
sg19
g20
sg21
g22
sg23
(lp752
g1
(g25
g3
Ntp753
Rp754
(dp755
g29
I507
sg31
VHerdier
p756
sg33
g34
sg35
V18
p757
sg37
(lp758
VOdor Sleuth
p759
aVBite
p760
aVHelping Hand
p761
aVTake Down
p762
asg43
g44
sg45
VIntimidate
p763
sbag1
(g25
g3
Ntp764
Rp765
(dp766
g29
I511
sg31
VPansage
p767
sg33
g63
sg35
V18
p768
sg37
(lp769
VLick
p770
aVVine Whip
p771
aVFury Swipes
p772
aVLeech Seed
p773
asg43
g44
sg45
VGluttony
p774
sbag1
(g25
g3
Ntp775
Rp776
(dp777
g29
I517
sg31
VMunna
p778
sg33
g34
sg35
V18
p779
sg37
(lp780
VYawn
p781
aVPsybeam
p782
aVImprison
p783
aVMoonlight
p784
asg43
g44
sg45
VForewarn
p785
sbag1
(g25
g3
Ntp786
Rp787
(dp788
g29
I499
sg31
VPignite
p789
sg33
g63
sg35
V20
p790
sg37
(lp791
VDefense Curl
p792
aVFlame Charge
p793
aVArm Thrust
p794
aVSmog
p795
asg43
g44
sg45
VBlaze
p796
sbasg47
I01
sg48
g49
sbag1
(g2
g3
Ntp797
Rp798
(dp799
g7
VSpr BW Veteran M.png
p800
sg9
VGAME FREAK
p801
sg11
VShigeki Morimoto
p802
sg13
V6160
p803
sg15
I6
sg17
g18
sg19
g20
sg21
g22
sg23
(lp804
g1
(g25
g3
Ntp805
Rp806
(dp807
g29
I510
sg31
VLiepard
p808
sg33
g63
sg35
V75
p809
sg37
(lp810
VFake Out
p811
aVGrass Knot
p812
aVNight Slash
p813
aVSucker Punch
p814
asg43
g44
sg45
VLimber
p815
sbag1
(g25
g3
Ntp816
Rp817
(dp818
g29
I516
sg31
VSimipour
p819
sg33
g63
sg35
V75
p820
sg37
(lp821
VSurf
p822
aVCrunch
p823
aVPayback
p824
aVAcrobatics
p825
asg43
VPetaya Berry
p826
sg45
VGluttony
p827
sbag1
(g25
g3
Ntp828
Rp829
(dp830
g29
I514
sg31
VSimisear
p831
sg33
g63
sg35
V75
p832
sg37
(lp833
VFlamethrower
p834
aVCrunch
p835
aVPayback
p836
aVAcrobatics
p837
asg43
VPetaya Berry
p838
sg45
VGluttony
p839
sbag1
(g25
g3
Ntp840
Rp841
(dp842
g29
I512
sg31
VSimisage
p843
sg33
g63
sg35
V75
p844
sg37
(lp845
VEnergy Ball
p846
aVCrunch
p847
aVPayback
p848
aVAcrobatics
p849
asg43
VPetaya Berry
p850
sg45
VGluttony
p851
sbag1
(g25
g3
Ntp852
Rp853
(dp854
g29
I528
sg31
VSwoobat
p855
sg33
g63
sg35
V75
p856
sg37
(lp857
VAir Slash
p858
aVEndeavor
p859
aVPsychic
p860
aVPsyshock
p861
asg43
g44
sg45
VUnaware
p862
sbag1
(g25
g3
Ntp863
Rp864
(dp865
g29
I523
sg31
VZebstrika
p866
sg33
g63
sg35
V77
p867
sg37
(lp868
VPursuit
p869
aVGiga Impact
p870
aVFlame Charge
p871
aVWild Charge
p872
asg43
g44
sg45
VLightningrod
p873
sbasg47
I01
sg48
g49
sbag1
(g2
g3
Ntp874
Rp875
(dp876
g7
VSpr B2W2 Veteran M.png
p877
sg9
VGAME FREAK
p878
sg11
VShigeki Morimoto
p879
sg13
g1
(g366
g3
Ntp880
Rp881
(dp882
g370
g1
(g371
g372
(lp883
g1
(g374
g3
Ntp884
Rp885
(dp886
g378
V1120
p887
sbatp888
Rp889
(dp890
g383
(dp891
sbsbsg15
I3
sg17
g18
sg19
g20
sg21
g385
sg23
(lp892
g1
(g25
g3
Ntp893
Rp894
(dp895
g29
I511
sg31
VPansage
p896
sg33
g63
sg35
g1
(g366
g3
Ntp897
Rp898
(dp899
g370
g1
(g371
g372
(lp900
g1
(g374
g3
Ntp901
Rp902
(dp903
g378
V14
p904
sbatp905
Rp906
(dp907
g383
(dp908
sbsbsg37
(lp909
VVine Whip
p910
aVLick
p911
aVFury Swipes
p912
asg43
VOran Berry
p913
sg45
VGluttony
p914
sbag1
(g25
g3
Ntp915
Rp916
(dp917
g29
I513
sg31
VPansear
p918
sg33
g63
sg35
g1
(g366
g3
Ntp919
Rp920
(dp921
g370
g1
(g371
g372
(lp922
g1
(g374
g3
Ntp923
Rp924
(dp925
g378
V14
p926
sbatp927
Rp928
(dp929
g383
(dp930
sbsbsg37
(lp931
VIncinerate
p932
aVLick
p933
aVFury Swipes
p934
asg43
VOran Berry
p935
sg45
VGluttony
p936
sbag1
(g25
g3
Ntp937
Rp938
(dp939
g29
I515
sg31
VPanpour
p940
sg33
g63
sg35
g1
(g366
g3
Ntp941
Rp942
(dp943
g370
g1
(g371
g372
(lp944
g1
(g374
g3
Ntp945
Rp946
(dp947
g378
V14
p948
sbatp949
Rp950
(dp951
g383
(dp952
sbsbsg37
(lp953
VWater Gun
p954
aVLick
p955
aVFury Swipes
p956
asg43
VOran Berry
p957
sg45
VGluttony
p958
sbasg47
I01
sg48
g399
sbag1
(g2
g3
Ntp959
Rp960
(dp961
g7
VSpr B2W2 Hiker.png
p962
sg9
VGAME FREAK
p963
sg11
VK\u014dji Nishino
p964
sg13
g1
(g366
g3
Ntp965
Rp966
(dp967
g370
g1
(g371
g372
(lp968
g1
(g374
g3
Ntp969
Rp970
(dp971
g378
V1280
p972
sbatp973
Rp974
(dp975
g383
(dp976
sbsbsg15
I1
sg17
g18
sg19
g20
sg21
g385
sg23
(lp977
g1
(g25
g3
Ntp978
Rp979
(dp980
g29
I35
sg31
VClefairy
p981
sg33
g34
sg35
g1
(g366
g3
Ntp982
Rp983
(dp984
g370
g1
(g371
g372
(lp985
g1
(g374
g3
Ntp986
Rp987
(dp988
g378
V16
p989
sbatp990
Rp991
(dp992
g383
(dp993
sbsbsg37
(lp994
VGrowl
p995
aVDoubleSlap
p996
aVFollow Me
p997
aVEncore
p998
asg43
VLeftovers
p999
sg45
VCute Charm
p1000
sbasg47
I01
sg48
g399
sbag1
(g2
g3
Ntp1001
Rp1002
(dp1003
g7
VSpr B2W2 Veteran M.png
p1004
sg9
VGAME FREAK
p1005
sg11
VShigeki Morimoto
p1006
sg13
g1
(g366
g3
Ntp1007
Rp1008
(dp1009
g370
g1
(g371
g372
(lp1010
g1
(g374
g3
Ntp1011
Rp1012
(dp1013
g378
V6240
p1014
sbatp1015
Rp1016
(dp1017
g383
(dp1018
sbsbsg15
I6
sg17
g18
sg19
g20
sg21
g385
sg23
(lp1019
g1
(g25
g3
Ntp1020
Rp1021
(dp1022
g29
I510
sg31
VLiepard
p1023
sg33
g63
sg35
g1
(g366
g3
Ntp1024
Rp1025
(dp1026
g370
g1
(g371
g372
(lp1027
g1
(g374
g3
Ntp1028
Rp1029
(dp1030
g378
V76
p1031
sbatp1032
Rp1033
(dp1034
g383
(dp1035
sbsbsg37
(lp1036
VFake Out
p1037
aVSucker Punch
p1038
aVNight Slash
p1039
aVGrass Knot
p1040
asg43
g44
sg45
VUnburden
p1041
sbag1
(g25
g3
Ntp1042
Rp1043
(dp1044
g29
I516
sg31
VSimipour
p1045
sg33
g63
sg35
g1
(g366
g3
Ntp1046
Rp1047
(dp1048
g370
g1
(g371
g372
(lp1049
g1
(g374
g3
Ntp1050
Rp1051
(dp1052
g378
V76
p1053
sbatp1054
Rp1055
(dp1056
g383
(dp1057
sbsbsg37
(lp1058
VSurf
p1059
aVCrunch
p1060
aVPayback
p1061
aVAcrobatics
p1062
asg43
VPetaya Berry
p1063
sg45
VGluttony
p1064
sbag1
(g25
g3
Ntp1065
Rp1066
(dp1067
g29
I514
sg31
VSimisear
p1068
sg33
g63
sg35
g1
(g366
g3
Ntp1069
Rp1070
(dp1071
g370
g1
(g371
g372
(lp1072
g1
(g374
g3
Ntp1073
Rp1074
(dp1075
g378
V76
p1076
sbatp1077
Rp1078
(dp1079
g383
(dp1080
sbsbsg37
(lp1081
VCrunch
p1082
aVFlamethrower
p1083
aVPayback
p1084
aVAcrobatics
p1085
asg43
VPetaya Berry
p1086
sg45
VGluttony
p1087
sbag1
(g25
g3
Ntp1088
Rp1089
(dp1090
g29
I512
sg31
VSimisage
p1091
sg33
g63
sg35
g1
(g366
g3
Ntp1092
Rp1093
(dp1094
g370
g1
(g371
g372
(lp1095
g1
(g374
g3
Ntp1096
Rp1097
(dp1098
g378
V76
p1099
sbatp1100
Rp1101
(dp1102
g383
(dp1103
sbsbsg37
(lp1104
VEnergy Ball
p1105
aVAcrobatics
p1106
aVPayback
p1107
aVCrunch
p1108
asg43
VPetaya Berry
p1109
sg45
VGluttony
p1110
sbag1
(g25
g3
Ntp1111
Rp1112
(dp1113
g29
I528
sg31
VSwoobat
p1114
sg33
g63
sg35
g1
(g366
g3
Ntp1115
Rp1116
(dp1117
g370
g1
(g371
g372
(lp1118
g1
(g374
g3
Ntp1119
Rp1120
(dp1121
g378
V76
p1122
sbatp1123
Rp1124
(dp1125
g383
(dp1126
sbsbsg37
(lp1127
VAir Slash
p1128
aVPsychic
p1129
aVPsyshock
p1130
aVEndeavor
p1131
asg43
g44
sg45
VUnaware
p1132
sbag1
(g25
g3
Ntp1133
Rp1134
(dp1135
g29
I523
sg31
VZebstrika
p1136
sg33
g63
sg35
g1
(g366
g3
Ntp1137
Rp1138
(dp1139
g370
g1
(g371
g372
(lp1140
g1
(g374
g3
Ntp1141
Rp1142
(dp1143
g378
V78
p1144
sbatp1145
Rp1146
(dp1147
g383
(dp1148
sbsbsg37
(lp1149
VPursuit
p1150
aVGiga Impact
p1151
aVFlame Charge
p1152
aVWild Charge
p1153
asg43
g44
sg45
VMotor Drive
p1154
sbasg47
I01
sg48
g399
sbag1
(g2
g3
Ntp1155
Rp1156
(dp1157
g7
VSpr B2W2 Hiker.png
p1158
sg9
VGAME FREAK
p1159
sg11
VK\u014dji Nishino
p1160
sg13
g1
(g366
g3
Ntp1161
Rp1162
(dp1163
g370
g1
(g371
g372
(lp1164
g1
(g374
g3
Ntp1165
Rp1166
(dp1167
g378
V6240
p1168
sbatp1169
Rp1170
(dp1171
g383
(dp1172
sbsbsg15
I6
sg17
g18
sg19
g20
sg21
g385
sg23
(lp1173
g1
(g25
g3
Ntp1174
Rp1175
(dp1176
g29
I36
sg31
VClefable
p1177
sg33
g34
sg35
g1
(g366
g3
Ntp1178
Rp1179
(dp1180
g370
g1
(g371
g372
(lp1181
g1
(g374
g3
Ntp1182
Rp1183
(dp1184
g378
V76
p1185
sbatp1186
Rp1187
(dp1188
g383
(dp1189
sbsbsg37
(lp1190
VCosmic Power
p1191
aVSing
p1192
aVMetronome
p1193
aVStored Power
p1194
asg43
VLeftovers
p1195
sg45
VCute Charm
p1196
sbag1
(g25
g3
Ntp1197
Rp1198
(dp1199
g29
I184
sg31
VAzumarill
p1200
sg33
g63
sg35
g1
(g366
g3
Ntp1201
Rp1202
(dp1203
g370
g1
(g371
g372
(lp1204
g1
(g374
g3
Ntp1205
Rp1206
(dp1207
g378
V76
p1208
sbatp1209
Rp1210
(dp1211
g383
(dp1212
sbsbsg37
(lp1213
VDouble-Edge
p1214
aVAqua Tail
p1215
aVSuperpower
p1216
aVBulldoze
p1217
asg43
VLeftovers
p1218
sg45
VHuge Power
p1219
sbag1
(g25
g3
Ntp1220
Rp1221
(dp1222
g29
I463
sg31
VLickilicky
p1223
sg33
g63
sg35
g1
(g366
g3
Ntp1224
Rp1225
(dp1226
g370
g1
(g371
g372
(lp1227
g1
(g374
g3
Ntp1228
Rp1229
(dp1230
g378
V76
p1231
sbatp1232
Rp1233
(dp1234
g383
(dp1235
sbsbsg37
(lp1236
VFire Blast
p1237
aVEarthquake
p1238
aVBlizzard
p1239
aVPower Whip
p1240
asg43
VLeftovers
p1241
sg45
VOwn Tempo
p1242
sbag1
(g25
g3
Ntp1243
Rp1244
(dp1245
g29
I40
sg31
VWigglytuff
p1246
sg33
g34
sg35
g1
(g366
g3
Ntp1247
Rp1248
(dp1249
g370
g1
(g371
g372
(lp1250
g1
(g374
g3
Ntp1251
Rp1252
(dp1253
g378
V76
p1254
sbatp1255
Rp1256
(dp1257
g383
(dp1258
sbsbsg37
(lp1259
VFlamethrower
p1260
aVHyper Voice
p1261
aVThunderbolt
p1262
aVIce Beam
p1263
asg43
VLeftovers
p1264
sg45
VCute Charm
p1265
sbag1
(g25
g3
Ntp1266
Rp1267
(dp1268
g29
I594
sg31
VAlomomola
p1269
sg33
g63
sg35
g1
(g366
g3
Ntp1270
Rp1271
(dp1272
g370
g1
(g371
g372
(lp1273
g1
(g374
g3
Ntp1274
Rp1275
(dp1276
g378
V76
p1277
sbatp1278
Rp1279
(dp1280
g383
(dp1281
sbsbsg37
(lp1282
VWish
p1283
aVToxic
p1284
aVProtect
p1285
aVAqua Jet
p1286
asg43
VLeftovers
p1287
sg45
VHydration
p1288
sbag1
(g25
g3
Ntp1289
Rp1290
(dp1291
g29
I143
sg31
VSnorlax
p1292
sg33
g63
sg35
g1
(g366
g3
Ntp1293
Rp1294
(dp1295
g370
g1
(g371
g372
(lp1296
g1
(g374
g3
Ntp1297
Rp1298
(dp1299
g378
V78
p1300
sbatp1301
Rp1302
(dp1303
g383
(dp1304
sbsbsg37
(lp1305
VBody Slam
p1306
aVYawn
p1307
aVSuperpower
p1308
aVCrunch
p1309
asg43
VLeftovers
p1310
sg45
VThick Fat
p1311
sbasg47
I01
sg48
g399
sba.