(lp0
ccopy_reg
_reconstructor
p1
(c__main__
Trainer
p2
c__builtin__
object
p3
Ntp4
Rp5
(dp6
VtSprite
p7
VSpr RG Lass.png
p8
sVtClass
p9
VLass
p10
sVtName
p11
V
p12
sVtMoney
p13
V345
p14
sVtPokeCount
p15
V2
p16
sVtLocation
p17
Vwiki/Celadon_Gym
p18
sVtRegion
p19
VKanto
p20
sVtGame
p21
VRGB
p22
sVtPokes
p23
(lp24
g1
(c__main__
FinishedPokemon
p25
g3
Ntp26
Rp27
(dp28
VpDexNo
p29
V069
p30
sVpSpecies
p31
VBellsprout
p32
sVpGender
p33
VU
p34
sVpLevel
p35
V23
p36
sVpMoves
p37
(lp38
Vrazor-leaf
p39
aVpoison-powder
p40
aVstun-spore
p41
aVsleep-powder
p42
asVpHold
p43
g12
sVpAbility
p44
Vchlorophyll
p45
sbag1
(g25
g3
Ntp46
Rp47
(dp48
g29
V070
p49
sg31
VWeepinbell
p50
sg33
g34
sg35
V23
p51
sg37
(lp52
Vrazor-leaf
p53
aVpoison-powder
p54
aVstun-spore
p55
aVsleep-powder
p56
asg43
g12
sg44
Vchlorophyll
p57
sbasVbossFlag
p58
I00
sVtLongGame
p59
Vred-blue
p60
sbag1
(g2
g3
Ntp61
Rp62
(dp63
g7
VSpr RG Beauty.png
p64
sg9
VBeauty
p65
sg11
g12
sg13
V1470
p66
sg15
V4
p67
sg17
g18
sg19
g20
sg21
g22
sg23
(lp68
g1
(g25
g3
Ntp69
Rp70
(dp71
g29
V043
p72
sg31
VOddish
p73
sg33
g34
sg35
V21
p74
sg37
(lp75
Vpoison-powder
p76
aVstun-spore
p77
aVsleep-powder
p78
aVpetal-dance
p79
asg43
g12
sg44
Vchlorophyll
p80
sbag1
(g25
g3
Ntp81
Rp82
(dp83
g29
V069
p84
sg31
VBellsprout
p85
sg33
g34
sg35
V21
p86
sg37
(lp87
Vrazor-leaf
p88
aVpoison-powder
p89
aVstun-spore
p90
aVsleep-powder
p91
asg43
g12
sg44
Vchlorophyll
p92
sbag1
(g25
g3
Ntp93
Rp94
(dp95
g29
V043
p96
sg31
VOddish
p97
sg33
g34
sg35
V21
p98
sg37
(lp99
Vpoison-powder
p100
aVstun-spore
p101
aVsleep-powder
p102
aVpetal-dance
p103
asg43
g12
sg44
Vchlorophyll
p104
sbag1
(g25
g3
Ntp105
Rp106
(dp107
g29
V069
p108
sg31
VBellsprout
p109
sg33
g34
sg35
V21
p110
sg37
(lp111
Vrazor-leaf
p112
aVpoison-powder
p113
aVstun-spore
p114
aVsleep-powder
p115
asg43
g12
sg44
Vchlorophyll
p116
sbasg58
I00
sg59
g60
sbag1
(g2
g3
Ntp117
Rp118
(dp119
g7
VSpr RG Beauty.png
p120
sg9
VBeauty
p121
sg11
g12
sg13
V1680
p122
sg15
g16
sg17
g18
sg19
g20
sg21
g22
sg23
(lp123
g1
(g25
g3
Ntp124
Rp125
(dp126
g29
V069
p127
sg31
VBellsprout
p128
sg33
g34
sg35
V24
p129
sg37
(lp130
Vrazor-leaf
p131
aVpoison-powder
p132
aVstun-spore
p133
aVsleep-powder
p134
asg43
g12
sg44
Vchlorophyll
p135
sbag1
(g25
g3
Ntp136
Rp137
(dp138
g29
V069
p139
sg31
VBellsprout
p140
sg33
g34
sg35
V24
p141
sg37
(lp142
Vrazor-leaf
p143
aVpoison-powder
p144
aVstun-spore
p145
aVsleep-powder
p146
asg43
g12
sg44
Vchlorophyll
p147
sbasg58
I00
sg59
g60
sbag1
(g2
g3
Ntp148
Rp149
(dp150
g7
VSpr RG Jr Trainer F.png
p151
sg9
VJr. Trainer\u2640
p152
sg11
g12
sg13
V480
p153
sg15
g16
sg17
g18
sg19
g20
sg21
g22
sg23
(lp154
g1
(g25
g3
Ntp155
Rp156
(dp157
g29
V001
p158
sg31
VBulbasaur
p159
sg33
g34
sg35
V24
p160
sg37
(lp161
Vrazor-leaf
p162
aVsolar-beam
p163
aVpoison-powder
p164
aVsleep-powder
p165
asg43
g12
sg44
Vovergrow
p166
sbag1
(g25
g3
Ntp167
Rp168
(dp169
g29
V002
p170
sg31
VIvysaur
p171
sg33
g34
sg35
V24
p172
sg37
(lp173
Vrazor-leaf
p174
aVsolar-beam
p175
aVpoison-powder
p176
aVsleep-powder
p177
asg43
g12
sg44
Vovergrow
p178
sbasg58
I00
sg59
g60
sbag1
(g2
g3
Ntp179
Rp180
(dp181
g7
VSpr RG Beauty.png
p182
sg9
VBeauty
p183
sg11
g12
sg13
V1820
p184
sg15
V1
p185
sg17
g18
sg19
g20
sg21
g22
sg23
(lp186
g1
(g25
g3
Ntp187
Rp188
(dp189
g29
V102
p190
sg31
VExeggcute
p191
sg33
g34
sg35
V26
p192
sg37
(lp193
Vsleep-powder
p194
aVhypnosis
p195
aVreflect
p196
aVbarrage
p197
asg43
g12
sg44
Vchlorophyll
p198
sbasg58
I00
sg59
g60
sbag1
(g2
g3
Ntp199
Rp200
(dp201
g7
VSpr RG Cooltrainer F.png
p202
sg9
VCooltrainer
p203
sg11
g12
sg13
V840
p204
sg15
V3
p205
sg17
g18
sg19
g20
sg21
g22
sg23
(lp206
g1
(g25
g3
Ntp207
Rp208
(dp209
g29
V070
p210
sg31
VWeepinbell
p211
sg33
g34
sg35
V24
p212
sg37
(lp213
Vrazor-leaf
p214
aVpoison-powder
p215
aVstun-spore
p216
aVsleep-powder
p217
asg43
g12
sg44
Vchlorophyll
p218
sbag1
(g25
g3
Ntp219
Rp220
(dp221
g29
V044
p222
sg31
VGloom
p223
sg33
g34
sg35
V24
p224
sg37
(lp225
Vstun-spore
p226
ag226
aVsleep-powder
p227
aVpetal-dance
p228
asg43
g12
sg44
Vchlorophyll
p229
sbag1
(g25
g3
Ntp230
Rp231
(dp232
g29
V002
p233
sg31
VIvysaur
p234
sg33
g34
sg35
V24
p235
sg37
(lp236
Vrazor-leaf
p237
aVsolar-beam
p238
aVpoison-powder
p239
aVsleep-powder
p240
asg43
g12
sg44
Vovergrow
p241
sbasg58
I00
sg59
g60
sbag1
(g2
g3
Ntp242
Rp243
(dp244
g7
VSpr RG Lass.png
p245
sg9
VLass
p246
sg11
g12
sg13
V345
p247
sg15
g16
sg17
g18
sg19
g20
sg21
g22
sg23
(lp248
g1
(g25
g3
Ntp249
Rp250
(dp251
g29
V043
p252
sg31
VOddish
p253
sg33
g34
sg35
V23
p254
sg37
(lp255
Vpoison-powder
p256
aVstun-spore
p257
aVsleep-powder
p258
aVpetal-dance
p259
asg43
g12
sg44
Vchlorophyll
p260
sbag1
(g25
g3
Ntp261
Rp262
(dp263
g29
V044
p264
sg31
VGloom
p265
sg33
g34
sg35
V23
p266
sg37
(lp267
Vstun-spore
p268
ag268
aVsleep-powder
p269
aVpetal-dance
p270
asg43
g12
sg44
Vchlorophyll
p271
sbasg58
I00
sg59
g60
sbag1
(g2
g3
Ntp272
Rp273
(dp274
g7
VSpr GS Twins.png
p275
sg9
VTwins
p276
sg11
VJo & Zoe
p277
sg13
V700
p278
sg15
g16
sg17
g18
sg19
g20
sg21
VGS
p279
sg23
(lp280
g1
(g25
g3
Ntp281
Rp282
(dp283
g29
V071
p284
sg31
VVictreebel
p285
sg33
VF
p286
sg35
V35
p287
sg37
(lp288
Vvine-whip
p289
aVrazor-leaf
p290
aVsleep-powder
p291
aVsweet-scent
p292
asg43
g12
sg44
Vchlorophyll
p293
sbag1
(g25
g3
Ntp294
Rp295
(dp296
g29
V045
p297
sg31
VVileplume
p298
sg33
g286
sg35
V35
p299
sg37
(lp300
Vabsorb
p301
aVstun-spore
p302
aVpetal-dance
p303
aVsweet-scent
p304
asg43
g12
sg44
Vchlorophyll
p305
sbasg58
I00
sg59
Vgold-silver
p306
sbag1
(g2
g3
Ntp307
Rp308
(dp309
g7
VSpr GS Picnicker.png
p310
sg9
VPicnicker
p311
sg11
VTanya
p312
sg13
V740
p313
sg15
g185
sg17
g18
sg19
g20
sg21
g279
sg23
(lp314
g1
(g25
g3
Ntp315
Rp316
(dp317
g29
V103
p318
sg31
VExeggutor
p319
sg33
g286
sg35
V37
p320
sg37
(lp321
Vconfusion
p322
aVhypnosis
p323
aVegg-bomb
p324
aVbarrage
p325
asg43
g12
sg44
Vchlorophyll
p326
sbasg58
I00
sg59
g306
sbag1
(g2
g3
Ntp327
Rp328
(dp329
g7
VSpr GS Lass.png
p330
sg9
VLass
p331
sg11
VMichelle
p332
sg13
V816
p333
sg15
g205
sg17
g18
sg19
g20
sg21
g279
sg23
(lp334
g1
(g25
g3
Ntp335
Rp336
(dp337
g29
V188
p338
sg31
VSkiploom
p339
sg33
g286
sg35
V32
p340
sg37
(lp341
Vsleep-powder
p342
aVsplash
p343
aVcotton-spore
p344
aVsynthesis
p345
asg43
g12
sg44
Vchlorophyll
p346
sbag1
(g25
g3
Ntp347
Rp348
(dp349
g29
V187
p350
sg31
VHoppip
p351
sg33
g286
sg35
V33
p352
sg37
(lp353
Vsleep-powder
p354
aVsplash
p355
aVcotton-spore
p356
aVsynthesis
p357
asg43
g12
sg44
Vchlorophyll
p358
sbag1
(g25
g3
Ntp359
Rp360
(dp361
g29
V189
p362
sg31
VJumpluff
p363
sg33
g286
sg35
V34
p364
sg37
(lp365
Vsleep-powder
p366
aVsplash
p367
aVcotton-spore
p368
aVsynthesis
p369
asg43
g12
sg44
Vchlorophyll
p370
sbasg58
I00
sg59
g306
sbag1
(g2
g3
Ntp371
Rp372
(dp373
g7
VSpr GS Beauty.png
p374
sg9
VBeauty
p375
sg11
VJulia
p376
sg13
V3080
p377
sg15
g205
sg17
g18
sg19
g20
sg21
g279
sg23
(lp378
g1
(g25
g3
Ntp379
Rp380
(dp381
g29
V046
p382
sg31
VParas
p383
sg33
g286
sg35
V32
p384
sg37
(lp385
Vleech-life
p386
aVspore
p387
aVslash
p388
aVgiga-drain
p389
asg43
g12
sg44
Vdry-skin
p390
sbag1
(g25
g3
Ntp391
Rp392
(dp393
g29
V102
p394
sg31
VExeggcute
p395
sg33
g286
sg35
V32
p396
sg37
(lp397
Vconfusion
p398
aVhypnosis
p399
aVreflect
p400
aVbarrage
p401
asg43
g12
sg44
Vchlorophyll
p402
sbag1
(g25
g3
Ntp403
Rp404
(dp405
g29
V047
p406
sg31
VParasect
p407
sg33
g286
sg35
V35
p408
sg37
(lp409
Vleech-life
p410
aVspore
p411
aVslash
p412
aVgiga-drain
p413
asg43
g12
sg44
Vdry-skin
p414
sbasg58
I00
sg59
g306
sbag1
(g2
g3
Ntp415
Rp416
(dp417
g7
VSpr FRLG Lass.png
p418
sg9
VLass
p419
sg11
VKay
p420
sg13
V368
p421
sg15
g16
sg17
g18
sg19
g20
sg21
VFRLG
p422
sg23
(lp423
g1
(g25
g3
Ntp424
Rp425
(dp426
g29
V069
p427
sg31
VBellsprout
p428
sg33
g286
sg35
V23
p429
sg37
(lp430
Vpoison-powder
p431
aVstun-spore
p432
aVsleep-powder
p433
aVsweet-scent
p434
asg43
g12
sg44
Vchlorophyll
p435
sbag1
(g25
g3
Ntp436
Rp437
(dp438
g29
V070
p439
sg31
VWeepinbell
p440
sg33
g286
sg35
V23
p441
sg37
(lp442
Vpoison-powder
p443
aVstun-spore
p444
aVsleep-powder
p445
aVsweet-scent
p446
asg43
g12
sg44
Vchlorophyll
p447
sbasg58
I00
sg59
Vfirered-leafgreen
p448
sbag1
(g2
g3
Ntp449
Rp450
(dp451
g7
VSpr FRLG Beauty.png
p452
sg9
VBeauty
p453
sg11
VBridget
p454
sg13
V1512
p455
sg15
g67
sg17
g18
sg19
g20
sg21
g422
sg23
(lp456
g1
(g25
g3
Ntp457
Rp458
(dp459
g29
V043
p460
sg31
VOddish
p461
sg33
g286
sg35
V21
p462
sg37
(lp463
Vsleep-powder
p464
aVpetal-dance
p465
aVsweet-scent
p466
aVmoonlight
p467
asg43
g12
sg44
Vchlorophyll
p468
sbag1
(g25
g3
Ntp469
Rp470
(dp471
g29
V043
p472
sg31
VOddish
p473
sg33
g286
sg35
V21
p474
sg37
(lp475
Vsleep-powder
p476
aVpetal-dance
p477
aVsweet-scent
p478
aVmoonlight
p479
asg43
g12
sg44
Vchlorophyll
p480
sbag1
(g25
g3
Ntp481
Rp482
(dp483
g29
V069
p484
sg31
VBellsprout
p485
sg33
g286
sg35
V21
p486
sg37
(lp487
Vpoison-powder
p488
aVstun-spore
p489
aVsleep-powder
p490
aVsweet-scent
p491
asg43
g12
sg44
Vchlorophyll
p492
sbag1
(g25
g3
Ntp493
Rp494
(dp495
g29
V069
p496
sg31
VBellsprout
p497
sg33
g286
sg35
V21
p498
sg37
(lp499
Vpoison-powder
p500
aVstun-spore
p501
aVsleep-powder
p502
aVsweet-scent
p503
asg43
g12
sg44
Vchlorophyll
p504
sbasg58
I00
sg59
g448
sbag1
(g2
g3
Ntp505
Rp506
(dp507
g7
VSpr FRLG Cooltrainer F.png
p508
sg9
VCooltrainer
p509
sg11
VMary
p510
sg13
V792
p511
sg15
V5
p512
sg17
g18
sg19
g20
sg21
g422
sg23
(lp513
g1
(g25
g3
Ntp514
Rp515
(dp516
g29
V069
p517
sg31
VBellsprout
p518
sg33
g286
sg35
V22
p519
sg37
(lp520
Vpoison-powder
p521
aVstun-spore
p522
aVsleep-powder
p523
aVsweet-scent
p524
asg43
g12
sg44
Vchlorophyll
p525
sbag1
(g25
g3
Ntp526
Rp527
(dp528
g29
V043
p529
sg31
VOddish
p530
sg33
g286
sg35
V22
p531
sg37
(lp532
Vsleep-powder
p533
aVpetal-dance
p534
aVsweet-scent
p535
aVmoonlight
p536
asg43
g12
sg44
Vchlorophyll
p537
sbag1
(g25
g3
Ntp538
Rp539
(dp540
g29
V070
p541
sg31
VWeepinbell
p542
sg33
g286
sg35
V22
p543
sg37
(lp544
Vpoison-powder
p545
aVstun-spore
p546
aVsleep-powder
p547
aVsweet-scent
p548
asg43
g12
sg44
Vchlorophyll
p549
sbag1
(g25
g3
Ntp550
Rp551
(dp552
g29
V044
p553
sg31
VGloom
p554
sg33
g286
sg35
V22
p555
sg37
(lp556
Vpetal-dance
p557
aVsweet-scent
p558
ag558
aVmoonlight
p559
asg43
g12
sg44
Vchlorophyll
p560
sbag1
(g25
g3
Ntp561
Rp562
(dp563
g29
V002
p564
sg31
VIvysaur
p565
sg33
VM
p566
sg35
V22
p567
sg37
(lp568
Vpoison-powder
p569
aVsleep-powder
p570
aVsweet-scent
p571
aVsynthesis
p572
asg43
g12
sg44
Vovergrow
p573
sbasg58
I00
sg59
g448
sbag1
(g2
g3
Ntp574
Rp575
(dp576
g7
VSpr FRLG Lass.png
p577
sg9
VLass
p578
sg11
VLisa
p579
sg13
V368
p580
sg15
g16
sg17
g18
sg19
g20
sg21
g422
sg23
(lp581
g1
(g25
g3
Ntp582
Rp583
(dp584
g29
V043
p585
sg31
VOddish
p586
sg33
g286
sg35
V23
p587
sg37
(lp588
Vsleep-powder
p589
aVpetal-dance
p590
aVsweet-scent
p591
aVmoonlight
p592
asg43
g12
sg44
Vchlorophyll
p593
sbag1
(g25
g3
Ntp594
Rp595
(dp596
g29
V044
p597
sg31
VGloom
p598
sg33
g286
sg35
V23
p599
sg37
(lp600
Vpetal-dance
p601
aVsweet-scent
p602
ag602
aVmoonlight
p603
asg43
g12
sg44
Vchlorophyll
p604
sbasg58
I00
sg59
g448
sbag1
(g2
g3
Ntp605
Rp606
(dp607
g7
VSpr FRLG Picnicker.png
p608
sg9
VPicnicker
p609
sg11
VTina
p610
sg13
V480
p611
sg15
g16
sg17
g18
sg19
g20
sg21
g422
sg23
(lp612
g1
(g25
g3
Ntp613
Rp614
(dp615
g29
V001
p616
sg31
VBulbasaur
p617
sg33
g566
sg35
V24
p618
sg37
(lp619
Vpoison-powder
p620
aVsleep-powder
p621
aVsweet-scent
p622
aVsynthesis
p623
asg43
g12
sg44
Vovergrow
p624
sbag1
(g25
g3
Ntp625
Rp626
(dp627
g29
V002
p628
sg31
VIvysaur
p629
sg33
g566
sg35
V24
p630
sg37
(lp631
Vpoison-powder
p632
aVsleep-powder
p633
aVsweet-scent
p634
aVsynthesis
p635
asg43
g12
sg44
Vovergrow
p636
sbasg58
I00
sg59
g448
sbag1
(g2
g3
Ntp637
Rp638
(dp639
g7
VSpr FRLG Beauty.png
p640
sg9
VBeauty
p641
sg11
VLori
p642
sg13
V1728
p643
sg15
g185
sg17
g18
sg19
g20
sg21
g422
sg23
(lp644
g1
(g25
g3
Ntp645
Rp646
(dp647
g29
V102
p648
sg31
VExeggcute
p649
sg33
g286
sg35
V24
p650
sg37
(lp651
Vhypnosis
p652
aVreflect
p653
aVbarrage
p654
aVuproar
p655
asg43
g12
sg44
Vchlorophyll
p656
sbasg58
I00
sg59
g448
sbag1
(g2
g3
Ntp657
Rp658
(dp659
g7
VSpr FRLG Beauty.png
p660
sg9
VBeauty
p661
sg11
VTamia
p662
sg13
V1728
p663
sg15
g16
sg17
g18
sg19
g20
sg21
g422
sg23
(lp664
g1
(g25
g3
Ntp665
Rp666
(dp667
g29
V069
p668
sg31
VBellsprout
p669
sg33
g286
sg35
V24
p670
sg37
(lp671
Vpoison-powder
p672
aVstun-spore
p673
aVsleep-powder
p674
aVsweet-scent
p675
asg43
g12
sg44
Vchlorophyll
p676
sbag1
(g25
g3
Ntp677
Rp678
(dp679
g29
V069
p680
sg31
VBellsprout
p681
sg33
g286
sg35
V24
p682
sg37
(lp683
Vpoison-powder
p684
aVstun-spore
p685
aVsleep-powder
p686
aVsweet-scent
p687
asg43
g12
sg44
Vchlorophyll
p688
sbasg58
I00
sg59
g448
sbag1
(g2
g3
Ntp689
Rp690
(dp691
g7
VSpr HGSS Twins.png
p692
sg9
VTwins
p693
sg11
VJo & Zoe
p694
sg13
V1504
p695
sg15
g16
sg17
g18
sg19
g20
sg21
VHGSS
p696
sg23
(lp697
g1
(g25
g3
Ntp698
Rp699
(dp700
g29
V071
p701
sg31
VVictreebel
p702
sg33
g286
sg35
V47
p703
sg37
(lp704
Vspit-up
p705
aVswallow
p706
aVleaf-blade
p707
aVleaf-storm
p708
asg43
g12
sg44
Vchlorophyll
p709
sbag1
(g25
g3
Ntp710
Rp711
(dp712
g29
V045
p713
sg31
VVileplume
p714
sg33
g286
sg35
V47
p715
sg37
(lp716
Vpoison-powder
p717
aVstun-spore
p718
aVpetal-dance
p719
aVaromatherapy
p720
asg43
g12
sg44
Vchlorophyll
p721
sbasg58
I00
sg59
Vheartgold-soulsilver
p722
sbag1
(g2
g3
Ntp723
Rp724
(dp725
g7
VSpr HGSS Lass.png
p726
sg9
VLass
p727
sg11
VMichelle
p728
sg13
V736
p729
sg15
g205
sg17
g18
sg19
g20
sg21
g696
sg23
(lp730
g1
(g25
g3
Ntp731
Rp732
(dp733
g29
V188
p734
sg31
VSkiploom
p735
sg33
g286
sg35
V44
p736
sg37
(lp737
Vbullet-seed
p738
aVbounce
p739
aVu-turn
p740
aVworry-seed
p741
asg43
g12
sg44
Vleaf-guard
p742
sbag1
(g25
g3
Ntp743
Rp744
(dp745
g29
V187
p746
sg31
VHoppip
p747
sg33
g286
sg35
V45
p748
sg37
(lp749
Vbullet-seed
p750
aVbounce
p751
aVu-turn
p752
aVworry-seed
p753
asg43
g12
sg44
Vleaf-guard
p754
sbag1
(g25
g3
Ntp755
Rp756
(dp757
g29
V189
p758
sg31
VJumpluff
p759
sg33
g286
sg35
V46
p760
sg37
(lp761
Vbullet-seed
p762
aVbounce
p763
aVu-turn
p764
aVworry-seed
p765
asg43
g12
sg44
Vleaf-guard
p766
sbasg58
I00
sg59
g722
sbag1
(g2
g3
Ntp767
Rp768
(dp769
g7
VSpr DP Picnicker.png
p770
sg9
VPicnicker
p771
sg11
VTanya
p772
sg13
V784
p773
sg15
g185
sg17
g18
sg19
g20
sg21
VDP
p774
sg23
(lp775
g1
(g25
g3
Ntp776
Rp777
(dp778
g29
V103
p779
sg31
VExeggutor
p780
sg33
g286
sg35
V49
p781
sg37
(lp782
Vbarrage
p783
aVseed-bomb
p784
aVleaf-storm
p785
aVwood-hammer
p786
asg43
g12
sg44
Vchlorophyll
p787
sbasg58
I00
sg59
Vdiamond-pearl
p788
sbag1
(g2
g3
Ntp789
Rp790
(dp791
g7
VSpr HGSS Beauty.png
p792
sg9
VBeauty
p793
sg11
VJulia
p794
sg13
V2632
p795
sg15
g205
sg17
g18
sg19
g20
sg21
g696
sg23
(lp796
g1
(g25
g3
Ntp797
Rp798
(dp799
g29
V046
p800
sg31
VParas
p801
sg33
g286
sg35
V44
p802
sg37
(lp803
Vslash
p804
aVgiga-drain
p805
aVaromatherapy
p806
aVx-scissor
p807
asg43
g12
sg44
Vdry-skin
p808
sbag1
(g25
g3
Ntp809
Rp810
(dp811
g29
V455
p812
sg31
VCarnivine
p813
sg33
g286
sg35
V44
p814
sg37
(lp815
Vswallow
p816
aVingrain
p817
aVwring-out
p818
aVpower-whip
p819
asg43
g12
sg44
Vlevitate
p820
sbag1
(g25
g3
Ntp821
Rp822
(dp823
g29
V047
p824
sg31
VParasect
p825
sg33
g286
sg35
V47
p826
sg37
(lp827
Vgiga-drain
p828
aVaromatherapy
p829
aVx-scissor
p830
aVcross-poison
p831
asg43
g12
sg44
Veffect-spore
p832
sbasg58
I00
sg59
g722
sbag1
(g2
g3
Ntp833
Rp834
(dp835
g7
VVSLass PE.png
p836
sg9
VLass
p837
sg11
VKay
p838
sg13
V560
p839
sg15
g185
sg17
g18
sg19
g20
sg21
VLGPE
p840
sg23
(lp841
g1
(g25
g3
Ntp842
Rp843
(dp844
g29
V043
p845
sg31
VOddish
p846
sg33
g286
sg35
V28
p847
sg37
(lp848
Vnatural-gift
p849
aVlucky-chant
p850
aVgrassy-terrain
p851
aVmoonblast
p852
asg43
g12
sg44
Vchlorophyll
p853
sbasg58
I00
sg59
Vsun-moon
p854
sbag1
(g2
g3
Ntp855
Rp856
(dp857
g7
VVSBeauty PE.png
p858
sg9
VBeauty
p859
sg11
VMai
p860
sg13
V1,740
p861
sg15
g185
sg17
g18
sg19
g20
sg21
g840
sg23
(lp862
g1
(g25
g3
Ntp863
Rp864
(dp865
g29
V102
p866
sg31
VExeggcute
p867
sg33
g286
sg35
V29
p868
sg37
(lp869
Vbullet-seed
p870
aVnatural-gift
p871
aVworry-seed
p872
aVbestow
p873
asg43
g12
sg44
Vchlorophyll
p874
sbasg58
I00
sg59
g854
sbag1
(g2
g3
Ntp875
Rp876
(dp877
g7
VVSPicnicker PE.png
p878
sg9
VPicnicker
p879
sg11
VTina
p880
sg13
V580
p881
sg15
g185
sg17
g18
sg19
g20
sg21
g840
sg23
(lp882
g1
(g25
g3
Ntp883
Rp884
(dp885
g29
V044
p886
sg31
VGloom
p887
sg33
g286
sg35
V29
p888
sg37
(lp889
Vnatural-gift
p890
aVlucky-chant
p891
aVpetal-blizzard
p892
aVgrassy-terrain
p893
asg43
g12
sg44
Vchlorophyll
p894
sbasg58
I00
sg59
g854
sbag1
(g2
g3
Ntp895
Rp896
(dp897
g7
VVSBeauty PE.png
p898
sg9
VBeauty
p899
sg11
VTamia
p900
sg13
V1,740
p901
sg15
g16
sg17
g18
sg19
g20
sg21
g840
sg23
(lp902
g1
(g25
g3
Ntp903
Rp904
(dp905
g29
V043
p906
sg31
VOddish
p907
sg33
g286
sg35
V29
p908
sg37
(lp909
Vnatural-gift
p910
aVlucky-chant
p911
aVgrassy-terrain
p912
aVmoonblast
p913
asg43
g12
sg44
Vchlorophyll
p914
sbag1
(g25
g3
Ntp915
Rp916
(dp917
g29
V070
p918
sg31
VWeepinbell
p919
sg33
g286
sg35
V29
p920
sg37
(lp921
Vknock-off
p922
aVwring-out
p923
aVgastro-acid
p924
aVpoison-jab
p925
asg43
g12
sg44
Vchlorophyll
p926
sbasg58
I00
sg59
g854
sbag1
(g2
g3
Ntp927
Rp928
(dp929
g7
VVSBeauty PE.png
p930
sg9
VBeauty
p931
sg11
VLori
p932
sg13
V1,740
p933
sg15
g185
sg17
g18
sg19
g20
sg21
g840
sg23
(lp934
g1
(g25
g3
Ntp935
Rp936
(dp937
g29
V044
p938
sg31
VGloom
p939
sg33
g286
sg35
V29
p940
sg37
(lp941
Vnatural-gift
p942
aVlucky-chant
p943
aVpetal-blizzard
p944
aVgrassy-terrain
p945
asg43
g12
sg44
Vchlorophyll
p946
sbasg58
I00
sg59
g854
sbag1
(g2
g3
Ntp947
Rp948
(dp949
g7
VVSAce Trainer F PE.png
p950
sg9
VAce Trainer
p951
sg11
VMary
p952
sg13
V3,200
p953
sg15
g16
sg17
g18
sg19
g20
sg21
g840
sg23
(lp954
g1
(g25
g3
Ntp955
Rp956
(dp957
g29
V070
p958
sg31
VWeepinbell
p959
sg33
g286
sg35
V31
p960
sg37
(lp961
Vknock-off
p962
aVwring-out
p963
aVgastro-acid
p964
aVpoison-jab
p965
asg43
g12
sg44
Vchlorophyll
p966
sbag1
(g25
g3
Ntp967
Rp968
(dp969
g29
V114
p970
sg31
VTangela
p971
sg33
g286
sg35
V32
p972
sg37
(lp973
Vnatural-gift
p974
aVwring-out
p975
aVpower-whip
p976
aVgrassy-terrain
p977
asg43
g12
sg44
Vchlorophyll
p978
sbasg58
I00
sg59
g854
sbag1
(g2
g3
Ntp979
Rp980
(dp981
g7
VVSLass PE.png
p982
sg9
VLass
p983
sg11
VLina
p984
sg13
V560
p985
sg15
g205
sg17
g18
sg19
g20
sg21
g840
sg23
(lp986
g1
(g25
g3
Ntp987
Rp988
(dp989
g29
V069
p990
sg31
VBellsprout
p991
sg33
g286
sg35
V28
p992
sg37
(lp993
Vknock-off
p994
aVwring-out
p995
aVgastro-acid
p996
aVpoison-jab
p997
asg43
g12
sg44
Vchlorophyll
p998
sbag1
(g25
g3
Ntp999
Rp1000
(dp1001
g29
V069
p1002
sg31
VBellsprout
p1003
sg33
g286
sg35
V28
p1004
sg37
(lp1005
Vknock-off
p1006
aVwring-out
p1007
aVgastro-acid
p1008
aVpoison-jab
p1009
asg43
g12
sg44
Vchlorophyll
p1010
sbag1
(g25
g3
Ntp1011
Rp1012
(dp1013
g29
V069
p1014
sg31
VBellsprout
p1015
sg33
g286
sg35
V28
p1016
sg37
(lp1017
Vknock-off
p1018
aVwring-out
p1019
aVgastro-acid
p1020
aVpoison-jab
p1021
asg43
g12
sg44
Vchlorophyll
p1022
sbasg58
I00
sg59
g854
sbag1
(g2
g3
Ntp1023
Rp1024
(dp1025
g7
VSpr RG Erika.png
p1026
sg9
VLeader
p1027
sg11
VErika
p1028
sg13
V2871
p1029
sg15
I3
sg17
g18
sg19
g20
sg21
g22
sg23
(lp1030
g1
(g25
g3
Ntp1031
Rp1032
(dp1033
g29
I71
sg31
VVictreebel
p1034
sg33
g34
sg35
V29
p1035
sg37
(lp1036
VRazor Leaf
p1037
aVWrap
p1038
aVPoisonPowder
p1039
aVSleep Powder
p1040
asg43
g12
sg44
Vchlorophyll
p1041
sbag1
(g25
g3
Ntp1042
Rp1043
(dp1044
g29
I114
sg31
VTangela
p1045
sg33
g34
sg35
V24
p1046
sg37
(lp1047
VConstrict
p1048
aVBind
p1049
asg43
g12
sg44
Vchlorophyll
p1050
sbag1
(g25
g3
Ntp1051
Rp1052
(dp1053
g29
I45
sg31
VVileplume
p1054
sg33
g34
sg35
V29
p1055
sg37
(lp1056
VPetal Dance
p1057
aVPoisonPowder
p1058
aVMega Drain
p1059
aVSleep Powder
p1060
asg43
g12
sg44
Vchlorophyll
p1061
sbasg58
I01
sg59
g60
sbag1
(g2
g3
Ntp1062
Rp1063
(dp1064
g7
VSpr Y Erika.png\u200e
p1065
sg9
g1027
sg11
VErika
p1066
sg13
V3168
p1067
sg15
I3
sg17
g18
sg19
g20
sg21
VY
p1068
sg23
(lp1069
g1
(g25
g3
Ntp1070
Rp1071
(dp1072
g29
I114
sg31
VTangela
p1073
sg33
g34
sg35
V30
p1074
sg37
(lp1075
VBind
p1076
aVMega Drain
p1077
aVVine Whip
p1078
aVConstrict
p1079
asg43
g12
sg44
Vleaf-guard
p1080
sbag1
(g25
g3
Ntp1081
Rp1082
(dp1083
g29
I70
sg31
VWeepinbell
p1084
sg33
g34
sg35
V32
p1085
sg37
(lp1086
VAcid
p1087
aVStun Spore
p1088
aVSleep Powder
p1089
aVRazor Leaf
p1090
asg43
g12
sg44
Vchlorophyll
p1091
sbag1
(g25
g3
Ntp1092
Rp1093
(dp1094
g29
I44
sg31
VGloom
p1095
sg33
g34
sg35
V32
p1096
sg37
(lp1097
VAcid
p1098
aVPetal Dance
p1099
aVStun Spore
p1100
aVSleep Powder
p1101
asg43
g12
sg44
Vchlorophyll
p1102
sbasg58
I01
sg59
Vyellow
p1103
sbag1
(g2
g3
Ntp1104
Rp1105
(dp1106
g7
VSpr GS Erika.png
p1107
sg9
VLeader
p1108
sg11
VErika
p1109
sg13
V4600
p1110
sg15
I4
sg17
g18
sg19
g20
sg21
g279
sg23
(lp1111
g1
(g25
g3
Ntp1112
Rp1113
(dp1114
g29
I114
sg31
VTangela
p1115
sg33
g286
sg35
V42
p1116
sg37
(lp1117
VVine Whip
p1118
aVBind
p1119
aVGiga Drain
p1120
aVSleep Powder
p1121
asg43
g12
sg44
Vleaf-guard
p1122
sbag1
(g25
g3
Ntp1123
Rp1124
(dp1125
g29
I189
sg31
VJumpluff
p1126
sg33
g286
sg35
V41
p1127
sg37
(lp1128
VMega Drain
p1129
aVLeech Seed
p1130
aVCotton Spore
p1131
aVGiga Drain
p1132
asg43
g12
sg44
Vchlorophyll
p1133
sbag1
(g25
g3
Ntp1134
Rp1135
(dp1136
g29
I71
sg31
VVictreebel
p1137
sg33
g286
sg35
V46
p1138
sg37
(lp1139
VSunny Day
p1140
aVSynthesis
p1141
aVAcid
p1142
aVRazor Leaf
p1143
asg43
g12
sg44
Vchlorophyll
p1144
sbag1
(g25
g3
Ntp1145
Rp1146
(dp1147
g29
I182
sg31
VBellossom
p1148
sg33
g286
sg35
V46
p1149
sg37
(lp1150
VSunny Day
p1151
aVSynthesis
p1152
aVPetal Dance
p1153
aVSolarBeam
p1154
asg43
g12
sg44
Vchlorophyll
p1155
sbasg58
I01
sg59
g306
sbag1
(g2
g3
Ntp1156
Rp1157
(dp1158
g7
VSpr FRLG Erika.png
p1159
sg9
VLeader
p1160
sg11
VErika
p1161
sg13
V2900
p1162
sg15
I3
sg17
g18
sg19
g20
sg21
g422
sg23
(lp1163
g1
(g25
g3
Ntp1164
Rp1165
(dp1166
g29
I71
sg31
VVictreebel
p1167
sg33
g286
sg35
V29
p1168
sg37
(lp1169
VStun Spore
p1170
aVAcid
p1171
aVPoisonPowder
p1172
aVGiga Drain
p1173
asg43
g12
sg44
VChlorophyll
p1174
sbag1
(g25
g3
Ntp1175
Rp1176
(dp1177
g29
I114
sg31
VTangela
p1178
sg33
g286
sg35
V24
p1179
sg37
(lp1180
VPoisonPowder
p1181
aVConstrict
p1182
aVIngrain
p1183
aVGiga Drain
p1184
asg43
g12
sg44
VChlorophyll
p1185
sbag1
(g25
g3
Ntp1186
Rp1187
(dp1188
g29
I45
sg31
VVileplume
p1189
sg33
g286
sg35
V29
p1190
sg37
(lp1191
VSleep Powder
p1192
aVAcid
p1193
aVStun Spore
p1194
aVGiga Drain
p1195
asg43
g12
sg44
VChlorophyll
p1196
sbasg58
I01
sg59
g448
sbag1
(g2
g3
Ntp1197
Rp1198
(dp1199
g7
VSpr HGSS Erika.png
p1200
sg9
VLeader
p1201
sg11
VErika
p1202
sg13
V6720
p1203
sg15
I4
sg17
g18
sg19
g20
sg21
g696
sg23
(lp1204
g1
(g25
g3
Ntp1205
Rp1206
(dp1207
g29
I189
sg31
VJumpluff
p1208
sg33
g286
sg35
V51
p1209
sg37
(lp1210
VLeech Seed
p1211
aVU-turn
p1212
aVGiga Drain
p1213
aVSunny Day
p1214
asg43
g12
sg44
VChlorophyll
p1215
sbag1
(g25
g3
Ntp1216
Rp1217
(dp1218
g29
I114
sg31
VTangela
p1219
sg33
g286
sg35
V52
p1220
sg37
(lp1221
VAncientPower
p1222
aVWring Out
p1223
aVGiga Drain
p1224
aVSleep Powder
p1225
asg43
g12
sg44
VChlorophyll
p1226
sbag1
(g25
g3
Ntp1227
Rp1228
(dp1229
g29
I71
sg31
VVictreebel
p1230
sg33
g286
sg35
V56
p1231
sg37
(lp1232
VSunny Day
p1233
aVSynthesis
p1234
aVLeaf Storm
p1235
aVGrass Knot
p1236
asg43
g12
sg44
VChlorophyll
p1237
sbag1
(g25
g3
Ntp1238
Rp1239
(dp1240
g29
I182
sg31
VBellossom
p1241
sg33
g286
sg35
V56
p1242
sg37
(lp1243
VSunny Day
p1244
aVSolarBeam
p1245
aVGiga Drain
p1246
aVSynthesis
p1247
asg43
VSitrus Berry
p1248
sg44
VChlorophyll
p1249
sbasg58
I01
sg59
g722
sbag1
(g2
g3
Ntp1250
Rp1251
(dp1252
g7
VVSErika PE.png
p1253
sg9
VGym Leader
p1254
sg11
VErika
p1255
sg13
V5,440
p1256
sg15
I3
sg17
g18
sg19
g20
sg21
g840
sg23
(lp1257
g1
(g25
g3
Ntp1258
Rp1259
(dp1260
g29
I114
sg31
VTangela
p1261
sg33
g286
sg35
V33
p1262
sg37
(lp1263
VMega Drain
p1264
aVSleep Powder
p1265
aVBind
p1266
asg43
g12
sg44
Vleaf-guard
p1267
sbag1
(g25
g3
Ntp1268
Rp1269
(dp1270
g29
I70
sg31
VWeepinbell
p1271
sg33
g286
sg35
V33
p1272
sg37
(lp1273
VMega Drain
p1274
aVPoison Jab
p1275
asg43
g12
sg44
Vchlorophyll
p1276
sbag1
(g25
g3
Ntp1277
Rp1278
(dp1279
g29
I45
sg31
VVileplume
p1280
sg33
g286
sg35
V34
p1281
sg37
(lp1282
VMega Drain
p1283
aVMoonblast
p1284
asg43
g12
sg44
Vchlorophyll
p1285
sbasg58
I01
sg59
g854
sbag1
(g2
g3
Ntp1286
Rp1287
(dp1288
g7
VVSErika PE.png
p1289
sg9
VGym Leader
p1290
sg11
VErika
p1291
sg13
V13,680
p1292
sg15
I5
sg17
g18
sg19
g20
sg21
g840
sg23
(lp1293
g1
(g25
g3
Ntp1294
Rp1295
(dp1296
g29
I114
sg31
VTangela
p1297
sg33
g286
sg35
V56
p1298
sg37
(lp1299
VMega Drain
p1300
aVSludge Bomb
p1301
aVReflect
p1302
aVPower Whip
p1303
asg43
g12
sg44
Vchlorophyll
p1304
sbag1
(g25
g3
Ntp1305
Rp1306
(dp1307
g29
I47
sg31
VParasect
p1308
sg33
g286
sg35
V56
p1309
sg37
(lp1310
VSolar Beam
p1311
aVBrick Break
p1312
aVLeech Life
p1313
aVSpore
p1314
asg43
g12
sg44
Vdry-skin
p1315
sbag1
(g25
g3
Ntp1316
Rp1317
(dp1318
g29
I103
sg31
VExeggutor
p1319
sg33
g286
sg35
V56
p1320
sg37
(lp1321
VSolar Beam
p1322
aVSludge Bomb
p1323
aVHyper Beam
p1324
aVPsychic
p1325
asg43
g12
sg44
Vchlorophyll
p1326
sbag1
(g25
g3
Ntp1327
Rp1328
(dp1329
g29
I71
sg31
VVictreebel
p1330
sg33
g286
sg35
V56
p1331
sg37
(lp1332
VPower Whip
p1333
aVPoison Jab
p1334
aVReflect
p1335
aVSwords Dance
p1336
asg43
g12
sg44
Vchlorophyll
p1337
sbag1
(g25
g3
Ntp1338
Rp1339
(dp1340
g29
I45
sg31
VVileplume
p1341
sg33
g286
sg35
V57
p1342
sg37
(lp1343
VMoonblast
p1344
aVPetal Dance
p1345
aVSludge Bomb
p1346
aVStun Spore
p1347
asg43
g12
sg44
Vchlorophyll
p1348
sbasg58
I01
sg59
g854
sba.