(lp0
ccopy_reg
_reconstructor
p1
(c__main__
Trainer
p2
c__builtin__
object
p3
Ntp4
Rp5
(dp6
VtSprite
p7
VVSCoach Trainer M PE.png
p8
sVtClass
p9
VCoach Trainer
p10
sVtName
p11
VShigeki Morimoto
p12
sVtMoney
p13
V5,400
p14
sVtPokeCount
p15
I6
sVtLocation
p16
Vwiki/Celadon_Condominiums
p17
sVtRegion
p18
VKanto
p19
sVtGame
p20
VLGPE
p21
sVtPokes
p22
(lp23
g1
(c__main__
FinishedPokemon
p24
g3
Ntp25
Rp26
(dp27
VpDexNo
p28
I115
sVpSpecies
p29
VKangaskhan
p30
sVpGender
p31
VF
p32
sVpLevel
p33
V54
p34
sVpMoves
p35
(lp36
VFake Out
p37
aVSucker Punch
p38
aVDizzy Punch
p39
aVOutrage
p40
asVpHold
p41
V
p42
sVpAbility
p43
Vearly-bird
p44
sbag1
(g24
g3
Ntp45
Rp46
(dp47
g28
I136
sg29
VFlareon
p48
sg31
VM
p49
sg33
V54
p50
sg35
(lp51
VQuick Attack
p52
aVDouble Kick
p53
aVFlare Blitz
p54
aVSuperpower
p55
asg41
g42
sg43
Vflash-fire
p56
sbag1
(g24
g3
Ntp57
Rp58
(dp59
g28
I134
sg29
VVaporeon
p60
sg31
g32
sg33
V54
p61
sg35
(lp62
VQuick Attack
p63
aVDouble Kick
p64
aVHydro Pump
p65
aVBlizzard
p66
asg41
g42
sg43
Vwater-absorb
p67
sbag1
(g24
g3
Ntp68
Rp69
(dp70
g28
I135
sg29
VJolteon
p71
sg31
g49
sg33
V54
p72
sg35
(lp73
VQuick Attack
p74
aVDouble Kick
p75
aVThunder
p76
aVShadow Ball
p77
asg41
g42
sg43
Vvolt-absorb
p78
sbag1
(g24
g3
Ntp79
Rp80
(dp81
g28
I68
sg29
VMachamp
p82
sg31
g49
sg33
V54
p83
sg35
(lp84
VSuperpower
p85
aVEarthquake
p86
aVPoison Jab
p87
aVRock Slide
p88
asg41
g42
sg43
Vno-guard
p89
sbag1
(g24
g3
Ntp90
Rp91
(dp92
g28
I149
sg29
VDragonite
p93
sg31
g49
sg33
V54
p94
sg35
(lp95
VDragon Pulse
p96
aVBlizzard
p97
aVFire Blast
p98
aVThunder
p99
asg41
g42
sg43
Vinner-focus
p100
sbasVbossFlag
p101
I01
sVtLongGame
p102
Vsun-moon
p103
sba.