(lp0
ccopy_reg
_reconstructor
p1
(c__main__
Trainer
p2
c__builtin__
object
p3
Ntp4
Rp5
(dp6
VtSprite
p7
VSpr RG Rocket.png\u200e
p8
sVtClass
p9
VRocket
p10
sVtName
p11
V
p12
sVtMoney
p13
V600
p14
sVtPokeCount
p15
V2
p16
sVtLocation
p17
Vwiki/Celadon_Game_Corner
p18
sVtRegion
p19
VKanto
p20
sVtGame
p21
VRGB
p22
sVtPokes
p23
(lp24
g1
(c__main__
FinishedPokemon
p25
g3
Ntp26
Rp27
(dp28
VpDexNo
p29
V020
p30
sVpSpecies
p31
VRaticate
p32
sVpGender
p33
VU
p34
sVpLevel
p35
V20
p36
sVpMoves
p37
(lp38
Vquick-attack
p39
aVfocus-energy
p40
aVhyper-fang
p41
aVsuper-fang
p42
asVpHold
p43
g12
sVpAbility
p44
Vrun-away
p45
sbag1
(g25
g3
Ntp46
Rp47
(dp48
g29
V041
p49
sg31
VZubat
p50
sg33
g34
sg35
V20
p51
sg37
(lp52
Vsupersonic
p53
aVconfuse-ray
p54
aVhaze
p55
aVleech-life
p56
asg43
g12
sg44
Vinner-focus
p57
sbasVbossFlag
p58
I00
sVtLongGame
p59
Vred-blue
p60
sbag1
(g2
g3
Ntp61
Rp62
(dp63
g7
VSpr FRLG Team Rocket Grunt M.png
p64
sg9
VTeam Rocket Grunt
p65
sg11
g12
sg13
V640
p66
sg15
g16
sg17
g18
sg19
g20
sg21
VFRLG
p67
sg23
(lp68
g1
(g25
g3
Ntp69
Rp70
(dp71
g29
V020
p72
sg31
VRaticate
p73
sg33
VM
p74
sg35
V20
p75
sg37
(lp76
Vsuper-fang
p77
aVscary-face
p78
aVpursuit
p79
aVendeavor
p80
asg43
g12
sg44
Vguts
p81
sbag1
(g25
g3
Ntp82
Rp83
(dp84
g29
V041
p85
sg31
VZubat
p86
sg33
g74
sg35
V20
p87
sg37
(lp88
Vmean-look
p89
aVpoison-fang
p90
aVastonish
p91
aVair-cutter
p92
asg43
g12
sg44
Vinner-focus
p93
sbasg58
I00
sg59
Vfirered-leafgreen
p94
sbag1
(g2
g3
Ntp95
Rp96
(dp97
g7
VVSTeam Rocket Grunt M PE.png
p98
sg9
VTeam Rocket Grunt
p99
sg11
g12
sg13
V812
p100
sg15
V1
p101
sg17
g18
sg19
g20
sg21
VLGPE
p102
sg23
(lp103
g1
(g25
g3
Ntp104
Rp105
(dp106
g29
V020
p107
sg31
VRaticate
p108
sg33
VF
p109
sg35
V29
p110
sg37
(lp111
Vcrunch
p112
aVendeavor
p113
aVassurance
p114
aVsucker-punch
p115
asg43
g12
sg44
Vrun-away
p116
sbasg58
I00
sg59
Vsun-moon
p117
sba.