(lp0
ccopy_reg
_reconstructor
p1
(c__main__
Trainer
p2
c__builtin__
object
p3
Ntp4
Rp5
(dp6
VtSprite
p7
VSpr DP Galactic Grunt M.png
p8
sVtClass
p9
VGalactic Grunt
p10
sVtName
p11
V
p12
sVtMoney
p13
V1080
p14
sVtPokeCount
p15
V2
p16
sVtLocation
p17
Vwiki/Celestic_Town
p18
sVtRegion
p19
VSinnoh
p20
sVtGame
p21
VDP
p22
sVtPokes
p23
(lp24
g1
(c__main__
FinishedPokemon
p25
g3
Ntp26
Rp27
(dp28
VpDexNo
p29
V267
p30
sVpSpecies
p31
VBeautifly
p32
sVpGender
p33
VM
p34
sVpLevel
p35
V25
p36
sVpMoves
p37
(lp38
Vattract
p39
aVmorning-sun
p40
aVsilver-wind
p41
aVbug-buzz
p42
asVpHold
p43
g12
sVpAbility
p44
Vswarm
p45
sbag1
(g25
g3
Ntp46
Rp47
(dp48
g29
V453
p49
sg31
VCroagunk
p50
sg33
g34
sg35
V27
p51
sg37
(lp52
Vsucker-punch
p53
aVpoison-jab
p54
aVnasty-plot
p55
aVmud-bomb
p56
asg43
g12
sg44
Vdry-skin
p57
sbasVbossFlag
p58
I00
sVtLongGame
p59
Vdiamond-pearl
p60
sbag1
(g2
g3
Ntp61
Rp62
(dp63
g7
VSpr DP Galactic Grunt M.png
p64
sg9
VGalactic Grunt
p65
sg11
g12
sg13
V1200
p66
sg15
g16
sg17
g18
sg19
g20
sg21
g22
sg23
(lp67
g1
(g25
g3
Ntp68
Rp69
(dp70
g29
V228
p71
sg31
VHoundour
p72
sg33
g34
sg35
V32
p73
sg37
(lp74
Vhowl
p75
aVembargo
p76
aVnasty-plot
p77
aVfire-fang
p78
asg43
g12
sg44
Vearly-bird
p79
sbag1
(g25
g3
Ntp80
Rp81
(dp82
g29
V042
p83
sg31
VGolbat
p84
sg33
g34
sg35
V30
p85
sg37
(lp86
Vastonish
p87
ag87
aVair-cutter
p88
aVair-slash
p89
asg43
g12
sg44
Vinner-focus
p90
sbasg58
I00
sg59
g60
sbag1
(g2
g3
Ntp91
Rp92
(dp93
g7
VSpr DP Clown.png
p94
sg9
VClown
p95
sg11
VLee
p96
sg13
g1
(cmwparserfromhell.wikicode
Wikicode
p97
g3
Ntp98
Rp99
(dp100
V_nodes
p101
g1
(cmwparserfromhell.smart_list.smart_list
SmartList
p102
c__builtin__
list
p103
(lp104
g1
(cmwparserfromhell.nodes.text
Text
p105
g3
Ntp106
Rp107
(dp108
V_value
p109
V144
p110
sbatp111
Rp112
(dp113
V_children
p114
(dp115
sbsbsg15
V1
p116
sg17
g18
sg19
g20
sg21
g22
sg23
(lp117
sg58
I00
sg59
g60
sbag1
(g2
g3
Ntp118
Rp119
(dp120
g7
VSpr DP Clown.png
p121
sg9
VClown
p122
sg11
VLee{{tt|*|Second rematch}}
p123
sg13
V792
p124
sg15
g16
sg17
g18
sg19
g20
sg21
g22
sg23
(lp125
g1
(g25
g3
Ntp126
Rp127
(dp128
g29
V122
p129
sg31
VMr. Mime
p130
sg33
g34
sg35
V33
p131
sg37
(lp132
Vmagical-leaf
p133
aVcopycat
p134
aVpower-swap
p135
aVguard-swap
p136
asg43
g12
sg44
Vfilter
p137
sbag1
(g25
g3
Ntp138
Rp139
(dp140
g29
V064
p141
sg31
VKadabra
p142
sg33
g34
sg35
V33
p143
sg37
(lp144
Vtrick
p145
aVrole-play
p146
aVmiracle-eye
p147
aVpsycho-cut
p148
asg43
g12
sg44
Vinner-focus
p149
sbasg58
I00
sg59
g60
sbag1
(g2
g3
Ntp150
Rp151
(dp152
g7
VSpr DP Clown.png
p153
sg9
VClown
p154
sg11
VLee{{tt|*|Third rematch}}
p155
sg13
V1056
p156
sg15
V3
p157
sg17
g18
sg19
g20
sg21
g22
sg23
(lp158
g1
(g25
g3
Ntp159
Rp160
(dp161
g29
V122
p162
sg31
VMr. Mime
p163
sg33
g34
sg35
V44
p164
sg37
(lp165
Vmagical-leaf
p166
aVcopycat
p167
aVpower-swap
p168
aVguard-swap
p169
asg43
g12
sg44
Vsoundproof
p170
sbag1
(g25
g3
Ntp171
Rp172
(dp173
g29
V064
p174
sg31
VKadabra
p175
sg33
g34
sg35
V44
p176
sg37
(lp177
Vtrick
p178
aVrole-play
p179
aVmiracle-eye
p180
aVpsycho-cut
p181
asg43
g12
sg44
Vinner-focus
p182
sbag1
(g25
g3
Ntp183
Rp184
(dp185
g29
V424
p186
sg31
VAmbipom
p187
sg33
g34
sg35
V44
p188
sg37
(lp189
Vfling
p190
aVlast-resort
p191
aVnasty-plot
p192
aVdouble-hit
p193
asg43
g12
sg44
Vpickup
p194
sbasg58
I00
sg59
g60
sbag1
(g2
g3
Ntp195
Rp196
(dp197
g7
VSpr DP Clown.png
p198
sg9
VClown
p199
sg11
VLee
p200
sg13
g1
(g97
g3
Ntp201
Rp202
(dp203
g101
g1
(g102
g103
(lp204
g1
(g105
g3
Ntp205
Rp206
(dp207
g109
V1200
p208
sbatp209
Rp210
(dp211
g114
(dp212
sbsbsg15
g157
sg17
g18
sg19
g20
sg21
g22
sg23
(lp213
g1
(g25
g3
Ntp214
Rp215
(dp216
g29
V122
p217
sg31
VMr. Mime
p218
sg33
g34
sg35
V50
p219
sg37
(lp220
Vmagical-leaf
p221
aVcopycat
p222
aVpower-swap
p223
aVguard-swap
p224
asg43
g12
sg44
Vsoundproof
p225
sbag1
(g25
g3
Ntp226
Rp227
(dp228
g29
V065
p229
sg31
VAlakazam
p230
sg33
g34
sg35
V50
p231
sg37
(lp232
Vtrick
p233
aVcalm-mind
p234
aVmiracle-eye
p235
aVpsycho-cut
p236
asg43
g12
sg44
Vsynchronize
p237
sbag1
(g25
g3
Ntp238
Rp239
(dp240
g29
V424
p241
sg31
VAmbipom
p242
sg33
g34
sg35
V50
p243
sg37
(lp244
Vfling
p245
aVlast-resort
p246
aVnasty-plot
p247
aVdouble-hit
p248
asg43
g12
sg44
Vpickup
p249
sbasg58
I00
sg59
g60
sbag1
(g2
g3
Ntp250
Rp251
(dp252
g7
VSpr Pt Cyrus.png
p253
sg9
VGalactic Boss
p254
sg11
VCyrus
p255
sg13
V6840
p256
sg15
I3
sg17
g18
sg19
g20
sg21
VPt
p257
sg23
(lp258
g1
(g25
g3
Ntp259
Rp260
(dp261
g29
I215
sg31
VSneasel
p262
sg33
g34
sg35
V34
p263
sg37
(lp264
VScreech
p265
aVIce Punch
p266
aVSlash
p267
aVQuick Attack
p268
asg43
g12
sg44
VInner Focus
p269
sbag1
(g25
g3
Ntp270
Rp271
(dp272
g29
I42
sg31
VGolbat
p273
sg33
g34
sg35
V34
p274
sg37
(lp275
VAir Cutter
p276
aVPoison Fang
p277
aVSupersonic
p278
aVBite
p279
asg43
g12
sg44
VInner Focus
p280
sbag1
(g25
g3
Ntp281
Rp282
(dp283
g29
I198
sg31
VMurkrow
p284
sg33
g34
sg35
V36
p285
sg37
(lp286
VNight Shade
p287
aVFaint Attack
p288
aVDrill Peck
p289
aVAstonish
p290
asg43
VSitrus Berry
p291
sg44
VInsomnia
p292
sbasg58
I01
sg59
Vplatinum
p293
sba.