(lp0
ccopy_reg
_reconstructor
p1
(c__main__
Trainer
p2
c__builtin__
object
p3
Ntp4
Rp5
(dp6
VtSprite
p7
VSpr RG Swimmer.png
p8
sVtClass
p9
VSwimmer
p10
sVtName
p11
V
p12
sVtMoney
p13
V80
p14
sVtPokeCount
p15
V2
p16
sVtLocation
p17
Vwiki/Cerulean_Gym
p18
sVtRegion
p19
VKanto
p20
sVtGame
p21
VRGB
p22
sVtPokes
p23
(lp24
g1
(c__main__
FinishedPokemon
p25
g3
Ntp26
Rp27
(dp28
VpDexNo
p29
V116
p30
sVpSpecies
p31
VHorsea
p32
sVpGender
p33
VU
p34
sVpLevel
p35
V16
p36
sVpMoves
p37
(lp38
Vhydro-pump
p39
aVagility
p40
aVsmokescreen
p41
aVbubble
p42
asVpHold
p43
g12
sVpAbility
p44
Vsniper
p45
sbag1
(g25
g3
Ntp46
Rp47
(dp48
g29
V090
p49
sg31
VShellder
p50
sg33
g34
sg35
V16
p51
sg37
(lp52
Vice-beam
p53
aVaurora-beam
p54
aVwithdraw
p55
aVclamp
p56
asg43
g12
sg44
Vskill-link
p57
sbasVbossFlag
p58
I00
sVtLongGame
p59
Vred-blue
p60
sbag1
(g2
g3
Ntp61
Rp62
(dp63
g7
VSpr RG Jr Trainer F.png
p64
sg9
VJr. Trainer\u2640
p65
sg11
g12
sg13
V380
p66
sg15
V1
p67
sg17
g18
sg19
g20
sg21
g22
sg23
(lp68
g1
(g25
g3
Ntp69
Rp70
(dp71
g29
V118
p72
sg31
VGoldeen
p73
sg33
g34
sg35
V19
p74
sg37
(lp75
Vsupersonic
p76
aVpeck
p77
aVagility
p78
aVwaterfall
p79
asg43
g12
sg44
Vwater-veil
p80
sbasg58
I00
sg59
g60
sbag1
(g2
g3
Ntp81
Rp82
(dp83
g7
VSpr GS Swimmer M.png
p84
sg9
VSwimmer\u2642
p85
sg11
VParker
p86
sg13
V280
p87
sg15
V3
p88
sg17
g18
sg19
g20
sg21
VGS
p89
sg23
(lp90
g1
(g25
g3
Ntp91
Rp92
(dp93
g29
V116
p94
sg31
VHorsea
p95
sg33
VM
p96
sg35
V32
p97
sg37
(lp98
Vagility
p99
aVsmokescreen
p100
aVbubble
p101
aVtwister
p102
asg43
g12
sg44
Vswift-swim
p103
sbag1
(g25
g3
Ntp104
Rp105
(dp106
g29
V116
p107
sg31
VHorsea
p108
sg33
g96
sg35
V32
p109
sg37
(lp110
Vagility
p111
aVsmokescreen
p112
aVbubble
p113
aVtwister
p114
asg43
g12
sg44
Vswift-swim
p115
sbag1
(g25
g3
Ntp116
Rp117
(dp118
g29
V117
p119
sg31
VSeadra
p120
sg33
g96
sg35
V35
p121
sg37
(lp122
Vsmokescreen
p123
ag123
aVbubble
p124
aVtwister
p125
asg43
g12
sg44
Vsniper
p126
sbasg58
I00
sg59
Vgold-silver
p127
sbag1
(g2
g3
Ntp128
Rp129
(dp130
g7
VSpr GS Swimmer F.png
p131
sg9
VSwimmer\u2640
p132
sg11
VBriana
p133
sg13
V700
p134
sg15
g16
sg17
g18
sg19
g20
sg21
g89
sg23
(lp135
g1
(g25
g3
Ntp136
Rp137
(dp138
g29
V119
p139
sg31
VSeaking
p140
sg33
VF
p141
sg35
V35
p142
sg37
(lp143
Vpeck
p144
aVagility
p145
aVwaterfall
p146
aVflail
p147
asg43
g12
sg44
Vswift-swim
p148
sbag1
(g25
g3
Ntp149
Rp150
(dp151
g29
V119
p152
sg31
VSeaking
p153
sg33
g141
sg35
V35
p154
sg37
(lp155
Vpeck
p156
aVagility
p157
aVwaterfall
p158
aVflail
p159
asg43
g12
sg44
Vwater-veil
p160
sbasg58
I00
sg59
g127
sbag1
(g2
g3
Ntp161
Rp162
(dp163
g7
VSpr GS Swimmer F.png
p164
sg9
VSwimmer\u2640
p165
sg11
VDiana
p166
sg13
V740
p167
sg15
g67
sg17
g18
sg19
g20
sg21
g89
sg23
(lp168
g1
(g25
g3
Ntp169
Rp170
(dp171
g29
V055
p172
sg31
VGolduck
p173
sg33
g141
sg35
V37
p174
sg37
(lp175
Vconfusion
p176
aVscreech
p177
aVfury-swipes
p178
aVpsych-up
p179
asg43
g12
sg44
Vcloud-nine
p180
sbasg58
I00
sg59
g127
sbag1
(g2
g3
Ntp181
Rp182
(dp183
g7
VSpr FRLG Swimmer M.png
p184
sg9
VSwimmer
p185
sg11
VLuis
p186
sg13
V64
p187
sg15
g16
sg17
g18
sg19
g20
sg21
VFRLG
p188
sg23
(lp189
g1
(g25
g3
Ntp190
Rp191
(dp192
g29
V116
p193
sg31
VHorsea
p194
sg33
g96
sg35
V16
p195
sg37
(lp196
Vsmokescreen
p197
aVbubble
p198
aVtwister
p199
aVdragon-dance
p200
asg43
g12
sg44
Vsniper
p201
sbag1
(g25
g3
Ntp202
Rp203
(dp204
g29
V090
p205
sg31
VShellder
p206
sg33
g96
sg35
V16
p207
sg37
(lp208
Vwithdraw
p209
aVclamp
p210
aVprotect
p211
aVicicle-spear
p212
asg43
g12
sg44
Vskill-link
p213
sbasg58
I00
sg59
Vfirered-leafgreen
p214
sbag1
(g2
g3
Ntp215
Rp216
(dp217
g7
VSpr FRLG Picnicker.png
p218
sg9
VPicnicker
p219
sg11
VDiana
p220
sg13
V380
p221
sg15
g67
sg17
g18
sg19
g20
sg21
g188
sg23
(lp222
g1
(g25
g3
Ntp223
Rp224
(dp225
g29
V118
p226
sg31
VGoldeen
p227
sg33
g141
sg35
V19
p228
sg37
(lp229
Vwaterfall
p230
aVflail
p231
aVmegahorn
p232
aVwater-sport
p233
asg43
g12
sg44
Vwater-veil
p234
sbasg58
I00
sg59
g214
sbag1
(g2
g3
Ntp235
Rp236
(dp237
g7
VSpr DP Sailor.png
p238
sg9
VSailor
p239
sg11
VParker
p240
sg13
V1376
p241
sg15
g16
sg17
g18
sg19
g20
sg21
VDP
p242
sg23
(lp243
g1
(g25
g3
Ntp244
Rp245
(dp246
g29
V116
p247
sg31
VHorsea
p248
sg33
g96
sg35
V43
p249
sg37
(lp250
Vtwister
p251
aVdragon-dance
p252
aVbrine
p253
aVdragon-pulse
p254
asg43
g12
sg44
Vswift-swim
p255
sbag1
(g25
g3
Ntp256
Rp257
(dp258
g29
V117
p259
sg31
VSeadra
p260
sg33
g96
sg35
V43
p261
sg37
(lp262
Vtwister
p263
aVdragon-dance
p264
aVbrine
p265
aVdragon-pulse
p266
asg43
g12
sg44
Vsniper
p267
sbasg58
I00
sg59
Vdiamond-pearl
p268
sbag1
(g2
g3
Ntp269
Rp270
(dp271
g7
VSpr DP Sailor.png
p272
sg9
VSailor
p273
sg11
VEddie
p274
sg13
V1536
p275
sg15
g67
sg17
g18
sg19
g20
sg21
g242
sg23
(lp276
g1
(g25
g3
Ntp277
Rp278
(dp279
g29
V184
p280
sg31
VAzumarill
p281
sg33
g96
sg35
V48
p282
sg37
(lp283
Vrollout
p284
aVrain-dance
p285
aVaqua-ring
p286
aVaqua-tail
p287
asg43
g12
sg44
Vhuge-power
p288
sbasg58
I00
sg59
g268
sbag1
(g2
g3
Ntp289
Rp290
(dp291
g7
VSpr HGSS Swimmer F.png
p292
sg9
VSwimmer\u2640
p293
sg11
VDiana
p294
sg13
V768
p295
sg15
g67
sg17
g18
sg19
g20
sg21
VHGSS
p296
sg23
(lp297
g1
(g25
g3
Ntp298
Rp299
(dp300
g29
V055
p301
sg31
VGolduck
p302
sg33
g141
sg35
V48
p303
sg37
(lp304
Vwater-sport
p305
aVwater-pulse
p306
aVzen-headbutt
p307
aVaqua-jet
p308
asg43
g12
sg44
Vdamp
p309
sbasg58
I00
sg59
Vheartgold-soulsilver
p310
sbag1
(g2
g3
Ntp311
Rp312
(dp313
g7
VSpr HGSS Swimmer F.png
p314
sg9
VSwimmer\u2640
p315
sg11
VJoy
p316
sg13
V768
p317
sg15
g67
sg17
g18
sg19
g20
sg21
g296
sg23
(lp318
g1
(g25
g3
Ntp319
Rp320
(dp321
g29
V091
p322
sg31
VCloyster
p323
sg33
g141
sg35
V48
p324
sg37
(lp325
Vspike-cannon
p326
aVprotect
p327
aVspikes
p328
aVtoxic-spikes
p329
asg43
g12
sg44
Vshell-armor
p330
sbasg58
I00
sg59
g310
sbag1
(g2
g3
Ntp331
Rp332
(dp333
g7
VSpr HGSS Swimmer F.png
p334
sg9
VSwimmer\u2640
p335
sg11
VBriana
p336
sg13
V736
p337
sg15
g16
sg17
g18
sg19
g20
sg21
g296
sg23
(lp338
g1
(g25
g3
Ntp339
Rp340
(dp341
g29
V119
p342
sg31
VSeaking
p343
sg33
g141
sg35
V46
p344
sg37
(lp345
Vwater-sport
p346
aVwater-pulse
p347
aVaqua-ring
p348
aVpoison-jab
p349
asg43
g12
sg44
Vwater-veil
p350
sbag1
(g25
g3
Ntp351
Rp352
(dp353
g29
V119
p354
sg31
VSeaking
p355
sg33
g141
sg35
V46
p356
sg37
(lp357
Vwater-sport
p358
aVwater-pulse
p359
aVaqua-ring
p360
aVpoison-jab
p361
asg43
g12
sg44
Vwater-veil
p362
sbasg58
I00
sg59
g310
sbag1
(g2
g3
Ntp363
Rp364
(dp365
g7
VVSBeauty 2 PE.png
p366
sg9
VBeauty
p367
sg11
V{{ka|Lily}}
p368
sg13
V320
p369
sg15
g67
sg17
g18
sg19
g20
sg21
VLGPE
p370
sg23
(lp371
g1
(g25
g3
Ntp372
Rp373
(dp374
g29
V118
p375
sg31
VGoldeen
p376
sg33
g141
sg35
V16
p377
sg37
(lp378
Vwater-sport
p379
aVwater-pulse
p380
aVaqua-ring
p381
aVsoak
p382
asg43
g12
sg44
Vswift-swim
p383
sbasg58
I00
sg59
Vsun-moon
p384
sbag1
(g2
g3
Ntp385
Rp386
(dp387
g7
VVSBeauty 2 PE.png
p388
sg9
VBeauty
p389
sg11
V[[Violet]]
p390
sg13
V320
p391
sg15
g67
sg17
g18
sg19
g20
sg21
g370
sg23
(lp392
g1
(g25
g3
Ntp393
Rp394
(dp395
g29
V090
p396
sg31
VShellder
p397
sg33
g141
sg35
V16
p398
sg37
(lp399
Vbrine
p400
aVice-shard
p401
aVshell-smash
p402
aVrazor-shell
p403
asg43
g12
sg44
Vshell-armor
p404
sbasg58
I00
sg59
g384
sbag1
(g2
g3
Ntp405
Rp406
(dp407
g7
VVSBeauty 2 PE.png
p408
sg9
VBeauty
p409
sg11
V{{an|Daisy}}
p410
sg13
V320
p411
sg15
g67
sg17
g18
sg19
g20
sg21
g370
sg23
(lp412
g1
(g25
g3
Ntp413
Rp414
(dp415
g29
V086
p416
sg31
VSeel
p417
sg33
g141
sg35
V16
p418
sg37
(lp419
Vaqua-ring
p420
aVaqua-tail
p421
aVice-shard
p422
aVaqua-jet
p423
asg43
g12
sg44
Vhydration
p424
sbasg58
I00
sg59
g384
sbag1
(g2
g3
Ntp425
Rp426
(dp427
g7
VSpr RG Misty.png
p428
sg9
VLeader
p429
sg11
VMisty
p430
sg13
V2079
p431
sg15
I2
sg17
g18
sg19
g20
sg21
g22
sg23
(lp432
g1
(g25
g3
Ntp433
Rp434
(dp435
g29
I120
sg31
VStaryu
p436
sg33
g34
sg35
V18
p437
sg37
(lp438
VTackle
p439
aVWater Gun
p440
asg43
g12
sg44
Vnatural-cure
p441
sbag1
(g25
g3
Ntp442
Rp443
(dp444
g29
I121
sg31
VStarmie
p445
sg33
g34
sg35
V21
p446
sg37
(lp447
VTackle
p448
aVWater Gun
p449
aVBubbleBeam
p450
asg43
g12
sg44
Villuminate
p451
sbasg58
I01
sg59
g60
sbag1
(g2
g3
Ntp452
Rp453
(dp454
g7
VSpr Y Misty.png
p455
sg9
g429
sg11
VMisty
p456
sg13
V2079
p457
sg15
I2
sg17
g18
sg19
g20
sg21
VY
p458
sg23
(lp459
g1
(g25
g3
Ntp460
Rp461
(dp462
g29
I120
sg31
VStaryu
p463
sg33
g34
sg35
V18
p464
sg37
(lp465
VTackle
p466
aVWater Gun
p467
asg43
g12
sg44
Villuminate
p468
sbag1
(g25
g3
Ntp469
Rp470
(dp471
g29
I121
sg31
VStarmie
p472
sg33
g34
sg35
V21
p473
sg37
(lp474
VTackle
p475
aVWater Gun
p476
aVHarden
p477
aVBubbleBeam
p478
asg43
g12
sg44
Vnatural-cure
p479
sbasg58
I01
sg59
Vyellow
p480
sbag1
(g2
g3
Ntp481
Rp482
(dp483
g7
VSpr GS Misty.png
p484
sg9
VLeader
p485
sg11
VMisty
p486
sg13
V4700
p487
sg15
I4
sg17
g18
sg19
g20
sg21
g89
sg23
(lp488
g1
(g25
g3
Ntp489
Rp490
(dp491
g29
I55
sg31
VGolduck
p492
sg33
g141
sg35
V42
p493
sg37
(lp494
VSurf
p495
aVDisable
p496
aVPsych Up
p497
aVPsychic
p498
asg43
g12
sg44
Vdamp
p499
sbag1
(g25
g3
Ntp500
Rp501
(dp502
g29
I195
sg31
VQuagsire
p503
sg33
g141
sg35
V42
p504
sg37
(lp505
VSurf
p506
aVAmnesia
p507
aVEarthquake
p508
aVRain Dance
p509
asg43
g12
sg44
Vwater-absorb
p510
sbag1
(g25
g3
Ntp511
Rp512
(dp513
g29
I131
sg31
VLapras
p514
sg33
g141
sg35
V44
p515
sg37
(lp516
VSurf
p517
aVPerish Song
p518
aVBlizzard
p519
aVRain Dance
p520
asg43
g12
sg44
Vwater-absorb
p521
sbag1
(g25
g3
Ntp522
Rp523
(dp524
g29
I121
sg31
VStarmie
p525
sg33
g34
sg35
V47
p526
sg37
(lp527
VSurf
p528
aVConfuse Ray
p529
aVRecover
p530
aVIce Beam
p531
asg43
g12
sg44
Villuminate
p532
sbasg58
I01
sg59
g127
sbag1
(g2
g3
Ntp533
Rp534
(dp535
g7
VSpr FRLG Misty.png
p536
sg9
VLeader
p537
sg11
VMisty
p538
sg13
V2100
p539
sg15
I2
sg17
g18
sg19
g20
sg21
g188
sg23
(lp540
g1
(g25
g3
Ntp541
Rp542
(dp543
g29
I120
sg31
VStaryu
p544
sg33
g34
sg35
V18
p545
sg37
(lp546
VTackle
p547
aVHarden
p548
aVRecover
p549
aVWater Pulse
p550
asg43
g12
sg44
VNatural Cure
p551
sbag1
(g25
g3
Ntp552
Rp553
(dp554
g29
I121
sg31
VStarmie
p555
sg33
g34
sg35
V21
p556
sg37
(lp557
VRapid Spin
p558
aVSwift
p559
aVRecover
p560
aVWater Pulse
p561
asg43
g12
sg44
VNatural Cure
p562
sbasg58
I01
sg59
g214
sbag1
(g2
g3
Ntp563
Rp564
(dp565
g7
VSpr HGSS Misty.png
p566
sg9
VLeader
p567
sg11
VMisty
p568
sg13
V6480
p569
sg15
I4
sg17
g18
sg19
g20
sg21
g296
sg23
(lp570
g1
(g25
g3
Ntp571
Rp572
(dp573
g29
I55
sg31
VGolduck
p574
sg33
g141
sg35
V49
p575
sg37
(lp576
VWater Pulse
p577
aVDisable
p578
aVPsychic
p579
aVPsych Up
p580
asg43
g12
sg44
VDamp
p581
sbag1
(g25
g3
Ntp582
Rp583
(dp584
g29
I195
sg31
VQuagsire
p585
sg33
g141
sg35
V49
p586
sg37
(lp587
VWater Pulse
p588
aVAmnesia
p589
aVRain Dance
p590
aVEarthquake
p591
asg43
g12
sg44
VWater Absorb
p592
sbag1
(g25
g3
Ntp593
Rp594
(dp595
g29
I131
sg31
VLapras
p596
sg33
g141
sg35
V52
p597
sg37
(lp598
VIce Beam
p599
aVSing
p600
aVWater Pulse
p601
aVBody Slam
p602
asg43
g12
sg44
VShell Armor
p603
sbag1
(g25
g3
Ntp604
Rp605
(dp606
g29
I121
sg31
VStarmie
p607
sg33
g34
sg35
V54
p608
sg37
(lp609
VWater Pulse
p610
aVConfuse Ray
p611
aVIce Beam
p612
aVRecover
p613
asg43
VSitrus Berry
p614
sg44
VNatural Cure
p615
sbasg58
I01
sg59
g310
sbag1
(g2
g3
Ntp616
Rp617
(dp618
g7
VVSMisty PE.png
p619
sg9
VGym Leader
p620
sg11
VMisty
p621
sg13
V3,040
p622
sg15
I2
sg17
g18
sg19
g20
sg21
g370
sg23
(lp623
g1
(g25
g3
Ntp624
Rp625
(dp626
g29
I54
sg31
VPsyduck
p627
sg33
g96
sg35
V18
p628
sg37
(lp629
VConfusion
p630
aVWater Gun
p631
asg43
g12
sg44
Vdamp
p632
sbag1
(g25
g3
Ntp633
Rp634
(dp635
g29
I121
sg31
VStarmie
p636
sg33
g34
sg35
V19
p637
sg37
(lp638
VScald
p639
aVSwift
p640
aVPsywave
p641
asg43
g12
sg44
Vnatural-cure
p642
sbasg58
I01
sg59
g384
sbag1
(g2
g3
Ntp643
Rp644
(dp645
g7
VVSMisty PE.png
p646
sg9
VGym Leader
p647
sg11
VMisty
p648
sg13
V13,680
p649
sg15
I5
sg17
g18
sg19
g20
sg21
g370
sg23
(lp650
g1
(g25
g3
Ntp651
Rp652
(dp653
g29
I55
sg31
VGolduck
p654
sg33
g96
sg35
V56
p655
sg37
(lp656
VScald
p657
aVPsychic
p658
aVIce Beam
p659
aVLight Screen
p660
asg43
g12
sg44
Vcloud-nine
p661
sbag1
(g25
g3
Ntp662
Rp663
(dp664
g29
I87
sg31
VDewgong
p665
sg33
g141
sg35
V56
p666
sg37
(lp667
VAqua Jet
p668
aVIce Shard
p669
aVWaterfall
p670
aVIron Tail
p671
asg43
g12
sg44
Vhydration
p672
sbag1
(g25
g3
Ntp673
Rp674
(dp675
g29
I134
sg31
VVaporeon
p676
sg33
g141
sg35
V56
p677
sg37
(lp678
VHydro Pump
p679
aVBlizzard
p680
aVQuick Attack
p681
aVShadow Ball
p682
asg43
g12
sg44
Vwater-absorb
p683
sbag1
(g25
g3
Ntp684
Rp685
(dp686
g29
I121
sg31
VStarmie
p687
sg33
g34
sg35
V56
p688
sg37
(lp689
VHydro Pump
p690
aVDazzling Gleam
p691
aVPsychic
p692
aVThunderbolt
p693
asg43
g12
sg44
Villuminate
p694
sbag1
(g25
g3
Ntp695
Rp696
(dp697
g29
I130
sg31
VGyarados
p698
sg33
g96
sg35
V57
p699
sg37
(lp700
VWaterfall
p701
aVCrunch
p702
aVOutrage
p703
aVIron Tail
p704
asg43
g12
sg44
Vintimidate
p705
sbasg58
I01
sg59
g384
sba.