(lp0
ccopy_reg
_reconstructor
p1
(c__main__
Trainer
p2
c__builtin__
object
p3
Ntp4
Rp5
(dp6
VtSprite
p7
VSpr BW Backpacker M.png
p8
sVtClass
p9
VBackpacker
p10
sVtName
p11
VToru
p12
sVtMoney
p13
V1560
p14
sVtPokeCount
p15
V1
p16
sVtLocation
p17
Vwiki/Challenger%27s_Cave
p18
sVtRegion
p19
VUnova
p20
sVtGame
p21
VBW
p22
sVtPokes
p23
(lp24
g1
(c__main__
FinishedPokemon
p25
g3
Ntp26
Rp27
(dp28
VpDexNo
p29
V042
p30
sVpSpecies
p31
VGolbat
p32
sVpGender
p33
VM
p34
sVpLevel
p35
V65
p36
sVpMoves
p37
(lp38
Vastonish
p39
aVair-cutter
p40
aVair-slash
p41
aVacrobatics
p42
asVpHold
p43
V
p44
sVpAbility
p45
Vinner-focus
p46
sbasVbossFlag
p47
I00
sVtLongGame
p48
Vblack-white
p49
sbag1
(g2
g3
Ntp50
Rp51
(dp52
g7
VSpr BW Ace Trainer M.png
p53
sg9
VAce Trainer
p54
sg11
VTerry
p55
sg13
V3780
p56
sg15
V4
p57
sg17
g18
sg19
g20
sg21
g22
sg23
(lp58
g1
(g25
g3
Ntp59
Rp60
(dp61
g29
V147
p62
sg31
VDratini
p63
sg33
g34
sg35
V63
p64
sg37
(lp65
Vdragon-dance
p66
aVaqua-tail
p67
aVdragon-rush
p68
aVdragon-tail
p69
asg43
g44
sg45
Vshed-skin
p70
sbag1
(g25
g3
Ntp71
Rp72
(dp73
g29
V185
p74
sg31
VSudowoodo
p75
sg33
g34
sg35
V63
p76
sg37
(lp77
Vhammer-arm
p78
aVcopycat
p79
aVsucker-punch
p80
aVwood-hammer
p81
asg43
g44
sg45
Vsturdy
p82
sbag1
(g25
g3
Ntp83
Rp84
(dp85
g29
V123
p86
sg31
VScyther
p87
sg33
g34
sg35
V63
p88
sg37
(lp89
Vair-slash
p90
aVx-scissor
p91
aVvacuum-wave
p92
aVdouble-hit
p93
asg43
g44
sg45
Vtechnician
p94
sbag1
(g25
g3
Ntp95
Rp96
(dp97
g29
V310
p98
sg31
VManectric
p99
sg33
g34
sg35
V63
p100
sg37
(lp101
Vthunder-fang
p102
aVfire-fang
p103
aVdischarge
p104
aVwild-charge
p105
asg43
g44
sg45
Vstatic
p106
sbasg47
I00
sg48
g49
sbag1
(g2
g3
Ntp107
Rp108
(dp109
g7
VSpr BW Veteran M.png
p110
sg9
VVeteran
p111
sg11
VShaun
p112
sg13
V5040
p113
sg15
V6
p114
sg17
g18
sg19
g20
sg21
g22
sg23
(lp115
g1
(g25
g3
Ntp116
Rp117
(dp118
g29
V130
p119
sg31
VGyarados
p120
sg33
g34
sg35
V62
p121
sg37
(lp122
Vrain-dance
p123
aVdragon-dance
p124
aVaqua-tail
p125
aVice-fang
p126
asg43
g44
sg45
Vintimidate
p127
sbag1
(g25
g3
Ntp128
Rp129
(dp130
g29
V530
p131
sg31
VExcadrill
p132
sg33
g34
sg35
V62
p133
sg37
(lp134
Vmetal-claw
p135
aVmud-sport
p136
aVhone-claws
p137
aVdrill-run
p138
asg43
g44
sg45
Vsand-force
p139
sbag1
(g25
g3
Ntp140
Rp141
(dp142
g29
V169
p143
sg31
VCrobat
p144
sg33
g34
sg35
V62
p145
sg37
(lp146
Vair-cutter
p147
aVair-slash
p148
aVcross-poison
p149
aVacrobatics
p150
asg43
g44
sg45
Vinner-focus
p151
sbag1
(g25
g3
Ntp152
Rp153
(dp154
g29
V621
p155
sg31
VDruddigon
p156
sg33
g34
sg35
V62
p157
sg37
(lp158
Vrock-climb
p159
aVhone-claws
p160
aVchip-away
p161
aVdragon-tail
p162
asg43
g44
sg45
Vrough-skin
p163
sbag1
(g25
g3
Ntp164
Rp165
(dp166
g29
V526
p167
sg31
VGigalith
p168
sg33
g34
sg35
V62
p169
sg37
(lp170
Vpower-gem
p171
aVstone-edge
p172
aVstealth-rock
p173
aVsmack-down
p174
asg43
g44
sg45
Vsand-stream
p175
sbag1
(g25
g3
Ntp176
Rp177
(dp178
g29
V143
p179
sg31
VSnorlax
p180
sg33
g34
sg35
V63
p181
sg37
(lp182
Vblock
p183
aVgiga-impact
p184
aVheavy-slam
p185
aVchip-away
p186
asg43
g44
sg45
Vimmunity
p187
sbasg47
I00
sg48
g49
sbag1
(g2
g3
Ntp188
Rp189
(dp190
g7
VSpr BW Veteran F.png
p191
sg9
VVeteran
p192
sg11
VJulia
p193
sg13
V5200
p194
sg15
g57
sg17
g18
sg19
g20
sg21
g22
sg23
(lp195
sg47
I00
sg48
g49
sba.