(lp0
ccopy_reg
_reconstructor
p1
(c__main__
Trainer
p2
c__builtin__
object
p3
Ntp4
Rp5
(dp6
VtSprite
p7
VSpr GS Silver 1.png
p8
sVtClass
p9
VLeader
p10
sVtName
p11
VSilver (game)
p12
sVtMoney
p13
V300
p14
sVtPokeCount
p15
I1
sVtLocation
p16
Vwiki/Cherrygrove_City
p17
sVtRegion
p18
VJohto
p19
sVtGame
p20
VGS
p21
sVtPokes
p22
(lp23
g1
(c__main__
FinishedPokemon
p24
g3
Ntp25
Rp26
(dp27
VpDexNo
p28
I155
sVpSpecies
p29
VCyndaquil
p30
sVpGender
p31
VM
p32
sVpLevel
p33
V5
p34
sVpMoves
p35
(lp36
VTackle
p37
aVLeer
p38
asVpHold
p39
V
p40
sVpAbility
p41
Vblaze
p42
sbasVbossFlag
p43
I01
sVtLongGame
p44
Vgold-silver
p45
sbag1
(g2
g3
Ntp46
Rp47
(dp48
g7
VSpr GS Silver 1.png
p49
sg9
g10
sg11
VSilver (game)
p50
sg13
V300
p51
sg15
I1
sg16
g17
sg18
g19
sg20
g21
sg22
(lp52
g1
(g24
g3
Ntp53
Rp54
(dp55
g28
I158
sg29
VTotodile
p56
sg31
g32
sg33
g34
sg35
(lp57
VScratch
p58
aVLeer
p59
asg39
g40
sg41
Vtorrent
p60
sbasg43
I01
sg44
g45
sbag1
(g2
g3
Ntp61
Rp62
(dp63
g7
VSpr GS Silver 1.png
p64
sg9
g10
sg11
VSilver (game)
p65
sg13
V300
p66
sg15
I1
sg16
g17
sg18
g19
sg20
g21
sg22
(lp67
g1
(g24
g3
Ntp68
Rp69
(dp70
g28
I152
sg29
VChikorita
p71
sg31
g32
sg33
g34
sg35
(lp72
VTackle
p73
aVGrowl
p74
asg39
g40
sg41
Vovergrow
p75
sbasg43
I01
sg44
g45
sbag1
(g2
g3
Ntp76
Rp77
(dp78
g7
VSpr HGSS Silver.png
p79
sg9
VPasserby
p80
sg11
VSilver (game)
p81
sg13
V500
p82
sg15
I1
sg16
g17
sg18
g19
sg20
VHGSS
p83
sg22
(lp84
g1
(g24
g3
Ntp85
Rp86
(dp87
g28
I155
sg29
VCyndaquil
p88
sg31
g32
sg33
g34
sg35
(lp89
VTackle
p90
aVLeer
p91
asg39
g40
sg41
VBlaze
p92
sbasg43
I01
sg44
Vheartgold-soulsilver
p93
sbag1
(g2
g3
Ntp94
Rp95
(dp96
g7
VSpr HGSS Silver.png
p97
sg9
VPasserby
p98
sg11
VSilver (game)
p99
sg13
V500
p100
sg15
I1
sg16
g17
sg18
g19
sg20
g83
sg22
(lp101
g1
(g24
g3
Ntp102
Rp103
(dp104
g28
I158
sg29
VTotodile
p105
sg31
g32
sg33
g34
sg35
(lp106
VScratch
p107
aVLeer
p108
asg39
g40
sg41
VTorrent
p109
sbasg43
I01
sg44
g93
sbag1
(g2
g3
Ntp110
Rp111
(dp112
g7
VSpr HGSS Silver.png
p113
sg9
VPasserby
p114
sg11
VSilver (game)
p115
sg13
V500
p116
sg15
I1
sg16
g17
sg18
g19
sg20
g83
sg22
(lp117
g1
(g24
g3
Ntp118
Rp119
(dp120
g28
I152
sg29
VChikorita
p121
sg31
g32
sg33
g34
sg35
(lp122
VTackle
p123
aVGrowl
p124
asg39
g40
sg41
VOvergrow
p125
sbasg43
I01
sg44
g93
sba.