(lp0
ccopy_reg
_reconstructor
p1
(c__main__
Trainer
p2
c__builtin__
object
p3
Ntp4
Rp5
(dp6
VtSprite
p7
VSpr C Eusine.png
p8
sVtClass
p9
VMysticalman
p10
sVtName
p11
VEusine
p12
sVtMoney
p13
V2500
p14
sVtPokeCount
p15
I3
sVtLocation
p16
Vwiki/Cianwood_City
p17
sVtRegion
p18
VJohto
p19
sVtGame
p20
VC
p21
sVtPokes
p22
(lp23
g1
(c__main__
FinishedPokemon
p24
g3
Ntp25
Rp26
(dp27
VpDexNo
p28
I96
sVpSpecies
p29
VDrowzee
p30
sVpGender
p31
VM
p32
sVpLevel
p33
V23
p34
sVpMoves
p35
(lp36
VHypnosis
p37
aVDisable
p38
aVConfusion
p39
aVDream Eater
p40
asVpHold
p41
V
p42
sVpAbility
p43
Vforewarn
p44
sbag1
(g24
g3
Ntp45
Rp46
(dp47
g28
I93
sg29
VHaunter
p48
sg31
g32
sg33
V23
p49
sg35
(lp50
VHypnosis
p51
aVLick
p52
aVMean Look
p53
aVCurse
p54
asg41
g42
sg43
Vlevitate
p55
sbag1
(g24
g3
Ntp56
Rp57
(dp58
g28
I101
sg29
VElectrode
p59
sg31
VU
p60
sg33
V25
p61
sg35
(lp62
VSonicBoom
p63
aVRollout
p64
aVScreech
p65
aVThunder
p66
asg41
g42
sg43
Vsoundproof
p67
sbasVbossFlag
p68
I01
sVtLongGame
p69
Vcrystal
p70
sbag1
(g2
g3
Ntp71
Rp72
(dp73
g7
VSpr HGSS Eusine.png
p74
sg9
VMystery Man
p75
sg11
VEusine
p76
sg13
V3240
p77
sg15
I3
sg16
g17
sg18
g19
sg20
VHGSS
p78
sg22
(lp79
g1
(g24
g3
Ntp80
Rp81
(dp82
g28
I96
sg29
VDrowzee
p83
sg31
g32
sg33
V25
p84
sg35
(lp85
VHypnosis
p86
aVDisable
p87
aVConfusion
p88
aVDream Eater
p89
asg41
g42
sg43
VInsomnia
p90
sbag1
(g24
g3
Ntp91
Rp92
(dp93
g28
I93
sg29
VHaunter
p94
sg31
g32
sg33
V25
p95
sg35
(lp96
VHypnosis
p97
aVLick
p98
aVMean Look
p99
aVCurse
p100
asg41
g42
sg43
VLevitate
p101
sbag1
(g24
g3
Ntp102
Rp103
(dp104
g28
I101
sg29
VElectrode
p105
sg31
g60
sg33
V27
p106
sg35
(lp107
VSonicBoom
p108
aVRollout
p109
aVScreech
p110
aVThunder
p111
asg41
g42
sg43
VStatic
p112
sbasg68
I01
sg69
Vheartgold-soulsilver
p113
sba.