(lp0
ccopy_reg
_reconstructor
p1
(c__main__
Trainer
p2
c__builtin__
object
p3
Ntp4
Rp5
(dp6
VtSprite
p7
VSpr GS Blackbelt.png
p8
sVtClass
p9
VBlackbelt
p10
sVtName
p11
VYoshi
p12
sVtMoney
p13
V648
p14
sVtPokeCount
p15
V1
p16
sVtLocation
p17
Vwiki/Cianwood_Gym
p18
sVtRegion
p19
VJohto
p20
sVtGame
p21
VGS
p22
sVtPokes
p23
(lp24
g1
(c__main__
FinishedPokemon
p25
g3
Ntp26
Rp27
(dp28
VpDexNo
p29
V106
p30
sVpSpecies
p31
VHitmonlee
p32
sVpGender
p33
VM
p34
sVpLevel
p35
V27
p36
sVpMoves
p37
(lp38
Vmind-reader
p39
aVreversal
p40
aVforesight
p41
aVendure
p42
asVpHold
p43
V
p44
sVpAbility
p45
Vreckless
p46
sbasVbossFlag
p47
I00
sVtLongGame
p48
Vgold-silver
p49
sbag1
(g2
g3
Ntp50
Rp51
(dp52
g7
VSpr GS Blackbelt.png
p53
sg9
VBlackbelt
p54
sg11
VLao
p55
sg13
V648
p56
sg15
g16
sg17
g18
sg19
g20
sg21
g22
sg23
(lp57
g1
(g25
g3
Ntp58
Rp59
(dp60
g29
V107
p61
sg31
VHitmonchan
p62
sg33
g34
sg35
V27
p63
sg37
(lp64
Vagility
p65
aVmach-punch
p66
aVdetect
p67
aVpursuit
p68
asg43
g44
sg45
Vkeen-eye
p69
sbasg47
I00
sg48
g49
sbag1
(g2
g3
Ntp70
Rp71
(dp72
g7
VSpr GS Blackbelt.png
p73
sg9
VBlackbelt
p74
sg11
VNob
p75
sg13
V600
p76
sg15
V2
p77
sg17
g18
sg19
g20
sg21
g22
sg23
(lp78
g1
(g25
g3
Ntp79
Rp80
(dp81
g29
V066
p82
sg31
VMachop
p83
sg33
g34
sg35
V25
p84
sg37
(lp85
Vscary-face
p86
aVforesight
p87
aVvital-throw
p88
aVcross-chop
p89
asg43
g44
sg45
Vguts
p90
sbag1
(g25
g3
Ntp91
Rp92
(dp93
g29
V067
p94
sg31
VMachoke
p95
sg33
g34
sg35
V25
p96
sg37
(lp97
Vscary-face
p98
aVforesight
p99
aVvital-throw
p100
aVcross-chop
p101
asg43
g44
sg45
Vguts
p102
sbasg47
I00
sg48
g49
sbag1
(g2
g3
Ntp103
Rp104
(dp105
g7
VSpr GS Blackbelt.png
p106
sg9
VBlackbelt
p107
sg11
VLung
p108
sg13
V600
p109
sg15
V3
p110
sg17
g18
sg19
g20
sg21
g22
sg23
(lp111
g1
(g25
g3
Ntp112
Rp113
(dp114
g29
V056
p115
sg31
VMankey
p116
sg33
g34
sg35
V23
p117
sg37
(lp118
Vscreech
p119
aVfocus-energy
p120
aVfury-swipes
p121
aVcross-chop
p122
asg43
g44
sg45
Vanger-point
p123
sbag1
(g25
g3
Ntp124
Rp125
(dp126
g29
V056
p127
sg31
VMankey
p128
sg33
g34
sg35
V23
p129
sg37
(lp130
Vscreech
p131
aVfocus-energy
p132
aVfury-swipes
p133
aVcross-chop
p134
asg43
g44
sg45
Vvital-spirit
p135
sbag1
(g25
g3
Ntp136
Rp137
(dp138
g29
V057
p139
sg31
VPrimeape
p140
sg33
g34
sg35
V25
p141
sg37
(lp142
Vscreech
p143
aVfocus-energy
p144
aVfury-swipes
p145
aVcross-chop
p146
asg43
g44
sg45
Vvital-spirit
p147
sbasg47
I00
sg48
g49
sbag1
(g2
g3
Ntp148
Rp149
(dp150
g7
VSpr HGSS Black Belt.png
p151
sg9
VBlack Belt
p152
sg11
VYoshi
p153
sg13
V648
p154
sg15
g16
sg17
g18
sg19
g20
sg21
VHGSS
p155
sg23
(lp156
g1
(g25
g3
Ntp157
Rp158
(dp159
g29
V106
p160
sg31
VHitmonlee
p161
sg33
g34
sg35
V27
p162
sg37
(lp163
Vbrick-break
p164
aVblaze-kick
p165
aVfeint
p166
aVclose-combat
p167
asg43
g44
sg45
Vreckless
p168
sbasg47
I00
sg48
Vheartgold-soulsilver
p169
sbag1
(g2
g3
Ntp170
Rp171
(dp172
g7
VSpr HGSS Black Belt.png
p173
sg9
VBlack Belt
p174
sg11
VNob
p175
sg13
V600
p176
sg15
g77
sg17
g18
sg19
g20
sg21
g155
sg23
(lp177
g1
(g25
g3
Ntp178
Rp179
(dp180
g29
V066
p181
sg31
VMachop
p182
sg33
g34
sg35
V25
p183
sg37
(lp184
Vvital-throw
p185
aVcross-chop
p186
aVrevenge
p187
aVwake-up-slap
p188
asg43
g44
sg45
Vno-guard
p189
sbag1
(g25
g3
Ntp190
Rp191
(dp192
g29
V067
p193
sg31
VMachoke
p194
sg33
g34
sg35
V25
p195
sg37
(lp196
Vvital-throw
p197
aVcross-chop
p198
aVrevenge
p199
aVwake-up-slap
p200
asg43
g44
sg45
Vguts
p201
sbasg47
I00
sg48
g169
sbag1
(g2
g3
Ntp202
Rp203
(dp204
g7
VSpr HGSS Black Belt.png
p205
sg9
VBlack Belt
p206
sg11
VLao
p207
sg13
V648
p208
sg15
g16
sg17
g18
sg19
g20
sg21
g155
sg23
(lp209
g1
(g25
g3
Ntp210
Rp211
(dp212
g29
V107
p213
sg31
VHitmonchan
p214
sg33
g34
sg35
V27
p215
sg37
(lp216
Vfeint
p217
aVclose-combat
p218
aVvacuum-wave
p219
aVbullet-punch
p220
asg43
g44
sg45
Vkeen-eye
p221
sbasg47
I00
sg48
g169
sbag1
(g2
g3
Ntp222
Rp223
(dp224
g7
VSpr HGSS Black Belt.png
p225
sg9
VBlack Belt
p226
sg11
VLung
p227
sg13
V600
p228
sg15
g110
sg17
g18
sg19
g20
sg21
g155
sg23
(lp229
g1
(g25
g3
Ntp230
Rp231
(dp232
g29
V056
p233
sg31
VMankey
p234
sg33
g34
sg35
V23
p235
sg37
(lp236
Vcovet
p237
aVclose-combat
p238
aVassurance
p239
aVpunishment
p240
asg43
g44
sg45
Vanger-point
p241
sbag1
(g25
g3
Ntp242
Rp243
(dp244
g29
V056
p245
sg31
VMankey
p246
sg33
g34
sg35
V23
p247
sg37
(lp248
Vcovet
p249
aVclose-combat
p250
aVassurance
p251
aVpunishment
p252
asg43
g44
sg45
Vanger-point
p253
sbag1
(g25
g3
Ntp254
Rp255
(dp256
g29
V057
p257
sg31
VPrimeape
p258
sg33
g34
sg35
V25
p259
sg37
(lp260
Vclose-combat
p261
aVassurance
p262
aVfling
p263
aVpunishment
p264
asg43
g44
sg45
Vvital-spirit
p265
sbasg47
I00
sg48
g169
sbag1
(g2
g3
Ntp266
Rp267
(dp268
g7
VSpr GS Chuck.png
p269
sg9
VLeader
p270
sg11
VChuck
p271
sg13
V3000
p272
sg15
I2
sg17
g18
sg19
g20
sg21
g22
sg23
(lp273
g1
(g25
g3
Ntp274
Rp275
(dp276
g29
I57
sg31
VPrimeape
p277
sg33
g34
sg35
V27
p278
sg37
(lp279
VLeer
p280
aVRage
p281
aVKarate Chop
p282
aVFury Swipes
p283
asg43
g44
sg45
Vanger-point
p284
sbag1
(g25
g3
Ntp285
Rp286
(dp287
g29
I62
sg31
VPoliwrath
p288
sg33
g34
sg35
V30
p289
sg37
(lp290
VHypnosis
p291
aVMind Reader
p292
aVSurf
p293
aVDynamicPunch
p294
asg43
g44
sg45
Vwater-absorb
p295
sbasg47
I01
sg48
g49
sbag1
(g2
g3
Ntp296
Rp297
(dp298
g7
VSpr HGSS Chuck.png
p299
sg9
VLeader
p300
sg11
VChuck
p301
sg13
V3720
p302
sg15
I2
sg17
g18
sg19
g20
sg21
g155
sg23
(lp303
g1
(g25
g3
Ntp304
Rp305
(dp306
g29
I57
sg31
VPrimeape
p307
sg33
g34
sg35
V29
p308
sg37
(lp309
VRock Slide
p310
aVDouble Team
p311
aVFocus Punch
p312
aVLeer
p313
asg43
g44
sg45
VVital Spirit
p314
sbag1
(g25
g3
Ntp315
Rp316
(dp317
g29
I62
sg31
VPoliwrath
p318
sg33
g34
sg35
V31
p319
sg37
(lp320
VSurf
p321
aVHypnosis
p322
aVBody Slam
p323
aVFocus Punch
p324
asg43
VSitrus Berry
p325
sg45
VWater Absorb
p326
sbasg47
I01
sg48
g169
sba.