(lp0
ccopy_reg
_reconstructor
p1
(c__main__
Trainer
p2
c__builtin__
object
p3
Ntp4
Rp5
(dp6
VtSprite
p7
VSpr RG Burglar.png\u200e
p8
sVtClass
p9
VBurglar
p10
sVtName
p11
V
p12
sVtMoney
p13
V3240
p14
sVtPokeCount
p15
V3
p16
sVtLocation
p17
Vwiki/Cinnabar_Gym
p18
sVtRegion
p19
VKanto
p20
sVtGame
p21
VRGB
p22
sVtPokes
p23
(lp24
g1
(c__main__
FinishedPokemon
p25
g3
Ntp26
Rp27
(dp28
VpDexNo
p29
V058
p30
sVpSpecies
p31
VGrowlithe
p32
sVpGender
p33
VU
p34
sVpLevel
p35
V36
p36
sVpMoves
p37
(lp38
Vroar
p39
aVember
p40
aVflamethrower
p41
aVagility
p42
asVpHold
p43
g12
sVpAbility
p44
Vintimidate
p45
sbag1
(g25
g3
Ntp46
Rp47
(dp48
g29
V037
p49
sg31
VVulpix
p50
sg33
g34
sg35
V36
p51
sg37
(lp52
Vflamethrower
p53
aVfire-spin
p54
aVquick-attack
p55
aVconfuse-ray
p56
asg43
g12
sg44
Vflash-fire
p57
sbag1
(g25
g3
Ntp58
Rp59
(dp60
g29
V038
p61
sg31
VNinetales
p62
sg33
g34
sg35
V36
p63
sg37
(lp64
Vtail-whip
p65
aVroar
p66
aVember
p67
aVquick-attack
p68
asg43
g12
sg44
Vflash-fire
p69
sbasVbossFlag
p70
I00
sVtLongGame
p71
Vred-blue
p72
sbag1
(g2
g3
Ntp73
Rp74
(dp75
g7
VSpr RG Super Nerd.png
p76
sg9
VSuper Nerd
p77
sg11
g12
sg13
V900
p78
sg15
g16
sg17
g18
sg19
g20
sg21
g22
sg23
(lp79
g1
(g25
g3
Ntp80
Rp81
(dp82
g29
V037
p83
sg31
VVulpix
p84
sg33
g34
sg35
V36
p85
sg37
(lp86
Vflamethrower
p87
aVfire-spin
p88
aVquick-attack
p89
aVconfuse-ray
p90
asg43
g12
sg44
Vflash-fire
p91
sbag1
(g25
g3
Ntp92
Rp93
(dp94
g29
V037
p95
sg31
VVulpix
p96
sg33
g34
sg35
V36
p97
sg37
(lp98
Vflamethrower
p99
aVfire-spin
p100
aVquick-attack
p101
aVconfuse-ray
p102
asg43
g12
sg44
Vflash-fire
p103
sbag1
(g25
g3
Ntp104
Rp105
(dp106
g29
V038
p107
sg31
VNinetales
p108
sg33
g34
sg35
V36
p109
sg37
(lp110
Vtail-whip
p111
aVroar
p112
aVember
p113
aVquick-attack
p114
asg43
g12
sg44
Vflash-fire
p115
sbasg70
I00
sg71
g72
sbag1
(g2
g3
Ntp116
Rp117
(dp118
g7
VSpr RG Super Nerd.png
p119
sg9
VSuper Nerd
p120
sg11
g12
sg13
V850
p121
sg15
V4
p122
sg17
g18
sg19
g20
sg21
g22
sg23
(lp123
g1
(g25
g3
Ntp124
Rp125
(dp126
g29
V077
p127
sg31
VPonyta
p128
sg33
g34
sg35
V34
p129
sg37
(lp130
Vgrowl
p131
aVember
p132
aVfire-spin
p133
aVagility
p134
asg43
g12
sg44
Vflash-fire
p135
sbag1
(g25
g3
Ntp136
Rp137
(dp138
g29
V004
p139
sg31
VCharmander
p140
sg33
g34
sg35
V34
p141
sg37
(lp142
Vflamethrower
p143
aVfire-spin
p144
aVrage
p145
aVslash
p146
asg43
g12
sg44
Vblaze
p147
sbag1
(g25
g3
Ntp148
Rp149
(dp150
g29
V037
p151
sg31
VVulpix
p152
sg33
g34
sg35
V34
p153
sg37
(lp154
Vflamethrower
p155
aVfire-spin
p156
aVquick-attack
p157
aVconfuse-ray
p158
asg43
g12
sg44
Vflash-fire
p159
sbag1
(g25
g3
Ntp160
Rp161
(dp162
g29
V058
p163
sg31
VGrowlithe
p164
sg33
g34
sg35
V34
p165
sg37
(lp166
Vroar
p167
aVember
p168
aVflamethrower
p169
aVagility
p170
asg43
g12
sg44
Vflash-fire
p171
sbasg70
I00
sg71
g72
sbag1
(g2
g3
Ntp172
Rp173
(dp174
g7
VSpr RG Burglar.png\u200e
p175
sg9
VBurglar
p176
sg11
g12
sg13
V3690
p177
sg15
V1
p178
sg17
g18
sg19
g20
sg21
g22
sg23
(lp179
g1
(g25
g3
Ntp180
Rp181
(dp182
g29
V077
p183
sg31
VPonyta
p184
sg33
g34
sg35
V41
p185
sg37
(lp186
Vgrowl
p187
aVember
p188
aVfire-spin
p189
aVagility
p190
asg43
g12
sg44
Vrun-away
p191
sbasg70
I00
sg71
g72
sbag1
(g2
g3
Ntp192
Rp193
(dp194
g7
VSpr RG Super Nerd.png\u200e
p195
sg9
VSuper Nerd
p196
sg11
g12
sg13
V1025
p197
sg15
g178
sg17
g18
sg19
g20
sg21
g22
sg23
(lp198
g1
(g25
g3
Ntp199
Rp200
(dp201
g29
V078
p202
sg31
VRapidash
p203
sg33
g34
sg35
V41
p204
sg37
(lp205
Vgrowl
p206
aVember
p207
aVfire-spin
p208
aVagility
p209
asg43
g12
sg44
Vrun-away
p210
sbasg70
I00
sg71
g72
sbag1
(g2
g3
Ntp211
Rp212
(dp213
g7
VSpr RG Burglar.png\u200e\u200e
p214
sg9
VBurglar
p215
sg11
g12
sg13
V3330
p216
sg15
V2
p217
sg17
g18
sg19
g20
sg21
g22
sg23
(lp218
g1
(g25
g3
Ntp219
Rp220
(dp221
g29
V037
p222
sg31
VVulpix
p223
sg33
g34
sg35
V37
p224
sg37
(lp225
Vflamethrower
p226
aVfire-spin
p227
aVquick-attack
p228
aVconfuse-ray
p229
asg43
g12
sg44
Vflash-fire
p230
sbag1
(g25
g3
Ntp231
Rp232
(dp233
g29
V058
p234
sg31
VGrowlithe
p235
sg33
g34
sg35
V37
p236
sg37
(lp237
Vroar
p238
aVember
p239
aVflamethrower
p240
aVagility
p241
asg43
g12
sg44
Vintimidate
p242
sbasg70
I00
sg71
g72
sbag1
(g2
g3
Ntp243
Rp244
(dp245
g7
VSpr RG Super Nerd.png
p246
sg9
VSuper Nerd
p247
sg11
g12
sg13
V925
p248
sg15
g217
sg17
g18
sg19
g20
sg21
g22
sg23
(lp249
g1
(g25
g3
Ntp250
Rp251
(dp252
g29
V058
p253
sg31
VGrowlithe
p254
sg33
g34
sg35
V37
p255
sg37
(lp256
Vroar
p257
aVember
p258
aVflamethrower
p259
aVagility
p260
asg43
g12
sg44
Vintimidate
p261
sbag1
(g25
g3
Ntp262
Rp263
(dp264
g29
V037
p265
sg31
VVulpix
p266
sg33
g34
sg35
V37
p267
sg37
(lp268
Vflamethrower
p269
aVfire-spin
p270
aVquick-attack
p271
aVconfuse-ray
p272
asg43
g12
sg44
Vflash-fire
p273
sbasg70
I00
sg71
g72
sbag1
(g2
g3
Ntp274
Rp275
(dp276
g7
VSpr FRLG Burglar.png
p277
sg9
VBurglar
p278
sg11
VQuinn
p279
sg13
V3168
p280
sg15
g16
sg17
g18
sg19
g20
sg21
VFRLG
p281
sg23
(lp282
g1
(g25
g3
Ntp283
Rp284
(dp285
g29
V058
p286
sg31
VGrowlithe
p287
sg33
VM
p288
sg35
V36
p289
sg37
(lp290
Vagility
p291
aVflame-wheel
p292
aVhelping-hand
p293
aVodor-sleuth
p294
asg43
g12
sg44
Vflash-fire
p295
sbag1
(g25
g3
Ntp296
Rp297
(dp298
g29
V037
p299
sg31
VVulpix
p300
sg33
VF
p301
sg35
V36
p302
sg37
(lp303
Vsafeguard
p304
aVwill-o-wisp
p305
aVimprison
p306
aVgrudge
p307
asg43
g12
sg44
Vflash-fire
p308
sbag1
(g25
g3
Ntp309
Rp310
(dp311
g29
V038
p312
sg31
VNinetales
p313
sg33
g301
sg35
V36
p314
sg37
(lp315
Vfire-spin
p316
aVquick-attack
p317
aVconfuse-ray
p318
aVsafeguard
p319
asg43
g12
sg44
Vflash-fire
p320
sbasg70
I00
sg71
Vfirered-leafgreen
p321
sbag1
(g2
g3
Ntp322
Rp323
(dp324
g7
VSpr FRLG Super Nerd.png
p325
sg9
VSuper Nerd
p326
sg11
VErik
p327
sg13
V864
p328
sg15
g16
sg17
g18
sg19
g20
sg21
g281
sg23
(lp329
g1
(g25
g3
Ntp330
Rp331
(dp332
g29
V037
p333
sg31
VVulpix
p334
sg33
g301
sg35
V36
p335
sg37
(lp336
Vsafeguard
p337
aVwill-o-wisp
p338
aVimprison
p339
aVgrudge
p340
asg43
g12
sg44
Vflash-fire
p341
sbag1
(g25
g3
Ntp342
Rp343
(dp344
g29
V037
p345
sg31
VVulpix
p346
sg33
g301
sg35
V36
p347
sg37
(lp348
Vsafeguard
p349
aVwill-o-wisp
p350
aVimprison
p351
aVgrudge
p352
asg43
g12
sg44
Vflash-fire
p353
sbag1
(g25
g3
Ntp354
Rp355
(dp356
g29
V038
p357
sg31
VNinetales
p358
sg33
g301
sg35
V36
p359
sg37
(lp360
Vfire-spin
p361
aVquick-attack
p362
aVconfuse-ray
p363
aVsafeguard
p364
asg43
g12
sg44
Vflash-fire
p365
sbasg70
I00
sg71
g321
sbag1
(g2
g3
Ntp366
Rp367
(dp368
g7
VSpr FRLG Super Nerd.png
p369
sg9
VSuper Nerd
p370
sg11
VAvery
p371
sg13
V816
p372
sg15
g122
sg17
g18
sg19
g20
sg21
g281
sg23
(lp373
g1
(g25
g3
Ntp374
Rp375
(dp376
g29
V077
p377
sg31
VPonyta
p378
sg33
g288
sg35
V34
p379
sg37
(lp380
Vagility
p381
aVquick-attack
p382
aVfire-blast
p383
aVbounce
p384
asg43
g12
sg44
Vrun-away
p385
sbag1
(g25
g3
Ntp386
Rp387
(dp388
g29
V004
p389
sg31
VCharmander
p390
sg33
g288
sg35
V34
p391
sg37
(lp392
Vsmokescreen
p393
aVslash
p394
aVscary-face
p395
aVmetal-claw
p396
asg43
g12
sg44
Vblaze
p397
sbag1
(g25
g3
Ntp398
Rp399
(dp400
g29
V037
p401
sg31
VVulpix
p402
sg33
g301
sg35
V34
p403
sg37
(lp404
Vsafeguard
p405
aVwill-o-wisp
p406
aVimprison
p407
aVgrudge
p408
asg43
g12
sg44
Vflash-fire
p409
sbag1
(g25
g3
Ntp410
Rp411
(dp412
g29
V058
p413
sg31
VGrowlithe
p414
sg33
g288
sg35
V34
p415
sg37
(lp416
Vagility
p417
aVflame-wheel
p418
aVhelping-hand
p419
aVodor-sleuth
p420
asg43
g12
sg44
Vintimidate
p421
sbasg70
I00
sg71
g321
sbag1
(g2
g3
Ntp422
Rp423
(dp424
g7
VSpr FRLG Burglar.png
p425
sg9
VBurglar
p426
sg11
VRamon
p427
sg13
V3608
p428
sg15
g178
sg17
g18
sg19
g20
sg21
g281
sg23
(lp429
g1
(g25
g3
Ntp430
Rp431
(dp432
g29
V077
p433
sg31
VPonyta
p434
sg33
g288
sg35
V41
p435
sg37
(lp436
Vagility
p437
aVquick-attack
p438
aVfire-blast
p439
aVbounce
p440
asg43
g12
sg44
Vflash-fire
p441
sbasg70
I00
sg71
g321
sbag1
(g2
g3
Ntp442
Rp443
(dp444
g7
VSpr FRLG Super Nerd.png
p445
sg9
VSuper Nerd
p446
sg11
VDerek
p447
sg13
V984
p448
sg15
g178
sg17
g18
sg19
g20
sg21
g281
sg23
(lp449
g1
(g25
g3
Ntp450
Rp451
(dp452
g29
V078
p453
sg31
VRapidash
p454
sg33
g288
sg35
V41
p455
sg37
(lp456
Vagility
p457
aVquick-attack
p458
aVfire-blast
p459
aVbounce
p460
asg43
g12
sg44
Vflash-fire
p461
sbasg70
I00
sg71
g321
sbag1
(g2
g3
Ntp462
Rp463
(dp464
g7
VSpr FRLG Burglar.png
p465
sg9
VBurglar
p466
sg11
VDusty
p467
sg13
V3256
p468
sg15
g217
sg17
g18
sg19
g20
sg21
g281
sg23
(lp469
g1
(g25
g3
Ntp470
Rp471
(dp472
g29
V037
p473
sg31
VVulpix
p474
sg33
g301
sg35
V37
p475
sg37
(lp476
Vsafeguard
p477
aVwill-o-wisp
p478
aVimprison
p479
aVgrudge
p480
asg43
g12
sg44
Vflash-fire
p481
sbag1
(g25
g3
Ntp482
Rp483
(dp484
g29
V058
p485
sg31
VGrowlithe
p486
sg33
g288
sg35
V37
p487
sg37
(lp488
Vagility
p489
aVflame-wheel
p490
aVhelping-hand
p491
aVodor-sleuth
p492
asg43
g12
sg44
Vflash-fire
p493
sbasg70
I00
sg71
g321
sbag1
(g2
g3
Ntp494
Rp495
(dp496
g7
VSpr FRLG Super Nerd.png
p497
sg9
VSuper Nerd
p498
sg11
VZac
p499
sg13
V888
p500
sg15
g217
sg17
g18
sg19
g20
sg21
g281
sg23
(lp501
g1
(g25
g3
Ntp502
Rp503
(dp504
g29
V058
p505
sg31
VGrowlithe
p506
sg33
g288
sg35
V37
p507
sg37
(lp508
Vagility
p509
aVflame-wheel
p510
aVhelping-hand
p511
aVodor-sleuth
p512
asg43
g12
sg44
Vintimidate
p513
sbag1
(g25
g3
Ntp514
Rp515
(dp516
g29
V037
p517
sg31
VVulpix
p518
sg33
g301
sg35
V37
p519
sg37
(lp520
Vsafeguard
p521
aVwill-o-wisp
p522
aVimprison
p523
aVgrudge
p524
asg43
g12
sg44
Vflash-fire
p525
sbasg70
I00
sg71
g321
sbag1
(g2
g3
Ntp526
Rp527
(dp528
g7
VSpr HGSS Scientist.png
p529
sg9
VScientist
p530
sg11
VLowell
p531
sg13
V1600
p532
sg15
g178
sg17
g18
sg19
g20
sg21
VHGSS
p533
sg23
(lp534
g1
(g25
g3
Ntp535
Rp536
(dp537
g29
V059
p538
sg31
VArcanine
p539
sg33
g288
sg35
V50
p540
sg37
(lp541
Vextreme-speed
p542
aVodor-sleuth
p543
aVthunder-fang
p544
aVfire-fang
p545
asg43
g12
sg44
Vflash-fire
p546
sbasg70
I00
sg71
Vheartgold-soulsilver
p547
sbag1
(g2
g3
Ntp548
Rp549
(dp550
g7
VSpr HGSS Scientist.png
p551
sg9
VScientist
p552
sg11
VDaniel
p553
sg13
V1600
p554
sg15
g178
sg17
g18
sg19
g20
sg21
g533
sg23
(lp555
g1
(g25
g3
Ntp556
Rp557
(dp558
g29
V038
p559
sg31
VNinetales
p560
sg33
g301
sg35
V50
p561
sg37
(lp562
Vquick-attack
p563
aVconfuse-ray
p564
aVsafeguard
p565
aVnasty-plot
p566
asg43
g12
sg44
Vflash-fire
p567
sbasg70
I00
sg71
g547
sbag1
(g2
g3
Ntp568
Rp569
(dp570
g7
VSpr HGSS Super Nerd.png
p571
sg9
VSuper Nerd
p572
sg11
VCary
p573
sg13
V2544
p574
sg15
g178
sg17
g18
sg19
g20
sg21
g533
sg23
(lp575
g1
(g25
g3
Ntp576
Rp577
(dp578
g29
V324
p579
sg31
VTorkoal
p580
sg33
g288
sg35
V53
p581
sg37
(lp582
Vrapid-spin
p583
aVheat-wave
p584
aViron-defense
p585
aVlava-plume
p586
asg43
g12
sg44
Vwhite-smoke
p587
sbasg70
I00
sg71
g547
sbag1
(g2
g3
Ntp588
Rp589
(dp590
g7
VSpr HGSS Scientist.png
p591
sg9
VScientist
p592
sg11
VLinden
p593
sg13
V1600
p594
sg15
g178
sg17
g18
sg19
g20
sg21
g533
sg23
(lp595
g1
(g25
g3
Ntp596
Rp597
(dp598
g29
V126
p599
sg31
VMagmar
p600
sg33
g288
sg35
V50
p601
sg37
(lp602
Vfire-blast
p603
aVfeint-attack
p604
aVsunny-day
p605
aVlava-plume
p606
asg43
g12
sg44
Vflame-body
p607
sbasg70
I00
sg71
g547
sbag1
(g2
g3
Ntp608
Rp609
(dp610
g7
VSpr HGSS Super Nerd.png
p611
sg9
VSuper Nerd
p612
sg11
VWaldo
p613
sg13
V2544
p614
sg15
g178
sg17
g18
sg19
g20
sg21
g533
sg23
(lp615
g1
(g25
g3
Ntp616
Rp617
(dp618
g29
V322
p619
sg31
VNumel
p620
sg33
g288
sg35
V53
p621
sg37
(lp622
Vamnesia
p623
aVmagnitude
p624
aVearth-power
p625
aVlava-plume
p626
asg43
g12
sg44
Voblivious
p627
sbasg70
I00
sg71
g547
sbag1
(g2
g3
Ntp628
Rp629
(dp630
g7
VSpr HGSS Super Nerd.png
p631
sg9
VSuper Nerd
p632
sg11
VMerle
p633
sg13
V2544
p634
sg15
g178
sg17
g18
sg19
g20
sg21
g533
sg23
(lp635
g1
(g25
g3
Ntp636
Rp637
(dp638
g29
V219
p639
sg31
VMagcargo
p640
sg33
g288
sg35
V53
p641
sg37
(lp642
Vancient-power
p643
aVyawn
p644
aVearth-power
p645
aVlava-plume
p646
asg43
g12
sg44
Vmagma-armor
p647
sbasg70
I00
sg71
g547
sbag1
(g2
g3
Ntp648
Rp649
(dp650
g7
VVSSuper Nerd PE.png
p651
sg9
VSuper Nerd
p652
sg11
VErik
p653
sg13
V1,800
p654
sg15
g178
sg17
g18
sg19
g20
sg21
VLGPE
p655
sg23
(lp656
g1
(g25
g3
Ntp657
Rp658
(dp659
g29
V005
p660
sg31
VCharmeleon
p661
sg33
g288
sg35
V45
p662
sg37
(lp663
Vscary-face
p664
aVfire-fang
p665
aVflame-burst
p666
aVinferno
p667
asg43
g12
sg44
Vblaze
p668
sbasg70
I00
sg71
Vsun-moon
p669
sbag1
(g2
g3
Ntp670
Rp671
(dp672
g7
VVSBurglar PE.png
p673
sg9
VBurglar
p674
sg11
VQuinn
p675
sg13
V3,520
p676
sg15
g178
sg17
g18
sg19
g20
sg21
g655
sg23
(lp677
g1
(g25
g3
Ntp678
Rp679
(dp680
g29
V038
p681
sg31
VNinetales
p682
sg33
g288
sg35
V44
p683
sg37
(lp684
Vconfuse-ray
p685
aVsafeguard
p686
aVimprison
p687
aVnasty-plot
p688
asg43
g12
sg44
Vflash-fire
p689
sbasg70
I00
sg71
g669
sbag1
(g2
g3
Ntp690
Rp691
(dp692
g7
VVSSuper Nerd PE.png
p693
sg9
VSuper Nerd
p694
sg11
VDerek
p695
sg13
V1,800
p696
sg15
g178
sg17
g18
sg19
g20
sg21
g655
sg23
(lp697
g1
(g25
g3
Ntp698
Rp699
(dp700
g29
V126
p701
sg31
VMagmar
p702
sg33
g288
sg35
V45
p703
sg37
(lp704
Vsunny-day
p705
aVlava-plume
p706
aVflame-burst
p707
aVclear-smog
p708
asg43
g12
sg44
Vflame-body
p709
sbasg70
I00
sg71
g669
sbag1
(g2
g3
Ntp710
Rp711
(dp712
g7
VVSBurglar PE.png
p713
sg9
VBurglar
p714
sg11
VDusty
p715
sg13
V3,520
p716
sg15
g217
sg17
g18
sg19
g20
sg21
g655
sg23
(lp717
g1
(g25
g3
Ntp718
Rp719
(dp720
g29
V058
p721
sg31
VGrowlithe
p722
sg33
g301
sg35
V44
p723
sg37
(lp724
Vflare-blitz
p725
aVfire-fang
p726
aVflame-burst
p727
aVretaliate
p728
asg43
g12
sg44
Vflash-fire
p729
sbag1
(g25
g3
Ntp730
Rp731
(dp732
g29
V078
p733
sg31
VRapidash
p734
sg33
g288
sg35
V44
p735
sg37
(lp736
Vflare-blitz
p737
aVpoison-jab
p738
aVflame-charge
p739
aVinferno
p740
asg43
g12
sg44
Vflash-fire
p741
sbasg70
I00
sg71
g669
sbag1
(g2
g3
Ntp742
Rp743
(dp744
g7
VSpr RG Blaine.png
p745
sg9
VLeader
p746
sg11
VBlaine
p747
sg13
V4653
p748
sg15
I4
sg17
g18
sg19
g20
sg21
g22
sg23
(lp749
g1
(g25
g3
Ntp750
Rp751
(dp752
g29
I58
sg31
VGrowlithe
p753
sg33
g34
sg35
V42
p754
sg37
(lp755
VEmber
p756
aVLeer
p757
aVTake Down
p758
aVAgility
p759
asg43
g12
sg44
Vflash-fire
p760
sbag1
(g25
g3
Ntp761
Rp762
(dp763
g29
I77
sg31
VPonyta
p764
sg33
g34
sg35
V40
p765
sg37
(lp766
VTail Whip
p767
aVStomp
p768
aVGrowl
p769
aVFire Spin
p770
asg43
g12
sg44
Vrun-away
p771
sbag1
(g25
g3
Ntp772
Rp773
(dp774
g29
I78
sg31
VRapidash
p775
sg33
g34
sg35
V42
p776
sg37
(lp777
VTail Whip
p778
aVStomp
p779
aVGrowl
p780
aVFire Spin
p781
asg43
g12
sg44
Vflash-fire
p782
sbag1
(g25
g3
Ntp783
Rp784
(dp785
g29
I59
sg31
VArcanine
p786
sg33
g34
sg35
V47
p787
sg37
(lp788
VRoar
p789
aVEmber
p790
aVFire Blast
p791
aVTake Down
p792
asg43
g12
sg44
Vflash-fire
p793
sbasg70
I01
sg71
g72
sbag1
(g2
g3
Ntp794
Rp795
(dp796
g7
VSpr Y Blaine.png
p797
sg9
g746
sg11
VBlaine
p798
sg13
V5346
p799
sg15
I3
sg17
g18
sg19
g20
sg21
VY
p800
sg23
(lp801
g1
(g25
g3
Ntp802
Rp803
(dp804
g29
I38
sg31
VNinetales
p805
sg33
g34
sg35
V48
p806
sg37
(lp807
VConfuse Ray
p808
aVQuick Attack
p809
aVTail Whip
p810
aVFlamethrower
p811
asg43
g12
sg44
Vflash-fire
p812
sbag1
(g25
g3
Ntp813
Rp814
(dp815
g29
I78
sg31
VRapidash
p816
sg33
g34
sg35
V50
p817
sg37
(lp818
VTail Whip
p819
aVStomp
p820
aVGrowl
p821
aVFire Spin
p822
asg43
g12
sg44
Vrun-away
p823
sbag1
(g25
g3
Ntp824
Rp825
(dp826
g29
I59
sg31
VArcanine
p827
sg33
g34
sg35
V54
p828
sg37
(lp829
VReflect
p830
aVTake Down
p831
aVFire Blast
p832
aVFlamethrower
p833
asg43
g12
sg44
Vintimidate
p834
sbasg70
I01
sg71
Vyellow
p835
sbag1
(g2
g3
Ntp836
Rp837
(dp838
g7
VSpr GS Blaine.png
p839
sg9
VLeader
p840
sg11
VBlaine
p841
sg13
V5000
p842
sg15
I3
sg17
g18
sg19
g20
sg21
VGS
p843
sg23
(lp844
g1
(g25
g3
Ntp845
Rp846
(dp847
g29
I219
sg31
VMagcargo
p848
sg33
g288
sg35
V45
p849
sg37
(lp850
VCurse
p851
aVSmog
p852
aVFlamethrower
p853
aVRock Slide
p854
asg43
g12
sg44
Vflame-body
p855
sbag1
(g25
g3
Ntp856
Rp857
(dp858
g29
I126
sg31
VMagmar
p859
sg33
g288
sg35
V45
p860
sg37
(lp861
VThunderPunch
p862
aVFire Punch
p863
aVSunny Day
p864
aVConfuse Ray
p865
asg43
g12
sg44
Vflame-body
p866
sbag1
(g25
g3
Ntp867
Rp868
(dp869
g29
I78
sg31
VRapidash
p870
sg33
g288
sg35
V50
p871
sg37
(lp872
VQuick Attack
p873
aVFire Spin
p874
aVFury Attack
p875
aVFire Blast
p876
asg43
g12
sg44
Vrun-away
p877
sbasg70
I01
sg71
Vgold-silver
p878
sbag1
(g2
g3
Ntp879
Rp880
(dp881
g7
VSpr FRLG Blaine.png
p882
sg9
VLeader
p883
sg11
VBlaine
p884
sg13
V4700
p885
sg15
I4
sg17
g18
sg19
g20
sg21
g281
sg23
(lp886
g1
(g25
g3
Ntp887
Rp888
(dp889
g29
I58
sg31
VGrowlithe
p890
sg33
g288
sg35
V42
p891
sg37
(lp892
VBite
p893
aVRoar
p894
aVTake Down
p895
aVFire Blast
p896
asg43
g12
sg44
VIntimidate
p897
sbag1
(g25
g3
Ntp898
Rp899
(dp900
g29
I77
sg31
VPonyta
p901
sg33
g288
sg35
V40
p902
sg37
(lp903
VStomp
p904
aVBounce
p905
aVFire Spin
p906
aVFire Blast
p907
asg43
g12
sg44
VFlash Fire
p908
sbag1
(g25
g3
Ntp909
Rp910
(dp911
g29
I78
sg31
VRapidash
p912
sg33
g288
sg35
V42
p913
sg37
(lp914
VStomp
p915
aVBounce
p916
aVFire Spin
p917
aVFire Blast
p918
asg43
g12
sg44
VFlash Fire
p919
sbag1
(g25
g3
Ntp920
Rp921
(dp922
g29
I59
sg31
VArcanine
p923
sg33
g288
sg35
V47
p924
sg37
(lp925
VBite
p926
aVRoar
p927
aVTake Down
p928
aVFire Blast
p929
asg43
g12
sg44
VIntimidate
p930
sbasg70
I01
sg71
g321
sbag1
(g2
g3
Ntp931
Rp932
(dp933
g7
VSpr HGSS Blaine.png
p934
sg9
VLeader
p935
sg11
VBlaine
p936
sg13
V7080
p937
sg15
I3
sg17
g18
sg19
g20
sg21
g533
sg23
(lp938
g1
(g25
g3
Ntp939
Rp940
(dp941
g29
I219
sg31
VMagcargo
p942
sg33
g288
sg35
V54
p943
sg37
(lp944
VOverheat
p945
aVSunny Day
p946
aVSmog
p947
aVRock Slide
p948
asg43
VWhite Herb
p949
sg44
VFlame Body
p950
sbag1
(g25
g3
Ntp951
Rp952
(dp953
g29
I126
sg31
VMagmar
p954
sg33
g288
sg35
V54
p955
sg37
(lp956
VThunderPunch
p957
aVConfuse Ray
p958
aVOverheat
p959
aVSunny Day
p960
asg43
VWhite Herb
p961
sg44
VFlame Body
p962
sbag1
(g25
g3
Ntp963
Rp964
(dp965
g29
I78
sg31
VRapidash
p966
sg33
g288
sg35
V59
p967
sg37
(lp968
VQuick Attack
p969
aVBounce
p970
aVOverheat
p971
aVFlare Blitz
p972
asg43
VWhite Herb
p973
sg44
VFlash Fire
p974
sbasg70
I01
sg71
g547
sbag1
(g2
g3
Ntp975
Rp976
(dp977
g7
VVSBlaine PE.png
p978
sg9
VGym Leader
p979
sg11
VBlaine
p980
sg13
V7,680
p981
sg15
I4
sg17
g18
sg19
g20
sg21
g655
sg23
(lp982
g1
(g25
g3
Ntp983
Rp984
(dp985
g29
I126
sg31
VMagmar
p986
sg33
g288
sg35
V47
p987
sg37
(lp988
VFlamethrower
p989
aVLow Kick
p990
aVConfuse Ray
p991
asg43
g12
sg44
Vflame-body
p992
sbag1
(g25
g3
Ntp993
Rp994
(dp995
g29
I78
sg31
VRapidash
p996
sg33
g288
sg35
V47
p997
sg37
(lp998
VFlare Blitz
p999
aVQuick Attack
p1000
aVFury Attack
p1001
asg43
g12
sg44
Vrun-away
p1002
sbag1
(g25
g3
Ntp1003
Rp1004
(dp1005
g29
I38
sg31
VNinetales
p1006
sg33
g301
sg35
V47
p1007
sg37
(lp1008
VFire Blast
p1009
aVQuick Attack
p1010
asg43
g12
sg44
Vflash-fire
p1011
sbag1
(g25
g3
Ntp1012
Rp1013
(dp1014
g29
I59
sg31
VArcanine
p1015
sg33
g288
sg35
V48
p1016
sg37
(lp1017
VFlare Blitz
p1018
aVOutrage
p1019
aVCrunch
p1020
asg43
g12
sg44
Vintimidate
p1021
sbasg70
I01
sg71
g669
sbag1
(g2
g3
Ntp1022
Rp1023
(dp1024
g7
VVSBlaine PE.png
p1025
sg9
VGym Leader
p1026
sg11
VBlaine
p1027
sg13
V13,680
p1028
sg15
I5
sg17
g18
sg19
g20
sg21
g655
sg23
(lp1029
g1
(g25
g3
Ntp1030
Rp1031
(dp1032
g29
I126
sg31
VMagmar
p1033
sg33
g288
sg35
V56
p1034
sg37
(lp1035
VFire Punch
p1036
aVThunder Punch
p1037
aVBrick Break
p1038
aVWill-O-Wisp
p1039
asg43
g12
sg44
Vflame-body
p1040
sbag1
(g25
g3
Ntp1041
Rp1042
(dp1043
g29
I78
sg31
VRapidash
p1044
sg33
g288
sg35
V56
p1045
sg37
(lp1046
VFlare Blitz
p1047
aVQuick Attack
p1048
aVMegahorn
p1049
aVDrill Run
p1050
asg43
g12
sg44
Vflash-fire
p1051
sbag1
(g25
g3
Ntp1052
Rp1053
(dp1054
g29
I38
sg31
VNinetales
p1055
sg33
g301
sg35
V56
p1056
sg37
(lp1057
VFire Blast
p1058
aVQuick Attack
p1059
aVDark Pulse
p1060
aVSolar Beam
p1061
asg43
g12
sg44
Vflash-fire
p1062
sbag1
(g25
g3
Ntp1063
Rp1064
(dp1065
g29
I136
sg31
VFlareon
p1066
sg33
g288
sg35
V56
p1067
sg37
(lp1068
VFlare Blitz
p1069
aVQuick Attack
p1070
aVSuperpower
p1071
aVIron Tail
p1072
asg43
g12
sg44
Vflash-fire
p1073
sbag1
(g25
g3
Ntp1074
Rp1075
(dp1076
g29
I59
sg31
VArcanine
p1077
sg33
g288
sg35
V57
p1078
sg37
(lp1079
VFlare Blitz
p1080
aVOutrage
p1081
aVCrunch
p1082
aVPlay Rough
p1083
asg43
g12
sg44
Vintimidate
p1084
sbasg70
I01
sg71
g669
sba.