(lp0
ccopy_reg
_reconstructor
p1
(c__main__
Trainer
p2
c__builtin__
object
p3
Ntp4
Rp5
(dp6
VtSprite
p7
VVSGym Trainer Rock F.png
p8
sVtClass
p9
VGym Trainer
p10
sVtName
p11
VAbigail
p12
sVtMoney
p13
V3,648
p14
sVtPokeCount
p15
V1
p16
sVtLocation
p17
Vwiki/Circhester_Stadium
p18
sVtRegion
p19
VGalar
p20
sVtGame
p21
VSM
p22
sVtPokes
p23
(lp24
g1
(c__main__
FinishedPokemon
p25
g3
Ntp26
Rp27
(dp28
VpDexNo
p29
V525
p30
sVpSpecies
p31
VBoldore
p32
sVpGender
p33
VF
p34
sVpLevel
p35
V38
p36
sVpMoves
p37
(lp38
Vpower-gem
p39
aVstone-edge
p40
aVstealth-rock
p41
aVsmack-down
p42
asVpHold
p43
V
p44
sVpAbility
p45
Vweak-armor
p46
sbasVbossFlag
p47
I00
sVtLongGame
p48
Vsun-moon
p49
sbag1
(g2
g3
Ntp50
Rp51
(dp52
g7
VVSGym Trainer Rock F.png
p53
sg9
VGym Trainer
p54
sg11
VKiera
p55
sg13
V3,648
p56
sg15
g16
sg17
g18
sg19
g20
sg21
g22
sg23
(lp57
g1
(g25
g3
Ntp58
Rp59
(dp60
g29
V558
p61
sg31
VCrustle
p62
sg33
g34
sg35
V38
p63
sg37
(lp64
Vbug-bite
p65
aVsmack-down
p66
aVshell-smash
p67
ag67
asg43
g44
sg45
Vshell-armor
p68
sbasg47
I00
sg48
g49
sbag1
(g2
g3
Ntp69
Rp70
(dp71
g7
VVSGym Trainer Rock M.png
p72
sg9
VGym Trainer
p73
sg11
VOliver
p74
sg13
V3,744
p75
sg15
g16
sg17
g18
sg19
g20
sg21
VSM
p76
sg23
(lp77
g1
(g25
g3
Ntp78
Rp79
(dp80
g29
V838
p81
sg31
VCarkol
p82
sg33
VM
p83
sg35
V39
p84
sg37
(lp85
sg43
g44
sg45
Vsteam-engine
p86
sbasg47
I00
sg48
g49
sbag1
(g2
g3
Ntp87
Rp88
(dp89
g7
VVSGym Trainer Rock F.png
p90
sg9
VGym Trainer
p91
sg11
VWendy
p92
sg13
V3,744
p93
sg15
g16
sg17
g18
sg19
g20
sg21
g22
sg23
(lp94
g1
(g25
g3
Ntp95
Rp96
(dp97
g29
V185
p98
sg31
VSudowoodo
p99
sg33
g34
sg35
V39
p100
sg37
(lp101
Vstone-edge
p102
aVwood-hammer
p103
aVhead-smash
p104
aVtearful-look
p105
asg43
g44
sg45
Vrock-head
p106
sbasg47
I00
sg48
g49
sbag1
(g2
g3
Ntp107
Rp108
(dp109
g7
VVSGym Trainer Ice M.png
p110
sg9
VGym Trainer
p111
sg11
VLewis
p112
sg13
V3,648
p113
sg15
g16
sg17
g18
sg19
g20
sg21
VSM
p114
sg23
(lp115
g1
(g25
g3
Ntp116
Rp117
(dp118
g29
V872
p119
sg31
VSnom
p120
sg33
g83
sg35
V38
p121
sg37
(lp122
sg43
g44
sg45
Vshield-dust
p123
sbasg47
I00
sg48
g49
sbag1
(g2
g3
Ntp124
Rp125
(dp126
g7
VVSGym Trainer Ice F.png
p127
sg9
VGym Trainer
p128
sg11
VLiana
p129
sg13
V3,648
p130
sg15
g16
sg17
g18
sg19
g20
sg21
VSM
p131
sg23
(lp132
g1
(g25
g3
Ntp133
Rp134
(dp135
g29
V091
p136
sg31
VCloyster
p137
sg33
g34
sg35
V38
p138
sg37
(lp139
Vspikes
p140
aVtoxic-spikes
p141
aVshell-smash
p142
aVicicle-crash
p143
asg43
g44
sg45
Vshell-armor
p144
sbasg47
I00
sg48
g49
sbag1
(g2
g3
Ntp145
Rp146
(dp147
g7
VVSGym Trainer Ice M.png
p148
sg9
VGym Trainer
p149
sg11
VAlexander
p150
sg13
V3,744
p151
sg15
g16
sg17
g18
sg19
g20
sg21
g114
sg23
(lp152
g1
(g25
g3
Ntp153
Rp154
(dp155
g29
V614
p156
sg31
VBeartic
p157
sg33
g83
sg35
V39
p158
sg37
(lp159
Vbrine
p160
aVaqua-jet
p161
aVicicle-crash
p162
aVplay-nice
p163
asg43
g44
sg45
Vslush-rush
p164
sbasg47
I00
sg48
g49
sbag1
(g2
g3
Ntp165
Rp166
(dp167
g7
VVSGym Trainer Ice M.png
p168
sg9
VGym Trainer
p169
sg11
VMicah
p170
sg13
V3,744
p171
sg15
g16
sg17
g18
sg19
g20
sg21
g114
sg23
(lp172
g1
(g25
g3
Ntp173
Rp174
(dp175
g29
V713
p176
sg31
VAvalugg
p177
sg33
g83
sg35
V39
p178
sg37
(lp179
Vice-ball
p180
aViron-defense
p181
aVavalanche
p182
aVice-fang
p183
asg43
g44
sg45
Vice-body
p184
sbasg47
I00
sg48
g49
sbag1
(g2
g3
Ntp185
Rp186
(dp187
g7
VVSGordie.png
p188
sg9
VGym Leader
p189
sg11
VGordie
p190
sg13
V6,720
p191
sg15
I4
sg17
g18
sg19
g20
sg21
VSM
p192
sg23
(lp193
g1
(g25
g3
Ntp194
Rp195
(dp196
g29
I689
sg31
VBarbaracle
p197
sg33
g83
sg35
V40
p198
sg37
(lp199
VShell Smash
p200
aVRock Tomb
p201
aVRazor Shell
p202
asg43
g44
sg45
VTough Claws
p203
sbag1
(g25
g3
Ntp204
Rp205
(dp206
g29
I213
sg31
VShuckle
p207
sg33
g83
sg35
V40
p208
sg37
(lp209
VPower Split
p210
aVStone Edge
p211
aVStruggle Bug
p212
aVRock Tomb
p213
asg43
g44
sg45
VContrary
p214
sbag1
(g25
g3
Ntp215
Rp216
(dp217
g29
I874
sg31
VStonjourner
p218
sg33
g83
sg35
V41
p219
sg37
(lp220
VStealth Rock
p221
aVRock Tomb
p222
aVBody Slam
p223
aVWonder Room
p224
asg43
g44
sg45
VPower Spot
p225
sbag1
(g25
g3
Ntp226
Rp227
(dp228
g29
I839
sg31
VCoalossal
p229
sg33
g83
sg35
V42
p230
sg37
(lp231
VTar Shot
p232
aVStealth Rock
p233
aVHeat Crash
p234
aVRock Tomb
p235
asg43
g44
sg45
VSteam Engine
p236
sbasg47
I01
sg48
g49
sbag1
(g2
g3
Ntp237
Rp238
(dp239
g7
VVSMelony.png
p240
sg9
VGym Leader
p241
sg11
VMelony
p242
sg13
V6,720
p243
sg15
I4
sg17
g18
sg19
g20
sg21
VSM
p244
sg23
(lp245
g1
(g25
g3
Ntp246
Rp247
(dp248
g29
I873
sg31
VFrosmoth
p249
sg33
g34
sg35
V40
p250
sg37
(lp251
VIcy Wind
p252
aVFeather Dance
p253
aVBug Buzz
p254
aVHail
p255
asg43
g44
sg45
VShield Dust
p256
sbag1
(g25
g3
Ntp257
Rp258
(dp259
g29
I555
sg31
VDarmanitan
p260
sg33
g34
sg35
V40
p261
sg37
(lp262
VIcicle Crash
p263
aVHeadbutt
p264
aVTaunt
p265
aVFire Fang
p266
asg43
g44
sg45
VZen Mode
p267
sbag1
(g25
g3
Ntp268
Rp269
(dp270
g29
I875
sg31
VEiscue
p271
sg33
g34
sg35
V41
p272
sg37
(lp273
VAmnesia
p274
aVFreeze-Dry
p275
aVHail
p276
aVIcy Wind
p277
asg43
g44
sg45
VIce Face
p278
sbag1
(g25
g3
Ntp279
Rp280
(dp281
g29
I131
sg31
VLapras
p282
sg33
g34
sg35
V42
p283
sg37
(lp284
VIcy Wind
p285
aVIce Beam
p286
aVSurf
p287
aVSing
p288
asg43
g44
sg45
VShell Armor
p289
sbasg47
I01
sg48
g49
sba.