(lp0
ccopy_reg
_reconstructor
p1
(c__main__
Trainer
p2
c__builtin__
object
p3
Ntp4
Rp5
(dp6
VtSprite
p7
VSpr BW Youngster.png
p8
sVtClass
p9
VYoungster
p10
sVtName
p11
VKenneth
p12
sVtMoney
p13
V384
p14
sVtPokeCount
p15
V2
p16
sVtLocation
p17
Vwiki/Cold_Storage
p18
sVtRegion
p19
VUnova
p20
sVtGame
p21
VBW
p22
sVtPokes
p23
(lp24
g1
(c__main__
FinishedPokemon
p25
g3
Ntp26
Rp27
(dp28
VpDexNo
p29
V544
p30
sVpSpecies
p31
VWhirlipede
p32
sVpGender
p33
VM
p34
sVpLevel
p35
V24
p36
sVpMoves
p37
(lp38
Vrock-climb
p39
aVbug-bite
p40
aVvenoshock
p41
aVsteamroller
p42
asVpHold
p43
V
p44
sVpAbility
p45
Vpoison-point
p46
sbag1
(g25
g3
Ntp47
Rp48
(dp49
g29
V588
p50
sg31
VKarrablast
p51
sg33
g34
sg35
V24
p52
sg37
(lp53
Vfalse-swipe
p54
aVfury-cutter
p55
aVx-scissor
p56
aVbug-buzz
p57
asg43
g44
sg45
Vswarm
p58
sbasVbossFlag
p59
I00
sVtLongGame
p60
Vblack-white
p61
sbag1
(g2
g3
Ntp62
Rp63
(dp64
g7
VSpr BW Youngster.png
p65
sg9
VYoungster
p66
sg11
VAlbert
p67
sg13
V384
p68
sg15
g16
sg17
g18
sg19
g20
sg21
g22
sg23
(lp69
g1
(g25
g3
Ntp70
Rp71
(dp72
g29
V595
p73
sg31
VJoltik
p74
sg33
g34
sg35
V24
p75
sg37
(lp76
Vdischarge
p77
aVbug-bite
p78
aVelectro-ball
p79
aVelectroweb
p80
asg43
g44
sg45
Vunnerve
p81
sbag1
(g25
g3
Ntp82
Rp83
(dp84
g29
V557
p85
sg31
VDwebble
p86
sg33
g34
sg35
V24
p87
sg37
(lp88
Vstealth-rock
p89
aVbug-bite
p90
aVsmack-down
p91
aVshell-smash
p92
asg43
g44
sg45
Vshell-armor
p93
sbasg59
I00
sg60
g61
sbag1
(g2
g3
Ntp94
Rp95
(dp96
g7
VSpr BW WorkerIce.png
p97
sg9
VWorker
p98
sg11
VEddie
p99
sg13
V960
p100
sg15
g16
sg17
g18
sg19
g20
sg21
g22
sg23
(lp101
g1
(g25
g3
Ntp102
Rp103
(dp104
g29
V511
p105
sg31
VPansage
p106
sg33
g34
sg35
V24
p107
sg37
(lp108
Vfling
p109
aVseed-bomb
p110
aVgrass-knot
p111
aVacrobatics
p112
asg43
g44
sg45
Vgluttony
p113
sbag1
(g25
g3
Ntp114
Rp115
(dp116
g29
V532
p117
sg31
VTimburr
p118
sg33
g34
sg35
V24
p119
sg37
(lp120
Vwake-up-slap
p121
aVhammer-arm
p122
aVstone-edge
p123
aVchip-away
p124
asg43
g44
sg45
Vsheer-force
p125
sbasg59
I00
sg60
g61
sbag1
(g2
g3
Ntp126
Rp127
(dp128
g7
VSpr BW WorkerIce.png
p129
sg9
VWorker
p130
sg11
VVictor
p131
sg13
V960
p132
sg15
g16
sg17
g18
sg19
g20
sg21
g22
sg23
(lp133
g1
(g25
g3
Ntp134
Rp135
(dp136
g29
V513
p137
sg31
VPansear
p138
sg33
g34
sg35
V24
p139
sg37
(lp140
Vfling
p141
aVflame-burst
p142
aVincinerate
p143
aVacrobatics
p144
asg43
g44
sg45
Vgluttony
p145
sbag1
(g25
g3
Ntp146
Rp147
(dp148
g29
V532
p149
sg31
VTimburr
p150
sg33
g34
sg35
V24
p151
sg37
(lp152
Vwake-up-slap
p153
aVhammer-arm
p154
aVstone-edge
p155
aVchip-away
p156
asg43
g44
sg45
Vguts
p157
sbasg59
I00
sg60
g61
sbag1
(g2
g3
Ntp158
Rp159
(dp160
g7
VSpr BW WorkerIce.png
p161
sg9
VWorker
p162
sg11
VGlenn
p163
sg13
V960
p164
sg15
g16
sg17
g18
sg19
g20
sg21
g22
sg23
(lp165
g1
(g25
g3
Ntp166
Rp167
(dp168
g29
V515
p169
sg31
VPanpour
p170
sg33
g34
sg35
V24
p171
sg37
(lp172
Vnatural-gift
p173
aVfling
p174
aVscald
p175
aVacrobatics
p176
asg43
g44
sg45
Vgluttony
p177
sbag1
(g25
g3
Ntp178
Rp179
(dp180
g29
V532
p181
sg31
VTimburr
p182
sg33
g34
sg35
V24
p183
sg37
(lp184
Vwake-up-slap
p185
aVhammer-arm
p186
aVstone-edge
p187
aVchip-away
p188
asg43
g44
sg45
Vsheer-force
p189
sbasg59
I00
sg60
g61
sbag1
(g2
g3
Ntp190
Rp191
(dp192
g7
VSpr BW WorkerIce.png
p193
sg9
VWorker
p194
sg11
VFilipe
p195
sg13
V1000
p196
sg15
V1
p197
sg17
g18
sg19
g20
sg21
g22
sg23
(lp198
g1
(g25
g3
Ntp199
Rp200
(dp201
g29
V533
p202
sg31
VGurdurr
p203
sg33
g34
sg35
V25
p204
sg37
(lp205
Vwake-up-slap
p206
aVhammer-arm
p207
aVstone-edge
p208
aVchip-away
p209
asg43
g44
sg45
Vsheer-force
p210
sbasg59
I00
sg60
g61
sbag1
(g2
g3
Ntp211
Rp212
(dp213
g7
VSpr BW WorkerIce.png
p214
sg9
VWorker
p215
sg11
VPatton
p216
sg13
V960
p217
sg15
g16
sg17
g18
sg19
g20
sg21
g22
sg23
(lp218
g1
(g25
g3
Ntp219
Rp220
(dp221
g29
V582
p222
sg31
VVanillite
p223
sg33
g34
sg35
V24
p224
sg37
(lp225
Vsheer-cold
p226
aVicicle-spear
p227
aVavalanche
p228
aVmirror-shot
p229
asg43
g44
sg45
Vice-body
p230
sbag1
(g25
g3
Ntp231
Rp232
(dp233
g29
V532
p234
sg31
VTimburr
p235
sg33
g34
sg35
V24
p236
sg37
(lp237
Vwake-up-slap
p238
aVhammer-arm
p239
aVstone-edge
p240
aVchip-away
p241
asg43
g44
sg45
Vsheer-force
p242
sbasg59
I00
sg60
g61
sbag1
(g2
g3
Ntp243
Rp244
(dp245
g7
VSpr BW WorkerIce.png
p246
sg9
VWorker
p247
sg11
VRyan
p248
sg13
V920
p249
sg15
V3
p250
sg17
g18
sg19
g20
sg21
g22
sg23
(lp251
g1
(g25
g3
Ntp252
Rp253
(dp254
g29
V532
p255
sg31
VTimburr
p256
sg33
g34
sg35
V23
p257
sg37
(lp258
Vwake-up-slap
p259
aVhammer-arm
p260
aVstone-edge
p261
aVchip-away
p262
asg43
g44
sg45
Vguts
p263
sbag1
(g25
g3
Ntp264
Rp265
(dp266
g29
V532
p267
sg31
VTimburr
p268
sg33
g34
sg35
V23
p269
sg37
(lp270
Vwake-up-slap
p271
aVhammer-arm
p272
aVstone-edge
p273
aVchip-away
p274
asg43
g44
sg45
Vguts
p275
sbag1
(g25
g3
Ntp276
Rp277
(dp278
g29
V582
p279
sg31
VVanillite
p280
sg33
g34
sg35
V23
p281
sg37
(lp282
Vsheer-cold
p283
aVicicle-spear
p284
aVavalanche
p285
aVmirror-shot
p286
asg43
g44
sg45
Vice-body
p287
sbasg59
I00
sg60
g61
sbag1
(g2
g3
Ntp288
Rp289
(dp290
g7
VSpr BW Plasma Grunt M.png
p291
sg9
VTeam Plasma Grunt
p292
sg11
g44
sg13
V920
p293
sg15
g16
sg17
g18
sg19
g20
sg21
g22
sg23
(lp294
g1
(g25
g3
Ntp295
Rp296
(dp297
g29
V505
p298
sg31
VWatchog
p299
sg33
g34
sg35
V23
p300
sg37
(lp301
Vbaton-pass
p302
aVcrunch
p303
aVpsych-up
p304
aVafter-you
p305
asg43
g44
sg45
Villuminate
p306
sbag1
(g25
g3
Ntp307
Rp308
(dp309
g29
V559
p310
sg31
VScraggy
p311
sg33
g34
sg35
V23
p312
sg37
(lp313
Vpayback
p314
aVrock-climb
p315
aVhead-smash
p316
aVchip-away
p317
asg43
g44
sg45
Vshed-skin
p318
sbasg59
I00
sg60
g61
sbag1
(g2
g3
Ntp319
Rp320
(dp321
g7
VSpr BW Plasma Grunt F.png
p322
sg9
VTeam Plasma Grunt
p323
sg11
g44
sg13
V960
p324
sg15
g197
sg17
g18
sg19
g20
sg21
g22
sg23
(lp325
g1
(g25
g3
Ntp326
Rp327
(dp328
g29
V510
p329
sg31
VLiepard
p330
sg33
VF
p331
sg35
V24
p332
sg37
(lp333
Vsucker-punch
p334
aVnight-slash
p335
aVnasty-plot
p336
aVhone-claws
p337
asg43
g44
sg45
Vunburden
p338
sbasg59
I00
sg60
g61
sbag1
(g2
g3
Ntp339
Rp340
(dp341
g7
VSpr BW Plasma Grunt F.png
p342
sg9
VTeam Plasma Grunt
p343
sg11
g44
sg13
V960
p344
sg15
g197
sg17
g18
sg19
g20
sg21
g22
sg23
(lp345
g1
(g25
g3
Ntp346
Rp347
(dp348
g29
V568
p349
sg31
VTrubbish
p350
sg33
g331
sg35
V24
p351
sg37
(lp352
Vtoxic-spikes
p353
aVgunk-shot
p354
aVacid-spray
p355
aVclear-smog
p356
asg43
g44
sg45
Vsticky-hold
p357
sbasg59
I00
sg60
g61
sbag1
(g2
g3
Ntp358
Rp359
(dp360
g7
VSpr BW Plasma Grunt M.png
p361
sg9
VTeam Plasma Grunt
p362
sg11
g44
sg13
V920
p363
sg15
g16
sg17
g18
sg19
g20
sg21
g22
sg23
(lp364
g1
(g25
g3
Ntp365
Rp366
(dp367
g29
V551
p368
sg31
VSandile
p369
sg33
g34
sg35
V23
p370
sg37
(lp371
Vsand-tomb
p372
aVassurance
p373
aVembargo
p374
aVfoul-play
p375
asg43
g44
sg45
Vmoxie
p376
sbag1
(g25
g3
Ntp377
Rp378
(dp379
g29
V505
p380
sg31
VWatchog
p381
sg33
g34
sg35
V23
p382
sg37
(lp383
Vbaton-pass
p384
aVcrunch
p385
aVpsych-up
p386
aVafter-you
p387
asg43
g44
sg45
Vkeen-eye
p388
sbasg59
I00
sg60
g61
sba.