(lp0
ccopy_reg
_reconstructor
p1
(c__main__
Trainer
p2
c__builtin__
object
p3
Ntp4
Rp5
(dp6
VtSprite
p7
VVSRising Star M.png
p8
sVtClass
p9
VRising Star
p10
sVtName
p11
VDidier
p12
sVtMoney
p13
V1,380
p14
sVtPokeCount
p15
V2
p16
sVtLocation
p17
Vwiki/Cyllage_Gym
p18
sVtRegion
p19
VKalos
p20
sVtGame
p21
VSM
p22
sVtPokes
p23
(lp24
g1
(c__main__
FinishedPokemon
p25
g3
Ntp26
Rp27
(dp28
VpDexNo
p29
V557
p30
sVpSpecies
p31
VDwebble
p32
sVpGender
p33
VM
p34
sVpLevel
p35
V21
p36
sVpMoves
p37
(lp38
Vstealth-rock
p39
aVbug-bite
p40
aVsmack-down
p41
aVshell-smash
p42
asVpHold
p43
V
p44
sVpAbility
p45
Vsturdy
p46
sbag1
(g25
g3
Ntp47
Rp48
(dp49
g29
V369
p50
sg31
VRelicanth
p51
sg33
g34
sg35
V23
p52
sg37
(lp53
Vmud-sport
p54
aVrock-tomb
p55
aVhead-smash
p56
ag56
asg43
g44
sg45
Vrock-head
p57
sbasVbossFlag
p58
I00
sVtLongGame
p59
Vsun-moon
p60
sbag1
(g2
g3
Ntp61
Rp62
(dp63
g7
VVSRising Star F.png
p64
sg9
VRising Star
p65
sg11
VManon
p66
sg13
V1,320
p67
sg15
g16
sg17
g18
sg19
g20
sg21
VSM
p68
sg23
(lp69
g1
(g25
g3
Ntp70
Rp71
(dp72
g29
V338
p73
sg31
VSolrock
p74
sg33
VU
p75
sg35
V22
p76
sg37
(lp77
Vflare-blitz
p78
aVrock-polish
p79
aVstone-edge
p80
aVwonder-room
p81
asg43
g44
sg45
Vlevitate
p82
sbag1
(g25
g3
Ntp83
Rp84
(dp85
g29
V337
p86
sg31
VLunatone
p87
sg33
g75
sg35
V22
p88
sg37
(lp89
Vstone-edge
p90
aVpsyshock
p91
aVmagic-room
p92
aVmoonblast
p93
asg43
g44
sg45
Vlevitate
p94
sbasg58
I00
sg59
g60
sbag1
(g2
g3
Ntp95
Rp96
(dp97
g7
VVSHiker.png
p98
sg9
VHiker
p99
sg11
VCraig
p100
sg13
V1,344
p101
sg15
V1
p102
sg17
g18
sg19
g20
sg21
VSM
p103
sg23
(lp104
g1
(g25
g3
Ntp105
Rp106
(dp107
g29
V524
p108
sg31
VRoggenrola
p109
sg33
g34
sg35
V24
p110
sg37
(lp111
Vrock-blast
p112
aVstone-edge
p113
aVstealth-rock
p114
aVsmack-down
p115
asg43
g44
sg45
Vsturdy
p116
sbasg58
I00
sg59
g60
sbag1
(g2
g3
Ntp117
Rp118
(dp119
g7
VVSHiker.png
p120
sg9
VHiker
p121
sg11
VBernard
p122
sg13
V1,176
p123
sg15
V3
p124
sg17
g18
sg19
g20
sg21
g103
sg23
(lp125
g1
(g25
g3
Ntp126
Rp127
(dp128
g29
V111
p129
sg31
VRhyhorn
p130
sg33
g34
sg35
V21
p131
sg37
(lp132
Vsmack-down
p133
aVchip-away
p134
aVbulldoze
p135
aVdrill-run
p136
asg43
g44
sg45
Vlightning-rod
p137
sbag1
(g25
g3
Ntp138
Rp139
(dp140
g29
V299
p141
sg31
VNosepass
p142
sg33
g34
sg35
V21
p143
sg37
(lp144
Vpower-gem
p145
aVearth-power
p146
aVdischarge
p147
aVstone-edge
p148
asg43
g44
sg45
Vmagnet-pull
p149
sbag1
(g25
g3
Ntp150
Rp151
(dp152
g29
V095
p153
sg31
VOnix
p154
sg33
g34
sg35
V21
p155
sg37
(lp156
Vrock-polish
p157
aVstone-edge
p158
aVstealth-rock
p159
aVsmack-down
p160
asg43
g44
sg45
Vrock-head
p161
sbasg58
I00
sg59
g60
sbag1
(g2
g3
Ntp162
Rp163
(dp164
g7
VVSGrant.png
p165
sg9
VLeader
p166
sg11
VGrant
p167
sg13
V4,000
p168
sg15
I2
sg17
g18
sg19
g20
sg21
VSM
p169
sg23
(lp170
g1
(g25
g3
Ntp171
Rp172
(dp173
g29
I698
sg31
VAmaura
p174
sg33
g34
sg35
V25
p175
sg37
(lp176
VAurora Beam
p177
aVRock Tomb
p178
aVThunder Wave
p179
aVTake Down
p180
asg43
g44
sg45
VRefrigerate
p181
sbag1
(g25
g3
Ntp182
Rp183
(dp184
g29
I696
sg31
VTyrunt
p185
sg33
g34
sg35
V25
p186
sg37
(lp187
VRock Tomb
p188
aVBite
p189
aVStomp
p190
asg43
g44
sg45
VStrong Jaw
p191
sbasg58
I01
sg59
g60
sba.