(lp0
ccopy_reg
_reconstructor
p1
(c__main__
Trainer
p2
c__builtin__
object
p3
Ntp4
Rp5
(dp6
VtSprite
p7
VSpr Pt Cyrus.png
p8
sVtClass
p9
VGalactic Boss
p10
sVtName
p11
VCyrus
p12
sVtMoney
p13
V8640
p14
sVtPokeCount
p15
I5
sVtLocation
p16
Vwiki/Distortion_World
p17
sVtRegion
p18
V}None
p19
sVtGame
p20
VPt
p21
sVtPokes
p22
(lp23
g1
(c__main__
FinishedPokemon
p24
g3
Ntp25
Rp26
(dp27
VpDexNo
p28
I229
sVpSpecies
p29
VHoundoom
p30
sVpGender
p31
VM
p32
sVpLevel
p33
V45
p34
sVpMoves
p35
(lp36
VFlamethrower
p37
aVDark Pulse
p38
aVWill-O-Wisp
p39
aVThunder Fang
p40
asVpHold
p41
V
p42
sVpAbility
p43
VFlash Fire
p44
sbag1
(g24
g3
Ntp45
Rp46
(dp47
g28
I430
sg29
VHonchkrow
p48
sg31
g32
sg33
V47
p49
sg35
(lp50
VDrill Peck
p51
aVNight Slash
p52
aVHeat Wave
p53
aVPsychic
p54
asg41
g42
sg43
VInsomnia
p55
sbag1
(g24
g3
Ntp56
Rp57
(dp58
g28
I169
sg29
VCrobat
p59
sg31
g32
sg33
V46
p60
sg35
(lp61
VCross Poison
p62
aVAir Slash
p63
aVToxic
p64
aVConfuse Ray
p65
asg41
g42
sg43
VInner Focus
p66
sbag1
(g24
g3
Ntp67
Rp68
(dp69
g28
I130
sg29
VGyarados
p70
sg31
g32
sg33
V46
p71
sg35
(lp72
VWaterfall
p73
aVIce Fang
p74
aVEarthquake
p75
aVGiga Impact
p76
asg41
g42
sg43
VIntimidate
p77
sbag1
(g24
g3
Ntp78
Rp79
(dp80
g28
I461
sg29
VWeavile
p81
sg31
g32
sg33
V48
p82
sg35
(lp83
VNight Slash
p84
aVIce Punch
p85
aVX-Scissor
p86
aVFake Out
p87
asg41
VSitrus Berry
p88
sg43
VPressure
p89
sbasVbossFlag
p90
I01
sVtLongGame
p91
Vplatinum
p92
sba.