(lp0
ccopy_reg
_reconstructor
p1
(c__main__
Trainer
p2
c__builtin__
object
p3
Ntp4
Rp5
(dp6
VtSprite
p7
VSpr GS Cooltrainer M.png
p8
sVtClass
p9
VCooltrainer
p10
sVtName
p11
VDarin{{sup/2|C}}
p12
sVtMoney
p13
V1776
p14
sVtPokeCount
p15
V1
p16
sVtLocation
p17
Vwiki/Dragon%27s_Den
p18
sVtRegion
p19
VJohto
p20
sVtGame
p21
VGS
p22
sVtPokes
p23
(lp24
g1
(c__main__
FinishedPokemon
p25
g3
Ntp26
Rp27
(dp28
VpDexNo
p29
V148
p30
sVpSpecies
p31
VDragonair
p32
sVpGender
p33
VM
p34
sVpLevel
p35
V37
p36
sVpMoves
p37
(lp38
Voutrage
p39
aVsafeguard
p40
aVtwister
p41
ag41
asVpHold
p42
V
p43
sVpAbility
p44
Vshed-skin
p45
sbasVbossFlag
p46
I00
sVtLongGame
p47
Vgold-silver
p48
sbag1
(g2
g3
Ntp49
Rp50
(dp51
g7
VSpr GS Cooltrainer F.png
p52
sg9
VCooltrainer
p53
sg11
VCara{{sup/2|C}}
p54
sg13
V1680
p55
sg15
V3
p56
sg17
g18
sg19
g20
sg21
g22
sg23
(lp57
g1
(g25
g3
Ntp58
Rp59
(dp60
g29
V116
p61
sg31
VHorsea
p62
sg33
VF
p63
sg35
V33
p64
sg37
(lp65
Vagility
p66
aVsmokescreen
p67
aVbubble
p68
aVtwister
p69
asg42
g43
sg44
Vswift-swim
p70
sbag1
(g25
g3
Ntp71
Rp72
(dp73
g29
V116
p74
sg31
VHorsea
p75
sg33
g63
sg35
V33
p76
sg37
(lp77
Vagility
p78
aVsmokescreen
p79
aVbubble
p80
aVtwister
p81
asg42
g43
sg44
Vswift-swim
p82
sbag1
(g25
g3
Ntp83
Rp84
(dp85
g29
V117
p86
sg31
VSeadra
p87
sg33
g63
sg35
V35
p88
sg37
(lp89
Vsmokescreen
p90
ag90
aVbubble
p91
aVtwister
p92
asg42
g43
sg44
Vpoison-point
p93
sbasg46
I00
sg47
g48
sbag1
(g2
g3
Ntp94
Rp95
(dp96
g7
VSpr GS Twins.png
p97
sg9
VTwins
p98
sg11
VLea & Pia{{sup/2|C}}
p99
sg13
V700
p100
sg15
V2
p101
sg17
g18
sg19
g20
sg21
g22
sg23
(lp102
g1
(g25
g3
Ntp103
Rp104
(dp105
g29
V147
p106
sg31
VDratini
p107
sg33
g63
sg35
V35
p108
sg37
(lp109
Vagility
p110
aVoutrage
p111
aVsafeguard
p112
aVtwister
p113
asg42
g43
sg44
Vshed-skin
p114
sbag1
(g25
g3
Ntp115
Rp116
(dp117
g29
V147
p118
sg31
VDratini
p119
sg33
g63
sg35
V35
p120
sg37
(lp121
Vagility
p122
aVoutrage
p123
aVsafeguard
p124
aVtwister
p125
asg42
g43
sg44
Vshed-skin
p126
sbasg46
I00
sg47
g48
sbag1
(g2
g3
Ntp127
Rp128
(dp129
g7
VSpr HGSS Ace Trainer M.png
p130
sg9
VAce Trainer
p131
sg11
VKobe
p132
sg13
V2220
p133
sg15
g16
sg17
g18
sg19
g20
sg21
VHGSS
p134
sg23
(lp135
g1
(g25
g3
Ntp136
Rp137
(dp138
g29
V148
p139
sg31
VDragonair
p140
sg33
g34
sg35
V37
p141
sg37
(lp142
Vtwister
p143
aVdragon-dance
p144
aVaqua-tail
p145
aVdragon-rush
p146
asg42
g43
sg44
Vshed-skin
p147
sbasg46
I00
sg47
Vheartgold-soulsilver
p148
sbag1
(g2
g3
Ntp149
Rp150
(dp151
g7
VSpr HGSS Ace Trainer F.png
p152
sg9
VAce Trainer
p153
sg11
VPiper
p154
sg13
V2100
p155
sg15
g56
sg17
g18
sg19
g20
sg21
g134
sg23
(lp156
g1
(g25
g3
Ntp157
Rp158
(dp159
g29
V116
p160
sg31
VHorsea
p161
sg33
g63
sg35
V33
p162
sg37
(lp163
Vtwister
p164
aVdragon-dance
p165
aVbrine
p166
aVdragon-pulse
p167
asg42
g43
sg44
Vsniper
p168
sbag1
(g25
g3
Ntp169
Rp170
(dp171
g29
V116
p172
sg31
VHorsea
p173
sg33
g63
sg35
V33
p174
sg37
(lp175
Vtwister
p176
aVdragon-dance
p177
aVbrine
p178
aVdragon-pulse
p179
asg42
g43
sg44
Vswift-swim
p180
sbag1
(g25
g3
Ntp181
Rp182
(dp183
g29
V117
p184
sg31
VSeadra
p185
sg33
g63
sg35
V35
p186
sg37
(lp187
Vtwister
p188
aVdragon-dance
p189
aVbrine
p190
aVdragon-pulse
p191
asg42
g43
sg44
Vpoison-point
p192
sbasg46
I00
sg47
g148
sbag1
(g2
g3
Ntp193
Rp194
(dp195
g7
VSpr HGSS Twins.png
p196
sg9
VTwins
p197
sg11
VClea & Gil
p198
sg13
V1120
p199
sg15
g101
sg17
g18
sg19
g20
sg21
g134
sg23
(lp200
g1
(g25
g3
Ntp201
Rp202
(dp203
g29
V147
p204
sg31
VDratini
p205
sg33
g63
sg35
V35
p206
sg37
(lp207
Vtwister
p208
aVdragon-dance
p209
aVaqua-tail
p210
aVdragon-rush
p211
asg42
g43
sg44
Vshed-skin
p212
sbag1
(g25
g3
Ntp213
Rp214
(dp215
g29
V147
p216
sg31
VDratini
p217
sg33
g63
sg35
V35
p218
sg37
(lp219
Vtwister
p220
aVdragon-dance
p221
aVaqua-tail
p222
aVdragon-rush
p223
asg42
g43
sg44
Vshed-skin
p224
sbasg46
I00
sg47
g148
sbag1
(g2
g3
Ntp225
Rp226
(dp227
g7
VHGSS Silver Back.png
p228
sg9
VRival
p229
sg11
VSilver (game)
p230
sg13
Vn/a
p231
sg15
I3
sg17
g18
sg19
g20
sg21
VSM
p232
sg23
(lp233
g1
(g25
g3
Ntp234
Rp235
(dp236
g29
I157
sg31
VTyphlosion
p237
sg33
g34
sg35
V60
p238
sg37
(lp239
VFlamethrower
p240
aVRollout
p241
aVWill-O-Wisp
p242
aVSwift
p243
asg42
g43
sg44
VBlaze
p244
sbag1
(g25
g3
Ntp245
Rp246
(dp247
g29
I169
sg31
VCrobat
p248
sg33
g34
sg35
V58
p249
sg37
(lp250
VAir Cutter
p251
aVBite
p252
aVConfuse Ray
p253
aVToxic
p254
asg42
g43
sg44
VInner Focus
p255
sbag1
(g25
g3
Ntp256
Rp257
(dp258
g29
I94
sg31
VGengar
p259
sg33
g34
sg35
V56
p260
sg37
(lp261
VDark Pulse
p262
aVConfuse Ray
p263
aVSludge Bomb
p264
aVShadow Ball
p265
asg42
g43
sg44
VLevitate
p266
sbasg46
I01
sg47
Vsun-moon
p267
sbag1
(g2
g3
Ntp268
Rp269
(dp270
g7
VHGSS Silver Back.png
p271
sg9
VRival
p272
sg11
VSilver (game)
p273
sg13
Vn/a
p274
sg15
I3
sg17
g18
sg19
g20
sg21
g232
sg23
(lp275
g1
(g25
g3
Ntp276
Rp277
(dp278
g29
I160
sg31
VFeraligatr
p279
sg33
g34
sg35
V60
p280
sg37
(lp281
VIce Fang
p282
aVSlash
p283
aVAqua Tail
p284
aVCrunch
p285
asg42
g43
sg44
VTorrent
p286
sbag1
(g25
g3
Ntp287
Rp288
(dp289
g29
I169
sg31
VCrobat
p290
sg33
g34
sg35
V58
p291
sg37
(lp292
VAir Cutter
p293
aVBite
p294
aVConfuse Ray
p295
aVToxic
p296
asg42
g43
sg44
VInner Focus
p297
sbag1
(g25
g3
Ntp298
Rp299
(dp300
g29
I94
sg31
VGengar
p301
sg33
g34
sg35
V56
p302
sg37
(lp303
VDark Pulse
p304
aVConfuse Ray
p305
aVSludge Bomb
p306
aVShadow Ball
p307
asg42
g43
sg44
VLevitate
p308
sbasg46
I01
sg47
g267
sbag1
(g2
g3
Ntp309
Rp310
(dp311
g7
VHGSS Silver Back.png
p312
sg9
VRival
p313
sg11
VSilver (game)
p314
sg13
Vn/a
p315
sg15
I3
sg17
g18
sg19
g20
sg21
g232
sg23
(lp316
g1
(g25
g3
Ntp317
Rp318
(dp319
g29
I154
sg31
VMeganium
p320
sg33
g34
sg35
V60
p321
sg37
(lp322
VSynthesis
p323
aVBody Slam
p324
aVPetal Dance
p325
aVLight Screen
p326
asg42
g43
sg44
VOvergrow
p327
sbag1
(g25
g3
Ntp328
Rp329
(dp330
g29
I169
sg31
VCrobat
p331
sg33
g34
sg35
V58
p332
sg37
(lp333
VAir Cutter
p334
aVBite
p335
aVConfuse Ray
p336
aVToxic
p337
asg42
g43
sg44
VInner Focus
p338
sbag1
(g25
g3
Ntp339
Rp340
(dp341
g29
I94
sg31
VGengar
p342
sg33
g34
sg35
V56
p343
sg37
(lp344
VDark Pulse
p345
aVConfuse Ray
p346
aVSludge Bomb
p347
aVShadow Ball
p348
asg42
g43
sg44
VLevitate
p349
sbasg46
I01
sg47
g267
sba.