(lp0
ccopy_reg
_reconstructor
p1
(c__main__
Trainer
p2
c__builtin__
object
p3
Ntp4
Rp5
(dp6
VtSprite
p7
VSpr BW Ace Trainer M.png
p8
sVtClass
p9
VAce Trainer
p10
sVtName
p11
VJesse
p12
sVtMoney
p13
V2160
p14
sVtPokeCount
p15
V2
p16
sVtLocation
p17
Vwiki/Dragonspiral_Tower
p18
sVtRegion
p19
VUnova
p20
sVtGame
p21
VBW
p22
sVtPokes
p23
(lp24
g1
(c__main__
FinishedPokemon
p25
g3
Ntp26
Rp27
(dp28
VpDexNo
p29
V583
p30
sVpSpecies
p31
VVanillish
p32
sVpGender
p33
VM
p34
sVpLevel
p35
V36
p36
sVpMoves
p37
(lp38
Vsheer-cold
p39
aVicicle-spear
p40
aVavalanche
p41
aVmirror-shot
p42
asVpHold
p43
V
p44
sVpAbility
p45
Vice-body
p46
sbag1
(g25
g3
Ntp47
Rp48
(dp49
g29
V596
p50
sg31
VGalvantula
p51
sg33
g34
sg35
V36
p52
sg37
(lp53
Vdischarge
p54
aVbug-bite
p55
aVelectro-ball
p56
aVelectroweb
p57
asg43
g44
sg45
Vunnerve
p58
sbasVbossFlag
p59
I00
sVtLongGame
p60
Vblack-white
p61
sbag1
(g2
g3
Ntp62
Rp63
(dp64
g7
VSpr BW Ace Trainer F.png
p65
sg9
VAce Trainer
p66
sg11
VJamie
p67
sg13
V2100
p68
sg15
V3
p69
sg17
g18
sg19
g20
sg21
g22
sg23
(lp70
g1
(g25
g3
Ntp71
Rp72
(dp73
g29
V613
p74
sg31
VCubchoo
p75
sg33
VF
p76
sg35
V35
p77
sg37
(lp78
Vcharm
p79
aVhail
p80
aVsheer-cold
p81
aVbrine
p82
asg43
g44
sg45
Vsnow-cloak
p83
sbasg59
I00
sg60
g61
sbag1
(g2
g3
Ntp84
Rp85
(dp86
g7
VSpr BW Plasma Grunt M.png
p87
sg9
VTeam Plasma Grunt
p88
sg11
g44
sg13
V1360
p89
sg15
V1
p90
sg17
g18
sg19
g20
sg21
g22
sg23
(lp91
g1
(g25
g3
Ntp92
Rp93
(dp94
g29
V505
p95
sg31
VWatchog
p96
sg33
g34
sg35
V34
p97
sg37
(lp98
Vbaton-pass
p99
aVcrunch
p100
aVpsych-up
p101
aVafter-you
p102
asg43
g44
sg45
Villuminate
p103
sbasg59
I00
sg60
g61
sbag1
(g2
g3
Ntp104
Rp105
(dp106
g7
VSpr BW Plasma Grunt F.png
p107
sg9
VTeam Plasma Grunt
p108
sg11
g44
sg13
V1360
p109
sg15
g90
sg17
g18
sg19
g20
sg21
g22
sg23
(lp110
g1
(g25
g3
Ntp111
Rp112
(dp113
g29
V510
p114
sg31
VLiepard
p115
sg33
g76
sg35
V34
p116
sg37
(lp117
Vsucker-punch
p118
aVnight-slash
p119
aVnasty-plot
p120
aVhone-claws
p121
asg43
g44
sg45
Vunburden
p122
sbasg59
I00
sg60
g61
sbag1
(g2
g3
Ntp123
Rp124
(dp125
g7
VSpr BW Plasma Grunt M.png
p126
sg9
VTeam Plasma Grunt
p127
sg11
g44
sg13
V1360
p128
sg15
g90
sg17
g18
sg19
g20
sg21
g22
sg23
(lp129
g1
(g25
g3
Ntp130
Rp131
(dp132
g29
V559
p133
sg31
VScraggy
p134
sg33
g34
sg35
V34
p135
sg37
(lp136
Vpayback
p137
aVrock-climb
p138
aVhead-smash
p139
aVchip-away
p140
asg43
g44
sg45
Vmoxie
p141
sbasg59
I00
sg60
g61
sbag1
(g2
g3
Ntp142
Rp143
(dp144
g7
VSpr BW Plasma Grunt F.png
p145
sg9
VTeam Plasma Grunt
p146
sg11
g44
sg13
V1320
p147
sg15
g16
sg17
g18
sg19
g20
sg21
g22
sg23
(lp148
g1
(g25
g3
Ntp149
Rp150
(dp151
g29
V510
p152
sg31
VLiepard
p153
sg33
g76
sg35
V33
p154
sg37
(lp155
Vsucker-punch
p156
aVnight-slash
p157
aVnasty-plot
p158
aVhone-claws
p159
asg43
g44
sg45
Vunburden
p160
sbag1
(g25
g3
Ntp161
Rp162
(dp163
g29
V510
p164
sg31
VLiepard
p165
sg33
g76
sg35
V33
p166
sg37
(lp167
Vsucker-punch
p168
aVnight-slash
p169
aVnasty-plot
p170
aVhone-claws
p171
asg43
g44
sg45
Vlimber
p172
sbasg59
I00
sg60
g61
sbag1
(g2
g3
Ntp173
Rp174
(dp175
g7
VSpr BW Plasma Grunt M.png
p176
sg9
VTeam Plasma Grunt
p177
sg11
g44
sg13
V1280
p178
sg15
g69
sg17
g18
sg19
g20
sg21
g22
sg23
(lp179
g1
(g25
g3
Ntp180
Rp181
(dp182
g29
V505
p183
sg31
VWatchog
p184
sg33
g34
sg35
V32
p185
sg37
(lp186
Vbaton-pass
p187
aVcrunch
p188
aVpsych-up
p189
aVafter-you
p190
asg43
g44
sg45
Villuminate
p191
sbag1
(g25
g3
Ntp192
Rp193
(dp194
g29
V552
p195
sg31
VKrokorok
p196
sg33
g34
sg35
V32
p197
sg37
(lp198
Vsand-tomb
p199
aVassurance
p200
aVembargo
p201
aVfoul-play
p202
asg43
g44
sg45
Vmoxie
p203
sbag1
(g25
g3
Ntp204
Rp205
(dp206
g29
V559
p207
sg31
VScraggy
p208
sg33
g34
sg35
V32
p209
sg37
(lp210
Vpayback
p211
aVrock-climb
p212
aVhead-smash
p213
aVchip-away
p214
asg43
g44
sg45
Vmoxie
p215
sbasg59
I00
sg60
g61
sbag1
(g2
g3
Ntp216
Rp217
(dp218
g7
VSpr BW Plasma Grunt M.png
p219
sg9
VTeam Plasma Grunt
p220
sg11
g44
sg13
V1320
p221
sg15
g16
sg17
g18
sg19
g20
sg21
g22
sg23
(lp222
g1
(g25
g3
Ntp223
Rp224
(dp225
g29
V505
p226
sg31
VWatchog
p227
sg33
g34
sg35
V33
p228
sg37
(lp229
Vbaton-pass
p230
aVcrunch
p231
aVpsych-up
p232
aVafter-you
p233
asg43
g44
sg45
Vkeen-eye
p234
sbag1
(g25
g3
Ntp235
Rp236
(dp237
g29
V552
p238
sg31
VKrokorok
p239
sg33
g34
sg35
V33
p240
sg37
(lp241
Vsand-tomb
p242
aVassurance
p243
aVembargo
p244
aVfoul-play
p245
asg43
g44
sg45
Vmoxie
p246
sbasg59
I00
sg60
g61
sbag1
(g2
g3
Ntp247
Rp248
(dp249
g7
VSpr BW Plasma Grunt M.png
p250
sg9
VTeam Plasma Grunt
p251
sg11
g44
sg13
V1360
p252
sg15
g90
sg17
g18
sg19
g20
sg21
g22
sg23
(lp253
g1
(g25
g3
Ntp254
Rp255
(dp256
g29
V552
p257
sg31
VKrokorok
p258
sg33
g34
sg35
V34
p259
sg37
(lp260
Vsand-tomb
p261
aVassurance
p262
aVembargo
p263
aVfoul-play
p264
asg43
g44
sg45
Vmoxie
p265
sbasg59
I00
sg60
g61
sbag1
(g2
g3
Ntp266
Rp267
(dp268
g7
VSpr BW Plasma Grunt F.png
p269
sg9
VTeam Plasma Grunt
p270
sg11
g44
sg13
V1320
p271
sg15
g16
sg17
g18
sg19
g20
sg21
g22
sg23
(lp272
g1
(g25
g3
Ntp273
Rp274
(dp275
g29
V568
p276
sg31
VTrubbish
p277
sg33
g76
sg35
V33
p278
sg37
(lp279
Vtoxic-spikes
p280
aVgunk-shot
p281
aVacid-spray
p282
aVclear-smog
p283
asg43
g44
sg45
Vstench
p284
sbag1
(g25
g3
Ntp285
Rp286
(dp287
g29
V510
p288
sg31
VLiepard
p289
sg33
g76
sg35
V33
p290
sg37
(lp291
Vsucker-punch
p292
aVnight-slash
p293
aVnasty-plot
p294
aVhone-claws
p295
asg43
g44
sg45
Vlimber
p296
sbasg59
I00
sg60
g61
sbag1
(g2
g3
Ntp297
Rp298
(dp299
g7
VSpr BW Plasma Grunt M.png
p300
sg9
VTeam Plasma Grunt
p301
sg11
g44
sg13
V1360
p302
sg15
g90
sg17
g18
sg19
g20
sg21
g22
sg23
(lp303
g1
(g25
g3
Ntp304
Rp305
(dp306
g29
V505
p307
sg31
VWatchog
p308
sg33
g34
sg35
V34
p309
sg37
(lp310
Vbaton-pass
p311
aVcrunch
p312
aVpsych-up
p313
aVafter-you
p314
asg43
g44
sg45
Vkeen-eye
p315
sbasg59
I00
sg60
g61
sba.