(lp0
ccopy_reg
_reconstructor
p1
(c__main__
Trainer
p2
c__builtin__
object
p3
Ntp4
Rp5
(dp6
VtSprite
p7
VSpr BW Lass.png
p8
sVtClass
p9
VLass
p10
sVtName
p11
VEri
p12
sVtMoney
p13
V128
p14
sVtPokeCount
p15
V2
p16
sVtLocation
p17
Vwiki/Dreamyard
p18
sVtRegion
p19
VUnova
p20
sVtGame
p21
VBW
p22
sVtPokes
p23
(lp24
g1
(c__main__
FinishedPokemon
p25
g3
Ntp26
Rp27
(dp28
VpDexNo
p29
V509
p30
sVpSpecies
p31
VPurrloin
p32
sVpGender
p33
VF
p34
sVpLevel
p35
V8
p36
sVpMoves
p37
(lp38
Vnight-slash
p39
aVnasty-plot
p40
aVcaptivate
p41
aVhone-claws
p42
asVpHold
p43
V
p44
sVpAbility
p45
Vunburden
p46
sbag1
(g25
g3
Ntp47
Rp48
(dp49
g29
V509
p50
sg31
VPurrloin
p51
sg33
g34
sg35
g36
sg37
(lp52
Vnight-slash
p53
aVnasty-plot
p54
aVcaptivate
p55
aVhone-claws
p56
asg43
g44
sg45
Vunburden
p57
sbasVbossFlag
p58
I00
sVtLongGame
p59
Vblack-white
p60
sbag1
(g2
g3
Ntp61
Rp62
(dp63
g7
VSpr BW Youngster.png
p64
sg9
VYoungster
p65
sg11
VJoey
p66
sg13
V112
p67
sg15
V3
p68
sg17
g18
sg19
g20
sg21
g22
sg23
(lp69
g1
(g25
g3
Ntp70
Rp71
(dp72
g29
V504
p73
sg31
VPatrat
p74
sg33
VM
p75
sg35
V7
p76
sg37
(lp77
Vbaton-pass
p78
aVcrunch
p79
aVafter-you
p80
aVwork-up
p81
asg43
g44
sg45
Vkeen-eye
p82
sbag1
(g25
g3
Ntp83
Rp84
(dp85
g29
V504
p86
sg31
VPatrat
p87
sg33
g75
sg35
g76
sg37
(lp88
Vbaton-pass
p89
aVcrunch
p90
aVafter-you
p91
aVwork-up
p92
asg43
g44
sg45
Vrun-away
p93
sbag1
(g25
g3
Ntp94
Rp95
(dp96
g29
V506
p97
sg31
VLillipup
p98
sg33
g75
sg35
g76
sg37
(lp99
Vlast-resort
p100
aVgiga-impact
p101
aVretaliate
p102
aVwork-up
p103
asg43
g44
sg45
Vvital-spirit
p104
sbasg58
I00
sg59
g60
sbag1
(g2
g3
Ntp105
Rp106
(dp107
g7
VSpr BW Plasma Grunt M.png
p108
sg9
VTeam Plasma Grunt
p109
sg11
g44
sg13
V400
p110
sg15
V1
p111
sg17
g18
sg19
g20
sg21
g22
sg23
(lp112
g1
(g25
g3
Ntp113
Rp114
(dp115
g29
V504
p116
sg31
VPatrat
p117
sg33
g75
sg35
V10
p118
sg37
(lp119
Vbaton-pass
p120
aVcrunch
p121
aVafter-you
p122
aVwork-up
p123
asg43
g44
sg45
Vkeen-eye
p124
sbasg58
I00
sg59
g60
sbag1
(g2
g3
Ntp125
Rp126
(dp127
g7
VSpr BW Plasma Grunt F.png
p128
sg9
VTeam Plasma Grunt
p129
sg11
g44
sg13
V400
p130
sg15
g111
sg17
g18
sg19
g20
sg21
g22
sg23
(lp131
g1
(g25
g3
Ntp132
Rp133
(dp134
g29
V509
p135
sg31
VPurrloin
p136
sg33
g34
sg35
V10
p137
sg37
(lp138
Vnight-slash
p139
aVnasty-plot
p140
aVcaptivate
p141
aVhone-claws
p142
asg43
g44
sg45
Vlimber
p143
sbasg58
I00
sg59
g60
sbag1
(g2
g3
Ntp144
Rp145
(dp146
g7
VSpr BW Scientist M.png
p147
sg9
VScientist
p148
sg11
VMarkus
p149
sg13
V3024
p150
sg15
g68
sg17
g18
sg19
g20
sg21
g22
sg23
(lp151
g1
(g25
g3
Ntp152
Rp153
(dp154
g29
V096
p155
sg31
VDrowzee
p156
sg33
g75
sg35
V63
p157
sg37
(lp158
Vnasty-plot
p159
aVzen-headbutt
p160
aVpsyshock
p161
aVsynchronoise
p162
asg43
g44
sg45
Vinsomnia
p163
sbag1
(g25
g3
Ntp164
Rp165
(dp166
g29
V518
p167
sg31
VMusharna
p168
sg33
g75
sg35
V63
p169
sg37
(lp170
Vpsybeam
p171
aVhypnosis
p172
aVdefense-curl
p173
aVlucky-chant
p174
asg43
g44
sg45
Vforewarn
p175
sbag1
(g25
g3
Ntp176
Rp177
(dp178
g29
V097
p179
sg31
VHypno
p180
sg33
g75
sg35
V63
p181
sg37
(lp182
Vnasty-plot
p183
aVzen-headbutt
p184
aVpsyshock
p185
aVsynchronoise
p186
asg43
g44
sg45
Vinsomnia
p187
sbasg58
I00
sg59
g60
sbag1
(g2
g3
Ntp188
Rp189
(dp190
g7
VSpr BW Scientist F.png
p191
sg9
VScientist
p192
sg11
VChan
p193
sg13
V3024
p194
sg15
g68
sg17
g18
sg19
g20
sg21
g22
sg23
(lp195
g1
(g25
g3
Ntp196
Rp197
(dp198
g29
V061
p199
sg31
VPoliwhirl
p200
sg33
g34
sg35
V63
p201
sg37
(lp202
Vmud-shot
p203
aVwater-sport
p204
aVwake-up-slap
p205
aVmud-bomb
p206
asg43
g44
sg45
Vwater-absorb
p207
sbag1
(g25
g3
Ntp208
Rp209
(dp210
g29
V047
p211
sg31
VParasect
p212
sg33
g34
sg35
V63
p213
sg37
(lp214
Varomatherapy
p215
aVx-scissor
p216
aVcross-poison
p217
aVrage-powder
p218
asg43
g44
sg45
Veffect-spore
p219
sbag1
(g25
g3
Ntp220
Rp221
(dp222
g29
V518
p223
sg31
VMusharna
p224
sg33
g34
sg35
V63
p225
sg37
(lp226
Vpsybeam
p227
aVhypnosis
p228
aVdefense-curl
p229
aVlucky-chant
p230
asg43
g44
sg45
Vsynchronize
p231
sbasg58
I00
sg59
g60
sbag1
(g2
g3
Ntp232
Rp233
(dp234
g7
VSpr BW Psychic M.png
p235
sg9
VPsychic
p236
sg11
VTommy
p237
sg13
V2016
p238
sg15
V4
p239
sg17
g18
sg19
g20
sg21
g22
sg23
(lp240
g1
(g25
g3
Ntp241
Rp242
(dp243
g29
V374
p244
sg31
VBeldum
p245
sg33
VU
p246
sg35
V63
p247
sg37
(lp248
Vtake-down
p249
asg43
g44
sg45
Vclear-body
p250
sbag1
(g25
g3
Ntp251
Rp252
(dp253
g29
V579
p254
sg31
VReuniclus
p255
sg33
g75
sg35
V63
p256
sg37
(lp257
Vsnatch
p258
aVheal-block
p259
aVwonder-room
p260
aVpsyshock
p261
asg43
g44
sg45
Vmagic-guard
p262
sbag1
(g25
g3
Ntp263
Rp264
(dp265
g29
V606
p266
sg31
VBeheeyem
p267
sg33
g75
sg35
V63
p268
sg37
(lp269
Vpower-split
p270
aVwonder-room
p271
aVsynchronoise
p272
aVsimple-beam
p273
asg43
g44
sg45
Vtelepathy
p274
sbag1
(g25
g3
Ntp275
Rp276
(dp277
g29
V375
p278
sg31
VMetang
p279
sg33
g246
sg35
V63
p280
sg37
(lp281
Viron-defense
p282
aVmagnet-rise
p283
aVbullet-punch
p284
aVzen-headbutt
p285
asg43
g44
sg45
Vclear-body
p286
sbasg58
I00
sg59
g60
sbag1
(g2
g3
Ntp287
Rp288
(dp289
g7
VSpr BW Scientist F.png
p290
sg9
VScientist
p291
sg11
VKathrine
p292
sg13
V3072
p293
sg15
g16
sg17
g18
sg19
g20
sg21
g22
sg23
(lp294
g1
(g25
g3
Ntp295
Rp296
(dp297
g29
V039
p298
sg31
VJigglypuff
p299
sg33
g34
sg35
V64
p300
sg37
(lp301
Vhyper-voice
p302
aVwake-up-slap
p303
aVgyro-ball
p304
aVround
p305
asg43
g44
sg45
Vcute-charm
p306
sbag1
(g25
g3
Ntp307
Rp308
(dp309
g29
V518
p310
sg31
VMusharna
p311
sg33
g34
sg35
V64
p312
sg37
(lp313
Vpsybeam
p314
aVhypnosis
p315
aVdefense-curl
p316
aVlucky-chant
p317
asg43
g44
sg45
Vsynchronize
p318
sbasg58
I00
sg59
g60
sbag1
(g2
g3
Ntp319
Rp320
(dp321
g7
VSpr BW Psychic F.png
p322
sg9
VPsychic
p323
sg11
VFuture
p324
sg13
V2048
p325
sg15
g68
sg17
g18
sg19
g20
sg21
g22
sg23
(lp326
g1
(g25
g3
Ntp327
Rp328
(dp329
g29
V177
p330
sg31
VNatu
p331
sg33
g34
sg35
V64
p332
sg37
(lp333
Vpower-swap
p334
aVguard-swap
p335
aVominous-wind
p336
aVstored-power
p337
asg43
g44
sg45
Vearly-bird
p338
sbag1
(g25
g3
Ntp339
Rp340
(dp341
g29
V354
p342
sg31
VBanette
p343
sg33
g34
sg35
V64
p344
sg37
(lp345
Vembargo
p346
aVsucker-punch
p347
aVshadow-sneak
p348
aVhex
p349
asg43
g44
sg45
Vfrisk
p350
sbag1
(g25
g3
Ntp351
Rp352
(dp353
g29
V178
p354
sg31
VXatu
p355
sg33
g34
sg35
V64
p356
sg37
(lp357
Vpower-swap
p358
aVguard-swap
p359
aVominous-wind
p360
aVstored-power
p361
asg43
g44
sg45
Vearly-bird
p362
sbasg58
I00
sg59
g60
sbag1
(g2
g3
Ntp363
Rp364
(dp365
g7
VSpr BW Scientist M.png
p366
sg9
VScientist
p367
sg11
VLuke
p368
sg13
V3072
p369
sg15
g16
sg17
g18
sg19
g20
sg21
g22
sg23
(lp370
g1
(g25
g3
Ntp371
Rp372
(dp373
g29
V518
p374
sg31
VMusharna
p375
sg33
g75
sg35
V64
p376
sg37
(lp377
Vpsybeam
p378
aVhypnosis
p379
aVdefense-curl
p380
aVlucky-chant
p381
asg43
g44
sg45
Vforewarn
p382
sbag1
(g25
g3
Ntp383
Rp384
(dp385
g29
V234
p386
sg31
VStantler
p387
sg33
g75
sg35
V64
p388
sg37
(lp389
Vcalm-mind
p390
aVme-first
p391
aVzen-headbutt
p392
aVcaptivate
p393
asg43
g44
sg45
Vintimidate
p394
sbasg58
I00
sg59
g60
sbag1
(g2
g3
Ntp395
Rp396
(dp397
g7
VSpr BW Psychic M.png
p398
sg9
VPsychic
p399
sg11
VRudolf
p400
sg13
V2080
p401
sg15
g16
sg17
g18
sg19
g20
sg21
g22
sg23
(lp402
g1
(g25
g3
Ntp403
Rp404
(dp405
g29
V121
p406
sg31
VStarmie
p407
sg33
g246
sg35
V65
p408
sg37
(lp409
Vrecover
p410
aVconfuse-ray
p411
aVswift
p412
aVrapid-spin
p413
asg43
g44
sg45
Vnatural-cure
p414
sbag1
(g25
g3
Ntp415
Rp416
(dp417
g29
V202
p418
sg31
VWobbuffet
p419
sg33
g75
sg35
V65
p420
sg37
(lp421
Vcounter
p422
aVdestiny-bond
p423
aVsafeguard
p424
aVmirror-coat
p425
asg43
g44
sg45
Vshadow-tag
p426
sbasg58
I00
sg59
g60
sbag1
(g2
g3
Ntp427
Rp428
(dp429
g7
VSpr B2W2 Psychic M.png
p430
sg9
VPsychic
p431
sg11
VNandor
p432
sg13
g1
(cmwparserfromhell.wikicode
Wikicode
p433
g3
Ntp434
Rp435
(dp436
V_nodes
p437
g1
(cmwparserfromhell.smart_list.smart_list
SmartList
p438
c__builtin__
list
p439
(lp440
g1
(cmwparserfromhell.nodes.text
Text
p441
g3
Ntp442
Rp443
(dp444
V_value
p445
V1984
p446
sbatp447
Rp448
(dp449
V_children
p450
(dp451
sbsbsg15
g16
sg17
g18
sg19
g20
sg21
VB2W2
p452
sg23
(lp453
g1
(g25
g3
Ntp454
Rp455
(dp456
g29
V097
p457
sg31
VHypno
p458
sg33
g75
sg35
V62
p459
sg37
(lp460
Vnasty-plot
p461
aVzen-headbutt
p462
aVpsyshock
p463
aVsynchronoise
p464
asg43
g44
sg45
Vforewarn
p465
sbag1
(g25
g3
Ntp466
Rp467
(dp468
g29
V356
p469
sg31
VDusclops
p470
sg33
g75
sg35
V62
p471
sg37
(lp472
Vgravity
p473
aVpayback
p474
aVshadow-sneak
p475
aVhex
p476
asg43
g44
sg45
Vpressure
p477
sbasg58
I00
sg59
Vblack-2-white-2
p478
sbag1
(g2
g3
Ntp479
Rp480
(dp481
g7
VSpr B2W2 Scientist F.png
p482
sg9
VScientist
p483
sg11
VAthena
p484
sg13
g1
(g433
g3
Ntp485
Rp486
(dp487
g437
g1
(g438
g439
(lp488
g1
(g441
g3
Ntp489
Rp490
(dp491
g445
V3024
p492
sbatp493
Rp494
(dp495
g450
(dp496
sbsbsg15
g16
sg17
g18
sg19
g20
sg21
g452
sg23
(lp497
g1
(g25
g3
Ntp498
Rp499
(dp500
g29
V092
p501
sg31
VGastly
p502
sg33
g34
sg35
V63
p503
sg37
(lp504
Vpayback
p505
aVsucker-punch
p506
aVdark-pulse
p507
aVhex
p508
asg43
g44
sg45
Vlevitate
p509
sbag1
(g25
g3
Ntp510
Rp511
(dp512
g29
V435
p513
sg31
VSkuntank
p514
sg33
g34
sg35
V63
p515
sg37
(lp516
Vmemento
p517
aVfeint
p518
aVnight-slash
p519
aVacid-spray
p520
asg43
g44
sg45
Vstench
p521
sbasg58
I00
sg59
g478
sbag1
(g2
g3
Ntp522
Rp523
(dp524
g7
VSpr B2W2 Psychic F.png
p525
sg9
VPsychic
p526
sg11
VOlesia
p527
sg13
g1
(g433
g3
Ntp528
Rp529
(dp530
g437
g1
(g438
g439
(lp531
g1
(g441
g3
Ntp532
Rp533
(dp534
g445
V1984
p535
sbatp536
Rp537
(dp538
g450
(dp539
sbsbsg15
g16
sg17
g18
sg19
g20
sg21
g452
sg23
(lp540
g1
(g25
g3
Ntp541
Rp542
(dp543
g29
V433
p544
sg31
VChingling
p545
sg33
g34
sg35
V62
p546
sg37
(lp547
Vuproar
p548
aVastonish
p549
aVlast-resort
p550
aVentrainment
p551
asg43
g44
sg45
Vlevitate
p552
sbag1
(g25
g3
Ntp553
Rp554
(dp555
g29
V122
p556
sg31
VMr. Mime
p557
sg33
g34
sg35
V62
p558
sg37
(lp559
Vpower-swap
p560
aVguard-swap
p561
aVwide-guard
p562
aVquick-guard
p563
asg43
g44
sg45
Vfilter
p564
sbasg58
I00
sg59
g478
sbag1
(g2
g3
Ntp565
Rp566
(dp567
g7
VSpr B2W2 Scientist M.png
p568
sg9
VScientist
p569
sg11
VFranklin
p570
sg13
g1
(g433
g3
Ntp571
Rp572
(dp573
g437
g1
(g438
g439
(lp574
g1
(g441
g3
Ntp575
Rp576
(dp577
g445
V3024
p578
sbatp579
Rp580
(dp581
g450
(dp582
sbsbsg15
g16
sg17
g18
sg19
g20
sg21
g452
sg23
(lp583
g1
(g25
g3
Ntp584
Rp585
(dp586
g29
V600
p587
sg31
VKlang
p588
sg33
g246
sg35
V63
p589
sg37
(lp590
Vautotomize
p591
aVshift-gear
p592
aVgear-grind
p593
ag593
asg43
g44
sg45
Vminus
p594
sbag1
(g25
g3
Ntp595
Rp596
(dp597
g29
V137
p598
sg31
VPorygon
p599
sg33
g246
sg35
V63
p600
sg37
(lp601
Vrecycle
p602
aVsignal-beam
p603
aVmagnet-rise
p604
aVdischarge
p605
asg43
g44
sg45
Vtrace
p606
sbasg58
I00
sg59
g478
sbag1
(g2
g3
Ntp607
Rp608
(dp609
g7
VSpr B2W2 School Kid M.png
p610
sg9
VSchool Kid
p611
sg11
VWilliam
p612
sg13
g1
(g433
g3
Ntp613
Rp614
(dp615
g437
g1
(g438
g439
(lp616
g1
(g441
g3
Ntp617
Rp618
(dp619
g445
V1260
p620
sbatp621
Rp622
(dp623
g450
(dp624
sbsbsg15
g16
sg17
g18
sg19
g20
sg21
g452
sg23
(lp625
g1
(g25
g3
Ntp626
Rp627
(dp628
g29
V285
p629
sg31
VShroomish
p630
sg33
g75
sg35
V63
p631
sg37
(lp632
Vspore
p633
aVgiga-drain
p634
aVworry-seed
p635
aVseed-bomb
p636
asg43
g44
sg45
Veffect-spore
p637
sbag1
(g25
g3
Ntp638
Rp639
(dp640
g29
V465
p641
sg31
VTangrowth
p642
sg33
g75
sg35
V63
p643
sg37
(lp644
Vblock
p645
aVnatural-gift
p646
aVwring-out
p647
aVpower-whip
p648
asg43
g44
sg45
Vchlorophyll
p649
sbasg58
I00
sg59
g478
sbag1
(g2
g3
Ntp650
Rp651
(dp652
g7
VSpr B2W2 Youngster.png
p653
sg9
VYoungster
p654
sg11
VKeita
p655
sg13
g1
(g433
g3
Ntp656
Rp657
(dp658
g437
g1
(g438
g439
(lp659
g1
(g441
g3
Ntp660
Rp661
(dp662
g445
V1008
p663
sbatp664
Rp665
(dp666
g450
(dp667
sbsbsg15
g16
sg17
g18
sg19
g20
sg21
g452
sg23
(lp668
g1
(g25
g3
Ntp669
Rp670
(dp671
g29
V287
p672
sg31
VSlakoth
p673
sg33
g34
sg35
V63
p674
sg37
(lp675
Vyawn
p676
aVslack-off
p677
aVcovet
p678
aVchip-away
p679
asg43
g44
sg45
Vtruant
p680
sbag1
(g25
g3
Ntp681
Rp682
(dp683
g29
V289
p684
sg31
VSlaking
p685
sg33
g75
sg35
V63
p686
sg37
(lp687
Vhammer-arm
p688
aVfling
p689
aVpunishment
p690
aVchip-away
p691
asg43
g44
sg45
Vtruant
p692
sbasg58
I00
sg59
g478
sbag1
(g2
g3
Ntp693
Rp694
(dp695
g7
VSpr B2W2 School Kid F.png
p696
sg9
VSchool Kid
p697
sg11
VRita
p698
sg13
g1
(g433
g3
Ntp699
Rp700
(dp701
g437
g1
(g438
g439
(lp702
g1
(g441
g3
Ntp703
Rp704
(dp705
g445
V1260
p706
sbatp707
Rp708
(dp709
g450
(dp710
sbsbsg15
g16
sg17
g18
sg19
g20
sg21
g452
sg23
(lp711
g1
(g25
g3
Ntp712
Rp713
(dp714
g29
V174
p715
sg31
VIgglybuff
p716
sg33
g34
sg35
V63
p717
sg37
(lp718
Vdefense-curl
p719
aVsweet-kiss
p720
aVcharm
p721
aVcopycat
p722
asg43
g44
sg45
Vcompetitive
p723
sbag1
(g25
g3
Ntp724
Rp725
(dp726
g29
V463
p727
sg31
VLickilicky
p728
sg33
g34
sg35
V63
p729
sg37
(lp730
Vwring-out
p731
aVme-first
p732
aVpower-whip
p733
aVchip-away
p734
asg43
g44
sg45
Voblivious
p735
sbasg58
I00
sg59
g478
sba.