(lp0
ccopy_reg
_reconstructor
p1
(c__main__
Trainer
p2
c__builtin__
object
p3
Ntp4
Rp5
(dp6
VtSprite
p7
VSpr BW Worker.png
p8
sVtClass
p9
VWorker
p10
sVtName
p11
VFelix
p12
sVtMoney
p13
V1120
p14
sVtPokeCount
p15
V2
p16
sVtLocation
p17
Vwiki/Driftveil_Gym
p18
sVtRegion
p19
VUnova
p20
sVtGame
p21
VBW
p22
sVtPokes
p23
(lp24
g1
(c__main__
FinishedPokemon
p25
g3
Ntp26
Rp27
(dp28
VpDexNo
p29
V536
p30
sVpSpecies
p31
VPalpitoad
p32
sVpGender
p33
VM
p34
sVpLevel
p35
V28
p36
sVpMoves
p37
(lp38
Vaqua-ring
p39
aVround
p40
ag40
aVechoed-voice
p41
asVpHold
p42
V
p43
sVpAbility
p44
Vswift-swim
p45
sbag1
(g25
g3
Ntp46
Rp47
(dp48
g29
V529
p49
sg31
VDrilbur
p50
sg33
g34
sg35
V28
p51
sg37
(lp52
Vmetal-claw
p53
aVmud-sport
p54
aVhone-claws
p55
aVdrill-run
p56
asg42
g43
sg44
Vsand-rush
p57
sbasVbossFlag
p58
I00
sVtLongGame
p59
Vblack-white
p60
sbag1
(g2
g3
Ntp61
Rp62
(dp63
g7
VSpr BW Worker.png
p64
sg9
VWorker
p65
sg11
VSterling
p66
sg13
V1120
p67
sg15
g16
sg17
g18
sg19
g20
sg21
g22
sg23
(lp68
g1
(g25
g3
Ntp69
Rp70
(dp71
g29
V551
p72
sg31
VSandile
p73
sg33
g34
sg35
V28
p74
sg37
(lp75
Vsand-tomb
p76
aVassurance
p77
aVembargo
p78
aVfoul-play
p79
asg42
g43
sg44
Vmoxie
p80
sbag1
(g25
g3
Ntp81
Rp82
(dp83
g29
V529
p84
sg31
VDrilbur
p85
sg33
g34
sg35
V28
p86
sg37
(lp87
Vmetal-claw
p88
aVmud-sport
p89
aVhone-claws
p90
aVdrill-run
p91
asg42
g43
sg44
Vsand-rush
p92
sbasg58
I00
sg59
g60
sbag1
(g2
g3
Ntp93
Rp94
(dp95
g7
VSpr BW Worker.png
p96
sg9
VWorker
p97
sg11
VDon
p98
sg13
V1160
p99
sg15
V1
p100
sg17
g18
sg19
g20
sg21
g22
sg23
(lp101
g1
(g25
g3
Ntp102
Rp103
(dp104
g29
V552
p105
sg31
VKrokorok
p106
sg33
g34
sg35
V29
p107
sg37
(lp108
Vsand-tomb
p109
aVassurance
p110
aVembargo
p111
aVfoul-play
p112
asg42
g43
sg44
Vintimidate
p113
sbasg58
I00
sg59
g60
sbag1
(g2
g3
Ntp114
Rp115
(dp116
g7
VSpr BW Clerk M A.png
p117
sg9
VClerk \u2642
p118
sg11
VIsaac
p119
sg13
V1080
p120
sg15
V3
p121
sg17
g18
sg19
g20
sg21
g22
sg23
(lp122
g1
(g25
g3
Ntp123
Rp124
(dp125
g29
V551
p126
sg31
VSandile
p127
sg33
g34
sg35
V27
p128
sg37
(lp129
Vsand-tomb
p130
aVassurance
p131
aVembargo
p132
aVfoul-play
p133
asg42
g43
sg44
Vmoxie
p134
sbag1
(g25
g3
Ntp135
Rp136
(dp137
g29
V536
p138
sg31
VPalpitoad
p139
sg33
g34
sg35
V27
p140
sg37
(lp141
Vaqua-ring
p142
aVround
p143
ag143
aVechoed-voice
p144
asg42
g43
sg44
Vswift-swim
p145
sbag1
(g25
g3
Ntp146
Rp147
(dp148
g29
V551
p149
sg31
VSandile
p150
sg33
g34
sg35
V27
p151
sg37
(lp152
Vsand-tomb
p153
aVassurance
p154
aVembargo
p155
aVfoul-play
p156
asg42
g43
sg44
Vintimidate
p157
sbasg58
I00
sg59
g60
sbag1
(g2
g3
Ntp158
Rp159
(dp160
g7
VSpr BW Clerk F.png
p161
sg9
VClerk \u2640
p162
sg11
VKatie
p163
sg13
V1160
p164
sg15
g100
sg17
g18
sg19
g20
sg21
g22
sg23
(lp165
g1
(g25
g3
Ntp166
Rp167
(dp168
g29
V529
p169
sg31
VDrilbur
p170
sg33
VF
p171
sg35
V29
p172
sg37
(lp173
Vmetal-claw
p174
aVmud-sport
p175
aVhone-claws
p176
aVdrill-run
p177
asg42
g43
sg44
Vsand-rush
p178
sbasg58
I00
sg59
g60
sbag1
(g2
g3
Ntp179
Rp180
(dp181
g7
VSpr B2W2 Worker.png
p182
sg9
VWorker
p183
sg11
VNoel
p184
sg13
g1
(cmwparserfromhell.wikicode
Wikicode
p185
g3
Ntp186
Rp187
(dp188
V_nodes
p189
g1
(cmwparserfromhell.smart_list.smart_list
SmartList
p190
c__builtin__
list
p191
(lp192
g1
(cmwparserfromhell.nodes.text
Text
p193
g3
Ntp194
Rp195
(dp196
V_value
p197
V1240
p198
sbatp199
Rp200
(dp201
V_children
p202
(dp203
sbsbsg15
g100
sg17
g18
sg19
g20
sg21
VB2W2
p204
sg23
(lp205
g1
(g25
g3
Ntp206
Rp207
(dp208
g29
V343
p209
sg31
VBaltoy
p210
sg33
VU
p211
sg35
V31
p212
sg37
(lp213
Vpower-trick
p214
aVearth-power
p215
aVguard-split
p216
aVpower-split
p217
asg42
g43
sg44
Vlevitate
p218
sbasg58
I00
sg59
Vblack-2-white-2
p219
sbag1
(g2
g3
Ntp220
Rp221
(dp222
g7
VSpr B2W2 Worker.png
p223
sg9
VWorker
p224
sg11
VTavarius
p225
sg13
g1
(g185
g3
Ntp226
Rp227
(dp228
g189
g1
(g190
g191
(lp229
g1
(g193
g3
Ntp230
Rp231
(dp232
g197
V1160
p233
sbatp234
Rp235
(dp236
g202
(dp237
sbsbsg15
g121
sg17
g18
sg19
g20
sg21
g204
sg23
(lp238
g1
(g25
g3
Ntp239
Rp240
(dp241
g29
V529
p242
sg31
VDrilbur
p243
sg33
g34
sg35
V29
p244
sg37
(lp245
Vmetal-claw
p246
aVmud-sport
p247
aVhone-claws
p248
aVdrill-run
p249
asg42
g43
sg44
Vsand-force
p250
sbag1
(g25
g3
Ntp251
Rp252
(dp253
g29
V343
p254
sg31
VBaltoy
p255
sg33
g211
sg35
V29
p256
sg37
(lp257
Vpower-trick
p258
aVearth-power
p259
aVguard-split
p260
aVpower-split
p261
asg42
g43
sg44
Vlevitate
p262
sbag1
(g25
g3
Ntp263
Rp264
(dp265
g29
V551
p266
sg31
VSandile
p267
sg33
g34
sg35
V29
p268
sg37
(lp269
Vsand-tomb
p270
aVassurance
p271
aVembargo
p272
aVfoul-play
p273
asg42
g43
sg44
Vmoxie
p274
sbasg58
I00
sg59
g219
sbag1
(g2
g3
Ntp275
Rp276
(dp277
g7
VSpr B2W2 Worker.png
p278
sg9
VWorker
p279
sg11
VNiel
p280
sg13
g1
(g185
g3
Ntp281
Rp282
(dp283
g189
g1
(g190
g191
(lp284
g1
(g193
g3
Ntp285
Rp286
(dp287
g197
V1200
p288
sbatp289
Rp290
(dp291
g202
(dp292
sbsbsg15
g16
sg17
g18
sg19
g20
sg21
g204
sg23
(lp293
g1
(g25
g3
Ntp294
Rp295
(dp296
g29
V343
p297
sg31
VBaltoy
p298
sg33
g211
sg35
V30
p299
sg37
(lp300
Vpower-trick
p301
aVearth-power
p302
aVguard-split
p303
aVpower-split
p304
asg42
g43
sg44
Vlevitate
p305
sbag1
(g25
g3
Ntp306
Rp307
(dp308
g29
V551
p309
sg31
VSandile
p310
sg33
g34
sg35
V30
p311
sg37
(lp312
Vsand-tomb
p313
aVassurance
p314
aVembargo
p315
aVfoul-play
p316
asg42
g43
sg44
Vmoxie
p317
sbasg58
I00
sg59
g219
sbag1
(g2
g3
Ntp318
Rp319
(dp320
g7
VSpr B2W2 Worker.png
p321
sg9
VWorker
p322
sg11
VFriedrich
p323
sg13
g1
(g185
g3
Ntp324
Rp325
(dp326
g189
g1
(g190
g191
(lp327
g1
(g193
g3
Ntp328
Rp329
(dp330
g197
V1240
p331
sbatp332
Rp333
(dp334
g202
(dp335
sbsbsg15
g100
sg17
g18
sg19
g20
sg21
g204
sg23
(lp336
g1
(g25
g3
Ntp337
Rp338
(dp339
g29
V551
p340
sg31
VSandile
p341
sg33
g34
sg35
V31
p342
sg37
(lp343
Vsand-tomb
p344
aVassurance
p345
aVembargo
p346
aVfoul-play
p347
asg42
g43
sg44
Vmoxie
p348
sbasg58
I00
sg59
g219
sbag1
(g2
g3
Ntp349
Rp350
(dp351
g7
VSpr B2W2 Worker.png
p352
sg9
VWorker
p353
sg11
VPasqual
p354
sg13
g1
(g185
g3
Ntp355
Rp356
(dp357
g189
g1
(g190
g191
(lp358
g1
(g193
g3
Ntp359
Rp360
(dp361
g197
V1200
p362
sbatp363
Rp364
(dp365
g202
(dp366
sbsbsg15
g16
sg17
g18
sg19
g20
sg21
g204
sg23
(lp367
g1
(g25
g3
Ntp368
Rp369
(dp370
g29
V529
p371
sg31
VDrilbur
p372
sg33
g34
sg35
V30
p373
sg37
(lp374
Vmetal-claw
p375
aVmud-sport
p376
aVhone-claws
p377
aVdrill-run
p378
asg42
g43
sg44
Vsand-rush
p379
sbag1
(g25
g3
Ntp380
Rp381
(dp382
g29
V343
p383
sg31
VBaltoy
p384
sg33
g211
sg35
V30
p385
sg37
(lp386
Vpower-trick
p387
aVearth-power
p388
aVguard-split
p389
aVpower-split
p390
asg42
g43
sg44
Vlevitate
p391
sbasg58
I00
sg59
g219
sbag1
(g2
g3
Ntp392
Rp393
(dp394
g7
VSpr B2W2 Worker.png
p395
sg9
VWorker
p396
sg11
VTibor
p397
sg13
g1
(g185
g3
Ntp398
Rp399
(dp400
g189
g1
(g190
g191
(lp401
g1
(g193
g3
Ntp402
Rp403
(dp404
g197
V1200
p405
sbatp406
Rp407
(dp408
g202
(dp409
sbsbsg15
g16
sg17
g18
sg19
g20
sg21
g204
sg23
(lp410
g1
(g25
g3
Ntp411
Rp412
(dp413
g29
V551
p414
sg31
VSandile
p415
sg33
g34
sg35
V30
p416
sg37
(lp417
Vsand-tomb
p418
aVassurance
p419
aVembargo
p420
aVfoul-play
p421
asg42
g43
sg44
Vintimidate
p422
sbag1
(g25
g3
Ntp423
Rp424
(dp425
g29
V529
p426
sg31
VDrilbur
p427
sg33
g34
sg35
V30
p428
sg37
(lp429
Vmetal-claw
p430
aVmud-sport
p431
aVhone-claws
p432
aVdrill-run
p433
asg42
g43
sg44
Vsand-rush
p434
sbasg58
I00
sg59
g219
sbag1
(g2
g3
Ntp435
Rp436
(dp437
g7
VSpr B2W2 Worker.png
p438
sg9
VWorker
p439
sg11
VMaynard
p440
sg13
g1
(g185
g3
Ntp441
Rp442
(dp443
g189
g1
(g190
g191
(lp444
g1
(g193
g3
Ntp445
Rp446
(dp447
g197
V1240
p448
sbatp449
Rp450
(dp451
g202
(dp452
sbsbsg15
g100
sg17
g18
sg19
g20
sg21
g204
sg23
(lp453
g1
(g25
g3
Ntp454
Rp455
(dp456
g29
V529
p457
sg31
VDrilbur
p458
sg33
g34
sg35
V31
p459
sg37
(lp460
Vmetal-claw
p461
aVmud-sport
p462
aVhone-claws
p463
aVdrill-run
p464
asg42
g43
sg44
Vsand-rush
p465
sbasg58
I00
sg59
g219
sbag1
(g2
g3
Ntp466
Rp467
(dp468
g7
VSpr BW Clay.png
p469
sg9
VLeader
p470
sg11
VClay
p471
sg13
V3720
p472
sg15
I3
sg17
g18
sg19
g20
sg21
g22
sg23
(lp473
g1
(g25
g3
Ntp474
Rp475
(dp476
g29
I552
sg31
VKrokorok
p477
sg33
g34
sg35
V29
p478
sg37
(lp479
VSwagger
p480
aVCrunch
p481
aVBulldoze
p482
aVTorment
p483
asg42
g43
sg44
VMoxie
p484
sbag1
(g25
g3
Ntp485
Rp486
(dp487
g29
I536
sg31
VPalpitoad
p488
sg33
g34
sg35
V29
p489
sg37
(lp490
VAqua Ring
p491
aVBulldoze
p492
aVMuddy Water
p493
aVBubbleBeam
p494
asg42
g43
sg44
VSwift Swim
p495
sbag1
(g25
g3
Ntp496
Rp497
(dp498
g29
I530
sg31
VExcadrill
p499
sg33
g34
sg35
V31
p500
sg37
(lp501
VHone Claws
p502
aVSlash
p503
aVRock Slide
p504
aVBulldoze
p505
asg42
g43
sg44
VSand Rush
p506
sbasg58
I01
sg59
g60
sbag1
(g2
g3
Ntp507
Rp508
(dp509
g7
VSpr B2W2 Clay.png
p510
sg9
VLeader
p511
sg11
VClay
p512
sg13
g1
(g185
g3
Ntp513
Rp514
(dp515
g189
g1
(g190
g191
(lp516
g1
(g193
g3
Ntp517
Rp518
(dp519
g197
V3600
p520
sbatp521
Rp522
(dp523
g202
(dp524
sbsbsg15
I3
sg17
g18
sg19
g20
sg21
g204
sg23
(lp525
g1
(g25
g3
Ntp526
Rp527
(dp528
g29
I552
sg31
VKrokorok
p529
sg33
g34
sg35
g1
(g185
g3
Ntp530
Rp531
(dp532
g189
g1
(g190
g191
(lp533
g1
(g193
g3
Ntp534
Rp535
(dp536
g197
V28
p537
sbatp538
Rp539
(dp540
g202
(dp541
sbsbsg37
(lp542
VCrunch
p543
aVSand Tomb
p544
aVBulldoze
p545
aVTorment
p546
asg42
g43
sg44
VIntimidate
p547
sbag1
(g25
g3
Ntp548
Rp549
(dp550
g29
I28
sg31
VSandslash
p551
sg33
g34
sg35
g1
(g185
g3
Ntp552
Rp553
(dp554
g189
g1
(g190
g191
(lp555
g1
(g193
g3
Ntp556
Rp557
(dp558
g197
V28
p559
sbatp560
Rp561
(dp562
g202
(dp563
sbsbsg37
(lp564
VCrush Claw
p565
aVBulldoze
p566
aVFury Cutter
p567
aVRollout
p568
asg42
g43
sg44
VSand Veil
p569
sbag1
(g25
g3
Ntp570
Rp571
(dp572
g29
I530
sg31
VExcadrill
p573
sg33
g34
sg35
g1
(g185
g3
Ntp574
Rp575
(dp576
g189
g1
(g190
g191
(lp577
g1
(g193
g3
Ntp578
Rp579
(dp580
g197
V30
p581
sbatp582
Rp583
(dp584
g202
(dp585
sbsbsg37
(lp586
VSlash
p587
aVRock Slide
p588
aVMetal Claw
p589
aVBulldoze
p590
asg42
VSitrus Berry
p591
sg44
VSand Force
p592
sbasg58
I01
sg59
g219
sbag1
(g2
g3
Ntp593
Rp594
(dp595
g7
VSpr B2W2 Clay.png
p596
sg9
VLeader
p597
sg11
VClay
p598
sg13
V4320
p599
sg15
I4
sg17
g18
sg19
g20
sg21
g204
sg23
(lp600
g1
(g25
g3
Ntp601
Rp602
(dp603
g29
I552
sg31
VKrokorok
p604
sg33
g34
sg35
V34
p605
sg37
(lp606
VCrunch
p607
aVSandstorm
p608
aVTorment
p609
aVBulldoze
p610
asg42
VSitrus Berry
p611
sg44
VIntimidate
p612
sbag1
(g25
g3
Ntp613
Rp614
(dp615
g29
I28
sg31
VSandslash
p616
sg33
g34
sg35
V34
p617
sg37
(lp618
VBulldoze
p619
aVCrush Claw
p620
aVHone Claws
p621
aVRock Slide
p622
asg42
g43
sg44
VSand Veil
p623
sbag1
(g25
g3
Ntp624
Rp625
(dp626
g29
I95
sg31
VOnix
p627
sg33
g34
sg35
V34
p628
sg37
(lp629
VExplosion
p630
aVBulldoze
p631
aVRock Polish
p632
aVRock Slide
p633
asg42
g43
sg44
VSturdy
p634
sbag1
(g25
g3
Ntp635
Rp636
(dp637
g29
I530
sg31
VExcadrill
p638
sg33
g34
sg35
V36
p639
sg37
(lp640
VSlash
p641
aVBulldoze
p642
aVMetal Claw
p643
aVRock Slide
p644
asg42
VSitrus Berry
p645
sg44
VSand Force
p646
sbasg58
I01
sg59
g219
sba.