(lp0
ccopy_reg
_reconstructor
p1
(c__main__
Trainer
p2
c__builtin__
object
p3
Ntp4
Rp5
(dp6
VtSprite
p7
VSpr BW Youngster.png
p8
sVtClass
p9
VYoungster
p10
sVtName
p11
VKyle
p12
sVtMoney
p13
g1
(cmwparserfromhell.wikicode
Wikicode
p14
g3
Ntp15
Rp16
(dp17
V_nodes
p18
g1
(cmwparserfromhell.smart_list.smart_list
SmartList
p19
c__builtin__
list
p20
(lp21
g1
(cmwparserfromhell.nodes.text
Text
p22
g3
Ntp23
Rp24
(dp25
V_value
p26
V1040
p27
sbatp28
Rp29
(dp30
V_children
p31
(dp32
sbsbsVtPokeCount
p33
V1
p34
sVtLocation
p35
Vwiki/Driftveil_City
p36
sVtRegion
p37
VUnova
p38
sVtGame
p39
VBW
p40
sVtPokes
p41
(lp42
g1
(c__main__
FinishedPokemon
p43
g3
Ntp44
Rp45
(dp46
VpDexNo
p47
V573
p48
sVpSpecies
p49
VCinccino
p50
sVpGender
p51
VU
p52
sVpLevel
p53
V65
p54
sVpMoves
p55
(lp56
Vtickle
p57
aVbullet-seed
p58
aVrock-blast
p59
aVtail-slap
p60
asVpHold
p61
V
p62
sVpAbility
p63
Vcute-charm
p64
sbasVbossFlag
p65
I00
sVtLongGame
p66
Vblack-white
p67
sbag1
(g2
g3
Ntp68
Rp69
(dp70
g7
VSpr BW Biker.png
p71
sg9
VMotorcyclist
p72
sg11
VCharles
p73
sg13
V864
p74
sg33
I3
sg35
g36
sg37
g38
sg39
g40
sg41
(lp75
g1
(g43
g3
Ntp76
Rp77
(dp78
g47
I523
sg49
VZebstrika
p79
sg51
VM
p80
sg53
V27
p81
sg55
(lp82
VShock Wave
p83
aVFlame Charge
p84
aVPursuit
p85
aVSpark
p86
asg61
g62
sg63
VMotor Drive
p87
sbag1
(g43
g3
Ntp88
Rp89
(dp90
g47
I552
sg49
VKrokorok
p91
sg51
g80
sg53
V27
p92
sg55
(lp93
VAssurance
p94
aVMud-Slap
p95
aVEmbargo
p96
aVSwagger
p97
asg61
g62
sg63
VIntimidate
p98
sbag1
(g43
g3
Ntp99
Rp100
(dp101
g47
I550
sg49
VBasculin
p102
sg51
g80
sg53
V27
p103
sg55
(lp104
VAqua Jet
p105
aVChip Away
p106
aVTake Down
p107
aVCrunch
p108
asg61
g62
sg63
VAdaptability
p109
sbasg65
I01
sg66
g67
sbag1
(g2
g3
Ntp110
Rp111
(dp112
g7
VSpr BW Bianca.png
p113
sg9
VPokemon Trainer
p114
sg11
VBianca
p115
sg13
V2800
p116
sg33
I4
sg35
g36
sg37
g38
sg39
g40
sg41
(lp117
g1
(g43
g3
Ntp118
Rp119
(dp120
g47
I507
sg49
VHerdier
p121
sg51
VF
p122
sg53
V26
p123
sg55
(lp124
VHelping Hand
p125
aVTake Down
p126
aVWork Up
p127
aVCrunch
p128
asg61
g62
sg63
VIntimidate
p129
sbag1
(g43
g3
Ntp130
Rp131
(dp132
g47
I513
sg49
VPansear
p133
sg51
g80
sg53
V26
p134
sg55
(lp135
VYawn
p136
aVBite
p137
aVFlame Burst
p138
aVAmnesia
p139
asg61
g62
sg63
VGluttony
p140
sbag1
(g43
g3
Ntp141
Rp142
(dp143
g47
I518
sg49
VMusharna
p144
sg51
g122
sg53
V26
p145
sg55
(lp146
VDefense Curl
p147
aVLucky Chant
p148
aVPsybeam
p149
aVHypnosis
p150
asg61
g62
sg63
VForewarn
p151
sbag1
(g43
g3
Ntp152
Rp153
(dp154
g47
I502
sg49
VDewott
p155
sg51
g80
sg53
V28
p156
sg55
(lp157
VRazor Shell
p158
aVFury Cutter
p159
aVWater Pulse
p160
aVRevenge
p161
asg61
g62
sg63
VTorrent
p162
sbasg65
I01
sg66
g67
sbag1
(g2
g3
Ntp163
Rp164
(dp165
g7
VSpr BW Bianca.png
p166
sg9
VPokemon Trainer
p167
sg11
VBianca
p168
sg13
V2800
p169
sg33
I4
sg35
g36
sg37
g38
sg39
g40
sg41
(lp170
g1
(g43
g3
Ntp171
Rp172
(dp173
g47
I507
sg49
VHerdier
p174
sg51
g122
sg53
V26
p175
sg55
(lp176
VHelping Hand
p177
aVTake Down
p178
aVWork Up
p179
aVCrunch
p180
asg61
g62
sg63
VIntimidate
p181
sbag1
(g43
g3
Ntp182
Rp183
(dp184
g47
I515
sg49
VPanpour
p185
sg51
g80
sg53
V26
p186
sg55
(lp187
VWater Sport
p188
aVBite
p189
aVScald
p190
aVTaunt
p191
asg61
g62
sg63
VGluttony
p192
sbag1
(g43
g3
Ntp193
Rp194
(dp195
g47
I518
sg49
VMusharna
p196
sg51
g122
sg53
V26
p197
sg55
(lp198
VDefense Curl
p199
aVLucky Chant
p200
aVPsybeam
p201
aVHypnosis
p202
asg61
g62
sg63
VForewarn
p203
sbag1
(g43
g3
Ntp204
Rp205
(dp206
g47
I496
sg49
VServine
p207
sg51
g80
sg53
V28
p208
sg55
(lp209
VLeaf Tornado
p210
aVLeech Seed
p211
aVMega Drain
p212
aVSlam
p213
asg61
g62
sg63
VOvergrow
p214
sbasg65
I01
sg66
g67
sbag1
(g2
g3
Ntp215
Rp216
(dp217
g7
VSpr BW Bianca.png
p218
sg9
VPokemon Trainer
p219
sg11
VBianca
p220
sg13
V2800
p221
sg33
I4
sg35
g36
sg37
g38
sg39
g40
sg41
(lp222
g1
(g43
g3
Ntp223
Rp224
(dp225
g47
I507
sg49
VHerdier
p226
sg51
g122
sg53
V26
p227
sg55
(lp228
VHelping Hand
p229
aVTake Down
p230
aVWork Up
p231
aVCrunch
p232
asg61
g62
sg63
VIntimidate
p233
sbag1
(g43
g3
Ntp234
Rp235
(dp236
g47
I511
sg49
VPansage
p237
sg51
g80
sg53
V26
p238
sg55
(lp239
VLeech Seed
p240
aVBite
p241
aVSeed Bomb
p242
aVTorment
p243
asg61
g62
sg63
VGluttony
p244
sbag1
(g43
g3
Ntp245
Rp246
(dp247
g47
I518
sg49
VMusharna
p248
sg51
g122
sg53
V26
p249
sg55
(lp250
VDefense Curl
p251
aVLucky Chant
p252
aVPsybeam
p253
aVHypnosis
p254
asg61
g62
sg63
VForewarn
p255
sbag1
(g43
g3
Ntp256
Rp257
(dp258
g47
I499
sg49
VPignite
p259
sg51
g80
sg53
V28
p260
sg55
(lp261
VArm Thrust
p262
aVSmog
p263
aVRollout
p264
aVTake Down
p265
asg61
g62
sg63
VBlaze
p266
sbasg65
I01
sg66
g67
sbag1
(g2
g3
Ntp267
Rp268
(dp269
g7
VSpr B2W2 Biker.png
p270
sg9
VMotorcyclist
p271
sg11
VCharles
p272
sg13
g1
(g14
g3
Ntp273
Rp274
(dp275
g18
g1
(g19
g20
(lp276
g1
(g22
g3
Ntp277
Rp278
(dp279
g26
V832
p280
sbatp281
Rp282
(dp283
g31
(dp284
sbsbsg33
I3
sg35
g36
sg37
g38
sg39
VB2W2
p285
sg41
(lp286
g1
(g43
g3
Ntp287
Rp288
(dp289
g47
I561
sg49
VSigilyph
p290
sg51
g80
sg53
g1
(g14
g3
Ntp291
Rp292
(dp293
g18
g1
(g19
g20
(lp294
g1
(g22
g3
Ntp295
Rp296
(dp297
g26
V26
p298
sbatp299
Rp300
(dp301
g31
(dp302
sbsbsg55
(lp303
VAir Cutter
p304
aVPsybeam
p305
aVWhirlwind
p306
aVLight Screen
p307
asg61
g62
sg63
VMagic Guard
p308
sbag1
(g43
g3
Ntp309
Rp310
(dp311
g47
I566
sg49
VArchen
p312
sg51
g80
sg53
g1
(g14
g3
Ntp313
Rp314
(dp315
g18
g1
(g19
g20
(lp316
g1
(g22
g3
Ntp317
Rp318
(dp319
g26
V26
p320
sbatp321
Rp322
(dp323
g31
(dp324
sbsbsg55
(lp325
VPluck
p326
aVAgility
p327
aVAncientPower
p328
aVQuick Guard
p329
asg61
g62
sg63
VDefeatist
p330
sbag1
(g43
g3
Ntp331
Rp332
(dp333
g47
I564
sg49
VTirtouga
p334
sg51
g80
sg53
g1
(g14
g3
Ntp335
Rp336
(dp337
g18
g1
(g19
g20
(lp338
g1
(g22
g3
Ntp339
Rp340
(dp341
g26
V26
p342
sbatp343
Rp344
(dp345
g31
(dp346
sbsbsg55
(lp347
VWide Guard
p348
aVAqua Jet
p349
aVAncientPower
p350
aVCrunch
p351
asg61
g62
sg63
VSolid Rock
p352
sbasg65
I01
sg66
Vblack-2-white-2
p353
sbag1
(g2
g3
Ntp354
Rp355
(dp356
g7
VSpr B2W2 Rood.png
p357
sg9
VPokemon Trainer
p358
sg11
VRood
p359
sg13
g1
(g14
g3
Ntp360
Rp361
(dp362
g18
g1
(g19
g20
(lp363
g1
(g22
g3
Ntp364
Rp365
(dp366
g26
V2700
p367
sbatp368
Rp369
(dp370
g31
(dp371
sbsbsg33
I2
sg35
g36
sg37
g38
sg39
g285
sg41
(lp372
g1
(g43
g3
Ntp373
Rp374
(dp375
g47
I507
sg49
VHerdier
p376
sg51
g80
sg53
g1
(g14
g3
Ntp377
Rp378
(dp379
g18
g1
(g19
g20
(lp380
g1
(g22
g3
Ntp381
Rp382
(dp383
g26
V27
p384
sbatp385
Rp386
(dp387
g31
(dp388
sbsbsg55
(lp389
VHelping Hand
p390
aVTake Down
p391
aVWork Up
p392
aVCrunch
p393
asg61
g62
sg63
VIntimidate
p394
sbag1
(g43
g3
Ntp395
Rp396
(dp397
g47
I528
sg49
VSwoobat
p398
sg51
g80
sg53
g1
(g14
g3
Ntp399
Rp400
(dp401
g18
g1
(g19
g20
(lp402
g1
(g22
g3
Ntp403
Rp404
(dp405
g26
V27
p406
sbatp407
Rp408
(dp409
g31
(dp410
sbsbsg55
(lp411
VHeart Stamp
p412
aVImprison
p413
aVAir Cutter
p414
aVAttract
p415
asg61
g62
sg63
VUnaware
p416
sbasg65
I01
sg66
g353
sbag1
(g2
g3
Ntp417
Rp418
(dp419
g7
VSpr B2W2 Hugh.png
p420
sg9
VPokemon Trainer
p421
sg11
VHugh
p422
sg13
I0
sg33
I6
sg35
g36
sg37
g38
sg39
g285
sg41
(lp423
g1
(g43
g3
Ntp424
Rp425
(dp426
g47
I521
sg49
VUnfezant
p427
sg51
g80
sg53
g1
(g14
g3
Ntp428
Rp429
(dp430
g18
g1
(g19
g20
(lp431
g1
(g22
g3
Ntp432
Rp433
(dp434
g26
V65
p435
sbatp436
Rp437
(dp438
g31
(dp439
sbsbsg55
(lp440
VGiga Impact
p441
aVAerial Ace
p442
aVU-turn
p443
aVSwagger
p444
asg61
VScope Lens
p445
sg63
VSuper Luck
p446
sbag1
(g43
g3
Ntp447
Rp448
(dp449
g47
I516
sg49
VSimipour
p450
sg51
g80
sg53
g1
(g14
g3
Ntp451
Rp452
(dp453
g18
g1
(g19
g20
(lp454
g1
(g22
g3
Ntp455
Rp456
(dp457
g26
V65
p458
sbatp459
Rp460
(dp461
g31
(dp462
sbsbsg55
(lp463
VRock Slide
p464
aVFocus Blast
p465
aVAcrobatics
p466
aVSurf
p467
asg61
VSalac Berry
p468
sg63
VGluttony
p469
sbag1
(g43
g3
Ntp470
Rp471
(dp472
g47
I626
sg49
VBouffalant
p473
sg51
g80
sg53
g1
(g14
g3
Ntp474
Rp475
(dp476
g18
g1
(g19
g20
(lp477
g1
(g22
g3
Ntp478
Rp479
(dp480
g26
V65
p481
sbatp482
Rp483
(dp484
g31
(dp485
sbsbsg55
(lp486
VHead Charge
p487
aVWild Charge
p488
aVMegahorn
p489
aVEarthquake
p490
asg61
VMuscle Band
p491
sg63
VSap Sipper
p492
sbag1
(g43
g3
Ntp493
Rp494
(dp495
g47
I330
sg49
VFlygon
p496
sg51
g80
sg53
g1
(g14
g3
Ntp497
Rp498
(dp499
g18
g1
(g19
g20
(lp500
g1
(g22
g3
Ntp501
Rp502
(dp503
g26
V65
p504
sbatp505
Rp506
(dp507
g31
(dp508
sbsbsg55
(lp509
VEarthquake
p510
aVFire Blast
p511
aVDraco Meteor
p512
aVStone Edge
p513
asg61
VDragon Gem
p514
sg63
VLevitate
p515
sbag1
(g43
g3
Ntp516
Rp517
(dp518
g47
I604
sg49
VEelektross
p519
sg51
g80
sg53
g1
(g14
g3
Ntp520
Rp521
(dp522
g18
g1
(g19
g20
(lp523
g1
(g22
g3
Ntp524
Rp525
(dp526
g26
V65
p527
sbatp528
Rp529
(dp530
g31
(dp531
sbsbsg55
(lp532
VWild Charge
p533
aVFlamethrower
p534
aVDragon Claw
p535
aVCrunch
p536
asg61
VLeftovers
p537
sg63
VLevitate
p538
sbag1
(g43
g3
Ntp539
Rp540
(dp541
g47
I500
sg49
VEmboar
p542
sg51
g80
sg53
g1
(g14
g3
Ntp543
Rp544
(dp545
g18
g1
(g19
g20
(lp546
g1
(g22
g3
Ntp547
Rp548
(dp549
g26
V67
p550
sbatp551
Rp552
(dp553
g31
(dp554
sbsbsg55
(lp555
VFire Blast
p556
aVHead Smash
p557
aVHammer Arm
p558
aVScald
p559
asg61
VFocus Sash
p560
sg63
VBlaze
p561
sbasg65
I01
sg66
g353
sbag1
(g2
g3
Ntp562
Rp563
(dp564
g7
VSpr B2W2 Hugh.png
p565
sg9
VPokemon Trainer
p566
sg11
VHugh
p567
sg13
I0
sg33
I6
sg35
g36
sg37
g38
sg39
g285
sg41
(lp568
g1
(g43
g3
Ntp569
Rp570
(dp571
g47
I521
sg49
VUnfezant
p572
sg51
g80
sg53
g1
(g14
g3
Ntp573
Rp574
(dp575
g18
g1
(g19
g20
(lp576
g1
(g22
g3
Ntp577
Rp578
(dp579
g26
V65
p580
sbatp581
Rp582
(dp583
g31
(dp584
sbsbsg55
(lp585
VGiga Impact
p586
aVAerial Ace
p587
aVU-turn
p588
aVSwagger
p589
asg61
VScope Lens
p590
sg63
VSuper Luck
p591
sbag1
(g43
g3
Ntp592
Rp593
(dp594
g47
I512
sg49
VSimisage
p595
sg51
g80
sg53
g1
(g14
g3
Ntp596
Rp597
(dp598
g18
g1
(g19
g20
(lp599
g1
(g22
g3
Ntp600
Rp601
(dp602
g26
V65
p603
sbatp604
Rp605
(dp606
g31
(dp607
sbsbsg55
(lp608
VRock Slide
p609
aVFocus Blast
p610
aVAcrobatics
p611
aVEnergy Ball
p612
asg61
VSalac Berry
p613
sg63
VGluttony
p614
sbag1
(g43
g3
Ntp615
Rp616
(dp617
g47
I626
sg49
VBouffalant
p618
sg51
g80
sg53
g1
(g14
g3
Ntp619
Rp620
(dp621
g18
g1
(g19
g20
(lp622
g1
(g22
g3
Ntp623
Rp624
(dp625
g26
V65
p626
sbatp627
Rp628
(dp629
g31
(dp630
sbsbsg55
(lp631
VHead Charge
p632
aVWild Charge
p633
aVMegahorn
p634
aVEarthquake
p635
asg61
VMuscle Band
p636
sg63
VSap Sipper
p637
sbag1
(g43
g3
Ntp638
Rp639
(dp640
g47
I330
sg49
VFlygon
p641
sg51
g80
sg53
g1
(g14
g3
Ntp642
Rp643
(dp644
g18
g1
(g19
g20
(lp645
g1
(g22
g3
Ntp646
Rp647
(dp648
g26
V65
p649
sbatp650
Rp651
(dp652
g31
(dp653
sbsbsg55
(lp654
VEarthquake
p655
aVFire Blast
p656
aVDraco Meteor
p657
aVStone Edge
p658
asg61
VDragon Gem
p659
sg63
VLevitate
p660
sbag1
(g43
g3
Ntp661
Rp662
(dp663
g47
I604
sg49
VEelektross
p664
sg51
g80
sg53
g1
(g14
g3
Ntp665
Rp666
(dp667
g18
g1
(g19
g20
(lp668
g1
(g22
g3
Ntp669
Rp670
(dp671
g26
V65
p672
sbatp673
Rp674
(dp675
g31
(dp676
sbsbsg55
(lp677
VWild Charge
p678
aVFlamethrower
p679
aVDragon Claw
p680
aVCrunch
p681
asg61
VLeftovers
p682
sg63
VLevitate
p683
sbag1
(g43
g3
Ntp684
Rp685
(dp686
g47
I503
sg49
VSamurott
p687
sg51
g80
sg53
g1
(g14
g3
Ntp688
Rp689
(dp690
g18
g1
(g19
g20
(lp691
g1
(g22
g3
Ntp692
Rp693
(dp694
g26
V67
p695
sbatp696
Rp697
(dp698
g31
(dp699
sbsbsg55
(lp700
VHydro Pump
p701
aVMegahorn
p702
aVIce Beam
p703
aVGrass Knot
p704
asg61
VFocus Sash
p705
sg63
VTorrent
p706
sbasg65
I01
sg66
g353
sbag1
(g2
g3
Ntp707
Rp708
(dp709
g7
VSpr B2W2 Hugh.png
p710
sg9
VPokemon Trainer
p711
sg11
VHugh
p712
sg13
I0
sg33
I6
sg35
g36
sg37
g38
sg39
g285
sg41
(lp713
g1
(g43
g3
Ntp714
Rp715
(dp716
g47
I521
sg49
VUnfezant
p717
sg51
g80
sg53
g1
(g14
g3
Ntp718
Rp719
(dp720
g18
g1
(g19
g20
(lp721
g1
(g22
g3
Ntp722
Rp723
(dp724
g26
V65
p725
sbatp726
Rp727
(dp728
g31
(dp729
sbsbsg55
(lp730
VGiga Impact
p731
aVAerial Ace
p732
aVU-turn
p733
aVSwagger
p734
asg61
VScope Lens
p735
sg63
VSuper Luck
p736
sbag1
(g43
g3
Ntp737
Rp738
(dp739
g47
I514
sg49
VSimisear
p740
sg51
g80
sg53
g1
(g14
g3
Ntp741
Rp742
(dp743
g18
g1
(g19
g20
(lp744
g1
(g22
g3
Ntp745
Rp746
(dp747
g26
V65
p748
sbatp749
Rp750
(dp751
g31
(dp752
sbsbsg55
(lp753
VRock Slide
p754
aVFocus Blast
p755
aVAcrobatics
p756
aVFlamethrower
p757
asg61
VSalac Berry
p758
sg63
VGluttony
p759
sbag1
(g43
g3
Ntp760
Rp761
(dp762
g47
I626
sg49
VBouffalant
p763
sg51
g80
sg53
g1
(g14
g3
Ntp764
Rp765
(dp766
g18
g1
(g19
g20
(lp767
g1
(g22
g3
Ntp768
Rp769
(dp770
g26
V65
p771
sbatp772
Rp773
(dp774
g31
(dp775
sbsbsg55
(lp776
VHead Charge
p777
aVWild Charge
p778
aVMegahorn
p779
aVEarthquake
p780
asg61
VMuscle Band
p781
sg63
VSap Sipper
p782
sbag1
(g43
g3
Ntp783
Rp784
(dp785
g47
I330
sg49
VFlygon
p786
sg51
g80
sg53
g1
(g14
g3
Ntp787
Rp788
(dp789
g18
g1
(g19
g20
(lp790
g1
(g22
g3
Ntp791
Rp792
(dp793
g26
V65
p794
sbatp795
Rp796
(dp797
g31
(dp798
sbsbsg55
(lp799
VEarthquake
p800
aVFire Blast
p801
aVDraco Meteor
p802
aVStone Edge
p803
asg61
VDragon Gem
p804
sg63
VLevitate
p805
sbag1
(g43
g3
Ntp806
Rp807
(dp808
g47
I604
sg49
VEelektross
p809
sg51
g80
sg53
g1
(g14
g3
Ntp810
Rp811
(dp812
g18
g1
(g19
g20
(lp813
g1
(g22
g3
Ntp814
Rp815
(dp816
g26
V65
p817
sbatp818
Rp819
(dp820
g31
(dp821
sbsbsg55
(lp822
VWild Charge
p823
aVFlamethrower
p824
aVDragon Claw
p825
aVCrunch
p826
asg61
VLeftovers
p827
sg63
VLevitate
p828
sbag1
(g43
g3
Ntp829
Rp830
(dp831
g47
I497
sg49
VSerperior
p832
sg51
g80
sg53
g1
(g14
g3
Ntp833
Rp834
(dp835
g18
g1
(g19
g20
(lp836
g1
(g22
g3
Ntp837
Rp838
(dp839
g26
V67
p840
sbatp841
Rp842
(dp843
g31
(dp844
sbsbsg55
(lp845
VLeaf Storm
p846
aVLeaf Blade
p847
aVDragon Tail
p848
aVCoil
p849
asg61
VFocus Sash
p850
sg63
VOvergrow
p851
sbasg65
I01
sg66
g353
sba.