(lp0
ccopy_reg
_reconstructor
p1
(c__main__
Trainer
p2
c__builtin__
object
p3
Ntp4
Rp5
(dp6
VtSprite
p7
VSpr GS Kimono Girl.png
p8
sVtClass
p9
VKimono Girl
p10
sVtName
p11
VNaoko
p12
sVtMoney
p13
V1224
p14
sVtPokeCount
p15
V1
p16
sVtLocation
p17
Vwiki/Ecruteak_City
p18
sVtRegion
p19
VJohto
p20
sVtGame
p21
VGS
p22
sVtPokes
p23
(lp24
g1
(c__main__
FinishedPokemon
p25
g3
Ntp26
Rp27
(dp28
VpDexNo
p29
V136
p30
sVpSpecies
p31
VFlareon
p32
sVpGender
p33
VM
p34
sVpLevel
p35
V17
p36
sVpMoves
p37
(lp38
Vflamethrower
p39
aVfire-spin
p40
aVquick-attack
p41
aVsmog
p42
asVpHold
p43
V
p44
sVpAbility
p45
Vflash-fire
p46
sbasVbossFlag
p47
I00
sVtLongGame
p48
Vgold-silver
p49
sbag1
(g2
g3
Ntp50
Rp51
(dp52
g7
VSpr GS Kimono Girl.png
p53
sg9
VKimono Girl
p54
sg11
V[[Sakura|Sayo]]
p55
sg13
V1224
p56
sg15
g16
sg17
g18
sg19
g20
sg21
g22
sg23
(lp57
g1
(g25
g3
Ntp58
Rp59
(dp60
g29
V196
p61
sg31
VEspeon
p62
sg33
g34
sg35
V17
p63
sg37
(lp64
Vquick-attack
p65
aVswift
p66
aVmorning-sun
p67
aVpsych-up
p68
asg43
g44
sg45
Vsynchronize
p69
sbasg47
I00
sg48
g49
sbag1
(g2
g3
Ntp70
Rp71
(dp72
g7
VSpr GS Kimono Girl.png
p73
sg9
VKimono Girl
p74
sg11
VZuki
p75
sg13
V1224
p76
sg15
g16
sg17
g18
sg19
g20
sg21
g22
sg23
(lp77
g1
(g25
g3
Ntp78
Rp79
(dp80
g29
V197
p81
sg31
VUmbreon
p82
sg33
g34
sg35
V17
p83
sg37
(lp84
Vfeint-attack
p85
aVmean-look
p86
aVpursuit
p87
aVmoonlight
p88
asg43
g44
sg45
Vsynchronize
p89
sbasg47
I00
sg48
g49
sbag1
(g2
g3
Ntp90
Rp91
(dp92
g7
VSpr GS Kimono Girl.png
p93
sg9
VKimono Girl
p94
sg11
VKuni
p95
sg13
V1224
p96
sg15
g16
sg17
g18
sg19
g20
sg21
g22
sg23
(lp97
g1
(g25
g3
Ntp98
Rp99
(dp100
g29
V134
p101
sg31
VVaporeon
p102
sg33
g34
sg35
V17
p103
sg37
(lp104
Vaurora-beam
p105
aVquick-attack
p106
aVhaze
p107
aVacid-armor
p108
asg43
g44
sg45
Vwater-absorb
p109
sbasg47
I00
sg48
g49
sbag1
(g2
g3
Ntp110
Rp111
(dp112
g7
VSpr GS Kimono Girl.png
p113
sg9
VKimono Girl
p114
sg11
VMiki
p115
sg13
V1224
p116
sg15
g16
sg17
g18
sg19
g20
sg21
g22
sg23
(lp117
g1
(g25
g3
Ntp118
Rp119
(dp120
g29
V135
p121
sg31
VJolteon
p122
sg33
g34
sg35
V17
p123
sg37
(lp124
Vthunder-wave
p125
aVthunder
p126
aVagility
p127
aVquick-attack
p128
asg43
g44
sg45
Vvolt-absorb
p129
sbasg47
I00
sg48
g49
sbag1
(g2
g3
Ntp130
Rp131
(dp132
g7
VSpr GS Sage.png
p133
sg9
VSage
p134
sg11
VGaku{{sup/2|C}}
p135
sg13
V1024
p136
sg15
V2
p137
sg17
g18
sg19
g20
sg21
g22
sg23
(lp138
g1
(g25
g3
Ntp139
Rp140
(dp141
g29
V164
p142
sg31
VNoctowl
p143
sg33
g34
sg35
V32
p144
sg37
(lp145
Vreflect
p146
aVdream-eater
p147
aVforesight
p148
ag148
asg43
g44
sg45
Vinsomnia
p149
sbag1
(g25
g3
Ntp150
Rp151
(dp152
g29
V136
p153
sg31
VFlareon
p154
sg33
g34
sg35
V32
p155
sg37
(lp156
Vflamethrower
p157
aVfire-spin
p158
aVquick-attack
p159
aVsmog
p160
asg43
g44
sg45
Vflash-fire
p161
sbasg47
I00
sg48
g49
sbag1
(g2
g3
Ntp162
Rp163
(dp164
g7
VSpr GS Sage.png
p165
sg9
VSage
p166
sg11
VMasa{{sup/2|C}}
p167
sg13
V1024
p168
sg15
g137
sg17
g18
sg19
g20
sg21
g22
sg23
(lp169
g1
(g25
g3
Ntp170
Rp171
(dp172
g29
V164
p173
sg31
VNoctowl
p174
sg33
g34
sg35
V32
p175
sg37
(lp176
Vreflect
p177
aVdream-eater
p178
aVforesight
p179
ag179
asg43
g44
sg45
Vinsomnia
p180
sbag1
(g25
g3
Ntp181
Rp182
(dp183
g29
V135
p184
sg31
VJolteon
p185
sg33
g34
sg35
V32
p186
sg37
(lp187
Vthunder-wave
p188
aVthunder
p189
aVagility
p190
aVquick-attack
p191
asg43
g44
sg45
Vvolt-absorb
p192
sbasg47
I00
sg48
g49
sbag1
(g2
g3
Ntp193
Rp194
(dp195
g7
VSpr GS Sage.png
p196
sg9
VSage
p197
sg11
VKoji{{sup/2|C}}
p198
sg13
V1024
p199
sg15
g137
sg17
g18
sg19
g20
sg21
g22
sg23
(lp200
g1
(g25
g3
Ntp201
Rp202
(dp203
g29
V164
p204
sg31
VNoctowl
p205
sg33
g34
sg35
V32
p206
sg37
(lp207
Vreflect
p208
aVdream-eater
p209
aVforesight
p210
ag210
asg43
g44
sg45
Vinsomnia
p211
sbag1
(g25
g3
Ntp212
Rp213
(dp214
g29
V134
p215
sg31
VVaporeon
p216
sg33
g34
sg35
V32
p217
sg37
(lp218
Vaurora-beam
p219
aVquick-attack
p220
aVhaze
p221
aVacid-armor
p222
asg43
g44
sg45
Vwater-absorb
p223
sbasg47
I00
sg48
g49
sbag1
(g2
g3
Ntp224
Rp225
(dp226
g7
VSpr HGSS Rocket Grunt M.png
p227
sg9
VTeam Rocket Grunt
p228
sg11
g44
sg13
V480
p229
sg15
g16
sg17
g18
sg19
g20
sg21
VHGSS
p230
sg23
(lp231
g1
(g25
g3
Ntp232
Rp233
(dp234
g29
V109
p235
sg31
VKoffing
p236
sg33
g34
sg35
V12
p237
sg37
(lp238
Vdestiny-bond
p239
aVmemento
p240
aVgyro-ball
p241
aVassurance
p242
asg43
g44
sg45
Vlevitate
p243
sbasg47
I00
sg48
Vheartgold-soulsilver
p244
sbag1
(g2
g3
Ntp245
Rp246
(dp247
g7
VSpr HGSS Kimono Girl.png
p248
sg9
VKimono Girl
p249
sg11
VZuki
p250
sg13
V4560
p251
sg15
g16
sg17
g18
sg19
g20
sg21
g230
sg23
(lp252
g1
(g25
g3
Ntp253
Rp254
(dp255
g29
V197
p256
sg31
VUmbreon
p257
sg33
g34
sg35
V38
p258
sg37
(lp259
Vhelping-hand
p260
aVassurance
p261
aVguard-swap
p262
aVlast-resort
p263
asg43
g44
sg45
Vsynchronize
p264
sbasg47
I00
sg48
g244
sbag1
(g2
g3
Ntp265
Rp266
(dp267
g7
VSpr HGSS Kimono Girl.png
p268
sg9
VKimono Girl
p269
sg11
VNaoko
p270
sg13
V4560
p271
sg15
g16
sg17
g18
sg19
g20
sg21
g230
sg23
(lp272
g1
(g25
g3
Ntp273
Rp274
(dp275
g29
V196
p276
sg31
VEspeon
p277
sg33
g34
sg35
V38
p278
sg37
(lp279
Vfuture-sight
p280
aVhelping-hand
p281
aVpower-swap
p282
aVlast-resort
p283
asg43
g44
sg45
Vsynchronize
p284
sbasg47
I00
sg48
g244
sbag1
(g2
g3
Ntp285
Rp286
(dp287
g7
VSpr HGSS Kimono Girl.png
p288
sg9
VKimono Girl
p289
sg11
VMiki
p290
sg13
V4560
p291
sg15
g16
sg17
g18
sg19
g20
sg21
g230
sg23
(lp292
g1
(g25
g3
Ntp293
Rp294
(dp295
g29
V136
p296
sg31
VFlareon
p297
sg33
g34
sg35
V38
p298
sg37
(lp299
Vhelping-hand
p300
aVlast-resort
p301
aVfire-fang
p302
aVlava-plume
p303
asg43
g44
sg45
Vflash-fire
p304
sbasg47
I00
sg48
g244
sbag1
(g2
g3
Ntp305
Rp306
(dp307
g7
VSpr HGSS Kimono Girl.png
p308
sg9
VKimono Girl
p309
sg11
V[[Sakura|Sayo]]
p310
sg13
V4560
p311
sg15
g16
sg17
g18
sg19
g20
sg21
g230
sg23
(lp312
g1
(g25
g3
Ntp313
Rp314
(dp315
g29
V135
p316
sg31
VJolteon
p317
sg33
g34
sg35
V38
p318
sg37
(lp319
Vhelping-hand
p320
aVlast-resort
p321
aVthunder-fang
p322
aVdischarge
p323
asg43
g44
sg45
Vvolt-absorb
p324
sbasg47
I00
sg48
g244
sbag1
(g2
g3
Ntp325
Rp326
(dp327
g7
VSpr HGSS Kimono Girl.png
p328
sg9
VKimono Girl
p329
sg11
VKuni
p330
sg13
V4560
p331
sg15
g16
sg17
g18
sg19
g20
sg21
g230
sg23
(lp332
g1
(g25
g3
Ntp333
Rp334
(dp335
g29
V134
p336
sg31
VVaporeon
p337
sg33
g34
sg35
V38
p338
sg37
(lp339
Vhelping-hand
p340
aVmuddy-water
p341
aVlast-resort
p342
aVaqua-ring
p343
asg43
g44
sg45
Vwater-absorb
p344
sbasg47
I00
sg48
g244
sba.