(lp0
ccopy_reg
_reconstructor
p1
(c__main__
Trainer
p2
c__builtin__
object
p3
Ntp4
Rp5
(dp6
VtSprite
p7
VSpr GS Sage.png
p8
sVtClass
p9
VSage
p10
sVtName
p11
VPing
p12
sVtMoney
p13
V512
p14
sVtPokeCount
p15
V5
p16
sVtLocation
p17
Vwiki/Ecruteak_Gym
p18
sVtRegion
p19
VJohto
p20
sVtGame
p21
VGS
p22
sVtPokes
p23
(lp24
g1
(c__main__
FinishedPokemon
p25
g3
Ntp26
Rp27
(dp28
VpDexNo
p29
V092
p30
sVpSpecies
p31
VGastly
p32
sVpGender
p33
VM
p34
sVpLevel
p35
V16
p36
sVpMoves
p37
(lp38
Vcurse
p39
aVspite
p40
aVdestiny-bond
p41
aVmean-look
p42
asVpHold
p43
V
p44
sVpAbility
p45
Vlevitate
p46
sbag1
(g25
g3
Ntp47
Rp48
(dp49
g29
V092
p50
sg31
VGastly
p51
sg33
g34
sg35
V16
p52
sg37
(lp53
Vcurse
p54
aVspite
p55
aVdestiny-bond
p56
aVmean-look
p57
asg43
g44
sg45
Vlevitate
p58
sbag1
(g25
g3
Ntp59
Rp60
(dp61
g29
V092
p62
sg31
VGastly
p63
sg33
g34
sg35
V16
p64
sg37
(lp65
Vcurse
p66
aVspite
p67
aVdestiny-bond
p68
aVmean-look
p69
asg43
g44
sg45
Vlevitate
p70
sbag1
(g25
g3
Ntp71
Rp72
(dp73
g29
V092
p74
sg31
VGastly
p75
sg33
g34
sg35
V16
p76
sg37
(lp77
Vcurse
p78
aVspite
p79
aVdestiny-bond
p80
aVmean-look
p81
asg43
g44
sg45
Vlevitate
p82
sbag1
(g25
g3
Ntp83
Rp84
(dp85
g29
V092
p86
sg31
VGastly
p87
sg33
g34
sg35
V16
p88
sg37
(lp89
Vcurse
p90
aVspite
p91
aVdestiny-bond
p92
aVmean-look
p93
asg43
g44
sg45
Vlevitate
p94
sbasVbossFlag
p95
I00
sVtLongGame
p96
Vgold-silver
p97
sbag1
(g2
g3
Ntp98
Rp99
(dp100
g7
VSpr GS Medium.png
p101
sg9
VMedium
p102
sg11
VGrace
p103
sg13
V800
p104
sg15
V2
p105
sg17
g18
sg19
g20
sg21
g22
sg23
(lp106
g1
(g25
g3
Ntp107
Rp108
(dp109
g29
V093
p110
sg31
VHaunter
p111
sg33
VF
p112
sg35
V20
p113
sg37
(lp114
Vspite
p115
ag115
aVdestiny-bond
p116
aVmean-look
p117
asg43
g44
sg45
Vlevitate
p118
sbag1
(g25
g3
Ntp119
Rp120
(dp121
g29
V093
p122
sg31
VHaunter
p123
sg33
g112
sg35
V20
p124
sg37
(lp125
Vspite
p126
ag126
aVdestiny-bond
p127
aVmean-look
p128
asg43
g44
sg45
Vlevitate
p129
sbasg95
I00
sg96
g97
sbag1
(g2
g3
Ntp130
Rp131
(dp132
g7
VSpr GS Sage.png
p133
sg9
VSage
p134
sg11
VJeffrey
p135
sg13
V704
p136
sg15
V1
p137
sg17
g18
sg19
g20
sg21
g22
sg23
(lp138
g1
(g25
g3
Ntp139
Rp140
(dp141
g29
V093
p142
sg31
VHaunter
p143
sg33
g34
sg35
V22
p144
sg37
(lp145
Vspite
p146
ag146
aVdestiny-bond
p147
aVmean-look
p148
asg43
g44
sg45
Vlevitate
p149
sbasg95
I00
sg96
g97
sbag1
(g2
g3
Ntp150
Rp151
(dp152
g7
VSpr GS Medium.png\u200e
p153
sg9
VMedium
p154
sg11
VMartha
p155
sg13
V800
p156
sg15
V3
p157
sg17
g18
sg19
g20
sg21
g22
sg23
(lp158
g1
(g25
g3
Ntp159
Rp160
(dp161
g29
V092
p162
sg31
VGastly
p163
sg33
g112
sg35
V18
p164
sg37
(lp165
Vcurse
p166
aVspite
p167
aVdestiny-bond
p168
aVmean-look
p169
asg43
g44
sg45
Vlevitate
p170
sbag1
(g25
g3
Ntp171
Rp172
(dp173
g29
V093
p174
sg31
VHaunter
p175
sg33
g112
sg35
V20
p176
sg37
(lp177
Vspite
p178
ag178
aVdestiny-bond
p179
aVmean-look
p180
asg43
g44
sg45
Vlevitate
p181
sbag1
(g25
g3
Ntp182
Rp183
(dp184
g29
V092
p185
sg31
VGastly
p186
sg33
g112
sg35
V20
p187
sg37
(lp188
Vcurse
p189
aVspite
p190
aVdestiny-bond
p191
aVmean-look
p192
asg43
g44
sg45
Vlevitate
p193
sbasg95
I00
sg96
g97
sbag1
(g2
g3
Ntp194
Rp195
(dp196
g7
VSpr HGSS Medium.png
p197
sg9
VMedium
p198
sg11
VGeorgina
p199
sg13
V768
p200
sg15
g16
sg17
g18
sg19
g20
sg21
VHGSS
p201
sg23
(lp202
g1
(g25
g3
Ntp203
Rp204
(dp205
g29
V092
p206
sg31
VGastly
p207
sg33
g112
sg35
V16
p208
sg37
(lp209
Vshadow-ball
p210
aVpayback
p211
aVsucker-punch
p212
aVdark-pulse
p213
asg43
g44
sg45
Vlevitate
p214
sbag1
(g25
g3
Ntp215
Rp216
(dp217
g29
V092
p218
sg31
VGastly
p219
sg33
g112
sg35
V16
p220
sg37
(lp221
Vshadow-ball
p222
aVpayback
p223
aVsucker-punch
p224
aVdark-pulse
p225
asg43
g44
sg45
Vlevitate
p226
sbag1
(g25
g3
Ntp227
Rp228
(dp229
g29
V092
p230
sg31
VGastly
p231
sg33
g112
sg35
V16
p232
sg37
(lp233
Vshadow-ball
p234
aVpayback
p235
aVsucker-punch
p236
aVdark-pulse
p237
asg43
g44
sg45
Vlevitate
p238
sbag1
(g25
g3
Ntp239
Rp240
(dp241
g29
V092
p242
sg31
VGastly
p243
sg33
g112
sg35
V16
p244
sg37
(lp245
Vshadow-ball
p246
aVpayback
p247
aVsucker-punch
p248
aVdark-pulse
p249
asg43
g44
sg45
Vlevitate
p250
sbag1
(g25
g3
Ntp251
Rp252
(dp253
g29
V092
p254
sg31
VGastly
p255
sg33
g112
sg35
V16
p256
sg37
(lp257
Vshadow-ball
p258
aVpayback
p259
aVsucker-punch
p260
aVdark-pulse
p261
asg43
g44
sg45
Vlevitate
p262
sbasg95
I00
sg96
Vheartgold-soulsilver
p263
sbag1
(g2
g3
Ntp264
Rp265
(dp266
g7
VSpr HGSS Medium.png
p267
sg9
VMedium
p268
sg11
VGrace
p269
sg13
V960
p270
sg15
g105
sg17
g18
sg19
g20
sg21
g201
sg23
(lp271
g1
(g25
g3
Ntp272
Rp273
(dp274
g29
V093
p275
sg31
VHaunter
p276
sg33
g112
sg35
V20
p277
sg37
(lp278
Vshadow-punch
p279
aVpayback
p280
aVsucker-punch
p281
aVdark-pulse
p282
asg43
g44
sg45
Vlevitate
p283
sbag1
(g25
g3
Ntp284
Rp285
(dp286
g29
V093
p287
sg31
VHaunter
p288
sg33
g112
sg35
V20
p289
sg37
(lp290
Vshadow-punch
p291
aVpayback
p292
aVsucker-punch
p293
aVdark-pulse
p294
asg43
g44
sg45
Vlevitate
p295
sbasg95
I00
sg96
g263
sbag1
(g2
g3
Ntp296
Rp297
(dp298
g7
VSpr HGSS Medium.png
p299
sg9
VMedium
p300
sg11
VEdith
p301
sg13
V1056
p302
sg15
g137
sg17
g18
sg19
g20
sg21
g201
sg23
(lp303
g1
(g25
g3
Ntp304
Rp305
(dp306
g29
V093
p307
sg31
VHaunter
p308
sg33
g112
sg35
V22
p309
sg37
(lp310
Vshadow-punch
p311
aVpayback
p312
aVsucker-punch
p313
aVdark-pulse
p314
asg43
g44
sg45
Vlevitate
p315
sbasg95
I00
sg96
g263
sbag1
(g2
g3
Ntp316
Rp317
(dp318
g7
VSpr HGSS Medium.png\u200e
p319
sg9
VMedium
p320
sg11
VMartha
p321
sg13
V960
p322
sg15
g157
sg17
g18
sg19
g20
sg21
g201
sg23
(lp323
g1
(g25
g3
Ntp324
Rp325
(dp326
g29
V092
p327
sg31
VGastly
p328
sg33
g112
sg35
V18
p329
sg37
(lp330
Vshadow-ball
p331
aVpayback
p332
aVsucker-punch
p333
aVdark-pulse
p334
asg43
g44
sg45
Vlevitate
p335
sbag1
(g25
g3
Ntp336
Rp337
(dp338
g29
V093
p339
sg31
VHaunter
p340
sg33
g112
sg35
V20
p341
sg37
(lp342
Vshadow-punch
p343
aVpayback
p344
aVsucker-punch
p345
aVdark-pulse
p346
asg43
g44
sg45
Vlevitate
p347
sbag1
(g25
g3
Ntp348
Rp349
(dp350
g29
V092
p351
sg31
VGastly
p352
sg33
g112
sg35
V20
p353
sg37
(lp354
Vshadow-ball
p355
aVpayback
p356
aVsucker-punch
p357
aVdark-pulse
p358
asg43
g44
sg45
Vlevitate
p359
sbasg95
I00
sg96
g263
sbag1
(g2
g3
Ntp360
Rp361
(dp362
g7
VSpr GS Morty.png
p363
sg9
VLeader
p364
sg11
VMorty
p365
sg13
V2300
p366
sg15
I4
sg17
g18
sg19
g20
sg21
g22
sg23
(lp367
g1
(g25
g3
Ntp368
Rp369
(dp370
g29
I92
sg31
VGastly
p371
sg33
g34
sg35
V21
p372
sg37
(lp373
VLick
p374
aVSpite
p375
aVMean Look
p376
aVCurse
p377
asg43
g44
sg45
Vlevitate
p378
sbag1
(g25
g3
Ntp379
Rp380
(dp381
g29
I93
sg31
VHaunter
p382
sg33
g34
sg35
V21
p383
sg37
(lp384
VHypnosis
p385
aVCurse
p386
aVMimic
p387
aVNight Shade
p388
asg43
g44
sg45
Vlevitate
p389
sbag1
(g25
g3
Ntp390
Rp391
(dp392
g29
I94
sg31
VGengar
p393
sg33
g34
sg35
V25
p394
sg37
(lp395
VShadow Ball
p396
aVMean Look
p397
aVHypnosis
p398
aVDream Eater
p399
asg43
g44
sg45
Vcursed-body
p400
sbag1
(g25
g3
Ntp401
Rp402
(dp403
g29
I93
sg31
VHaunter
p404
sg33
g34
sg35
V23
p405
sg37
(lp406
VSpite
p407
aVMean Look
p408
aVMimic
p409
aVNight Shade
p410
asg43
g44
sg45
Vlevitate
p411
sbasg95
I01
sg96
g97
sbag1
(g2
g3
Ntp412
Rp413
(dp414
g7
VSpr HGSS Morty.png
p415
sg9
VLeader
p416
sg11
VMorty
p417
sg13
V2760
p418
sg15
I4
sg17
g18
sg19
g20
sg21
g201
sg23
(lp419
g1
(g25
g3
Ntp420
Rp421
(dp422
g29
I92
sg31
VGastly
p423
sg33
g34
sg35
V21
p424
sg37
(lp425
VLick
p426
aVSpite
p427
aVMean Look
p428
aVCurse
p429
asg43
g44
sg45
VLevitate
p430
sbag1
(g25
g3
Ntp431
Rp432
(dp433
g29
I93
sg31
VHaunter
p434
sg33
g34
sg35
V21
p435
sg37
(lp436
VHypnosis
p437
aVDream Eater
p438
aVCurse
p439
aVNightmare
p440
asg43
g44
sg45
VLevitate
p441
sbag1
(g25
g3
Ntp442
Rp443
(dp444
g29
I94
sg31
VGengar
p445
sg33
g34
sg35
V25
p446
sg37
(lp447
VHypnosis
p448
aVShadow Ball
p449
aVMean Look
p450
aVSucker Punch
p451
asg43
VSitrus Berry
p452
sg45
VLevitate
p453
sbag1
(g25
g3
Ntp454
Rp455
(dp456
g29
I93
sg31
VHaunter
p457
sg33
g34
sg35
V23
p458
sg37
(lp459
VCurse
p460
aVMean Look
p461
aVSucker Punch
p462
aVNight Shade
p463
asg43
g44
sg45
VLevitate
p464
sbasg95
I01
sg96
g263
sba.