(lp0
ccopy_reg
_reconstructor
p1
(c__main__
Trainer
p2
c__builtin__
object
p3
Ntp4
Rp5
(dp6
VtSprite
p7
VSpr DP Lass.png
p8
sVtClass
p9
VLass
p10
sVtName
p11
VCaroline
p12
sVtMoney
p13
V240
p14
sVtPokeCount
p15
V2
p16
sVtLocation
p17
Vwiki/Eterna_Gym
p18
sVtRegion
p19
VSinnoh
p20
sVtGame
p21
VDP
p22
sVtPokes
p23
(lp24
g1
(c__main__
FinishedPokemon
p25
g3
Ntp26
Rp27
(dp28
VpDexNo
p29
V420
p30
sVpSpecies
p31
VCherubi
p32
sVpGender
p33
VF
p34
sVpLevel
p35
V15
p36
sVpMoves
p37
(lp38
Vhelping-hand
p39
aVmagical-leaf
p40
aVlucky-chant
p41
aVworry-seed
p42
asVpHold
p43
V
p44
sVpAbility
p45
Vchlorophyll
p46
sbag1
(g25
g3
Ntp47
Rp48
(dp49
g29
V315
p50
sg31
VRoselia
p51
sg33
g34
sg35
V15
p52
sg37
(lp53
Varomatherapy
p54
aVgrass-whistle
p55
aVmagical-leaf
p56
aVtoxic-spikes
p57
asg43
g44
sg45
Vpoison-point
p58
sbasVbossFlag
p59
I00
sVtLongGame
p60
Vdiamond-pearl
p61
sbag1
(g2
g3
Ntp62
Rp63
(dp64
g7
VSpr DP Aroma Lady.png
p65
sg9
VAroma Lady
p66
sg11
VJenna
p67
sg13
V480
p68
sg15
V3
p69
sg17
g18
sg19
g20
sg21
g22
sg23
(lp70
g1
(g25
g3
Ntp71
Rp72
(dp73
g29
V406
p74
sg31
VBudew
p75
sg33
g34
sg35
V14
p76
sg37
(lp77
Vgrowth
p78
aVstun-spore
p79
aVwater-sport
p80
aVworry-seed
p81
asg43
g44
sg45
Vnatural-cure
p82
sbag1
(g25
g3
Ntp83
Rp84
(dp85
g29
V406
p86
sg31
VBudew
p87
sg33
g34
sg35
V13
p88
sg37
(lp89
Vgrowth
p90
aVstun-spore
p91
aVwater-sport
p92
aVworry-seed
p93
asg43
g44
sg45
Vnatural-cure
p94
sbag1
(g25
g3
Ntp95
Rp96
(dp97
g29
V406
p98
sg31
VBudew
p99
sg33
g34
sg35
V15
p100
sg37
(lp101
Vgrowth
p102
aVstun-spore
p103
aVwater-sport
p104
aVworry-seed
p105
asg43
g44
sg45
Vpoison-point
p106
sbasg59
I00
sg60
g61
sbag1
(g2
g3
Ntp107
Rp108
(dp109
g7
VSpr DP Aroma Lady.png
p110
sg9
VAroma Lady
p111
sg11
VAngela
p112
sg13
V544
p113
sg15
V1
p114
sg17
g18
sg19
g20
sg21
g22
sg23
(lp115
g1
(g25
g3
Ntp116
Rp117
(dp118
g29
V387
p119
sg31
VTurtwig
p120
sg33
VM
p121
sg35
V17
p122
sg37
(lp123
Vgiga-drain
p124
aVsynthesis
p125
aVcrunch
p126
aVleaf-storm
p127
asg43
g44
sg45
Vovergrow
p128
sbasg59
I00
sg60
g61
sbag1
(g2
g3
Ntp129
Rp130
(dp131
g7
VSpr DP Beauty.png
p132
sg9
VBeauty
p133
sg11
VLindsay
p134
sg13
V952
p135
sg15
g114
sg17
g18
sg19
g20
sg21
g22
sg23
(lp136
g1
(g25
g3
Ntp137
Rp138
(dp139
g29
V315
p140
sg31
VRoselia
p141
sg33
g34
sg35
V17
p142
sg37
(lp143
Varomatherapy
p144
aVgrass-whistle
p145
aVmagical-leaf
p146
aVtoxic-spikes
p147
asg43
g44
sg45
Vpoison-point
p148
sbasg59
I00
sg60
g61
sbag1
(g2
g3
Ntp149
Rp150
(dp151
g7
VSpr DP Lass.png
p152
sg9
VLass
p153
sg11
VCaroline
p154
sg13
V272
p155
sg15
g16
sg17
g18
sg19
g20
sg21
g22
sg23
(lp156
g1
(g25
g3
Ntp157
Rp158
(dp159
g29
V420
p160
sg31
VCherubi
p161
sg33
g34
sg35
V17
p162
sg37
(lp163
Vhelping-hand
p164
aVmagical-leaf
p165
aVlucky-chant
p166
aVworry-seed
p167
asg43
g44
sg45
Vchlorophyll
p168
sbag1
(g25
g3
Ntp169
Rp170
(dp171
g29
V315
p172
sg31
VRoselia
p173
sg33
g34
sg35
V17
p174
sg37
(lp175
Varomatherapy
p176
aVgrass-whistle
p177
aVmagical-leaf
p178
aVtoxic-spikes
p179
asg43
g44
sg45
Vpoison-point
p180
sbasg59
I00
sg60
g61
sbag1
(g2
g3
Ntp181
Rp182
(dp183
g7
VSpr DP Aroma Lady.png
p184
sg9
VAroma Lady
p185
sg11
VJenna
p186
sg13
V544
p187
sg15
g69
sg17
g18
sg19
g20
sg21
g22
sg23
(lp188
g1
(g25
g3
Ntp189
Rp190
(dp191
g29
V406
p192
sg31
VBudew
p193
sg33
g34
sg35
V15
p194
sg37
(lp195
Vgrowth
p196
aVstun-spore
p197
aVwater-sport
p198
aVworry-seed
p199
asg43
g44
sg45
Vnatural-cure
p200
sbag1
(g25
g3
Ntp201
Rp202
(dp203
g29
V406
p204
sg31
VBudew
p205
sg33
g34
sg35
V16
p206
sg37
(lp207
Vgrowth
p208
aVstun-spore
p209
aVwater-sport
p210
aVworry-seed
p211
asg43
g44
sg45
Vnatural-cure
p212
sbag1
(g25
g3
Ntp213
Rp214
(dp215
g29
V406
p216
sg31
VBudew
p217
sg33
g34
sg35
V17
p218
sg37
(lp219
Vgrowth
p220
aVstun-spore
p221
aVwater-sport
p222
aVworry-seed
p223
asg43
g44
sg45
Vpoison-point
p224
sbasg59
I00
sg60
g61
sbag1
(g2
g3
Ntp225
Rp226
(dp227
g7
VSpr DP Aroma Lady.png
p228
sg9
VAroma Lady
p229
sg11
VAngela
p230
sg13
V608
p231
sg15
g114
sg17
g18
sg19
g20
sg21
g22
sg23
(lp232
g1
(g25
g3
Ntp233
Rp234
(dp235
g29
V315
p236
sg31
VRoselia
p237
sg33
g34
sg35
V19
p238
sg37
(lp239
Varomatherapy
p240
aVgrass-whistle
p241
aVmagical-leaf
p242
aVtoxic-spikes
p243
asg43
g44
sg45
Vnatural-cure
p244
sbasg59
I00
sg60
g61
sbag1
(g2
g3
Ntp245
Rp246
(dp247
g7
VSpr DP Gardenia.png
p248
sg9
VLeader
p249
sg11
VGardenia
p250
sg13
V2640
p251
sg15
I3
sg17
g18
sg19
g20
sg21
g22
sg23
(lp252
g1
(g25
g3
Ntp253
Rp254
(dp255
g29
I420
sg31
VCherubi
p256
sg33
g34
sg35
V19
p257
sg37
(lp258
VGrass Knot
p259
aVLeech Seed
p260
aVSafeguard
p261
aVGrowth
p262
asg43
g44
sg45
VChlorophyll
p263
sbag1
(g25
g3
Ntp264
Rp265
(dp266
g29
I387
sg31
VTurtwig
p267
sg33
g121
sg35
V19
p268
sg37
(lp269
VRazor Leaf
p270
aVGrass Knot
p271
aVWithdraw
p272
aVReflect
p273
asg43
g44
sg45
VOvergrow
p274
sbag1
(g25
g3
Ntp275
Rp276
(dp277
g29
I407
sg31
VRoserade
p278
sg33
g34
sg35
V22
p279
sg37
(lp280
VMagical Leaf
p281
aVGrass Knot
p282
aVStun Spore
p283
aVPoison Sting
p284
asg43
VSitrus Berry
p285
sg45
VNatural Cure
p286
sbasg59
I01
sg60
g61
sbag1
(g2
g3
Ntp287
Rp288
(dp289
g7
VSpr Pt Gardenia.png
p290
sg9
VLeader
p291
sg11
VGardenia
p292
sg13
V2640
p293
sg15
I3
sg17
g18
sg19
g20
sg21
VPt
p294
sg23
(lp295
g1
(g25
g3
Ntp296
Rp297
(dp298
g29
I387
sg31
VTurtwig
p299
sg33
g121
sg35
V20
p300
sg37
(lp301
VRazor Leaf
p302
aVGrass Knot
p303
aVSunny Day
p304
aVReflect
p305
asg43
g44
sg45
VOvergrow
p306
sbag1
(g25
g3
Ntp307
Rp308
(dp309
g29
I421
sg31
VCherrim
p310
sg33
g34
sg35
V20
p311
sg37
(lp312
VGrass Knot
p313
aVLeech Seed
p314
aVSafeguard
p315
aVMagical Leaf
p316
asg43
g44
sg45
VFlower Gift
p317
sbag1
(g25
g3
Ntp318
Rp319
(dp320
g29
I407
sg31
VRoserade
p321
sg33
g34
sg35
V22
p322
sg37
(lp323
VMagical Leaf
p324
aVGrass Knot
p325
aVStun Spore
p326
aVPoison Sting
p327
asg43
VSitrus Berry
p328
sg45
VNatural Cure
p329
sbasg59
I01
sg60
Vplatinum
p330
sba.