(lp0
ccopy_reg
_reconstructor
p1
(c__main__
Trainer
p2
c__builtin__
object
p3
Ntp4
Rp5
(dp6
VtSprite
p7
VSpr DP Interviewers.png
p8
sVtClass
p9
VInterviewers
p10
sVtName
p11
V[[Roxy and Oli|Roxy & Oli]]
p12
sVtMoney
p13
g1
(cmwparserfromhell.wikicode
Wikicode
p14
g3
Ntp15
Rp16
(dp17
V_nodes
p18
g1
(cmwparserfromhell.smart_list.smart_list
SmartList
p19
c__builtin__
list
p20
(lp21
g1
(cmwparserfromhell.nodes.text
Text
p22
g3
Ntp23
Rp24
(dp25
V_value
p26
V864
p27
sbatp28
Rp29
(dp30
V_children
p31
(dp32
sbsbsVtPokeCount
p33
V2
p34
sVtLocation
p35
Vwiki/Eterna_City
p36
sVtRegion
p37
VSinnoh
p38
sVtGame
p39
VDP
p40
sVtPokes
p41
(lp42
g1
(c__main__
FinishedPokemon
p43
g3
Ntp44
Rp45
(dp46
VpDexNo
p47
V081
p48
sVpSpecies
p49
VMagnemite
p50
sVpGender
p51
VU
p52
sVpLevel
p53
V6
p54
sVpMoves
p55
(lp56
Vmagnet-rise
p57
aVmirror-shot
p58
aVdischarge
p59
aVmagnet-bomb
p60
asVpHold
p61
V
p62
sVpAbility
p63
Vmagnet-pull
p64
sbag1
(g43
g3
Ntp65
Rp66
(dp67
g47
V280
p68
sg49
VRalts
p69
sg51
VM
p70
sg53
g54
sg55
(lp71
Vimprison
p72
aVmagical-leaf
p73
aVcalm-mind
p74
aVlucky-chant
p75
asg61
g62
sg63
Vsynchronize
p76
sbasVbossFlag
p77
I00
sVtLongGame
p78
Vdiamond-pearl
p79
sbag1
(g2
g3
Ntp80
Rp81
(dp82
g7
VSpr DP Interviewers.png
p83
sg9
VInterviewers
p84
sg11
V[[Roxy and Oli|Roxy & Oli]]{{tt|*|Second rematch}}
p85
sg13
V5040
p86
sg33
g34
sg35
g36
sg37
g38
sg39
g40
sg41
(lp87
g1
(g43
g3
Ntp88
Rp89
(dp90
g47
V081
p91
sg49
VMagnemite
p92
sg51
g52
sg53
V35
p93
sg55
(lp94
Vmagnet-rise
p95
aVmirror-shot
p96
aVdischarge
p97
aVmagnet-bomb
p98
asg61
g62
sg63
Vsturdy
p99
sbag1
(g43
g3
Ntp100
Rp101
(dp102
g47
V281
p103
sg49
VKirlia
p104
sg51
g70
sg53
V35
p105
sg55
(lp106
Vimprison
p107
aVmagical-leaf
p108
aVcalm-mind
p109
aVlucky-chant
p110
asg61
g62
sg63
Vsynchronize
p111
sbasg77
I00
sg78
g79
sbag1
(g2
g3
Ntp112
Rp113
(dp114
g7
VSpr DP Interviewers.png
p115
sg9
VInterviewers
p116
sg11
V[[Roxy and Oli|Roxy & Oli]]{{tt|*|Third rematch}}
p117
sg13
V6768
p118
sg33
g34
sg35
g36
sg37
g38
sg39
g40
sg41
(lp119
g1
(g43
g3
Ntp120
Rp121
(dp122
g47
V082
p123
sg49
VMagneton
p124
sg51
g52
sg53
V47
p125
sg55
(lp126
Vmagnet-rise
p127
aVmirror-shot
p128
aVdischarge
p129
aVmagnet-bomb
p130
asg61
g62
sg63
Vmagnet-pull
p131
sbag1
(g43
g3
Ntp132
Rp133
(dp134
g47
V282
p135
sg49
VGardevoir
p136
sg51
g70
sg53
V47
p137
sg55
(lp138
Vmagical-leaf
p139
aVcalm-mind
p140
aVhealing-wish
p141
aVcaptivate
p142
asg61
g62
sg63
Vtrace
p143
sbasg77
I00
sg78
g79
sbag1
(g2
g3
Ntp144
Rp145
(dp146
g7
VSpr DP Interviewers.png
p147
sg9
VInterviewers
p148
sg11
V[[Roxy and Oli|Roxy & Oli]]
p149
sg13
g1
(g14
g3
Ntp150
Rp151
(dp152
g18
g1
(g19
g20
(lp153
g1
(g22
g3
Ntp154
Rp155
(dp156
g26
V7632
p157
sbatp158
Rp159
(dp160
g31
(dp161
sbsbsg33
g34
sg35
g36
sg37
g38
sg39
g40
sg41
(lp162
g1
(g43
g3
Ntp163
Rp164
(dp165
g47
V462
p166
sg49
VMagnezone
p167
sg51
g52
sg53
V53
p168
sg55
(lp169
Vmagnet-rise
p170
aVmirror-shot
p171
aVdischarge
p172
aVmagnet-bomb
p173
asg61
g62
sg63
Vsturdy
p174
sbag1
(g43
g3
Ntp175
Rp176
(dp177
g47
V282
p178
sg49
VGardevoir
p179
sg51
g70
sg53
V53
p180
sg55
(lp181
Vmagical-leaf
p182
aVcalm-mind
p183
aVhealing-wish
p184
aVcaptivate
p185
asg61
g62
sg63
Vtrace
p186
sbasg77
I00
sg78
g79
sba.