(lp0
ccopy_reg
_reconstructor
p1
(c__main__
Trainer
p2
c__builtin__
object
p3
Ntp4
Rp5
(dp6
VtSprite
p7
VSpr DP Bug Catcher.png
p8
sVtClass
p9
VBug Catcher
p10
sVtName
p11
VJack
p12
sVtMoney
p13
V208<br><small>Potential [[Double Battle]] with Briana</small>
p14
sVtPokeCount
p15
V3
p16
sVtLocation
p17
Vwiki/Eterna_Forest
p18
sVtRegion
p19
VSinnoh
p20
sVtGame
p21
VDP
p22
sVtPokes
p23
(lp24
g1
(c__main__
FinishedPokemon
p25
g3
Ntp26
Rp27
(dp28
VpDexNo
p29
V265
p30
sVpSpecies
p31
VWurmple
p32
sVpGender
p33
VM
p34
sVpLevel
p35
V9
p36
sVpMoves
p37
(lp38
Vtackle
p39
aVpoison-sting
p40
aVstring-shot
p41
asVpHold
p42
V
p43
sVpAbility
p44
Vshield-dust
p45
sbag1
(g25
g3
Ntp46
Rp47
(dp48
g29
V266
p49
sg31
VSilcoon
p50
sg33
g34
sg35
V11
p51
sg37
(lp52
Vharden
p53
ag53
asg42
g43
sg44
Vshed-skin
p54
sbag1
(g25
g3
Ntp55
Rp56
(dp57
g29
V267
p58
sg31
VBeautifly
p59
sg33
g34
sg35
V13
p60
sg37
(lp61
Vattract
p62
aVmorning-sun
p63
aVsilver-wind
p64
aVbug-buzz
p65
asg42
g43
sg44
Vswarm
p66
sbasVbossFlag
p67
I00
sVtLongGame
p68
Vdiamond-pearl
p69
sbag1
(g2
g3
Ntp70
Rp71
(dp72
g7
VSpr DP Lass.png
p73
sg9
VLass
p74
sg11
VBriana
p75
sg13
V224<br><small>Potential [[Double Battle]] with Jack</small>
p76
sg15
V1
p77
sg17
g18
sg19
g20
sg21
g22
sg23
(lp78
g1
(g25
g3
Ntp79
Rp80
(dp81
g29
V417
p82
sg31
VPachirisu
p83
sg33
VF
p84
sg35
V14
p85
sg37
(lp86
Vcharm
p87
aVspark
p88
aVlast-resort
p89
aVdischarge
p90
asg42
g43
sg44
Vpickup
p91
sbasg67
I00
sg68
g69
sbag1
(g2
g3
Ntp92
Rp93
(dp94
g7
VSpr DP Psychic F.png
p95
sg9
VPsychic
p96
sg11
VLindsey
p97
sg13
V480<br><small>Potential [[Double Battle]] with Elijah</small>
p98
sg15
g77
sg17
g18
sg19
g20
sg21
g22
sg23
(lp99
g1
(g25
g3
Ntp100
Rp101
(dp102
g29
V063
p103
sg31
VAbra
p104
sg33
g34
sg35
V15
p105
sg37
(lp106
Vteleport
p107
asg42
g43
sg44
Vinner-focus
p108
sbasg67
I00
sg68
g69
sbag1
(g2
g3
Ntp109
Rp110
(dp111
g7
VSpr DP Psychic M.png
p112
sg9
VPsychic
p113
sg11
VElijah
p114
sg13
V480<br><small>Potential [[Double Battle]] with Lindsey</small>
p115
sg15
g77
sg17
g18
sg19
g20
sg21
g22
sg23
(lp116
g1
(g25
g3
Ntp117
Rp118
(dp119
g29
V063
p120
sg31
VAbra
p121
sg33
g34
sg35
V15
p122
sg37
(lp123
Vteleport
p124
asg42
g43
sg44
Vsynchronize
p125
sbasg67
I00
sg68
g69
sbag1
(g2
g3
Ntp126
Rp127
(dp128
g7
VSpr DP Bug Catcher.png
p129
sg9
VBug Catcher
p130
sg11
VPhillip
p131
sg13
V208<br><small>Potential [[Double Battle]] with Donald</small>
p132
sg15
g16
sg17
g18
sg19
g20
sg21
g22
sg23
(lp133
g1
(g25
g3
Ntp134
Rp135
(dp136
g29
V265
p137
sg31
VWurmple
p138
sg33
g34
sg35
g36
sg37
(lp139
Vtackle
p140
aVpoison-sting
p141
aVstring-shot
p142
asg42
g43
sg44
Vshield-dust
p143
sbag1
(g25
g3
Ntp144
Rp145
(dp146
g29
V268
p147
sg31
VCascoon
p148
sg33
g34
sg35
V11
p149
sg37
(lp150
Vharden
p151
ag151
asg42
g43
sg44
Vshed-skin
p152
sbag1
(g25
g3
Ntp153
Rp154
(dp155
g29
V269
p156
sg31
VDustox
p157
sg33
g34
sg35
V13
p158
sg37
(lp159
Vprotect
p160
aVmoonlight
p161
aVsilver-wind
p162
aVbug-buzz
p163
asg42
g43
sg44
Vshield-dust
p164
sbasg67
I00
sg68
g69
sbag1
(g2
g3
Ntp165
Rp166
(dp167
g7
VSpr DP Bug Catcher.png
p168
sg9
VBug Catcher
p169
sg11
VDonald
p170
sg13
V192<br><small>Potential [[Double Battle]] with Philip</small>
p171
sg15
V2
p172
sg17
g18
sg19
g20
sg21
g22
sg23
(lp173
g1
(g25
g3
Ntp174
Rp175
(dp176
g29
V412
p177
sg31
VBurmy
p178
sg33
g34
sg35
V12
p179
sg37
(lp180
Vtackle
p181
aVprotect
p182
aVhidden-power
p183
asg42
g43
sg44
Vshed-skin
p184
sbag1
(g25
g3
Ntp185
Rp186
(dp187
g29
V402
p188
sg31
VKricketune
p189
sg33
g34
sg35
V12
p190
sg37
(lp191
Vperish-song
p192
aVfury-cutter
p193
aVx-scissor
p194
aVbug-buzz
p195
asg42
g43
sg44
Vswarm
p196
sbasg67
I00
sg68
g69
sbag1
(g2
g3
Ntp197
Rp198
(dp199
g7
VSpr DP Psychic M.png
p200
sg9
VPsychic
p201
sg11
VKody
p202
sg13
V480<br><small>Potential [[Double Battle]] with Rachel</small>
p203
sg15
g77
sg17
g18
sg19
g20
sg21
g22
sg23
(lp204
g1
(g25
g3
Ntp205
Rp206
(dp207
g29
V307
p208
sg31
VMeditite
p209
sg33
g34
sg35
V15
p210
sg37
(lp211
Vcalm-mind
p212
aVfeint
p213
aVpower-trick
p214
aVforce-palm
p215
asg42
g43
sg44
Vpure-power
p216
sbasg67
I00
sg68
g69
sbag1
(g2
g3
Ntp217
Rp218
(dp219
g7
VSpr DP Psychic F.png
p220
sg9
VPsychic
p221
sg11
VRachael
p222
sg13
V480<br><small>Potential [[Double Battle]] with Kody</small>
p223
sg15
g77
sg17
g18
sg19
g20
sg21
g22
sg23
(lp224
g1
(g25
g3
Ntp225
Rp226
(dp227
g29
V054
p228
sg31
VPsyduck
p229
sg33
g84
sg35
V15
p230
sg37
(lp231
Vpsych-up
p232
aVwater-sport
p233
aVwater-pulse
p234
aVzen-headbutt
p235
asg42
g43
sg44
Vcloud-nine
p236
sbasg67
I00
sg68
g69
sbag1
(g2
g3
Ntp237
Rp238
(dp239
g7
VSpr DP Bug Catcher.png
p240
sg9
VBug Catcher
p241
sg11
VJack
p242
sg13
V240<br><small>[[Double Battle]] with Briana</small>
p243
sg15
g16
sg17
g18
sg19
g20
sg21
g22
sg23
(lp244
g1
(g25
g3
Ntp245
Rp246
(dp247
g29
V265
p248
sg31
VWurmple
p249
sg33
g34
sg35
V11
p250
sg37
(lp251
Vtackle
p252
aVpoison-sting
p253
aVstring-shot
p254
asg42
g43
sg44
Vshield-dust
p255
sbag1
(g25
g3
Ntp256
Rp257
(dp258
g29
V266
p259
sg31
VSilcoon
p260
sg33
g34
sg35
V13
p261
sg37
(lp262
Vharden
p263
ag263
asg42
g43
sg44
Vshed-skin
p264
sbag1
(g25
g3
Ntp265
Rp266
(dp267
g29
V267
p268
sg31
VBeautifly
p269
sg33
g34
sg35
V15
p270
sg37
(lp271
Vattract
p272
aVmorning-sun
p273
aVsilver-wind
p274
aVbug-buzz
p275
asg42
g43
sg44
Vswarm
p276
sbasg67
I00
sg68
g69
sbag1
(g2
g3
Ntp277
Rp278
(dp279
g7
VSpr DP Lass.png
p280
sg9
VLass
p281
sg11
VBriana
p282
sg13
V256<br><small>[[Double Battle]] with Jack</small>
p283
sg15
g77
sg17
g18
sg19
g20
sg21
g22
sg23
(lp284
g1
(g25
g3
Ntp285
Rp286
(dp287
g29
V417
p288
sg31
VPachirisu
p289
sg33
g84
sg35
V16
p290
sg37
(lp291
Vcharm
p292
aVspark
p293
aVlast-resort
p294
aVdischarge
p295
asg42
g43
sg44
Vpickup
p296
sbasg67
I00
sg68
g69
sbag1
(g2
g3
Ntp297
Rp298
(dp299
g7
VSpr DP Psychic F.png
p300
sg9
VPsychic
p301
sg11
VLindsey
p302
sg13
V544<br><small>Potential [[Double Battle]] with Elijah</small>
p303
sg15
g77
sg17
g18
sg19
g20
sg21
g22
sg23
(lp304
g1
(g25
g3
Ntp305
Rp306
(dp307
g29
V063
p308
sg31
VAbra
p309
sg33
g34
sg35
V17
p310
sg37
(lp311
Vteleport
p312
asg42
g43
sg44
Vinner-focus
p313
sbasg67
I00
sg68
g69
sbag1
(g2
g3
Ntp314
Rp315
(dp316
g7
VSpr DP Psychic M.png
p317
sg9
VPsychic
p318
sg11
VElijah
p319
sg13
V544<br><small>Potential [[Double Battle]] with Lindsey</small>
p320
sg15
g77
sg17
g18
sg19
g20
sg21
g22
sg23
(lp321
g1
(g25
g3
Ntp322
Rp323
(dp324
g29
V063
p325
sg31
VAbra
p326
sg33
g34
sg35
V17
p327
sg37
(lp328
Vteleport
p329
asg42
g43
sg44
Vinner-focus
p330
sbasg67
I00
sg68
g69
sbag1
(g2
g3
Ntp331
Rp332
(dp333
g7
VSpr DP Bug Catcher.png
p334
sg9
VBug Catcher
p335
sg11
VPhillip
p336
sg13
V240<br><small>Potential [[Double Battle]] with Donald</small>
p337
sg15
g16
sg17
g18
sg19
g20
sg21
g22
sg23
(lp338
g1
(g25
g3
Ntp339
Rp340
(dp341
g29
V265
p342
sg31
VWurmple
p343
sg33
g34
sg35
V11
p344
sg37
(lp345
Vtackle
p346
aVpoison-sting
p347
aVstring-shot
p348
asg42
g43
sg44
Vshield-dust
p349
sbag1
(g25
g3
Ntp350
Rp351
(dp352
g29
V268
p353
sg31
VCascoon
p354
sg33
g34
sg35
V13
p355
sg37
(lp356
Vharden
p357
ag357
asg42
g43
sg44
Vshed-skin
p358
sbag1
(g25
g3
Ntp359
Rp360
(dp361
g29
V269
p362
sg31
VDustox
p363
sg33
g34
sg35
V15
p364
sg37
(lp365
Vprotect
p366
aVmoonlight
p367
aVsilver-wind
p368
aVbug-buzz
p369
asg42
g43
sg44
Vshield-dust
p370
sbasg67
I00
sg68
g69
sbag1
(g2
g3
Ntp371
Rp372
(dp373
g7
VSpr DP Bug Catcher.png
p374
sg9
VBug Catcher
p375
sg11
VDonald
p376
sg13
V224<br><small>Potential [[Double Battle]] with Philip</small>
p377
sg15
g172
sg17
g18
sg19
g20
sg21
g22
sg23
(lp378
g1
(g25
g3
Ntp379
Rp380
(dp381
g29
V412G
p382
sg31
VBurmy
p383
sg33
g34
sg35
V14
p384
sg37
(lp385
Vtackle
p386
aVprotect
p387
aVhidden-power
p388
asg42
g43
sg44
Vshed-skin
p389
sbag1
(g25
g3
Ntp390
Rp391
(dp392
g29
V412S
p393
sg31
VBurmy
p394
sg33
g34
sg35
V14
p395
sg37
(lp396
Vtackle
p397
aVprotect
p398
aVhidden-power
p399
asg42
g43
sg44
Vshed-skin
p400
sbasg67
I00
sg68
g69
sbag1
(g2
g3
Ntp401
Rp402
(dp403
g7
VSpr DP Psychic M.png
p404
sg9
VPsychic
p405
sg11
VKody
p406
sg13
V544<br><small>Potential [[Double Battle]] with Rachel</small>
p407
sg15
g77
sg17
g18
sg19
g20
sg21
g22
sg23
(lp408
g1
(g25
g3
Ntp409
Rp410
(dp411
g29
V307
p412
sg31
VMeditite
p413
sg33
g34
sg35
V17
p414
sg37
(lp415
Vcalm-mind
p416
aVfeint
p417
aVpower-trick
p418
aVforce-palm
p419
asg42
g43
sg44
Vpure-power
p420
sbasg67
I00
sg68
g69
sbag1
(g2
g3
Ntp421
Rp422
(dp423
g7
VSpr DP Psychic F.png
p424
sg9
VPsychic
p425
sg11
VRachael
p426
sg13
V544<br><small>Potential [[Double Battle]] with Kody</small>
p427
sg15
g77
sg17
g18
sg19
g20
sg21
g22
sg23
(lp428
g1
(g25
g3
Ntp429
Rp430
(dp431
g29
V054
p432
sg31
VPsyduck
p433
sg33
g84
sg35
V17
p434
sg37
(lp435
Vpsych-up
p436
aVwater-sport
p437
aVwater-pulse
p438
aVzen-headbutt
p439
asg42
g43
sg44
Vcloud-nine
p440
sbasg67
I00
sg68
g69
sbag1
(g2
g3
Ntp441
Rp442
(dp443
g7
VDP Cheryl Back.png
p444
sg9
VPokemon Trainer
p445
sg11
VCheryl
p446
sg13
Vn/a
p447
sg15
I1
sg17
g18
sg19
g20
sg21
VSM
p448
sg23
(lp449
g1
(g25
g3
Ntp450
Rp451
(dp452
g29
I113
sg31
VChansey
p453
sg33
g84
sg35
g1
(cmwparserfromhell.wikicode
Wikicode
p454
g3
Ntp455
Rp456
(dp457
V_nodes
p458
g1
(cmwparserfromhell.smart_list.smart_list
SmartList
p459
c__builtin__
list
p460
(lp461
g1
(cmwparserfromhell.nodes.text
Text
p462
g3
Ntp463
Rp464
(dp465
V_value
p466
V15
p467
sbatp468
Rp469
(dp470
V_children
p471
(dp472
sbsbsg37
(lp473
VEgg Bomb
p474
aVRefresh
p475
aVSoftboiled
p476
asg42
g43
sg44
VNatural Cure
p477
sbasg67
I01
sg68
Vsun-moon
p478
sba.