(lp0
ccopy_reg
_reconstructor
p1
(c__main__
Trainer
p2
c__builtin__
object
p3
Ntp4
Rp5
(dp6
VtSprite
p7
VSpr RS Sidney.png
p8
sVtClass
p9
VElite Four
p10
sVtName
p11
VSidney
p12
sVtMoney
p13
V4900
p14
sVtPokeCount
p15
I5
sVtLocation
p16
Vwiki/Ever_Grande_City
p17
sVtRegion
p18
VHoenn
p19
sVtGame
p20
VRS
p21
sVtPokes
p22
(lp23
g1
(c__main__
FinishedPokemon
p24
g3
Ntp25
Rp26
(dp27
VpDexNo
p28
I262
sVpSpecies
p29
VMightyena
p30
sVpGender
p31
VM
p32
sVpLevel
p33
V46
p34
sVpMoves
p35
(lp36
VCrunch
p37
aVTake Down
p38
aVSand-Attack
p39
aVRoar
p40
asVpHold
p41
V
p42
sVpAbility
p43
VIntimidate
p44
sbag1
(g24
g3
Ntp45
Rp46
(dp47
g28
I332
sg29
VCacturne
p48
sg31
g32
sg33
V46
p49
sg35
(lp50
VFaint Attack
p51
aVNeedle Arm
p52
aVCotton Spore
p53
aVLeech Seed
p54
asg41
g42
sg43
VSand Veil
p55
sbag1
(g24
g3
Ntp56
Rp57
(dp58
g28
I275
sg29
VShiftry
p59
sg31
g32
sg33
V48
p60
sg35
(lp61
VFake Out
p62
aVExtrasensory
p63
aVDouble Team
p64
aVSwagger
p65
asg41
g42
sg43
VChlorophyll
p66
sbag1
(g24
g3
Ntp67
Rp68
(dp69
g28
I319
sg29
VSharpedo
p70
sg31
g32
sg33
V48
p71
sg35
(lp72
VSurf
p73
aVCrunch
p74
aVSlash
p75
aVSwagger
p76
asg41
g42
sg43
VRough Skin
p77
sbag1
(g24
g3
Ntp78
Rp79
(dp80
g28
I359
sg29
VAbsol
p81
sg31
g32
sg33
V49
p82
sg35
(lp83
VSwords Dance
p84
aVSlash
p85
aVAerial Ace
p86
aVSnatch
p87
asg41
VSitrus Berry
p88
sg43
VPressure
p89
sbasVbossFlag
p90
I01
sVtLongGame
p91
Vruby-sapphire
p92
sbag1
(g2
g3
Ntp93
Rp94
(dp95
g7
VSpr RS Sidney.png
p96
sg9
VElite Four
p97
sg11
VSidney
p98
sg13
V4900
p99
sg15
I5
sg16
g17
sg18
g19
sg20
g21
sg22
(lp100
g1
(g24
g3
Ntp101
Rp102
(dp103
g28
I262
sg29
VMightyena
p104
sg31
g32
sg33
V46
p105
sg35
(lp106
VRoar
p107
aVDouble-Edge
p108
aVSand-Attack
p109
aVCrunch
p110
asg41
g42
sg43
VIntimidate
p111
sbag1
(g24
g3
Ntp112
Rp113
(dp114
g28
I275
sg29
VShiftry
p115
sg31
g32
sg33
V48
p116
sg35
(lp117
VTorment
p118
aVDouble Team
p119
aVSwagger
p120
aVExtrasensory
p121
asg41
g42
sg43
VChlorophyll
p122
sbag1
(g24
g3
Ntp123
Rp124
(dp125
g28
I332
sg29
VCacturne
p126
sg31
g32
sg33
V46
p127
sg35
(lp128
VLeech Seed
p129
aVFaint Attack
p130
aVNeedle Arm
p131
aVCotton Spore
p132
asg41
g42
sg43
VSand Veil
p133
sbag1
(g24
g3
Ntp134
Rp135
(dp136
g28
I342
sg29
VCrawdaunt
p137
sg31
g32
sg33
V48
p138
sg35
(lp139
VSurf
p140
aVSwords Dance
p141
aVStrength
p142
aVFacade
p143
asg41
g42
sg43
VHyper Cutter
p144
sbag1
(g24
g3
Ntp145
Rp146
(dp147
g28
I359
sg29
VAbsol
p148
sg31
g32
sg33
V49
p149
sg35
(lp150
VAerial Ace
p151
aVRock Slide
p152
aVSwords Dance
p153
aVSlash
p154
asg41
VSitrus Berry
p155
sg43
VPressure
p156
sbasg90
I01
sg91
g92
sbag1
(g2
g3
Ntp157
Rp158
(dp159
g7
VVSSidney.png
p160
sg9
VElite Four
p161
sg11
VSidney
p162
sg13
V8,320
p163
sg15
I5
sg16
g17
sg18
g19
sg20
VSM
p164
sg22
(lp165
g1
(g24
g3
Ntp166
Rp167
(dp168
g28
I262
sg29
VMightyena
p169
sg31
g32
sg33
V50
p170
sg35
(lp171
VSwagger
p172
aVTake Down
p173
aVSucker Punch
p174
aVCrunch
p175
asg41
g42
sg43
VIntimidate
p176
sbag1
(g24
g3
Ntp177
Rp178
(dp179
g28
I275
sg29
VShiftry
p180
sg31
g32
sg33
V50
p181
sg35
(lp182
VFake Out
p183
aVFeint Attack
p184
aVExtrasensory
p185
aVLeaf Blade
p186
asg41
g42
sg43
VChlorophyll
p187
sbag1
(g24
g3
Ntp188
Rp189
(dp190
g28
I332
sg29
VCacturne
p191
sg31
g32
sg33
V50
p192
sg35
(lp193
VLeech Seed
p194
aVPayback
p195
aVNeedle Arm
p196
aVSpiky Shield
p197
asg41
g42
sg43
VSand Veil
p198
sbag1
(g24
g3
Ntp199
Rp200
(dp201
g28
I319
sg29
VSharpedo
p202
sg31
g32
sg33
V50
p203
sg35
(lp204
VCrunch
p205
aVPoison Fang
p206
aVAqua Jet
p207
aVSlash
p208
asg41
g42
sg43
VRough Skin
p209
sbag1
(g24
g3
Ntp210
Rp211
(dp212
g28
I359
sg29
VAbsol
p213
sg31
g32
sg33
V52
p214
sg35
(lp215
VAerial Ace
p216
aVNight Slash
p217
aVPsycho Cut
p218
aVSlash
p219
asg41
g42
sg43
VSuper Luck
p220
sbasg90
I01
sg91
Vsun-moon
p221
sbag1
(g2
g3
Ntp222
Rp223
(dp224
g7
VVSSidney.png
p225
sg9
VElite Four
p226
sg11
VSidney
p227
sg13
V11,520
p228
sg15
I6
sg16
g17
sg18
g19
sg20
g164
sg22
(lp229
g1
(g24
g3
Ntp230
Rp231
(dp232
g28
I560
sg29
VScrafty
p233
sg31
g32
sg33
V70
p234
sg35
(lp235
VCrunch
p236
aVBrick Break
p237
aVPoison Jab
p238
aVDragon Claw
p239
asg41
g42
sg43
VIntimidate
p240
sbag1
(g24
g3
Ntp241
Rp242
(dp243
g28
I275
sg29
VShiftry
p244
sg31
g32
sg33
V70
p245
sg35
(lp246
VFake Out
p247
aVFeint Attack
p248
aVExtrasensory
p249
aVLeaf Blade
p250
asg41
g42
sg43
VChlorophyll
p251
sbag1
(g24
g3
Ntp252
Rp253
(dp254
g28
I571
sg29
VZoroark
p255
sg31
g32
sg33
V70
p256
sg35
(lp257
VNight Slash
p258
aVShadow Claw
p259
aVDark Pulse
p260
aVFlamethrower
p261
asg41
g42
sg43
VIllusion
p262
sbag1
(g24
g3
Ntp263
Rp264
(dp265
g28
I319
sg29
VSharpedo
p266
sg31
g32
sg33
V70
p267
sg35
(lp268
VCrunch
p269
aVPoison Fang
p270
aVAqua Jet
p271
aVSlash
p272
asg41
g42
sg43
VRough Skin
p273
sbag1
(g24
g3
Ntp274
Rp275
(dp276
g28
I630
sg29
VMandibuzz
p277
sg31
VF
p278
sg33
V70
p279
sg35
(lp280
VBrave Bird
p281
aVBone Rush
p282
aVFeint Attack
p283
aVTailwind
p284
asg41
g42
sg43
VOvercoat
p285
sbag1
(g24
g3
Ntp286
Rp287
(dp288
g28
I359
sg29
VAbsol
p289
sg31
g32
sg33
V72
p290
sg35
(lp291
VAerial Ace
p292
aVNight Slash
p293
aVPsycho Cut
p294
aVSlash
p295
asg41
VAbsolite
p296
sg43
VSuper Luck
p297
sbasg90
I01
sg91
g221
sbag1
(g2
g3
Ntp298
Rp299
(dp300
g7
VSpr RS Phoebe.png
p301
sg9
VElite Four
p302
sg11
VPhoebe
p303
sg13
V5100
p304
sg15
I5
sg16
g17
sg18
g19
sg20
g21
sg22
(lp305
g1
(g24
g3
Ntp306
Rp307
(dp308
g28
I356
sg29
VDusclops
p309
sg31
g278
sg33
V48
p310
sg35
(lp311
VCurse
p312
aVConfuse Ray
p313
aVFuture Sight
p314
aVShadow Punch
p315
asg41
g42
sg43
VPressure
p316
sbag1
(g24
g3
Ntp317
Rp318
(dp319
g28
I354
sg29
VBanette
p320
sg31
g278
sg33
V49
p321
sg35
(lp322
VSpite
p323
aVWill-O-Wisp
p324
aVShadow Ball
p325
aVFaint Attack
p326
asg41
g42
sg43
VInsomnia
p327
sbag1
(g24
g3
Ntp328
Rp329
(dp330
g28
I354
sg29
VBanette
p331
sg31
g278
sg33
V49
p332
sg35
(lp333
VToxic
p334
aVSkill Swap
p335
aVShadow Ball
p336
aVPsychic
p337
asg41
g42
sg43
VInsomnia
p338
sbag1
(g24
g3
Ntp339
Rp340
(dp341
g28
I302
sg29
VSableye
p342
sg31
g278
sg33
V50
p343
sg35
(lp344
VFaint Attack
p345
aVShadow Ball
p346
aVPsychic
p347
aVAttract
p348
asg41
g42
sg43
VKeen Eye
p349
sbag1
(g24
g3
Ntp350
Rp351
(dp352
g28
I356
sg29
VDusclops
p353
sg31
g278
sg33
V51
p354
sg35
(lp355
VConfuse Ray
p356
aVShadow Ball
p357
aVIce Beam
p358
aVEarthquake
p359
asg41
VSitrus Berry
p360
sg43
VPressure
p361
sbasg90
I01
sg91
g92
sbag1
(g2
g3
Ntp362
Rp363
(dp364
g7
VSpr RS Phoebe.png
p365
sg9
VElite Four
p366
sg11
VPhoebe
p367
sg13
V5100
p368
sg15
I5
sg16
g17
sg18
g19
sg20
g21
sg22
(lp369
g1
(g24
g3
Ntp370
Rp371
(dp372
g28
I356
sg29
VDusclops
p373
sg31
g278
sg33
V48
p374
sg35
(lp375
VShadow Punch
p376
aVConfuse Ray
p377
aVCurse
p378
aVProtect
p379
asg41
g42
sg43
VPressure
p380
sbag1
(g24
g3
Ntp381
Rp382
(dp383
g28
I354
sg29
VBanette
p384
sg31
g278
sg33
V49
p385
sg35
(lp386
VShadow Ball
p387
aVGrudge
p388
aVWill-O-Wisp
p389
aVFaint Attack
p390
asg41
g42
sg43
VInsomnia
p391
sbag1
(g24
g3
Ntp392
Rp393
(dp394
g28
I302
sg29
VSableye
p395
sg31
g278
sg33
V50
p396
sg35
(lp397
VShadow Ball
p398
aVDouble Team
p399
aVNight Shade
p400
aVFaint Attack
p401
asg41
g42
sg43
VKeen Eye
p402
sbag1
(g24
g3
Ntp403
Rp404
(dp405
g28
I354
sg29
VBanette
p406
sg31
g278
sg33
V49
p407
sg35
(lp408
VShadow Ball
p409
aVPsychic
p410
aVThunderbolt
p411
aVFacade
p412
asg41
g42
sg43
VInsomnia
p413
sbag1
(g24
g3
Ntp414
Rp415
(dp416
g28
I356
sg29
VDusclops
p417
sg31
g278
sg33
V51
p418
sg35
(lp419
VShadow Ball
p420
aVIce Beam
p421
aVRock Slide
p422
aVEarthquake
p423
asg41
VSitrus Berry
p424
sg43
VPressure
p425
sbasg90
I01
sg91
g92
sbag1
(g2
g3
Ntp426
Rp427
(dp428
g7
VVSPhoebe.png
p429
sg9
VElite Four
p430
sg11
VPhoebe
p431
sg13
V8,480
p432
sg15
I5
sg16
g17
sg18
g19
sg20
g164
sg22
(lp433
g1
(g24
g3
Ntp434
Rp435
(dp436
g28
I356
sg29
VDusclops
p437
sg31
g278
sg33
V51
p438
sg35
(lp439
VShadow Punch
p440
aVConfuse Ray
p441
aVCurse
p442
aVFuture Sight
p443
asg41
g42
sg43
VPressure
p444
sbag1
(g24
g3
Ntp445
Rp446
(dp447
g28
I354
sg29
VBanette
p448
sg31
g278
sg33
V51
p449
sg35
(lp450
VShadow Ball
p451
aVSpite
p452
aVWill-O-Wisp
p453
aVFeint Attack
p454
asg41
g42
sg43
VInsomnia
p455
sbag1
(g24
g3
Ntp456
Rp457
(dp458
g28
I302
sg29
VSableye
p459
sg31
g32
sg33
V51
p460
sg35
(lp461
VShadow Claw
p462
aVFoul Play
p463
aVPower Gem
p464
aVFake Out
p465
asg41
g42
sg43
VPrankster
p466
sbag1
(g24
g3
Ntp467
Rp468
(dp469
g28
I354
sg29
VBanette
p470
sg31
g32
sg33
V51
p471
sg35
(lp472
VShadow Ball
p473
aVGrudge
p474
aVToxic
p475
aVPsychic
p476
asg41
g42
sg43
VInsomnia
p477
sbag1
(g24
g3
Ntp478
Rp479
(dp480
g28
I477
sg29
VDusknoir
p481
sg31
g278
sg33
V53
p482
sg35
(lp483
VHex
p484
aVFire Punch
p485
aVIce Punch
p486
aVThunder Punch
p487
asg41
g42
sg43
VPressure
p488
sbasg90
I01
sg91
g221
sbag1
(g2
g3
Ntp489
Rp490
(dp491
g7
VVSPhoebe.png
p492
sg9
VElite Four
p493
sg11
VPhoebe
p494
sg13
V11,680
p495
sg15
I6
sg16
g17
sg18
g19
sg20
g164
sg22
(lp496
g1
(g24
g3
Ntp497
Rp498
(dp499
g28
I354
sg29
VBanette
p500
sg31
g32
sg33
V71
p501
sg35
(lp502
VShadow Ball
p503
aVGrudge
p504
aVToxic
p505
aVPsychic
p506
asg41
g42
sg43
VInsomnia
p507
sbag1
(g24
g3
Ntp508
Rp509
(dp510
g28
I429
sg29
VMismagius
p511
sg31
g278
sg33
V71
p512
sg35
(lp513
VShadow Ball
p514
aVPower Gem
p515
aVThunderbolt
p516
aVPain Split
p517
asg41
g42
sg43
VLevitate
p518
sbag1
(g24
g3
Ntp519
Rp520
(dp521
g28
I426
sg29
VDrifblim
p522
sg31
g278
sg33
V71
p523
sg35
(lp524
VPhantom Force
p525
aVPsychic
p526
aVIcy Wind
p527
aVAcrobatics
p528
asg41
g42
sg43
VAftermath
p529
sbag1
(g24
g3
Ntp530
Rp531
(dp532
g28
I609
sg29
VChandelure
p533
sg31
g278
sg33
V71
p534
sg35
(lp535
VHex
p536
aVFlamethrower
p537
aVEnergy Ball
p538
aVDark Pulse
p539
asg41
g42
sg43
VFlame Body
p540
sbag1
(g24
g3
Ntp541
Rp542
(dp543
g28
I477
sg29
VDusknoir
p544
sg31
g278
sg33
V71
p545
sg35
(lp546
VHex
p547
aVFire Punch
p548
aVIce Punch
p549
aVThunder Punch
p550
asg41
g42
sg43
VPressure
p551
sbag1
(g24
g3
Ntp552
Rp553
(dp554
g28
I302
sg29
VSableye
p555
sg31
g278
sg33
V73
p556
sg35
(lp557
VShadow Claw
p558
aVFoul Play
p559
aVPower Gem
p560
aVFake Out
p561
asg41
VSablenite
p562
sg43
VPrankster
p563
sbasg90
I01
sg91
g221
sbag1
(g2
g3
Ntp564
Rp565
(dp566
g7
VSpr RS Glacia.png
p567
sg9
VElite Four
p568
sg11
VGlacia
p569
sg13
V5300
p570
sg15
I5
sg16
g17
sg18
g19
sg20
g21
sg22
(lp571
g1
(g24
g3
Ntp572
Rp573
(dp574
g28
I362
sg29
VGlalie
p575
sg31
g278
sg33
V50
p576
sg35
(lp577
VHail
p578
aVLight Screen
p579
aVIce Beam
p580
aVCrunch
p581
asg41
g42
sg43
VInner Focus
p582
sbag1
(g24
g3
Ntp583
Rp584
(dp585
g28
I364
sg29
VSealeo
p586
sg31
g278
sg33
V50
p587
sg35
(lp588
VSurf
p589
aVIce Ball
p590
aVHail
p591
aVBody Slam
p592
asg41
g42
sg43
VThick Fat
p593
sbag1
(g24
g3
Ntp594
Rp595
(dp596
g28
I364
sg29
VSealeo
p597
sg31
g278
sg33
V52
p598
sg35
(lp599
VHail
p600
aVBlizzard
p601
aVDive
p602
aVAttract
p603
asg41
g42
sg43
VThick Fat
p604
sbag1
(g24
g3
Ntp605
Rp606
(dp607
g28
I362
sg29
VGlalie
p608
sg31
g278
sg33
V52
p609
sg35
(lp610
VHail
p611
aVIce Beam
p612
aVShadow Ball
p613
aVCrunch
p614
asg41
g42
sg43
VInner Focus
p615
sbag1
(g24
g3
Ntp616
Rp617
(dp618
g28
I365
sg29
VWalrein
p619
sg31
g278
sg33
V53
p620
sg35
(lp621
VBlizzard
p622
aVSurf
p623
aVBody Slam
p624
aVSheer Cold
p625
asg41
VSitrus Berry
p626
sg43
VThick Fat
p627
sbasg90
I01
sg91
g92
sbag1
(g2
g3
Ntp628
Rp629
(dp630
g7
VSpr RS Glacia.png
p631
sg9
VElite Four
p632
sg11
VGlacia
p633
sg13
V5300
p634
sg15
I5
sg16
g17
sg18
g19
sg20
g21
sg22
(lp635
g1
(g24
g3
Ntp636
Rp637
(dp638
g28
I364
sg29
VSealeo
p639
sg31
g278
sg33
V50
p640
sg35
(lp641
VEncore
p642
aVBody Slam
p643
aVHail
p644
aVIce Ball
p645
asg41
g42
sg43
VThick Fat
p646
sbag1
(g24
g3
Ntp647
Rp648
(dp649
g28
I362
sg29
VGlalie
p650
sg31
g278
sg33
V50
p651
sg35
(lp652
VLight Screen
p653
aVCrunch
p654
aVIcy Wind
p655
aVIce Beam
p656
asg41
g42
sg43
VInner Focus
p657
sbag1
(g24
g3
Ntp658
Rp659
(dp660
g28
I364
sg29
VSealeo
p661
sg31
g278
sg33
V52
p662
sg35
(lp663
VAttract
p664
aVDouble-Edge
p665
aVHail
p666
aVBlizzard
p667
asg41
g42
sg43
VThick Fat
p668
sbag1
(g24
g3
Ntp669
Rp670
(dp671
g28
I362
sg29
VGlalie
p672
sg31
g278
sg33
V52
p673
sg35
(lp674
VShadow Ball
p675
aVExplosion
p676
aVHail
p677
aVIce Beam
p678
asg41
g42
sg43
VInner Focus
p679
sbag1
(g24
g3
Ntp680
Rp681
(dp682
g28
I365
sg29
VWalrein
p683
sg31
g278
sg33
V53
p684
sg35
(lp685
VSurf
p686
aVBody Slam
p687
aVIce Beam
p688
aVSheer Cold
p689
asg41
VSitrus Berry
p690
sg43
VThick Fat
p691
sbasg90
I01
sg91
g92
sbag1
(g2
g3
Ntp692
Rp693
(dp694
g7
VVSGlacia.png
p695
sg9
VElite Four
p696
sg11
VGlacia
p697
sg13
V8,640
p698
sg15
I5
sg16
g17
sg18
g19
sg20
g164
sg22
(lp699
g1
(g24
g3
Ntp700
Rp701
(dp702
g28
I362
sg29
VGlalie
p703
sg31
g32
sg33
V52
p704
sg35
(lp705
VLight Screen
p706
aVIce Shard
p707
aVHail
p708
aVCrunch
p709
asg41
g42
sg43
VInner Focus
p710
sbag1
(g24
g3
Ntp711
Rp712
(dp713
g28
I478
sg29
VFroslass
p714
sg31
g278
sg33
V52
p715
sg35
(lp716
VConfuse Ray
p717
aVBlizzard
p718
aVHail
p719
aVOminous Wind
p720
asg41
g42
sg43
VSnow Cloak
p721
sbag1
(g24
g3
Ntp722
Rp723
(dp724
g28
I362
sg29
VGlalie
p725
sg31
g32
sg33
V52
p726
sg35
(lp727
VProtect
p728
aVIce Shard
p729
aVHail
p730
aVFreeze-Dry
p731
asg41
g42
sg43
VInner Focus
p732
sbag1
(g24
g3
Ntp733
Rp734
(dp735
g28
I478
sg29
VFroslass
p736
sg31
g278
sg33
V52
p737
sg35
(lp738
VDraining Kiss
p739
aVBlizzard
p740
aVHail
p741
aVShadow Ball
p742
asg41
g42
sg43
VSnow Cloak
p743
sbag1
(g24
g3
Ntp744
Rp745
(dp746
g28
I365
sg29
VWalrein
p747
sg31
g32
sg33
V54
p748
sg35
(lp749
VSurf
p750
aVBody Slam
p751
aVBlizzard
p752
aVSheer Cold
p753
asg41
g42
sg43
VThick Fat
p754
sbasg90
I01
sg91
g221
sbag1
(g2
g3
Ntp755
Rp756
(dp757
g7
VVSGlacia.png
p758
sg9
VElite Four
p759
sg11
VGlacia
p760
sg13
V11,840
p761
sg15
I6
sg16
g17
sg18
g19
sg20
g164
sg22
(lp762
g1
(g24
g3
Ntp763
Rp764
(dp765
g28
I460
sg29
VAbomasnow
p766
sg31
g32
sg33
V72
p767
sg35
(lp768
VBlizzard
p769
aVWood Hammer
p770
aVIce Shard
p771
aVEarthquake
p772
asg41
g42
sg43
VSnow Warning
p773
sbag1
(g24
g3
Ntp774
Rp775
(dp776
g28
I614
sg29
VBeartic
p777
sg31
g32
sg33
V72
p778
sg35
(lp779
VIcicle Crash
p780
aVSlash
p781
aVShadow Claw
p782
aVBrick Break
p783
asg41
g42
sg43
VSnow Cloak
p784
sbag1
(g24
g3
Ntp785
Rp786
(dp787
g28
I478
sg29
VFroslass
p788
sg31
g278
sg33
V72
p789
sg35
(lp790
VDraining Kiss
p791
aVBlizzard
p792
aVHail
p793
aVShadow Ball
p794
asg41
g42
sg43
VSnow Cloak
p795
sbag1
(g24
g3
Ntp796
Rp797
(dp798
g28
I584
sg29
VVanilluxe
p799
sg31
g278
sg33
V72
p800
sg35
(lp801
VIce Beam
p802
aVMirror Coat
p803
aVFreeze-Dry
p804
aVSignal Beam
p805
asg41
g42
sg43
VIce Body
p806
sbag1
(g24
g3
Ntp807
Rp808
(dp809
g28
I365
sg29
VWalrein
p810
sg31
g32
sg33
V72
p811
sg35
(lp812
VSurf
p813
aVBody Slam
p814
aVBlizzard
p815
aVSheer Cold
p816
asg41
g42
sg43
VThick Fat
p817
sbag1
(g24
g3
Ntp818
Rp819
(dp820
g28
I362
sg29
VGlalie
p821
sg31
g32
sg33
V74
p822
sg35
(lp823
VProtect
p824
aVIce Shard
p825
aVHail
p826
aVFreeze-Dry
p827
asg41
VGlalitite
p828
sg43
VInner Focus
p829
sbasg90
I01
sg91
g221
sbag1
(g2
g3
Ntp830
Rp831
(dp832
g7
VSpr RS Drake.png
p833
sg9
VElite Four
p834
sg11
VDrake
p835
sg13
V5500
p836
sg15
I5
sg16
g17
sg18
g19
sg20
g21
sg22
(lp837
g1
(g24
g3
Ntp838
Rp839
(dp840
g28
I372
sg29
VShelgon
p841
sg31
g32
sg33
V52
p842
sg35
(lp843
VDragon Claw
p844
aVRock Tomb
p845
aVProtect
p846
aVCrunch
p847
asg41
g42
sg43
VRock Head
p848
sbag1
(g24
g3
Ntp849
Rp850
(dp851
g28
I334
sg29
VAltaria
p852
sg31
g32
sg33
V54
p853
sg35
(lp854
VTake Down
p855
aVDragonBreath
p856
aVDragon Dance
p857
aVRefresh
p858
asg41
g42
sg43
VNatural Cure
p859
sbag1
(g24
g3
Ntp860
Rp861
(dp862
g28
I330
sg29
VFlygon
p863
sg31
g32
sg33
V53
p864
sg35
(lp865
VFly
p866
aVDig
p867
aVDragonBreath
p868
aVSandstorm
p869
asg41
g42
sg43
VLevitate
p870
sbag1
(g24
g3
Ntp871
Rp872
(dp873
g28
I330
sg29
VFlygon
p874
sg31
g32
sg33
V53
p875
sg35
(lp876
VFlamethrower
p877
aVCrunch
p878
aVDragonBreath
p879
aVSand-Attack
p880
asg41
g42
sg43
VLevitate
p881
sbag1
(g24
g3
Ntp882
Rp883
(dp884
g28
I373
sg29
VSalamence
p885
sg31
g32
sg33
V55
p886
sg35
(lp887
VFlamethrower
p888
aVDragon Claw
p889
aVCrunch
p890
aVFly
p891
asg41
VSitrus Berry
p892
sg43
VIntimidate
p893
sbasg90
I01
sg91
g92
sbag1
(g2
g3
Ntp894
Rp895
(dp896
g7
VSpr RS Drake.png
p897
sg9
VElite Four
p898
sg11
VDrake
p899
sg13
V5500
p900
sg15
I5
sg16
g17
sg18
g19
sg20
g21
sg22
(lp901
g1
(g24
g3
Ntp902
Rp903
(dp904
g28
I372
sg29
VShelgon
p905
sg31
g32
sg33
V52
p906
sg35
(lp907
VRock Tomb
p908
aVDragon Claw
p909
aVProtect
p910
aVDouble-Edge
p911
asg41
g42
sg43
VRock Head
p912
sbag1
(g24
g3
Ntp913
Rp914
(dp915
g28
I334
sg29
VAltaria
p916
sg31
g32
sg33
V54
p917
sg35
(lp918
VDouble-Edge
p919
aVDragonBreath
p920
aVDragon Dance
p921
aVAerial Ace
p922
asg41
g42
sg43
VNatural Cure
p923
sbag1
(g24
g3
Ntp924
Rp925
(dp926
g28
I230
sg29
VKingdra
p927
sg31
g32
sg33
V53
p928
sg35
(lp929
VSmokeScreen
p930
aVDragon Dance
p931
aVSurf
p932
aVBody Slam
p933
asg41
g42
sg43
VSwift Swim
p934
sbag1
(g24
g3
Ntp935
Rp936
(dp937
g28
I330
sg29
VFlygon
p938
sg31
g32
sg33
V53
p939
sg35
(lp940
VFlamethrower
p941
aVCrunch
p942
aVDragonBreath
p943
aVEarthquake
p944
asg41
g42
sg43
VLevitate
p945
sbag1
(g24
g3
Ntp946
Rp947
(dp948
g28
I373
sg29
VSalamence
p949
sg31
g32
sg33
V55
p950
sg35
(lp951
VFlamethrower
p952
aVDragon Claw
p953
aVRock Slide
p954
aVCrunch
p955
asg41
VSitrus Berry
p956
sg43
VIntimidate
p957
sbasg90
I01
sg91
g92
sbag1
(g2
g3
Ntp958
Rp959
(dp960
g7
VVSDrake.png
p961
sg9
VElite Four
p962
sg11
VDrake
p963
sg13
V8,800
p964
sg15
I5
sg16
g17
sg18
g19
sg20
g164
sg22
(lp965
g1
(g24
g3
Ntp966
Rp967
(dp968
g28
I334
sg29
VAltaria
p969
sg31
g278
sg33
V53
p970
sg35
(lp971
VAerial Ace
p972
aVCotton Guard
p973
aVDragon Pulse
p974
aVMoonblast
p975
asg41
g42
sg43
VNatural Cure
p976
sbag1
(g24
g3
Ntp977
Rp978
(dp979
g28
I330
sg29
VFlygon
p980
sg31
g32
sg33
V53
p981
sg35
(lp982
VEarthquake
p983
aVDragon Claw
p984
aVRock Slide
p985
aVSupersonic
p986
asg41
g42
sg43
VLevitate
p987
sbag1
(g24
g3
Ntp988
Rp989
(dp990
g28
I230
sg29
VKingdra
p991
sg31
g32
sg33
V53
p992
sg35
(lp993
VDragon Pulse
p994
aVSurf
p995
aVYawn
p996
aVIce Beam
p997
asg41
g42
sg43
VSniper
p998
sbag1
(g24
g3
Ntp999
Rp1000
(dp1001
g28
I330
sg29
VFlygon
p1002
sg31
g278
sg33
V53
p1003
sg35
(lp1004
VFlamethrower
p1005
aVBoomburst
p1006
aVDragon Pulse
p1007
aVScreech
p1008
asg41
g42
sg43
VLevitate
p1009
sbag1
(g24
g3
Ntp1010
Rp1011
(dp1012
g28
I373
sg29
VSalamence
p1013
sg31
g32
sg33
V55
p1014
sg35
(lp1015
VDragon Rush
p1016
aVZen Headbutt
p1017
aVCrunch
p1018
aVThunder Fang
p1019
asg41
g42
sg43
VIntimidate
p1020
sbasg90
I01
sg91
g221
sbag1
(g2
g3
Ntp1021
Rp1022
(dp1023
g7
VVSDrake.png
p1024
sg9
VElite Four
p1025
sg11
VDrake
p1026
sg13
V12,000
p1027
sg15
I6
sg16
g17
sg18
g19
sg20
g164
sg22
(lp1028
g1
(g24
g3
Ntp1029
Rp1030
(dp1031
g28
I334
sg29
VAltaria
p1032
sg31
g278
sg33
V73
p1033
sg35
(lp1034
VAerial Ace
p1035
aVCotton Guard
p1036
aVDragon Pulse
p1037
aVMoonblast
p1038
asg41
g42
sg43
VNatural Cure
p1039
sbag1
(g24
g3
Ntp1040
Rp1041
(dp1042
g28
I691
sg29
VDragalge
p1043
sg31
g32
sg33
V73
p1044
sg35
(lp1045
VDragon Pulse
p1046
aVHydro Pump
p1047
aVSludge Wave
p1048
aVThunderbolt
p1049
asg41
g42
sg43
VPoison Point
p1050
sbag1
(g24
g3
Ntp1051
Rp1052
(dp1053
g28
I230
sg29
VKingdra
p1054
sg31
g32
sg33
V73
p1055
sg35
(lp1056
VDragon Pulse
p1057
aVSurf
p1058
aVYawn
p1059
aVIce Beam
p1060
asg41
g42
sg43
VSniper
p1061
sbag1
(g24
g3
Ntp1062
Rp1063
(dp1064
g28
I330
sg29
VFlygon
p1065
sg31
g32
sg33
V73
p1066
sg35
(lp1067
VFlamethrower
p1068
aVBoomburst
p1069
aVDragon Pulse
p1070
aVScreech
p1071
asg41
g42
sg43
VLevitate
p1072
sbag1
(g24
g3
Ntp1073
Rp1074
(dp1075
g28
I612
sg29
VHaxorus
p1076
sg31
g32
sg33
V73
p1077
sg35
(lp1078
VDragon Claw
p1079
aVEarthquake
p1080
aVX-Scissor
p1081
aVShadow Claw
p1082
asg41
g42
sg43
VMold Breaker
p1083
sbag1
(g24
g3
Ntp1084
Rp1085
(dp1086
g28
I373
sg29
VSalamence
p1087
sg31
g32
sg33
V75
p1088
sg35
(lp1089
VDragon Rush
p1090
aVZen Headbutt
p1091
aVCrunch
p1092
aVThunder Fang
p1093
asg41
VSalamencite
p1094
sg43
VIntimidate
p1095
sbasg90
I01
sg91
g221
sbag1
(g2
g3
Ntp1096
Rp1097
(dp1098
g7
VSpr RS Steven.png
p1099
sg9
VChampion
p1100
sg11
VSteven Stone
p1101
sg13
V11600
p1102
sg15
I6
sg16
g17
sg18
g19
sg20
g21
sg22
(lp1103
g1
(g24
g3
Ntp1104
Rp1105
(dp1106
g28
I227
sg29
VSkarmory
p1107
sg31
g32
sg33
V57
p1108
sg35
(lp1109
VSteel Wing
p1110
aVToxic
p1111
aVAerial Ace
p1112
aVSpikes
p1113
asg41
g42
sg43
VKeen Eye
p1114
sbag1
(g24
g3
Ntp1115
Rp1116
(dp1117
g28
I344
sg29
VClaydol
p1118
sg31
VU
p1119
sg33
V55
p1120
sg35
(lp1121
VEarthquake
p1122
aVAncientPower
p1123
aVLight Screen
p1124
aVReflect
p1125
asg41
g42
sg43
VLevitate
p1126
sbag1
(g24
g3
Ntp1127
Rp1128
(dp1129
g28
I306
sg29
VAggron
p1130
sg31
g32
sg33
V56
p1131
sg35
(lp1132
VEarthquake
p1133
aVDragon Claw
p1134
aVThunder
p1135
aVSolarBeam
p1136
asg41
g42
sg43
VSturdy
p1137
sbag1
(g24
g3
Ntp1138
Rp1139
(dp1140
g28
I346
sg29
VCradily
p1141
sg31
g32
sg33
V56
p1142
sg35
(lp1143
VAncientPower
p1144
aVConfuse Ray
p1145
aVSludge Bomb
p1146
aVGiga Drain
p1147
asg41
g42
sg43
VSuction Cups
p1148
sbag1
(g24
g3
Ntp1149
Rp1150
(dp1151
g28
I348
sg29
VArmaldo
p1152
sg31
g32
sg33
V56
p1153
sg35
(lp1154
VAncientPower
p1155
aVSlash
p1156
aVAerial Ace
p1157
aVWater Pulse
p1158
asg41
g42
sg43
VBattle Armor
p1159
sbag1
(g24
g3
Ntp1160
Rp1161
(dp1162
g28
I376
sg29
VMetagross
p1163
sg31
g1119
sg33
V58
p1164
sg35
(lp1165
VMeteor Mash
p1166
aVEarthquake
p1167
aVPsychic
p1168
aVHyper Beam
p1169
asg41
VSitrus Berry
p1170
sg43
VClear Body
p1171
sbasg90
I01
sg91
g92
sbag1
(g2
g3
Ntp1172
Rp1173
(dp1174
g7
VSpr E Wallace.png\u200e
p1175
sg9
VChampion
p1176
sg11
VWallace
p1177
sg13
V11600
p1178
sg15
I6
sg16
g17
sg18
g19
sg20
VE
p1179
sg22
(lp1180
g1
(g24
g3
Ntp1181
Rp1182
(dp1183
g28
I321
sg29
VWailord
p1184
sg31
g32
sg33
V57
p1185
sg35
(lp1186
VRain Dance
p1187
aVWater Spout
p1188
aVDouble-Edge
p1189
aVBlizzard
p1190
asg41
g42
sg43
VWater Veil
p1191
sbag1
(g24
g3
Ntp1192
Rp1193
(dp1194
g28
I73
sg29
VTentacruel
p1195
sg31
g32
sg33
V55
p1196
sg35
(lp1197
VToxic
p1198
aVHydro Pump
p1199
aVSludge Bomb
p1200
aVIce Beam
p1201
asg41
g42
sg43
VClear Body
p1202
sbag1
(g24
g3
Ntp1203
Rp1204
(dp1205
g28
I272
sg29
VLudicolo
p1206
sg31
g32
sg33
V56
p1207
sg35
(lp1208
VGiga Drain
p1209
aVSurf
p1210
aVLeech Seed
p1211
aVDouble Team
p1212
asg41
g42
sg43
VSwift Swim
p1213
sbag1
(g24
g3
Ntp1214
Rp1215
(dp1216
g28
I340
sg29
VWhiscash
p1217
sg31
g32
sg33
V56
p1218
sg35
(lp1219
VEarthquake
p1220
aVSurf
p1221
aVAmnesia
p1222
aVHyper Beam
p1223
asg41
g42
sg43
VOblivious
p1224
sbag1
(g24
g3
Ntp1225
Rp1226
(dp1227
g28
I130
sg29
VGyarados
p1228
sg31
g32
sg33
V56
p1229
sg35
(lp1230
VDragon Dance
p1231
aVEarthquake
p1232
aVHyper Beam
p1233
aVSurf
p1234
asg41
g42
sg43
VIntimidate
p1235
sbag1
(g24
g3
Ntp1236
Rp1237
(dp1238
g28
I350
sg29
VMilotic
p1239
sg31
g32
sg33
V58
p1240
sg35
(lp1241
VRecover
p1242
aVSurf
p1243
aVIce Beam
p1244
aVToxic
p1245
asg41
VSitrus Berry
p1246
sg43
VMarvel Scale
p1247
sbasg90
I01
sg91
Vemerald
p1248
sbag1
(g2
g3
Ntp1249
Rp1250
(dp1251
g7
VVSSteven.png
p1252
sg9
VChampion
p1253
sg11
VSteven Stone
p1254
sg13
V11,800
p1255
sg15
I6
sg16
g17
sg18
g19
sg20
g164
sg22
(lp1256
g1
(g24
g3
Ntp1257
Rp1258
(dp1259
g28
I227
sg29
VSkarmory
p1260
sg31
g32
sg33
V57
p1261
sg35
(lp1262
VToxic
p1263
aVAerial Ace
p1264
aVSpikes
p1265
aVSteel Wing
p1266
asg41
g42
sg43
VSturdy
p1267
sbag1
(g24
g3
Ntp1268
Rp1269
(dp1270
g28
I344
sg29
VClaydol
p1271
sg31
g1119
sg33
V57
p1272
sg35
(lp1273
VReflect
p1274
aVLight Screen
p1275
aVExtrasensory
p1276
aVEarth Power
p1277
asg41
g42
sg43
VLevitate
p1278
sbag1
(g24
g3
Ntp1279
Rp1280
(dp1281
g28
I306
sg29
VAggron
p1282
sg31
g32
sg33
V57
p1283
sg35
(lp1284
VStone Edge
p1285
aVEarthquake
p1286
aVIron Tail
p1287
aVDragon Claw
p1288
asg41
g42
sg43
VSturdy
p1289
sbag1
(g24
g3
Ntp1290
Rp1291
(dp1292
g28
I346
sg29
VCradily
p1293
sg31
g278
sg33
V57
p1294
sg35
(lp1295
VGiga Drain
p1296
aVAncient Power
p1297
aVSludge Bomb
p1298
aVConfuse Ray
p1299
asg41
g42
sg43
VSuction Cups
p1300
sbag1
(g24
g3
Ntp1301
Rp1302
(dp1303
g28
I348
sg29
VArmaldo
p1304
sg31
g32
sg33
V57
p1305
sg35
(lp1306
VX-Scissor
p1307
aVRock Blast
p1308
aVMetal Claw
p1309
aVCrush Claw
p1310
asg41
g42
sg43
VBattle Armor
p1311
sbag1
(g24
g3
Ntp1312
Rp1313
(dp1314
g28
I376
sg29
VMetagross
p1315
sg31
g1119
sg33
V59
p1316
sg35
(lp1317
VBullet Punch
p1318
aVZen Headbutt
p1319
aVMeteor Mash
p1320
aVGiga Impact
p1321
asg41
VMetagrossite
p1322
sg43
VClear Body
p1323
sbasg90
I01
sg91
g221
sbag1
(g2
g3
Ntp1324
Rp1325
(dp1326
g7
VVSSteven.png
p1327
sg9
VChampion
p1328
sg11
VSteven Stone
p1329
sg13
V15,800
p1330
sg15
I6
sg16
g17
sg18
g19
sg20
g164
sg22
(lp1331
g1
(g24
g3
Ntp1332
Rp1333
(dp1334
g28
I227
sg29
VSkarmory
p1335
sg31
g32
sg33
V77
p1336
sg35
(lp1337
VToxic
p1338
aVAerial Ace
p1339
aVSpikes
p1340
aVSteel Wing
p1341
asg41
g42
sg43
VSturdy
p1342
sbag1
(g24
g3
Ntp1343
Rp1344
(dp1345
g28
I344
sg29
VClaydol
p1346
sg31
g1119
sg33
V77
p1347
sg35
(lp1348
VReflect
p1349
aVLight Screen
p1350
aVExtrasensory
p1351
aVEarth Power
p1352
asg41
g42
sg43
VLevitate
p1353
sbag1
(g24
g3
Ntp1354
Rp1355
(dp1356
g28
I306
sg29
VAggron
p1357
sg31
g32
sg33
V77
p1358
sg35
(lp1359
VStone Edge
p1360
aVEarthquake
p1361
aVIron Tail
p1362
aVDragon Claw
p1363
asg41
g42
sg43
VSturdy
p1364
sbag1
(g24
g3
Ntp1365
Rp1366
(dp1367
g28
I703
sg29
VCarbink
p1368
sg31
g1119
sg33
V77
p1369
sg35
(lp1370
VMoonblast
p1371
aVPower Gem
p1372
aVPsychic
p1373
aVEarth Power
p1374
asg41
g42
sg43
VClear Body
p1375
sbag1
(g24
g3
Ntp1376
Rp1377
(dp1378
g28
I142
sg29
VAerodactyl
p1379
sg31
g32
sg33
V77
p1380
sg35
(lp1381
VRock Slide
p1382
aVIce Fang
p1383
aVThunder Fang
p1384
aVFire Fang
p1385
asg41
g42
sg43
VPressure
p1386
sbag1
(g24
g3
Ntp1387
Rp1388
(dp1389
g28
I376
sg29
VMetagross
p1390
sg31
g1119
sg33
V79
p1391
sg35
(lp1392
VBullet Punch
p1393
aVZen Headbutt
p1394
aVMeteor Mash
p1395
aVGiga Impact
p1396
asg41
VMetagrossite
p1397
sg43
VClear Body
p1398
sbasg90
I01
sg91
g221
sba.