(lp0
ccopy_reg
_reconstructor
p1
(c__main__
Trainer
p2
c__builtin__
object
p3
Ntp4
Rp5
(dp6
VtSprite
p7
VVSHapu.png
p8
sVtClass
p9
VIsland Kahuna
p10
sVtName
p11
VHapu
p12
sVtMoney
p13
V8,640
p14
sVtPokeCount
p15
I4
sVtLocation
p16
Vwiki/Exeggutor_Island
p17
sVtRegion
p18
VAlola
p19
sVtGame
p20
VSM
p21
sVtPokes
p22
(lp23
g1
(c__main__
FinishedPokemon
p24
g3
Ntp25
Rp26
(dp27
VpDexNo
p28
I623
sVpSpecies
p29
VGolurk
p30
sVpGender
p31
VU
p32
sVpLevel
p33
V53
p34
sVpMoves
p35
(lp36
VHammer Arm
p37
aVEarthquake
p38
aVShadow Punch
p39
aVStealth Rock
p40
asVpHold
p41
V
p42
sVpAbility
p43
VNo Guard
p44
sbag1
(g24
g3
Ntp45
Rp46
(dp47
g28
I423
sg29
VGastrodon
p48
sg31
VF
p49
sg33
V53
p50
sg35
(lp51
VMuddy Water
p52
aVMud Bomb
p53
aVRecover
p54
asg41
g42
sg43
VSticky Hold
p55
sbag1
(g24
g3
Ntp56
Rp57
(dp58
g28
I330
sg29
VFlygon
p59
sg31
VM
p60
sg33
V53
p61
sg35
(lp62
VEarth Power
p63
aVDragon Breath
p64
asg41
g42
sg43
VLevitate
p65
sbag1
(g24
g3
Ntp66
Rp67
(dp68
g28
I750
sg29
VMudsdale
p69
sg31
g60
sg33
V54
p70
sg35
(lp71
VHeavy Slam
p72
aVEarthquake
p73
aVDouble Kick
p74
aVPayback
p75
asg41
VGroundium Z
p76
sg43
VStamina
p77
sbasVbossFlag
p78
I01
sVtLongGame
p79
Vsun-moon
p80
sba.