(lp0
ccopy_reg
_reconstructor
p1
(c__main__
Trainer
p2
c__builtin__
object
p3
Ntp4
Rp5
(dp6
VtSprite
p7
VVSTeam Rainbow Rocket Grunt M USUM.png
p8
sVtClass
p9
VTeam Rainbow Rocket Grunt
p10
sVtName
p11
V
p12
sVtMoney
p13
VN/A
p14
sVtPokeCount
p15
V3
p16
sVtLocation
p17
Vwiki/Festival_Plaza
p18
sVtRegion
p19
VAlola
p20
sVtGame
p21
VSM
p22
sVtPokes
p23
(lp24
g1
(c__main__
FinishedPokemon
p25
g3
Ntp26
Rp27
(dp28
VpDexNo
p29
V020
p30
sVpSpecies
p31
VRaticate
p32
sVpGender
p33
VU
p34
sVpLevel
p35
V50
p36
sVpMoves
p37
(lp38
Vcrunch
p39
aVendeavor
p40
aVassurance
p41
aVsucker-punch
p42
asVpHold
p43
g12
sVpAbility
p44
Vguts
p45
sbag1
(g25
g3
Ntp46
Rp47
(dp48
g29
V024
p49
sg31
VArbok
p50
sg33
g34
sg35
V50
p51
sg37
(lp52
Vgunk-shot
p53
aVcoil
p54
aVacid-spray
p55
aVbelch
p56
asg43
g12
sg44
Vshed-skin
p57
sbag1
(g25
g3
Ntp58
Rp59
(dp60
g29
V042
p61
sg31
VGolbat
p62
sg33
g34
sg35
V50
p63
sg37
(lp64
Vair-cutter
p65
aVair-slash
p66
aVvenoshock
p67
aVquick-guard
p68
asg43
g12
sg44
Vinner-focus
p69
sbasVbossFlag
p70
I00
sVtLongGame
p71
Vsun-moon
p72
sba.