(lp0
ccopy_reg
_reconstructor
p1
(c__main__
Trainer
p2
c__builtin__
object
p3
Ntp4
Rp5
(dp6
VtSprite
p7
VSpr FRLG Team Rocket Grunt M.png
p8
sVtClass
p9
VTeam Rocket Grunt
p10
sVtName
p11
V
p12
sVtMoney
p13
V1536
p14
sVtPokeCount
p15
V3
p16
sVtLocation
p17
Vwiki/Five_Isle_Meadow
p18
sVtRegion
p19
Vlands
p20
sVtGame
p21
VFRLG
p22
sVtPokes
p23
(lp24
g1
(c__main__
FinishedPokemon
p25
g3
Ntp26
Rp27
(dp28
VpDexNo
p29
V019
p30
sVpSpecies
p31
VRattata
p32
sVpGender
p33
VM
p34
sVpLevel
p35
V48
p36
sVpMoves
p37
(lp38
Vhyper-fang
p39
aVsuper-fang
p40
aVpursuit
p41
aVendeavor
p42
asVpHold
p43
g12
sVpAbility
p44
Vrun-away
p45
sbag1
(g25
g3
Ntp46
Rp47
(dp48
g29
V088
p49
sg31
VGrimer
p50
sg33
g34
sg35
V48
p51
sg37
(lp52
Vpoison-gas
p53
aVacid-armor
p54
aVsludge-bomb
p55
aVmemento
p56
asg43
g12
sg44
Vstench
p57
sbag1
(g25
g3
Ntp58
Rp59
(dp60
g29
V089
p61
sg31
VMuk
p62
sg33
g34
sg35
V48
p63
sg37
(lp64
Vpoison-gas
p65
aVacid-armor
p66
aVsludge-bomb
p67
aVmemento
p68
asg43
g12
sg44
Vsticky-hold
p69
sbasVbossFlag
p70
I00
sVtLongGame
p71
Vfirered-leafgreen
p72
sbag1
(g2
g3
Ntp73
Rp74
(dp75
g7
VSpr FRLG Team Rocket Grunt F.png
p76
sg9
VTeam Rocket Grunt
p77
sg11
g12
sg13
V1536
p78
sg15
g16
sg17
g18
sg19
g20
sg21
g22
sg23
(lp79
g1
(g25
g3
Ntp80
Rp81
(dp82
g29
V023
p83
sg31
VEkans
p84
sg33
g34
sg35
V48
p85
sg37
(lp86
Vglare
p87
aVstockpile
p88
aVspit-up
p89
aVswallow
p90
asg43
g12
sg44
Vshed-skin
p91
sbag1
(g25
g3
Ntp92
Rp93
(dp94
g29
V044
p95
sg31
VGloom
p96
sg33
g34
sg35
V48
p97
sg37
(lp98
Vpetal-dance
p99
aVsweet-scent
p100
ag100
aVmoonlight
p101
asg43
g12
sg44
Vchlorophyll
p102
sbag1
(g25
g3
Ntp103
Rp104
(dp105
g29
V044
p106
sg31
VGloom
p107
sg33
g34
sg35
V48
p108
sg37
(lp109
Vpetal-dance
p110
aVsweet-scent
p111
ag111
aVmoonlight
p112
asg43
g12
sg44
Vchlorophyll
p113
sbasg70
I00
sg71
g72
sbag1
(g2
g3
Ntp114
Rp115
(dp116
g7
VSpr FRLG Team Rocket Grunt M.png
p117
sg9
VTeam Rocket Grunt
p118
sg11
g12
sg13
V1568
p119
sg15
V2
p120
sg17
g18
sg19
g20
sg21
g22
sg23
(lp121
g1
(g25
g3
Ntp122
Rp123
(dp124
g29
V109
p125
sg31
VKoffing
p126
sg33
g34
sg35
V49
p127
sg37
(lp128
Vpoison-gas
p129
aVexplosion
p130
aVdestiny-bond
p131
aVmemento
p132
asg43
g12
sg44
Vlevitate
p133
sbag1
(g25
g3
Ntp134
Rp135
(dp136
g29
V110
p137
sg31
VWeezing
p138
sg33
g34
sg35
V49
p139
sg37
(lp140
Vpoison-gas
p141
aVexplosion
p142
aVdestiny-bond
p143
aVmemento
p144
asg43
g12
sg44
Vlevitate
p145
sbasg70
I00
sg71
g72
sba.