(lp0
ccopy_reg
_reconstructor
p1
(c__main__
Trainer
p2
c__builtin__
object
p3
Ntp4
Rp5
(dp6
VtSprite
p7
VSpr B2W2 Lass.png
p8
sVtClass
p9
VLass
p10
sVtName
p11
VMolly
p12
sVtMoney
p13
g1
(cmwparserfromhell.wikicode
Wikicode
p14
g3
Ntp15
Rp16
(dp17
V_nodes
p18
g1
(cmwparserfromhell.smart_list.smart_list
SmartList
p19
c__builtin__
list
p20
(lp21
g1
(cmwparserfromhell.nodes.text
Text
p22
g3
Ntp23
Rp24
(dp25
V_value
p26
V96
p27
sbatp28
Rp29
(dp30
V_children
p31
(dp32
sbsbsVtPokeCount
p33
V2
p34
sVtLocation
p35
Vwiki/Floccesy_Ranch
p36
sVtRegion
p37
VUnova
p38
sVtGame
p39
VB2W2
p40
sVtPokes
p41
(lp42
g1
(c__main__
FinishedPokemon
p43
g3
Ntp44
Rp45
(dp46
VpDexNo
p47
V509
p48
sVpSpecies
p49
VPurrloin
p50
sVpGender
p51
VF
p52
sVpLevel
p53
V6
p54
sVpMoves
p55
(lp56
Vnight-slash
p57
aVnasty-plot
p58
aVcaptivate
p59
aVhone-claws
p60
asVpHold
p61
V
p62
sVpAbility
p63
Vlimber
p64
sbag1
(g43
g3
Ntp65
Rp66
(dp67
g47
V540
p68
sg49
VSewaddle
p69
sg51
g52
sg53
g54
sg55
(lp70
Vendure
p71
aVbug-buzz
p72
aVbug-bite
p73
aVstruggle-bug
p74
asg61
g62
sg63
Vchlorophyll
p75
sbasVbossFlag
p76
I00
sVtLongGame
p77
Vblack-2-white-2
p78
sbag1
(g2
g3
Ntp79
Rp80
(dp81
g7
VSpr B2W2 Janitor.png
p82
sg9
VJanitor
p83
sg11
VOrville
p84
sg13
g1
(g14
g3
Ntp85
Rp86
(dp87
g18
g1
(g19
g20
(lp88
g1
(g22
g3
Ntp89
Rp90
(dp91
g26
V240
p92
sbatp93
Rp94
(dp95
g31
(dp96
sbsbsg33
g34
sg35
g36
sg37
g38
sg39
g40
sg41
(lp97
g1
(g43
g3
Ntp98
Rp99
(dp100
g47
V506
p101
sg49
VLillipup
p102
sg51
VM
p103
sg53
g54
sg55
(lp104
Vlast-resort
p105
aVgiga-impact
p106
aVretaliate
p107
aVwork-up
p108
asg61
g62
sg63
Vpickup
p109
sbag1
(g43
g3
Ntp110
Rp111
(dp112
g47
V179
p113
sg49
VMareep
p114
sg51
g103
sg53
g54
sg55
(lp115
Vpower-gem
p116
aVdischarge
p117
aVelectro-ball
p118
aVcotton-guard
p119
asg61
g62
sg63
Vstatic
p120
sbasg76
I00
sg77
g78
sbag1
(g2
g3
Ntp121
Rp122
(dp123
g7
VSpr B2W2 Youngster.png
p124
sg9
VYoungster
p125
sg11
VKenny
p126
sg13
g1
(g14
g3
Ntp127
Rp128
(dp129
g18
g1
(g19
g20
(lp130
g1
(g22
g3
Ntp131
Rp132
(dp133
g26
V96
p134
sbatp135
Rp136
(dp137
g31
(dp138
sbsbsg33
g34
sg35
g36
sg37
g38
sg39
g40
sg41
(lp139
g1
(g43
g3
Ntp140
Rp141
(dp142
g47
V504
p143
sg49
VPatrat
p144
sg51
g103
sg53
g54
sg55
(lp145
Vbaton-pass
p146
aVcrunch
p147
aVafter-you
p148
aVwork-up
p149
asg61
g62
sg63
Vkeen-eye
p150
sbag1
(g43
g3
Ntp151
Rp152
(dp153
g47
V054
p154
sg49
VPsyduck
p155
sg51
g103
sg53
g54
sg55
(lp156
Vaqua-tail
p157
aVzen-headbutt
p158
aVwonder-room
p159
aVsoak
p160
asg61
g62
sg63
Vcloud-nine
p161
sbasg76
I00
sg77
g78
sbag1
(g2
g3
Ntp162
Rp163
(dp164
g7
VSpr B2W2 Hugh.png
p165
sg9
VPokemon Trainer
p166
sg11
VHugh
p167
sg13
g1
(g14
g3
Ntp168
Rp169
(dp170
g18
g1
(g19
g20
(lp171
g1
(g22
g3
Ntp172
Rp173
(dp174
g26
V800
p175
sbatp176
Rp177
(dp178
g31
(dp179
sbsbsg33
I1
sg35
g36
sg37
g38
sg39
g40
sg41
(lp180
g1
(g43
g3
Ntp181
Rp182
(dp183
g47
I498
sg49
VTepig
p184
sg51
g103
sg53
g1
(g14
g3
Ntp185
Rp186
(dp187
g18
g1
(g19
g20
(lp188
g1
(g22
g3
Ntp189
Rp190
(dp191
g26
V8
p192
sbatp193
Rp194
(dp195
g31
(dp196
sbsbsg55
(lp197
VTackle
p198
aVTail Whip
p199
asg61
g62
sg63
VBlaze
p200
sbasg76
I01
sg77
g78
sbag1
(g2
g3
Ntp201
Rp202
(dp203
g7
VSpr B2W2 Hugh.png
p204
sg9
VPokemon Trainer
p205
sg11
VHugh
p206
sg13
g1
(g14
g3
Ntp207
Rp208
(dp209
g18
g1
(g19
g20
(lp210
g1
(g22
g3
Ntp211
Rp212
(dp213
g26
V800
p214
sbatp215
Rp216
(dp217
g31
(dp218
sbsbsg33
I1
sg35
g36
sg37
g38
sg39
g40
sg41
(lp219
g1
(g43
g3
Ntp220
Rp221
(dp222
g47
I501
sg49
VOshawott
p223
sg51
g103
sg53
g1
(g14
g3
Ntp224
Rp225
(dp226
g18
g1
(g19
g20
(lp227
g1
(g22
g3
Ntp228
Rp229
(dp230
g26
g192
sbatp231
Rp232
(dp233
g31
(dp234
sbsbsg55
(lp235
VTackle
p236
aVTail Whip
p237
asg61
g62
sg63
VTorrent
p238
sbasg76
I01
sg77
g78
sbag1
(g2
g3
Ntp239
Rp240
(dp241
g7
VSpr B2W2 Hugh.png
p242
sg9
VPokemon Trainer
p243
sg11
VHugh
p244
sg13
g1
(g14
g3
Ntp245
Rp246
(dp247
g18
g1
(g19
g20
(lp248
g1
(g22
g3
Ntp249
Rp250
(dp251
g26
V800
p252
sbatp253
Rp254
(dp255
g31
(dp256
sbsbsg33
I1
sg35
g36
sg37
g38
sg39
g40
sg41
(lp257
g1
(g43
g3
Ntp258
Rp259
(dp260
g47
I495
sg49
VSnivy
p261
sg51
g103
sg53
g1
(g14
g3
Ntp262
Rp263
(dp264
g18
g1
(g19
g20
(lp265
g1
(g22
g3
Ntp266
Rp267
(dp268
g26
g192
sbatp269
Rp270
(dp271
g31
(dp272
sbsbsg55
(lp273
VTackle
p274
aVLeer
p275
asg61
g62
sg63
VOvergrow
p276
sbasg76
I01
sg77
g78
sba.