(lp0
ccopy_reg
_reconstructor
p1
(c__main__
Trainer
p2
c__builtin__
object
p3
Ntp4
Rp5
(dp6
VtSprite
p7
VSpr B2W2 School Kid M.png
p8
sVtClass
p9
VSchool Kid
p10
sVtName
p11
VSeymour
p12
sVtMoney
p13
g1
(cmwparserfromhell.wikicode
Wikicode
p14
g3
Ntp15
Rp16
(dp17
V_nodes
p18
g1
(cmwparserfromhell.smart_list.smart_list
SmartList
p19
c__builtin__
list
p20
(lp21
g1
(cmwparserfromhell.nodes.text
Text
p22
g3
Ntp23
Rp24
(dp25
V_value
p26
V180
p27
sbatp28
Rp29
(dp30
V_children
p31
(dp32
sbsbsVtPokeCount
p33
V1
p34
sVtLocation
p35
Vwiki/Floccesy_Town
p36
sVtRegion
p37
VUnova
p38
sVtGame
p39
VB2W2
p40
sVtPokes
p41
(lp42
g1
(c__main__
FinishedPokemon
p43
g3
Ntp44
Rp45
(dp46
VpDexNo
p47
V515
p48
sVpSpecies
p49
VPanpour
p50
sVpGender
p51
VM
p52
sVpLevel
p53
V9
p54
sVpMoves
p55
(lp56
Vnatural-gift
p57
aVfling
p58
aVscald
p59
aVacrobatics
p60
asVpHold
p61
V
p62
sVpAbility
p63
Vgluttony
p64
sbasVbossFlag
p65
I00
sVtLongGame
p66
Vblack-2-white-2
p67
sbag1
(g2
g3
Ntp68
Rp69
(dp70
g7
VSpr B2W2 School Kid F.png
p71
sg9
VSchool Kid
p72
sg11
VCassie
p73
sg13
g1
(g14
g3
Ntp74
Rp75
(dp76
g18
g1
(g19
g20
(lp77
g1
(g22
g3
Ntp78
Rp79
(dp80
g26
V180
p81
sbatp82
Rp83
(dp84
g31
(dp85
sbsbsg33
g34
sg35
g36
sg37
g38
sg39
g40
sg41
(lp86
g1
(g43
g3
Ntp87
Rp88
(dp89
g47
V513
p90
sg49
VPansear
p91
sg51
g52
sg53
g54
sg55
(lp92
Vfling
p93
aVflame-burst
p94
aVincinerate
p95
aVacrobatics
p96
asg61
g62
sg63
Vgluttony
p97
sbasg65
I00
sg66
g67
sbag1
(g2
g3
Ntp98
Rp99
(dp100
g7
VSpr B2W2 School Kid M.png
p101
sg9
VSchool Kid
p102
sg11
VSeymour
p103
sg13
g1
(g14
g3
Ntp104
Rp105
(dp106
g18
g1
(g19
g20
(lp107
g1
(g22
g3
Ntp108
Rp109
(dp110
g26
V180
p111
sbatp112
Rp113
(dp114
g31
(dp115
sbsbsg33
g34
sg35
g36
sg37
g38
sg39
g40
sg41
(lp116
g1
(g43
g3
Ntp117
Rp118
(dp119
g47
V511
p120
sg49
VPansage
p121
sg51
g52
sg53
g54
sg55
(lp122
Vfling
p123
aVseed-bomb
p124
aVgrass-knot
p125
aVacrobatics
p126
asg61
g62
sg63
Vgluttony
p127
sbasg65
I00
sg66
g67
sbag1
(g2
g3
Ntp128
Rp129
(dp130
g7
VSpr B2W2 School Kid F.png
p131
sg9
VSchool Kid
p132
sg11
VCassie
p133
sg13
g1
(g14
g3
Ntp134
Rp135
(dp136
g18
g1
(g19
g20
(lp137
g1
(g22
g3
Ntp138
Rp139
(dp140
g26
V180
p141
sbatp142
Rp143
(dp144
g31
(dp145
sbsbsg33
g34
sg35
g36
sg37
g38
sg39
g40
sg41
(lp146
g1
(g43
g3
Ntp147
Rp148
(dp149
g47
V515
p150
sg49
VPanpour
p151
sg51
g52
sg53
g54
sg55
(lp152
Vnatural-gift
p153
aVfling
p154
aVscald
p155
aVacrobatics
p156
asg61
g62
sg63
Vgluttony
p157
sbasg65
I00
sg66
g67
sbag1
(g2
g3
Ntp158
Rp159
(dp160
g7
VSpr B2W2 School Kid M.png
p161
sg9
VSchool Kid
p162
sg11
VSeymour
p163
sg13
g1
(g14
g3
Ntp164
Rp165
(dp166
g18
g1
(g19
g20
(lp167
g1
(g22
g3
Ntp168
Rp169
(dp170
g26
V180
p171
sbatp172
Rp173
(dp174
g31
(dp175
sbsbsg33
g34
sg35
g36
sg37
g38
sg39
g40
sg41
(lp176
g1
(g43
g3
Ntp177
Rp178
(dp179
g47
V513
p180
sg49
VPansear
p181
sg51
g52
sg53
g54
sg55
(lp182
Vfling
p183
aVflame-burst
p184
aVincinerate
p185
aVacrobatics
p186
asg61
g62
sg63
Vgluttony
p187
sbasg65
I00
sg66
g67
sbag1
(g2
g3
Ntp188
Rp189
(dp190
g7
VSpr B2W2 School Kid F.png
p191
sg9
VSchool Kid
p192
sg11
VCassie
p193
sg13
g1
(g14
g3
Ntp194
Rp195
(dp196
g18
g1
(g19
g20
(lp197
g1
(g22
g3
Ntp198
Rp199
(dp200
g26
V180
p201
sbatp202
Rp203
(dp204
g31
(dp205
sbsbsg33
g34
sg35
g36
sg37
g38
sg39
g40
sg41
(lp206
g1
(g43
g3
Ntp207
Rp208
(dp209
g47
V511
p210
sg49
VPansage
p211
sg51
g52
sg53
g54
sg55
(lp212
Vfling
p213
aVseed-bomb
p214
aVgrass-knot
p215
aVacrobatics
p216
asg61
g62
sg63
Vgluttony
p217
sbasg65
I00
sg66
g67
sbag1
(g2
g3
Ntp218
Rp219
(dp220
g7
VSpr B2W2 Alder.png
p221
sg9
VPokemon Trainer
p222
sg11
VAlder
p223
sg13
g1
(g14
g3
Ntp224
Rp225
(dp226
g18
g1
(g19
g20
(lp227
g1
(g22
g3
Ntp228
Rp229
(dp230
g26
V12400
p231
sbatp232
Rp233
(dp234
g31
(dp235
sbsbsg33
I6
sg35
g36
sg37
g38
sg39
g40
sg41
(lp236
g1
(g43
g3
Ntp237
Rp238
(dp239
g47
I617
sg49
VAccelgor
p240
sg51
g52
sg53
g1
(g14
g3
Ntp241
Rp242
(dp243
g18
g1
(g19
g20
(lp244
g1
(g22
g3
Ntp245
Rp246
(dp247
g26
V60
p248
sbatp249
Rp250
(dp251
g31
(dp252
sbsbsg55
(lp253
VFocus Blast
p254
aVAcid Spray
p255
aVGiga Drain
p256
aVBug Buzz
p257
asg61
g62
sg63
VSticky Hold
p258
sbag1
(g43
g3
Ntp259
Rp260
(dp261
g47
I589
sg49
VEscavalier
p262
sg51
g52
sg53
g1
(g14
g3
Ntp263
Rp264
(dp265
g18
g1
(g19
g20
(lp266
g1
(g22
g3
Ntp267
Rp268
(dp269
g26
V60
p270
sbatp271
Rp272
(dp273
g31
(dp274
sbsbsg55
(lp275
VX-Scissor
p276
aVSwords Dance
p277
aVIron Head
p278
aVReversal
p279
asg61
g62
sg63
VShell Armor
p280
sbag1
(g43
g3
Ntp281
Rp282
(dp283
g47
I626
sg49
VBouffalant
p284
sg51
g52
sg53
g1
(g14
g3
Ntp285
Rp286
(dp287
g18
g1
(g19
g20
(lp288
g1
(g22
g3
Ntp289
Rp290
(dp291
g26
V60
p292
sbatp293
Rp294
(dp295
g31
(dp296
sbsbsg55
(lp297
VWild Charge
p298
aVEarthquake
p299
aVMegahorn
p300
aVHead Charge
p301
asg61
g62
sg63
VReckless
p302
sbag1
(g43
g3
Ntp303
Rp304
(dp305
g47
I534
sg49
VConkeldurr
p306
sg51
g52
sg53
g1
(g14
g3
Ntp307
Rp308
(dp309
g18
g1
(g19
g20
(lp310
g1
(g22
g3
Ntp311
Rp312
(dp313
g26
V60
p314
sbatp315
Rp316
(dp317
g31
(dp318
sbsbsg55
(lp319
VStone Edge
p320
aVSuperpower
p321
aVEarthquake
p322
aVPoison Jab
p323
asg61
g62
sg63
VGuts
p324
sbag1
(g43
g3
Ntp325
Rp326
(dp327
g47
I628
sg49
VBraviary
p328
sg51
g52
sg53
g1
(g14
g3
Ntp329
Rp330
(dp331
g18
g1
(g19
g20
(lp332
g1
(g22
g3
Ntp333
Rp334
(dp335
g26
V60
p336
sbatp337
Rp338
(dp339
g31
(dp340
sbsbsg55
(lp341
VCrush Claw
p342
aVSuperpower
p343
aVRock Slide
p344
aVAerial Ace
p345
asg61
g62
sg63
VKeen Eye
p346
sbag1
(g43
g3
Ntp347
Rp348
(dp349
g47
I637
sg49
VVolcarona
p350
sg51
g52
sg53
g1
(g14
g3
Ntp351
Rp352
(dp353
g18
g1
(g19
g20
(lp354
g1
(g22
g3
Ntp355
Rp356
(dp357
g26
V62
p358
sbatp359
Rp360
(dp361
g31
(dp362
sbsbsg55
(lp363
VQuiver Dance
p364
aVSilver Wind
p365
aVHeat Wave
p366
aVPsychic
p367
asg61
VSitrus Berry
p368
sg63
VFlame Body
p369
sbasg65
I01
sg66
g67
sba.