(lp0
ccopy_reg
_reconstructor
p1
(c__main__
Trainer
p2
c__builtin__
object
p3
Ntp4
Rp5
(dp6
VtSprite
p7
VVSAarune.png
p8
sVtClass
p9
VSecret Base Expert
p10
sVtName
p11
VAarune
p12
sVtMoney
p13
V1,380
p14
sVtPokeCount
p15
I1
sVtLocation
p16
Vwiki/Fortree_City
p17
sVtRegion
p18
VHoenn
p19
sVtGame
p20
VSM
p21
sVtPokes
p22
(lp23
g1
(c__main__
FinishedPokemon
p24
g3
Ntp25
Rp26
(dp27
VpDexNo
p28
I330
sVpSpecies
p29
VFlygon
p30
sVpGender
p31
VM
p32
sVpLevel
p33
V23
p34
sVpMoves
p35
(lp36
VSecret Power
p37
aVFly
p38
aVEarth Power
p39
aVDragon Claw
p40
asVpHold
p41
VNormal Gem
p42
sVpAbility
p43
VLevitate
p44
sbasVbossFlag
p45
I01
sVtLongGame
p46
Vsun-moon
p47
sbag1
(g2
g3
Ntp48
Rp49
(dp50
g7
VVSAarune.png
p51
sg9
VSecret Base Expert
p52
sg11
VAarune
p53
sg13
V3,180
p54
sg15
I1
sg16
g17
sg18
g19
sg20
g21
sg22
(lp55
g1
(g24
g3
Ntp56
Rp57
(dp58
g28
I330
sg29
VFlygon
p59
sg31
g32
sg33
V53
p60
sg35
(lp61
VSecret Power
p62
aVFly
p63
aVEarthquake
p64
aVDragon Rush
p65
asg41
VNormal Gem
p66
sg43
VLevitate
p67
sbasg45
I01
sg46
g47
sba.