(lp0
ccopy_reg
_reconstructor
p1
(c__main__
Trainer
p2
c__builtin__
object
p3
Ntp4
Rp5
(dp6
VtSprite
p7
VVSHiker.png
p8
sVtClass
p9
VHiker
p10
sVtName
p11
VRoss
p12
sVtMoney
p13
V2,464
p14
sVtPokeCount
p15
V1
p16
sVtLocation
p17
Vwiki/Frost_Cavern
p18
sVtRegion
p19
VKalos
p20
sVtGame
p21
VSM
p22
sVtPokes
p23
(lp24
g1
(c__main__
FinishedPokemon
p25
g3
Ntp26
Rp27
(dp28
VpDexNo
p29
V329
p30
sVpSpecies
p31
VVibrava
p32
sVpGender
p33
VM
p34
sVpLevel
p35
V44
p36
sVpMoves
p37
(lp38
Vbug-buzz
p39
aVearth-power
p40
aVbulldoze
p41
aVboomburst
p42
asVpHold
p43
V
p44
sVpAbility
p45
Vlevitate
p46
sbasVbossFlag
p47
I00
sVtLongGame
p48
Vsun-moon
p49
sbag1
(g2
g3
Ntp50
Rp51
(dp52
g7
VVSSky Trainer M.png
p53
sg9
VSky Trainer
p54
sg11
VCelso
p55
sg13
V4,400
p56
sg15
V2
p57
sg17
g18
sg19
g20
sg21
VSM
p58
sg23
(lp59
g1
(g25
g3
Ntp60
Rp61
(dp62
g29
V455
p63
sg31
VCarnivine
p64
sg33
g34
sg35
V41
p65
sg37
(lp66
Vingrain
p67
aVwring-out
p68
aVpower-whip
p69
aVleaf-tornado
p70
asg43
g44
sg45
Vlevitate
p71
sbag1
(g25
g3
Ntp72
Rp73
(dp74
g29
V581
p75
sg31
VSwanna
p76
sg33
g34
sg35
V44
p77
sg37
(lp78
Vbrave-bird
p79
aVdefog
p80
ag80
aVhurricane
p81
asg43
g44
sg45
Vkeen-eye
p82
sbasg47
I00
sg48
g49
sbag1
(g2
g3
Ntp83
Rp84
(dp85
g7
VVSSky Trainer F.png
p86
sg9
VSky Trainer
p87
sg11
VEra
p88
sg13
V4,500
p89
sg15
g16
sg17
g18
sg19
g20
sg21
VSM
p90
sg23
(lp91
g1
(g25
g3
Ntp92
Rp93
(dp94
g29
V615
p95
sg31
VCryogonal
p96
sg33
VU
p97
sg35
V45
p98
sg37
(lp99
Vnight-slash
p100
ag100
aVice-shard
p101
aVfreeze-dry
p102
asg43
g44
sg45
Vlevitate
p103
sbasg47
I00
sg48
g49
sbag1
(g2
g3
Ntp104
Rp105
(dp106
g7
VVSArtist M.png
p107
sg9
VArtist
p108
sg11
VSalvador
p109
sg13
V2,464
p110
sg15
g16
sg17
g18
sg19
g20
sg21
VSM
p111
sg23
(lp112
g1
(g25
g3
Ntp113
Rp114
(dp115
g29
V235
p116
sg31
VSmeargle
p117
sg33
g34
sg35
V44
p118
sg37
(lp119
Vsketch
p120
ag120
ag120
ag120
asg43
g44
sg45
Vown-tempo
p121
sbasg47
I00
sg48
g49
sbag1
(g2
g3
Ntp122
Rp123
(dp124
g7
VVSAce Trainer F.png
p125
sg9
VAce Trainer
p126
sg11
VCordelia
p127
sg13
V4,600
p128
sg15
g16
sg17
g18
sg19
g20
sg21
VSM
p129
sg23
(lp130
g1
(g25
g3
Ntp131
Rp132
(dp133
g29
V680
p134
sg31
VDoublade
p135
sg33
VF
p136
sg35
V46
p137
sg37
(lp138
Viron-head
p139
aVautotomize
p140
aVretaliate
p141
aVsacred-sword
p142
asg43
g44
sg45
Vno-guard
p143
sbasg47
I00
sg48
g49
sbag1
(g2
g3
Ntp144
Rp145
(dp146
g7
VVSAce Trainer M.png
p147
sg9
VAce Trainer
p148
sg11
VNeil
p149
sg13
V4,300
p150
sg15
V3
p151
sg17
g18
sg19
g20
sg21
VSM
p152
sg23
(lp153
g1
(g25
g3
Ntp154
Rp155
(dp156
g29
V026
p157
sg31
VRaichu
p158
sg33
g34
sg35
V42
p159
sg37
(lp160
Vtail-whip
p161
aVthunder-shock
p162
aVthunderbolt
p163
aVquick-attack
p164
asg43
g44
sg45
Vstatic
p165
sbag1
(g25
g3
Ntp166
Rp167
(dp168
g29
V055
p169
sg31
VGolduck
p170
sg33
g34
sg35
V42
p171
sg37
(lp172
Vzen-headbutt
p173
aVaqua-jet
p174
aVwonder-room
p175
aVsoak
p176
asg43
g44
sg45
Vdamp
p177
sbag1
(g25
g3
Ntp178
Rp179
(dp180
g29
V105
p181
sg31
VMarowak
p182
sg33
g34
sg35
V43
p183
sg37
(lp184
Vendeavor
p185
aVfling
p186
aVretaliate
p187
aVstomping-tantrum
p188
asg43
g44
sg45
Vrock-head
p189
sbasg47
I00
sg48
g49
sbag1
(g2
g3
Ntp190
Rp191
(dp192
g7
VVSHiker.png
p193
sg9
VHiker
p194
sg11
VAlain
p195
sg13
V2,352
p196
sg15
g151
sg17
g18
sg19
g20
sg21
g22
sg23
(lp197
g1
(g25
g3
Ntp198
Rp199
(dp200
g29
V075
p201
sg31
VGraveler
p202
sg33
g34
sg35
V40
p203
sg37
(lp204
Vstone-edge
p205
aVstealth-rock
p206
aVsmack-down
p207
aVbulldoze
p208
asg43
g44
sg45
Vrock-head
p209
sbag1
(g25
g3
Ntp210
Rp211
(dp212
g29
V075
p213
sg31
VGraveler
p214
sg33
g34
sg35
V41
p215
sg37
(lp216
Vstone-edge
p217
aVstealth-rock
p218
aVsmack-down
p219
aVbulldoze
p220
asg43
g44
sg45
Vsturdy
p221
sbag1
(g25
g3
Ntp222
Rp223
(dp224
g29
V703
p225
sg31
VCarbink
p226
sg33
g97
sg35
V42
p227
sg37
(lp228
Vstealth-rock
p229
aVguard-split
p230
aVsmack-down
p231
aVmoonblast
p232
asg43
g44
sg45
Vclear-body
p233
sbasg47
I00
sg48
g49
sbag1
(g2
g3
Ntp234
Rp235
(dp236
g7
VVSHiker.png
p237
sg9
VHiker
p238
sg11
VDelmon
p239
sg13
V2,352
p240
sg15
g57
sg17
g18
sg19
g20
sg21
g22
sg23
(lp241
g1
(g25
g3
Ntp242
Rp243
(dp244
g29
V369
p245
sg31
VRelicanth
p246
sg33
g34
sg35
V42
p247
sg37
(lp248
Vmud-sport
p249
aVrock-tomb
p250
aVhead-smash
p251
ag251
asg43
g44
sg45
Vswift-swim
p252
sbag1
(g25
g3
Ntp253
Rp254
(dp255
g29
V112
p256
sg31
VRhydon
p257
sg33
g34
sg35
V42
p258
sg37
(lp259
Vsmack-down
p260
aVchip-away
p261
aVbulldoze
p262
aVdrill-run
p263
asg43
g44
sg45
Vrock-head
p264
sbasg47
I00
sg48
g49
sbag1
(g2
g3
Ntp265
Rp266
(dp267
g7
VVSBrains & Brawn.png
p268
sg9
VBrains & Brawn
p269
sg11
VEoin & Wolf
p270
sg13
V4,784
p271
sg15
g57
sg17
g18
sg19
g20
sg21
VSM
p272
sg23
(lp273
g1
(g25
g3
Ntp274
Rp275
(dp276
g29
V326
p277
sg31
VGrumpig
p278
sg33
g34
sg35
V44
p279
sg37
(lp280
Vpower-gem
p281
aVzen-headbutt
p282
aVpsyshock
p283
aVbelch
p284
asg43
g44
sg45
Vthick-fat
p285
sbag1
(g25
g3
Ntp286
Rp287
(dp288
g29
V297
p289
sg31
VHariyama
p290
sg33
g34
sg35
V46
p291
sg37
(lp292
Vbrine
p293
aVclose-combat
p294
aVforce-palm
p295
aVheavy-slam
p296
asg43
g44
sg45
Vthick-fat
p297
sbasg47
I00
sg48
g49
sbag1
(g2
g3
Ntp298
Rp299
(dp300
g7
VVSBlack Belt.png
p301
sg9
VBlack Belt
p302
sg11
VAlonzo
p303
sg13
V2,112
p304
sg15
g57
sg17
g18
sg19
g20
sg21
VSM
p305
sg23
(lp306
g1
(g25
g3
Ntp307
Rp308
(dp309
g29
V560
p310
sg31
VScrafty
p311
sg33
g34
sg35
V43
p312
sg37
(lp313
Vpayback
p314
aVrock-climb
p315
aVhead-smash
p316
aVchip-away
p317
asg43
g44
sg45
Vshed-skin
p318
sbag1
(g25
g3
Ntp319
Rp320
(dp321
g29
V538
p322
sg31
VThroh
p323
sg33
g34
sg35
V44
p324
sg37
(lp325
Vwide-guard
p326
aVstorm-throw
p327
aVcircle-throw
p328
aVmat-block
p329
asg43
g44
sg45
Vinner-focus
p330
sbasg47
I00
sg48
g49
sbag1
(g2
g3
Ntp331
Rp332
(dp333
g7
VVSBattle Girl.png
p334
sg9
VBattle Girl
p335
sg11
VKinsey
p336
sg13
V2,112
p337
sg15
g57
sg17
g18
sg19
g20
sg21
VSM
p338
sg23
(lp339
g1
(g25
g3
Ntp340
Rp341
(dp342
g29
V539
p343
sg31
VSawk
p344
sg33
g34
sg35
V43
p345
sg37
(lp346
Vclose-combat
p347
aVlow-sweep
p348
aVquick-guard
p349
aVretaliate
p350
asg43
g44
sg45
Vinner-focus
p351
sbag1
(g25
g3
Ntp352
Rp353
(dp354
g29
V620
p355
sg31
VMienshao
p356
sg33
g136
sg35
V44
p357
sg37
(lp358
Vaura-sphere
p359
ag359
aVdrain-punch
p360
aVwide-guard
p361
asg43
g44
sg45
Vinner-focus
p362
sbasg47
I00
sg48
g49
sbag1
(g2
g3
Ntp363
Rp364
(dp365
g7
VVSBlack Belt.png
p366
sg9
VBlack Belt
p367
sg11
VKenji
p368
sg13
V2,208
p369
sg15
g16
sg17
g18
sg19
g20
sg21
g305
sg23
(lp370
g1
(g25
g3
Ntp371
Rp372
(dp373
g29
V533
p374
sg31
VGurdurr
p375
sg33
g34
sg35
V46
p376
sg37
(lp377
Vwake-up-slap
p378
aVhammer-arm
p379
aVstone-edge
p380
aVchip-away
p381
asg43
g44
sg45
Vsheer-force
p382
sbasg47
I00
sg48
g49
sbag1
(g2
g3
Ntp383
Rp384
(dp385
g7
VVSHiker.png
p386
sg9
VHiker
p387
sg11
VBrent
p388
sg13
V2,464
p389
sg15
g16
sg17
g18
sg19
g20
sg21
g22
sg23
(lp390
g1
(g25
g3
Ntp391
Rp392
(dp393
g29
V476
p394
sg31
VProbopass
p395
sg33
g34
sg35
V44
p396
sg37
(lp397
Vmagnet-bomb
p398
aVstone-edge
p399
aVwide-guard
p400
aVmagnetic-flux
p401
asg43
g44
sg45
Vsturdy
p402
sbasg47
I00
sg48
g49
sbag1
(g2
g3
Ntp403
Rp404
(dp405
g7
VVSBattle Girl.png
p406
sg9
VBattle Girl
p407
sg11
VGabrielle
p408
sg13
V2,208
p409
sg15
g16
sg17
g18
sg19
g20
sg21
g338
sg23
(lp410
g1
(g25
g3
Ntp411
Rp412
(dp413
g29
V308
p414
sg31
VMedicham
p415
sg33
g136
sg35
V46
p416
sg37
(lp417
Vacupressure
p418
aVpower-trick
p419
aVforce-palm
p420
aVzen-headbutt
p421
asg43
g44
sg45
Vpure-power
p422
sbasg47
I00
sg48
g49
sbag1
(g2
g3
Ntp423
Rp424
(dp425
g7
VVSTeam Flare Grunt F.png
p426
sg9
VTeam Flare Grunt
p427
sg11
g44
sg13
V1,680
p428
sg15
g57
sg17
g18
sg19
g20
sg21
VSM
p429
sg23
(lp430
g1
(g25
g3
Ntp431
Rp432
(dp433
g29
V042
p434
sg31
VGolbat
p435
sg33
g136
sg35
V42
p436
sg37
(lp437
Vair-cutter
p438
aVair-slash
p439
aVvenoshock
p440
aVquick-guard
p441
asg43
g44
sg45
Vinner-focus
p442
sbag1
(g25
g3
Ntp443
Rp444
(dp445
g29
V310
p446
sg31
VManectric
p447
sg33
g136
sg35
V42
p448
sg37
(lp449
Vdischarge
p450
aVwild-charge
p451
aVelectric-terrain
p452
ag452
asg43
g44
sg45
Vlightning-rod
p453
sbasg47
I00
sg48
g49
sbag1
(g2
g3
Ntp454
Rp455
(dp456
g7
VVSMable.png
p457
sg9
VTeam Flare
p458
sg11
VMable
p459
sg13
V6,720
p460
sg15
I1
sg17
g18
sg19
g20
sg21
VSM
p461
sg23
(lp462
g1
(g25
g3
Ntp463
Rp464
(dp465
g29
I229
sg31
VHoundoom
p466
sg33
g136
sg35
V48
p467
sg37
(lp468
VEmbargo
p469
aVFoul Play
p470
aVFire Fang
p471
aVFeint Attack
p472
asg43
g44
sg45
VFlash Fire
p473
sbasg47
I01
sg48
g49
sba.