(lp0
ccopy_reg
_reconstructor
p1
(c__main__
Trainer
p2
c__builtin__
object
p3
Ntp4
Rp5
(dp6
VtSprite
p7
VSpr RG Juggler.png
p8
sVtClass
p9
VJuggler
p10
sVtName
p11
V
p12
sVtMoney
p13
V1190
p14
sVtPokeCount
p15
V2
p16
sVtLocation
p17
Vwiki/Fuchsia_Gym
p18
sVtRegion
p19
VKanto
p20
sVtGame
p21
VRGB
p22
sVtPokes
p23
(lp24
g1
(c__main__
FinishedPokemon
p25
g3
Ntp26
Rp27
(dp28
VpDexNo
p29
V096
p30
sVpSpecies
p31
VDrowzee
p32
sVpGender
p33
VU
p34
sVpLevel
p35
V34
p36
sVpMoves
p37
(lp38
Vpsychic
p39
aVhypnosis
p40
aVmeditate
p41
aVpoison-gas
p42
asVpHold
p43
g12
sVpAbility
p44
Vinsomnia
p45
sbag1
(g25
g3
Ntp46
Rp47
(dp48
g29
V064
p49
sg31
VKadabra
p50
sg33
g34
sg35
V34
p51
sg37
(lp52
Vpsychic
p53
aVteleport
p54
aVrecover
p55
aVreflect
p56
asg43
g12
sg44
Vinner-focus
p57
sbasVbossFlag
p58
I00
sVtLongGame
p59
Vred-blue
p60
sbag1
(g2
g3
Ntp61
Rp62
(dp63
g7
VSpr RG Juggler.png
p64
sg9
VJuggler
p65
sg11
g12
sg13
V1330
p66
sg15
V1
p67
sg17
g18
sg19
g20
sg21
g22
sg23
(lp68
g1
(g25
g3
Ntp69
Rp70
(dp71
g29
V097
p72
sg31
VHypno
p73
sg33
g34
sg35
V38
p74
sg37
(lp75
Vpsychic
p76
aVhypnosis
p77
aVmeditate
p78
aVpoison-gas
p79
asg43
g12
sg44
Vinsomnia
p80
sbasg58
I00
sg59
g60
sbag1
(g2
g3
Ntp81
Rp82
(dp83
g7
VSpr RG Juggler.png
p84
sg9
VJuggler
p85
sg11
g12
sg13
V1085
p86
sg15
V4
p87
sg17
g18
sg19
g20
sg21
g22
sg23
(lp88
g1
(g25
g3
Ntp89
Rp90
(dp91
g29
V096
p92
sg31
VDrowzee
p93
sg33
g34
sg35
V31
p94
sg37
(lp95
Vpsychic
p96
aVhypnosis
p97
aVmeditate
p98
aVpoison-gas
p99
asg43
g12
sg44
Vforewarn
p100
sbag1
(g25
g3
Ntp101
Rp102
(dp103
g29
V096
p104
sg31
VDrowzee
p105
sg33
g34
sg35
V31
p106
sg37
(lp107
Vpsychic
p108
aVhypnosis
p109
aVmeditate
p110
aVpoison-gas
p111
asg43
g12
sg44
Vinsomnia
p112
sbag1
(g25
g3
Ntp113
Rp114
(dp115
g29
V064
p116
sg31
VKadabra
p117
sg33
g34
sg35
V31
p118
sg37
(lp119
Vpsychic
p120
aVteleport
p121
aVrecover
p122
aVreflect
p123
asg43
g12
sg44
Vsynchronize
p124
sbag1
(g25
g3
Ntp125
Rp126
(dp127
g29
V096
p128
sg31
VDrowzee
p129
sg33
g34
sg35
V31
p130
sg37
(lp131
Vpsychic
p132
aVhypnosis
p133
aVmeditate
p134
aVpoison-gas
p135
asg43
g12
sg44
Vforewarn
p136
sbasg58
I00
sg59
g60
sbag1
(g2
g3
Ntp137
Rp138
(dp139
g7
VSpr RG Tamer.png
p140
sg9
VTamer
p141
sg11
g12
sg13
V1320
p142
sg15
V3
p143
sg17
g18
sg19
g20
sg21
g22
sg23
(lp144
g1
(g25
g3
Ntp145
Rp146
(dp147
g29
V024
p148
sg31
VArbok
p149
sg33
g34
sg35
V33
p150
sg37
(lp151
Vbite
p152
aVacid
p153
aVscreech
p154
aVglare
p155
asg43
g12
sg44
Vshed-skin
p156
sbag1
(g25
g3
Ntp157
Rp158
(dp159
g29
V028
p160
sg31
VSandslash
p161
sg33
g34
sg35
V33
p162
sg37
(lp163
Vpoison-sting
p164
aVswift
p165
aVfury-swipes
p166
aVslash
p167
asg43
g12
sg44
Vsand-veil
p168
sbag1
(g25
g3
Ntp169
Rp170
(dp171
g29
V024
p172
sg31
VArbok
p173
sg33
g34
sg35
V33
p174
sg37
(lp175
Vbite
p176
aVacid
p177
aVscreech
p178
aVglare
p179
asg43
g12
sg44
Vintimidate
p180
sbasg58
I00
sg59
g60
sbag1
(g2
g3
Ntp181
Rp182
(dp183
g7
VSpr RG Tamer.png
p184
sg9
VTamer
p185
sg11
g12
sg13
V1360
p186
sg15
g16
sg17
g18
sg19
g20
sg21
g22
sg23
(lp187
g1
(g25
g3
Ntp188
Rp189
(dp190
g29
V028
p191
sg31
VSandslash
p192
sg33
g34
sg35
V34
p193
sg37
(lp194
Vpoison-sting
p195
aVswift
p196
aVfury-swipes
p197
aVslash
p198
asg43
g12
sg44
Vsand-veil
p199
sbag1
(g25
g3
Ntp200
Rp201
(dp202
g29
V024
p203
sg31
VArbok
p204
sg33
g34
sg35
V34
p205
sg37
(lp206
Vbite
p207
aVacid
p208
aVscreech
p209
aVglare
p210
asg43
g12
sg44
Vshed-skin
p211
sbasg58
I00
sg59
g60
sbag1
(g2
g3
Ntp212
Rp213
(dp214
g7
VSpr RG Juggler.png
p215
sg9
VJuggler
p216
sg11
g12
sg13
V1190
p217
sg15
g16
sg17
g18
sg19
g20
sg21
g22
sg23
(lp218
g1
(g25
g3
Ntp219
Rp220
(dp221
g29
V096
p222
sg31
VDrowzee
p223
sg33
g34
sg35
V34
p224
sg37
(lp225
Vpsychic
p226
aVhypnosis
p227
aVmeditate
p228
aVpoison-gas
p229
asg43
g12
sg44
Vinsomnia
p230
sbag1
(g25
g3
Ntp231
Rp232
(dp233
g29
V097
p234
sg31
VHypno
p235
sg33
g34
sg35
V34
p236
sg37
(lp237
Vpsychic
p238
aVhypnosis
p239
aVmeditate
p240
aVpoison-gas
p241
asg43
g12
sg44
Vforewarn
p242
sbasg58
I00
sg59
g60
sbag1
(g2
g3
Ntp243
Rp244
(dp245
g7
VSpr GS Lass.png
p246
sg9
VLass
p247
sg11
VLinda
p248
sg13
V816
p249
sg15
g143
sg17
g18
sg19
g20
sg21
VGS
p250
sg23
(lp251
g1
(g25
g3
Ntp252
Rp253
(dp254
g29
V001
p255
sg31
VBulbasaur
p256
sg33
VM
p257
sg35
V30
p258
sg37
(lp259
Vpoison-powder
p260
aVsleep-powder
p261
aVsweet-scent
p262
aVsynthesis
p263
asg43
g12
sg44
Vovergrow
p264
sbag1
(g25
g3
Ntp265
Rp266
(dp267
g29
V002
p268
sg31
VIvysaur
p269
sg33
g257
sg35
V32
p270
sg37
(lp271
Vpoison-powder
p272
aVsleep-powder
p273
aVsweet-scent
p274
aVsynthesis
p275
asg43
g12
sg44
Vovergrow
p276
sbag1
(g25
g3
Ntp277
Rp278
(dp279
g29
V003
p280
sg31
VVenusaur
p281
sg33
g257
sg35
V34
p282
sg37
(lp283
Vpoison-powder
p284
aVsleep-powder
p285
aVsweet-scent
p286
aVsynthesis
p287
asg43
g12
sg44
Vovergrow
p288
sbasg58
I00
sg59
Vgold-silver
p289
sbag1
(g2
g3
Ntp290
Rp291
(dp292
g7
VSpr GS Picnicker.png
p293
sg9
VPicnicker
p294
sg11
VCindy
p295
sg13
V720
p296
sg15
g67
sg17
g18
sg19
g20
sg21
g250
sg23
(lp297
g1
(g25
g3
Ntp298
Rp299
(dp300
g29
V031
p301
sg31
VNidoqueen
p302
sg33
VF
p303
sg35
V36
p304
sg37
(lp305
Vdouble-kick
p306
aVtackle
p307
aVbody-slam
p308
aVtail-whip
p309
asg43
g12
sg44
Vpoison-point
p310
sbasg58
I00
sg59
g289
sbag1
(g2
g3
Ntp311
Rp312
(dp313
g7
VSpr GS Camper.png
p314
sg9
VCamper
p315
sg11
VBarry
p316
sg13
V720
p317
sg15
g67
sg17
g18
sg19
g20
sg21
g250
sg23
(lp318
g1
(g25
g3
Ntp319
Rp320
(dp321
g29
V034
p322
sg31
VNidoking
p323
sg33
g257
sg35
V36
p324
sg37
(lp325
Vhorn-attack
p326
aVtackle
p327
aVthrash
p328
aVpoison-sting
p329
asg43
g12
sg44
Vrivalry
p330
sbasg58
I00
sg59
g289
sbag1
(g2
g3
Ntp331
Rp332
(dp333
g7
VSpr GS Lass.png
p334
sg9
VLass
p335
sg11
VAlice
p336
sg13
V720
p337
sg15
g143
sg17
g18
sg19
g20
sg21
g250
sg23
(lp338
g1
(g25
g3
Ntp339
Rp340
(dp341
g29
V044
p342
sg31
VGloom
p343
sg33
g303
sg35
V30
p344
sg37
(lp345
Vpetal-dance
p346
aVsweet-scent
p347
ag347
aVmoonlight
p348
asg43
g12
sg44
Vchlorophyll
p349
sbag1
(g25
g3
Ntp350
Rp351
(dp352
g29
V024
p353
sg31
VArbok
p354
sg33
g303
sg35
V34
p355
sg37
(lp356
Vacid
p357
aVscreech
p358
aVhaze
p359
aVglare
p360
asg43
g12
sg44
Vintimidate
p361
sbag1
(g25
g3
Ntp362
Rp363
(dp364
g29
V044
p365
sg31
VGloom
p366
sg33
g303
sg35
V30
p367
sg37
(lp368
Vpetal-dance
p369
aVsweet-scent
p370
ag370
aVmoonlight
p371
asg43
g12
sg44
Vchlorophyll
p372
sbasg58
I00
sg59
g289
sbag1
(g2
g3
Ntp373
Rp374
(dp375
g7
VSpr FRLG Juggler.png
p376
sg9
VJuggler
p377
sg11
VNate
p378
sg13
V1360
p379
sg15
g16
sg17
g18
sg19
g20
sg21
VFRLG
p380
sg23
(lp381
g1
(g25
g3
Ntp382
Rp383
(dp384
g29
V096
p385
sg31
VDrowzee
p386
sg33
g257
sg35
V34
p387
sg37
(lp388
Vpoison-gas
p389
aVswagger
p390
aVpsych-up
p391
aVfuture-sight
p392
asg43
g12
sg44
Vinsomnia
p393
sbag1
(g25
g3
Ntp394
Rp395
(dp396
g29
V064
p397
sg31
VKadabra
p398
sg33
g257
sg35
V34
p399
sg37
(lp400
Vkinesis
p401
aVfuture-sight
p402
aVtrick
p403
aVrole-play
p404
asg43
g12
sg44
Vinner-focus
p405
sbasg58
I00
sg59
Vfirered-leafgreen
p406
sbag1
(g2
g3
Ntp407
Rp408
(dp409
g7
VSpr FRLG Juggler.png
p410
sg9
VJuggler
p411
sg11
VKayden
p412
sg13
V1520
p413
sg15
g67
sg17
g18
sg19
g20
sg21
g380
sg23
(lp414
g1
(g25
g3
Ntp415
Rp416
(dp417
g29
V097
p418
sg31
VHypno
p419
sg33
g257
sg35
V38
p420
sg37
(lp421
Vnightmare
p422
aVswagger
p423
aVpsych-up
p424
aVfuture-sight
p425
asg43
g12
sg44
Vforewarn
p426
sbasg58
I00
sg59
g406
sbag1
(g2
g3
Ntp427
Rp428
(dp429
g7
VSpr FRLG Juggler.png
p430
sg9
VJuggler
p431
sg11
VKirk
p432
sg13
V1240
p433
sg15
g87
sg17
g18
sg19
g20
sg21
g380
sg23
(lp434
g1
(g25
g3
Ntp435
Rp436
(dp437
g29
V096
p438
sg31
VDrowzee
p439
sg33
g257
sg35
V31
p440
sg37
(lp441
Vpoison-gas
p442
aVswagger
p443
aVpsych-up
p444
aVfuture-sight
p445
asg43
g12
sg44
Vforewarn
p446
sbag1
(g25
g3
Ntp447
Rp448
(dp449
g29
V096
p450
sg31
VDrowzee
p451
sg33
g257
sg35
V31
p452
sg37
(lp453
Vpoison-gas
p454
aVswagger
p455
aVpsych-up
p456
aVfuture-sight
p457
asg43
g12
sg44
Vforewarn
p458
sbag1
(g25
g3
Ntp459
Rp460
(dp461
g29
V064
p462
sg31
VKadabra
p463
sg33
g257
sg35
V31
p464
sg37
(lp465
Vkinesis
p466
aVfuture-sight
p467
aVtrick
p468
aVrole-play
p469
asg43
g12
sg44
Vsynchronize
p470
sbag1
(g25
g3
Ntp471
Rp472
(dp473
g29
V096
p474
sg31
VDrowzee
p475
sg33
g257
sg35
V31
p476
sg37
(lp477
Vpoison-gas
p478
aVswagger
p479
aVpsych-up
p480
aVfuture-sight
p481
asg43
g12
sg44
Vforewarn
p482
sbasg58
I00
sg59
g406
sbag1
(g2
g3
Ntp483
Rp484
(dp485
g7
VSpr FRLG Tamer.png
p486
sg9
VTamer
p487
sg11
VEdgar
p488
sg13
V1320
p489
sg15
g143
sg17
g18
sg19
g20
sg21
g380
sg23
(lp490
g1
(g25
g3
Ntp491
Rp492
(dp493
g29
V024
p494
sg31
VArbok
p495
sg33
g257
sg35
V33
p496
sg37
(lp497
Vglare
p498
aVstockpile
p499
aVspit-up
p500
aVswallow
p501
asg43
g12
sg44
Vshed-skin
p502
sbag1
(g25
g3
Ntp503
Rp504
(dp505
g29
V024
p506
sg31
VArbok
p507
sg33
g257
sg35
V33
p508
sg37
(lp509
Vglare
p510
aVstockpile
p511
aVspit-up
p512
aVswallow
p513
asg43
g12
sg44
Vintimidate
p514
sbag1
(g25
g3
Ntp515
Rp516
(dp517
g29
V028
p518
sg31
VSandslash
p519
sg33
g257
sg35
V33
p520
sg37
(lp521
Vfury-swipes
p522
aVslash
p523
aVsandstorm
p524
aVsand-tomb
p525
asg43
g12
sg44
Vsand-veil
p526
sbasg58
I00
sg59
g406
sbag1
(g2
g3
Ntp527
Rp528
(dp529
g7
VSpr FRLG Tamer.png
p530
sg9
VTamer
p531
sg11
VPhil
p532
sg13
V1360
p533
sg15
g16
sg17
g18
sg19
g20
sg21
g380
sg23
(lp534
g1
(g25
g3
Ntp535
Rp536
(dp537
g29
V028
p538
sg31
VSandslash
p539
sg33
g257
sg35
V34
p540
sg37
(lp541
Vfury-swipes
p542
aVslash
p543
aVsandstorm
p544
aVsand-tomb
p545
asg43
g12
sg44
Vsand-veil
p546
sbag1
(g25
g3
Ntp547
Rp548
(dp549
g29
V024
p550
sg31
VArbok
p551
sg33
g257
sg35
V34
p552
sg37
(lp553
Vglare
p554
aVstockpile
p555
aVspit-up
p556
aVswallow
p557
asg43
g12
sg44
Vintimidate
p558
sbasg58
I00
sg59
g406
sbag1
(g2
g3
Ntp559
Rp560
(dp561
g7
VSpr FRLG Juggler.png
p562
sg9
VJuggler
p563
sg11
VShawn
p564
sg13
V1360
p565
sg15
g16
sg17
g18
sg19
g20
sg21
g380
sg23
(lp566
g1
(g25
g3
Ntp567
Rp568
(dp569
g29
V096
p570
sg31
VDrowzee
p571
sg33
g257
sg35
V34
p572
sg37
(lp573
Vpoison-gas
p574
aVswagger
p575
aVpsych-up
p576
aVfuture-sight
p577
asg43
g12
sg44
Vinsomnia
p578
sbag1
(g25
g3
Ntp579
Rp580
(dp581
g29
V097
p582
sg31
VHypno
p583
sg33
g257
sg35
V34
p584
sg37
(lp585
Vnightmare
p586
aVswagger
p587
aVpsych-up
p588
aVfuture-sight
p589
asg43
g12
sg44
Vforewarn
p590
sbasg58
I00
sg59
g406
sbag1
(g2
g3
Ntp591
Rp592
(dp593
g7
VSpr DP Picnicker.png
p594
sg9
VPicnicker
p595
sg11
VCindy
p596
sg13
V768
p597
sg15
g67
sg17
g18
sg19
g20
sg21
VDP
p598
sg23
(lp599
g1
(g25
g3
Ntp600
Rp601
(dp602
g29
V031
p603
sg31
VNidoqueen
p604
sg33
g303
sg35
V48
p605
sg37
(lp606
Vtail-whip
p607
aVpoison-sting
p608
aVsuperpower
p609
aVearth-power
p610
asg43
g12
sg44
Vrivalry
p611
sbasg58
I00
sg59
Vdiamond-pearl
p612
sbag1
(g2
g3
Ntp613
Rp614
(dp615
g7
VSpr DP Camper.png
p616
sg9
VCamper
p617
sg11
VBarry
p618
sg13
V768
p619
sg15
g67
sg17
g18
sg19
g20
sg21
g598
sg23
(lp620
g1
(g25
g3
Ntp621
Rp622
(dp623
g29
V034
p624
sg31
VNidoking
p625
sg33
g257
sg35
V48
p626
sg37
(lp627
Vpeck
p628
aVfocus-energy
p629
aVmegahorn
p630
aVearth-power
p631
asg43
g12
sg44
Vrivalry
p632
sbasg58
I00
sg59
g612
sbag1
(g2
g3
Ntp633
Rp634
(dp635
g7
VSpr HGSS Lass.png
p636
sg9
VLass
p637
sg11
VAlice
p638
sg13
V656
p639
sg15
g143
sg17
g18
sg19
g20
sg21
VHGSS
p640
sg23
(lp641
g1
(g25
g3
Ntp642
Rp643
(dp644
g29
V044
p645
sg31
VGloom
p646
sg33
g303
sg35
V41
p647
sg37
(lp648
Vsweet-scent
p649
aVmoonlight
p650
aVnatural-gift
p651
aVlucky-chant
p652
asg43
g12
sg44
Vchlorophyll
p653
sbag1
(g25
g3
Ntp654
Rp655
(dp656
g29
V024
p657
sg31
VArbok
p658
sg33
g303
sg35
V45
p659
sg37
(lp660
Vice-fang
p661
aVfire-fang
p662
aVmud-bomb
p663
aVgunk-shot
p664
asg43
g12
sg44
Vintimidate
p665
sbag1
(g25
g3
Ntp666
Rp667
(dp668
g29
V045
p669
sg31
VVileplume
p670
sg33
g303
sg35
V41
p671
sg37
(lp672
Vpoison-powder
p673
aVstun-spore
p674
aVpetal-dance
p675
aVaromatherapy
p676
asg43
g12
sg44
Vchlorophyll
p677
sbasg58
I00
sg59
Vheartgold-soulsilver
p678
sbag1
(g2
g3
Ntp679
Rp680
(dp681
g7
VSpr HGSS Lass.png
p682
sg9
VLass
p683
sg11
VLinda
p684
sg13
V720
p685
sg15
g143
sg17
g18
sg19
g20
sg21
g640
sg23
(lp686
g1
(g25
g3
Ntp687
Rp688
(dp689
g29
V001
p690
sg31
VBulbasaur
p691
sg33
g257
sg35
V41
p692
sg37
(lp693
Vsweet-scent
p694
aVsynthesis
p695
aVworry-seed
p696
aVseed-bomb
p697
asg43
g12
sg44
Vovergrow
p698
sbag1
(g25
g3
Ntp699
Rp700
(dp701
g29
V002
p702
sg31
VIvysaur
p703
sg33
g257
sg35
V43
p704
sg37
(lp705
Vsleep-powder
p706
aVsweet-scent
p707
aVsynthesis
p708
aVworry-seed
p709
asg43
g12
sg44
Vovergrow
p710
sbag1
(g25
g3
Ntp711
Rp712
(dp713
g29
V003
p714
sg31
VVenusaur
p715
sg33
g257
sg35
V45
p716
sg37
(lp717
Vpetal-dance
p718
aVsweet-scent
p719
aVsynthesis
p720
aVworry-seed
p721
asg43
g12
sg44
Vovergrow
p722
sbasg58
I00
sg59
g678
sbag1
(g2
g3
Ntp723
Rp724
(dp725
g7
VVSTamer PE.png
p726
sg9
VTamer
p727
sg11
VPhil
p728
sg13
V2,460
p729
sg15
g16
sg17
g18
sg19
g20
sg21
VLGPE
p730
sg23
(lp731
g1
(g25
g3
Ntp732
Rp733
(dp734
g29
V030
p735
sg31
VNidorina
p736
sg33
g303
sg35
V41
p737
sg37
(lp738
Vhelping-hand
p739
aVpoison-fang
p740
aVtoxic-spikes
p741
aVcaptivate
p742
asg43
g12
sg44
Vpoison-point
p743
sbag1
(g25
g3
Ntp744
Rp745
(dp746
g29
V033
p747
sg31
VNidorino
p748
sg33
g257
sg35
V41
p749
sg37
(lp750
Vhelping-hand
p751
aVtoxic-spikes
p752
aVpoison-jab
p753
aVcaptivate
p754
asg43
g12
sg44
Vrivalry
p755
sbasg58
I00
sg59
Vsun-moon
p756
sbag1
(g2
g3
Ntp757
Rp758
(dp759
g7
VVSAce Trainer M PE.png
p760
sg9
VAce Trainer
p761
sg11
VKayden
p762
sg13
V4,200
p763
sg15
g16
sg17
g18
sg19
g20
sg21
g730
sg23
(lp764
g1
(g25
g3
Ntp765
Rp766
(dp767
g29
V089
p768
sg31
VMuk
p769
sg33
g257
sg35
V41
p770
sg37
(lp771
Vgunk-shot
p772
aVsludge-wave
p773
aVbelch
p774
aVvenom-drench
p775
asg43
g12
sg44
Vsticky-hold
p776
sbag1
(g25
g3
Ntp777
Rp778
(dp779
g29
V015
p780
sg31
VBeedrill
p781
sg33
g257
sg35
V42
p782
sg37
(lp783
Vtoxic-spikes
p784
aVpoison-jab
p785
aVvenoshock
p786
aVfell-stinger
p787
asg43
g12
sg44
Vswarm
p788
sbasg58
I00
sg59
g756
sbag1
(g2
g3
Ntp789
Rp790
(dp791
g7
VVSJuggler PE.png
p792
sg9
VJuggler
p793
sg11
VKirk
p794
sg13
V1,600
p795
sg15
g67
sg17
g18
sg19
g20
sg21
g730
sg23
(lp796
g1
(g25
g3
Ntp797
Rp798
(dp799
g29
V093
p800
sg31
VHaunter
p801
sg33
g303
sg35
V40
p802
sg37
(lp803
Vpayback
p804
aVsucker-punch
p805
aVdark-pulse
p806
aVhex
p807
asg43
g12
sg44
Vlevitate
p808
sbasg58
I00
sg59
g756
sbag1
(g2
g3
Ntp809
Rp810
(dp811
g7
VVSJuggler PE.png
p812
sg9
VJuggler
p813
sg11
VHarry
p814
sg13
V1,600
p815
sg15
g143
sg17
g18
sg19
g20
sg21
g730
sg23
(lp816
g1
(g25
g3
Ntp817
Rp818
(dp819
g29
V093
p820
sg31
VHaunter
p821
sg33
g257
sg35
V40
p822
sg37
(lp823
Vpayback
p824
aVsucker-punch
p825
aVdark-pulse
p826
aVhex
p827
asg43
g12
sg44
Vlevitate
p828
sbag1
(g25
g3
Ntp829
Rp830
(dp831
g29
V093
p832
sg31
VHaunter
p833
sg33
g257
sg35
V40
p834
sg37
(lp835
Vpayback
p836
aVsucker-punch
p837
aVdark-pulse
p838
aVhex
p839
asg43
g12
sg44
Vlevitate
p840
sbag1
(g25
g3
Ntp841
Rp842
(dp843
g29
V093
p844
sg31
VHaunter
p845
sg33
g303
sg35
V40
p846
sg37
(lp847
Vpayback
p848
aVsucker-punch
p849
aVdark-pulse
p850
aVhex
p851
asg43
g12
sg44
Vlevitate
p852
sbasg58
I00
sg59
g756
sbag1
(g2
g3
Ntp853
Rp854
(dp855
g7
VVSAce Trainer F PE.png
p856
sg9
VAce Trainer
p857
sg11
VAnnie
p858
sg13
V4,200
p859
sg15
g16
sg17
g18
sg19
g20
sg21
g730
sg23
(lp860
g1
(g25
g3
Ntp861
Rp862
(dp863
g29
V002
p864
sg31
VIvysaur
p865
sg33
g303
sg35
V41
p866
sg37
(lp867
Vsleep-powder
p868
aVsweet-scent
p869
aVsynthesis
p870
aVworry-seed
p871
asg43
g12
sg44
Vovergrow
p872
sbag1
(g25
g3
Ntp873
Rp874
(dp875
g29
V110
p876
sg31
VWeezing
p877
sg33
g257
sg35
V42
p878
sg37
(lp879
Vassurance
p880
aVdouble-hit
p881
aVclear-smog
p882
aVbelch
p883
asg43
g12
sg44
Vlevitate
p884
sbasg58
I00
sg59
g756
sbag1
(g2
g3
Ntp885
Rp886
(dp887
g7
VVSTamer PE.png
p888
sg9
VTamer
p889
sg11
VEdgar
p890
sg13
V2,460
p891
sg15
g143
sg17
g18
sg19
g20
sg21
g730
sg23
(lp892
g1
(g25
g3
Ntp893
Rp894
(dp895
g29
V024
p896
sg31
VArbok
p897
sg33
g303
sg35
V41
p898
sg37
(lp899
Vgunk-shot
p900
aVcoil
p901
aVacid-spray
p902
aVbelch
p903
asg43
g12
sg44
Vintimidate
p904
sbag1
(g25
g3
Ntp905
Rp906
(dp907
g29
V024
p908
sg31
VArbok
p909
sg33
g257
sg35
V41
p910
sg37
(lp911
Vgunk-shot
p912
aVcoil
p913
aVacid-spray
p914
aVbelch
p915
asg43
g12
sg44
Vshed-skin
p916
sbag1
(g25
g3
Ntp917
Rp918
(dp919
g29
V024
p920
sg31
VArbok
p921
sg33
g257
sg35
V41
p922
sg37
(lp923
Vgunk-shot
p924
aVcoil
p925
aVacid-spray
p926
aVbelch
p927
asg43
g12
sg44
Vshed-skin
p928
sbasg58
I00
sg59
g756
sbag1
(g2
g3
Ntp929
Rp930
(dp931
g7
VSpr RG Koga.png
p932
sg9
VLeader
p933
sg11
VKoga
p934
sg13
V4257
p935
sg15
I4
sg17
g18
sg19
g20
sg21
g22
sg23
(lp936
g1
(g25
g3
Ntp937
Rp938
(dp939
g29
I109
sg31
VKoffing
p940
sg33
g34
sg35
V37
p941
sg37
(lp942
VTackle
p943
aVSmog
p944
aVSludge
p945
aVSmokeScreen
p946
asg43
g12
sg44
Vlevitate
p947
sbag1
(g25
g3
Ntp948
Rp949
(dp950
g29
I89
sg31
VMuk
p951
sg33
g34
sg35
V39
p952
sg37
(lp953
VDisable
p954
aVPoison Gas
p955
aVMinimize
p956
aVSludge
p957
asg43
g12
sg44
Vstench
p958
sbag1
(g25
g3
Ntp959
Rp960
(dp961
g29
I109
sg31
VKoffing
p962
sg33
g34
sg35
V37
p963
sg37
(lp964
VTackle
p965
aVSmog
p966
aVSludge
p967
aVSmokeScreen
p968
asg43
g12
sg44
Vlevitate
p969
sbag1
(g25
g3
Ntp970
Rp971
(dp972
g29
I110
sg31
VWeezing
p973
sg33
g34
sg35
V43
p974
sg37
(lp975
VSmog
p976
aVSludge
p977
aVToxic
p978
aVSelfdestruct
p979
asg43
g12
sg44
Vlevitate
p980
sbasg58
I01
sg59
g60
sbag1
(g2
g3
Ntp981
Rp982
(dp983
g7
VSpr Y Koga.png\u200e
p984
sg9
g933
sg11
VKoga
p985
sg13
V4950
p986
sg15
I4
sg17
g18
sg19
g20
sg21
VY
p987
sg23
(lp988
g1
(g25
g3
Ntp989
Rp990
(dp991
g29
I48
sg31
VVenonat
p992
sg33
g34
sg35
V44
p993
sg37
(lp994
VTackle
p995
aVToxic
p996
aVSleep Powder
p997
aVPsychic
p998
asg43
g12
sg44
Vtinted-lens
p999
sbag1
(g25
g3
Ntp1000
Rp1001
(dp1002
g29
I48
sg31
VVenonat
p1003
sg33
g34
sg35
V46
p1004
sg37
(lp1005
VToxic
p1006
aVPsybeam
p1007
aVSupersonic
p1008
aVPsychic
p1009
asg43
g12
sg44
Vtinted-lens
p1010
sbag1
(g25
g3
Ntp1011
Rp1012
(dp1013
g29
I48
sg31
VVenonat
p1014
sg33
g34
sg35
V48
p1015
sg37
(lp1016
VToxic
p1017
aVPsychic
p1018
aVSleep Powder
p1019
aVDouble-Edge
p1020
asg43
g12
sg44
Vtinted-lens
p1021
sbag1
(g25
g3
Ntp1022
Rp1023
(dp1024
g29
I49
sg31
VVenomoth
p1025
sg33
g34
sg35
V50
p1026
sg37
(lp1027
VToxic
p1028
aVPsychic
p1029
aVLeech Life
p1030
aVDouble Team
p1031
asg43
g12
sg44
Vtinted-lens
p1032
sbasg58
I01
sg59
Vyellow
p1033
sbag1
(g2
g3
Ntp1034
Rp1035
(dp1036
g7
VSpr GS Janine.png
p1037
sg9
VLeader
p1038
sg11
VJanine
p1039
sg13
V3900
p1040
sg15
I5
sg17
g18
sg19
g20
sg21
g250
sg23
(lp1041
g1
(g25
g3
Ntp1042
Rp1043
(dp1044
g29
I169
sg31
VCrobat
p1045
sg33
g257
sg35
V36
p1046
sg37
(lp1047
VWing Attack
p1048
aVConfuse Ray
p1049
aVSupersonic
p1050
aVScreech
p1051
asg43
g12
sg44
Vinner-focus
p1052
sbag1
(g25
g3
Ntp1053
Rp1054
(dp1055
g29
I110
sg31
VWeezing
p1056
sg33
g257
sg35
V36
p1057
sg37
(lp1058
VSludge Bomb
p1059
aVSmog
p1060
aVToxic
p1061
aVExplosion
p1062
asg43
g12
sg44
Vlevitate
p1063
sbag1
(g25
g3
Ntp1064
Rp1065
(dp1066
g29
I110
sg31
VWeezing
p1067
sg33
g257
sg35
V36
p1068
sg37
(lp1069
VSludge Bomb
p1070
aVSmog
p1071
aVToxic
p1072
aVExplosion
p1073
asg43
g12
sg44
Vlevitate
p1074
sbag1
(g25
g3
Ntp1075
Rp1076
(dp1077
g29
I168
sg31
VAriados
p1078
sg33
g257
sg35
V33
p1079
sg37
(lp1080
VString Shot
p1081
aVNight Shade
p1082
aVGiga Drain
p1083
aVScary Face
p1084
asg43
g12
sg44
Vinsomnia
p1085
sbag1
(g25
g3
Ntp1086
Rp1087
(dp1088
g29
I49
sg31
VVenomoth
p1089
sg33
g257
sg35
V39
p1090
sg37
(lp1091
VToxic
p1092
aVPsychic
p1093
aVDouble Team
p1094
aVSupersonic
p1095
asg43
g12
sg44
Vtinted-lens
p1096
sbasg58
I01
sg59
g289
sbag1
(g2
g3
Ntp1097
Rp1098
(dp1099
g7
VSpr FRLG Koga.png
p1100
sg9
VLeader
p1101
sg11
VKoga
p1102
sg13
V4300
p1103
sg15
I4
sg17
g18
sg19
g20
sg21
g380
sg23
(lp1104
g1
(g25
g3
Ntp1105
Rp1106
(dp1107
g29
I109
sg31
VKoffing
p1108
sg33
g257
sg35
V37
p1109
sg37
(lp1110
VSelfdestruct
p1111
aVSludge
p1112
aVSmokeScreen
p1113
aVToxic
p1114
asg43
g12
sg44
VLevitate
p1115
sbag1
(g25
g3
Ntp1116
Rp1117
(dp1118
g29
I89
sg31
VMuk
p1119
sg33
g257
sg35
V39
p1120
sg37
(lp1121
VMinimize
p1122
aVSludge
p1123
aVAcid Armor
p1124
aVToxic
p1125
asg43
g12
sg44
VSticky Hold
p1126
sbag1
(g25
g3
Ntp1127
Rp1128
(dp1129
g29
I109
sg31
VKoffing
p1130
sg33
g257
sg35
V37
p1131
sg37
(lp1132
VSelfdestruct
p1133
aVSludge
p1134
aVSmokeScreen
p1135
aVToxic
p1136
asg43
g12
sg44
VLevitate
p1137
sbag1
(g25
g3
Ntp1138
Rp1139
(dp1140
g29
I110
sg31
VWeezing
p1141
sg33
g257
sg35
V43
p1142
sg37
(lp1143
VTackle
p1144
aVSludge
p1145
aVSmokeScreen
p1146
aVToxic
p1147
asg43
g12
sg44
VLevitate
p1148
sbasg58
I01
sg59
g406
sbag1
(g2
g3
Ntp1149
Rp1150
(dp1151
g7
VSpr HGSS Janine.png
p1152
sg9
VLeader
p1153
sg11
VJanine
p1154
sg13
V6000
p1155
sg15
I5
sg17
g18
sg19
g20
sg21
g640
sg23
(lp1156
g1
(g25
g3
Ntp1157
Rp1158
(dp1159
g29
I169
sg31
VCrobat
p1160
sg33
g303
sg35
V47
p1161
sg37
(lp1162
VConfuse Ray
p1163
aVScreech
p1164
aVWing Attack
p1165
aVSupersonic
p1166
asg43
g12
sg44
VInner Focus
p1167
sbag1
(g25
g3
Ntp1168
Rp1169
(dp1170
g29
I110
sg31
VWeezing
p1171
sg33
g303
sg35
V44
p1172
sg37
(lp1173
VSludge Bomb
p1174
aVToxic
p1175
aVExplosion
p1176
aVDouble Hit
p1177
asg43
g12
sg44
VLevitate
p1178
sbag1
(g25
g3
Ntp1179
Rp1180
(dp1181
g29
I168
sg31
VAriados
p1182
sg33
g303
sg35
V47
p1183
sg37
(lp1184
VSwagger
p1185
aVNight Shade
p1186
aVPoison Jab
p1187
aVPin Missile
p1188
asg43
g12
sg44
VInsomnia
p1189
sbag1
(g25
g3
Ntp1190
Rp1191
(dp1192
g29
I168
sg31
VAriados
p1193
sg33
g303
sg35
V47
p1194
sg37
(lp1195
VPsychic
p1196
aVPoison Jab
p1197
aVScreech
p1198
aVPin Missile
p1199
asg43
g12
sg44
VInsomnia
p1200
sbag1
(g25
g3
Ntp1201
Rp1202
(dp1203
g29
I49
sg31
VVenomoth
p1204
sg33
g303
sg35
V50
p1205
sg37
(lp1206
VDouble Team
p1207
aVPsychic
p1208
aVSludge Bomb
p1209
aVSignal Beam
p1210
asg43
VSitrus Berry
p1211
sg44
VTinted Lens
p1212
sbasg58
I01
sg59
g678
sbag1
(g2
g3
Ntp1213
Rp1214
(dp1215
g7
VVSKoga PE.png
p1216
sg9
VGym Leader
p1217
sg11
VKoga
p1218
sg13
V7,040
p1219
sg15
I4
sg17
g18
sg19
g20
sg21
g730
sg23
(lp1220
g1
(g25
g3
Ntp1221
Rp1222
(dp1223
g29
I110
sg31
VWeezing
p1224
sg33
g257
sg35
V43
p1225
sg37
(lp1226
VToxic
p1227
aVProtect
p1228
aVSludge Bomb
p1229
aVExplosion
p1230
asg43
g12
sg44
Vlevitate
p1231
sbag1
(g25
g3
Ntp1232
Rp1233
(dp1234
g29
I89
sg31
VMuk
p1235
sg33
g257
sg35
V43
p1236
sg37
(lp1237
VToxic
p1238
aVProtect
p1239
aVSludge Bomb
p1240
aVMoonblast
p1241
asg43
g12
sg44
Vsticky-hold
p1242
sbag1
(g25
g3
Ntp1243
Rp1244
(dp1245
g29
I42
sg31
VGolbat
p1246
sg33
g303
sg35
V43
p1247
sg37
(lp1248
VToxic
p1249
aVProtect
p1250
aVFly
p1251
aVLeech Life
p1252
asg43
g12
sg44
Vinner-focus
p1253
sbag1
(g25
g3
Ntp1254
Rp1255
(dp1256
g29
I49
sg31
VVenomoth
p1257
sg33
g257
sg35
V44
p1258
sg37
(lp1259
VSludge Bomb
p1260
aVProtect
p1261
aVPsychic
p1262
aVBug Buzz
p1263
asg43
g12
sg44
Vshield-dust
p1264
sbasg58
I01
sg59
g756
sbag1
(g2
g3
Ntp1265
Rp1266
(dp1267
g7
VVSKoga PE.png
p1268
sg9
VGym Leader
p1269
sg11
VKoga
p1270
sg13
V13,680
p1271
sg15
I5
sg17
g18
sg19
g20
sg21
g730
sg23
(lp1272
g1
(g25
g3
Ntp1273
Rp1274
(dp1275
g29
I73
sg31
VTentacruel
p1276
sg33
g303
sg35
V56
p1277
sg37
(lp1278
VToxic
p1279
aVHydro Pump
p1280
aVSludge Bomb
p1281
aVMega Drain
p1282
asg43
g12
sg44
Vliquid-ooze
p1283
sbag1
(g25
g3
Ntp1284
Rp1285
(dp1286
g29
I110
sg31
VWeezing
p1287
sg33
g257
sg35
V56
p1288
sg37
(lp1289
VToxic
p1290
aVSludge Bomb
p1291
aVFire Blast
p1292
aVThunder
p1293
asg43
g12
sg44
Vlevitate
p1294
sbag1
(g25
g3
Ntp1295
Rp1296
(dp1297
g29
I42
sg31
VGolbat
p1298
sg33
g303
sg35
V56
p1299
sg37
(lp1300
VCrunch
p1301
aVU-turn
p1302
aVFly
p1303
aVLeech Life
p1304
asg43
g12
sg44
Vinner-focus
p1305
sbag1
(g25
g3
Ntp1306
Rp1307
(dp1308
g29
I49
sg31
VVenomoth
p1309
sg33
g257
sg35
V56
p1310
sg37
(lp1311
VSludge Bomb
p1312
aVMega Drain
p1313
aVPsychic
p1314
aVBug Buzz
p1315
asg43
g12
sg44
Vtinted-lens
p1316
sbag1
(g25
g3
Ntp1317
Rp1318
(dp1319
g29
I89
sg31
VMuk
p1320
sg33
g257
sg35
V57
p1321
sg37
(lp1322
VDark Pulse
p1323
aVSludge Bomb
p1324
aVMega Drain
p1325
aVMoonblast
p1326
asg43
g12
sg44
Vstench
p1327
sbasg58
I01
sg59
g756
sba.