(lp0
ccopy_reg
_reconstructor
p1
(c__main__
Trainer
p2
c__builtin__
object
p3
Ntp4
Rp5
(dp6
VtSprite
p7
VVSTeam Yell Grunt M.png
p8
sVtClass
p9
VTeam Yell Grunt
p10
sVtName
p11
V
p12
sVtMoney
p13
V2,400
p14
sVtPokeCount
p15
V2
p16
sVtLocation
p17
Vwiki/Galar_Route_6
p18
sVtRegion
p19
VGalar
p20
sVtGame
p21
VSM
p22
sVtPokes
p23
(lp24
g1
(c__main__
FinishedPokemon
p25
g3
Ntp26
Rp27
(dp28
VpDexNo
p29
V434
p30
sVpSpecies
p31
VStunky
p32
sVpGender
p33
VM
p34
sVpLevel
p35
V29
p36
sVpMoves
p37
(lp38
Vnight-slash
p39
aVacid-spray
p40
aVbelch
p41
aVvenom-drench
p42
asVpHold
p43
g12
sVpAbility
p44
Vaftermath
p45
sbag1
(g25
g3
Ntp46
Rp47
(dp48
g29
V264G
p49
sg31
VLinoone
p50
sg33
VF
p51
sg35
V30
p52
sg37
(lp53
Vswitcheroo
p54
aVbestow
p55
aVrototiller
p56
aVplay-rough
p57
asg43
g12
sg44
Vgluttony
p58
sbasVbossFlag
p59
I00
sVtLongGame
p60
Vsun-moon
p61
sbag1
(g2
g3
Ntp62
Rp63
(dp64
g7
VVSTeam Yell Grunt F.png
p65
sg9
VTeam Yell Grunt
p66
sg11
g12
sg13
V2,400
p67
sg15
V1
p68
sg17
g18
sg19
g20
sg21
VSM
p69
sg23
(lp70
g1
(g25
g3
Ntp71
Rp72
(dp73
g29
V510
p74
sg31
VLiepard
p75
sg33
g51
sg35
V30
p76
sg37
(lp77
Vnight-slash
p78
aVnasty-plot
p79
aVhone-claws
p80
aVplay-rough
p81
asg43
g12
sg44
Vunburden
p82
sbasg59
I00
sg60
g61
sbag1
(g2
g3
Ntp83
Rp84
(dp85
g7
VVSBeauty SwSh.png
p86
sg9
VBeauty
p87
sg11
VAnita
p88
sg13
V2,880
p89
sg15
g16
sg17
g18
sg19
g20
sg21
VSM
p90
sg23
(lp91
g1
(g25
g3
Ntp92
Rp93
(dp94
g29
V035
p95
sg31
VClefairy
p96
sg33
g51
sg35
V29
p97
sg37
(lp98
Vbestow
p99
aVdisarming-voice
p100
aVmoonblast
p101
aVspotlight
p102
asg43
g12
sg44
Vcute-charm
p103
sbag1
(g25
g3
Ntp104
Rp105
(dp106
g29
V036
p107
sg31
VClefable
p108
sg33
g51
sg35
V30
p109
sg37
(lp110
Vminimize
p111
aVmetronome
p112
aVdisarming-voice
p113
aVspotlight
p114
asg43
g12
sg44
Vmagic-guard
p115
sbasg59
I00
sg60
g61
sbag1
(g2
g3
Ntp116
Rp117
(dp118
g7
VVSMedical Team.png
p119
sg9
VMedical Team
p120
sg11
VIwan and Evelyn
p121
sg13
V7,440
p122
sg15
g16
sg17
g18
sg19
g20
sg21
VSM
p123
sg23
(lp124
g1
(g25
g3
Ntp125
Rp126
(dp127
g29
V624
p128
sg31
VPawniard
p129
sg33
g34
sg35
V31
p130
sg37
(lp131
Vassurance
p132
aVembargo
p133
aVnight-slash
p134
aViron-head
p135
asg43
g12
sg44
Vdefiant
p136
sbag1
(g25
g3
Ntp137
Rp138
(dp139
g29
V176
p140
sg31
VTogetic
p141
sg33
g51
sg35
V31
p142
sg37
(lp143
Vlast-resort
p144
aVafter-you
p145
aVbestow
p146
aVfairy-wind
p147
asg43
g12
sg44
Vhustle
p148
sbasg59
I00
sg60
g61
sbag1
(g2
g3
Ntp149
Rp150
(dp151
g7
VVSBackpacker SwSh.png
p152
sg9
VBackpacker
p153
sg11
VDiane
p154
sg13
V2,232
p155
sg15
g68
sg17
g18
sg19
g20
sg21
VSM
p156
sg23
(lp157
g1
(g25
g3
Ntp158
Rp159
(dp160
g29
V539
p161
sg31
VSawk
p162
sg33
g34
sg35
V31
p163
sg37
(lp164
Vclose-combat
p165
aVlow-sweep
p166
aVquick-guard
p167
aVretaliate
p168
asg43
g12
sg44
Vinner-focus
p169
sbasg59
I00
sg60
g61
sbag1
(g2
g3
Ntp170
Rp171
(dp172
g7
VVSModel.png
p173
sg9
VModel
p174
sg11
VNicola
p175
sg13
V3,600
p176
sg15
g16
sg17
g18
sg19
g20
sg21
VSM
p177
sg23
(lp178
g1
(g25
g3
Ntp179
Rp180
(dp181
g29
V451
p182
sg31
VSkorupi
p183
sg33
g34
sg35
V30
p184
sg37
(lp185
Vbug-bite
p186
aVhone-claws
p187
aVvenoshock
p188
aVfell-stinger
p189
asg43
g12
sg44
Vbattle-armor
p190
sbag1
(g25
g3
Ntp191
Rp192
(dp193
g29
V624
p194
sg31
VPawniard
p195
sg33
g34
sg35
V30
p196
sg37
(lp197
Vassurance
p198
aVembargo
p199
aVnight-slash
p200
aViron-head
p201
asg43
g12
sg44
Vdefiant
p202
sbasg59
I00
sg60
g61
sbag1
(g2
g3
Ntp203
Rp204
(dp205
g7
VVSBackpacker SwSh.png
p206
sg9
VBackpacker
p207
sg11
VRuth
p208
sg13
V2,232
p209
sg15
g68
sg17
g18
sg19
g20
sg21
g156
sg23
(lp210
g1
(g25
g3
Ntp211
Rp212
(dp213
g29
V538
p214
sg31
VThroh
p215
sg33
g34
sg35
V31
p216
sg37
(lp217
Vwide-guard
p218
aVstorm-throw
p219
aVcircle-throw
p220
aVmat-block
p221
asg43
g12
sg44
Vguts
p222
sbasg59
I00
sg60
g61
sbag1
(g2
g3
Ntp223
Rp224
(dp225
g7
VVSArtist SwSh.png
p226
sg9
VArtist
p227
sg11
VDuncan
p228
sg13
V1,984
p229
sg15
g16
sg17
g18
sg19
g20
sg21
VSM
p230
sg23
(lp231
g1
(g25
g3
Ntp232
Rp233
(dp234
g29
V109
p235
sg31
VKoffing
p236
sg33
g34
sg35
V29
p237
sg37
(lp238
Vgyro-ball
p239
aVassurance
p240
aVclear-smog
p241
aVbelch
p242
asg43
g12
sg44
Vlevitate
p243
sbag1
(g25
g3
Ntp244
Rp245
(dp246
g29
V185
p247
sg31
VSudowoodo
p248
sg33
g34
sg35
V31
p249
sg37
(lp250
Vstone-edge
p251
aVwood-hammer
p252
aVhead-smash
p253
aVtearful-look
p254
asg43
g12
sg44
Vsturdy
p255
sbasg59
I00
sg60
g61
sba.