(lp0
ccopy_reg
_reconstructor
p1
(c__main__
Trainer
p2
c__builtin__
object
p3
Ntp4
Rp5
(dp6
VtSprite
p7
VVSDoctor M.png
p8
sVtClass
p9
VDoctor
p10
sVtName
p11
VGraham
p12
sVtMoney
p13
V5,400
p14
sVtPokeCount
p15
V1
p16
sVtLocation
p17
Vwiki/Galar_Route_10
p18
sVtRegion
p19
VGalar
p20
sVtGame
p21
VSM
p22
sVtPokes
p23
(lp24
g1
(c__main__
FinishedPokemon
p25
g3
Ntp26
Rp27
(dp28
VpDexNo
p29
V282
p30
sVpSpecies
p31
VGardevoir
p32
sVpGender
p33
VM
p34
sVpLevel
p35
V45
p36
sVpMoves
p37
(lp38
Vdraining-kiss
p39
aVmisty-terrain
p40
aVmoonblast
p41
ag41
asVpHold
p42
V
p43
sVpAbility
p44
Vsynchronize
p45
sbasVbossFlag
p46
I00
sVtLongGame
p47
Vsun-moon
p48
sbag1
(g2
g3
Ntp49
Rp50
(dp51
g7
VVSHiker SwSh.png
p52
sg9
VHiker
p53
sg11
VDouglas
p54
sg13
V4,500
p55
sg15
V2
p56
sg17
g18
sg19
g20
sg21
VSM
p57
sg23
(lp58
g1
(g25
g3
Ntp59
Rp60
(dp61
g29
V208
p62
sg31
VSteelix
p63
sg33
g34
sg35
V45
p64
sg37
(lp65
Vstone-edge
p66
aVstealth-rock
p67
aVautotomize
p68
aVsmack-down
p69
asg42
g43
sg44
Vrock-head
p70
sbag1
(g25
g3
Ntp71
Rp72
(dp73
g29
V750
p74
sg31
VMudsdale
p75
sg33
g34
sg35
V45
p76
sg37
(lp77
Vbulldoze
p78
aVrototiller
p79
ag79
aVhigh-horsepower
p80
asg42
g43
sg44
Vown-tempo
p81
sbasg46
I00
sg47
g48
sbag1
(g2
g3
Ntp82
Rp83
(dp84
g7
VVSOffice Worker M SwSh.png
p85
sg9
VOffice Worker
p86
sg11
VRonald
p87
sg13
V3,600
p88
sg15
g56
sg17
g18
sg19
g20
sg21
VSM
p89
sg23
(lp90
g1
(g25
g3
Ntp91
Rp92
(dp93
g29
V461
p94
sg31
VWeavile
p95
sg33
g34
sg35
V45
p96
sg37
(lp97
Vdark-pulse
p98
aVnight-slash
p99
aVnasty-plot
p100
aVhone-claws
p101
asg42
g43
sg44
Vpressure
p102
sbag1
(g25
g3
Ntp103
Rp104
(dp105
g29
V344
p106
sg31
VClaydol
p107
sg33
VU
p108
sg35
V45
p109
sg37
(lp110
Vpower-trick
p111
aVearth-power
p112
aVguard-split
p113
aVpower-split
p114
asg42
g43
sg44
Vlevitate
p115
sbasg46
I00
sg47
g48
sbag1
(g2
g3
Ntp116
Rp117
(dp118
g7
VVSCabbie.png
p119
sg9
VCabbie
p120
sg11
VGeoffrey
p121
sg13
V5,520
p122
sg15
g56
sg17
g18
sg19
g20
sg21
VSM
p123
sg23
(lp124
g1
(g25
g3
Ntp125
Rp126
(dp127
g29
V823
p128
sg31
VCorviknight
p129
sg33
g34
sg35
V45
p130
sg37
(lp131
sg42
g43
sg44
Vunnerve
p132
sbag1
(g25
g3
Ntp133
Rp134
(dp135
g29
V330
p136
sg31
VFlygon
p137
sg33
g34
sg35
V46
p138
sg37
(lp139
Vdragon-rush
p140
aVearth-power
p141
aVbulldoze
p142
aVdragon-tail
p143
asg42
g43
sg44
Vlevitate
p144
sbasg46
I00
sg47
g48
sbag1
(g2
g3
Ntp145
Rp146
(dp147
g7
VVSPostman.png
p148
sg9
VPostman
p149
sg11
VHarper
p150
sg13
V4,416
p151
sg15
g56
sg17
g18
sg19
g20
sg21
VSM
p152
sg23
(lp153
g1
(g25
g3
Ntp154
Rp155
(dp156
g29
V279
p157
sg31
VPelipper
p158
sg33
g34
sg35
V46
p159
sg37
(lp160
Vfling
p161
aVsoak
p162
aVhurricane
p163
ag163
asg42
g43
sg44
Vdrizzle
p164
sbag1
(g25
g3
Ntp165
Rp166
(dp167
g29
V164
p168
sg31
VNoctowl
p169
sg33
g34
sg35
V46
p170
sg37
(lp171
Vzen-headbutt
p172
aVsynchronoise
p173
aVechoed-voice
p174
aVmoonblast
p175
asg42
g43
sg44
Vinsomnia
p176
sbasg46
I00
sg47
g48
sbag1
(g2
g3
Ntp177
Rp178
(dp179
g7
VVSHiker SwSh.png
p180
sg9
VHiker
p181
sg11
VDonald
p182
sg13
V4,600
p183
sg15
g56
sg17
g18
sg19
g20
sg21
g57
sg23
(lp184
g1
(g25
g3
Ntp185
Rp186
(dp187
g29
V526
p188
sg31
VGigalith
p189
sg33
g34
sg35
V46
p190
sg37
(lp191
Vpower-gem
p192
aVstone-edge
p193
aVstealth-rock
p194
aVsmack-down
p195
asg42
g43
sg44
Vsand-stream
p196
sbag1
(g25
g3
Ntp197
Rp198
(dp199
g29
V112
p200
sg31
VRhydon
p201
sg33
g34
sg35
V46
p202
sg37
(lp203
Vsmack-down
p204
aVchip-away
p205
aVbulldoze
p206
aVdrill-run
p207
asg42
g43
sg44
Vrock-head
p208
sbasg46
I00
sg47
g48
sbag1
(g2
g3
Ntp209
Rp210
(dp211
g7
VVSGentleman SwSh.png
p212
sg9
VGentleman
p213
sg11
VGlenn
p214
sg13
V9,200
p215
sg15
V3
p216
sg17
g18
sg19
g20
sg21
VSM
p217
sg23
(lp218
sg46
I00
sg47
g48
sbag1
(g2
g3
Ntp219
Rp220
(dp221
g7
VVSInterviewers SwSh.png
p222
sg9
VInterviewers
p223
sg11
VGillian and Cam
p224
sg13
V9,400
p225
sg15
V4
p226
sg17
g18
sg19
g20
sg21
VSM
p227
sg23
(lp228
g1
(g25
g3
Ntp229
Rp230
(dp231
g29
V695
p232
sg31
VHeliolisk
p233
sg33
g34
sg35
V46
p234
sg37
(lp235
Vcharge
p236
aVparabolic-charge
p237
aVelectrify
p238
aVeerie-impulse
p239
asg42
g43
sg44
Vsand-veil
p240
sbag1
(g25
g3
Ntp241
Rp242
(dp243
g29
V715
p244
sg31
VNoivern
p245
sg33
VF
p246
sg35
V47
p247
sg37
(lp248
Vhurricane
p249
ag249
aVboomburst
p250
ag250
asg42
g43
sg44
Vinfiltrator
p251
sbag1
(g25
g3
Ntp252
Rp253
(dp254
g29
V601
p255
sg31
VKlinklang
p256
sg33
g108
sg35
V46
p257
sg37
(lp258
Vgear-grind
p259
ag259
aVmagnetic-flux
p260
aVgear-up
p261
asg42
g43
sg44
Vplus
p262
sbag1
(g25
g3
Ntp263
Rp264
(dp265
g29
V777
p266
sg31
VTogedemaru
p267
sg33
g34
sg35
V47
p268
sg37
(lp269
Vspiky-shield
p270
aVelectric-terrain
p271
aVnuzzle
p272
aVzing-zap
p273
asg42
g43
sg44
Viron-barbs
p274
sbasg46
I00
sg47
g48
sba.