(lp0
ccopy_reg
_reconstructor
p1
(c__main__
Trainer
p2
c__builtin__
object
p3
Ntp4
Rp5
(dp6
VtSprite
p7
VVSDoctor F.png
p8
sVtClass
p9
VDoctor
p10
sVtName
p11
VJoanna
p12
sVtMoney
p13
V4,320
p14
sVtPokeCount
p15
V2
p16
sVtLocation
p17
Vwiki/Galar_Route_8
p18
sVtRegion
p19
VGalar
p20
sVtGame
p21
VSM
p22
sVtPokes
p23
(lp24
g1
(c__main__
FinishedPokemon
p25
g3
Ntp26
Rp27
(dp28
VpDexNo
p29
V315
p30
sVpSpecies
p31
VRoselia
p32
sVpGender
p33
VF
p34
sVpLevel
p35
V36
p36
sVpMoves
p37
(lp38
Vgrass-whistle
p39
aVmagical-leaf
p40
aVtoxic-spikes
p41
aVpetal-blizzard
p42
asVpHold
p43
V
p44
sVpAbility
p45
Vpoison-point
p46
sbag1
(g25
g3
Ntp47
Rp48
(dp49
g29
V857
p50
sg31
VHattrem
p51
sg33
g34
sg35
V36
p52
sg37
(lp53
sg43
g44
sg45
Vhealer
p54
sbasVbossFlag
p55
I00
sVtLongGame
p56
Vsun-moon
p57
sbag1
(g2
g3
Ntp58
Rp59
(dp60
g7
VVSBackpacker SwSh.png
p61
sg9
VBackpacker
p62
sg11
VBarbara
p63
sg13
V2,664
p64
sg15
g16
sg17
g18
sg19
g20
sg21
VSM
p65
sg23
(lp66
g1
(g25
g3
Ntp67
Rp68
(dp69
g29
V885
p70
sg31
VDreepy
p71
sg33
g34
sg35
V36
p72
sg37
(lp73
sg43
g44
sg45
Vclear-body
p74
sbag1
(g25
g3
Ntp75
Rp76
(dp77
g29
V629
p78
sg31
VVullaby
p79
sg33
g34
sg35
V37
p80
sg37
(lp81
Vair-slash
p82
aVbrave-bird
p83
aVnasty-plot
p84
aVdefog
p85
asg43
g44
sg45
Vovercoat
p86
sbasg55
I00
sg56
g57
sbag1
(g2
g3
Ntp87
Rp88
(dp89
g7
VVSMusician.png
p90
sg9
VMusician
p91
sg11
VCharles
p92
sg13
V2,368
p93
sg15
V1
p94
sg17
g18
sg19
g20
sg21
VSM
p95
sg23
(lp96
g1
(g25
g3
Ntp97
Rp98
(dp99
g29
V777
p100
sg31
VTogedemaru
p101
sg33
VM
p102
sg35
V37
p103
sg37
(lp104
Vspiky-shield
p105
aVelectric-terrain
p106
aVnuzzle
p107
aVzing-zap
p108
asg43
g44
sg45
Viron-barbs
p109
sbasg55
I00
sg56
g57
sbag1
(g2
g3
Ntp110
Rp111
(dp112
g7
VVSColleagues.png
p113
sg9
VColleagues
p114
sg11
VJordan and Alison
p115
sg13
V6,660
p116
sg15
V4
p117
sg17
g18
sg19
g20
sg21
VSM
p118
sg23
(lp119
g1
(g25
g3
Ntp120
Rp121
(dp122
g29
V530
p123
sg31
VExcadrill
p124
sg33
g102
sg35
V36
p125
sg37
(lp126
Vmud-sport
p127
aVhone-claws
p128
aVdrill-run
p129
aVrototiller
p130
asg43
g44
sg45
Vsand-rush
p131
sbag1
(g25
g3
Ntp132
Rp133
(dp134
g29
V448
p135
sg31
VLucario
p136
sg33
g102
sg35
V37
p137
sg37
(lp138
Vheal-pulse
p139
aVwork-up
p140
aVpower-up-punch
p141
aVlaser-focus
p142
asg43
g44
sg45
Vsteadfast
p143
sbag1
(g25
g3
Ntp144
Rp145
(dp146
g29
V450
p147
sg31
VHippowdon
p148
sg33
g34
sg35
V36
p149
sg37
(lp150
Vsand-tomb
p151
aVthunder-fang
p152
aVice-fang
p153
aVfire-fang
p154
asg43
g44
sg45
Vsand-stream
p155
sbag1
(g25
g3
Ntp156
Rp157
(dp158
g29
V863
p159
sg31
VPerrserker
p160
sg33
g34
sg35
V37
p161
sg37
(lp162
sg43
g44
sg45
Vbattle-armor
p163
sbasg55
I00
sg56
g57
sbag1
(g2
g3
Ntp164
Rp165
(dp166
g7
VVSPolice Officer SwSh.png
p167
sg9
VPolice Officer
p168
sg11
VBobby
p169
sg13
V4,440
p170
sg15
g16
sg17
g18
sg19
g20
sg21
VSM
p171
sg23
(lp172
g1
(g25
g3
Ntp173
Rp174
(dp175
g29
V059
p176
sg31
VArcanine
p177
sg33
g102
sg35
V37
p178
sg37
(lp179
Vextreme-speed
p180
aVodor-sleuth
p181
aVthunder-fang
p182
aVfire-fang
p183
asg43
g44
sg45
Vintimidate
p184
sbag1
(g25
g3
Ntp185
Rp186
(dp187
g29
V836
p188
sg31
VBoltund
p189
sg33
g102
sg35
V37
p190
sg37
(lp191
sg43
g44
sg45
Vstrong-jaw
p192
sbasg55
I00
sg56
g57
sba.