(lp0
ccopy_reg
_reconstructor
p1
(c__main__
Trainer
p2
c__builtin__
object
p3
Ntp4
Rp5
(dp6
VtSprite
p7
VVSLass SwSh.png
p8
sVtClass
p9
VLass
p10
sVtName
p11
VRei
p12
sVtMoney
p13
V1,008
p14
sVtPokeCount
p15
V1
p16
sVtLocation
p17
Vwiki/Galar_Route_3
p18
sVtRegion
p19
VGalar
p20
sVtGame
p21
VSM
p22
sVtPokes
p23
(lp24
g1
(c__main__
FinishedPokemon
p25
g3
Ntp26
Rp27
(dp28
VpDexNo
p29
V037
p30
sVpSpecies
p31
VVulpix
p32
sVpGender
p33
VF
p34
sVpLevel
p35
V12
p36
sVpMoves
p37
(lp38
Vflame-burst
p39
aVhex
p40
aVinferno
p41
aVbaby-doll-eyes
p42
asVpHold
p43
V
p44
sVpAbility
p45
Vflash-fire
p46
sbasVbossFlag
p47
I00
sVtLongGame
p48
Vsun-moon
p49
sbag1
(g2
g3
Ntp50
Rp51
(dp52
g7
VVSSchoolgirl SwSh.png
p53
sg9
VSchoolgirl
p54
sg11
VHannah
p55
sg13
V936
p56
sg15
g16
sg17
g18
sg19
g20
sg21
VSM
p57
sg23
(lp58
g1
(g25
g3
Ntp59
Rp60
(dp61
g29
V674
p62
sg31
VPancham
p63
sg33
VM
p64
sg35
V13
p65
sg37
(lp66
Ventrainment
p67
aVcircle-throw
p68
aVwork-up
p69
aVparting-shot
p70
asg43
g44
sg45
Vmold-breaker
p71
sbasg47
I00
sg48
g49
sbag1
(g2
g3
Ntp72
Rp73
(dp74
g7
VVSSchoolboy SwSh.png
p75
sg9
VSchoolboy
p76
sg11
V[[Marvin]]
p77
sg13
V720
p78
sg15
V2
p79
sg17
g18
sg19
g20
sg21
VSM
p80
sg23
(lp81
g1
(g25
g3
Ntp82
Rp83
(dp84
g29
V406
p85
sg31
VBudew
p86
sg33
g64
sg35
V12
p87
sg37
(lp88
Vgrowth
p89
aVstun-spore
p90
aVwater-sport
p91
aVworry-seed
p92
asg43
g44
sg45
Vnatural-cure
p93
sbag1
(g25
g3
Ntp94
Rp95
(dp96
g29
V829
p97
sg31
VGossifleur
p98
sg33
g64
sg35
V12
p99
sg37
(lp100
sg43
g44
sg45
Vregenerator
p101
sbasg47
I00
sg48
g49
sbag1
(g2
g3
Ntp102
Rp103
(dp104
g7
VVSSchoolgirl SwSh.png
p105
sg9
VSchoolgirl
p106
sg11
VKayleigh
p107
sg13
V936
p108
sg15
g79
sg17
g18
sg19
g20
sg21
g57
sg23
(lp109
g1
(g25
g3
Ntp110
Rp111
(dp112
g29
V509
p113
sg31
VPurrloin
p114
sg33
g34
sg35
V12
p115
sg37
(lp116
Vnasty-plot
p117
aVcaptivate
p118
aVhone-claws
p119
aVplay-rough
p120
asg43
g44
sg45
Vunburden
p121
sbag1
(g25
g3
Ntp122
Rp123
(dp124
g29
V819
p125
sg31
VSkwovet
p126
sg33
g64
sg35
V13
p127
sg37
(lp128
sg43
g44
sg45
Vcheek-pouch
p129
sbasg47
I00
sg48
g49
sbag1
(g2
g3
Ntp130
Rp131
(dp132
g7
VVSPostman.png
p133
sg9
VPostman
p134
sg11
VTad
p135
sg13
V1,344
p136
sg15
g16
sg17
g18
sg19
g20
sg21
VSM
p137
sg23
(lp138
g1
(g25
g3
Ntp139
Rp140
(dp141
g29
V225
p142
sg31
VDelibird
p143
sg33
g64
sg35
V14
p144
sg37
(lp145
Vdrill-peck
p146
aVpresent
p147
asg43
g44
sg45
Vhustle
p148
sbasg47
I00
sg48
g49
sbag1
(g2
g3
Ntp149
Rp150
(dp151
g7
VVSSchoolboy SwSh.png
p152
sg9
VSchoolboy
p153
sg11
VPeter
p154
sg13
V840
p155
sg15
g79
sg17
g18
sg19
g20
sg21
g80
sg23
(lp156
g1
(g25
g3
Ntp157
Rp158
(dp159
g29
V850
p160
sg31
VSizzlipede
p161
sg33
g64
sg35
V13
p162
sg37
(lp163
sg43
g44
sg45
Vwhite-smoke
p164
sbag1
(g25
g3
Ntp165
Rp166
(dp167
g29
V825
p168
sg31
VDottler
p169
sg33
g64
sg35
V14
p170
sg37
(lp171
sg43
g44
sg45
Vswarm
p172
sbasg47
I00
sg48
g49
sba.