(lp0
ccopy_reg
_reconstructor
p1
(c__main__
Trainer
p2
c__builtin__
object
p3
Ntp4
Rp5
(dp6
VtSprite
p7
VSpr B2W2 Plasma Grunt M.png
p8
sVtClass
p9
VTeam Plasma Grunt
p10
sVtName
p11
V
p12
sVtMoney
p13
g1
(cmwparserfromhell.wikicode
Wikicode
p14
g3
Ntp15
Rp16
(dp17
V_nodes
p18
g1
(cmwparserfromhell.smart_list.smart_list
SmartList
p19
c__builtin__
list
p20
(lp21
g1
(cmwparserfromhell.nodes.text
Text
p22
g3
Ntp23
Rp24
(dp25
V_value
p26
V1880
p27
sbatp28
Rp29
(dp30
V_children
p31
(dp32
sbsbsVtPokeCount
p33
V2
p34
sVtLocation
p35
Vwiki/Giant_Chasm
p36
sVtRegion
p37
VUnova
p38
sVtGame
p39
VB2W2
p40
sVtPokes
p41
(lp42
g1
(c__main__
FinishedPokemon
p43
g3
Ntp44
Rp45
(dp46
VpDexNo
p47
V110
p48
sVpSpecies
p49
VWeezing
p50
sVpGender
p51
VM
p52
sVpLevel
p53
V47
p54
sVpMoves
p55
(lp56
Vmemento
p57
aVassurance
p58
aVdouble-hit
p59
aVclear-smog
p60
asVpHold
p61
g12
sVpAbility
p62
Vlevitate
p63
sbag1
(g43
g3
Ntp64
Rp65
(dp66
g47
V089
p67
sg49
VMuk
p68
sg51
g52
sg53
V47
p69
sg55
(lp70
Vfling
p71
aVmud-bomb
p72
aVgunk-shot
p73
aVsludge-wave
p74
asg61
g12
sg62
Vsticky-hold
p75
sbasVbossFlag
p76
I00
sVtLongGame
p77
Vblack-2-white-2
p78
sbag1
(g2
g3
Ntp79
Rp80
(dp81
g7
VSpr B2W2 Ghetsis.png
p82
sg9
VTeam Plasma
p83
sg11
VGhetsis
p84
sg13
g1
(g14
g3
Ntp85
Rp86
(dp87
g18
g1
(g19
g20
(lp88
g1
(g22
g3
Ntp89
Rp90
(dp91
g26
V9360
p92
sbatp93
Rp94
(dp95
g31
(dp96
sbsbsg33
I6
sg35
g36
sg37
g38
sg39
g40
sg41
(lp97
g1
(g43
g3
Ntp98
Rp99
(dp100
g47
I563
sg49
VCofagrigus
p101
sg51
g52
sg53
g1
(g14
g3
Ntp102
Rp103
(dp104
g18
g1
(g19
g20
(lp105
g1
(g22
g3
Ntp106
Rp107
(dp108
g26
V50
p109
sbatp110
Rp111
(dp112
g31
(dp113
sbsbsg55
(lp114
VShadow Ball
p115
aVPsychic
p116
aVProtect
p117
aVToxic
p118
asg61
VLeftovers
p119
sg62
VMummy
p120
sbag1
(g43
g3
Ntp121
Rp122
(dp123
g47
I537
sg49
VSeismitoad
p124
sg51
g52
sg53
g1
(g14
g3
Ntp125
Rp126
(dp127
g18
g1
(g19
g20
(lp128
g1
(g22
g3
Ntp129
Rp130
(dp131
g26
V50
p132
sbatp133
Rp134
(dp135
g31
(dp136
sbsbsg55
(lp137
VMuddy Water
p138
aVEarthquake
p139
aVDrain Punch
p140
aVSludge Wave
p141
asg61
g12
sg62
VPoison Touch
p142
sbag1
(g43
g3
Ntp143
Rp144
(dp145
g47
I604
sg49
VEelektross
p146
sg51
g52
sg53
g1
(g14
g3
Ntp147
Rp148
(dp149
g18
g1
(g19
g20
(lp150
g1
(g22
g3
Ntp151
Rp152
(dp153
g26
V50
p154
sbatp155
Rp156
(dp157
g31
(dp158
sbsbsg55
(lp159
VFlamethrower
p160
aVAcrobatics
p161
aVThunderbolt
p162
aVCrunch
p163
asg61
g12
sg62
VLevitate
p164
sbag1
(g43
g3
Ntp165
Rp166
(dp167
g47
I452
sg49
VDrapion
p168
sg51
g52
sg53
g1
(g14
g3
Ntp169
Rp170
(dp171
g18
g1
(g19
g20
(lp172
g1
(g22
g3
Ntp173
Rp174
(dp175
g26
V50
p176
sbatp177
Rp178
(dp179
g31
(dp180
sbsbsg55
(lp181
VNight Slash
p182
aVEarthquake
p183
aVPoison Fang
p184
aVX-Scissor
p185
asg61
g12
sg62
VSniper
p186
sbag1
(g43
g3
Ntp187
Rp188
(dp189
g47
I454
sg49
VToxicroak
p190
sg51
g52
sg53
g1
(g14
g3
Ntp191
Rp192
(dp193
g18
g1
(g19
g20
(lp194
g1
(g22
g3
Ntp195
Rp196
(dp197
g26
V50
p198
sbatp199
Rp200
(dp201
g31
(dp202
sbsbsg55
(lp203
VBrick Break
p204
aVShadow Ball
p205
aVSucker Punch
p206
aVPoison Jab
p207
asg61
g12
sg62
VAnticipation
p208
sbag1
(g43
g3
Ntp209
Rp210
(dp211
g47
I635
sg49
VHydreigon
p212
sg51
g52
sg53
g1
(g14
g3
Ntp213
Rp214
(dp215
g18
g1
(g19
g20
(lp216
g1
(g22
g3
Ntp217
Rp218
(dp219
g26
V52
p220
sbatp221
Rp222
(dp223
g31
(dp224
sbsbsg55
(lp225
VDragon Rush
p226
aVCrunch
p227
aVRock Slide
p228
aVFrustration
p229
asg61
VLife Orb
p230
sg62
VLevitate
p231
sbasg76
I01
sg77
g78
sba.