(lp0
ccopy_reg
_reconstructor
p1
(c__main__
Trainer
p2
c__builtin__
object
p3
Ntp4
Rp5
(dp6
VtSprite
p7
VVSCook SwSh.png
p8
sVtClass
p9
VCook
p10
sVtName
p11
VDerek
p12
sVtMoney
p13
V4,080
p14
sVtPokeCount
p15
V3
p16
sVtLocation
p17
Vwiki/Glimwood_Tangle
p18
sVtRegion
p19
VGalar
p20
sVtGame
p21
VSM
p22
sVtPokes
p23
(lp24
g1
(c__main__
FinishedPokemon
p25
g3
Ntp26
Rp27
(dp28
VpDexNo
p29
V868
p30
sVpSpecies
p31
VMilcery
p32
sVpGender
p33
VF
p34
sVpLevel
p35
V33
p36
sVpMoves
p37
(lp38
sVpHold
p39
V
p40
sVpAbility
p41
Vsweet-veil
p42
sbag1
(g25
g3
Ntp43
Rp44
(dp45
g29
V854
p46
sg31
VSinistea
p47
sg33
VU
p48
sg35
V33
p49
sg37
(lp50
sg39
g40
sg41
Vweak-armor
p51
sbag1
(g25
g3
Ntp52
Rp53
(dp54
g29
V756
p55
sg31
VShiinotic
p56
sg33
g34
sg35
V34
p57
sg37
(lp58
Vastonish
p59
aVmoonblast
p60
aVstrength-sap
p61
aVspotlight
p62
asg39
g40
sg41
Veffect-spore
p63
sbasVbossFlag
p64
I00
sVtLongGame
p65
Vsun-moon
p66
sbag1
(g2
g3
Ntp67
Rp68
(dp69
g7
VVSDaring Couple.png
p70
sg9
VDaring Couple
p71
sg11
VRobert and Jacqueline
p72
sg13
V7,344
p73
sg15
V2
p74
sg17
g18
sg19
g20
sg21
VSM
p75
sg23
(lp76
g1
(g25
g3
Ntp77
Rp78
(dp79
g29
V038
p80
sg31
VNinetales
p81
sg33
VM
p82
sg35
V34
p83
sg37
(lp84
Vconfuse-ray
p85
aVsafeguard
p86
aVimprison
p87
aVnasty-plot
p88
asg39
g40
sg41
Vflash-fire
p89
sbag1
(g25
g3
Ntp90
Rp91
(dp92
g29
V281
p93
sg31
VKirlia
p94
sg33
g34
sg35
V34
p95
sg37
(lp96
Vstored-power
p97
aVheal-pulse
p98
aVdisarming-voice
p99
aVdraining-kiss
p100
asg39
g40
sg41
Vtrace
p101
sbasg64
I00
sg65
g66
sbag1
(g2
g3
Ntp102
Rp103
(dp104
g7
VVSMadame SwSh.png
p105
sg9
VMadame
p106
sg11
VJudy
p107
sg13
V6,600
p108
sg15
g74
sg17
g18
sg19
g20
sg21
VSM
p109
sg23
(lp110
sg64
I00
sg65
g66
sba.