(lp0
ccopy_reg
_reconstructor
p1
(c__main__
Trainer
p2
c__builtin__
object
p3
Ntp4
Rp5
(dp6
VtSprite
p7
VSpr GS Gentleman.png
p8
sVtClass
p9
VGentleman
p10
sVtName
p11
VAlfred
p12
sVtMoney
p13
V1440
p14
sVtPokeCount
p15
V1
p16
sVtLocation
p17
Vwiki/Glitter_Lighthouse
p18
sVtRegion
p19
VJohto
p20
sVtGame
p21
VGS
p22
sVtPokes
p23
(lp24
g1
(c__main__
FinishedPokemon
p25
g3
Ntp26
Rp27
(dp28
VpDexNo
p29
V164
p30
sVpSpecies
p31
VNoctowl
p32
sVpGender
p33
VM
p34
sVpLevel
p35
V20
p36
sVpMoves
p37
(lp38
Vreflect
p39
aVdream-eater
p40
aVforesight
p41
ag41
asVpHold
p42
V
p43
sVpAbility
p44
Vinsomnia
p45
sbasVbossFlag
p46
I00
sVtLongGame
p47
Vgold-silver
p48
sbag1
(g2
g3
Ntp49
Rp50
(dp51
g7
VSpr GS Sailor.png
p52
sg9
VSailor
p53
sg11
VHuey
p54
sg13
V720
p55
sg15
V2
p56
sg17
g18
sg19
g20
sg21
g22
sg23
(lp57
g1
(g25
g3
Ntp58
Rp59
(dp60
g29
V060
p61
sg31
VPoliwag
p62
sg33
g34
sg35
V18
p63
sg37
(lp64
Vhypnosis
p65
aVbubble
p66
aVbelly-drum
p67
aVrain-dance
p68
asg42
g43
sg44
Vdamp
p69
sbag1
(g25
g3
Ntp70
Rp71
(dp72
g29
V061
p73
sg31
VPoliwhirl
p74
sg33
g34
sg35
V18
p75
sg37
(lp76
Vhypnosis
p77
aVbubble
p78
aVbelly-drum
p79
aVrain-dance
p80
asg42
g43
sg44
Vdamp
p81
sbasg46
I00
sg47
g48
sbag1
(g2
g3
Ntp82
Rp83
(dp84
g7
VSpr GS Bird Keeper.png
p85
sg9
VBird Keeper
p86
sg11
VTheo
p87
sg13
V360
p88
sg15
V5
p89
sg17
g18
sg19
g20
sg21
g22
sg23
(lp90
g1
(g25
g3
Ntp91
Rp92
(dp93
g29
V016
p94
sg31
VPidgey
p95
sg33
g34
sg35
V17
p96
sg37
(lp97
Vtackle
p98
aVagility
p99
aVquick-attack
p100
aVmirror-move
p101
asg42
g43
sg44
Vkeen-eye
p102
sbag1
(g25
g3
Ntp103
Rp104
(dp105
g29
V016
p106
sg31
VPidgey
p107
sg33
g34
sg35
V19
p108
sg37
(lp109
Vtackle
p110
aVagility
p111
aVquick-attack
p112
aVmirror-move
p113
asg42
g43
sg44
Vkeen-eye
p114
sbag1
(g25
g3
Ntp115
Rp116
(dp117
g29
V016
p118
sg31
VPidgey
p119
sg33
g34
sg35
V15
p120
sg37
(lp121
Vtackle
p122
aVagility
p123
aVquick-attack
p124
aVmirror-move
p125
asg42
g43
sg44
Vtangled-feet
p126
sbag1
(g25
g3
Ntp127
Rp128
(dp129
g29
V016
p130
sg31
VPidgey
p131
sg33
g34
sg35
V15
p132
sg37
(lp133
Vtackle
p134
aVagility
p135
aVquick-attack
p136
aVmirror-move
p137
asg42
g43
sg44
Vtangled-feet
p138
sbag1
(g25
g3
Ntp139
Rp140
(dp141
g29
V016
p142
sg31
VPidgey
p143
sg33
g34
sg35
V15
p144
sg37
(lp145
Vtackle
p146
aVagility
p147
aVquick-attack
p148
aVmirror-move
p149
asg42
g43
sg44
Vkeen-eye
p150
sbasg46
I00
sg47
g48
sbag1
(g2
g3
Ntp151
Rp152
(dp153
g7
VSpr GS Gentleman.png
p154
sg9
VGentleman
p155
sg11
VPreston
p156
sg13
V1296
p157
sg15
g56
sg17
g18
sg19
g20
sg21
g22
sg23
(lp158
g1
(g25
g3
Ntp159
Rp160
(dp161
g29
V058
p162
sg31
VGrowlithe
p163
sg33
g34
sg35
V18
p164
sg37
(lp165
Vember
p166
aVflamethrower
p167
aVagility
p168
aVflame-wheel
p169
asg42
g43
sg44
Vflash-fire
p170
sbag1
(g25
g3
Ntp171
Rp172
(dp173
g29
V058
p174
sg31
VGrowlithe
p175
sg33
g34
sg35
V18
p176
sg37
(lp177
Vember
p178
aVflamethrower
p179
aVagility
p180
aVflame-wheel
p181
asg42
g43
sg44
Vflash-fire
p182
sbasg46
I00
sg47
g48
sbag1
(g2
g3
Ntp183
Rp184
(dp185
g7
VSpr GS Sailor.png
p186
sg9
VSailor
p187
sg11
VTerrell
p188
sg13
V800
p189
sg15
g16
sg17
g18
sg19
g20
sg21
g22
sg23
(lp190
g1
(g25
g3
Ntp191
Rp192
(dp193
g29
V061
p194
sg31
VPoliwhirl
p195
sg33
g34
sg35
V20
p196
sg37
(lp197
Vhypnosis
p198
aVbubble
p199
aVbelly-drum
p200
aVrain-dance
p201
asg42
g43
sg44
Vwater-absorb
p202
sbasg46
I00
sg47
g48
sbag1
(g2
g3
Ntp203
Rp204
(dp205
g7
VSpr GS Lass.png
p206
sg9
VLass
p207
sg11
VConnie
p208
sg13
V504
p209
sg15
g16
sg17
g18
sg19
g20
sg21
g22
sg23
(lp210
g1
(g25
g3
Ntp211
Rp212
(dp213
g29
V183
p214
sg31
VMarill
p215
sg33
VF
p216
sg35
V21
p217
sg37
(lp218
Vbubble-beam
p219
aVdefense-curl
p220
aVrollout
p221
aVrain-dance
p222
asg42
g43
sg44
Vhuge-power
p223
sbasg46
I00
sg47
g48
sbag1
(g2
g3
Ntp224
Rp225
(dp226
g7
VSpr GS Sailor.png
p227
sg9
VSailor
p228
sg11
VKent
p229
sg13
V800
p230
sg15
g56
sg17
g18
sg19
g20
sg21
g22
sg23
(lp231
g1
(g25
g3
Ntp232
Rp233
(dp234
g29
V098
p235
sg31
VKrabby
p236
sg33
g34
sg35
V18
p237
sg37
(lp238
Vharden
p239
aVbubble
p240
aVcrabhammer
p241
aVprotect
p242
asg42
g43
sg44
Vshell-armor
p243
sbag1
(g25
g3
Ntp244
Rp245
(dp246
g29
V098
p247
sg31
VKrabby
p248
sg33
g34
sg35
V20
p249
sg37
(lp250
Vharden
p251
aVbubble
p252
aVcrabhammer
p253
aVprotect
p254
asg42
g43
sg44
Vshell-armor
p255
sbasg46
I00
sg47
g48
sbag1
(g2
g3
Ntp256
Rp257
(dp258
g7
VSpr GS Bird Keeper.png
p259
sg9
VBird Keeper
p260
sg11
VDenis
p261
sg13
V432
p262
sg15
V3
p263
sg17
g18
sg19
g20
sg21
g22
sg23
(lp264
g1
(g25
g3
Ntp265
Rp266
(dp267
g29
V021
p268
sg31
VSpearow
p269
sg33
g34
sg35
V18
p270
sg37
(lp271
Vdrill-peck
p272
aVagility
p273
aVmirror-move
p274
aVpursuit
p275
asg42
g43
sg44
Vkeen-eye
p276
sbag1
(g25
g3
Ntp277
Rp278
(dp279
g29
V021
p280
sg31
VSpearow
p281
sg33
g34
sg35
V18
p282
sg37
(lp283
Vdrill-peck
p284
aVagility
p285
aVmirror-move
p286
aVpursuit
p287
asg42
g43
sg44
Vkeen-eye
p288
sbag1
(g25
g3
Ntp289
Rp290
(dp291
g29
V022
p292
sg31
VFearow
p293
sg33
g34
sg35
V20
p294
sg37
(lp295
Vdrill-peck
p296
aVagility
p297
aVmirror-move
p298
aVpursuit
p299
asg42
g43
sg44
Vkeen-eye
p300
sbasg46
I00
sg47
g48
sbag1
(g2
g3
Ntp301
Rp302
(dp303
g7
VSpr GS Sailor.png
p304
sg9
VSailor
p305
sg11
VErnest
p306
sg13
V720
p307
sg15
g263
sg17
g18
sg19
g20
sg21
g22
sg23
(lp308
g1
(g25
g3
Ntp309
Rp310
(dp311
g29
V066
p312
sg31
VMachop
p313
sg33
g34
sg35
V18
p314
sg37
(lp315
Vscary-face
p316
aVforesight
p317
aVvital-throw
p318
aVcross-chop
p319
asg42
g43
sg44
Vguts
p320
sbag1
(g25
g3
Ntp321
Rp322
(dp323
g29
V066
p324
sg31
VMachop
p325
sg33
g34
sg35
V18
p326
sg37
(lp327
Vscary-face
p328
aVforesight
p329
aVvital-throw
p330
aVcross-chop
p331
asg42
g43
sg44
Vno-guard
p332
sbag1
(g25
g3
Ntp333
Rp334
(dp335
g29
V061
p336
sg31
VPoliwhirl
p337
sg33
g34
sg35
V18
p338
sg37
(lp339
Vhypnosis
p340
aVbubble
p341
aVbelly-drum
p342
aVrain-dance
p343
asg42
g43
sg44
Vwater-absorb
p344
sbasg46
I00
sg47
g48
sbag1
(g2
g3
Ntp345
Rp346
(dp347
g7
VSpr GS Sailor.png
p348
sg9
VSailor
p349
sg11
VHuey{{tt|*|First rematch}}
p350
sg13
V1120
p351
sg15
g56
sg17
g18
sg19
g20
sg21
g22
sg23
(lp352
g1
(g25
g3
Ntp353
Rp354
(dp355
g29
V061
p356
sg31
VPoliwhirl
p357
sg33
g34
sg35
V28
p358
sg37
(lp359
Vhypnosis
p360
aVbubble
p361
aVbelly-drum
p362
aVrain-dance
p363
asg42
g43
sg44
Vdamp
p364
sbag1
(g25
g3
Ntp365
Rp366
(dp367
g29
V061
p368
sg31
VPoliwhirl
p369
sg33
g34
sg35
V28
p370
sg37
(lp371
Vhypnosis
p372
aVbubble
p373
aVbelly-drum
p374
aVrain-dance
p375
asg42
g43
sg44
Vwater-absorb
p376
sbasg46
I00
sg47
g48
sbag1
(g2
g3
Ntp377
Rp378
(dp379
g7
VSpr GS Sailor.png
p380
sg9
VSailor
p381
sg11
VHuey{{tt|*|Second rematch}}
p382
sg13
V1360
p383
sg15
g56
sg17
g18
sg19
g20
sg21
g22
sg23
(lp384
g1
(g25
g3
Ntp385
Rp386
(dp387
g29
V061
p388
sg31
VPoliwhirl
p389
sg33
g34
sg35
V34
p390
sg37
(lp391
Vhypnosis
p392
aVbubble
p393
aVbelly-drum
p394
aVrain-dance
p395
asg42
g43
sg44
Vdamp
p396
sbag1
(g25
g3
Ntp397
Rp398
(dp399
g29
V062
p400
sg31
VPoliwrath
p401
sg33
g34
sg35
V34
p402
sg37
(lp403
Vsubmission
p404
ag404
aVhypnosis
p405
aVmind-reader
p406
asg42
g43
sg44
Vdamp
p407
sbasg46
I00
sg47
g48
sbag1
(g2
g3
Ntp408
Rp409
(dp410
g7
VSpr GS Sailor.png
p411
sg9
VSailor
p412
sg11
VHuey{{tt|*|Third rematch onward}}{{sup/2|C}}
p413
sg13
V1520
p414
sg15
g56
sg17
g18
sg19
g20
sg21
g22
sg23
(lp415
g1
(g25
g3
Ntp416
Rp417
(dp418
g29
V186
p419
sg31
VPolitoed
p420
sg33
g34
sg35
V38
p421
sg37
(lp422
Vhypnosis
p423
aVperish-song
p424
ag424
aVswagger
p425
asg42
g43
sg44
Vdamp
p426
sbag1
(g25
g3
Ntp427
Rp428
(dp429
g29
V062
p430
sg31
VPoliwrath
p431
sg33
g34
sg35
V38
p432
sg37
(lp433
Vsubmission
p434
ag434
aVhypnosis
p435
aVmind-reader
p436
asg42
g43
sg44
Vwater-absorb
p437
sbasg46
I00
sg47
g48
sbag1
(g2
g3
Ntp438
Rp439
(dp440
g7
VSpr HGSS Gentleman.png
p441
sg9
VGentleman
p442
sg11
VAlfred
p443
sg13
V4400
p444
sg15
g16
sg17
g18
sg19
g20
sg21
VHGSS
p445
sg23
(lp446
g1
(g25
g3
Ntp447
Rp448
(dp449
g29
V164
p450
sg31
VNoctowl
p451
sg33
g34
sg35
V22
p452
sg37
(lp453
Vroost
p454
aVpsycho-shift
p455
aVair-slash
p456
aVzen-headbutt
p457
asg42
g43
sg44
Vinsomnia
p458
sbasg46
I00
sg47
Vheartgold-soulsilver
p459
sbag1
(g2
g3
Ntp460
Rp461
(dp462
g7
VSpr DP Sailor.png
p463
sg9
VSailor
p464
sg11
VHuey
p465
sg13
V640
p466
sg15
g56
sg17
g18
sg19
g20
sg21
VDP
p467
sg23
(lp468
g1
(g25
g3
Ntp469
Rp470
(dp471
g29
V060
p472
sg31
VPoliwag
p473
sg33
g34
sg35
V18
p474
sg37
(lp475
Vmud-shot
p476
aVwater-sport
p477
aVwake-up-slap
p478
aVmud-bomb
p479
asg42
g43
sg44
Vdamp
p480
sbag1
(g25
g3
Ntp481
Rp482
(dp483
g29
V061
p484
sg31
VPoliwhirl
p485
sg33
g34
sg35
V20
p486
sg37
(lp487
Vmud-shot
p488
aVwater-sport
p489
aVwake-up-slap
p490
aVmud-bomb
p491
asg42
g43
sg44
Vdamp
p492
sbasg46
I00
sg47
Vdiamond-pearl
p493
sbag1
(g2
g3
Ntp494
Rp495
(dp496
g7
VSpr HGSS Bird Keeper.png
p497
sg9
VBird Keeper
p498
sg11
VTheo
p499
sg13
V480
p500
sg15
g89
sg17
g18
sg19
g20
sg21
g445
sg23
(lp501
g1
(g25
g3
Ntp502
Rp503
(dp504
g29
V016
p505
sg31
VPidgey
p506
sg33
g34
sg35
V17
p507
sg37
(lp508
Vfeather-dance
p509
aVroost
p510
aVtailwind
p511
aVair-slash
p512
asg42
g43
sg44
Vtangled-feet
p513
sbag1
(g25
g3
Ntp514
Rp515
(dp516
g29
V016
p517
sg31
VPidgey
p518
sg33
g34
sg35
V15
p519
sg37
(lp520
Vfeather-dance
p521
aVroost
p522
aVtailwind
p523
aVair-slash
p524
asg42
g43
sg44
Vkeen-eye
p525
sbag1
(g25
g3
Ntp526
Rp527
(dp528
g29
V016
p529
sg31
VPidgey
p530
sg33
g34
sg35
V19
p531
sg37
(lp532
Vfeather-dance
p533
aVroost
p534
aVtailwind
p535
aVair-slash
p536
asg42
g43
sg44
Vkeen-eye
p537
sbag1
(g25
g3
Ntp538
Rp539
(dp540
g29
V016
p541
sg31
VPidgey
p542
sg33
g34
sg35
V15
p543
sg37
(lp544
Vfeather-dance
p545
aVroost
p546
aVtailwind
p547
aVair-slash
p548
asg42
g43
sg44
Vkeen-eye
p549
sbag1
(g25
g3
Ntp550
Rp551
(dp552
g29
V016
p553
sg31
VPidgey
p554
sg33
g34
sg35
V15
p555
sg37
(lp556
Vfeather-dance
p557
aVroost
p558
aVtailwind
p559
aVair-slash
p560
asg42
g43
sg44
Vkeen-eye
p561
sbasg46
I00
sg47
g459
sbag1
(g2
g3
Ntp562
Rp563
(dp564
g7
VSpr DP Sailor.png
p565
sg9
VSailor
p566
sg11
VKent
p567
sg13
V640
p568
sg15
g56
sg17
g18
sg19
g20
sg21
g467
sg23
(lp569
g1
(g25
g3
Ntp570
Rp571
(dp572
g29
V098
p573
sg31
VKrabby
p574
sg33
g34
sg35
V18
p575
sg37
(lp576
Vmetal-claw
p577
aVmud-sport
p578
aVmud-shot
p579
aVbrine
p580
asg42
g43
sg44
Vhyper-cutter
p581
sbag1
(g25
g3
Ntp582
Rp583
(dp584
g29
V098
p585
sg31
VKrabby
p586
sg33
g34
sg35
V20
p587
sg37
(lp588
Vmetal-claw
p589
aVmud-sport
p590
aVmud-shot
p591
aVbrine
p592
asg42
g43
sg44
Vhyper-cutter
p593
sbasg46
I00
sg47
g493
sbag1
(g2
g3
Ntp594
Rp595
(dp596
g7
VSpr HGSS Bird Keeper.png
p597
sg9
VBird Keeper
p598
sg11
VDenis
p599
sg13
V576
p600
sg15
g263
sg17
g18
sg19
g20
sg21
g445
sg23
(lp601
g1
(g25
g3
Ntp602
Rp603
(dp604
g29
V021
p605
sg31
VSpearow
p606
sg33
g34
sg35
V18
p607
sg37
(lp608
Vpursuit
p609
aVaerial-ace
p610
aVroost
p611
aVassurance
p612
asg42
g43
sg44
Vkeen-eye
p613
sbag1
(g25
g3
Ntp614
Rp615
(dp616
g29
V022
p617
sg31
VFearow
p618
sg33
g34
sg35
V20
p619
sg37
(lp620
Vaerial-ace
p621
aVroost
p622
aVpluck
p623
aVassurance
p624
asg42
g43
sg44
Vkeen-eye
p625
sbag1
(g25
g3
Ntp626
Rp627
(dp628
g29
V021
p629
sg31
VSpearow
p630
sg33
g34
sg35
V18
p631
sg37
(lp632
Vpursuit
p633
aVaerial-ace
p634
aVroost
p635
aVassurance
p636
asg42
g43
sg44
Vkeen-eye
p637
sbasg46
I00
sg47
g459
sbag1
(g2
g3
Ntp638
Rp639
(dp640
g7
VSpr HGSS Gentleman.png
p641
sg9
VGentleman
p642
sg11
VPreston
p643
sg13
V3600
p644
sg15
g56
sg17
g18
sg19
g20
sg21
g445
sg23
(lp645
g1
(g25
g3
Ntp646
Rp647
(dp648
g29
V058
p649
sg31
VGrowlithe
p650
sg33
g34
sg35
V18
p651
sg37
(lp652
Vhelping-hand
p653
aVodor-sleuth
p654
aVflare-blitz
p655
aVfire-fang
p656
asg42
g43
sg44
Vintimidate
p657
sbag1
(g25
g3
Ntp658
Rp659
(dp660
g29
V058
p661
sg31
VGrowlithe
p662
sg33
g34
sg35
V18
p663
sg37
(lp664
Vhelping-hand
p665
aVodor-sleuth
p666
aVflare-blitz
p667
aVfire-fang
p668
asg42
g43
sg44
Vintimidate
p669
sbasg46
I00
sg47
g459
sbag1
(g2
g3
Ntp670
Rp671
(dp672
g7
VSpr HGSS Lass.png
p673
sg9
VLass
p674
sg11
VConnie
p675
sg13
V336
p676
sg15
g16
sg17
g18
sg19
g20
sg21
g445
sg23
(lp677
g1
(g25
g3
Ntp678
Rp679
(dp680
g29
V183
p681
sg31
VMarill
p682
sg33
g216
sg35
V21
p683
sg37
(lp684
Vrollout
p685
aVrain-dance
p686
aVaqua-ring
p687
aVaqua-tail
p688
asg42
g43
sg44
Vhuge-power
p689
sbasg46
I00
sg47
g459
sbag1
(g2
g3
Ntp690
Rp691
(dp692
g7
VSpr DP Sailor.png
p693
sg9
VSailor
p694
sg11
VTerrell
p695
sg13
V640
p696
sg15
g16
sg17
g18
sg19
g20
sg21
g467
sg23
(lp697
g1
(g25
g3
Ntp698
Rp699
(dp700
g29
V061
p701
sg31
VPoliwhirl
p702
sg33
g34
sg35
V20
p703
sg37
(lp704
Vmud-shot
p705
aVwater-sport
p706
aVwake-up-slap
p707
aVmud-bomb
p708
asg42
g43
sg44
Vwater-absorb
p709
sbasg46
I00
sg47
g493
sbag1
(g2
g3
Ntp710
Rp711
(dp712
g7
VSpr DP Sailor.png
p713
sg9
VSailor
p714
sg11
VRoberto
p715
sg13
V576
p716
sg15
g263
sg17
g18
sg19
g20
sg21
g467
sg23
(lp717
g1
(g25
g3
Ntp718
Rp719
(dp720
g29
V066
p721
sg31
VMachop
p722
sg33
g34
sg35
V18
p723
sg37
(lp724
Vvital-throw
p725
aVcross-chop
p726
aVrevenge
p727
aVwake-up-slap
p728
asg42
g43
sg44
Vguts
p729
sbag1
(g25
g3
Ntp730
Rp731
(dp732
g29
V066
p733
sg31
VMachop
p734
sg33
g34
sg35
V18
p735
sg37
(lp736
Vvital-throw
p737
aVcross-chop
p738
aVrevenge
p739
aVwake-up-slap
p740
asg42
g43
sg44
Vguts
p741
sbag1
(g25
g3
Ntp742
Rp743
(dp744
g29
V061
p745
sg31
VPoliwhirl
p746
sg33
g34
sg35
V18
p747
sg37
(lp748
Vmud-shot
p749
aVwater-sport
p750
aVwake-up-slap
p751
aVmud-bomb
p752
asg42
g43
sg44
Vwater-absorb
p753
sbasg46
I00
sg47
g493
sbag1
(g2
g3
Ntp754
Rp755
(dp756
g7
VSpr HGSS Gentleman.png
p757
sg9
VGentleman
p758
sg11
VAlfred
p759
sg13
g1
(cmwparserfromhell.wikicode
Wikicode
p760
g3
Ntp761
Rp762
(dp763
V_nodes
p764
g1
(cmwparserfromhell.smart_list.smart_list
SmartList
p765
c__builtin__
list
p766
(lp767
g1
(cmwparserfromhell.nodes.text
Text
p768
g3
Ntp769
Rp770
(dp771
V_value
p772
V7200
p773
sbatp774
Rp775
(dp776
V_children
p777
(dp778
sbsbsg15
g16
sg17
g18
sg19
g20
sg21
g445
sg23
(lp779
g1
(g25
g3
Ntp780
Rp781
(dp782
g29
V164
p783
sg31
VNoctowl
p784
sg33
g34
sg35
V36
p785
sg37
(lp786
Vroost
p787
aVpsycho-shift
p788
aVair-slash
p789
aVzen-headbutt
p790
asg42
g43
sg44
Vinsomnia
p791
sbasg46
I00
sg47
g459
sbag1
(g2
g3
Ntp792
Rp793
(dp794
g7
VSpr DP Sailor.png
p795
sg9
VSailor
p796
sg11
VHuey{{tt|*|First rematch}}
p797
sg13
V1152
p798
sg15
g56
sg17
g18
sg19
g20
sg21
g467
sg23
(lp799
g1
(g25
g3
Ntp800
Rp801
(dp802
g29
V061
p803
sg31
VPoliwhirl
p804
sg33
g34
sg35
V34
p805
sg37
(lp806
Vmud-shot
p807
aVwater-sport
p808
aVwake-up-slap
p809
aVmud-bomb
p810
asg42
g43
sg44
Vwater-absorb
p811
sbag1
(g25
g3
Ntp812
Rp813
(dp814
g29
V061
p815
sg31
VPoliwhirl
p816
sg33
g34
sg35
V36
p817
sg37
(lp818
Vmud-shot
p819
aVwater-sport
p820
aVwake-up-slap
p821
aVmud-bomb
p822
asg42
g43
sg44
Vwater-absorb
p823
sbasg46
I00
sg47
g493
sbag1
(g2
g3
Ntp824
Rp825
(dp826
g7
VSpr DP Sailor.png
p827
sg9
VSailor
p828
sg11
VHuey{{tt|*|Second rematch}}
p829
sg13
V1312
p830
sg15
g56
sg17
g18
sg19
g20
sg21
g467
sg23
(lp831
g1
(g25
g3
Ntp832
Rp833
(dp834
g29
V061
p835
sg31
VPoliwhirl
p836
sg33
g34
sg35
V38
p837
sg37
(lp838
Vmud-shot
p839
aVwater-sport
p840
aVwake-up-slap
p841
aVmud-bomb
p842
asg42
g43
sg44
Vdamp
p843
sbag1
(g25
g3
Ntp844
Rp845
(dp846
g29
V062
p847
sg31
VPoliwrath
p848
sg33
g34
sg35
V41
p849
sg37
(lp850
Vsubmission
p851
aVhypnosis
p852
aVmind-reader
p853
aVdynamic-punch
p854
asg42
g43
sg44
Vdamp
p855
sbasg46
I00
sg47
g493
sbag1
(g2
g3
Ntp856
Rp857
(dp858
g7
VSpr DP Sailor.png
p859
sg9
VSailor
p860
sg11
VHuey{{tt|*|Third rematch onwards}}
p861
sg13
V1664
p862
sg15
g56
sg17
g18
sg19
g20
sg21
g467
sg23
(lp863
g1
(g25
g3
Ntp864
Rp865
(dp866
g29
V186
p867
sg31
VPolitoed
p868
sg33
g34
sg35
V48
p869
sg37
(lp870
Vhypnosis
p871
aVperish-song
p872
aVswagger
p873
aVbounce
p874
asg42
g43
sg44
Vwater-absorb
p875
sbag1
(g25
g3
Ntp876
Rp877
(dp878
g29
V062
p879
sg31
VPoliwrath
p880
sg33
g34
sg35
V52
p881
sg37
(lp882
Vsubmission
p883
aVhypnosis
p884
aVmind-reader
p885
aVdynamic-punch
p886
asg42
g43
sg44
Vwater-absorb
p887
sbasg46
I00
sg47
g493
sba.