(lp0
ccopy_reg
_reconstructor
p1
(c__main__
Trainer
p2
c__builtin__
object
p3
Ntp4
Rp5
(dp6
VtSprite
p7
VSpr GS Beauty.png
p8
sVtClass
p9
VBeauty
p10
sVtName
p11
VVictoria
p12
sVtMoney
p13
V1496
p14
sVtPokeCount
p15
V3
p16
sVtLocation
p17
Vwiki/Goldenrod_Gym
p18
sVtRegion
p19
VJohto
p20
sVtGame
p21
VGS
p22
sVtPokes
p23
(lp24
g1
(c__main__
FinishedPokemon
p25
g3
Ntp26
Rp27
(dp28
VpDexNo
p29
V161
p30
sVpSpecies
p31
VSentret
p32
sVpGender
p33
VF
p34
sVpLevel
p35
V9
p36
sVpMoves
p37
(lp38
Vdefense-curl
p39
aVamnesia
p40
aVfury-swipes
p41
aVrest
p42
asVpHold
p43
V
p44
sVpAbility
p45
Vkeen-eye
p46
sbag1
(g25
g3
Ntp47
Rp48
(dp49
g29
V161
p50
sg31
VSentret
p51
sg33
g34
sg35
V13
p52
sg37
(lp53
Vdefense-curl
p54
aVamnesia
p55
aVfury-swipes
p56
aVrest
p57
asg43
g44
sg45
Vkeen-eye
p58
sbag1
(g25
g3
Ntp59
Rp60
(dp61
g29
V161
p62
sg31
VSentret
p63
sg33
g34
sg35
V17
p64
sg37
(lp65
Vdefense-curl
p66
aVamnesia
p67
aVfury-swipes
p68
aVrest
p69
asg43
g44
sg45
Vkeen-eye
p70
sbasVbossFlag
p71
I00
sVtLongGame
p72
Vgold-silver
p73
sbag1
(g2
g3
Ntp74
Rp75
(dp76
g7
VSpr GS Beauty.png
p77
sg9
VBeauty
p78
sg11
VSamantha
p79
sg13
V1408
p80
sg15
V2
p81
sg17
g18
sg19
g20
sg21
g22
sg23
(lp82
g1
(g25
g3
Ntp83
Rp84
(dp85
g29
V052
p86
sg31
VMeowth
p87
sg33
g34
sg35
V16
p88
sg37
(lp89
Vscreech
p90
aVfury-swipes
p91
aVslash
p92
aVfeint-attack
p93
asg43
g44
sg45
Vtechnician
p94
sbag1
(g25
g3
Ntp95
Rp96
(dp97
g29
V052
p98
sg31
VMeowth
p99
sg33
g34
sg35
V16
p100
sg37
(lp101
Vscreech
p102
aVfury-swipes
p103
aVslash
p104
aVfeint-attack
p105
asg43
g44
sg45
Vtechnician
p106
sbasg71
I00
sg72
g73
sbag1
(g2
g3
Ntp107
Rp108
(dp109
g7
VSpr GS Lass.png
p110
sg9
VLass
p111
sg11
VCarrie
p112
sg13
V432
p113
sg15
V1
p114
sg17
g18
sg19
g20
sg21
g22
sg23
(lp115
g1
(g25
g3
Ntp116
Rp117
(dp118
g29
V209
p119
sg31
VSnubbull
p120
sg33
g34
sg35
V18
p121
sg37
(lp122
Vrage
p123
aVlick
p124
aVscary-face
p125
aVcharm
p126
asg43
g44
sg45
Vintimidate
p127
sbasg71
I00
sg72
g73
sbag1
(g2
g3
Ntp128
Rp129
(dp130
g7
VSpr GS_Lass.png
p131
sg9
VLass
p132
sg11
VBridget
p133
sg13
V360
p134
sg15
g16
sg17
g18
sg19
g20
sg21
g22
sg23
(lp135
g1
(g25
g3
Ntp136
Rp137
(dp138
g29
V039
p139
sg31
VJigglypuff
p140
sg33
g34
sg35
V15
p141
sg37
(lp142
Vdisable
p143
aVdefense-curl
p144
aVrest
p145
aVrollout
p146
asg43
g44
sg45
Vcompetitive
p147
sbag1
(g25
g3
Ntp148
Rp149
(dp150
g29
V039
p151
sg31
VJigglypuff
p152
sg33
g34
sg35
V15
p153
sg37
(lp154
Vdisable
p155
aVdefense-curl
p156
aVrest
p157
aVrollout
p158
asg43
g44
sg45
Vcute-charm
p159
sbag1
(g25
g3
Ntp160
Rp161
(dp162
g29
V039
p163
sg31
VJigglypuff
p164
sg33
g34
sg35
V15
p165
sg37
(lp166
Vdisable
p167
aVdefense-curl
p168
aVrest
p169
aVrollout
p170
asg43
g44
sg45
Vcute-charm
p171
sbasg71
I00
sg72
g73
sbag1
(g2
g3
Ntp172
Rp173
(dp174
g7
VSpr HGSS Beauty.png
p175
sg9
VBeauty
p176
sg11
VVictoria
p177
sg13
V896
p178
sg15
g16
sg17
g18
sg19
g20
sg21
VHGSS
p179
sg23
(lp180
g1
(g25
g3
Ntp181
Rp182
(dp183
g29
V161
p184
sg31
VSentret
p185
sg33
g34
sg35
g36
sg37
(lp186
Vhelping-hand
p187
aVhyper-voice
p188
aVme-first
p189
aVsucker-punch
p190
asg43
g44
sg45
Vkeen-eye
p191
sbag1
(g25
g3
Ntp192
Rp193
(dp194
g29
V161
p195
sg31
VSentret
p196
sg33
g34
sg35
V13
p197
sg37
(lp198
Vhelping-hand
p199
aVhyper-voice
p200
aVme-first
p201
aVsucker-punch
p202
asg43
g44
sg45
Vrun-away
p203
sbag1
(g25
g3
Ntp204
Rp205
(dp206
g29
V161
p207
sg31
VSentret
p208
sg33
g34
sg35
V16
p209
sg37
(lp210
Vhelping-hand
p211
aVhyper-voice
p212
aVme-first
p213
aVsucker-punch
p214
asg43
g44
sg45
Vkeen-eye
p215
sbasg71
I00
sg72
Vheartgold-soulsilver
p216
sbag1
(g2
g3
Ntp217
Rp218
(dp219
g7
VSpr HGSS Beauty.png
p220
sg9
VBeauty
p221
sg11
VSamantha
p222
sg13
V896
p223
sg15
g81
sg17
g18
sg19
g20
sg21
g179
sg23
(lp224
g1
(g25
g3
Ntp225
Rp226
(dp227
g29
V052
p228
sg31
VMeowth
p229
sg33
g34
sg35
V16
p230
sg37
(lp231
Vassurance
p232
aVnight-slash
p233
aVnasty-plot
p234
aVcaptivate
p235
asg43
g44
sg45
Vtechnician
p236
sbag1
(g25
g3
Ntp237
Rp238
(dp239
g29
V052
p240
sg31
VMeowth
p241
sg33
g34
sg35
V16
p242
sg37
(lp243
Vassurance
p244
aVnight-slash
p245
aVnasty-plot
p246
aVcaptivate
p247
asg43
g44
sg45
Vpickup
p248
sbasg71
I00
sg72
g216
sbag1
(g2
g3
Ntp249
Rp250
(dp251
g7
VSpr HGSS Lass.png
p252
sg9
VLass
p253
sg11
VCarrie
p254
sg13
V272
p255
sg15
g114
sg17
g18
sg19
g20
sg21
g179
sg23
(lp256
g1
(g25
g3
Ntp257
Rp258
(dp259
g29
V209
p260
sg31
VSnubbull
p261
sg33
g34
sg35
V17
p262
sg37
(lp263
Vpayback
p264
aVthunder-fang
p265
aVice-fang
p266
aVfire-fang
p267
asg43
g44
sg45
Vintimidate
p268
sbasg71
I00
sg72
g216
sbag1
(g2
g3
Ntp269
Rp270
(dp271
g7
VSpr HGSS Lass.png
p272
sg9
VLass
p273
sg11
VCathy
p274
sg13
V240
p275
sg15
g16
sg17
g18
sg19
g20
sg21
g179
sg23
(lp276
g1
(g25
g3
Ntp277
Rp278
(dp279
g29
V039
p280
sg31
VJigglypuff
p281
sg33
g34
sg35
V15
p282
sg37
(lp283
Vrollout
p284
aVhyper-voice
p285
aVwake-up-slap
p286
aVgyro-ball
p287
asg43
g44
sg45
Vcompetitive
p288
sbag1
(g25
g3
Ntp289
Rp290
(dp291
g29
V039
p292
sg31
VJigglypuff
p293
sg33
g34
sg35
V15
p294
sg37
(lp295
Vrollout
p296
aVhyper-voice
p297
aVwake-up-slap
p298
aVgyro-ball
p299
asg43
g44
sg45
Vcute-charm
p300
sbag1
(g25
g3
Ntp301
Rp302
(dp303
g29
V039
p304
sg31
VJigglypuff
p305
sg33
g34
sg35
V15
p306
sg37
(lp307
Vrollout
p308
aVhyper-voice
p309
aVwake-up-slap
p310
aVgyro-ball
p311
asg43
g44
sg45
Vcute-charm
p312
sbasg71
I00
sg72
g216
sbag1
(g2
g3
Ntp313
Rp314
(dp315
g7
VSpr GS Whitney.png
p316
sg9
VLeader
p317
sg11
VWhitney
p318
sg13
V2000
p319
sg15
I2
sg17
g18
sg19
g20
sg21
g22
sg23
(lp320
g1
(g25
g3
Ntp321
Rp322
(dp323
g29
I35
sg31
VClefairy
p324
sg33
g34
sg35
V18
p325
sg37
(lp326
VEncore
p327
aVDoubleSlap
p328
aVMimic
p329
aVMetronome
p330
asg43
g44
sg45
Vcute-charm
p331
sbag1
(g25
g3
Ntp332
Rp333
(dp334
g29
I241
sg31
VMiltank
p335
sg33
g34
sg35
V20
p336
sg37
(lp337
VStomp
p338
aVAttract
p339
aVMilk Drink
p340
aVRollout
p341
asg43
g44
sg45
Vscrappy
p342
sbasg71
I01
sg72
g73
sbag1
(g2
g3
Ntp343
Rp344
(dp345
g7
VSpr HGSS Whitney.png
p346
sg9
VLeader
p347
sg11
VWhitney
p348
sg13
V2280
p349
sg15
I2
sg17
g18
sg19
g20
sg21
g179
sg23
(lp350
g1
(g25
g3
Ntp351
Rp352
(dp353
g29
I35
sg31
VClefairy
p354
sg33
g34
sg35
V17
p355
sg37
(lp356
VDoubleSlap
p357
aVMimic
p358
aVEncore
p359
aVMetronome
p360
asg43
g44
sg45
VCute Charm
p361
sbag1
(g25
g3
Ntp362
Rp363
(dp364
g29
I241
sg31
VMiltank
p365
sg33
g34
sg35
V19
p366
sg37
(lp367
VRollout
p368
aVAttract
p369
aVStomp
p370
aVMilk Drink
p371
asg43
VLum Berry
p372
sg45
VScrappy
p373
sbasg71
I01
sg72
g216
sba.