(lp0
ccopy_reg
_reconstructor
p1
(c__main__
Trainer
p2
c__builtin__
object
p3
Ntp4
Rp5
(dp6
VtSprite
p7
VSpr GS Rocket Grunt M.png
p8
sVtClass
p9
VRocket Grunt
p10
sVtName
p11
V
p12
sVtMoney
p13
V960
p14
sVtPokeCount
p15
V2
p16
sVtLocation
p17
Vwiki/Goldenrod_Radio_Tower
p18
sVtRegion
p19
VJohto
p20
sVtGame
p21
VGS
p22
sVtPokes
p23
(lp24
g1
(c__main__
FinishedPokemon
p25
g3
Ntp26
Rp27
(dp28
VpDexNo
p29
V020
p30
sVpSpecies
p31
VRaticate
p32
sVpGender
p33
VM
p34
sVpLevel
p35
V24
p36
sVpMoves
p37
(lp38
Vhyper-fang
p39
aVsuper-fang
p40
aVscary-face
p41
aVpursuit
p42
asVpHold
p43
g12
sVpAbility
p44
Vrun-away
p45
sbag1
(g25
g3
Ntp46
Rp47
(dp48
g29
V020
p49
sg31
VRaticate
p50
sg33
g34
sg35
V24
p51
sg37
(lp52
Vhyper-fang
p53
aVsuper-fang
p54
aVscary-face
p55
aVpursuit
p56
asg43
g12
sg44
Vrun-away
p57
sbasVbossFlag
p58
I00
sVtLongGame
p59
Vgold-silver
p60
sbag1
(g2
g3
Ntp61
Rp62
(dp63
g7
VSpr GS Rocket Grunt F.png
p64
sg9
VRocket Grunt
p65
sg11
g12
sg13
V1040
p66
sg15
V1
p67
sg17
g18
sg19
g20
sg21
g22
sg23
(lp68
g1
(g25
g3
Ntp69
Rp70
(dp71
g29
V024
p72
sg31
VArbok
p73
sg33
VF
p74
sg35
V26
p75
sg37
(lp76
Vacid
p77
aVscreech
p78
aVhaze
p79
aVglare
p80
asg43
g12
sg44
Vintimidate
p81
sbasg58
I00
sg59
g60
sbag1
(g2
g3
Ntp82
Rp83
(dp84
g7
VSpr GS Rocket Grunt M.png
p85
sg9
VRocket Grunt
p86
sg11
g12
sg13
V920
p87
sg15
V5
p88
sg17
g18
sg19
g20
sg21
g22
sg23
(lp89
g1
(g25
g3
Ntp90
Rp91
(dp92
g29
V019
p93
sg31
VRattata
p94
sg33
g34
sg35
V21
p95
sg37
(lp96
Vfocus-energy
p97
aVhyper-fang
p98
aVsuper-fang
p99
aVpursuit
p100
asg43
g12
sg44
Vrun-away
p101
sbag1
(g25
g3
Ntp102
Rp103
(dp104
g29
V019
p105
sg31
VRattata
p106
sg33
g34
sg35
V21
p107
sg37
(lp108
Vfocus-energy
p109
aVhyper-fang
p110
aVsuper-fang
p111
aVpursuit
p112
asg43
g12
sg44
Vrun-away
p113
sbag1
(g25
g3
Ntp114
Rp115
(dp116
g29
V019
p117
sg31
VRattata
p118
sg33
g34
sg35
V23
p119
sg37
(lp120
Vfocus-energy
p121
aVhyper-fang
p122
aVsuper-fang
p123
aVpursuit
p124
asg43
g12
sg44
Vrun-away
p125
sbag1
(g25
g3
Ntp126
Rp127
(dp128
g29
V019
p129
sg31
VRattata
p130
sg33
g34
sg35
V23
p131
sg37
(lp132
Vfocus-energy
p133
aVhyper-fang
p134
aVsuper-fang
p135
aVpursuit
p136
asg43
g12
sg44
Vrun-away
p137
sbag1
(g25
g3
Ntp138
Rp139
(dp140
g29
V019
p141
sg31
VRattata
p142
sg33
g34
sg35
V23
p143
sg37
(lp144
Vfocus-energy
p145
aVhyper-fang
p146
aVsuper-fang
p147
aVpursuit
p148
asg43
g12
sg44
Vrun-away
p149
sbasg58
I00
sg59
g60
sbag1
(g2
g3
Ntp150
Rp151
(dp152
g7
VSpr GS Rocket Grunt M.png
p153
sg9
VRocket Grunt
p154
sg11
g12
sg13
V1000
p155
sg15
V3
p156
sg17
g18
sg19
g20
sg21
g22
sg23
(lp157
g1
(g25
g3
Ntp158
Rp159
(dp160
g29
V088
p161
sg31
VGrimer
p162
sg33
g34
sg35
V23
p163
sg37
(lp164
Vsludge
p165
aVpoison-gas
p166
aVacid-armor
p167
aVsludge-bomb
p168
asg43
g12
sg44
Vstench
p169
sbag1
(g25
g3
Ntp170
Rp171
(dp172
g29
V088
p173
sg31
VGrimer
p174
sg33
g34
sg35
V23
p175
sg37
(lp176
Vsludge
p177
aVpoison-gas
p178
aVacid-armor
p179
aVsludge-bomb
p180
asg43
g12
sg44
Vstench
p181
sbag1
(g25
g3
Ntp182
Rp183
(dp184
g29
V089
p185
sg31
VMuk
p186
sg33
g34
sg35
V25
p187
sg37
(lp188
Vsludge
p189
aVpoison-gas
p190
aVacid-armor
p191
aVsludge-bomb
p192
asg43
g12
sg44
Vstench
p193
sbasg58
I00
sg59
g60
sbag1
(g2
g3
Ntp194
Rp195
(dp196
g7
VSpr GS Rocket Grunt M.png
p197
sg9
VRocket Grunt
p198
sg11
g12
sg13
V1040
p199
sg15
g16
sg17
g18
sg19
g20
sg21
g22
sg23
(lp200
g1
(g25
g3
Ntp201
Rp202
(dp203
g29
V041
p204
sg31
VZubat
p205
sg33
g34
sg35
V26
p206
sg37
(lp207
Vconfuse-ray
p208
aVhaze
p209
aVleech-life
p210
aVmean-look
p211
asg43
g12
sg44
Vinner-focus
p212
sbag1
(g25
g3
Ntp213
Rp214
(dp215
g29
V041
p216
sg31
VZubat
p217
sg33
g34
sg35
V26
p218
sg37
(lp219
Vconfuse-ray
p220
aVhaze
p221
aVleech-life
p222
aVmean-look
p223
asg43
g12
sg44
Vinner-focus
p224
sbasg58
I00
sg59
g60
sbag1
(g2
g3
Ntp225
Rp226
(dp227
g7
VSpr GS Rocket Grunt M.png
p228
sg9
VRocket Grunt
p229
sg11
g12
sg13
V920
p230
sg15
V4
p231
sg17
g18
sg19
g20
sg21
g22
sg23
(lp232
g1
(g25
g3
Ntp233
Rp234
(dp235
g29
V109
p236
sg31
VKoffing
p237
sg33
g34
sg35
V23
p238
sg37
(lp239
Vsludge
p240
aVpoison-gas
p241
aVexplosion
p242
aVdestiny-bond
p243
asg43
g12
sg44
Vlevitate
p244
sbag1
(g25
g3
Ntp245
Rp246
(dp247
g29
V041
p248
sg31
VZubat
p249
sg33
g34
sg35
V23
p250
sg37
(lp251
Vconfuse-ray
p252
aVhaze
p253
aVleech-life
p254
aVmean-look
p255
asg43
g12
sg44
Vinner-focus
p256
sbag1
(g25
g3
Ntp257
Rp258
(dp259
g29
V019
p260
sg31
VRattata
p261
sg33
g34
sg35
V23
p262
sg37
(lp263
Vfocus-energy
p264
aVhyper-fang
p265
aVsuper-fang
p266
aVpursuit
p267
asg43
g12
sg44
Vrun-away
p268
sbag1
(g25
g3
Ntp269
Rp270
(dp271
g29
V088
p272
sg31
VGrimer
p273
sg33
g34
sg35
V23
p274
sg37
(lp275
Vsludge
p276
aVpoison-gas
p277
aVacid-armor
p278
aVsludge-bomb
p279
asg43
g12
sg44
Vsticky-hold
p280
sbasg58
I00
sg59
g60
sbag1
(g2
g3
Ntp281
Rp282
(dp283
g7
VSpr GS Scientist.png
p284
sg9
VScientist
p285
sg11
VMarc
p286
sg13
V2700
p287
sg15
g156
sg17
g18
sg19
g20
sg21
g22
sg23
(lp288
g1
(g25
g3
Ntp289
Rp290
(dp291
g29
V081
p292
sg31
VMagnemite
p293
sg33
VU
p294
sg35
V27
p295
sg37
(lp296
Vscreech
p297
aVswift
p298
aVzap-cannon
p299
aVlock-on
p300
asg43
g12
sg44
Vsturdy
p301
sbag1
(g25
g3
Ntp302
Rp303
(dp304
g29
V081
p305
sg31
VMagnemite
p306
sg33
g294
sg35
V27
p307
sg37
(lp308
Vscreech
p309
aVswift
p310
aVzap-cannon
p311
aVlock-on
p312
asg43
g12
sg44
Vmagnet-pull
p313
sbag1
(g25
g3
Ntp314
Rp315
(dp316
g29
V081
p317
sg31
VMagnemite
p318
sg33
g294
sg35
V27
p319
sg37
(lp320
Vscreech
p321
aVswift
p322
aVzap-cannon
p323
aVlock-on
p324
asg43
g12
sg44
Vmagnet-pull
p325
sbasg58
I00
sg59
g60
sbag1
(g2
g3
Ntp326
Rp327
(dp328
g7
VSpr GS Rocket Grunt M.png
p329
sg9
VRocket Grunt
p330
sg11
g12
sg13
V1040
p331
sg15
g67
sg17
g18
sg19
g20
sg21
g22
sg23
(lp332
g1
(g25
g3
Ntp333
Rp334
(dp335
g29
V110
p336
sg31
VWeezing
p337
sg33
g34
sg35
V26
p338
sg37
(lp339
Vsludge
p340
aVpoison-gas
p341
aVexplosion
p342
aVdestiny-bond
p343
asg43
g12
sg44
Vlevitate
p344
sbasg58
I00
sg59
g60
sbag1
(g2
g3
Ntp345
Rp346
(dp347
g7
VSpr GS Rocket Grunt M.png
p348
sg9
VRocket Grunt
p349
sg11
g12
sg13
V1040
p350
sg15
g16
sg17
g18
sg19
g20
sg21
g22
sg23
(lp351
g1
(g25
g3
Ntp352
Rp353
(dp354
g29
V020
p355
sg31
VRaticate
p356
sg33
g34
sg35
V24
p357
sg37
(lp358
Vhyper-fang
p359
aVsuper-fang
p360
aVscary-face
p361
aVpursuit
p362
asg43
g12
sg44
Vrun-away
p363
sbag1
(g25
g3
Ntp364
Rp365
(dp366
g29
V109
p367
sg31
VKoffing
p368
sg33
g34
sg35
V26
p369
sg37
(lp370
Vsludge
p371
aVpoison-gas
p372
aVexplosion
p373
aVdestiny-bond
p374
asg43
g12
sg44
Vlevitate
p375
sbasg58
I00
sg59
g60
sbag1
(g2
g3
Ntp376
Rp377
(dp378
g7
VSpr GS Rocket Grunt M.png
p379
sg9
VRocket Grunt
p380
sg11
g12
sg13
V880
p381
sg15
g156
sg17
g18
sg19
g20
sg21
g22
sg23
(lp382
g1
(g25
g3
Ntp383
Rp384
(dp385
g29
V041
p386
sg31
VZubat
p387
sg33
g34
sg35
V22
p388
sg37
(lp389
Vconfuse-ray
p390
aVhaze
p391
aVleech-life
p392
aVmean-look
p393
asg43
g12
sg44
Vinner-focus
p394
sbag1
(g25
g3
Ntp395
Rp396
(dp397
g29
V042
p398
sg31
VGolbat
p399
sg33
g34
sg35
V24
p400
sg37
(lp401
Vconfuse-ray
p402
aVhaze
p403
aVleech-life
p404
aVmean-look
p405
asg43
g12
sg44
Vinner-focus
p406
sbag1
(g25
g3
Ntp407
Rp408
(dp409
g29
V088
p410
sg31
VGrimer
p411
sg33
g34
sg35
V22
p412
sg37
(lp413
Vsludge
p414
aVpoison-gas
p415
aVacid-armor
p416
aVsludge-bomb
p417
asg43
g12
sg44
Vstench
p418
sbasg58
I00
sg59
g60
sbag1
(g2
g3
Ntp419
Rp420
(dp421
g7
VSpr GS Scientist.png
p422
sg9
VScientist
p423
sg11
VRich
p424
sg13
V3000
p425
sg15
g67
sg17
g18
sg19
g20
sg21
g22
sg23
(lp426
g1
(g25
g3
Ntp427
Rp428
(dp429
g29
V137
p430
sg31
VPorygon
p431
sg33
g294
sg35
V30
p432
sg37
(lp433
Vtri-attack
p434
aVconversion-2
p435
aVzap-cannon
p436
aVlock-on
p437
asg43
g12
sg44
Vtrace
p438
sbasg58
I00
sg59
g60
sbag1
(g2
g3
Ntp439
Rp440
(dp441
g7
VSpr GS Rocket Grunt F.png
p442
sg9
VRocket Grunt
p443
sg11
g12
sg13
V960
p444
sg15
g231
sg17
g18
sg19
g20
sg21
g22
sg23
(lp445
g1
(g25
g3
Ntp446
Rp447
(dp448
g29
V023
p449
sg31
VEkans
p450
sg33
g74
sg35
V21
p451
sg37
(lp452
Vacid
p453
aVscreech
p454
aVhaze
p455
aVglare
p456
asg43
g12
sg44
Vintimidate
p457
sbag1
(g25
g3
Ntp458
Rp459
(dp460
g29
V043
p461
sg31
VOddish
p462
sg33
g74
sg35
V23
p463
sg37
(lp464
Vsleep-powder
p465
aVpetal-dance
p466
aVsweet-scent
p467
aVmoonlight
p468
asg43
g12
sg44
Vchlorophyll
p469
sbag1
(g25
g3
Ntp470
Rp471
(dp472
g29
V023
p473
sg31
VEkans
p474
sg33
g74
sg35
V21
p475
sg37
(lp476
Vacid
p477
aVscreech
p478
aVhaze
p479
aVglare
p480
asg43
g12
sg44
Vshed-skin
p481
sbag1
(g25
g3
Ntp482
Rp483
(dp484
g29
V044
p485
sg31
VGloom
p486
sg33
g74
sg35
V24
p487
sg37
(lp488
Vpetal-dance
p489
aVsweet-scent
p490
ag490
aVmoonlight
p491
asg43
g12
sg44
Vchlorophyll
p492
sbasg58
I00
sg59
g60
sbag1
(g2
g3
Ntp493
Rp494
(dp495
g7
VSpr HGSS Rocket Grunt M.png
p496
sg9
VTeam Rocket Grunt
p497
sg11
g12
sg13
V960
p498
sg15
g16
sg17
g18
sg19
g20
sg21
VHGSS
p499
sg23
(lp500
g1
(g25
g3
Ntp501
Rp502
(dp503
g29
V020
p504
sg31
VRaticate
p505
sg33
g34
sg35
V24
p506
sg37
(lp507
Vcrunch
p508
aVendeavor
p509
aVassurance
p510
aVsucker-punch
p511
asg43
g12
sg44
Vrun-away
p512
sbag1
(g25
g3
Ntp513
Rp514
(dp515
g29
V020
p516
sg31
VRaticate
p517
sg33
g34
sg35
V24
p518
sg37
(lp519
Vcrunch
p520
aVendeavor
p521
aVassurance
p522
aVsucker-punch
p523
asg43
g12
sg44
Vrun-away
p524
sbasg58
I00
sg59
Vheartgold-soulsilver
p525
sbag1
(g2
g3
Ntp526
Rp527
(dp528
g7
VSpr HGSS Rocket Grunt F.png
p529
sg9
VTeam Rocket Grunt
p530
sg11
g12
sg13
V1040
p531
sg15
g67
sg17
g18
sg19
g20
sg21
g499
sg23
(lp532
g1
(g25
g3
Ntp533
Rp534
(dp535
g29
V024
p536
sg31
VArbok
p537
sg33
g74
sg35
V26
p538
sg37
(lp539
Vice-fang
p540
aVfire-fang
p541
aVmud-bomb
p542
aVgunk-shot
p543
asg43
g12
sg44
Vintimidate
p544
sbasg58
I00
sg59
g525
sbag1
(g2
g3
Ntp545
Rp546
(dp547
g7
VSpr HGSS Rocket Grunt M.png
p548
sg9
VTeam Rocket Grunt
p549
sg11
g12
sg13
V920
p550
sg15
g88
sg17
g18
sg19
g20
sg21
g499
sg23
(lp551
g1
(g25
g3
Ntp552
Rp553
(dp554
g29
V019
p555
sg31
VRattata
p556
sg33
g34
sg35
V21
p557
sg37
(lp558
Vcrunch
p559
aVendeavor
p560
aVassurance
p561
aVsucker-punch
p562
asg43
g12
sg44
Vrun-away
p563
sbag1
(g25
g3
Ntp564
Rp565
(dp566
g29
V019
p567
sg31
VRattata
p568
sg33
g34
sg35
V21
p569
sg37
(lp570
Vcrunch
p571
aVendeavor
p572
aVassurance
p573
aVsucker-punch
p574
asg43
g12
sg44
Vguts
p575
sbag1
(g25
g3
Ntp576
Rp577
(dp578
g29
V019
p579
sg31
VRattata
p580
sg33
g34
sg35
V23
p581
sg37
(lp582
Vcrunch
p583
aVendeavor
p584
aVassurance
p585
aVsucker-punch
p586
asg43
g12
sg44
Vguts
p587
sbag1
(g25
g3
Ntp588
Rp589
(dp590
g29
V019
p591
sg31
VRattata
p592
sg33
g34
sg35
V23
p593
sg37
(lp594
Vcrunch
p595
aVendeavor
p596
aVassurance
p597
aVsucker-punch
p598
asg43
g12
sg44
Vguts
p599
sbag1
(g25
g3
Ntp600
Rp601
(dp602
g29
V019
p603
sg31
VRattata
p604
sg33
g34
sg35
V23
p605
sg37
(lp606
Vcrunch
p607
aVendeavor
p608
aVassurance
p609
aVsucker-punch
p610
asg43
g12
sg44
Vguts
p611
sbasg58
I00
sg59
g525
sbag1
(g2
g3
Ntp612
Rp613
(dp614
g7
VSpr HGSS Rocket Grunt M.png
p615
sg9
VTeam Rocket Grunt
p616
sg11
g12
sg13
V1000
p617
sg15
g16
sg17
g18
sg19
g20
sg21
g499
sg23
(lp618
g1
(g25
g3
Ntp619
Rp620
(dp621
g29
V041
p622
sg31
VZubat
p623
sg33
g34
sg35
V26
p624
sg37
(lp625
Vpoison-fang
p626
aVastonish
p627
aVair-cutter
p628
aVair-slash
p629
asg43
g12
sg44
Vinner-focus
p630
sbag1
(g25
g3
Ntp631
Rp632
(dp633
g29
V041
p634
sg31
VZubat
p635
sg33
g34
sg35
V26
p636
sg37
(lp637
Vpoison-fang
p638
aVastonish
p639
aVair-cutter
p640
aVair-slash
p641
asg43
g12
sg44
Vinner-focus
p642
sbasg58
I00
sg59
g525
sbag1
(g2
g3
Ntp643
Rp644
(dp645
g7
VSpr HGSS Rocket Grunt M.png
p646
sg9
VTeam Rocket Grunt
p647
sg11
g12
sg13
V1040
p648
sg15
g156
sg17
g18
sg19
g20
sg21
g499
sg23
(lp649
g1
(g25
g3
Ntp650
Rp651
(dp652
g29
V088
p653
sg31
VGrimer
p654
sg33
g34
sg35
V23
p655
sg37
(lp656
Vmemento
p657
aVfling
p658
aVmud-bomb
p659
aVgunk-shot
p660
asg43
g12
sg44
Vsticky-hold
p661
sbag1
(g25
g3
Ntp662
Rp663
(dp664
g29
V088
p665
sg31
VGrimer
p666
sg33
g34
sg35
V23
p667
sg37
(lp668
Vmemento
p669
aVfling
p670
aVmud-bomb
p671
aVgunk-shot
p672
asg43
g12
sg44
Vsticky-hold
p673
sbag1
(g25
g3
Ntp674
Rp675
(dp676
g29
V089
p677
sg31
VMuk
p678
sg33
g34
sg35
V25
p679
sg37
(lp680
Vmemento
p681
aVfling
p682
aVmud-bomb
p683
aVgunk-shot
p684
asg43
g12
sg44
Vstench
p685
sbasg58
I00
sg59
g525
sbag1
(g2
g3
Ntp686
Rp687
(dp688
g7
VSpr HGSS Rocket Grunt M.png
p689
sg9
VTeam Rocket Grunt
p690
sg11
g12
sg13
V920
p691
sg15
g231
sg17
g18
sg19
g20
sg21
g499
sg23
(lp692
g1
(g25
g3
Ntp693
Rp694
(dp695
g29
V109
p696
sg31
VKoffing
p697
sg33
g34
sg35
V23
p698
sg37
(lp699
Vdestiny-bond
p700
aVmemento
p701
aVgyro-ball
p702
aVassurance
p703
asg43
g12
sg44
Vlevitate
p704
sbag1
(g25
g3
Ntp705
Rp706
(dp707
g29
V041
p708
sg31
VZubat
p709
sg33
g34
sg35
V23
p710
sg37
(lp711
Vpoison-fang
p712
aVastonish
p713
aVair-cutter
p714
aVair-slash
p715
asg43
g12
sg44
Vinner-focus
p716
sbag1
(g25
g3
Ntp717
Rp718
(dp719
g29
V019
p720
sg31
VRattata
p721
sg33
g34
sg35
V23
p722
sg37
(lp723
Vcrunch
p724
aVendeavor
p725
aVassurance
p726
aVsucker-punch
p727
asg43
g12
sg44
Vrun-away
p728
sbag1
(g25
g3
Ntp729
Rp730
(dp731
g29
V088
p732
sg31
VGrimer
p733
sg33
g34
sg35
V23
p734
sg37
(lp735
Vmemento
p736
aVfling
p737
aVmud-bomb
p738
aVgunk-shot
p739
asg43
g12
sg44
Vsticky-hold
p740
sbasg58
I00
sg59
g525
sbag1
(g2
g3
Ntp741
Rp742
(dp743
g7
VSpr HGSS Scientist.png
p744
sg9
VScientist
p745
sg11
VGarett
p746
sg13
V864
p747
sg15
g156
sg17
g18
sg19
g20
sg21
g499
sg23
(lp748
g1
(g25
g3
Ntp749
Rp750
(dp751
g29
V081
p752
sg31
VMagnemite
p753
sg33
g294
sg35
V27
p754
sg37
(lp755
Vmagnet-rise
p756
aVmirror-shot
p757
aVdischarge
p758
aVmagnet-bomb
p759
asg43
g12
sg44
Vsturdy
p760
sbag1
(g25
g3
Ntp761
Rp762
(dp763
g29
V081
p764
sg31
VMagnemite
p765
sg33
g294
sg35
V27
p766
sg37
(lp767
Vmagnet-rise
p768
aVmirror-shot
p769
aVdischarge
p770
aVmagnet-bomb
p771
asg43
g12
sg44
Vsturdy
p772
sbag1
(g25
g3
Ntp773
Rp774
(dp775
g29
V081
p776
sg31
VMagnemite
p777
sg33
g294
sg35
V27
p778
sg37
(lp779
Vmagnet-rise
p780
aVmirror-shot
p781
aVdischarge
p782
aVmagnet-bomb
p783
asg43
g12
sg44
Vmagnet-pull
p784
sbasg58
I00
sg59
g525
sbag1
(g2
g3
Ntp785
Rp786
(dp787
g7
VSpr HGSS Rocket Grunt M.png
p788
sg9
VTeam Rocket Grunt
p789
sg11
g12
sg13
V1040
p790
sg15
g67
sg17
g18
sg19
g20
sg21
g499
sg23
(lp791
g1
(g25
g3
Ntp792
Rp793
(dp794
g29
V110
p795
sg31
VWeezing
p796
sg33
g34
sg35
V26
p797
sg37
(lp798
Vdestiny-bond
p799
aVmemento
p800
aVassurance
p801
aVdouble-hit
p802
asg43
g12
sg44
Vlevitate
p803
sbasg58
I00
sg59
g525
sbag1
(g2
g3
Ntp804
Rp805
(dp806
g7
VSpr HGSS Rocket Grunt M.png
p807
sg9
VTeam Rocket Grunt
p808
sg11
g12
sg13
V1040
p809
sg15
g16
sg17
g18
sg19
g20
sg21
g499
sg23
(lp810
g1
(g25
g3
Ntp811
Rp812
(dp813
g29
V020
p814
sg31
VRaticate
p815
sg33
g34
sg35
V24
p816
sg37
(lp817
Vcrunch
p818
aVendeavor
p819
aVassurance
p820
aVsucker-punch
p821
asg43
g12
sg44
Vguts
p822
sbag1
(g25
g3
Ntp823
Rp824
(dp825
g29
V109
p826
sg31
VKoffing
p827
sg33
g34
sg35
V26
p828
sg37
(lp829
Vdestiny-bond
p830
aVmemento
p831
aVgyro-ball
p832
aVassurance
p833
asg43
g12
sg44
Vlevitate
p834
sbasg58
I00
sg59
g525
sbag1
(g2
g3
Ntp835
Rp836
(dp837
g7
VSpr HGSS Rocket Grunt M.png
p838
sg9
VTeam Rocket Grunt
p839
sg11
g12
sg13
V880
p840
sg15
g156
sg17
g18
sg19
g20
sg21
g499
sg23
(lp841
g1
(g25
g3
Ntp842
Rp843
(dp844
g29
V041
p845
sg31
VZubat
p846
sg33
g34
sg35
V22
p847
sg37
(lp848
Vpoison-fang
p849
aVastonish
p850
aVair-cutter
p851
aVair-slash
p852
asg43
g12
sg44
Vinner-focus
p853
sbag1
(g25
g3
Ntp854
Rp855
(dp856
g29
V042
p857
sg31
VGolbat
p858
sg33
g34
sg35
V24
p859
sg37
(lp860
Vastonish
p861
ag861
aVair-cutter
p862
aVair-slash
p863
asg43
g12
sg44
Vinner-focus
p864
sbag1
(g25
g3
Ntp865
Rp866
(dp867
g29
V088
p868
sg31
VGrimer
p869
sg33
g34
sg35
V22
p870
sg37
(lp871
Vmemento
p872
aVfling
p873
aVmud-bomb
p874
aVgunk-shot
p875
asg43
g12
sg44
Vstench
p876
sbasg58
I00
sg59
g525
sbag1
(g2
g3
Ntp877
Rp878
(dp879
g7
VSpr HGSS Scientist.png
p880
sg9
VScientist
p881
sg11
VTrenton
p882
sg13
V960
p883
sg15
g67
sg17
g18
sg19
g20
sg21
g499
sg23
(lp884
g1
(g25
g3
Ntp885
Rp886
(dp887
g29
V137
p888
sg31
VPorygon
p889
sg33
g294
sg35
V30
p890
sg37
(lp891
Vrecycle
p892
aVsignal-beam
p893
aVmagnet-rise
p894
aVdischarge
p895
asg43
g12
sg44
Vdownload
p896
sbasg58
I00
sg59
g525
sbag1
(g2
g3
Ntp897
Rp898
(dp899
g7
VSpr HGSS Rocket Grunt F.png
p900
sg9
VTeam Rocket Grunt
p901
sg11
g12
sg13
V960
p902
sg15
g231
sg17
g18
sg19
g20
sg21
g499
sg23
(lp903
g1
(g25
g3
Ntp904
Rp905
(dp906
g29
V023
p907
sg31
VEkans
p908
sg33
g74
sg35
V21
p909
sg37
(lp910
Vswallow
p911
aVgastro-acid
p912
aVmud-bomb
p913
aVgunk-shot
p914
asg43
g12
sg44
Vshed-skin
p915
sbag1
(g25
g3
Ntp916
Rp917
(dp918
g29
V023
p919
sg31
VEkans
p920
sg33
g74
sg35
V21
p921
sg37
(lp922
Vswallow
p923
aVgastro-acid
p924
aVmud-bomb
p925
aVgunk-shot
p926
asg43
g12
sg44
Vintimidate
p927
sbag1
(g25
g3
Ntp928
Rp929
(dp930
g29
V043
p931
sg31
VOddish
p932
sg33
g74
sg35
V23
p933
sg37
(lp934
Vsweet-scent
p935
aVmoonlight
p936
aVnatural-gift
p937
aVlucky-chant
p938
asg43
g12
sg44
Vchlorophyll
p939
sbag1
(g25
g3
Ntp940
Rp941
(dp942
g29
V044
p943
sg31
VGloom
p944
sg33
g74
sg35
V24
p945
sg37
(lp946
Vsweet-scent
p947
aVmoonlight
p948
aVnatural-gift
p949
aVlucky-chant
p950
asg43
g12
sg44
Vchlorophyll
p951
sbasg58
I00
sg59
g525
sbag1
(g2
g3
Ntp952
Rp953
(dp954
g7
VSpr GS Rocket Executive M.png
p955
sg9
VRocket
p956
sg11
VExecutive
p957
sg13
V2592
p958
sg15
I1
sg17
g18
sg19
g20
sg21
g22
sg23
(lp959
g1
(g25
g3
Ntp960
Rp961
(dp962
g29
I42
sg31
VGolbat
p963
sg33
g34
sg35
V36
p964
sg37
(lp965
VWing Attack
p966
aVConfuse Ray
p967
aVLeech Life
p968
aVBite
p969
asg43
g12
sg44
Vinner-focus
p970
sbasg58
I01
sg59
g60
sbag1
(g2
g3
Ntp971
Rp972
(dp973
g7
VSpr GS Rocket Executive M.png
p974
sg9
VRocket
p975
sg11
VExecutive
p976
sg13
V2160
p977
sg15
I6
sg17
g18
sg19
g20
sg21
g22
sg23
(lp978
g1
(g25
g3
Ntp979
Rp980
(dp981
g29
I109
sg31
VKoffing
p982
sg33
g34
sg35
V30
p983
sg37
(lp984
VSmokeScreen
p985
aVTackle
p986
aVSludge
p987
aVSelfdestruct
p988
asg43
g12
sg44
Vlevitate
p989
sbag1
(g25
g3
Ntp990
Rp991
(dp992
g29
I109
sg31
VKoffing
p993
sg33
g34
sg35
V30
p994
sg37
(lp995
VSmokeScreen
p996
aVTackle
p997
aVSludge
p998
aVSelfdestruct
p999
asg43
g12
sg44
Vlevitate
p1000
sbag1
(g25
g3
Ntp1001
Rp1002
(dp1003
g29
I109
sg31
VKoffing
p1004
sg33
g34
sg35
V30
p1005
sg37
(lp1006
VSmokeScreen
p1007
aVTackle
p1008
aVSludge
p1009
aVSelfdestruct
p1010
asg43
g12
sg44
Vlevitate
p1011
sbag1
(g25
g3
Ntp1012
Rp1013
(dp1014
g29
I109
sg31
VKoffing
p1015
sg33
g34
sg35
V30
p1016
sg37
(lp1017
VSmokeScreen
p1018
aVTackle
p1019
aVSludge
p1020
aVSelfdestruct
p1021
asg43
g12
sg44
Vlevitate
p1022
sbag1
(g25
g3
Ntp1023
Rp1024
(dp1025
g29
I110
sg31
VWeezing
p1026
sg33
g34
sg35
V32
p1027
sg37
(lp1028
VSmokeScreen
p1029
aVTackle
p1030
aVSludge
p1031
aVExplosion
p1032
asg43
g12
sg44
Vlevitate
p1033
sbag1
(g25
g3
Ntp1034
Rp1035
(dp1036
g29
I109
sg31
VKoffing
p1037
sg33
g34
sg35
V30
p1038
sg37
(lp1039
VSmokeScreen
p1040
aVTackle
p1041
aVSludge
p1042
aVSmog
p1043
asg43
g12
sg44
Vlevitate
p1044
sbasg58
I01
sg59
g60
sbag1
(g2
g3
Ntp1045
Rp1046
(dp1047
g7
VSpr GS Rocket Executive F.png
p1048
sg9
VRocket
p1049
sg11
VExecutive
p1050
sg13
V2304
p1051
sg15
I3
sg17
g18
sg19
g20
sg21
g22
sg23
(lp1052
g1
(g25
g3
Ntp1053
Rp1054
(dp1055
g29
I24
sg31
VArbok
p1056
sg33
g74
sg35
V32
p1057
sg37
(lp1058
VGlare
p1059
aVBite
p1060
aVWrap
p1061
aVPoison Sting
p1062
asg43
g12
sg44
Vintimidate
p1063
sbag1
(g25
g3
Ntp1064
Rp1065
(dp1066
g29
I45
sg31
VVileplume
p1067
sg33
g74
sg35
V32
p1068
sg37
(lp1069
VSweet Scent
p1070
aVAbsorb
p1071
aVAcid
p1072
aVSleep Powder
p1073
asg43
g12
sg44
Vchlorophyll
p1074
sbag1
(g25
g3
Ntp1075
Rp1076
(dp1077
g29
I198
sg31
VMurkrow
p1078
sg33
g74
sg35
V32
p1079
sg37
(lp1080
VPeck
p1081
aVHaze
p1082
aVPursuit
p1083
aVNight Shade
p1084
asg43
g12
sg44
Vsuper-luck
p1085
sbasg58
I01
sg59
g60
sbag1
(g2
g3
Ntp1086
Rp1087
(dp1088
g7
VSpr GS Rocket Executive M.png
p1089
sg9
VRocket
p1090
sg11
VExecutive
p1091
sg13
V2520
p1092
sg15
I3
sg17
g18
sg19
g20
sg21
g22
sg23
(lp1093
g1
(g25
g3
Ntp1094
Rp1095
(dp1096
g29
I228
sg31
VHoundour
p1097
sg33
g34
sg35
V33
p1098
sg37
(lp1099
VFaint Attack
p1100
aVEmber
p1101
aVBite
p1102
aVRoar
p1103
asg43
g12
sg44
Vflash-fire
p1104
sbag1
(g25
g3
Ntp1105
Rp1106
(dp1107
g29
I109
sg31
VKoffing
p1108
sg33
g34
sg35
V33
p1109
sg37
(lp1110
VSludge
p1111
aVSmokeScreen
p1112
aVTackle
p1113
aVHaze
p1114
asg43
g12
sg44
Vlevitate
p1115
sbag1
(g25
g3
Ntp1116
Rp1117
(dp1118
g29
I229
sg31
VHoundoom
p1119
sg33
g34
sg35
V35
p1120
sg37
(lp1121
VFaint Attack
p1122
aVEmber
p1123
aVBite
p1124
aVSmog
p1125
asg43
g12
sg44
Vflash-fire
p1126
sbasg58
I01
sg59
g60
sbag1
(g2
g3
Ntp1127
Rp1128
(dp1129
g7
VSpr HGSS Proton.png
p1130
sg9
VExecutive
p1131
sg11
VProton
p1132
sg13
V1320
p1133
sg15
I2
sg17
g18
sg19
g20
sg21
g499
sg23
(lp1134
g1
(g25
g3
Ntp1135
Rp1136
(dp1137
g29
I42
sg31
VGolbat
p1138
sg33
g34
sg35
V28
p1139
sg37
(lp1140
VWing Attack
p1141
aVConfuse Ray
p1142
aVLeech Life
p1143
aVBite
p1144
asg43
g12
sg44
VInner Focus
p1145
sbag1
(g25
g3
Ntp1146
Rp1147
(dp1148
g29
I110
sg31
VWeezing
p1149
sg33
g34
sg35
V33
p1150
sg37
(lp1151
VSludge
p1152
aVDouble Hit
p1153
aVSmokeScreen
p1154
aVSmog
p1155
asg43
g12
sg44
VLevitate
p1156
sbasg58
I01
sg59
g525
sbag1
(g2
g3
Ntp1157
Rp1158
(dp1159
g7
VSpr HGSS Petrel.png
p1160
sg9
VExecutive
p1161
sg11
VPetrel
p1162
sg13
V1200
p1163
sg15
I6
sg17
g18
sg19
g20
sg21
g499
sg23
(lp1164
g1
(g25
g3
Ntp1165
Rp1166
(dp1167
g29
I109
sg31
VKoffing
p1168
sg33
g34
sg35
V30
p1169
sg37
(lp1170
VSludge
p1171
aVSmokeScreen
p1172
aVSelfdestruct
p1173
aVTackle
p1174
asg43
g12
sg44
VLevitate
p1175
sbag1
(g25
g3
Ntp1176
Rp1177
(dp1178
g29
I109
sg31
VKoffing
p1179
sg33
g34
sg35
V30
p1180
sg37
(lp1181
VSludge
p1182
aVSmokeScreen
p1183
aVSelfdestruct
p1184
aVTackle
p1185
asg43
g12
sg44
VLevitate
p1186
sbag1
(g25
g3
Ntp1187
Rp1188
(dp1189
g29
I109
sg31
VKoffing
p1190
sg33
g34
sg35
V30
p1191
sg37
(lp1192
VSludge
p1193
aVSmokeScreen
p1194
aVSelfdestruct
p1195
aVTackle
p1196
asg43
g12
sg44
VLevitate
p1197
sbag1
(g25
g3
Ntp1198
Rp1199
(dp1200
g29
I109
sg31
VKoffing
p1201
sg33
g34
sg35
V30
p1202
sg37
(lp1203
VSludge
p1204
aVSmokeScreen
p1205
aVSelfdestruct
p1206
aVTackle
p1207
asg43
g12
sg44
VLevitate
p1208
sbag1
(g25
g3
Ntp1209
Rp1210
(dp1211
g29
I110
sg31
VWeezing
p1212
sg33
g34
sg35
V32
p1213
sg37
(lp1214
VTackle
p1215
aVSludge
p1216
aVSmokeScreen
p1217
aVExplosion
p1218
asg43
g12
sg44
VLevitate
p1219
sbag1
(g25
g3
Ntp1220
Rp1221
(dp1222
g29
I109
sg31
VKoffing
p1223
sg33
g34
sg35
V30
p1224
sg37
(lp1225
VSludge
p1226
aVSmokeScreen
p1227
aVSelfdestruct
p1228
aVTackle
p1229
asg43
g12
sg44
VLevitate
p1230
sbasg58
I01
sg59
g525
sbag1
(g2
g3
Ntp1231
Rp1232
(dp1233
g7
VSpr HGSS Ariana.png
p1234
sg9
VExecutive
p1235
sg11
VAriana
p1236
sg13
V2560
p1237
sg15
I3
sg17
g18
sg19
g20
sg21
g499
sg23
(lp1238
g1
(g25
g3
Ntp1239
Rp1240
(dp1241
g29
I24
sg31
VArbok
p1242
sg33
g74
sg35
V32
p1243
sg37
(lp1244
VGlare
p1245
aVCrunch
p1246
aVWrap
p1247
aVPoison Sting
p1248
asg43
g12
sg44
VIntimidate
p1249
sbag1
(g25
g3
Ntp1250
Rp1251
(dp1252
g29
I45
sg31
VVileplume
p1253
sg33
g74
sg35
V32
p1254
sg37
(lp1255
VSweet Scent
p1256
aVMega Drain
p1257
aVAcid
p1258
aVSleep Powder
p1259
asg43
g12
sg44
VChlorophyll
p1260
sbag1
(g25
g3
Ntp1261
Rp1262
(dp1263
g29
I198
sg31
VMurkrow
p1264
sg33
g74
sg35
V32
p1265
sg37
(lp1266
VNight Shade
p1267
aVWing Attack
p1268
aVAstonish
p1269
aVPursuit
p1270
asg43
g12
sg44
VSuper Luck
p1271
sbasg58
I01
sg59
g525
sbag1
(g2
g3
Ntp1272
Rp1273
(dp1274
g7
VSpr HGSS Archer.png
p1275
sg9
VExecutive
p1276
sg11
VArcher
p1277
sg13
V3040
p1278
sg15
I3
sg17
g18
sg19
g20
sg21
g499
sg23
(lp1279
g1
(g25
g3
Ntp1280
Rp1281
(dp1282
g29
I228
sg31
VHoundour
p1283
sg33
g34
sg35
V35
p1284
sg37
(lp1285
VFaint Attack
p1286
aVFire Fang
p1287
aVCrunch
p1288
aVRoar
p1289
asg43
g12
sg44
VEarly Bird
p1290
sbag1
(g25
g3
Ntp1291
Rp1292
(dp1293
g29
I109
sg31
VKoffing
p1294
sg33
g34
sg35
V35
p1295
sg37
(lp1296
VSludge
p1297
aVSmokeScreen
p1298
aVTackle
p1299
aVHaze
p1300
asg43
g12
sg44
VLevitate
p1301
sbag1
(g25
g3
Ntp1302
Rp1303
(dp1304
g29
I229
sg31
VHoundoom
p1305
sg33
g34
sg35
V38
p1306
sg37
(lp1307
VFaint Attack
p1308
aVFire Fang
p1309
aVBite
p1310
aVSmog
p1311
asg43
g12
sg44
VEarly Bird
p1312
sbasg58
I01
sg59
g525
sba.