(lp0
ccopy_reg
_reconstructor
p1
(c__main__
Trainer
p2
c__builtin__
object
p3
Ntp4
Rp5
(dp6
VtSprite
p7
VVSBlack Belt SwSh.png
p8
sVtClass
p9
VBlack Belt
p10
sVtName
p11
VBrian
p12
sVtMoney
p13
V128
p14
sVtPokeCount
p15
V1
p16
sVtLocation
p17
Vwiki/Hammerlocke
p18
sVtRegion
p19
VGalar
p20
sVtGame
p21
VSM
p22
sVtPokes
p23
(lp24
g1
(c__main__
FinishedPokemon
p25
g3
Ntp26
Rp27
(dp28
VpDexNo
p29
V546
p30
sVpSpecies
p31
VCottonee
p32
sVpGender
p33
VM
p34
sVpLevel
p35
V2
p36
sVpMoves
p37
(lp38
Vendeavor
p39
aVenergy-ball
p40
aVcotton-guard
p41
aVfairy-wind
p42
asVpHold
p43
V
p44
sVpAbility
p45
Vinfiltrator
p46
sbasVbossFlag
p47
I00
sVtLongGame
p48
Vsun-moon
p49
sba.