(lp0
ccopy_reg
_reconstructor
p1
(c__main__
Trainer
p2
c__builtin__
object
p3
Ntp4
Rp5
(dp6
VtSprite
p7
VVSGym Trainer Dragon M.png
p8
sVtClass
p9
VGym Trainer
p10
sVtName
p11
VSebastian
p12
sVtMoney
p13
V4,320
p14
sVtPokeCount
p15
V2
p16
sVtLocation
p17
Vwiki/Hammerlocke_Stadium
p18
sVtRegion
p19
VGalar
p20
sVtGame
p21
VSM
p22
sVtPokes
p23
(lp24
g1
(c__main__
FinishedPokemon
p25
g3
Ntp26
Rp27
(dp28
VpDexNo
p29
V279
p30
sVpSpecies
p31
VPelipper
p32
sVpGender
p33
VM
p34
sVpLevel
p35
V45
p36
sVpMoves
p37
(lp38
Vfling
p39
aVsoak
p40
aVhurricane
p41
ag41
asVpHold
p42
V
p43
sVpAbility
p44
Vdrizzle
p45
sbag1
(g25
g3
Ntp46
Rp47
(dp48
g29
V705
p49
sg31
VSliggoo
p50
sg33
g34
sg35
V45
p51
sg37
(lp52
Vdragon-breath
p53
aVrain-dance
p54
aVmuddy-water
p55
aVdragon-pulse
p56
asg42
g43
sg44
Vsap-sipper
p57
sbasVbossFlag
p58
I00
sVtLongGame
p59
Vsun-moon
p60
sbag1
(g2
g3
Ntp61
Rp62
(dp63
g7
VVSGym Trainer Dragon F.png
p64
sg9
VGym Trainer
p65
sg11
VCamilla
p66
sg13
V4,320
p67
sg15
g16
sg17
g18
sg19
g20
sg21
VSM
p68
sg23
(lp69
g1
(g25
g3
Ntp70
Rp71
(dp72
g29
V038
p73
sg31
VNinetales
p74
sg33
VF
p75
sg35
V45
p76
sg37
(lp77
Vconfuse-ray
p78
aVsafeguard
p79
aVimprison
p80
aVnasty-plot
p81
asg42
g43
sg44
Vflash-fire
p82
sbag1
(g25
g3
Ntp83
Rp84
(dp85
g29
V776
p86
sg31
VTurtonator
p87
sg33
g75
sg35
V45
p88
sg37
(lp89
Vdragon-pulse
p90
aVshell-smash
p91
aVincinerate
p92
aVshell-trap
p93
asg42
g43
sg44
Vshell-armor
p94
sbasg58
I00
sg59
g60
sbag1
(g2
g3
Ntp95
Rp96
(dp97
g7
VVSGym Trainer Dragon F.png
p98
sg9
VGym Trainer
p99
sg11
VAria
p100
sg13
V4,320
p101
sg15
g16
sg17
g18
sg19
g20
sg21
g68
sg23
(lp102
g1
(g25
g3
Ntp103
Rp104
(dp105
g29
V460
p106
sg31
VAbomasnow
p107
sg33
g75
sg35
V45
p108
sg37
(lp109
Vgrass-whistle
p110
aVsheer-cold
p111
aVice-shard
p112
aVwood-hammer
p113
asg42
g43
sg44
Vsnow-warning
p114
sbag1
(g25
g3
Ntp115
Rp116
(dp117
g29
V783
p118
sg31
VHakamo-o
p119
sg33
g75
sg35
V45
p120
sg37
(lp121
Vautotomize
p122
aVdragon-tail
p123
aVwork-up
p124
aVnoble-roar
p125
asg42
g43
sg44
Vsoundproof
p126
sbasg58
I00
sg59
g60
sbag1
(g2
g3
Ntp127
Rp128
(dp129
g7
VVSRaihan.png
p130
sg9
VGym Leader
p131
sg11
VRaihan
p132
sg13
V7,680 
p133
sg15
I4
sg17
g18
sg19
g20
sg21
VSM
p134
sg23
(lp135
g1
(g25
g3
Ntp136
Rp137
(dp138
g29
I526
sg31
VGigalith
p139
sg33
g34
sg35
V46
p140
sg37
(lp141
VStealth Rock
p142
aVSand Tomb
p143
aVRock Blast
p144
aVBody Press
p145
asg42
g43
sg44
VSand Stream
p146
sbag1
(g25
g3
Ntp147
Rp148
(dp149
g29
I330
sg31
VFlygon
p150
sg33
g34
sg35
V47
p151
sg37
(lp152
VThunder Punch
p153
aVBreaking Swipe
p154
aVCrunch
p155
aVSteel Wing
p156
asg42
g43
sg44
VLevitate
p157
sbag1
(g25
g3
Ntp158
Rp159
(dp160
g29
I844
sg31
VSandaconda
p161
sg33
g34
sg35
V46
p162
sg37
(lp163
VProtect
p164
aVGlare
p165
aVFire Fang
p166
aVEarth Power
p167
asg42
g43
sg44
VSand Spit 
p168
sbag1
(g25
g3
Ntp169
Rp170
(dp171
g29
I884
sg31
VDuraludon
p172
sg33
g34
sg35
V48
p173
sg37
(lp174
VBreaking Swipe
p175
aVBody Press
p176
aVStone Edge
p177
aVIron Head
p178
asg42
g43
sg44
VHeavy Metal
p179
sbasg58
I01
sg59
g60
sba.