(lp0
ccopy_reg
_reconstructor
p1
(c__main__
Trainer
p2
c__builtin__
object
p3
Ntp4
Rp5
(dp6
VtSprite
p7
VVSSwimmer F yellow SM.png
p8
sVtClass
p9
VSwimmer
p10
sVtName
p11
VChelsea
p12
sVtMoney
p13
V600
p14
sVtPokeCount
p15
V1
p16
sVtLocation
p17
Vwiki/Hano_Beach
p18
sVtRegion
p19
VAlola
p20
sVtGame
p21
VSM
p22
sVtPokes
p23
(lp24
g1
(c__main__
FinishedPokemon
p25
g3
Ntp26
Rp27
(dp28
VpDexNo
p29
V771
p30
sVpSpecies
p31
VPyukumuku
p32
sVpGender
p33
VF
p34
sVpLevel
p35
V25
p36
sVpMoves
p37
(lp38
Vwater-sport
p39
aVgastro-acid
p40
aVsoak
p41
aVpurify
p42
asVpHold
p43
V
p44
sVpAbility
p45
Vinnards-out
p46
sbasVbossFlag
p47
I00
sVtLongGame
p48
Vsun-moon
p49
sbag1
(g2
g3
Ntp50
Rp51
(dp52
g7
VVSSwimmer M SM.png
p53
sg9
VSwimmer
p54
sg11
VRoddy
p55
sg13
V600
p56
sg15
g16
sg17
g18
sg19
g20
sg21
VSM
p57
sg23
(lp58
g1
(g25
g3
Ntp59
Rp60
(dp61
g29
V130
p62
sg31
VGyarados
p63
sg33
VM
p64
sg35
V25
p65
sg37
(lp66
Vdragon-dance
p67
aVaqua-tail
p68
aVice-fang
p69
aVhurricane
p70
asg43
g44
sg45
Vintimidate
p71
sbasg47
I00
sg48
g49
sbag1
(g2
g3
Ntp72
Rp73
(dp74
g7
VVSSwimmer F black SM.png
p75
sg9
VSwimmer
p76
sg11
VLaura
p77
sg13
V600
p78
sg15
V2
p79
sg17
g18
sg19
g20
sg21
VSM
p80
sg23
(lp81
g1
(g25
g3
Ntp82
Rp83
(dp84
g29
V456
p85
sg31
VFinneon
p86
sg33
g34
sg35
V24
p87
sg37
(lp88
Vu-turn
p89
aVaqua-ring
p90
aVcaptivate
p91
aVsoak
p92
asg43
g44
sg45
Vstorm-drain
p93
sbag1
(g25
g3
Ntp94
Rp95
(dp96
g29
V090
p97
sg31
VShellder
p98
sg33
g34
sg35
V25
p99
sg37
(lp100
Vbrine
p101
aVice-shard
p102
aVshell-smash
p103
aVrazor-shell
p104
asg43
g44
sg45
Vskill-link
p105
sbasg47
I00
sg48
g49
sbag1
(g2
g3
Ntp106
Rp107
(dp108
g7
VVSSwimmer M SM.png
p109
sg9
VSwimmer
p110
sg11
VLawrence
p111
sg13
V600
p112
sg15
g79
sg17
g18
sg19
g20
sg21
g57
sg23
(lp113
g1
(g25
g3
Ntp114
Rp115
(dp116
g29
V278
p117
sg31
VWingull
p118
sg33
g64
sg35
V24
p119
sg37
(lp120
Vwater-pulse
p121
aVroost
p122
aVair-slash
p123
aVhurricane
p124
asg43
g44
sg45
Vkeen-eye
p125
sbag1
(g25
g3
Ntp126
Rp127
(dp128
g29
V339
p129
sg31
VBarboach
p130
sg33
g64
sg35
V25
p131
sg37
(lp132
Vwater-sport
p133
aVwater-pulse
p134
aVaqua-tail
p135
aVmud-bomb
p136
asg43
g44
sg45
Vanticipation
p137
sbasg47
I00
sg48
g49
sbag1
(g2
g3
Ntp138
Rp139
(dp140
g7
VVSSwimmer F black SM.png
p141
sg9
VSwimmer
p142
sg11
VAlicia
p143
sg13
V600
p144
sg15
g16
sg17
g18
sg19
g20
sg21
g80
sg23
(lp145
g1
(g25
g3
Ntp146
Rp147
(dp148
g29
V054
p149
sg31
VPsyduck
p150
sg33
g34
sg35
V25
p151
sg37
(lp152
Vaqua-tail
p153
aVzen-headbutt
p154
aVwonder-room
p155
aVsoak
p156
asg43
g44
sg45
Vcloud-nine
p157
sbasg47
I00
sg48
g49
sbag1
(g2
g3
Ntp158
Rp159
(dp160
g7
VVSSwimmer M SM.png
p161
sg9
VSwimmer
p162
sg11
VLogan
p163
sg13
V600
p164
sg15
g16
sg17
g18
sg19
g20
sg21
g57
sg23
(lp165
sg47
I00
sg48
g49
sbag1
(g2
g3
Ntp166
Rp167
(dp168
g7
VVSSwimmer F yellow SM.png
p169
sg9
VLeafeon User
p170
sg11
VLinnea
p171
sg13
V1,320
p172
sg15
g16
sg17
g18
sg19
g20
sg21
g22
sg23
(lp173
g1
(g25
g3
Ntp174
Rp175
(dp176
g29
V470
p177
sg31
VLeafeon
p178
sg33
g64
sg35
V55
p179
sg37
(lp180
Vmagical-leaf
p181
aVleaf-blade
p182
aVlast-resort
p183
aVbaby-doll-eyes
p184
asg43
g44
sg45
Vleaf-guard
p185
sbasg47
I00
sg48
g49
sbag1
(g2
g3
Ntp186
Rp187
(dp188
g7
VVSSwimmer F yellow SM.png
p189
sg9
VSwimmer
p190
sg11
VChelsea
p191
sg13
V624
p192
sg15
g16
sg17
g18
sg19
g20
sg21
g22
sg23
(lp193
g1
(g25
g3
Ntp194
Rp195
(dp196
g29
V771
p197
sg31
VPyukumuku
p198
sg33
g34
sg35
V26
p199
sg37
(lp200
Vwater-sport
p201
aVgastro-acid
p202
aVsoak
p203
aVpurify
p204
asg43
g44
sg45
Vinnards-out
p205
sbasg47
I00
sg48
g49
sbag1
(g2
g3
Ntp206
Rp207
(dp208
g7
VVSSwimmer M SM.png
p209
sg9
VSwimmer
p210
sg11
VRoddy
p211
sg13
V600
p212
sg15
g16
sg17
g18
sg19
g20
sg21
g57
sg23
(lp213
g1
(g25
g3
Ntp214
Rp215
(dp216
g29
V130
p217
sg31
VGyarados
p218
sg33
g64
sg35
V25
p219
sg37
(lp220
Vdragon-dance
p221
aVaqua-tail
p222
aVice-fang
p223
aVhurricane
p224
asg43
g44
sg45
Vintimidate
p225
sbasg47
I00
sg48
g49
sbag1
(g2
g3
Ntp226
Rp227
(dp228
g7
VVSSwimmer F black SM.png
p229
sg9
VSwimmer
p230
sg11
VLaura
p231
sg13
V600
p232
sg15
g79
sg17
g18
sg19
g20
sg21
g80
sg23
(lp233
g1
(g25
g3
Ntp234
Rp235
(dp236
g29
V118
p237
sg31
VGoldeen
p238
sg33
g34
sg35
V25
p239
sg37
(lp240
Vwater-sport
p241
aVwater-pulse
p242
aVaqua-ring
p243
aVsoak
p244
asg43
g44
sg45
Vswift-swim
p245
sbag1
(g25
g3
Ntp246
Rp247
(dp248
g29
V120
p249
sg31
VStaryu
p250
sg33
VU
p251
sg35
V25
p252
sg37
(lp253
Vgyro-ball
p254
aVbrine
p255
aVpower-gem
p256
aVreflect-type
p257
asg43
g44
sg45
Villuminate
p258
sbasg47
I00
sg48
g49
sbag1
(g2
g3
Ntp259
Rp260
(dp261
g7
VVSSwimmer M SM.png
p262
sg9
VSwimmer
p263
sg11
VLawrence
p264
sg13
V600
p265
sg15
g79
sg17
g18
sg19
g20
sg21
g57
sg23
(lp266
sg47
I00
sg48
g49
sbag1
(g2
g3
Ntp267
Rp268
(dp269
g7
VVSBlack Belt 2 USUM.png
p270
sg9
VBlack Belt
p271
sg11
VRoss
p272
sg13
V832
p273
sg15
g16
sg17
g18
sg19
g20
sg21
VSM
p274
sg23
(lp275
g1
(g25
g3
Ntp276
Rp277
(dp278
g29
V056
p279
sg31
VMankey
p280
sg33
g64
sg35
V26
p281
sg37
(lp282
Vassurance
p283
aVpunishment
p284
aVfinal-gambit
p285
aVstomping-tantrum
p286
asg43
g44
sg45
Vvital-spirit
p287
sbasg47
I00
sg48
g49
sbag1
(g2
g3
Ntp288
Rp289
(dp290
g7
VVSSwimmer F black SM.png
p291
sg9
VSwimmer
p292
sg11
VAlicia
p293
sg13
V600
p294
sg15
g16
sg17
g18
sg19
g20
sg21
g80
sg23
(lp295
g1
(g25
g3
Ntp296
Rp297
(dp298
g29
V279
p299
sg31
VPelipper
p300
sg33
g34
sg35
V25
p301
sg37
(lp302
Vfling
p303
aVsoak
p304
aVhurricane
p305
ag305
asg43
g44
sg45
Vkeen-eye
p306
sbasg47
I00
sg48
g49
sbag1
(g2
g3
Ntp307
Rp308
(dp309
g7
VVSSwimmer F yellow SM.png
p310
sg9
VLeafeon User
p311
sg11
VLinnea
p312
sg13
V1,320
p313
sg15
g16
sg17
g18
sg19
g20
sg21
g22
sg23
(lp314
g1
(g25
g3
Ntp315
Rp316
(dp317
g29
V470
p318
sg31
VLeafeon
p319
sg33
g64
sg35
V55
p320
sg37
(lp321
Vmagical-leaf
p322
aVleaf-blade
p323
aVlast-resort
p324
aVbaby-doll-eyes
p325
asg43
g44
sg45
Vleaf-guard
p326
sbasg47
I00
sg48
g49
sba.