(lp0
ccopy_reg
_reconstructor
p1
(c__main__
Trainer
p2
c__builtin__
object
p3
Ntp4
Rp5
(dp6
VtSprite
p7
VVSVeteran M SM.png
p8
sVtClass
p9
VVeteran
p10
sVtName
p11
VRoger
p12
sVtMoney
p13
V2,376
p14
sVtPokeCount
p15
V1
p16
sVtLocation
p17
Vwiki/Hano_Grand_Resort
p18
sVtRegion
p19
VAlola
p20
sVtGame
p21
VSM
p22
sVtPokes
p23
(lp24
g1
(c__main__
FinishedPokemon
p25
g3
Ntp26
Rp27
(dp28
VpDexNo
p29
V732
p30
sVpSpecies
p31
VTrumbeak
p32
sVpGender
p33
VM
p34
sVpLevel
p35
V27
p36
sVpMoves
p37
(lp38
Vroost
p39
aVpluck
p40
aVechoed-voice
p41
ag41
asVpHold
p42
V
p43
sVpAbility
p44
Vkeen-eye
p45
sbasVbossFlag
p46
I00
sVtLongGame
p47
Vsun-moon
p48
sbag1
(g2
g3
Ntp49
Rp50
(dp51
g7
VVSGolf Buddies.png
p52
sg9
VGolf Buddies
p53
sg11
VTara and Tina
p54
sg13
V3,000
p55
sg15
V2
p56
sg17
g18
sg19
g20
sg21
VSM
p57
sg23
(lp58
sg46
I00
sg47
g48
sbag1
(g2
g3
Ntp59
Rp60
(dp61
g7
VVSOffice Worker F SM.png
p62
sg9
VReporter
p63
sg11
VRita
p64
sg13
V1,040
p65
sg15
g16
sg17
g18
sg19
g20
sg21
VSM
p66
sg23
(lp67
g1
(g25
g3
Ntp68
Rp69
(dp70
g29
V241
p71
sg31
VMiltank
p72
sg33
VF
p73
sg35
V26
p74
sg37
(lp75
Vwake-up-slap
p76
aVgyro-ball
p77
aVzen-headbutt
p78
aVcaptivate
p79
asg42
g43
sg44
Vscrappy
p80
sbasg46
I00
sg47
g48
sbag1
(g2
g3
Ntp81
Rp82
(dp83
g7
VVSGolf Buddies.png
p84
sg9
VGolf Buddies
p85
sg11
VTara and Tina
p86
sg13
V3,120
p87
sg15
g56
sg17
g18
sg19
g20
sg21
g57
sg23
(lp88
sg46
I00
sg47
g48
sbag1
(g2
g3
Ntp89
Rp90
(dp91
g7
VVSVeteran F SM.png
p92
sg9
VVeteran
p93
sg11
VKiara
p94
sg13
V2,376
p95
sg15
g16
sg17
g18
sg19
g20
sg21
VSM
p96
sg23
(lp97
g1
(g25
g3
Ntp98
Rp99
(dp100
g29
V732
p101
sg31
VTrumbeak
p102
sg33
g73
sg35
V27
p103
sg37
(lp104
Vroost
p105
aVpluck
p106
aVechoed-voice
p107
ag107
asg42
g43
sg44
Vkeen-eye
p108
sbasg46
I00
sg47
g48
sbag1
(g2
g3
Ntp109
Rp110
(dp111
g7
VVSDancer SM.png
p112
sg9
VDancer
p113
sg11
VRonda
p114
sg13
V1,040
p115
sg15
g16
sg17
g18
sg19
g20
sg21
VSM
p116
sg23
(lp117
g1
(g25
g3
Ntp118
Rp119
(dp120
g29
V739
p121
sg31
VCrabrawler
p122
sg33
g73
sg35
V26
p123
sg37
(lp124
Viron-defense
p125
aVclose-combat
p126
aVpayback
p127
aVpower-up-punch
p128
asg42
g43
sg44
Vhyper-cutter
p129
sbasg46
I00
sg47
g48
sba.