(lp0
ccopy_reg
_reconstructor
p1
(c__main__
Trainer
p2
c__builtin__
object
p3
Ntp4
Rp5
(dp6
VtSprite
p7
VSpr DP Youngster.png
p8
sVtClass
p9
VYoungster
p10
sVtName
p11
VDonny
p12
sVtMoney
p13
V464
p14
sVtPokeCount
p15
V2
p16
sVtLocation
p17
Vwiki/Hearthome_Gym
p18
sVtRegion
p19
VSinnoh
p20
sVtGame
p21
VDP
p22
sVtPokes
p23
(lp24
g1
(c__main__
FinishedPokemon
p25
g3
Ntp26
Rp27
(dp28
VpDexNo
p29
V092
p30
sVpSpecies
p31
VGastly
p32
sVpGender
p33
VM
p34
sVpLevel
p35
V27
p36
sVpMoves
p37
(lp38
Vshadow-ball
p39
aVpayback
p40
aVsucker-punch
p41
aVdark-pulse
p42
asVpHold
p43
V
p44
sVpAbility
p45
Vlevitate
p46
sbag1
(g25
g3
Ntp47
Rp48
(dp49
g29
V093
p50
sg31
VHaunter
p51
sg33
g34
sg35
V29
p52
sg37
(lp53
Vshadow-punch
p54
aVpayback
p55
aVsucker-punch
p56
aVdark-pulse
p57
asg43
g44
sg45
Vlevitate
p58
sbasVbossFlag
p59
I00
sVtLongGame
p60
Vdiamond-pearl
p61
sbag1
(g2
g3
Ntp62
Rp63
(dp64
g7
VSpr DP Lass.png
p65
sg9
VLass
p66
sg11
VMolly
p67
sg13
V480
p68
sg15
V1
p69
sg17
g18
sg19
g20
sg21
g22
sg23
(lp70
g1
(g25
g3
Ntp71
Rp72
(dp73
g29
V200
p74
sg31
VMisdreavus
p75
sg33
VF
p76
sg35
V30
p77
sg37
(lp78
Vshadow-ball
p79
aVgrudge
p80
aVastonish
p81
aVpayback
p82
asg43
g44
sg45
Vlevitate
p83
sbasg59
I00
sg60
g61
sbag1
(g2
g3
Ntp84
Rp85
(dp86
g7
VSpr DP Camper.png
p87
sg9
VCamper
p88
sg11
VDrew
p89
sg13
V432
p90
sg15
V3
p91
sg17
g18
sg19
g20
sg21
g22
sg23
(lp92
g1
(g25
g3
Ntp93
Rp94
(dp95
g29
V092
p96
sg31
VGastly
p97
sg33
g34
sg35
V27
p98
sg37
(lp99
Vshadow-ball
p100
aVpayback
p101
aVsucker-punch
p102
aVdark-pulse
p103
asg43
g44
sg45
Vlevitate
p104
sbag1
(g25
g3
Ntp105
Rp106
(dp107
g29
V092
p108
sg31
VGastly
p109
sg33
g34
sg35
V27
p110
sg37
(lp111
Vshadow-ball
p112
aVpayback
p113
aVsucker-punch
p114
aVdark-pulse
p115
asg43
g44
sg45
Vlevitate
p116
sbag1
(g25
g3
Ntp117
Rp118
(dp119
g29
V092
p120
sg31
VGastly
p121
sg33
g34
sg35
V27
p122
sg37
(lp123
Vshadow-ball
p124
aVpayback
p125
aVsucker-punch
p126
aVdark-pulse
p127
asg43
g44
sg45
Vlevitate
p128
sbasg59
I00
sg60
g61
sbag1
(g2
g3
Ntp129
Rp130
(dp131
g7
VSpr DP Picnicker.png
p132
sg9
VPicnicker
p133
sg11
VCheyenne
p134
sg13
V448
p135
sg15
g16
sg17
g18
sg19
g20
sg21
g22
sg23
(lp136
g1
(g25
g3
Ntp137
Rp138
(dp139
g29
V425
p140
sg31
VDrifloon
p141
sg33
g76
sg35
V28
p142
sg37
(lp143
Vswallow
p144
aVastonish
p145
aVpayback
p146
aVominous-wind
p147
asg43
g44
sg45
Vaftermath
p148
sbag1
(g25
g3
Ntp149
Rp150
(dp151
g29
V200
p152
sg31
VMisdreavus
p153
sg33
g76
sg35
V28
p154
sg37
(lp155
Vshadow-ball
p156
aVgrudge
p157
aVastonish
p158
aVpayback
p159
asg43
g44
sg45
Vlevitate
p160
sbasg59
I00
sg60
g61
sbag1
(g2
g3
Ntp161
Rp162
(dp163
g7
VSpr DP School Kid M.png
p164
sg9
VSchool Kid
p165
sg11
VChance
p166
sg13
V600
p167
sg15
g69
sg17
g18
sg19
g20
sg21
g22
sg23
(lp168
g1
(g25
g3
Ntp169
Rp170
(dp171
g29
V093
p172
sg31
VHaunter
p173
sg33
g34
sg35
V30
p174
sg37
(lp175
Vshadow-punch
p176
aVpayback
p177
aVsucker-punch
p178
aVdark-pulse
p179
asg43
g44
sg45
Vlevitate
p180
sbasg59
I00
sg60
g61
sbag1
(g2
g3
Ntp181
Rp182
(dp183
g7
VSpr DP School Kid F.png
p184
sg9
VSchool Kid
p185
sg11
VMackenzie
p186
sg13
V560
p187
sg15
g16
sg17
g18
sg19
g20
sg21
g22
sg23
(lp188
g1
(g25
g3
Ntp189
Rp190
(dp191
g29
V425
p192
sg31
VDrifloon
p193
sg33
g76
sg35
V28
p194
sg37
(lp195
Vswallow
p196
aVastonish
p197
aVpayback
p198
aVominous-wind
p199
asg43
g44
sg45
Vunburden
p200
sbag1
(g25
g3
Ntp201
Rp202
(dp203
g29
V425
p204
sg31
VDrifloon
p205
sg33
g76
sg35
V28
p206
sg37
(lp207
Vswallow
p208
aVastonish
p209
aVpayback
p210
aVominous-wind
p211
asg43
g44
sg45
Vunburden
p212
sbasg59
I00
sg60
g61
sbag1
(g2
g3
Ntp213
Rp214
(dp215
g7
VSpr DP Ace Trainer M 1.png
p216
sg9
VAce Trainer
p217
sg11
VAllen
p218
sg13
V1800
p219
sg15
g91
sg17
g18
sg19
g20
sg21
g22
sg23
(lp220
g1
(g25
g3
Ntp221
Rp222
(dp223
g29
V092
p224
sg31
VGastly
p225
sg33
g34
sg35
V26
p226
sg37
(lp227
Vshadow-ball
p228
aVpayback
p229
aVsucker-punch
p230
aVdark-pulse
p231
asg43
g44
sg45
Vlevitate
p232
sbag1
(g25
g3
Ntp233
Rp234
(dp235
g29
V093
p236
sg31
VHaunter
p237
sg33
g34
sg35
V28
p238
sg37
(lp239
Vshadow-punch
p240
aVpayback
p241
aVsucker-punch
p242
aVdark-pulse
p243
asg43
g44
sg45
Vlevitate
p244
sbag1
(g25
g3
Ntp245
Rp246
(dp247
g29
V094
p248
sg31
VGengar
p249
sg33
g34
sg35
V30
p250
sg37
(lp251
Vshadow-punch
p252
aVpayback
p253
aVsucker-punch
p254
aVdark-pulse
p255
asg43
g44
sg45
Vcursed-body
p256
sbasg59
I00
sg60
g61
sbag1
(g2
g3
Ntp257
Rp258
(dp259
g7
VSpr DP Ace Trainer F 1.png
p260
sg9
VAce Trainer
p261
sg11
VCatherine
p262
sg13
V1800
p263
sg15
g16
sg17
g18
sg19
g20
sg21
g22
sg23
(lp264
g1
(g25
g3
Ntp265
Rp266
(dp267
g29
V200
p268
sg31
VMisdreavus
p269
sg33
g76
sg35
V30
p270
sg37
(lp271
Vshadow-ball
p272
aVgrudge
p273
aVastonish
p274
aVpayback
p275
asg43
g44
sg45
Vlevitate
p276
sbag1
(g25
g3
Ntp277
Rp278
(dp279
g29
V426
p280
sg31
VDrifblim
p281
sg33
g76
sg35
V30
p282
sg37
(lp283
Vastonish
p284
ag284
aVpayback
p285
aVominous-wind
p286
asg43
g44
sg45
Vaftermath
p287
sbasg59
I00
sg60
g61
sbag1
(g2
g3
Ntp288
Rp289
(dp290
g7
VSpr DP Youngster.png
p291
sg9
VYoungster
p292
sg11
VDonny
p293
sg13
V352
p294
sg15
g16
sg17
g18
sg19
g20
sg21
g22
sg23
(lp295
g1
(g25
g3
Ntp296
Rp297
(dp298
g29
V092
p299
sg31
VGastly
p300
sg33
g34
sg35
V20
p301
sg37
(lp302
Vshadow-ball
p303
aVpayback
p304
aVsucker-punch
p305
aVdark-pulse
p306
asg43
g44
sg45
Vlevitate
p307
sbag1
(g25
g3
Ntp308
Rp309
(dp310
g29
V425
p311
sg31
VDrifloon
p312
sg33
g34
sg35
V22
p313
sg37
(lp314
Vswallow
p315
aVastonish
p316
aVpayback
p317
aVominous-wind
p318
asg43
g44
sg45
Vunburden
p319
sbasg59
I00
sg60
g61
sbag1
(g2
g3
Ntp320
Rp321
(dp322
g7
VSpr DP Lass.png
p323
sg9
VLass
p324
sg11
VMolly
p325
sg13
V368
p326
sg15
g69
sg17
g18
sg19
g20
sg21
g22
sg23
(lp327
g1
(g25
g3
Ntp328
Rp329
(dp330
g29
V200
p331
sg31
VMisdreavus
p332
sg33
g76
sg35
V23
p333
sg37
(lp334
Vshadow-ball
p335
aVgrudge
p336
aVastonish
p337
aVpayback
p338
asg43
g44
sg45
Vlevitate
p339
sbasg59
I00
sg60
g61
sbag1
(g2
g3
Ntp340
Rp341
(dp342
g7
VSpr DP School Kid M.png
p343
sg9
VSchool Kid
p344
sg11
VChance
p345
sg13
V460
p346
sg15
g69
sg17
g18
sg19
g20
sg21
g22
sg23
(lp347
g1
(g25
g3
Ntp348
Rp349
(dp350
g29
V092
p351
sg31
VGastly
p352
sg33
g34
sg35
V23
p353
sg37
(lp354
Vshadow-ball
p355
aVpayback
p356
aVsucker-punch
p357
aVdark-pulse
p358
asg43
g44
sg45
Vlevitate
p359
sbasg59
I00
sg60
g61
sbag1
(g2
g3
Ntp360
Rp361
(dp362
g7
VSpr DP School Kid F.png
p363
sg9
VSchool Kid
p364
sg11
VMackenzie
p365
sg13
V420
p366
sg15
g16
sg17
g18
sg19
g20
sg21
g22
sg23
(lp367
g1
(g25
g3
Ntp368
Rp369
(dp370
g29
V425
p371
sg31
VDrifloon
p372
sg33
g76
sg35
V21
p373
sg37
(lp374
Vswallow
p375
aVastonish
p376
aVpayback
p377
aVominous-wind
p378
asg43
g44
sg45
Vaftermath
p379
sbag1
(g25
g3
Ntp380
Rp381
(dp382
g29
V425
p383
sg31
VDrifloon
p384
sg33
g76
sg35
V21
p385
sg37
(lp386
Vswallow
p387
aVastonish
p388
aVpayback
p389
aVominous-wind
p390
asg43
g44
sg45
Vunburden
p391
sbasg59
I00
sg60
g61
sbag1
(g2
g3
Ntp392
Rp393
(dp394
g7
VSpr DP Ace Trainer M 1.png
p395
sg9
VAce Trainer
p396
sg11
VAllen
p397
sg13
V1440
p398
sg15
g91
sg17
g18
sg19
g20
sg21
g22
sg23
(lp399
g1
(g25
g3
Ntp400
Rp401
(dp402
g29
V092
p403
sg31
VGastly
p404
sg33
g34
sg35
V21
p405
sg37
(lp406
Vshadow-ball
p407
aVpayback
p408
aVsucker-punch
p409
aVdark-pulse
p410
asg43
g44
sg45
Vlevitate
p411
sbag1
(g25
g3
Ntp412
Rp413
(dp414
g29
V092
p415
sg31
VGastly
p416
sg33
g34
sg35
V22
p417
sg37
(lp418
Vshadow-ball
p419
aVpayback
p420
aVsucker-punch
p421
aVdark-pulse
p422
asg43
g44
sg45
Vlevitate
p423
sbag1
(g25
g3
Ntp424
Rp425
(dp426
g29
V093
p427
sg31
VHaunter
p428
sg33
g34
sg35
V24
p429
sg37
(lp430
Vshadow-punch
p431
aVpayback
p432
aVsucker-punch
p433
aVdark-pulse
p434
asg43
g44
sg45
Vlevitate
p435
sbasg59
I00
sg60
g61
sbag1
(g2
g3
Ntp436
Rp437
(dp438
g7
VSpr DP Ace Trainer F 1.png
p439
sg9
VAce Trainer
p440
sg11
VCatherine
p441
sg13
V1440
p442
sg15
g16
sg17
g18
sg19
g20
sg21
g22
sg23
(lp443
g1
(g25
g3
Ntp444
Rp445
(dp446
g29
V093
p447
sg31
VHaunter
p448
sg33
g76
sg35
V23
p449
sg37
(lp450
Vshadow-punch
p451
aVpayback
p452
aVsucker-punch
p453
aVdark-pulse
p454
asg43
g44
sg45
Vlevitate
p455
sbag1
(g25
g3
Ntp456
Rp457
(dp458
g29
V200
p459
sg31
VMisdreavus
p460
sg33
g76
sg35
V24
p461
sg37
(lp462
Vshadow-ball
p463
aVgrudge
p464
aVastonish
p465
aVpayback
p466
asg43
g44
sg45
Vlevitate
p467
sbasg59
I00
sg60
g61
sbag1
(g2
g3
Ntp468
Rp469
(dp470
g7
VSpr DP Fantina.png
p471
sg9
VLeader
p472
sg11
VFantina
p473
sg13
V4320
p474
sg15
I3
sg17
g18
sg19
g20
sg21
g22
sg23
(lp475
g1
(g25
g3
Ntp476
Rp477
(dp478
g29
I426
sg31
VDrifblim
p479
sg33
g76
sg35
V32
p480
sg37
(lp481
VOminous Wind
p482
aVMinimize
p483
aVGust
p484
aVAstonish
p485
asg43
g44
sg45
VAftermath
p486
sbag1
(g25
g3
Ntp487
Rp488
(dp489
g29
I94
sg31
VGengar
p490
sg33
g76
sg35
V34
p491
sg37
(lp492
VConfuse Ray
p493
aVShadow Claw
p494
aVPoison Jab
p495
aVSpite
p496
asg43
g44
sg45
VLevitate
p497
sbag1
(g25
g3
Ntp498
Rp499
(dp500
g29
I429
sg31
VMismagius
p501
sg33
g76
sg35
V36
p502
sg37
(lp503
VConfuse Ray
p504
aVPsybeam
p505
aVShadow Ball
p506
aVMagical Leaf
p507
asg43
VSitrus Berry
p508
sg45
VLevitate
p509
sbasg59
I01
sg60
g61
sbag1
(g2
g3
Ntp510
Rp511
(dp512
g7
VSpr Pt Fantina.png
p513
sg9
VLeader
p514
sg11
VFantina
p515
sg13
V3120
p516
sg15
I3
sg17
g18
sg19
g20
sg21
VPt
p517
sg23
(lp518
g1
(g25
g3
Ntp519
Rp520
(dp521
g29
I355
sg31
VDuskull
p522
sg33
g76
sg35
V24
p523
sg37
(lp524
VWill-O-Wisp
p525
aVShadow Sneak
p526
aVFuture Sight
p527
aVPursuit
p528
asg43
g44
sg45
VLevitate
p529
sbag1
(g25
g3
Ntp530
Rp531
(dp532
g29
I93
sg31
VHaunter
p533
sg33
g76
sg35
V24
p534
sg37
(lp535
VConfuse Ray
p536
aVShadow Claw
p537
aVHypnosis
p538
aVSucker Punch
p539
asg43
g44
sg45
VLevitate
p540
sbag1
(g25
g3
Ntp541
Rp542
(dp543
g29
I429
sg31
VMismagius
p544
sg33
g76
sg35
V26
p545
sg37
(lp546
VConfuse Ray
p547
aVPsybeam
p548
aVShadow Ball
p549
aVMagical Leaf
p550
asg43
VSitrus Berry
p551
sg45
VLevitate
p552
sbasg59
I01
sg60
Vplatinum
p553
sba.