(lp0
ccopy_reg
_reconstructor
p1
(c__main__
Trainer
p2
c__builtin__
object
p3
Ntp4
Rp5
(dp6
VtSprite
p7
VSpr DP Reporter.png
p8
sVtClass
p9
VReporter
p10
sVtName
p11
VKinsey{{tt|*|Initial battle}}
p12
sVtMoney
p13
V880
p14
sVtPokeCount
p15
V2
p16
sVtLocation
p17
Vwiki/Hearthome_City
p18
sVtRegion
p19
VSinnoh
p20
sVtGame
p21
VDP
p22
sVtPokes
p23
(lp24
g1
(c__main__
FinishedPokemon
p25
g3
Ntp26
Rp27
(dp28
VpDexNo
p29
V425
p30
sVpSpecies
p31
VDrifloon
p32
sVpGender
p33
VF
p34
sVpLevel
p35
V22
p36
sVpMoves
p37
(lp38
Vswallow
p39
aVastonish
p40
aVpayback
p41
aVominous-wind
p42
asVpHold
p43
V
p44
sVpAbility
p45
Vaftermath
p46
sbag1
(g25
g3
Ntp47
Rp48
(dp49
g29
V403
p50
sg31
VShinx
p51
sg33
g34
sg35
V22
p52
sg37
(lp53
Vcrunch
p54
aVcharge
p55
aVthunder-fang
p56
aVdischarge
p57
asg43
g44
sg45
Vintimidate
p58
sbasVbossFlag
p59
I00
sVtLongGame
p60
Vdiamond-pearl
p61
sbag1
(g2
g3
Ntp62
Rp63
(dp64
g7
VSpr DP Reporter.png
p65
sg9
VReporter
p66
sg11
VKinsey{{tt|*|First rematch}}
p67
sg13
V1320
p68
sg15
g16
sg17
g18
sg19
g20
sg21
g22
sg23
(lp69
g1
(g25
g3
Ntp70
Rp71
(dp72
g29
V425
p73
sg31
VDrifloon
p74
sg33
g34
sg35
V33
p75
sg37
(lp76
Vswallow
p77
aVastonish
p78
aVpayback
p79
aVominous-wind
p80
asg43
g44
sg45
Vaftermath
p81
sbag1
(g25
g3
Ntp82
Rp83
(dp84
g29
V404
p85
sg31
VLuxio
p86
sg33
g34
sg35
V33
p87
sg37
(lp88
Vcrunch
p89
aVcharge
p90
aVthunder-fang
p91
aVdischarge
p92
asg43
g44
sg45
Vrivalry
p93
sbasg59
I00
sg60
g61
sbag1
(g2
g3
Ntp94
Rp95
(dp96
g7
VSpr DP Reporter.png
p97
sg9
VReporter
p98
sg11
VKinsey{{tt||Second rematch}}
p99
sg13
g1
(cmwparserfromhell.wikicode
Wikicode
p100
g3
Ntp101
Rp102
(dp103
V_nodes
p104
g1
(cmwparserfromhell.smart_list.smart_list
SmartList
p105
c__builtin__
list
p106
(lp107
g1
(cmwparserfromhell.nodes.text
Text
p108
g3
Ntp109
Rp110
(dp111
V_value
p112
V1800
p113
sbatp114
Rp115
(dp116
V_children
p117
(dp118
sbsbsg15
g16
sg17
g18
sg19
g20
sg21
g22
sg23
(lp119
g1
(g25
g3
Ntp120
Rp121
(dp122
g29
V426
p123
sg31
VDrifblim
p124
sg33
g34
sg35
V45
p125
sg37
(lp126
Vastonish
p127
ag127
aVpayback
p128
aVominous-wind
p129
asg43
g44
sg45
Vaftermath
p130
sbag1
(g25
g3
Ntp131
Rp132
(dp133
g29
V405
p134
sg31
VLuxray
p135
sg33
g34
sg35
V45
p136
sg37
(lp137
Vcharge
p138
ag138
aVthunder-fang
p139
aVdischarge
p140
asg43
g44
sg45
Vrivalry
p141
sbasg59
I00
sg60
g61
sbag1
(g2
g3
Ntp142
Rp143
(dp144
g7
VSpr DP Cameraman.png
p145
sg9
VCameraman
p146
sg11
VTevin{{tt|*|Initial battle}}
p147
sg13
V640
p148
sg15
g16
sg17
g18
sg19
g20
sg21
g22
sg23
(lp149
sg59
I00
sg60
g61
sbag1
(g2
g3
Ntp150
Rp151
(dp152
g7
VSpr DP Cameraman.png
p153
sg9
VCameraman
p154
sg11
VTevin{{tt|*|First rematch}}
p155
sg13
V1088
p156
sg15
V3
p157
sg17
g18
sg19
g20
sg21
g22
sg23
(lp158
g1
(g25
g3
Ntp159
Rp160
(dp161
g29
V081
p162
sg31
VMagnemite
p163
sg33
VU
p164
sg35
V30
p165
sg37
(lp166
Vmagnet-rise
p167
aVmirror-shot
p168
aVdischarge
p169
aVmagnet-bomb
p170
asg43
g44
sg45
Vmagnet-pull
p171
sbag1
(g25
g3
Ntp172
Rp173
(dp174
g29
V122
p175
sg31
VMr. Mime
p176
sg33
VM
p177
sg35
V32
p178
sg37
(lp179
Vmagical-leaf
p180
aVcopycat
p181
aVpower-swap
p182
aVguard-swap
p183
asg43
g44
sg45
Vsoundproof
p184
sbag1
(g25
g3
Ntp185
Rp186
(dp187
g29
V067
p188
sg31
VMachoke
p189
sg33
g177
sg35
V34
p190
sg37
(lp191
Vvital-throw
p192
aVcross-chop
p193
aVrevenge
p194
aVwake-up-slap
p195
asg43
g44
sg45
Vguts
p196
sbasg59
I00
sg60
g61
sbag1
(g2
g3
Ntp197
Rp198
(dp199
g7
VSpr DP Cameraman.png
p200
sg9
VCameraman
p201
sg11
VTevin{{tt|*|Second rematch}}
p202
sg13
V1440
p203
sg15
V4
p204
sg17
g18
sg19
g20
sg21
g22
sg23
(lp205
g1
(g25
g3
Ntp206
Rp207
(dp208
g29
V081
p209
sg31
VMagnemite
p210
sg33
g164
sg35
V43
p211
sg37
(lp212
Vmagnet-rise
p213
aVmirror-shot
p214
aVdischarge
p215
aVmagnet-bomb
p216
asg43
g44
sg45
Vsturdy
p217
sbag1
(g25
g3
Ntp218
Rp219
(dp220
g29
V082
p221
sg31
VMagneton
p222
sg33
g164
sg35
V42
p223
sg37
(lp224
Vmagnet-rise
p225
aVmirror-shot
p226
aVdischarge
p227
aVmagnet-bomb
p228
asg43
g44
sg45
Vsturdy
p229
sbag1
(g25
g3
Ntp230
Rp231
(dp232
g29
V122
p233
sg31
VMr. Mime
p234
sg33
g177
sg35
V43
p235
sg37
(lp236
Vmagical-leaf
p237
aVcopycat
p238
aVpower-swap
p239
aVguard-swap
p240
asg43
g44
sg45
Vfilter
p241
sbag1
(g25
g3
Ntp242
Rp243
(dp244
g29
V067
p245
sg31
VMachoke
p246
sg33
g177
sg35
V45
p247
sg37
(lp248
Vvital-throw
p249
aVcross-chop
p250
aVrevenge
p251
aVwake-up-slap
p252
asg43
g44
sg45
Vguts
p253
sbasg59
I00
sg60
g61
sbag1
(g2
g3
Ntp254
Rp255
(dp256
g7
VSpr DP Cameraman.png
p257
sg9
VCameraman
p258
sg11
VTevin
p259
sg13
g1
(g100
g3
Ntp260
Rp261
(dp262
g104
g1
(g105
g106
(lp263
g1
(g108
g3
Ntp264
Rp265
(dp266
g112
V1632
p267
sbatp268
Rp269
(dp270
g117
(dp271
sbsbsg15
g204
sg17
g18
sg19
g20
sg21
g22
sg23
(lp272
g1
(g25
g3
Ntp273
Rp274
(dp275
g29
V082
p276
sg31
VMagneton
p277
sg33
g164
sg35
V48
p278
sg37
(lp279
Vmagnet-rise
p280
aVmirror-shot
p281
aVdischarge
p282
aVmagnet-bomb
p283
asg43
g44
sg45
Vsturdy
p284
sbag1
(g25
g3
Ntp285
Rp286
(dp287
g29
V082
p288
sg31
VMagneton
p289
sg33
g164
sg35
V48
p290
sg37
(lp291
Vmagnet-rise
p292
aVmirror-shot
p293
aVdischarge
p294
aVmagnet-bomb
p295
asg43
g44
sg45
Vsturdy
p296
sbag1
(g25
g3
Ntp297
Rp298
(dp299
g29
V122
p300
sg31
VMr. Mime
p301
sg33
g177
sg35
V49
p302
sg37
(lp303
Vmagical-leaf
p304
aVcopycat
p305
aVpower-swap
p306
aVguard-swap
p307
asg43
g44
sg45
Vfilter
p308
sbag1
(g25
g3
Ntp309
Rp310
(dp311
g29
V068
p312
sg31
VMachamp
p313
sg33
g177
sg35
V51
p314
sg37
(lp315
Vvital-throw
p316
aVcross-chop
p317
aVrevenge
p318
aVwake-up-slap
p319
asg43
g44
sg45
Vguts
p320
sbasg59
I00
sg60
g61
sbag1
(g2
g3
Ntp321
Rp322
(dp323
g7
VSpr DP Clown.png
p324
sg9
VClown
p325
sg11
VLee
p326
sg13
g1
(g100
g3
Ntp327
Rp328
(dp329
g104
g1
(g105
g106
(lp330
g1
(g108
g3
Ntp331
Rp332
(dp333
g112
V144
p334
sbatp335
Rp336
(dp337
g117
(dp338
sbsbsg15
V1
p339
sg17
g18
sg19
g20
sg21
g22
sg23
(lp340
sg59
I00
sg60
g61
sbag1
(g2
g3
Ntp341
Rp342
(dp343
g7
VSpr DP Clown.png
p344
sg9
VClown
p345
sg11
VLee{{tt|*|Second rematch}}
p346
sg13
V792
p347
sg15
g16
sg17
g18
sg19
g20
sg21
g22
sg23
(lp348
g1
(g25
g3
Ntp349
Rp350
(dp351
g29
V122
p352
sg31
VMr. Mime
p353
sg33
g177
sg35
V33
p354
sg37
(lp355
Vmagical-leaf
p356
aVcopycat
p357
aVpower-swap
p358
aVguard-swap
p359
asg43
g44
sg45
Vsoundproof
p360
sbag1
(g25
g3
Ntp361
Rp362
(dp363
g29
V064
p364
sg31
VKadabra
p365
sg33
g177
sg35
V33
p366
sg37
(lp367
Vtrick
p368
aVrole-play
p369
aVmiracle-eye
p370
aVpsycho-cut
p371
asg43
g44
sg45
Vsynchronize
p372
sbasg59
I00
sg60
g61
sbag1
(g2
g3
Ntp373
Rp374
(dp375
g7
VSpr DP Clown.png
p376
sg9
VClown
p377
sg11
VLee{{tt|*|Third rematch}}
p378
sg13
V1056
p379
sg15
g157
sg17
g18
sg19
g20
sg21
g22
sg23
(lp380
g1
(g25
g3
Ntp381
Rp382
(dp383
g29
V122
p384
sg31
VMr. Mime
p385
sg33
g177
sg35
V44
p386
sg37
(lp387
Vmagical-leaf
p388
aVcopycat
p389
aVpower-swap
p390
aVguard-swap
p391
asg43
g44
sg45
Vsoundproof
p392
sbag1
(g25
g3
Ntp393
Rp394
(dp395
g29
V064
p396
sg31
VKadabra
p397
sg33
g177
sg35
V44
p398
sg37
(lp399
Vtrick
p400
aVrole-play
p401
aVmiracle-eye
p402
aVpsycho-cut
p403
asg43
g44
sg45
Vsynchronize
p404
sbag1
(g25
g3
Ntp405
Rp406
(dp407
g29
V424
p408
sg31
VAmbipom
p409
sg33
g177
sg35
V44
p410
sg37
(lp411
Vfling
p412
aVlast-resort
p413
aVnasty-plot
p414
aVdouble-hit
p415
asg43
g44
sg45
Vpickup
p416
sbasg59
I00
sg60
g61
sbag1
(g2
g3
Ntp417
Rp418
(dp419
g7
VSpr DP Clown.png
p420
sg9
VClown
p421
sg11
VLee
p422
sg13
g1
(g100
g3
Ntp423
Rp424
(dp425
g104
g1
(g105
g106
(lp426
g1
(g108
g3
Ntp427
Rp428
(dp429
g112
V1200
p430
sbatp431
Rp432
(dp433
g117
(dp434
sbsbsg15
g157
sg17
g18
sg19
g20
sg21
g22
sg23
(lp435
g1
(g25
g3
Ntp436
Rp437
(dp438
g29
V122
p439
sg31
VMr. Mime
p440
sg33
g177
sg35
V50
p441
sg37
(lp442
Vmagical-leaf
p443
aVcopycat
p444
aVpower-swap
p445
aVguard-swap
p446
asg43
g44
sg45
Vfilter
p447
sbag1
(g25
g3
Ntp448
Rp449
(dp450
g29
V065
p451
sg31
VAlakazam
p452
sg33
g177
sg35
V50
p453
sg37
(lp454
Vtrick
p455
aVcalm-mind
p456
aVmiracle-eye
p457
aVpsycho-cut
p458
asg43
g44
sg45
Vsynchronize
p459
sbag1
(g25
g3
Ntp460
Rp461
(dp462
g29
V424
p463
sg31
VAmbipom
p464
sg33
g177
sg35
V50
p465
sg37
(lp466
Vfling
p467
aVlast-resort
p468
aVnasty-plot
p469
aVdouble-hit
p470
asg43
g44
sg45
Vtechnician
p471
sbasg59
I00
sg60
g61
sbag1
(g2
g3
Ntp472
Rp473
(dp474
g7
VSpr DP Barry.png
p475
sg9
VPokemon Trainer
p476
sg11
VBarry
p477
sg13
V2100
p478
sg15
I4
sg17
g18
sg19
g20
sg21
g22
sg23
(lp479
g1
(g25
g3
Ntp480
Rp481
(dp482
g29
I396
sg31
VStarly
p483
sg33
g177
sg35
V19
p484
sg37
(lp485
VEndeavor
p486
aVDouble Team
p487
aVWing Attack
p488
aVQuick Attack
p489
asg43
g44
sg45
VKeen Eye
p490
sbag1
(g25
g3
Ntp491
Rp492
(dp493
g29
I418
sg31
VBuizel
p494
sg33
g177
sg35
V20
p495
sg37
(lp496
VPursuit
p497
aVGrowl
p498
aVWater Gun
p499
aVQuick Attack
p500
asg43
g44
sg45
VSwift Swim
p501
sbag1
(g25
g3
Ntp502
Rp503
(dp504
g29
I315
sg31
VRoselia
p505
sg33
g177
sg35
V20
p506
sg37
(lp507
VPoison Sting
p508
aVStun Spore
p509
aVMega Drain
p510
aVToxic Spikes
p511
asg43
g44
sg45
VNatural Cure
p512
sbag1
(g25
g3
Ntp513
Rp514
(dp515
g29
I391
sg31
VMonferno
p516
sg33
g177
sg35
V21
p517
sg37
(lp518
VFury Swipes
p519
aVLeer
p520
aVMach Punch
p521
aVFlame Wheel
p522
asg43
g44
sg45
VBlaze
p523
sbasg59
I01
sg60
g61
sbag1
(g2
g3
Ntp524
Rp525
(dp526
g7
VSpr DP Barry.png
p527
sg9
VPokemon Trainer
p528
sg11
VBarry (game)
p529
sg13
V2100
p530
sg15
I4
sg17
g18
sg19
g20
sg21
g22
sg23
(lp531
g1
(g25
g3
Ntp532
Rp533
(dp534
g29
I396
sg31
VStarly
p535
sg33
g177
sg35
V19
p536
sg37
(lp537
VEndeavor
p538
aVDouble Team
p539
aVWing Attack
p540
aVQuick Attack
p541
asg43
g44
sg45
VKeen Eye
p542
sbag1
(g25
g3
Ntp543
Rp544
(dp545
g29
I77
sg31
VPonyta
p546
sg33
g177
sg35
V20
p547
sg37
(lp548
VTackle
p549
aVTail Whip
p550
aVGrowl
p551
aVEmber
p552
asg43
g44
sg45
VRun Away
p553
sbag1
(g25
g3
Ntp554
Rp555
(dp556
g29
I315
sg31
VRoselia
p557
sg33
g177
sg35
V20
p558
sg37
(lp559
VPoison Sting
p560
aVStun Spore
p561
aVMega Drain
p562
aVLeech Seed
p563
asg43
g44
sg45
VNatural Cure
p564
sbag1
(g25
g3
Ntp565
Rp566
(dp567
g29
I394
sg31
VPrinplup
p568
sg33
g177
sg35
V21
p569
sg37
(lp570
VPeck
p571
aVMetal Claw
p572
aVBubble
p573
aVGrowl
p574
asg43
g44
sg45
VTorrent
p575
sbasg59
I01
sg60
g61
sbag1
(g2
g3
Ntp576
Rp577
(dp578
g7
VSpr DP Barry.png
p579
sg9
VPokemon Trainer
p580
sg11
VBarry (game)
p581
sg13
V2100
p582
sg15
I4
sg17
g18
sg19
g20
sg21
g22
sg23
(lp583
g1
(g25
g3
Ntp584
Rp585
(dp586
g29
I396
sg31
VStarly
p587
sg33
g177
sg35
V19
p588
sg37
(lp589
VEndeavor
p590
aVDouble Team
p591
aVWing Attack
p592
aVQuick Attack
p593
asg43
g44
sg45
VKeen Eye
p594
sbag1
(g25
g3
Ntp595
Rp596
(dp597
g29
I418
sg31
VBuizel
p598
sg33
g177
sg35
V20
p599
sg37
(lp600
VPursuit
p601
aVGrowl
p602
aVWater Gun
p603
aVQuick Attack
p604
asg43
g44
sg45
VSwift Swim
p605
sbag1
(g25
g3
Ntp606
Rp607
(dp608
g29
I77
sg31
VPonyta
p609
sg33
g177
sg35
V20
p610
sg37
(lp611
VTackle
p612
aVTail Whip
p613
aVGrowl
p614
aVEmber
p615
asg43
g44
sg45
VRun Away
p616
sbag1
(g25
g3
Ntp617
Rp618
(dp619
g29
I388
sg31
VGrotle
p620
sg33
g177
sg35
V21
p621
sg37
(lp622
VTackle
p623
aVRazor Leaf
p624
aVWithdraw
p625
aVAbsorb
p626
asg43
g44
sg45
VOvergrow
p627
sbasg59
I01
sg60
g61
sba.