(lp0
ccopy_reg
_reconstructor
p1
(c__main__
Trainer
p2
c__builtin__
object
p3
Ntp4
Rp5
(dp6
VtSprite
p7
VSpr RS Youngster.png
p8
sVtClass
p9
VYoungster
p10
sVtName
p11
VCalvin
p12
sVtMoney
p13
V80
p14
sVtPokeCount
p15
V1
p16
sVtLocation
p17
Vwiki/Hoenn_Route_102
p18
sVtRegion
p19
VHoenn
p20
sVtGame
p21
VRS
p22
sVtPokes
p23
(lp24
g1
(c__main__
FinishedPokemon
p25
g3
Ntp26
Rp27
(dp28
VpDexNo
p29
V263
p30
sVpSpecies
p31
VZigzagoon
p32
sVpGender
p33
VM
p34
sVpLevel
p35
V5
p36
sVpMoves
p37
(lp38
Vbelly-drum
p39
aVmud-sport
p40
aVodor-sleuth
p41
aVcovet
p42
asVpHold
p43
V
p44
sVpAbility
p45
Vgluttony
p46
sbasVbossFlag
p47
I00
sVtLongGame
p48
Vruby-sapphire
p49
sbag1
(g2
g3
Ntp50
Rp51
(dp52
g7
VSpr RS Bug Catcher.png
p53
sg9
VBug Catcher
p54
sg11
VRick
p55
sg13
V64
p56
sg15
V2
p57
sg17
g18
sg19
g20
sg21
g22
sg23
(lp58
g1
(g25
g3
Ntp59
Rp60
(dp61
g29
V265
p62
sg31
VWurmple
p63
sg33
g34
sg35
V4
p64
sg37
(lp65
Vtackle
p66
aVpoison-sting
p67
aVstring-shot
p68
asg43
g44
sg45
Vshield-dust
p69
sbag1
(g25
g3
Ntp70
Rp71
(dp72
g29
V265
p73
sg31
VWurmple
p74
sg33
g34
sg35
g64
sg37
(lp75
Vtackle
p76
aVpoison-sting
p77
aVstring-shot
p78
asg43
g44
sg45
Vshield-dust
p79
sbasg47
I00
sg48
g49
sbag1
(g2
g3
Ntp80
Rp81
(dp82
g7
VSpr RS Youngster.png
p83
sg9
VYoungster
p84
sg11
VAllen
p85
sg13
V48
p86
sg15
g57
sg17
g18
sg19
g20
sg21
g22
sg23
(lp87
g1
(g25
g3
Ntp88
Rp89
(dp90
g29
V261
p91
sg31
VPoochyena
p92
sg33
g34
sg35
g36
sg37
(lp93
Vcrunch
p94
aVtaunt
p95
aVodor-sleuth
p96
aVhowl
p97
asg43
g44
sg45
Vrun-away
p98
sbag1
(g25
g3
Ntp99
Rp100
(dp101
g29
V276
p102
sg31
VTaillow
p103
sg33
g34
sg35
V3
p104
sg37
(lp105
Vdouble-team
p106
aVfocus-energy
p107
aVendeavor
p108
aVaerial-ace
p109
asg43
g44
sg45
Vguts
p110
sbasg47
I00
sg48
g49
sbag1
(g2
g3
Ntp111
Rp112
(dp113
g7
VSpr RS Lass.png
p114
sg9
VLass
p115
sg11
VTiana
p116
sg13
V64
p117
sg15
g57
sg17
g18
sg19
g20
sg21
g22
sg23
(lp118
g1
(g25
g3
Ntp119
Rp120
(dp121
g29
V263
p122
sg31
VZigzagoon
p123
sg33
VF
p124
sg35
g64
sg37
(lp125
Vbelly-drum
p126
aVmud-sport
p127
aVodor-sleuth
p128
aVcovet
p129
asg43
g44
sg45
Vpickup
p130
sbag1
(g25
g3
Ntp131
Rp132
(dp133
g29
V263
p134
sg31
VZigzagoon
p135
sg33
g124
sg35
g64
sg37
(lp136
Vbelly-drum
p137
aVmud-sport
p138
aVodor-sleuth
p139
aVcovet
p140
asg43
g44
sg45
Vgluttony
p141
sbasg47
I00
sg48
g49
sba.