(lp0
ccopy_reg
_reconstructor
p1
(c__main__
Trainer
p2
c__builtin__
object
p3
Ntp4
Rp5
(dp6
VtSprite
p7
VSpr RS Swimmer F.png
p8
sVtClass
p9
VSwimmer
p10
sVtName
p11
VDawn
p12
sVtMoney
p13
V216
p14
sVtPokeCount
p15
V1
p16
sVtLocation
p17
Vwiki/Hoenn_Route_105
p18
sVtRegion
p19
VHoenn
p20
sVtGame
p21
VRS
p22
sVtPokes
p23
(lp24
g1
(c__main__
FinishedPokemon
p25
g3
Ntp26
Rp27
(dp28
VpDexNo
p29
V183
p30
sVpSpecies
p31
VMarill
p32
sVpGender
p33
VF
p34
sVpLevel
p35
V27
p36
sVpMoves
p37
(lp38
Vbubble-beam
p39
aVdefense-curl
p40
aVrollout
p41
aVrain-dance
p42
asVpHold
p43
V
p44
sVpAbility
p45
Vthick-fat
p46
sbasVbossFlag
p47
I00
sVtLongGame
p48
Vruby-sapphire
p49
sbag1
(g2
g3
Ntp50
Rp51
(dp52
g7
VSpr RS Swimmer F.png
p53
sg9
VSwimmer
p54
sg11
VBeverly
p55
sg13
V208
p56
sg15
V2
p57
sg17
g18
sg19
g20
sg21
g22
sg23
(lp58
g1
(g25
g3
Ntp59
Rp60
(dp61
g29
V320
p62
sg31
VWailmer
p63
sg33
g34
sg35
V26
p64
sg37
(lp65
Vwhirlpool
p66
aVastonish
p67
aVwater-spout
p68
aVwater-pulse
p69
asg43
g44
sg45
Voblivious
p70
sbag1
(g25
g3
Ntp71
Rp72
(dp73
g29
V320
p74
sg31
VWailmer
p75
sg33
g34
sg35
V26
p76
sg37
(lp77
Vwhirlpool
p78
aVastonish
p79
aVwater-spout
p80
aVwater-pulse
p81
asg43
g44
sg45
Vwater-veil
p82
sbasg47
I00
sg48
g49
sbag1
(g2
g3
Ntp83
Rp84
(dp85
g7
VSpr RS Swimmer M.png
p86
sg9
VSwimmer
p87
sg11
VAustin
p88
sg13
V200
p89
sg15
V3
p90
sg17
g18
sg19
g20
sg21
g22
sg23
(lp91
g1
(g25
g3
Ntp92
Rp93
(dp94
g29
V129
p95
sg31
VMagikarp
p96
sg33
VM
p97
sg35
V25
p98
sg37
(lp99
Vtackle
p100
aVsplash
p101
aVflail
p102
asg43
g44
sg45
Vswift-swim
p103
sbag1
(g25
g3
Ntp104
Rp105
(dp106
g29
V072
p107
sg31
VTentacool
p108
sg33
g97
sg35
V25
p109
sg37
(lp110
Vbubble-beam
p111
aVscreech
p112
aVbarrier
p113
aVconstrict
p114
asg43
g44
sg45
Vliquid-ooze
p115
sbag1
(g25
g3
Ntp116
Rp117
(dp118
g29
V278
p119
sg31
VWingull
p120
sg33
g97
sg35
V25
p121
sg37
(lp122
Vwater-gun
p123
aVagility
p124
aVquick-attack
p125
aVpursuit
p126
asg43
g44
sg45
Vhydration
p127
sbasg47
I00
sg48
g49
sbag1
(g2
g3
Ntp128
Rp129
(dp130
g7
VSpr RS Ruin Maniac.png
p131
sg9
VRuin Maniac
p132
sg11
VFoster
p133
sg13
V1560
p134
sg15
g57
sg17
g18
sg19
g20
sg21
g22
sg23
(lp135
g1
(g25
g3
Ntp136
Rp137
(dp138
g29
V027
p139
sg31
VSandshrew
p140
sg33
g97
sg35
V26
p141
sg37
(lp142
Vfury-swipes
p143
aVslash
p144
aVsandstorm
p145
aVsand-tomb
p146
asg43
g44
sg45
Vsand-veil
p147
sbag1
(g25
g3
Ntp148
Rp149
(dp150
g29
V028
p151
sg31
VSandslash
p152
sg33
g97
sg35
V26
p153
sg37
(lp154
Vfury-swipes
p155
aVslash
p156
aVsandstorm
p157
aVsand-tomb
p158
asg43
g44
sg45
Vsand-veil
p159
sbasg47
I00
sg48
g49
sbag1
(g2
g3
Ntp160
Rp161
(dp162
g7
VSpr RS Swimmer M.png
p163
sg9
VSwimmer
p164
sg11
VLuis
p165
sg13
V216
p166
sg15
g16
sg17
g18
sg19
g20
sg21
g22
sg23
(lp167
g1
(g25
g3
Ntp168
Rp169
(dp170
g29
V318
p171
sg31
VCarvanha
p172
sg33
g97
sg35
V27
p173
sg37
(lp174
Vfocus-energy
p175
aVscary-face
p176
aVswagger
p177
aVcrunch
p178
asg43
g44
sg45
Vrough-skin
p179
sbasg47
I00
sg48
g49
sbag1
(g2
g3
Ntp180
Rp181
(dp182
g7
VSpr RS Swimmer F.png
p183
sg9
VSwimmer
p184
sg11
VImani
p185
sg13
V208
p186
sg15
g16
sg17
g18
sg19
g20
sg21
g22
sg23
(lp187
g1
(g25
g3
Ntp188
Rp189
(dp190
g29
V183
p191
sg31
VMarill
p192
sg33
g34
sg35
V26
p193
sg37
(lp194
Vbubble-beam
p195
aVdefense-curl
p196
aVrollout
p197
aVrain-dance
p198
asg43
g44
sg45
Vthick-fat
p199
sbasg47
I00
sg48
g49
sbag1
(g2
g3
Ntp200
Rp201
(dp202
g7
VSpr RS Swimmer M.png
p203
sg9
VSwimmer
p204
sg11
VDominik
p205
sg13
V208
p206
sg15
g16
sg17
g18
sg19
g20
sg21
g22
sg23
(lp207
g1
(g25
g3
Ntp208
Rp209
(dp210
g29
V072
p211
sg31
VTentacool
p212
sg33
g97
sg35
V26
p213
sg37
(lp214
Vbubble-beam
p215
aVscreech
p216
aVbarrier
p217
aVconstrict
p218
asg43
g44
sg45
Vclear-body
p219
sbasg47
I00
sg48
g49
sbag1
(g2
g3
Ntp220
Rp221
(dp222
g7
VSpr RS Ruin Maniac.png
p223
sg9
VRuin Maniac
p224
sg11
VFoster
p225
sg13
V1500
p226
sg15
g57
sg17
g18
sg19
g20
sg21
g22
sg23
(lp227
g1
(g25
g3
Ntp228
Rp229
(dp230
g29
V027
p231
sg31
VSandshrew
p232
sg33
g97
sg35
V25
p233
sg37
(lp234
Vfury-swipes
p235
aVslash
p236
aVsandstorm
p237
aVsand-tomb
p238
asg43
g44
sg45
Vsand-veil
p239
sbag1
(g25
g3
Ntp240
Rp241
(dp242
g29
V028
p243
sg31
VSandslash
p244
sg33
g97
sg35
V25
p245
sg37
(lp246
Vfury-swipes
p247
aVslash
p248
aVsandstorm
p249
aVsand-tomb
p250
asg43
g44
sg45
Vsand-veil
p251
sbasg47
I00
sg48
g49
sbag1
(g2
g3
Ntp252
Rp253
(dp254
g7
VSpr RS Swimmer F.png
p255
sg9
VSwimmer
p256
sg11
VBeverly
p257
sg13
V200
p258
sg15
g57
sg17
g18
sg19
g20
sg21
g22
sg23
(lp259
g1
(g25
g3
Ntp260
Rp261
(dp262
g29
V278
p263
sg31
VWingull
p264
sg33
g34
sg35
V25
p265
sg37
(lp266
Vwater-gun
p267
aVagility
p268
aVquick-attack
p269
aVpursuit
p270
asg43
g44
sg45
Vkeen-eye
p271
sbag1
(g25
g3
Ntp272
Rp273
(dp274
g29
V320
p275
sg31
VWailmer
p276
sg33
g34
sg35
V25
p277
sg37
(lp278
Vwhirlpool
p279
aVastonish
p280
aVwater-spout
p281
aVwater-pulse
p282
asg43
g44
sg45
Vwater-veil
p283
sbasg47
I00
sg48
g49
sbag1
(g2
g3
Ntp284
Rp285
(dp286
g7
VSpr RS Ruin Maniac.png
p287
sg9
VRuin Maniac
p288
sg11
VAndres
p289
sg13
V1500<br><small>Potential [[Double Battle]] with Josue</small>
p290
sg15
g57
sg17
g18
sg19
g20
sg21
g22
sg23
(lp291
g1
(g25
g3
Ntp292
Rp293
(dp294
g29
V027
p295
sg31
VSandshrew
p296
sg33
g97
sg35
V25
p297
sg37
(lp298
Vfury-swipes
p299
aVslash
p300
aVsandstorm
p301
aVsand-tomb
p302
asg43
g44
sg45
Vsand-veil
p303
sbag1
(g25
g3
Ntp304
Rp305
(dp306
g29
V027
p307
sg31
VSandshrew
p308
sg33
g97
sg35
V25
p309
sg37
(lp310
Vfury-swipes
p311
aVslash
p312
aVsandstorm
p313
aVsand-tomb
p314
asg43
g44
sg45
Vsand-veil
p315
sbasg47
I00
sg48
g49
sbag1
(g2
g3
Ntp316
Rp317
(dp318
g7
VSpr RS Bird Keeper.png
p319
sg9
VBird Keeper
p320
sg11
VJosue
p321
sg13
V800<br><small>Potential [[Double Battle]] with Andres</small>
p322
sg15
g57
sg17
g18
sg19
g20
sg21
g22
sg23
(lp323
g1
(g25
g3
Ntp324
Rp325
(dp326
g29
V276
p327
sg31
VTaillow
p328
sg33
g97
sg35
V25
p329
sg37
(lp330
Vdouble-team
p331
aVfocus-energy
p332
aVendeavor
p333
aVaerial-ace
p334
asg43
g44
sg45
Vguts
p335
sbag1
(g25
g3
Ntp336
Rp337
(dp338
g29
V278
p339
sg31
VWingull
p340
sg33
g97
sg35
V25
p341
sg37
(lp342
Vwater-gun
p343
aVagility
p344
aVquick-attack
p345
aVpursuit
p346
asg43
g44
sg45
Vkeen-eye
p347
sbasg47
I00
sg48
g49
sbag1
(g2
g3
Ntp348
Rp349
(dp350
g7
VSpr RS Swimmer M.png
p351
sg9
VSwimmer
p352
sg11
VLuis
p353
sg13
V208
p354
sg15
g16
sg17
g18
sg19
g20
sg21
g22
sg23
(lp355
g1
(g25
g3
Ntp356
Rp357
(dp358
g29
V318
p359
sg31
VCarvanha
p360
sg33
g97
sg35
V26
p361
sg37
(lp362
Vfocus-energy
p363
aVscary-face
p364
aVswagger
p365
aVcrunch
p366
asg43
g44
sg45
Vrough-skin
p367
sbasg47
I00
sg48
g49
sbag1
(g2
g3
Ntp368
Rp369
(dp370
g7
VSpr RS Ruin Maniac.png
p371
sg9
VRuin Maniac
p372
sg11
VAndres{{tt|*|First rematch}}
p373
sg13
V1860
p374
sg15
g57
sg17
g18
sg19
g20
sg21
g22
sg23
(lp375
g1
(g25
g3
Ntp376
Rp377
(dp378
g29
V027
p379
sg31
VSandshrew
p380
sg33
g97
sg35
V31
p381
sg37
(lp382
Vfury-swipes
p383
aVslash
p384
aVsandstorm
p385
aVsand-tomb
p386
asg43
g44
sg45
Vsand-veil
p387
sbag1
(g25
g3
Ntp388
Rp389
(dp390
g29
V027
p391
sg31
VSandshrew
p392
sg33
g97
sg35
V31
p393
sg37
(lp394
Vfury-swipes
p395
aVslash
p396
aVsandstorm
p397
aVsand-tomb
p398
asg43
g44
sg45
Vsand-veil
p399
sbasg47
I00
sg48
g49
sbag1
(g2
g3
Ntp400
Rp401
(dp402
g7
VSpr RS Ruin Maniac.png
p403
sg9
VRuin Maniac
p404
sg11
VAndres{{tt|*|Second and third rematch}}
p405
sg13
g1
(cmwparserfromhell.wikicode
Wikicode
p406
g3
Ntp407
Rp408
(dp409
V_nodes
p410
g1
(cmwparserfromhell.smart_list.smart_list
SmartList
p411
c__builtin__
list
p412
(lp413
g1
(cmwparserfromhell.nodes.text
Text
p414
g3
Ntp415
Rp416
(dp417
V_value
p418
V1980
p419
sbatp420
Rp421
(dp422
V_children
p423
(dp424
sbsbsg15
g90
sg17
g18
sg19
g20
sg21
g22
sg23
(lp425
g1
(g25
g3
Ntp426
Rp427
(dp428
g29
V299
p429
sg31
VNosepass
p430
sg33
g97
sg35
V33
p431
sg37
(lp432
Vzap-cannon
p433
aVlock-on
p434
aVsandstorm
p435
aVblock
p436
asg43
g44
sg45
Vmagnet-pull
p437
sbag1
(g25
g3
Ntp438
Rp439
(dp440
g29
V027
p441
sg31
VSandshrew
p442
sg33
g97
sg35
V33
p443
sg37
(lp444
Vfury-swipes
p445
aVslash
p446
aVsandstorm
p447
aVsand-tomb
p448
asg43
g44
sg45
Vsand-veil
p449
sbag1
(g25
g3
Ntp450
Rp451
(dp452
g29
V027
p453
sg31
VSandshrew
p454
sg33
g97
sg35
V33
p455
sg37
(lp456
Vfury-swipes
p457
aVslash
p458
aVsandstorm
p459
aVsand-tomb
p460
asg43
g44
sg45
Vsand-veil
p461
sbasg47
I00
sg48
g49
sbag1
(g2
g3
Ntp462
Rp463
(dp464
g7
VSpr RS Ruin Maniac.png
p465
sg9
VRuin Maniac
p466
sg11
VAndres{{tt|*|Fourth rematch onwards}}
p467
sg13
V2220
p468
sg15
g90
sg17
g18
sg19
g20
sg21
g22
sg23
(lp469
g1
(g25
g3
Ntp470
Rp471
(dp472
g29
V299
p473
sg31
VNosepass
p474
sg33
g97
sg35
V37
p475
sg37
(lp476
Vzap-cannon
p477
aVlock-on
p478
aVsandstorm
p479
aVblock
p480
asg43
g44
sg45
Vmagnet-pull
p481
sbag1
(g25
g3
Ntp482
Rp483
(dp484
g29
V028
p485
sg31
VSandslash
p486
sg33
g97
sg35
V37
p487
sg37
(lp488
Vfury-swipes
p489
aVslash
p490
aVsandstorm
p491
aVsand-tomb
p492
asg43
g44
sg45
Vsand-veil
p493
sbag1
(g25
g3
Ntp494
Rp495
(dp496
g29
V028
p497
sg31
VSandslash
p498
sg33
g97
sg35
V37
p499
sg37
(lp500
Vfury-swipes
p501
aVslash
p502
aVsandstorm
p503
aVsand-tomb
p504
asg43
g44
sg45
Vsand-veil
p505
sbasg47
I00
sg48
g49
sbag1
(g2
g3
Ntp506
Rp507
(dp508
g7
VVSSwimmer F ORAS.png
p509
sg9
VSwimmer \u2640
p510
sg11
VBeverly
p511
sg13
V400<br><small>Requires {{m|Surf}}</small>
p512
sg15
g57
sg17
g18
sg19
g20
sg21
VSM
p513
sg23
(lp514
g1
(g25
g3
Ntp515
Rp516
(dp517
g29
V320
p518
sg31
VWailmer
p519
sg33
g34
sg35
V25
p520
sg37
(lp521
Vbounce
p522
aVwater-pulse
p523
aVbrine
p524
aVheavy-slam
p525
asg43
g44
sg45
Vwater-veil
p526
sbag1
(g25
g3
Ntp527
Rp528
(dp529
g29
V184
p530
sg31
VAzumarill
p531
sg33
g34
sg35
V25
p532
sg37
(lp533
Vwater-sport
p534
aVaqua-ring
p535
aVaqua-tail
p536
aVplay-rough
p537
asg43
g44
sg45
Vthick-fat
p538
sbasg47
I00
sg48
Vsun-moon
p539
sbag1
(g2
g3
Ntp540
Rp541
(dp542
g7
VVSTriathlete Swimmer.png
p543
sg9
VTriathlete
p544
sg11
VVin
p545
sg13
V1,000<br><small>Requires {{m|Surf}}</small>
p546
sg15
g57
sg17
g18
sg19
g20
sg21
VSM
p547
sg23
(lp548
g1
(g25
g3
Ntp549
Rp550
(dp551
g29
V320
p552
sg31
VWailmer
p553
sg33
g97
sg35
V25
p554
sg37
(lp555
Vbounce
p556
aVwater-pulse
p557
aVbrine
p558
aVheavy-slam
p559
asg43
g44
sg45
Vwater-veil
p560
sbag1
(g25
g3
Ntp561
Rp562
(dp563
g29
V363
p564
sg31
VSpheal
p565
sg33
g97
sg35
V25
p566
sg37
(lp567
Vhail
p568
aVice-ball
p569
aVsheer-cold
p570
aVbrine
p571
asg43
g44
sg45
Vthick-fat
p572
sbasg47
I00
sg48
g539
sbag1
(g2
g3
Ntp573
Rp574
(dp575
g7
VVSSwimmer F ORAS.png
p576
sg9
VSwimmer \u2640
p577
sg11
VDawn
p578
sg13
V432<br><small>Requires {{m|Surf}}</small>
p579
sg15
g16
sg17
g18
sg19
g20
sg21
g513
sg23
(lp580
g1
(g25
g3
Ntp581
Rp582
(dp583
g29
V184
p584
sg31
VAzumarill
p585
sg33
g34
sg35
V27
p586
sg37
(lp587
Vwater-sport
p588
aVaqua-ring
p589
aVaqua-tail
p590
aVplay-rough
p591
asg43
g44
sg45
Vthick-fat
p592
sbasg47
I00
sg48
g539
sbag1
(g2
g3
Ntp593
Rp594
(dp595
g7
VVSRuin Maniac.png
p596
sg9
VRuin Maniac
p597
sg11
VFoster
p598
sg13
V756
p599
sg15
g16
sg17
g18
sg19
g20
sg21
g547
sg23
(lp600
g1
(g25
g3
Ntp601
Rp602
(dp603
g29
V299
p604
sg31
VNosepass
p605
sg33
g97
sg35
V27
p606
sg37
(lp607
Vpower-gem
p608
aVearth-power
p609
aVdischarge
p610
aVstone-edge
p611
asg43
g44
sg45
Vsturdy
p612
sbasg47
I00
sg48
g539
sbag1
(g2
g3
Ntp613
Rp614
(dp615
g7
VVSSwimmer M VI.png
p616
sg9
VSwimmer \u2642
p617
sg11
VLuis
p618
sg13
V432<br><small>Requires {{m|Surf}}</small>
p619
sg15
g16
sg17
g18
sg19
g20
sg21
VSM
p620
sg23
(lp621
g1
(g25
g3
Ntp622
Rp623
(dp624
g29
V318
p625
sg31
VCarvanha
p626
sg33
g97
sg35
V27
p627
sg37
(lp628
Vpoison-fang
p629
aVassurance
p630
aVice-fang
p631
aVaqua-jet
p632
asg43
g44
sg45
Vrough-skin
p633
sbasg47
I00
sg48
g539
sbag1
(g2
g3
Ntp634
Rp635
(dp636
g7
VVSSwimmer M VI.png
p637
sg9
VSwimmer \u2642
p638
sg11
VAustin
p639
sg13
V416<br><small>Requires {{m|Surf}}</small>
p640
sg15
g57
sg17
g18
sg19
g20
sg21
g620
sg23
(lp641
g1
(g25
g3
Ntp642
Rp643
(dp644
g29
V278
p645
sg31
VWingull
p646
sg33
g97
sg35
V24
p647
sg37
(lp648
Vwater-pulse
p649
aVroost
p650
aVair-slash
p651
aVhurricane
p652
asg43
g44
sg45
Vkeen-eye
p653
sbag1
(g25
g3
Ntp654
Rp655
(dp656
g29
V279
p657
sg31
VPelipper
p658
sg33
g97
sg35
V26
p659
sg37
(lp660
Vfling
p661
aVsoak
p662
aVhurricane
p663
ag663
asg43
g44
sg45
Vdrizzle
p664
sbasg47
I00
sg48
g539
sba.