(lp0
ccopy_reg
_reconstructor
p1
(c__main__
Trainer
p2
c__builtin__
object
p3
Ntp4
Rp5
(dp6
VtSprite
p7
VSpr RS Bird Keeper.png
p8
sVtClass
p9
VBird Keeper
p10
sVtName
p11
VByron
p12
sVtMoney
p13
V1088
p14
sVtPokeCount
p15
V2
p16
sVtLocation
p17
Vwiki/Hoenn_Route_127
p18
sVtRegion
p19
VHoenn
p20
sVtGame
p21
VRS
p22
sVtPokes
p23
(lp24
g1
(c__main__
FinishedPokemon
p25
g3
Ntp26
Rp27
(dp28
VpDexNo
p29
V277
p30
sVpSpecies
p31
VSwellow
p32
sVpGender
p33
VM
p34
sVpLevel
p35
V34
p36
sVpMoves
p37
(lp38
Vfocus-energy
p39
ag39
aVendeavor
p40
aVaerial-ace
p41
asVpHold
p42
V
p43
sVpAbility
p44
Vguts
p45
sbag1
(g25
g3
Ntp46
Rp47
(dp48
g29
V279
p49
sg31
VPelipper
p50
sg33
g34
sg35
V34
p51
sg37
(lp52
Vstockpile
p53
aVspit-up
p54
aVswallow
p55
aVwater-sport
p56
asg42
g43
sg44
Vdrizzle
p57
sbasVbossFlag
p58
I00
sVtLongGame
p59
Vruby-sapphire
p60
sbag1
(g2
g3
Ntp61
Rp62
(dp63
g7
VSpr RS Triathlete Swimmer F.png
p64
sg9
VTriathlete
p65
sg11
VConnor
p66
sg13
V1320
p67
sg15
V4
p68
sg17
g18
sg19
g20
sg21
g22
sg23
(lp69
g1
(g25
g3
Ntp70
Rp71
(dp72
g29
V278
p73
sg31
VWingull
p74
sg33
VF
p75
sg35
V25
p76
sg37
(lp77
Vwater-gun
p78
aVagility
p79
aVquick-attack
p80
aVpursuit
p81
asg42
g43
sg44
Vkeen-eye
p82
sbag1
(g25
g3
Ntp83
Rp84
(dp85
g29
V278
p86
sg31
VWingull
p87
sg33
g75
sg35
V25
p88
sg37
(lp89
Vwater-gun
p90
aVagility
p91
aVquick-attack
p92
aVpursuit
p93
asg42
g43
sg44
Vhydration
p94
sbag1
(g25
g3
Ntp95
Rp96
(dp97
g29
V120
p98
sg31
VStaryu
p99
sg33
VU
p100
sg35
V33
p101
sg37
(lp102
Vswift
p103
aVrapid-spin
p104
aVcamouflage
p105
aVcosmic-power
p106
asg42
g43
sg44
Villuminate
p107
sbag1
(g25
g3
Ntp108
Rp109
(dp110
g29
V120
p111
sg31
VStaryu
p112
sg33
g100
sg35
V33
p113
sg37
(lp114
Vswift
p115
aVrapid-spin
p116
aVcamouflage
p117
aVcosmic-power
p118
asg42
g43
sg44
Vnatural-cure
p119
sbasg58
I00
sg59
g60
sbag1
(g2
g3
Ntp120
Rp121
(dp122
g7
VSpr RS Fisherman.png
p123
sg9
VFisherman
p124
sg11
VJonah
p125
sg13
V1280
p126
sg15
g68
sg17
g18
sg19
g20
sg21
g22
sg23
(lp127
g1
(g25
g3
Ntp128
Rp129
(dp130
g29
V320
p131
sg31
VWailmer
p132
sg33
g34
sg35
V34
p133
sg37
(lp134
Vwhirlpool
p135
aVastonish
p136
aVwater-spout
p137
aVwater-pulse
p138
asg42
g43
sg44
Voblivious
p139
sbag1
(g25
g3
Ntp140
Rp141
(dp142
g29
V072
p143
sg31
VTentacool
p144
sg33
g34
sg35
V32
p145
sg37
(lp146
Vbubble-beam
p147
aVscreech
p148
aVbarrier
p149
aVconstrict
p150
asg42
g43
sg44
Vliquid-ooze
p151
sbag1
(g25
g3
Ntp152
Rp153
(dp154
g29
V320
p155
sg31
VWailmer
p156
sg33
g34
sg35
V30
p157
sg37
(lp158
Vwhirlpool
p159
aVastonish
p160
aVwater-spout
p161
aVwater-pulse
p162
asg42
g43
sg44
Vwater-veil
p163
sbag1
(g25
g3
Ntp164
Rp165
(dp166
g29
V319
p167
sg31
VSharpedo
p168
sg33
g34
sg35
V32
p169
sg37
(lp170
Vscary-face
p171
aVswagger
p172
aVcrunch
p173
aVtaunt
p174
asg42
g43
sg44
Vrough-skin
p175
sbasg58
I00
sg59
g60
sbag1
(g2
g3
Ntp176
Rp177
(dp178
g7
VSpr RS Fisherman.png
p179
sg9
VFisherman
p180
sg11
VRoger
p181
sg13
V1800
p182
sg15
g68
sg17
g18
sg19
g20
sg21
g22
sg23
(lp183
g1
(g25
g3
Ntp184
Rp185
(dp186
g29
V129
p187
sg31
VMagikarp
p188
sg33
g34
sg35
V15
p189
sg37
(lp190
Vtackle
p191
aVsplash
p192
aVflail
p193
asg42
g43
sg44
Vswift-swim
p194
sbag1
(g25
g3
Ntp195
Rp196
(dp197
g29
V129
p198
sg31
VMagikarp
p199
sg33
g34
sg35
V25
p200
sg37
(lp201
Vtackle
p202
aVsplash
p203
aVflail
p204
asg42
g43
sg44
Vswift-swim
p205
sbag1
(g25
g3
Ntp206
Rp207
(dp208
g29
V130
p209
sg31
VGyarados
p210
sg33
g34
sg35
V35
p211
sg37
(lp212
Vdragon-rage
p213
aVtwister
p214
aVrain-dance
p215
aVdragon-dance
p216
asg42
g43
sg44
Vintimidate
p217
sbag1
(g25
g3
Ntp218
Rp219
(dp220
g29
V129
p221
sg31
VMagikarp
p222
sg33
g34
sg35
V45
p223
sg37
(lp224
Vtackle
p225
aVsplash
p226
aVflail
p227
asg42
g43
sg44
Vswift-swim
p228
sbasg58
I00
sg59
g60
sbag1
(g2
g3
Ntp229
Rp230
(dp231
g7
VSpr RS Fisherman.png
p232
sg9
VFisherman
p233
sg11
VHenry
p234
sg13
V1400
p235
sg15
V3
p236
sg17
g18
sg19
g20
sg21
g22
sg23
(lp237
g1
(g25
g3
Ntp238
Rp239
(dp240
g29
V072
p241
sg31
VTentacool
p242
sg33
g34
sg35
V31
p243
sg37
(lp244
Vbubble-beam
p245
aVscreech
p246
aVbarrier
p247
aVconstrict
p248
asg42
g43
sg44
Vclear-body
p249
sbag1
(g25
g3
Ntp250
Rp251
(dp252
g29
V073
p253
sg31
VTentacruel
p254
sg33
g34
sg35
V35
p255
sg37
(lp256
Vscreech
p257
aVbarrier
p258
aVconstrict
p259
ag259
asg42
g43
sg44
Vliquid-ooze
p260
sbag1
(g25
g3
Ntp261
Rp262
(dp263
g29
V318
p264
sg31
VCarvanha
p265
sg33
g34
sg35
V33
p266
sg37
(lp267
Vfocus-energy
p268
aVscary-face
p269
aVswagger
p270
aVcrunch
p271
asg42
g43
sg44
Vrough-skin
p272
sbasg58
I00
sg59
g60
sbag1
(g2
g3
Ntp273
Rp274
(dp275
g7
VSpr RS Triathlete Swimmer M.png
p276
sg9
VTriathlete
p277
sg11
VCaleb
p278
sg13
V1320
p279
sg15
g68
sg17
g18
sg19
g20
sg21
g22
sg23
(lp280
g1
(g25
g3
Ntp281
Rp282
(dp283
g29
V120
p284
sg31
VStaryu
p285
sg33
g100
sg35
V33
p286
sg37
(lp287
Vswift
p288
aVrapid-spin
p289
aVcamouflage
p290
aVcosmic-power
p291
asg42
g43
sg44
Vnatural-cure
p292
sbag1
(g25
g3
Ntp293
Rp294
(dp295
g29
V120
p296
sg31
VStaryu
p297
sg33
g100
sg35
V33
p298
sg37
(lp299
Vswift
p300
aVrapid-spin
p301
aVcamouflage
p302
aVcosmic-power
p303
asg42
g43
sg44
Villuminate
p304
sbag1
(g25
g3
Ntp305
Rp306
(dp307
g29
V120
p308
sg31
VStaryu
p309
sg33
g100
sg35
V33
p310
sg37
(lp311
Vswift
p312
aVrapid-spin
p313
aVcamouflage
p314
aVcosmic-power
p315
asg42
g43
sg44
Vnatural-cure
p316
sbag1
(g25
g3
Ntp317
Rp318
(dp319
g29
V120
p320
sg31
VStaryu
p321
sg33
g100
sg35
V33
p322
sg37
(lp323
Vswift
p324
aVrapid-spin
p325
aVcamouflage
p326
aVcosmic-power
p327
asg42
g43
sg44
Villuminate
p328
sbasg58
I00
sg59
g60
sbag1
(g2
g3
Ntp329
Rp330
(dp331
g7
VSpr RS Black Belt.png
p332
sg9
VBlack Belt
p333
sg11
VKoji
p334
sg13
V1088
p335
sg15
g16
sg17
g18
sg19
g20
sg21
g22
sg23
(lp336
g1
(g25
g3
Ntp337
Rp338
(dp339
g29
V067
p340
sg31
VMachoke
p341
sg33
g34
sg35
V34
p342
sg37
(lp343
Vdynamic-punch
p344
aVvital-throw
p345
aVcross-chop
p346
aVrevenge
p347
asg42
g43
sg44
Vno-guard
p348
sbag1
(g25
g3
Ntp349
Rp350
(dp351
g29
V067
p352
sg31
VMachoke
p353
sg33
g34
sg35
V34
p354
sg37
(lp355
Vdynamic-punch
p356
aVvital-throw
p357
aVcross-chop
p358
aVrevenge
p359
asg42
g43
sg44
Vno-guard
p360
sbasg58
I00
sg59
g60
sbag1
(g2
g3
Ntp361
Rp362
(dp363
g7
VSpr RS Bird Keeper.png
p364
sg9
VBird Keeper
p365
sg11
VAidan
p366
sg13
V1024<br><small>Potential [[Double Battle]] with Athena</small>
p367
sg15
g16
sg17
g18
sg19
g20
sg21
g22
sg23
(lp368
g1
(g25
g3
Ntp369
Rp370
(dp371
g29
V277
p372
sg31
VSwellow
p373
sg33
g34
sg35
V32
p374
sg37
(lp375
Vfocus-energy
p376
ag376
aVendeavor
p377
aVaerial-ace
p378
asg42
g43
sg44
Vguts
p379
sbag1
(g25
g3
Ntp380
Rp381
(dp382
g29
V227
p383
sg31
VSkarmory
p384
sg33
g34
sg35
V32
p385
sg37
(lp386
Vspikes
p387
aVsteel-wing
p388
aVair-cutter
p389
aVmetal-sound
p390
asg42
g43
sg44
Vkeen-eye
p391
sbasg58
I00
sg59
g60
sbag1
(g2
g3
Ntp392
Rp393
(dp394
g7
VSpr RS Cooltrainer F.png
p395
sg9
VCooltrainer
p396
sg11
VAthena
p397
sg13
V1536<br><small>Potential [[Double Battle]] with Aidan</small>
p398
sg15
g16
sg17
g18
sg19
g20
sg21
g22
sg23
(lp399
g1
(g25
g3
Ntp400
Rp401
(dp402
g29
V310
p403
sg31
VManectric
p404
sg33
g75
sg35
V32
p405
sg37
(lp406
Vcharge
p407
aVodor-sleuth
p408
aVhowl
p409
ag409
asg42
g43
sg44
Vstatic
p410
sbag1
(g25
g3
Ntp411
Rp412
(dp413
g29
V264
p414
sg31
VLinoone
p415
sg33
g75
sg35
V32
p416
sg37
(lp417
Vbelly-drum
p418
aVmud-sport
p419
aVodor-sleuth
p420
aVcovet
p421
asg42
g43
sg44
Vpickup
p422
sbasg58
I00
sg59
g60
sbag1
(g2
g3
Ntp423
Rp424
(dp425
g7
VSpr RS Fisherman.png
p426
sg9
VFisherman
p427
sg11
VJonah
p428
sg13
V1280
p429
sg15
g236
sg17
g18
sg19
g20
sg21
g22
sg23
(lp430
g1
(g25
g3
Ntp431
Rp432
(dp433
g29
V320
p434
sg31
VWailmer
p435
sg33
g34
sg35
V30
p436
sg37
(lp437
Vwhirlpool
p438
aVastonish
p439
aVwater-spout
p440
aVwater-pulse
p441
asg42
g43
sg44
Voblivious
p442
sbag1
(g25
g3
Ntp443
Rp444
(dp445
g29
V072
p446
sg31
VTentacool
p447
sg33
g34
sg35
V31
p448
sg37
(lp449
Vbubble-beam
p450
aVscreech
p451
aVbarrier
p452
aVconstrict
p453
asg42
g43
sg44
Vliquid-ooze
p454
sbag1
(g25
g3
Ntp455
Rp456
(dp457
g29
V319
p458
sg31
VSharpedo
p459
sg33
g34
sg35
V32
p460
sg37
(lp461
Vscary-face
p462
aVswagger
p463
aVcrunch
p464
aVtaunt
p465
asg42
g43
sg44
Vrough-skin
p466
sbasg58
I00
sg59
g60
sbag1
(g2
g3
Ntp467
Rp468
(dp469
g7
VSpr RS Fisherman.png
p470
sg9
VFisherman
p471
sg11
VRoger
p472
sg13
V1400
p473
sg15
g236
sg17
g18
sg19
g20
sg21
g22
sg23
(lp474
g1
(g25
g3
Ntp475
Rp476
(dp477
g29
V129
p478
sg31
VMagikarp
p479
sg33
g34
sg35
V15
p480
sg37
(lp481
Vtackle
p482
aVsplash
p483
aVflail
p484
asg42
g43
sg44
Vswift-swim
p485
sbag1
(g25
g3
Ntp486
Rp487
(dp488
g29
V129
p489
sg31
VMagikarp
p490
sg33
g34
sg35
V25
p491
sg37
(lp492
Vtackle
p493
aVsplash
p494
aVflail
p495
asg42
g43
sg44
Vswift-swim
p496
sbag1
(g25
g3
Ntp497
Rp498
(dp499
g29
V130
p500
sg31
VGyarados
p501
sg33
g34
sg35
V35
p502
sg37
(lp503
Vdragon-rage
p504
aVtwister
p505
aVrain-dance
p506
aVdragon-dance
p507
asg42
g43
sg44
Vintimidate
p508
sbasg58
I00
sg59
g60
sbag1
(g2
g3
Ntp509
Rp510
(dp511
g7
VSpr RS Fisherman.png
p512
sg9
VFisherman
p513
sg11
VHenry
p514
sg13
V1360
p515
sg15
g16
sg17
g18
sg19
g20
sg21
g22
sg23
(lp516
g1
(g25
g3
Ntp517
Rp518
(dp519
g29
V318
p520
sg31
VCarvanha
p521
sg33
g34
sg35
V31
p522
sg37
(lp523
Vfocus-energy
p524
aVscary-face
p525
aVswagger
p526
aVcrunch
p527
asg42
g43
sg44
Vrough-skin
p528
sbag1
(g25
g3
Ntp529
Rp530
(dp531
g29
V073
p532
sg31
VTentacruel
p533
sg33
g34
sg35
V34
p534
sg37
(lp535
Vscreech
p536
aVbarrier
p537
aVconstrict
p538
ag538
asg42
g43
sg44
Vclear-body
p539
sbasg58
I00
sg59
g60
sbag1
(g2
g3
Ntp540
Rp541
(dp542
g7
VSpr RS Triathlete Swimmer M.png
p543
sg9
VTriathlete
p544
sg11
VCamden
p545
sg13
V1320
p546
sg15
g16
sg17
g18
sg19
g20
sg21
g22
sg23
(lp547
g1
(g25
g3
Ntp548
Rp549
(dp550
g29
V120
p551
sg31
VStaryu
p552
sg33
g100
sg35
V33
p553
sg37
(lp554
Vswift
p555
aVrapid-spin
p556
aVcamouflage
p557
aVcosmic-power
p558
asg42
g43
sg44
Villuminate
p559
sbag1
(g25
g3
Ntp560
Rp561
(dp562
g29
V120
p563
sg31
VStaryu
p564
sg33
g100
sg35
V33
p565
sg37
(lp566
Vswift
p567
aVrapid-spin
p568
aVcamouflage
p569
aVcosmic-power
p570
asg42
g43
sg44
Vnatural-cure
p571
sbasg58
I00
sg59
g60
sbag1
(g2
g3
Ntp572
Rp573
(dp574
g7
VSpr RS Black Belt.png
p575
sg9
VBlack Belt
p576
sg11
VKoji
p577
sg13
V1088
p578
sg15
V1
p579
sg17
g18
sg19
g20
sg21
g22
sg23
(lp580
g1
(g25
g3
Ntp581
Rp582
(dp583
g29
V067
p584
sg31
VMachoke
p585
sg33
g34
sg35
V34
p586
sg37
(lp587
Vdynamic-punch
p588
aVvital-throw
p589
aVcross-chop
p590
aVrevenge
p591
asg42
g43
sg44
Vguts
p592
sbasg58
I00
sg59
g60
sbag1
(g2
g3
Ntp593
Rp594
(dp595
g7
VSpr RS Triathlete Swimmer F.png
p596
sg9
VTriathlete
p597
sg11
VDonny
p598
sg13
V1360
p599
sg15
g16
sg17
g18
sg19
g20
sg21
g22
sg23
(lp600
g1
(g25
g3
Ntp601
Rp602
(dp603
g29
V278
p604
sg31
VWingull
p605
sg33
g75
sg35
V26
p606
sg37
(lp607
Vwater-gun
p608
aVagility
p609
aVquick-attack
p610
aVpursuit
p611
asg42
g43
sg44
Vhydration
p612
sbag1
(g25
g3
Ntp613
Rp614
(dp615
g29
V120
p616
sg31
VStaryu
p617
sg33
g100
sg35
V34
p618
sg37
(lp619
Vswift
p620
aVrapid-spin
p621
aVcamouflage
p622
aVcosmic-power
p623
asg42
g43
sg44
Vnatural-cure
p624
sbasg58
I00
sg59
g60
sbag1
(g2
g3
Ntp625
Rp626
(dp627
g7
VSpr RS Black Belt.png
p628
sg9
VBlack Belt
p629
sg11
VKoji{{tt|*|First rematch}}
p630
sg13
V1184
p631
sg15
g16
sg17
g18
sg19
g20
sg21
g22
sg23
(lp632
g1
(g25
g3
Ntp633
Rp634
(dp635
g29
V067
p636
sg31
VMachoke
p637
sg33
g34
sg35
V37
p638
sg37
(lp639
Vdynamic-punch
p640
aVvital-throw
p641
aVcross-chop
p642
aVrevenge
p643
asg42
g43
sg44
Vno-guard
p644
sbag1
(g25
g3
Ntp645
Rp646
(dp647
g29
V067
p648
sg31
VMachoke
p649
sg33
g34
sg35
V37
p650
sg37
(lp651
Vdynamic-punch
p652
aVvital-throw
p653
aVcross-chop
p654
aVrevenge
p655
asg42
g43
sg44
Vno-guard
p656
sbasg58
I00
sg59
g60
sbag1
(g2
g3
Ntp657
Rp658
(dp659
g7
VSpr RS Black Belt.png
p660
sg9
VBlack Belt
p661
sg11
VKoji{{tt|*|Second rematch}}
p662
sg13
V1248
p663
sg15
g236
sg17
g18
sg19
g20
sg21
g22
sg23
(lp664
g1
(g25
g3
Ntp665
Rp666
(dp667
g29
V296
p668
sg31
VMakuhita
p669
sg33
g34
sg35
V39
p670
sg37
(lp671
Vfake-out
p672
aVsmelling-salts
p673
aVknock-off
p674
aVarm-thrust
p675
asg42
g43
sg44
Vguts
p676
sbag1
(g25
g3
Ntp677
Rp678
(dp679
g29
V067
p680
sg31
VMachoke
p681
sg33
g34
sg35
V39
p682
sg37
(lp683
Vdynamic-punch
p684
aVvital-throw
p685
aVcross-chop
p686
aVrevenge
p687
asg42
g43
sg44
Vguts
p688
sbag1
(g25
g3
Ntp689
Rp690
(dp691
g29
V067
p692
sg31
VMachoke
p693
sg33
g34
sg35
V39
p694
sg37
(lp695
Vdynamic-punch
p696
aVvital-throw
p697
aVcross-chop
p698
aVrevenge
p699
asg42
g43
sg44
Vno-guard
p700
sbasg58
I00
sg59
g60
sbag1
(g2
g3
Ntp701
Rp702
(dp703
g7
VSpr RS Black Belt.png
p704
sg9
VBlack Belt
p705
sg11
VKoji{{tt|*|Third rematch}}
p706
sg13
V1312
p707
sg15
g236
sg17
g18
sg19
g20
sg21
g22
sg23
(lp708
g1
(g25
g3
Ntp709
Rp710
(dp711
g29
V297
p712
sg31
VHariyama
p713
sg33
g34
sg35
V41
p714
sg37
(lp715
Vsmelling-salts
p716
aVknock-off
p717
aVarm-thrust
p718
ag718
asg42
g43
sg44
Vguts
p719
sbag1
(g25
g3
Ntp720
Rp721
(dp722
g29
V067
p723
sg31
VMachoke
p724
sg33
g34
sg35
V41
p725
sg37
(lp726
Vdynamic-punch
p727
aVvital-throw
p728
aVcross-chop
p729
aVrevenge
p730
asg42
g43
sg44
Vguts
p731
sbag1
(g25
g3
Ntp732
Rp733
(dp734
g29
V067
p735
sg31
VMachoke
p736
sg33
g34
sg35
V41
p737
sg37
(lp738
Vdynamic-punch
p739
aVvital-throw
p740
aVcross-chop
p741
aVrevenge
p742
asg42
g43
sg44
Vguts
p743
sbasg58
I00
sg59
g60
sbag1
(g2
g3
Ntp744
Rp745
(dp746
g7
VSpr RS Black Belt.png
p747
sg9
VBlack Belt
p748
sg11
VKoji{{tt|*|Fourth rematch onwards}}
p749
sg13
V1376
p750
sg15
g236
sg17
g18
sg19
g20
sg21
g22
sg23
(lp751
g1
(g25
g3
Ntp752
Rp753
(dp754
g29
V297
p755
sg31
VHariyama
p756
sg33
g34
sg35
V43
p757
sg37
(lp758
Vsmelling-salts
p759
aVknock-off
p760
aVarm-thrust
p761
ag761
asg42
g43
sg44
Vguts
p762
sbag1
(g25
g3
Ntp763
Rp764
(dp765
g29
V068
p766
sg31
VMachamp
p767
sg33
g34
sg35
V43
p768
sg37
(lp769
Vdynamic-punch
p770
aVvital-throw
p771
aVcross-chop
p772
aVrevenge
p773
asg42
g43
sg44
Vguts
p774
sbag1
(g25
g3
Ntp775
Rp776
(dp777
g29
V068
p778
sg31
VMachamp
p779
sg33
g34
sg35
V43
p780
sg37
(lp781
Vdynamic-punch
p782
aVvital-throw
p783
aVcross-chop
p784
aVrevenge
p785
asg42
g43
sg44
Vguts
p786
sbasg58
I00
sg59
g60
sbag1
(g2
g3
Ntp787
Rp788
(dp789
g7
VVSBird Keeper.png
p790
sg9
VBird Keeper
p791
sg11
VByron
p792
sg13
V1,520
p793
sg15
g16
sg17
g18
sg19
g20
sg21
VSM
p794
sg23
(lp795
g1
(g25
g3
Ntp796
Rp797
(dp798
g29
V085
p799
sg31
VDodrio
p800
sg33
g34
sg35
V38
p801
sg37
(lp802
Vendeavor
p803
aVpluck
p804
aVacupressure
p805
aVdouble-hit
p806
asg42
g43
sg44
Vrun-away
p807
sbag1
(g25
g3
Ntp808
Rp809
(dp810
g29
V178
p811
sg31
VXatu
p812
sg33
g34
sg35
V38
p813
sg37
(lp814
Vguard-swap
p815
aVair-slash
p816
aVominous-wind
p817
aVstored-power
p818
asg42
g43
sg44
Vsynchronize
p819
sbasg58
I00
sg59
Vsun-moon
p820
sbag1
(g2
g3
Ntp821
Rp822
(dp823
g7
VVSFisherman ORAS.png
p824
sg9
VFisherman
p825
sg11
VJonah
p826
sg13
V1,184
p827
sg15
g16
sg17
g18
sg19
g20
sg21
VSM
p828
sg23
(lp829
g1
(g25
g3
Ntp830
Rp831
(dp832
g29
V370
p833
sg31
VLuvdisc
p834
sg33
g75
sg35
V37
p835
sg37
(lp836
Vcaptivate
p837
aVsoak
p838
aVheart-stamp
p839
aVdraining-kiss
p840
asg42
g43
sg44
Vswift-swim
p841
sbag1
(g25
g3
Ntp842
Rp843
(dp844
g29
V369
p845
sg31
VRelicanth
p846
sg33
g34
sg35
V37
p847
sg37
(lp848
Vmud-sport
p849
aVrock-tomb
p850
aVhead-smash
p851
ag851
asg42
g43
sg44
Vrock-head
p852
sbasg58
I00
sg59
g820
sbag1
(g2
g3
Ntp853
Rp854
(dp855
g7
VVSFisherman ORAS.png
p856
sg9
VFisherman
p857
sg11
VHenry
p858
sg13
V1,248
p859
sg15
g579
sg17
g18
sg19
g20
sg21
g828
sg23
(lp860
g1
(g25
g3
Ntp861
Rp862
(dp863
g29
V073
p864
sg31
VTentacruel
p865
sg33
g34
sg35
V39
p866
sg37
(lp867
Vsludge-wave
p868
aVacid-spray
p869
aVhex
p870
aVreflect-type
p871
asg42
g43
sg44
Vclear-body
p872
sbasg58
I00
sg59
g820
sbag1
(g2
g3
Ntp873
Rp874
(dp875
g7
VVSFisherman ORAS.png
p876
sg9
VFisherman
p877
sg11
VRoger
p878
sg13
V1,184
p879
sg15
g16
sg17
g18
sg19
g20
sg21
g828
sg23
(lp880
g1
(g25
g3
Ntp881
Rp882
(dp883
g29
V320
p884
sg31
VWailmer
p885
sg33
g34
sg35
V37
p886
sg37
(lp887
Vbounce
p888
aVwater-pulse
p889
aVbrine
p890
aVheavy-slam
p891
asg42
g43
sg44
Voblivious
p892
sbag1
(g25
g3
Ntp893
Rp894
(dp895
g29
V319
p896
sg31
VSharpedo
p897
sg33
g34
sg35
V37
p898
sg37
(lp899
Vnight-slash
p900
ag900
aVice-fang
p901
aVaqua-jet
p902
asg42
g43
sg44
Vrough-skin
p903
sbasg58
I00
sg59
g820
sbag1
(g2
g3
Ntp904
Rp905
(dp906
g7
VVSAce Trainer M ORAS.png
p907
sg9
VAce Trainer
p908
sg11
VHisato
p909
sg13
V2,460
p910
sg15
g579
sg17
g18
sg19
g20
sg21
VSM
p911
sg23
(lp912
g1
(g25
g3
Ntp913
Rp914
(dp915
g29
V127
p916
sg31
VPinsir
p917
sg33
g34
sg35
V41
p918
sg37
(lp919
Vbrick-break
p920
aVx-scissor
p921
aVdouble-hit
p922
aVstorm-throw
p923
asg42
g43
sg44
Vmold-breaker
p924
sbasg58
I00
sg59
g820
sbag1
(g2
g3
Ntp925
Rp926
(dp927
g7
VVSAce Trainer F ORAS.png
p928
sg9
VAce Trainer
p929
sg11
VClaudia
p930
sg13
V2,280
p931
sg15
g236
sg17
g18
sg19
g20
sg21
VSM
p932
sg23
(lp933
g1
(g25
g3
Ntp934
Rp935
(dp936
g29
V361
p937
sg31
VSnorunt
p938
sg33
g75
sg35
V38
p939
sg37
(lp940
Vhail
p941
aVice-shard
p942
aVice-fang
p943
aVfrost-breath
p944
asg42
g43
sg44
Vinner-focus
p945
sbag1
(g25
g3
Ntp946
Rp947
(dp948
g29
V284
p949
sg31
VMasquerain
p950
sg33
g75
sg35
V38
p951
sg37
(lp952
Vbug-buzz
p953
aVominous-wind
p954
aVquiver-dance
p955
ag955
asg42
g43
sg44
Vintimidate
p956
sbag1
(g25
g3
Ntp957
Rp958
(dp959
g29
V356
p960
sg31
VDusclops
p961
sg33
g75
sg35
V38
p962
sg37
(lp963
Vgravity
p964
aVpayback
p965
aVshadow-sneak
p966
aVhex
p967
asg42
g43
sg44
Vpressure
p968
sbasg58
I00
sg59
g820
sbag1
(g2
g3
Ntp969
Rp970
(dp971
g7
VVSTriathlete Swimmer.png
p972
sg9
VTriathlete
p973
sg11
VJaylon
p974
sg13
V1,560
p975
sg15
g579
sg17
g18
sg19
g20
sg21
VSM
p976
sg23
(lp977
g1
(g25
g3
Ntp978
Rp979
(dp980
g29
V073
p981
sg31
VTentacruel
p982
sg33
g34
sg35
V39
p983
sg37
(lp984
Vsludge-wave
p985
aVacid-spray
p986
aVhex
p987
aVreflect-type
p988
asg42
g43
sg44
Vliquid-ooze
p989
sbasg58
I00
sg59
g820
sbag1
(g2
g3
Ntp990
Rp991
(dp992
g7
VVSBlack Belt.png
p993
sg9
VBlack Belt
p994
sg11
VKoji
p995
sg13
V1,248
p996
sg15
g16
sg17
g18
sg19
g20
sg21
VSM
p997
sg23
(lp998
g1
(g25
g3
Ntp999
Rp1000
(dp1001
g29
V067
p1002
sg31
VMachoke
p1003
sg33
g34
sg35
V37
p1004
sg37
(lp1005
Vbulk-up
p1006
aVwake-up-slap
p1007
aVlow-sweep
p1008
aVdual-chop
p1009
asg42
g43
sg44
Vno-guard
p1010
sbag1
(g25
g3
Ntp1011
Rp1012
(dp1013
g29
V297
p1014
sg31
VHariyama
p1015
sg33
g34
sg35
V39
p1016
sg37
(lp1017
Vbrine
p1018
aVclose-combat
p1019
aVforce-palm
p1020
aVheavy-slam
p1021
asg42
g43
sg44
Vthick-fat
p1022
sbasg58
I00
sg59
g820
sbag1
(g2
g3
Ntp1023
Rp1024
(dp1025
g7
VVSScuba Diver.png
p1026
sg9
VScuba Diver
p1027
sg11
VJavier
p1028
sg13
V1,640
p1029
sg15
g579
sg17
g18
sg19
g20
sg21
VSM
p1030
sg23
(lp1031
g1
(g25
g3
Ntp1032
Rp1033
(dp1034
g29
V369
p1035
sg31
VRelicanth
p1036
sg33
g34
sg35
V41
p1037
sg37
(lp1038
Vmud-sport
p1039
aVrock-tomb
p1040
aVhead-smash
p1041
ag1041
asg42
g43
sg44
Vswift-swim
p1042
sbasg58
I00
sg59
g820
sbag1
(g2
g3
Ntp1043
Rp1044
(dp1045
g7
VVSFree Diver.png
p1046
sg9
VFree Diver
p1047
sg11
VKailyn
p1048
sg13
V1,640
p1049
sg15
g579
sg17
g18
sg19
g20
sg21
VSM
p1050
sg23
(lp1051
g1
(g25
g3
Ntp1052
Rp1053
(dp1054
g29
V121
p1055
sg31
VStarmie
p1056
sg33
g100
sg35
V41
p1057
sg37
(lp1058
Vconfuse-ray
p1059
aVswift
p1060
aVrapid-spin
p1061
aVspotlight
p1062
asg42
g43
sg44
Vnatural-cure
p1063
sbasg58
I00
sg59
g820
sbag1
(g2
g3
Ntp1064
Rp1065
(dp1066
g7
VVSFree Diver.png
p1067
sg9
VFree Diver
p1068
sg11
VAileen
p1069
sg13
V1,640
p1070
sg15
g579
sg17
g18
sg19
g20
sg21
g1050
sg23
(lp1071
g1
(g25
g3
Ntp1072
Rp1073
(dp1074
g29
V364
p1075
sg31
VSealeo
p1076
sg33
g75
sg35
V41
p1077
sg37
(lp1078
Vhail
p1079
aVice-ball
p1080
aVsheer-cold
p1081
aVbrine
p1082
asg42
g43
sg44
Vthick-fat
p1083
sbasg58
I00
sg59
g820
sba.