(lp0
ccopy_reg
_reconstructor
p1
(c__main__
Trainer
p2
c__builtin__
object
p3
Ntp4
Rp5
(dp6
VtSprite
p7
VSpr RS Youngster.png
p8
sVtClass
p9
VYoungster
p10
sVtName
p11
VJoey
p12
sVtMoney
p13
V160
p14
sVtPokeCount
p15
V2
p16
sVtLocation
p17
Vwiki/Hoenn_Route_116
p18
sVtRegion
p19
VHoenn
p20
sVtGame
p21
VRS
p22
sVtPokes
p23
(lp24
g1
(c__main__
FinishedPokemon
p25
g3
Ntp26
Rp27
(dp28
VpDexNo
p29
V263
p30
sVpSpecies
p31
VZigzagoon
p32
sVpGender
p33
VM
p34
sVpLevel
p35
V8
p36
sVpMoves
p37
(lp38
Vbelly-drum
p39
aVmud-sport
p40
aVodor-sleuth
p41
aVcovet
p42
asVpHold
p43
V
p44
sVpAbility
p45
Vgluttony
p46
sbag1
(g25
g3
Ntp47
Rp48
(dp49
g29
V066
p50
sg31
VMachop
p51
sg33
g34
sg35
V10
p52
sg37
(lp53
Vdynamic-punch
p54
aVvital-throw
p55
aVcross-chop
p56
aVrevenge
p57
asg43
g44
sg45
Vno-guard
p58
sbasVbossFlag
p59
I00
sVtLongGame
p60
Vruby-sapphire
p61
sbag1
(g2
g3
Ntp62
Rp63
(dp64
g7
VSpr RS Bug Catcher.png
p65
sg9
VBug Catcher
p66
sg11
VJose
p67
sg13
V128
p68
sg15
V3
p69
sg17
g18
sg19
g20
sg21
g22
sg23
(lp70
g1
(g25
g3
Ntp71
Rp72
(dp73
g29
V265
p74
sg31
VWurmple
p75
sg33
g34
sg35
g36
sg37
(lp76
Vtackle
p77
aVpoison-sting
p78
aVstring-shot
p79
asg43
g44
sg45
Vshield-dust
p80
sbag1
(g25
g3
Ntp81
Rp82
(dp83
g29
V266
p84
sg31
VSilcoon
p85
sg33
g34
sg35
g36
sg37
(lp86
Vharden
p87
ag87
asg43
g44
sg45
Vshed-skin
p88
sbag1
(g25
g3
Ntp89
Rp90
(dp91
g29
V290
p92
sg31
VNincada
p93
sg33
g34
sg35
g36
sg37
(lp94
Vmind-reader
p95
aVmud-slap
p96
aVfalse-swipe
p97
aVmetal-claw
p98
asg43
g44
sg45
Vcompound-eyes
p99
sbasg59
I00
sg60
g61
sbag1
(g2
g3
Ntp100
Rp101
(dp102
g7
VSpr RS Lass.png
p103
sg9
VLass
p104
sg11
VJanice
p105
sg13
V160
p106
sg15
V1
p107
sg17
g18
sg19
g20
sg21
g22
sg23
(lp108
g1
(g25
g3
Ntp109
Rp110
(dp111
g29
V183
p112
sg31
VMarill
p113
sg33
VF
p114
sg35
V10
p115
sg37
(lp116
Vbubble-beam
p117
aVdefense-curl
p118
aVrollout
p119
aVrain-dance
p120
asg43
g44
sg45
Vthick-fat
p121
sbasg59
I00
sg60
g61
sbag1
(g2
g3
Ntp122
Rp123
(dp124
g7
VSpr RS Hiker.png
p125
sg9
VHiker
p126
sg11
VClark
p127
sg13
V320
p128
sg15
g69
sg17
g18
sg19
g20
sg21
g22
sg23
(lp129
g1
(g25
g3
Ntp130
Rp131
(dp132
g29
V074
p133
sg31
VGeodude
p134
sg33
g34
sg35
g36
sg37
(lp135
Vrollout
p136
aVmagnitude
p137
aVmud-sport
p138
aVrock-blast
p139
asg43
g44
sg45
Vrock-head
p140
sbag1
(g25
g3
Ntp141
Rp142
(dp143
g29
V074
p144
sg31
VGeodude
p145
sg33
g34
sg35
g36
sg37
(lp146
Vrollout
p147
aVmagnitude
p148
aVmud-sport
p149
aVrock-blast
p150
asg43
g44
sg45
Vrock-head
p151
sbag1
(g25
g3
Ntp152
Rp153
(dp154
g29
V074
p155
sg31
VGeodude
p156
sg33
g34
sg35
g36
sg37
(lp157
Vrollout
p158
aVmagnitude
p159
aVmud-sport
p160
aVrock-blast
p161
asg43
g44
sg45
Vsturdy
p162
sbasg59
I00
sg60
g61
sbag1
(g2
g3
Ntp163
Rp164
(dp165
g7
VSpr RS School Kid M.png
p166
sg9
VSchool Kid
p167
sg11
VJerry
p168
sg13
V200
p169
sg15
g107
sg17
g18
sg19
g20
sg21
g22
sg23
(lp170
g1
(g25
g3
Ntp171
Rp172
(dp173
g29
V280
p174
sg31
VRalts
p175
sg33
g34
sg35
V10
p176
sg37
(lp177
Vdream-eater
p178
aVfuture-sight
p179
aVimprison
p180
aVcalm-mind
p181
asg43
g44
sg45
Vsynchronize
p182
sbasg59
I00
sg60
g61
sbag1
(g2
g3
Ntp183
Rp184
(dp185
g7
VSpr RS School Kid F.png
p186
sg9
VSchool Kid
p187
sg11
VKaren
p188
sg13
V180
p189
sg15
g16
sg17
g18
sg19
g20
sg21
g22
sg23
(lp190
g1
(g25
g3
Ntp191
Rp192
(dp193
g29
V285
p194
sg31
VShroomish
p195
sg33
g114
sg35
V9
p196
sg37
(lp197
Vpoison-powder
p198
aVstun-spore
p199
aVspore
p200
aVgiga-drain
p201
asg43
g44
sg45
Veffect-spore
p202
sbag1
(g25
g3
Ntp203
Rp204
(dp205
g29
V293
p206
sg31
VWhismur
p207
sg33
g114
sg35
g196
sg37
(lp208
Vuproar
p209
aVhyper-voice
p210
aVastonish
p211
aVhowl
p212
asg43
g44
sg45
Vsoundproof
p213
sbasg59
I00
sg60
g61
sba.