(lp0
ccopy_reg
_reconstructor
p1
(c__main__
Trainer
p2
c__builtin__
object
p3
Ntp4
Rp5
(dp6
VtSprite
p7
VSpr RS Swimmer M.png
p8
sVtClass
p9
VSwimmer
p10
sVtName
p11
VBarry
p12
sVtMoney
p13
V280
p14
sVtPokeCount
p15
V1
p16
sVtLocation
p17
Vwiki/Hoenn_Route_126
p18
sVtRegion
p19
VHoenn
p20
sVtGame
p21
VRS
p22
sVtPokes
p23
(lp24
g1
(c__main__
FinishedPokemon
p25
g3
Ntp26
Rp27
(dp28
VpDexNo
p29
V130
p30
sVpSpecies
p31
VGyarados
p32
sVpGender
p33
VM
p34
sVpLevel
p35
V35
p36
sVpMoves
p37
(lp38
Vdragon-rage
p39
aVtwister
p40
aVrain-dance
p41
aVdragon-dance
p42
asVpHold
p43
V
p44
sVpAbility
p45
Vintimidate
p46
sbasVbossFlag
p47
I00
sVtLongGame
p48
Vruby-sapphire
p49
sbag1
(g2
g3
Ntp50
Rp51
(dp52
g7
VSpr RS Swimmer M.png
p53
sg9
VSwimmer
p54
sg11
VDean
p55
sg13
V264
p56
sg15
V3
p57
sg17
g18
sg19
g20
sg21
g22
sg23
(lp58
g1
(g25
g3
Ntp59
Rp60
(dp61
g29
V318
p62
sg31
VCarvanha
p63
sg33
g34
sg35
V33
p64
sg37
(lp65
Vfocus-energy
p66
aVscary-face
p67
aVswagger
p68
aVcrunch
p69
asg43
g44
sg45
Vrough-skin
p70
sbag1
(g25
g3
Ntp71
Rp72
(dp73
g29
V278
p74
sg31
VWingull
p75
sg33
g34
sg35
V33
p76
sg37
(lp77
Vwater-gun
p78
aVagility
p79
aVquick-attack
p80
aVpursuit
p81
asg43
g44
sg45
Vkeen-eye
p82
sbag1
(g25
g3
Ntp83
Rp84
(dp85
g29
V318
p86
sg31
VCarvanha
p87
sg33
g34
sg35
V33
p88
sg37
(lp89
Vfocus-energy
p90
aVscary-face
p91
aVswagger
p92
aVcrunch
p93
asg43
g44
sg45
Vrough-skin
p94
sbasg47
I00
sg48
g49
sbag1
(g2
g3
Ntp95
Rp96
(dp97
g7
VSpr RS Swimmer F.png
p98
sg9
VSwimmer
p99
sg11
VBrenda
p100
sg13
V280
p101
sg15
g16
sg17
g18
sg19
g20
sg21
g22
sg23
(lp102
g1
(g25
g3
Ntp103
Rp104
(dp105
g29
V118
p106
sg31
VGoldeen
p107
sg33
VF
p108
sg35
V35
p109
sg37
(lp110
Vagility
p111
aVwaterfall
p112
aVflail
p113
aVwater-sport
p114
asg43
g44
sg45
Vswift-swim
p115
sbasg47
I00
sg48
g49
sbag1
(g2
g3
Ntp116
Rp117
(dp118
g7
VSpr RS Swimmer F.png
p119
sg9
VSwimmer
p120
sg11
VNikki
p121
sg13
V256
p122
sg15
g57
sg17
g18
sg19
g20
sg21
g22
sg23
(lp123
g1
(g25
g3
Ntp124
Rp125
(dp126
g29
V183
p127
sg31
VMarill
p128
sg33
g108
sg35
V32
p129
sg37
(lp130
Vbubble-beam
p131
aVdefense-curl
p132
aVrollout
p133
aVrain-dance
p134
asg43
g44
sg45
Vhuge-power
p135
sbag1
(g25
g3
Ntp136
Rp137
(dp138
g29
V320
p139
sg31
VWailmer
p140
sg33
g108
sg35
V32
p141
sg37
(lp142
Vwhirlpool
p143
aVastonish
p144
aVwater-spout
p145
aVwater-pulse
p146
asg43
g44
sg45
Voblivious
p147
sbag1
(g25
g3
Ntp148
Rp149
(dp150
g29
V363
p151
sg31
VSpheal
p152
sg33
g108
sg35
V32
p153
sg37
(lp154
Vencore
p155
aVhail
p156
aVice-ball
p157
aVsheer-cold
p158
asg43
g44
sg45
Vthick-fat
p159
sbasg47
I00
sg48
g49
sbag1
(g2
g3
Ntp160
Rp161
(dp162
g7
VSpr RS Swimmer M.png
p163
sg9
VSwimmer
p164
sg11
VLeonardo
p165
sg13
V272<br><small>Potential [[Double Battle]] with Isobel</small>
p166
sg15
g16
sg17
g18
sg19
g20
sg21
g22
sg23
(lp167
g1
(g25
g3
Ntp168
Rp169
(dp170
g29
V318
p171
sg31
VCarvanha
p172
sg33
g34
sg35
V34
p173
sg37
(lp174
Vfocus-energy
p175
aVscary-face
p176
aVswagger
p177
aVcrunch
p178
asg43
g44
sg45
Vrough-skin
p179
sbasg47
I00
sg48
g49
sbag1
(g2
g3
Ntp180
Rp181
(dp182
g7
VSpr RS Triathlete Swimmer F.png
p183
sg9
VTriathlete
p184
sg11
VIsobel
p185
sg13
V1360<br><small>Potential [[Double Battle]] with Leonardo</small>
p186
sg15
g16
sg17
g18
sg19
g20
sg21
g22
sg23
(lp187
g1
(g25
g3
Ntp188
Rp189
(dp190
g29
V120
p191
sg31
VStaryu
p192
sg33
VU
p193
sg35
V34
p194
sg37
(lp195
Vswift
p196
aVrapid-spin
p197
aVcamouflage
p198
aVcosmic-power
p199
asg43
g44
sg45
Villuminate
p200
sbasg47
I00
sg48
g49
sbag1
(g2
g3
Ntp201
Rp202
(dp203
g7
VSpr RS Swimmer M.png
p204
sg9
VSwimmer
p205
sg11
VDean
p206
sg13
V248
p207
sg15
g57
sg17
g18
sg19
g20
sg21
g22
sg23
(lp208
g1
(g25
g3
Ntp209
Rp210
(dp211
g29
V318
p212
sg31
VCarvanha
p213
sg33
g34
sg35
V31
p214
sg37
(lp215
Vfocus-energy
p216
aVscary-face
p217
aVswagger
p218
aVcrunch
p219
asg43
g44
sg45
Vrough-skin
p220
sbag1
(g25
g3
Ntp221
Rp222
(dp223
g29
V278
p224
sg31
VWingull
p225
sg33
g34
sg35
V31
p226
sg37
(lp227
Vwater-gun
p228
aVagility
p229
aVquick-attack
p230
aVpursuit
p231
asg43
g44
sg45
Vkeen-eye
p232
sbag1
(g25
g3
Ntp233
Rp234
(dp235
g29
V318
p236
sg31
VCarvanha
p237
sg33
g34
sg35
V31
p238
sg37
(lp239
Vfocus-energy
p240
aVscary-face
p241
aVswagger
p242
aVcrunch
p243
asg43
g44
sg45
Vrough-skin
p244
sbasg47
I00
sg48
g49
sbag1
(g2
g3
Ntp245
Rp246
(dp247
g7
VSpr RS Swimmer F.png
p248
sg9
VSwimmer
p249
sg11
VNikki
p250
sg13
V264
p251
sg15
V2
p252
sg17
g18
sg19
g20
sg21
g22
sg23
(lp253
g1
(g25
g3
Ntp254
Rp255
(dp256
g29
V183
p257
sg31
VMarill
p258
sg33
g108
sg35
V33
p259
sg37
(lp260
Vbubble-beam
p261
aVdefense-curl
p262
aVrollout
p263
aVrain-dance
p264
asg43
g44
sg45
Vthick-fat
p265
sbag1
(g25
g3
Ntp266
Rp267
(dp268
g29
V363
p269
sg31
VSpheal
p270
sg33
g108
sg35
V33
p271
sg37
(lp272
Vencore
p273
aVhail
p274
aVice-ball
p275
aVsheer-cold
p276
asg43
g44
sg45
Vthick-fat
p277
sbasg47
I00
sg48
g49
sbag1
(g2
g3
Ntp278
Rp279
(dp280
g7
VSpr RS Swimmer M.png
p281
sg9
VSwimmer
p282
sg11
VBarry
p283
sg13
V272
p284
sg15
g16
sg17
g18
sg19
g20
sg21
g22
sg23
(lp285
g1
(g25
g3
Ntp286
Rp287
(dp288
g29
V130
p289
sg31
VGyarados
p290
sg33
g34
sg35
V34
p291
sg37
(lp292
Vdragon-rage
p293
aVtwister
p294
aVrain-dance
p295
aVdragon-dance
p296
asg43
g44
sg45
Vintimidate
p297
sbasg47
I00
sg48
g49
sbag1
(g2
g3
Ntp298
Rp299
(dp300
g7
VSpr RS Swimmer F.png
p301
sg9
VSwimmer
p302
sg11
VSienna
p303
sg13
V264<br><small>Potential [[Double Battle]] with Pablo</small>
p304
sg15
g252
sg17
g18
sg19
g20
sg21
g22
sg23
(lp305
g1
(g25
g3
Ntp306
Rp307
(dp308
g29
V370
p309
sg31
VLuvdisc
p310
sg33
g108
sg35
V33
p311
sg37
(lp312
Vsweet-kiss
p313
aVcharm
p314
aVattract
p315
aVsafeguard
p316
asg43
g44
sg45
Vswift-swim
p317
sbag1
(g25
g3
Ntp318
Rp319
(dp320
g29
V370
p321
sg31
VLuvdisc
p322
sg33
g108
sg35
V33
p323
sg37
(lp324
Vsweet-kiss
p325
aVcharm
p326
aVattract
p327
aVsafeguard
p328
asg43
g44
sg45
Vswift-swim
p329
sbasg47
I00
sg48
g49
sbag1
(g2
g3
Ntp330
Rp331
(dp332
g7
VSpr RS Triathlete Swimmer M.png
p333
sg9
VTriathlete
p334
sg11
VPablo
p335
sg13
V1320<br><small>Potential [[Double Battle]] with Sienna</small>
p336
sg15
g252
sg17
g18
sg19
g20
sg21
g22
sg23
(lp337
g1
(g25
g3
Ntp338
Rp339
(dp340
g29
V120
p341
sg31
VStaryu
p342
sg33
g193
sg35
V33
p343
sg37
(lp344
Vswift
p345
aVrapid-spin
p346
aVcamouflage
p347
aVcosmic-power
p348
asg43
g44
sg45
Vnatural-cure
p349
sbag1
(g25
g3
Ntp350
Rp351
(dp352
g29
V120
p353
sg31
VStaryu
p354
sg33
g193
sg35
V33
p355
sg37
(lp356
Vswift
p357
aVrapid-spin
p358
aVcamouflage
p359
aVcosmic-power
p360
asg43
g44
sg45
Villuminate
p361
sbasg47
I00
sg48
g49
sbag1
(g2
g3
Ntp362
Rp363
(dp364
g7
VSpr RS Swimmer F.png
p365
sg9
VSwimmer
p366
sg11
VBrenda
p367
sg13
V272
p368
sg15
g16
sg17
g18
sg19
g20
sg21
g22
sg23
(lp369
g1
(g25
g3
Ntp370
Rp371
(dp372
g29
V118
p373
sg31
VGoldeen
p374
sg33
g108
sg35
V34
p375
sg37
(lp376
Vagility
p377
aVwaterfall
p378
aVflail
p379
aVwater-sport
p380
asg43
g44
sg45
Vswift-swim
p381
sbasg47
I00
sg48
g49
sbag1
(g2
g3
Ntp382
Rp383
(dp384
g7
VSpr RS Triathlete Swimmer M.png
p385
sg9
VTriathlete
p386
sg11
VPablo{{tt|*|First rematch}}
p387
sg13
V1480
p388
sg15
g252
sg17
g18
sg19
g20
sg21
g22
sg23
(lp389
g1
(g25
g3
Ntp390
Rp391
(dp392
g29
V120
p393
sg31
VStaryu
p394
sg33
g193
sg35
V37
p395
sg37
(lp396
Vswift
p397
aVrapid-spin
p398
aVcamouflage
p399
aVcosmic-power
p400
asg43
g44
sg45
Villuminate
p401
sbag1
(g25
g3
Ntp402
Rp403
(dp404
g29
V120
p405
sg31
VStaryu
p406
sg33
g193
sg35
V37
p407
sg37
(lp408
Vswift
p409
aVrapid-spin
p410
aVcamouflage
p411
aVcosmic-power
p412
asg43
g44
sg45
Villuminate
p413
sbasg47
I00
sg48
g49
sbag1
(g2
g3
Ntp414
Rp415
(dp416
g7
VSpr RS Triathlete Swimmer M.png
p417
sg9
VTriathlete
p418
sg11
VPablo{{tt|*|Second rematch}}
p419
sg13
V1560
p420
sg15
g57
sg17
g18
sg19
g20
sg21
g22
sg23
(lp421
g1
(g25
g3
Ntp422
Rp423
(dp424
g29
V278
p425
sg31
VWingull
p426
sg33
g34
sg35
V39
p427
sg37
(lp428
Vwater-gun
p429
aVagility
p430
aVquick-attack
p431
aVpursuit
p432
asg43
g44
sg45
Vhydration
p433
sbag1
(g25
g3
Ntp434
Rp435
(dp436
g29
V120
p437
sg31
VStaryu
p438
sg33
g193
sg35
V39
p439
sg37
(lp440
Vswift
p441
aVrapid-spin
p442
aVcamouflage
p443
aVcosmic-power
p444
asg43
g44
sg45
Villuminate
p445
sbag1
(g25
g3
Ntp446
Rp447
(dp448
g29
V120
p449
sg31
VStaryu
p450
sg33
g193
sg35
V39
p451
sg37
(lp452
Vswift
p453
aVrapid-spin
p454
aVcamouflage
p455
aVcosmic-power
p456
asg43
g44
sg45
Vnatural-cure
p457
sbasg47
I00
sg48
g49
sbag1
(g2
g3
Ntp458
Rp459
(dp460
g7
VSpr RS Triathlete Swimmer M.png
p461
sg9
VTriathlete
p462
sg11
VPablo{{tt|*|Third rematch}}
p463
sg13
V1640
p464
sg15
g57
sg17
g18
sg19
g20
sg21
g22
sg23
(lp465
g1
(g25
g3
Ntp466
Rp467
(dp468
g29
V279
p469
sg31
VPelipper
p470
sg33
g34
sg35
V41
p471
sg37
(lp472
Vstockpile
p473
aVspit-up
p474
aVswallow
p475
aVwater-sport
p476
asg43
g44
sg45
Vdrizzle
p477
sbag1
(g25
g3
Ntp478
Rp479
(dp480
g29
V120
p481
sg31
VStaryu
p482
sg33
g193
sg35
V41
p483
sg37
(lp484
Vswift
p485
aVrapid-spin
p486
aVcamouflage
p487
aVcosmic-power
p488
asg43
g44
sg45
Villuminate
p489
sbag1
(g25
g3
Ntp490
Rp491
(dp492
g29
V120
p493
sg31
VStaryu
p494
sg33
g193
sg35
V41
p495
sg37
(lp496
Vswift
p497
aVrapid-spin
p498
aVcamouflage
p499
aVcosmic-power
p500
asg43
g44
sg45
Vnatural-cure
p501
sbasg47
I00
sg48
g49
sbag1
(g2
g3
Ntp502
Rp503
(dp504
g7
VSpr RS Triathlete Swimmer M.png
p505
sg9
VTriathlete
p506
sg11
VPablo{{tt|*|Fourth rematch onwards}}
p507
sg13
V1720
p508
sg15
g57
sg17
g18
sg19
g20
sg21
g22
sg23
(lp509
g1
(g25
g3
Ntp510
Rp511
(dp512
g29
V279
p513
sg31
VPelipper
p514
sg33
g34
sg35
V43
p515
sg37
(lp516
Vstockpile
p517
aVspit-up
p518
aVswallow
p519
aVwater-sport
p520
asg43
g44
sg45
Vkeen-eye
p521
sbag1
(g25
g3
Ntp522
Rp523
(dp524
g29
V121
p525
sg31
VStarmie
p526
sg33
g193
sg35
V43
p527
sg37
(lp528
Vrecover
p529
aVconfuse-ray
p530
aVswift
p531
aVrapid-spin
p532
asg43
g44
sg45
Villuminate
p533
sbag1
(g25
g3
Ntp534
Rp535
(dp536
g29
V121
p537
sg31
VStarmie
p538
sg33
g193
sg35
V43
p539
sg37
(lp540
Vrecover
p541
aVconfuse-ray
p542
aVswift
p543
aVrapid-spin
p544
asg43
g44
sg45
Villuminate
p545
sbasg47
I00
sg48
g49
sbag1
(g2
g3
Ntp546
Rp547
(dp548
g7
VVSTriathlete Swimmer.png
p549
sg9
VTriathlete
p550
sg11
VDenzel
p551
sg13
V1,560
p552
sg15
g16
sg17
g18
sg19
g20
sg21
VSM
p553
sg23
(lp554
g1
(g25
g3
Ntp555
Rp556
(dp557
g29
V184
p558
sg31
VAzumarill
p559
sg33
g34
sg35
V39
p560
sg37
(lp561
Vwater-sport
p562
aVaqua-ring
p563
aVaqua-tail
p564
aVplay-rough
p565
asg43
g44
sg45
Vthick-fat
p566
sbasg47
I00
sg48
Vsun-moon
p567
sbag1
(g2
g3
Ntp568
Rp569
(dp570
g7
VVSSwimmer M VI.png
p571
sg9
VSwimmer \u2642
p572
sg11
VBarry
p573
sg13
V624
p574
sg15
g16
sg17
g18
sg19
g20
sg21
VSM
p575
sg23
(lp576
g1
(g25
g3
Ntp577
Rp578
(dp579
g29
V130
p580
sg31
VGyarados
p581
sg33
g34
sg35
V39
p582
sg37
(lp583
Vdragon-dance
p584
aVaqua-tail
p585
aVice-fang
p586
aVhurricane
p587
asg43
g44
sg45
Vintimidate
p588
sbasg47
I00
sg48
g567
sbag1
(g2
g3
Ntp589
Rp590
(dp591
g7
VVSSwimmer F ORAS.png
p592
sg9
VSwimmer \u2640
p593
sg11
VBrenda
p594
sg13
V624
p595
sg15
g16
sg17
g18
sg19
g20
sg21
VSM
p596
sg23
(lp597
g1
(g25
g3
Ntp598
Rp599
(dp600
g29
V272
p601
sg31
VLudicolo
p602
sg33
g108
sg35
V39
p603
sg37
(lp604
Vgrowl
p605
aVmega-drain
p606
aVnature-power
p607
aVastonish
p608
asg43
g44
sg45
Vswift-swim
p609
sbasg47
I00
sg48
g567
sbag1
(g2
g3
Ntp610
Rp611
(dp612
g7
VVSAce Trainer M ORAS.png
p613
sg9
VAce Trainer
p614
sg11
VLeopold
p615
sg13
V2,340
p616
sg15
g252
sg17
g18
sg19
g20
sg21
VSM
p617
sg23
(lp618
g1
(g25
g3
Ntp619
Rp620
(dp621
g29
V329
p622
sg31
VVibrava
p623
sg33
g34
sg35
V39
p624
sg37
(lp625
Vbug-buzz
p626
aVearth-power
p627
aVbulldoze
p628
aVboomburst
p629
asg43
g44
sg45
Vlevitate
p630
sbag1
(g25
g3
Ntp631
Rp632
(dp633
g29
V112
p634
sg31
VRhydon
p635
sg33
g34
sg35
V39
p636
sg37
(lp637
Vsmack-down
p638
aVchip-away
p639
aVbulldoze
p640
aVdrill-run
p641
asg43
g44
sg45
Vrock-head
p642
sbasg47
I00
sg48
g567
sbag1
(g2
g3
Ntp643
Rp644
(dp645
g7
VVSAce Trainer F ORAS.png
p646
sg9
VAce Trainer
p647
sg11
VHarriet
p648
sg13
V2,460
p649
sg15
g16
sg17
g18
sg19
g20
sg21
VSM
p650
sg23
(lp651
g1
(g25
g3
Ntp652
Rp653
(dp654
g29
V169
p655
sg31
VCrobat
p656
sg33
g108
sg35
V41
p657
sg37
(lp658
Vair-slash
p659
aVcross-poison
p660
aVvenoshock
p661
aVquick-guard
p662
asg43
g44
sg45
Vinner-focus
p663
sbasg47
I00
sg48
g567
sbag1
(g2
g3
Ntp664
Rp665
(dp666
g7
VVSSwimmer M VI.png
p667
sg9
VSwimmer \u2642
p668
sg11
VDean
p669
sg13
V592
p670
sg15
g57
sg17
g18
sg19
g20
sg21
g575
sg23
(lp671
g1
(g25
g3
Ntp672
Rp673
(dp674
g29
V320
p675
sg31
VWailmer
p676
sg33
g34
sg35
V35
p677
sg37
(lp678
Vbounce
p679
aVwater-pulse
p680
aVbrine
p681
aVheavy-slam
p682
asg43
g44
sg45
Vwater-veil
p683
sbag1
(g25
g3
Ntp684
Rp685
(dp686
g29
V120
p687
sg31
VStaryu
p688
sg33
g193
sg35
V36
p689
sg37
(lp690
Vgyro-ball
p691
aVbrine
p692
aVpower-gem
p693
aVreflect-type
p694
asg43
g44
sg45
Vnatural-cure
p695
sbag1
(g25
g3
Ntp696
Rp697
(dp698
g29
V055
p699
sg31
VGolduck
p700
sg33
g34
sg35
V37
p701
sg37
(lp702
Vzen-headbutt
p703
aVaqua-jet
p704
aVwonder-room
p705
aVsoak
p706
asg43
g44
sg45
Vcloud-nine
p707
sbasg47
I00
sg48
g567
sbag1
(g2
g3
Ntp708
Rp709
(dp710
g7
VVSSwimmer F ORAS.png
p711
sg9
VSwimmer \u2640
p712
sg11
VNikki
p713
sg13
V608
p714
sg15
g252
sg17
g18
sg19
g20
sg21
g596
sg23
(lp715
g1
(g25
g3
Ntp716
Rp717
(dp718
g29
V370
p719
sg31
VLuvdisc
p720
sg33
g108
sg35
V36
p721
sg37
(lp722
Vcaptivate
p723
aVsoak
p724
aVheart-stamp
p725
aVdraining-kiss
p726
asg43
g44
sg45
Vswift-swim
p727
sbag1
(g25
g3
Ntp728
Rp729
(dp730
g29
V073
p731
sg31
VTentacruel
p732
sg33
g108
sg35
V38
p733
sg37
(lp734
Vsludge-wave
p735
aVacid-spray
p736
aVhex
p737
aVreflect-type
p738
asg43
g44
sg45
Vliquid-ooze
p739
sbasg47
I00
sg48
g567
sbag1
(g2
g3
Ntp740
Rp741
(dp742
g7
VVSScuba Diver.png
p743
sg9
VScuba Diver
p744
sg11
VYutaka
p745
sg13
V1,560
p746
sg15
g252
sg17
g18
sg19
g20
sg21
VSM
p747
sg23
(lp748
g1
(g25
g3
Ntp749
Rp750
(dp751
g29
V279
p752
sg31
VPelipper
p753
sg33
g34
sg35
V39
p754
sg37
(lp755
Vfling
p756
aVsoak
p757
aVhurricane
p758
ag758
asg43
g44
sg45
Vkeen-eye
p759
sbag1
(g25
g3
Ntp760
Rp761
(dp762
g29
V171
p763
sg31
VLanturn
p764
sg33
g34
sg35
V39
p765
sg37
(lp766
Velectro-ball
p767
ag767
aVion-deluge
p768
aVeerie-impulse
p769
asg43
g44
sg45
Villuminate
p770
sbasg47
I00
sg48
g567
sbag1
(g2
g3
Ntp771
Rp772
(dp773
g7
VVSScuba Diver.png
p774
sg9
VScuba Diver
p775
sg11
VTristan
p776
sg13
V1,640
p777
sg15
g16
sg17
g18
sg19
g20
sg21
g747
sg23
(lp778
g1
(g25
g3
Ntp779
Rp780
(dp781
g29
V321
p782
sg31
VWailord
p783
sg33
g34
sg35
V41
p784
sg37
(lp785
Vheavy-slam
p786
ag786
aVsoak
p787
aVnoble-roar
p788
asg43
g44
sg45
Vwater-veil
p789
sbasg47
I00
sg48
g567
sbag1
(g2
g3
Ntp790
Rp791
(dp792
g7
VVSFree Diver.png
p793
sg9
VFree Diver
p794
sg11
VJillian
p795
sg13
V1,640
p796
sg15
g16
sg17
g18
sg19
g20
sg21
VSM
p797
sg23
(lp798
g1
(g25
g3
Ntp799
Rp800
(dp801
g29
V184
p802
sg31
VAzumarill
p803
sg33
g108
sg35
V41
p804
sg37
(lp805
Vwater-sport
p806
aVaqua-ring
p807
aVaqua-tail
p808
aVplay-rough
p809
asg43
g44
sg45
Vthick-fat
p810
sbasg47
I00
sg48
g567
sba.