(lp0
ccopy_reg
_reconstructor
p1
(c__main__
Trainer
p2
c__builtin__
object
p3
Ntp4
Rp5
(dp6
VtSprite
p7
VSpr RS Fisherman.png
p8
sVtClass
p9
VFisherman
p10
sVtName
p11
VNed
p12
sVtMoney
p13
V480
p14
sVtPokeCount
p15
V1
p16
sVtLocation
p17
Vwiki/Hoenn_Route_106
p18
sVtRegion
p19
VHoenn
p20
sVtGame
p21
VRS
p22
sVtPokes
p23
(lp24
g1
(c__main__
FinishedPokemon
p25
g3
Ntp26
Rp27
(dp28
VpDexNo
p29
V072
p30
sVpSpecies
p31
VTentacool
p32
sVpGender
p33
VM
p34
sVpLevel
p35
V12
p36
sVpMoves
p37
(lp38
Vbubble-beam
p39
aVscreech
p40
aVbarrier
p41
aVconstrict
p42
asVpHold
p43
V
p44
sVpAbility
p45
Vclear-body
p46
sbasVbossFlag
p47
I00
sVtLongGame
p48
Vruby-sapphire
p49
sbag1
(g2
g3
Ntp50
Rp51
(dp52
g7
VSpr RS Fisherman.png
p53
sg9
VFisherman
p54
sg11
VElliot
p55
sg13
V440
p56
sg15
V3
p57
sg17
g18
sg19
g20
sg21
g22
sg23
(lp58
g1
(g25
g3
Ntp59
Rp60
(dp61
g29
V129
p62
sg31
VMagikarp
p63
sg33
g34
sg35
V11
p64
sg37
(lp65
Vtackle
p66
aVsplash
p67
aVflail
p68
asg43
g44
sg45
Vswift-swim
p69
sbag1
(g25
g3
Ntp70
Rp71
(dp72
g29
V072
p73
sg31
VTentacool
p74
sg33
g34
sg35
V8
p75
sg37
(lp76
Vbubble-beam
p77
aVscreech
p78
aVbarrier
p79
aVconstrict
p80
asg43
g44
sg45
Vliquid-ooze
p81
sbag1
(g25
g3
Ntp82
Rp83
(dp84
g29
V129
p85
sg31
VMagikarp
p86
sg33
g34
sg35
V11
p87
sg37
(lp88
Vtackle
p89
aVsplash
p90
aVflail
p91
asg43
g44
sg45
Vswift-swim
p92
sbasg47
I00
sg48
g49
sbag1
(g2
g3
Ntp93
Rp94
(dp95
g7
VSpr RS Swimmer M.png
p96
sg9
VSwimmer
p97
sg11
VDouglas
p98
sg13
V208
p99
sg15
V2
p100
sg17
g18
sg19
g20
sg21
g22
sg23
(lp101
g1
(g25
g3
Ntp102
Rp103
(dp104
g29
V072
p105
sg31
VTentacool
p106
sg33
g34
sg35
V26
p107
sg37
(lp108
Vbubble-beam
p109
aVscreech
p110
aVbarrier
p111
aVconstrict
p112
asg43
g44
sg45
Vclear-body
p113
sbag1
(g25
g3
Ntp114
Rp115
(dp116
g29
V072
p117
sg31
VTentacool
p118
sg33
g34
sg35
V26
p119
sg37
(lp120
Vbubble-beam
p121
aVscreech
p122
aVbarrier
p123
aVconstrict
p124
asg43
g44
sg45
Vliquid-ooze
p125
sbasg47
I00
sg48
g49
sbag1
(g2
g3
Ntp126
Rp127
(dp128
g7
VSpr RS Swimmer F.png
p129
sg9
VSwimmer
p130
sg11
VNicole
p131
sg13
V216
p132
sg15
g16
sg17
g18
sg19
g20
sg21
g22
sg23
(lp133
g1
(g25
g3
Ntp134
Rp135
(dp136
g29
V320
p137
sg31
VWailmer
p138
sg33
VF
p139
sg35
V27
p140
sg37
(lp141
Vwhirlpool
p142
aVastonish
p143
aVwater-spout
p144
aVwater-pulse
p145
asg43
g44
sg45
Vwater-veil
p146
sbasg47
I00
sg48
g49
sbag1
(g2
g3
Ntp147
Rp148
(dp149
g7
VSpr RS Fisherman.png
p150
sg9
VFisherman
p151
sg11
VElliot{{tt|*|First rematch}}
p152
sg13
V1080
p153
sg15
g57
sg17
g18
sg19
g20
sg21
g22
sg23
(lp154
g1
(g25
g3
Ntp155
Rp156
(dp157
g29
V072
p158
sg31
VTentacool
p159
sg33
g34
sg35
V24
p160
sg37
(lp161
Vbubble-beam
p162
aVscreech
p163
aVbarrier
p164
aVconstrict
p165
asg43
g44
sg45
Vclear-body
p166
sbag1
(g25
g3
Ntp167
Rp168
(dp169
g29
V130
p170
sg31
VGyarados
p171
sg33
g34
sg35
V27
p172
sg37
(lp173
Vdragon-rage
p174
aVtwister
p175
aVrain-dance
p176
aVdragon-dance
p177
asg43
g44
sg45
Vintimidate
p178
sbag1
(g25
g3
Ntp179
Rp180
(dp181
g29
V130
p182
sg31
VGyarados
p183
sg33
g34
sg35
V27
p184
sg37
(lp185
Vdragon-rage
p186
aVtwister
p187
aVrain-dance
p188
aVdragon-dance
p189
asg43
g44
sg45
Vintimidate
p190
sbasg47
I00
sg48
g49
sbag1
(g2
g3
Ntp191
Rp192
(dp193
g7
VSpr RS Fisherman.png
p194
sg9
VFisherman
p195
sg11
VElliot{{tt|*|Second rematch}}
p196
sg13
V1160
p197
sg15
V4
p198
sg17
g18
sg19
g20
sg21
g22
sg23
(lp199
g1
(g25
g3
Ntp200
Rp201
(dp202
g29
V130
p203
sg31
VGyarados
p204
sg33
g34
sg35
V29
p205
sg37
(lp206
Vdragon-rage
p207
aVtwister
p208
aVrain-dance
p209
aVdragon-dance
p210
asg43
g44
sg45
Vintimidate
p211
sbag1
(g25
g3
Ntp212
Rp213
(dp214
g29
V072
p215
sg31
VTentacool
p216
sg33
g34
sg35
V26
p217
sg37
(lp218
Vbubble-beam
p219
aVscreech
p220
aVbarrier
p221
aVconstrict
p222
asg43
g44
sg45
Vliquid-ooze
p223
sbag1
(g25
g3
Ntp224
Rp225
(dp226
g29
V318
p227
sg31
VCarvanha
p228
sg33
g34
sg35
V26
p229
sg37
(lp230
Vfocus-energy
p231
aVscary-face
p232
aVswagger
p233
aVcrunch
p234
asg43
g44
sg45
Vrough-skin
p235
sbag1
(g25
g3
Ntp236
Rp237
(dp238
g29
V130
p239
sg31
VGyarados
p240
sg33
g34
sg35
V29
p241
sg37
(lp242
Vdragon-rage
p243
aVtwister
p244
aVrain-dance
p245
aVdragon-dance
p246
asg43
g44
sg45
Vintimidate
p247
sbasg47
I00
sg48
g49
sbag1
(g2
g3
Ntp248
Rp249
(dp250
g7
VSpr RS Fisherman.png
p251
sg9
VFisherman
p252
sg11
VElliot{{tt|*|Third rematch}}
p253
sg13
V1240
p254
sg15
g198
sg17
g18
sg19
g20
sg21
g22
sg23
(lp255
g1
(g25
g3
Ntp256
Rp257
(dp258
g29
V130
p259
sg31
VGyarados
p260
sg33
g34
sg35
V31
p261
sg37
(lp262
Vdragon-rage
p263
aVtwister
p264
aVrain-dance
p265
aVdragon-dance
p266
asg43
g44
sg45
Vintimidate
p267
sbag1
(g25
g3
Ntp268
Rp269
(dp270
g29
V073
p271
sg31
VTentacruel
p272
sg33
g34
sg35
V30
p273
sg37
(lp274
Vscreech
p275
aVbarrier
p276
aVconstrict
p277
ag277
asg43
g44
sg45
Vclear-body
p278
sbag1
(g25
g3
Ntp279
Rp280
(dp281
g29
V318
p282
sg31
VCarvanha
p283
sg33
g34
sg35
V30
p284
sg37
(lp285
Vfocus-energy
p286
aVscary-face
p287
aVswagger
p288
aVcrunch
p289
asg43
g44
sg45
Vrough-skin
p290
sbag1
(g25
g3
Ntp291
Rp292
(dp293
g29
V130
p294
sg31
VGyarados
p295
sg33
g34
sg35
V31
p296
sg37
(lp297
Vdragon-rage
p298
aVtwister
p299
aVrain-dance
p300
aVdragon-dance
p301
asg43
g44
sg45
Vintimidate
p302
sbasg47
I00
sg48
g49
sbag1
(g2
g3
Ntp303
Rp304
(dp305
g7
VSpr RS Fisherman.png
p306
sg9
VFisherman
p307
sg11
VElliot{{tt|*|Fourth rematch onwards}}
p308
sg13
V1320
p309
sg15
g198
sg17
g18
sg19
g20
sg21
g22
sg23
(lp310
g1
(g25
g3
Ntp311
Rp312
(dp313
g29
V130
p314
sg31
VGyarados
p315
sg33
g34
sg35
V33
p316
sg37
(lp317
Vdragon-rage
p318
aVtwister
p319
aVrain-dance
p320
aVdragon-dance
p321
asg43
g44
sg45
Vintimidate
p322
sbag1
(g25
g3
Ntp323
Rp324
(dp325
g29
V073
p326
sg31
VTentacruel
p327
sg33
g34
sg35
V35
p328
sg37
(lp329
Vscreech
p330
aVbarrier
p331
aVconstrict
p332
ag332
asg43
g44
sg45
Vclear-body
p333
sbag1
(g25
g3
Ntp334
Rp335
(dp336
g29
V319
p337
sg31
VSharpedo
p338
sg33
g34
sg35
V33
p339
sg37
(lp340
Vscary-face
p341
aVswagger
p342
aVcrunch
p343
aVtaunt
p344
asg43
g44
sg45
Vrough-skin
p345
sbag1
(g25
g3
Ntp346
Rp347
(dp348
g29
V130
p349
sg31
VGyarados
p350
sg33
g34
sg35
V33
p351
sg37
(lp352
Vdragon-rage
p353
aVtwister
p354
aVrain-dance
p355
aVdragon-dance
p356
asg43
g44
sg45
Vintimidate
p357
sbasg47
I00
sg48
g49
sbag1
(g2
g3
Ntp358
Rp359
(dp360
g7
VSpr RS Fisherman.png
p361
sg9
VFisherman
p362
sg11
VNed
p363
sg13
V440
p364
sg15
g16
sg17
g18
sg19
g20
sg21
g22
sg23
(lp365
g1
(g25
g3
Ntp366
Rp367
(dp368
g29
V072
p369
sg31
VTentacool
p370
sg33
g34
sg35
V11
p371
sg37
(lp372
Vbubble-beam
p373
aVscreech
p374
aVbarrier
p375
aVconstrict
p376
asg43
g44
sg45
Vclear-body
p377
sbasg47
I00
sg48
g49
sbag1
(g2
g3
Ntp378
Rp379
(dp380
g7
VSpr RS Fisherman.png
p381
sg9
VFisherman
p382
sg11
VElliot
p383
sg13
V400
p384
sg15
g57
sg17
g18
sg19
g20
sg21
g22
sg23
(lp385
g1
(g25
g3
Ntp386
Rp387
(dp388
g29
V129
p389
sg31
VMagikarp
p390
sg33
g34
sg35
V10
p391
sg37
(lp392
Vtackle
p393
aVsplash
p394
aVflail
p395
asg43
g44
sg45
Vswift-swim
p396
sbag1
(g25
g3
Ntp397
Rp398
(dp399
g29
V072
p400
sg31
VTentacool
p401
sg33
g34
sg35
V7
p402
sg37
(lp403
Vbubble-beam
p404
aVscreech
p405
aVbarrier
p406
aVconstrict
p407
asg43
g44
sg45
Vliquid-ooze
p408
sbag1
(g25
g3
Ntp409
Rp410
(dp411
g29
V129
p412
sg31
VMagikarp
p413
sg33
g34
sg35
V10
p414
sg37
(lp415
Vtackle
p416
aVsplash
p417
aVflail
p418
asg43
g44
sg45
Vswift-swim
p419
sbasg47
I00
sg48
g49
sbag1
(g2
g3
Ntp420
Rp421
(dp422
g7
VSpr RS Swimmer M.png
p423
sg9
VSwimmer
p424
sg11
VDouglas
p425
sg13
V192
p426
sg15
g100
sg17
g18
sg19
g20
sg21
g22
sg23
(lp427
g1
(g25
g3
Ntp428
Rp429
(dp430
g29
V072
p431
sg31
VTentacool
p432
sg33
g34
sg35
V24
p433
sg37
(lp434
Vbubble-beam
p435
aVscreech
p436
aVbarrier
p437
aVconstrict
p438
asg43
g44
sg45
Vliquid-ooze
p439
sbag1
(g25
g3
Ntp440
Rp441
(dp442
g29
V072
p443
sg31
VTentacool
p444
sg33
g34
sg35
V24
p445
sg37
(lp446
Vbubble-beam
p447
aVscreech
p448
aVbarrier
p449
aVconstrict
p450
asg43
g44
sg45
Vliquid-ooze
p451
sbasg47
I00
sg48
g49
sbag1
(g2
g3
Ntp452
Rp453
(dp454
g7
VSpr RS Swimmer F.png
p455
sg9
VSwimmer
p456
sg11
VKyla
p457
sg13
V208
p458
sg15
g16
sg17
g18
sg19
g20
sg21
g22
sg23
(lp459
g1
(g25
g3
Ntp460
Rp461
(dp462
g29
V320
p463
sg31
VWailmer
p464
sg33
g139
sg35
V26
p465
sg37
(lp466
Vwhirlpool
p467
aVastonish
p468
aVwater-spout
p469
aVwater-pulse
p470
asg43
g44
sg45
Vwater-veil
p471
sbasg47
I00
sg48
g49
sbag1
(g2
g3
Ntp472
Rp473
(dp474
g7
VSpr RS Fisherman.png
p475
sg9
VFisherman
p476
sg11
VElliot{{tt|*|First rematch}}
p477
sg13
V1080
p478
sg15
g57
sg17
g18
sg19
g20
sg21
g22
sg23
(lp479
g1
(g25
g3
Ntp480
Rp481
(dp482
g29
V072
p483
sg31
VTentacool
p484
sg33
g34
sg35
V24
p485
sg37
(lp486
Vbubble-beam
p487
aVscreech
p488
aVbarrier
p489
aVconstrict
p490
asg43
g44
sg45
Vclear-body
p491
sbag1
(g25
g3
Ntp492
Rp493
(dp494
g29
V130
p495
sg31
VGyarados
p496
sg33
g34
sg35
V27
p497
sg37
(lp498
Vdragon-rage
p499
aVtwister
p500
aVrain-dance
p501
aVdragon-dance
p502
asg43
g44
sg45
Vintimidate
p503
sbag1
(g25
g3
Ntp504
Rp505
(dp506
g29
V130
p507
sg31
VGyarados
p508
sg33
g34
sg35
V27
p509
sg37
(lp510
Vdragon-rage
p511
aVtwister
p512
aVrain-dance
p513
aVdragon-dance
p514
asg43
g44
sg45
Vintimidate
p515
sbasg47
I00
sg48
g49
sbag1
(g2
g3
Ntp516
Rp517
(dp518
g7
VSpr RS Fisherman.png
p519
sg9
VFisherman
p520
sg11
VElliot{{tt|*|Second rematch}}
p521
sg13
V1160
p522
sg15
g198
sg17
g18
sg19
g20
sg21
g22
sg23
(lp523
g1
(g25
g3
Ntp524
Rp525
(dp526
g29
V130
p527
sg31
VGyarados
p528
sg33
g34
sg35
V29
p529
sg37
(lp530
Vdragon-rage
p531
aVtwister
p532
aVrain-dance
p533
aVdragon-dance
p534
asg43
g44
sg45
Vintimidate
p535
sbag1
(g25
g3
Ntp536
Rp537
(dp538
g29
V318
p539
sg31
VCarvanha
p540
sg33
g34
sg35
V26
p541
sg37
(lp542
Vfocus-energy
p543
aVscary-face
p544
aVswagger
p545
aVcrunch
p546
asg43
g44
sg45
Vrough-skin
p547
sbag1
(g25
g3
Ntp548
Rp549
(dp550
g29
V072
p551
sg31
VTentacool
p552
sg33
g34
sg35
V26
p553
sg37
(lp554
Vbubble-beam
p555
aVscreech
p556
aVbarrier
p557
aVconstrict
p558
asg43
g44
sg45
Vliquid-ooze
p559
sbag1
(g25
g3
Ntp560
Rp561
(dp562
g29
V130
p563
sg31
VGyarados
p564
sg33
g34
sg35
V29
p565
sg37
(lp566
Vdragon-rage
p567
aVtwister
p568
aVrain-dance
p569
aVdragon-dance
p570
asg43
g44
sg45
Vintimidate
p571
sbasg47
I00
sg48
g49
sbag1
(g2
g3
Ntp572
Rp573
(dp574
g7
VSpr RS Fisherman.png
p575
sg9
VFisherman
p576
sg11
VElliot{{tt|*|Third rematch}}
p577
sg13
V1240
p578
sg15
g198
sg17
g18
sg19
g20
sg21
g22
sg23
(lp579
g1
(g25
g3
Ntp580
Rp581
(dp582
g29
V130
p583
sg31
VGyarados
p584
sg33
g34
sg35
V31
p585
sg37
(lp586
Vdragon-rage
p587
aVtwister
p588
aVrain-dance
p589
aVdragon-dance
p590
asg43
g44
sg45
Vintimidate
p591
sbag1
(g25
g3
Ntp592
Rp593
(dp594
g29
V318
p595
sg31
VCarvanha
p596
sg33
g34
sg35
V30
p597
sg37
(lp598
Vfocus-energy
p599
aVscary-face
p600
aVswagger
p601
aVcrunch
p602
asg43
g44
sg45
Vrough-skin
p603
sbag1
(g25
g3
Ntp604
Rp605
(dp606
g29
V073
p607
sg31
VTentacruel
p608
sg33
g34
sg35
V30
p609
sg37
(lp610
Vscreech
p611
aVbarrier
p612
aVconstrict
p613
ag613
asg43
g44
sg45
Vliquid-ooze
p614
sbag1
(g25
g3
Ntp615
Rp616
(dp617
g29
V130
p618
sg31
VGyarados
p619
sg33
g34
sg35
V31
p620
sg37
(lp621
Vdragon-rage
p622
aVtwister
p623
aVrain-dance
p624
aVdragon-dance
p625
asg43
g44
sg45
Vintimidate
p626
sbasg47
I00
sg48
g49
sbag1
(g2
g3
Ntp627
Rp628
(dp629
g7
VSpr RS Fisherman.png
p630
sg9
VFisherman
p631
sg11
VElliot{{tt|*|Fourth rematch onwards}}
p632
sg13
V1400
p633
sg15
g198
sg17
g18
sg19
g20
sg21
g22
sg23
(lp634
g1
(g25
g3
Ntp635
Rp636
(dp637
g29
V130
p638
sg31
VGyarados
p639
sg33
g34
sg35
V33
p640
sg37
(lp641
Vdragon-rage
p642
aVtwister
p643
aVrain-dance
p644
aVdragon-dance
p645
asg43
g44
sg45
Vintimidate
p646
sbag1
(g25
g3
Ntp647
Rp648
(dp649
g29
V319
p650
sg31
VSharpedo
p651
sg33
g34
sg35
V33
p652
sg37
(lp653
Vscary-face
p654
aVswagger
p655
aVcrunch
p656
aVtaunt
p657
asg43
g44
sg45
Vrough-skin
p658
sbag1
(g25
g3
Ntp659
Rp660
(dp661
g29
V130
p662
sg31
VGyarados
p663
sg33
g34
sg35
V33
p664
sg37
(lp665
Vdragon-rage
p666
aVtwister
p667
aVrain-dance
p668
aVdragon-dance
p669
asg43
g44
sg45
Vintimidate
p670
sbag1
(g25
g3
Ntp671
Rp672
(dp673
g29
V073
p674
sg31
VTentacruel
p675
sg33
g34
sg35
V35
p676
sg37
(lp677
Vscreech
p678
aVbarrier
p679
aVconstrict
p680
ag680
asg43
g44
sg45
Vliquid-ooze
p681
sbasg47
I00
sg48
g49
sbag1
(g2
g3
Ntp682
Rp683
(dp684
g7
VVSFisherman ORAS.png
p685
sg9
VFisherman
p686
sg11
VNed
p687
sg13
V416
p688
sg15
g16
sg17
g18
sg19
g20
sg21
VSM
p689
sg23
(lp690
g1
(g25
g3
Ntp691
Rp692
(dp693
g29
V072
p694
sg31
VTentacool
p695
sg33
g34
sg35
V13
p696
sg37
(lp697
Vpoison-jab
p698
aVsludge-wave
p699
aVacid-spray
p700
aVhex
p701
asg43
g44
sg45
Vclear-body
p702
sbasg47
I00
sg48
Vsun-moon
p703
sbag1
(g2
g3
Ntp704
Rp705
(dp706
g7
VVSBackpacker.png
p707
sg9
VBackpacker
p708
sg11
VGraeme
p709
sg13
V312
p710
sg15
g16
sg17
g18
sg19
g20
sg21
g689
sg23
(lp711
g1
(g25
g3
Ntp712
Rp713
(dp714
g29
V287
p715
sg31
VSlakoth
p716
sg33
g34
sg35
V13
p717
sg37
(lp718
Vslack-off
p719
aVcovet
p720
aVchip-away
p721
aVplay-rough
p722
asg43
g44
sg45
Vtruant
p723
sbasg47
I00
sg48
g703
sbag1
(g2
g3
Ntp724
Rp725
(dp726
g7
VVSFisherman ORAS.png
p727
sg9
VFisherman
p728
sg11
VElliot
p729
sg13
V384
p730
sg15
g100
sg17
g18
sg19
g20
sg21
g689
sg23
(lp731
g1
(g25
g3
Ntp732
Rp733
(dp734
g29
V129
p735
sg31
VMagikarp
p736
sg33
g34
sg35
V10
p737
sg37
(lp738
Vtackle
p739
aVsplash
p740
aVflail
p741
asg43
g44
sg45
Vswift-swim
p742
sbag1
(g25
g3
Ntp743
Rp744
(dp745
g29
V072
p746
sg31
VTentacool
p747
sg33
g34
sg35
V12
p748
sg37
(lp749
Vpoison-jab
p750
aVsludge-wave
p751
aVacid-spray
p752
aVhex
p753
asg43
g44
sg45
Vclear-body
p754
sbasg47
I00
sg48
g703
sbag1
(g2
g3
Ntp755
Rp756
(dp757
g7
VVSSwimmer F ORAS.png
p758
sg9
VSwimmer \u2640
p759
sg11
VNicole
p760
sg13
V432
p761
sg15
g16
sg17
g18
sg19
g20
sg21
g689
sg23
(lp762
g1
(g25
g3
Ntp763
Rp764
(dp765
g29
V118
p766
sg31
VGoldeen
p767
sg33
g139
sg35
V27
p768
sg37
(lp769
Vwater-sport
p770
aVwater-pulse
p771
aVaqua-ring
p772
aVsoak
p773
asg43
g44
sg45
Vswift-swim
p774
sbasg47
I00
sg48
g703
sbag1
(g2
g3
Ntp775
Rp776
(dp777
g7
VVSSwimmer M VI.png
p778
sg9
VSwimmer \u2642
p779
sg11
VDouglas
p780
sg13
V432
p781
sg15
g16
sg17
g18
sg19
g20
sg21
g689
sg23
(lp782
g1
(g25
g3
Ntp783
Rp784
(dp785
g29
V130
p786
sg31
VGyarados
p787
sg33
g34
sg35
V27
p788
sg37
(lp789
Vdragon-dance
p790
aVaqua-tail
p791
aVice-fang
p792
aVhurricane
p793
asg43
g44
sg45
Vintimidate
p794
sbasg47
I00
sg48
g703
sbag1
(g2
g3
Ntp795
Rp796
(dp797
g7
VVSTriathlete Swimmer.png
p798
sg9
VTriathlete
p799
sg11
VCaleb
p800
sg13
V1080
p801
sg15
g16
sg17
g18
sg19
g20
sg21
g689
sg23
(lp802
g1
(g25
g3
Ntp803
Rp804
(dp805
g29
V320
p806
sg31
VWailmer
p807
sg33
g34
sg35
V27
p808
sg37
(lp809
Vbounce
p810
aVwater-pulse
p811
aVbrine
p812
aVheavy-slam
p813
asg43
g44
sg45
Voblivious
p814
sbasg47
I00
sg48
g703
sbag1
(g2
g3
Ntp815
Rp816
(dp817
g7
VVSBackpacker.png
p818
sg9
VBackpacker
p819
sg11
VGraeme
p820
sg13
V408<br><small>After earning the {{badge|Dynamo}}</small>
p821
sg15
g16
sg17
g18
sg19
g20
sg21
g689
sg23
(lp822
g1
(g25
g3
Ntp823
Rp824
(dp825
g29
V287
p826
sg31
VSlakoth
p827
sg33
g34
sg35
V17
p828
sg37
(lp829
Vslack-off
p830
aVcovet
p831
aVchip-away
p832
aVplay-rough
p833
asg43
g44
sg45
Vtruant
p834
sbasg47
I00
sg48
g703
sbag1
(g2
g3
Ntp835
Rp836
(dp837
g7
VVSBackpacker.png
p838
sg9
VBackpacker
p839
sg11
VGraeme
p840
sg13
V648<br><small>After earning the {{badge|Heat}}</small>
p841
sg15
g16
sg17
g18
sg19
g20
sg21
g689
sg23
(lp842
g1
(g25
g3
Ntp843
Rp844
(dp845
g29
V288
p846
sg31
VVigoroth
p847
sg33
g34
sg35
V27
p848
sg37
(lp849
Vuproar
p850
ag850
aVfocus-punch
p851
aVchip-away
p852
asg43
g44
sg45
Vvital-spirit
p853
sbasg47
I00
sg48
g703
sbag1
(g2
g3
Ntp854
Rp855
(dp856
g7
VVSBackpacker.png
p857
sg9
VBackpacker
p858
sg11
VGraeme
p859
sg13
V816<br><small>After earning the {{badge|Feather}}</small>
p860
sg15
g16
sg17
g18
sg19
g20
sg21
g689
sg23
(lp861
g1
(g25
g3
Ntp862
Rp863
(dp864
g29
V288
p865
sg31
VVigoroth
p866
sg33
g34
sg35
V34
p867
sg37
(lp868
Vuproar
p869
ag869
aVfocus-punch
p870
aVchip-away
p871
asg43
g44
sg45
Vvital-spirit
p872
sbasg47
I00
sg48
g703
sbag1
(g2
g3
Ntp873
Rp874
(dp875
g7
VVSBackpacker.png
p876
sg9
VBackpacker
p877
sg11
VGraeme
p878
sg13
V1,224<br><small>After entering the [[Hall of Fame]]</small>
p879
sg15
g16
sg17
g18
sg19
g20
sg21
g689
sg23
(lp880
g1
(g25
g3
Ntp881
Rp882
(dp883
g29
V289
p884
sg31
VSlaking
p885
sg33
g34
sg35
V51
p886
sg37
(lp887
Vfling
p888
aVpunishment
p889
ag889
aVchip-away
p890
asg43
g44
sg45
Vtruant
p891
sbasg47
I00
sg48
g703
sbag1
(g2
g3
Ntp892
Rp893
(dp894
g7
VVSFisherman ORAS.png
p895
sg9
VFisherman
p896
sg11
VElliot
p897
sg13
V448<br><small>After earning the {{badge|Knuckle}}</small>
p898
sg15
g100
sg17
g18
sg19
g20
sg21
g689
sg23
(lp899
g1
(g25
g3
Ntp900
Rp901
(dp902
g29
V129
p903
sg31
VMagikarp
p904
sg33
g34
sg35
V12
p905
sg37
(lp906
Vtackle
p907
aVsplash
p908
aVflail
p909
asg43
g44
sg45
Vswift-swim
p910
sbag1
(g25
g3
Ntp911
Rp912
(dp913
g29
V072
p914
sg31
VTentacool
p915
sg33
g34
sg35
V14
p916
sg37
(lp917
Vpoison-jab
p918
aVsludge-wave
p919
aVacid-spray
p920
aVhex
p921
asg43
g44
sg45
Vliquid-ooze
p922
sbasg47
I00
sg48
g703
sbag1
(g2
g3
Ntp923
Rp924
(dp925
g7
VVSFisherman ORAS.png
p926
sg9
VFisherman
p927
sg11
VElliot
p928
sg13
V896<br><small>After earning the {{badge|Balance}}</small>
p929
sg15
g100
sg17
g18
sg19
g20
sg21
g689
sg23
(lp930
g1
(g25
g3
Ntp931
Rp932
(dp933
g29
V072
p934
sg31
VTentacool
p935
sg33
g34
sg35
V26
p936
sg37
(lp937
Vpoison-jab
p938
aVsludge-wave
p939
aVacid-spray
p940
aVhex
p941
asg43
g44
sg45
Vliquid-ooze
p942
sbag1
(g25
g3
Ntp943
Rp944
(dp945
g29
V130
p946
sg31
VGyarados
p947
sg33
g34
sg35
V28
p948
sg37
(lp949
Vdragon-dance
p950
aVaqua-tail
p951
aVice-fang
p952
aVhurricane
p953
asg43
g44
sg45
Vintimidate
p954
sbasg47
I00
sg48
g703
sbag1
(g2
g3
Ntp955
Rp956
(dp957
g7
VVSFisherman ORAS.png
p958
sg9
VFisherman
p959
sg11
VElliot
p960
sg13
V1,248<br><small>After earning the {{badge|Mind}}</small>
p961
sg15
g57
sg17
g18
sg19
g20
sg21
g689
sg23
(lp962
g1
(g25
g3
Ntp963
Rp964
(dp965
g29
V073
p966
sg31
VTentacruel
p967
sg33
g34
sg35
V37
p968
sg37
(lp969
Vsludge-wave
p970
aVacid-spray
p971
aVhex
p972
aVreflect-type
p973
asg43
g44
sg45
Vclear-body
p974
sbag1
(g25
g3
Ntp975
Rp976
(dp977
g29
V340
p978
sg31
VWhiscash
p979
sg33
g34
sg35
V38
p980
sg37
(lp981
Vaqua-tail
p982
aVmud-bomb
p983
aVzen-headbutt
p984
aVbelch
p985
asg43
g44
sg45
Vanticipation
p986
sbag1
(g25
g3
Ntp987
Rp988
(dp989
g29
V130
p990
sg31
VGyarados
p991
sg33
g34
sg35
V39
p992
sg37
(lp993
Vdragon-dance
p994
aVaqua-tail
p995
aVice-fang
p996
aVhurricane
p997
asg43
g44
sg45
Vintimidate
p998
sbasg47
I00
sg48
g703
sbag1
(g2
g3
Ntp999
Rp1000
(dp1001
g7
VVSFisherman ORAS.png
p1002
sg9
VFisherman
p1003
sg11
VElliot
p1004
sg13
V1,536<br><small>After entering the [[Hall of Fame]]</small>
p1005
sg15
g198
sg17
g18
sg19
g20
sg21
g689
sg23
(lp1006
g1
(g25
g3
Ntp1007
Rp1008
(dp1009
g29
V073
p1010
sg31
VTentacruel
p1011
sg33
g34
sg35
V46
p1012
sg37
(lp1013
Vsludge-wave
p1014
aVacid-spray
p1015
aVhex
p1016
aVreflect-type
p1017
asg43
g44
sg45
Vclear-body
p1018
sbag1
(g25
g3
Ntp1019
Rp1020
(dp1021
g29
V224
p1022
sg31
VOctillery
p1023
sg33
g34
sg35
V47
p1024
sg37
(lp1025
Vrock-blast
p1026
aVwring-out
p1027
aVgunk-shot
p1028
aVsoak
p1029
asg43
g44
sg45
Vsniper
p1030
sbag1
(g25
g3
Ntp1031
Rp1032
(dp1033
g29
V340
p1034
sg31
VWhiscash
p1035
sg33
g34
sg35
V47
p1036
sg37
(lp1037
Vaqua-tail
p1038
aVmud-bomb
p1039
aVzen-headbutt
p1040
aVbelch
p1041
asg43
g44
sg45
Vanticipation
p1042
sbag1
(g25
g3
Ntp1043
Rp1044
(dp1045
g29
V130
p1046
sg31
VGyarados
p1047
sg33
g34
sg35
V48
p1048
sg37
(lp1049
Vdragon-dance
p1050
aVaqua-tail
p1051
aVice-fang
p1052
aVhurricane
p1053
asg43
g44
sg45
Vintimidate
p1054
sbasg47
I00
sg48
g703
sba.