(lp0
ccopy_reg
_reconstructor
p1
(c__main__
Trainer
p2
c__builtin__
object
p3
Ntp4
Rp5
(dp6
VtSprite
p7
VSpr RS Swimmer F.png
p8
sVtClass
p9
VSwimmer
p10
sVtName
p11
VDana
p12
sVtMoney
p13
V264
p14
sVtPokeCount
p15
V3
p16
sVtLocation
p17
Vwiki/Hoenn_Route_132
p18
sVtRegion
p19
VHoenn
p20
sVtGame
p21
VRS
p22
sVtPokes
p23
(lp24
g1
(c__main__
FinishedPokemon
p25
g3
Ntp26
Rp27
(dp28
VpDexNo
p29
V183
p30
sVpSpecies
p31
VMarill
p32
sVpGender
p33
VF
p34
sVpLevel
p35
V33
p36
sVpMoves
p37
(lp38
Vbubble-beam
p39
aVdefense-curl
p40
aVrollout
p41
aVrain-dance
p42
asVpHold
p43
V
p44
sVpAbility
p45
Vhuge-power
p46
sbag1
(g25
g3
Ntp47
Rp48
(dp49
g29
V370
p50
sg31
VLuvdisc
p51
sg33
g34
sg35
V33
p52
sg37
(lp53
Vsweet-kiss
p54
aVcharm
p55
aVattract
p56
aVsafeguard
p57
asg43
g44
sg45
Vswift-swim
p58
sbag1
(g25
g3
Ntp59
Rp60
(dp61
g29
V184
p62
sg31
VAzumarill
p63
sg33
g34
sg35
V33
p64
sg37
(lp65
Vdefense-curl
p66
ag66
aVrollout
p67
aVrain-dance
p68
asg43
g44
sg45
Vthick-fat
p69
sbasVbossFlag
p70
I00
sVtLongGame
p71
Vruby-sapphire
p72
sbag1
(g2
g3
Ntp73
Rp74
(dp75
g7
VSpr RS Swimmer M.png
p76
sg9
VSwimmer
p77
sg11
VGilbert
p78
sg13
V280
p79
sg15
V1
p80
sg17
g18
sg19
g20
sg21
g22
sg23
(lp81
g1
(g25
g3
Ntp82
Rp83
(dp84
g29
V319
p85
sg31
VSharpedo
p86
sg33
VM
p87
sg35
V35
p88
sg37
(lp89
Vscary-face
p90
aVswagger
p91
aVcrunch
p92
aVtaunt
p93
asg43
g44
sg45
Vrough-skin
p94
sbasg70
I00
sg71
g72
sbag1
(g2
g3
Ntp95
Rp96
(dp97
g7
VSpr RS Black Belt.png
p98
sg9
VBlack Belt
p99
sg11
VKiyo
p100
sg13
V1056
p101
sg15
g16
sg17
g18
sg19
g20
sg21
g22
sg23
(lp102
g1
(g25
g3
Ntp103
Rp104
(dp105
g29
V296
p106
sg31
VMakuhita
p107
sg33
g87
sg35
V33
p108
sg37
(lp109
Vfake-out
p110
aVsmelling-salts
p111
aVknock-off
p112
aVarm-thrust
p113
asg43
g44
sg45
Vguts
p114
sbag1
(g25
g3
Ntp115
Rp116
(dp117
g29
V296
p118
sg31
VMakuhita
p119
sg33
g87
sg35
V33
p120
sg37
(lp121
Vfake-out
p122
aVsmelling-salts
p123
aVknock-off
p124
aVarm-thrust
p125
asg43
g44
sg45
Vthick-fat
p126
sbag1
(g25
g3
Ntp127
Rp128
(dp129
g29
V067
p130
sg31
VMachoke
p131
sg33
g87
sg35
V33
p132
sg37
(lp133
Vdynamic-punch
p134
aVvital-throw
p135
aVcross-chop
p136
aVrevenge
p137
asg43
g44
sg45
Vguts
p138
sbasg70
I00
sg71
g72
sbag1
(g2
g3
Ntp139
Rp140
(dp141
g7
VSpr RS Fisherman.png
p142
sg9
VFisherman
p143
sg11
VRonald
p144
sg13
V1360
p145
sg15
V6
p146
sg17
g18
sg19
g20
sg21
g22
sg23
(lp147
g1
(g25
g3
Ntp148
Rp149
(dp150
g29
V130
p151
sg31
VGyarados
p152
sg33
g87
sg35
V34
p153
sg37
(lp154
Vdragon-rage
p155
aVtwister
p156
aVrain-dance
p157
aVdragon-dance
p158
asg43
g44
sg45
Vintimidate
p159
sbag1
(g25
g3
Ntp160
Rp161
(dp162
g29
V130
p163
sg31
VGyarados
p164
sg33
g87
sg35
V29
p165
sg37
(lp166
Vdragon-rage
p167
aVtwister
p168
aVrain-dance
p169
aVdragon-dance
p170
asg43
g44
sg45
Vintimidate
p171
sbag1
(g25
g3
Ntp172
Rp173
(dp174
g29
V130
p175
sg31
VGyarados
p176
sg33
g87
sg35
V25
p177
sg37
(lp178
Vdragon-rage
p179
aVtwister
p180
aVrain-dance
p181
aVdragon-dance
p182
asg43
g44
sg45
Vintimidate
p183
sbag1
(g25
g3
Ntp184
Rp185
(dp186
g29
V130
p187
sg31
VGyarados
p188
sg33
g87
sg35
V22
p189
sg37
(lp190
Vdragon-rage
p191
aVtwister
p192
aVrain-dance
p193
aVdragon-dance
p194
asg43
g44
sg45
Vintimidate
p195
sbag1
(g25
g3
Ntp196
Rp197
(dp198
g29
V130
p199
sg31
VGyarados
p200
sg33
g87
sg35
V20
p201
sg37
(lp202
Vdragon-rage
p203
aVtwister
p204
aVrain-dance
p205
aVdragon-dance
p206
asg43
g44
sg45
Vintimidate
p207
sbag1
(g25
g3
Ntp208
Rp209
(dp210
g29
V129
p211
sg31
VMagikarp
p212
sg33
g87
sg35
V19
p213
sg37
(lp214
Vtackle
p215
aVsplash
p216
aVflail
p217
asg43
g44
sg45
Vswift-swim
p218
sbasg70
I00
sg71
g72
sbag1
(g2
g3
Ntp219
Rp220
(dp221
g7
VSpr RS Swimmer M.png
p222
sg9
VSwimmer
p223
sg11
VGilbert
p224
sg13
V272
p225
sg15
g80
sg17
g18
sg19
g20
sg21
g22
sg23
(lp226
g1
(g25
g3
Ntp227
Rp228
(dp229
g29
V319
p230
sg31
VSharpedo
p231
sg33
g87
sg35
V34
p232
sg37
(lp233
Vscary-face
p234
aVswagger
p235
aVcrunch
p236
aVtaunt
p237
asg43
g44
sg45
Vrough-skin
p238
sbasg70
I00
sg71
g72
sbag1
(g2
g3
Ntp239
Rp240
(dp241
g7
VSpr RS Swimmer F.png
p242
sg9
VSwimmer
p243
sg11
VDana
p244
sg13
V272
p245
sg15
g80
sg17
g18
sg19
g20
sg21
g22
sg23
(lp246
g1
(g25
g3
Ntp247
Rp248
(dp249
g29
V184
p250
sg31
VAzumarill
p251
sg33
g34
sg35
V34
p252
sg37
(lp253
Vdefense-curl
p254
ag254
aVrollout
p255
aVrain-dance
p256
asg43
g44
sg45
Vthick-fat
p257
sbasg70
I00
sg71
g72
sbag1
(g2
g3
Ntp258
Rp259
(dp260
g7
VSpr RS Fisherman.png
p261
sg9
VFisherman
p262
sg11
VRonald
p263
sg13
V1400
p264
sg15
g146
sg17
g18
sg19
g20
sg21
g22
sg23
(lp265
g1
(g25
g3
Ntp266
Rp267
(dp268
g29
V129
p269
sg31
VMagikarp
p270
sg33
g87
sg35
V19
p271
sg37
(lp272
Vtackle
p273
aVsplash
p274
aVflail
p275
asg43
g44
sg45
Vswift-swim
p276
sbag1
(g25
g3
Ntp277
Rp278
(dp279
g29
V130
p280
sg31
VGyarados
p281
sg33
g87
sg35
V21
p282
sg37
(lp283
Vdragon-rage
p284
aVtwister
p285
aVrain-dance
p286
aVdragon-dance
p287
asg43
g44
sg45
Vintimidate
p288
sbag1
(g25
g3
Ntp289
Rp290
(dp291
g29
V130
p292
sg31
VGyarados
p293
sg33
g87
sg35
V23
p294
sg37
(lp295
Vdragon-rage
p296
aVtwister
p297
aVrain-dance
p298
aVdragon-dance
p299
asg43
g44
sg45
Vintimidate
p300
sbag1
(g25
g3
Ntp301
Rp302
(dp303
g29
V130
p304
sg31
VGyarados
p305
sg33
g87
sg35
V26
p306
sg37
(lp307
Vdragon-rage
p308
aVtwister
p309
aVrain-dance
p310
aVdragon-dance
p311
asg43
g44
sg45
Vintimidate
p312
sbag1
(g25
g3
Ntp313
Rp314
(dp315
g29
V130
p316
sg31
VGyarados
p317
sg33
g87
sg35
V30
p318
sg37
(lp319
Vdragon-rage
p320
aVtwister
p321
aVrain-dance
p322
aVdragon-dance
p323
asg43
g44
sg45
Vintimidate
p324
sbag1
(g25
g3
Ntp325
Rp326
(dp327
g29
V130
p328
sg31
VGyarados
p329
sg33
g87
sg35
V35
p330
sg37
(lp331
Vdragon-rage
p332
aVtwister
p333
aVrain-dance
p334
aVdragon-dance
p335
asg43
g44
sg45
Vintimidate
p336
sbasg70
I00
sg71
g72
sbag1
(g2
g3
Ntp337
Rp338
(dp339
g7
VSpr RS Black Belt.png
p340
sg9
VBlack Belt
p341
sg11
VKiyo
p342
sg13
V1088
p343
sg15
g80
sg17
g18
sg19
g20
sg21
g22
sg23
(lp344
g1
(g25
g3
Ntp345
Rp346
(dp347
g29
V297
p348
sg31
VHariyama
p349
sg33
g87
sg35
V34
p350
sg37
(lp351
Vsmelling-salts
p352
aVknock-off
p353
aVarm-thrust
p354
ag354
asg43
g44
sg45
Vguts
p355
sbasg70
I00
sg71
g72
sbag1
(g2
g3
Ntp356
Rp357
(dp358
g7
VSpr RS Expert M.png
p359
sg9
VExpert
p360
sg11
VPaxton
p361
sg13
V1320<br><small>Potential [[Double Battle]] with Darcy</small>
p362
sg15
V2
p363
sg17
g18
sg19
g20
sg21
g22
sg23
(lp364
g1
(g25
g3
Ntp365
Rp366
(dp367
g29
V277
p368
sg31
VSwellow
p369
sg33
g87
sg35
V33
p370
sg37
(lp371
Vfocus-energy
p372
ag372
aVendeavor
p373
aVaerial-ace
p374
asg43
g44
sg45
Vguts
p375
sbag1
(g25
g3
Ntp376
Rp377
(dp378
g29
V286
p379
sg31
VBreloom
p380
sg33
g87
sg35
V33
p381
sg37
(lp382
Vmind-reader
p383
aVmach-punch
p384
aVdynamic-punch
p385
aVsky-uppercut
p386
asg43
g44
sg45
Vpoison-heal
p387
sbasg70
I00
sg71
g72
sbag1
(g2
g3
Ntp388
Rp389
(dp390
g7
VSpr RS Cooltrainer F.png
p391
sg9
VCooltrainer
p392
sg11
VDarcy
p393
sg13
V1584<br><small>Potential [[Double Battle]] with Paxton</small>
p394
sg15
g363
sg17
g18
sg19
g20
sg21
g22
sg23
(lp395
g1
(g25
g3
Ntp396
Rp397
(dp398
g29
V279
p399
sg31
VPelipper
p400
sg33
g34
sg35
V33
p401
sg37
(lp402
Vstockpile
p403
aVspit-up
p404
aVswallow
p405
aVwater-sport
p406
asg43
g44
sg45
Vdrizzle
p407
sbag1
(g25
g3
Ntp408
Rp409
(dp410
g29
V323
p411
sg31
VCamerupt
p412
sg33
g34
sg35
V33
p413
sg37
(lp414
Vrock-slide
p415
aVmagnitude
p416
ag416
aVeruption
p417
asg43
g44
sg45
Vmagma-armor
p418
sbasg70
I00
sg71
g72
sbag1
(g2
g3
Ntp419
Rp420
(dp421
g7
VSpr RS Expert F.png
p422
sg9
VExpert
p423
sg11
VMakayla
p424
sg13
V1320<br><small>Potential [[Double Battle]] with Jonathan</small>
p425
sg15
g363
sg17
g18
sg19
g20
sg21
g22
sg23
(lp426
g1
(g25
g3
Ntp427
Rp428
(dp429
g29
V315
p430
sg31
VRoselia
p431
sg33
g34
sg35
V33
p432
sg37
(lp433
Vingrain
p434
aVaromatherapy
p435
aVgrass-whistle
p436
aVmagical-leaf
p437
asg43
g44
sg45
Vpoison-point
p438
sbag1
(g25
g3
Ntp439
Rp440
(dp441
g29
V308
p442
sg31
VMedicham
p443
sg33
g34
sg35
V33
p444
sg37
(lp445
Vdetect
p446
aVhidden-power
p447
aVpsych-up
p448
aVcalm-mind
p449
asg43
g44
sg45
Vpure-power
p450
sbasg70
I00
sg71
g72
sbag1
(g2
g3
Ntp451
Rp452
(dp453
g7
VSpr RS Cooltrainer M.png
p454
sg9
VCooltrainer
p455
sg11
VJonathan
p456
sg13
V1584<br><small>Potential [[Double Battle]] with Makayla</small>
p457
sg15
g363
sg17
g18
sg19
g20
sg21
g22
sg23
(lp458
g1
(g25
g3
Ntp459
Rp460
(dp461
g29
V352
p462
sg31
VKecleon
p463
sg33
g87
sg35
V33
p464
sg37
(lp465
Vthief
p466
aVfeint-attack
p467
aVancient-power
p468
aVastonish
p469
asg43
g44
sg45
Vcolor-change
p470
sbag1
(g25
g3
Ntp471
Rp472
(dp473
g29
V294
p474
sg31
VLoudred
p475
sg33
g87
sg35
V33
p476
sg37
(lp477
Vastonish
p478
ag478
aVhowl
p479
ag479
asg43
g44
sg45
Vsoundproof
p480
sbasg70
I00
sg71
g72
sbag1
(g2
g3
Ntp481
Rp482
(dp483
g7
VVSSwimmer M VI.png
p484
sg9
VSwimmer \u2642
p485
sg11
VGilbert
p486
sg13
V592
p487
sg15
g363
sg17
g18
sg19
g20
sg21
VSM
p488
sg23
(lp489
g1
(g25
g3
Ntp490
Rp491
(dp492
g29
V073
p493
sg31
VTentacruel
p494
sg33
g87
sg35
V37
p495
sg37
(lp496
Vsludge-wave
p497
aVacid-spray
p498
aVhex
p499
aVreflect-type
p500
asg43
g44
sg45
Vliquid-ooze
p501
sbag1
(g25
g3
Ntp502
Rp503
(dp504
g29
V319
p505
sg31
VSharpedo
p506
sg33
g87
sg35
V37
p507
sg37
(lp508
Vnight-slash
p509
ag509
aVice-fang
p510
aVaqua-jet
p511
asg43
g44
sg45
Vrough-skin
p512
sbasg70
I00
sg71
Vsun-moon
p513
sbag1
(g2
g3
Ntp514
Rp515
(dp516
g7
VVSBlack Belt.png
p517
sg9
VBlack Belt
p518
sg11
VKiyo
p519
sg13
V1,280
p520
sg15
g80
sg17
g18
sg19
g20
sg21
g488
sg23
(lp521
g1
(g25
g3
Ntp522
Rp523
(dp524
g29
V068
p525
sg31
VMachamp
p526
sg33
g87
sg35
V40
p527
sg37
(lp528
Vwake-up-slap
p529
aVwide-guard
p530
aVlow-sweep
p531
aVdual-chop
p532
asg43
g44
sg45
Vguts
p533
sbasg70
I00
sg71
g513
sbag1
(g2
g3
Ntp534
Rp535
(dp536
g7
VVSFisherman ORAS.png
p537
sg9
VFisherman
p538
sg11
VRonald
p539
sg13
V1,152
p540
sg15
g16
sg17
g18
sg19
g20
sg21
g488
sg23
(lp541
g1
(g25
g3
Ntp542
Rp543
(dp544
g29
V130
p545
sg31
VGyarados
p546
sg33
g87
sg35
V36
p547
sg37
(lp548
Vdragon-dance
p549
aVaqua-tail
p550
aVice-fang
p551
aVhurricane
p552
asg43
g44
sg45
Vintimidate
p553
sbag1
(g25
g3
Ntp554
Rp555
(dp556
g29
V130
p557
sg31
VGyarados
p558
sg33
g87
sg35
V36
p559
sg37
(lp560
Vdragon-dance
p561
aVaqua-tail
p562
aVice-fang
p563
aVhurricane
p564
asg43
g44
sg45
Vintimidate
p565
sbag1
(g25
g3
Ntp566
Rp567
(dp568
g29
V130
p569
sg31
VGyarados
p570
sg33
g87
sg35
V36
p571
sg37
(lp572
Vdragon-dance
p573
aVaqua-tail
p574
aVice-fang
p575
aVhurricane
p576
asg43
g44
sg45
Vintimidate
p577
sbasg70
I00
sg71
g513
sba.