(lp0
ccopy_reg
_reconstructor
p1
(c__main__
Trainer
p2
c__builtin__
object
p3
Ntp4
Rp5
(dp6
VtSprite
p7
VSpr RS Swimmer F.png
p8
sVtClass
p9
VSwimmer
p10
sVtName
p11
VKatie
p12
sVtMoney
p13
V264
p14
sVtPokeCount
p15
V3
p16
sVtLocation
p17
Vwiki/Hoenn_Route_130
p18
sVtRegion
p19
VHoenn
p20
sVtGame
p21
VRS
p22
sVtPokes
p23
(lp24
g1
(c__main__
FinishedPokemon
p25
g3
Ntp26
Rp27
(dp28
VpDexNo
p29
V118
p30
sVpSpecies
p31
VGoldeen
p32
sVpGender
p33
VF
p34
sVpLevel
p35
V33
p36
sVpMoves
p37
(lp38
Vagility
p39
aVwaterfall
p40
aVflail
p41
aVwater-sport
p42
asVpHold
p43
V
p44
sVpAbility
p45
Vswift-swim
p46
sbag1
(g25
g3
Ntp47
Rp48
(dp49
g29
V170
p50
sg31
VChinchou
p51
sg33
g34
sg35
V33
p52
sg37
(lp53
Vbubble
p54
aVflail
p55
aVspark
p56
aVcharge
p57
asg43
g44
sg45
Villuminate
p58
sbag1
(g25
g3
Ntp59
Rp60
(dp61
g29
V363
p62
sg31
VSpheal
p63
sg33
g34
sg35
V33
p64
sg37
(lp65
Vencore
p66
aVhail
p67
aVice-ball
p68
aVsheer-cold
p69
asg43
g44
sg45
Vthick-fat
p70
sbasVbossFlag
p71
I00
sVtLongGame
p72
Vruby-sapphire
p73
sbag1
(g2
g3
Ntp74
Rp75
(dp76
g7
VSpr RS Swimmer M.png
p77
sg9
VSwimmer
p78
sg11
VRodney
p79
sg13
V272
p80
sg15
V2
p81
sg17
g18
sg19
g20
sg21
g22
sg23
(lp82
g1
(g25
g3
Ntp83
Rp84
(dp85
g29
V116
p86
sg31
VHorsea
p87
sg33
VM
p88
sg35
V34
p89
sg37
(lp90
Vsmokescreen
p91
aVbubble
p92
aVtwister
p93
aVdragon-dance
p94
asg43
g44
sg45
Vsniper
p95
sbag1
(g25
g3
Ntp96
Rp97
(dp98
g29
V130
p99
sg31
VGyarados
p100
sg33
g88
sg35
V34
p101
sg37
(lp102
Vdragon-rage
p103
aVtwister
p104
aVrain-dance
p105
aVdragon-dance
p106
asg43
g44
sg45
Vintimidate
p107
sbasg71
I00
sg72
g73
sbag1
(g2
g3
Ntp108
Rp109
(dp110
g7
VSpr RS Swimmer M.png
p111
sg9
VSwimmer
p112
sg11
VRodney
p113
sg13
V272
p114
sg15
V1
p115
sg17
g18
sg19
g20
sg21
g22
sg23
(lp116
g1
(g25
g3
Ntp117
Rp118
(dp119
g29
V130
p120
sg31
VGyarados
p121
sg33
g88
sg35
V34
p122
sg37
(lp123
Vdragon-rage
p124
aVtwister
p125
aVrain-dance
p126
aVdragon-dance
p127
asg43
g44
sg45
Vintimidate
p128
sbasg71
I00
sg72
g73
sbag1
(g2
g3
Ntp129
Rp130
(dp131
g7
VSpr RS Swimmer F.png
p132
sg9
VSwimmer
p133
sg11
VKatie
p134
sg13
V264<br><small>Potential [[Double Battle]] with Santiago</small>
p135
sg15
g81
sg17
g18
sg19
g20
sg21
g22
sg23
(lp136
g1
(g25
g3
Ntp137
Rp138
(dp139
g29
V118
p140
sg31
VGoldeen
p141
sg33
g34
sg35
V33
p142
sg37
(lp143
Vagility
p144
aVwaterfall
p145
aVflail
p146
aVwater-sport
p147
asg43
g44
sg45
Vswift-swim
p148
sbag1
(g25
g3
Ntp149
Rp150
(dp151
g29
V363
p152
sg31
VSpheal
p153
sg33
g34
sg35
V33
p154
sg37
(lp155
Vencore
p156
aVhail
p157
aVice-ball
p158
aVsheer-cold
p159
asg43
g44
sg45
Vthick-fat
p160
sbasg71
I00
sg72
g73
sbag1
(g2
g3
Ntp161
Rp162
(dp163
g7
VSpr RS Swimmer M.png
p164
sg9
VSwimmer
p165
sg11
VSantiago
p166
sg13
V264<br><small>Potential [[Double Battle]] with Katie</small>
p167
sg15
g81
sg17
g18
sg19
g20
sg21
g22
sg23
(lp168
g1
(g25
g3
Ntp169
Rp170
(dp171
g29
V073
p172
sg31
VTentacruel
p173
sg33
g88
sg35
V33
p174
sg37
(lp175
Vscreech
p176
aVbarrier
p177
aVconstrict
p178
ag178
asg43
g44
sg45
Vliquid-ooze
p179
sbag1
(g25
g3
Ntp180
Rp181
(dp182
g29
V320
p183
sg31
VWailmer
p184
sg33
g88
sg35
V33
p185
sg37
(lp186
Vwhirlpool
p187
aVastonish
p188
aVwater-spout
p189
aVwater-pulse
p190
asg43
g44
sg45
Voblivious
p191
sbasg71
I00
sg72
g73
sbag1
(g2
g3
Ntp192
Rp193
(dp194
g7
VVSSwimmer F ORAS.png
p195
sg9
VSwimmer \u2640
p196
sg11
VKatie
p197
sg13
V576
p198
sg15
g81
sg17
g18
sg19
g20
sg21
VSM
p199
sg23
(lp200
g1
(g25
g3
Ntp201
Rp202
(dp203
g29
V055
p204
sg31
VGolduck
p205
sg33
g34
sg35
V38
p206
sg37
(lp207
Vzen-headbutt
p208
aVaqua-jet
p209
aVwonder-room
p210
aVsoak
p211
asg43
g44
sg45
Vcloud-nine
p212
sbag1
(g25
g3
Ntp213
Rp214
(dp215
g29
V119
p216
sg31
VSeaking
p217
sg33
g34
sg35
V36
p218
sg37
(lp219
Vwater-pulse
p220
aVaqua-ring
p221
aVpoison-jab
p222
aVsoak
p223
asg43
g44
sg45
Vwater-veil
p224
sbasg71
I00
sg72
Vsun-moon
p225
sbag1
(g2
g3
Ntp226
Rp227
(dp228
g7
VVSTriathlete Swimmer.png
p229
sg9
VTriathlete
p230
sg11
VKarsen
p231
sg13
V1,480
p232
sg15
g81
sg17
g18
sg19
g20
sg21
VSM
p233
sg23
(lp234
g1
(g25
g3
Ntp235
Rp236
(dp237
g29
V055
p238
sg31
VGolduck
p239
sg33
g88
sg35
V37
p240
sg37
(lp241
Vzen-headbutt
p242
aVaqua-jet
p243
aVwonder-room
p244
aVsoak
p245
asg43
g44
sg45
Vcloud-nine
p246
sbag1
(g25
g3
Ntp247
Rp248
(dp249
g29
V073
p250
sg31
VTentacruel
p251
sg33
g88
sg35
V37
p252
sg37
(lp253
Vsludge-wave
p254
aVacid-spray
p255
aVhex
p256
aVreflect-type
p257
asg43
g44
sg45
Vclear-body
p258
sbasg71
I00
sg72
g225
sbag1
(g2
g3
Ntp259
Rp260
(dp261
g7
VVSSwimmer M VI.png
p262
sg9
VSwimmer \u2642
p263
sg11
VRodney
p264
sg13
V624
p265
sg15
g115
sg17
g18
sg19
g20
sg21
VSM
p266
sg23
(lp267
g1
(g25
g3
Ntp268
Rp269
(dp270
g29
V342
p271
sg31
VCrawdaunt
p272
sg33
g88
sg35
V39
p273
sg37
(lp274
Vknock-off
p275
aVnight-slash
p276
aVdouble-hit
p277
aVrazor-shell
p278
asg43
g44
sg45
Vhyper-cutter
p279
sbasg71
I00
sg72
g225
sbag1
(g2
g3
Ntp280
Rp281
(dp282
g7
VVSScuba Diver.png
p283
sg9
VScuba Diver
p284
sg11
VSilas
p285
sg13
V1,560
p286
sg15
g81
sg17
g18
sg19
g20
sg21
VSM
p287
sg23
(lp288
g1
(g25
g3
Ntp289
Rp290
(dp291
g29
V364
p292
sg31
VSealeo
p293
sg33
g88
sg35
V39
p294
sg37
(lp295
Vhail
p296
aVice-ball
p297
aVsheer-cold
p298
aVbrine
p299
asg43
g44
sg45
Vthick-fat
p300
sbag1
(g25
g3
Ntp301
Rp302
(dp303
g29
V340
p304
sg31
VWhiscash
p305
sg33
g88
sg35
V39
p306
sg37
(lp307
Vaqua-tail
p308
aVmud-bomb
p309
aVzen-headbutt
p310
aVbelch
p311
asg43
g44
sg45
Vanticipation
p312
sbasg71
I00
sg72
g225
sbag1
(g2
g3
Ntp313
Rp314
(dp315
g7
VVSFree Diver.png
p316
sg9
VFree Diver
p317
sg11
VCordura
p318
sg13
V1,640
p319
sg15
g115
sg17
g18
sg19
g20
sg21
VSM
p320
sg23
(lp321
g1
(g25
g3
Ntp322
Rp323
(dp324
g29
V222
p325
sg31
VCorsola
p326
sg33
g34
sg35
V41
p327
sg37
(lp328
Vlucky-chant
p329
aVaqua-ring
p330
aVpower-gem
p331
aVearth-power
p332
asg43
g44
sg45
Vhustle
p333
sbasg71
I00
sg72
g225
sba.