(lp0
ccopy_reg
_reconstructor
p1
(c__main__
Trainer
p2
c__builtin__
object
p3
Ntp4
Rp5
(dp6
VtSprite
p7
VSpr RS Interviewer.png
p8
sVtClass
p9
VInterviewer
p10
sVtName
p11
V[[Gabby and Ty]]
p12
sVtMoney
p13
V1824
p14
sVtPokeCount
p15
V2
p16
sVtLocation
p17
Vwiki/Hoenn_Route_111
p18
sVtRegion
p19
VHoenn
p20
sVtGame
p21
VRS
p22
sVtPokes
p23
(lp24
g1
(c__main__
FinishedPokemon
p25
g3
Ntp26
Rp27
(dp28
VpDexNo
p29
V081
p30
sVpSpecies
p31
VMagnemite
p32
sVpGender
p33
VU
p34
sVpLevel
p35
V19
p36
sVpMoves
p37
(lp38
Vzap-cannon
p39
aVlock-on
p40
aVspark
p41
aVmetal-sound
p42
asVpHold
p43
V
p44
sVpAbility
p45
Vsturdy
p46
sbag1
(g25
g3
Ntp47
Rp48
(dp49
g29
V293
p50
sg31
VWhismur
p51
sg33
VM
p52
sg35
V19
p53
sg37
(lp54
Vuproar
p55
aVhyper-voice
p56
aVastonish
p57
aVhowl
p58
asg43
g44
sg45
Vsoundproof
p59
sbasVbossFlag
p60
I00
sVtLongGame
p61
Vruby-sapphire
p62
sbag1
(g2
g3
Ntp63
Rp64
(dp65
g7
VSpr RS Picnicker.png
p66
sg9
VPicnicker
p67
sg11
VIrene
p68
sg13
V288
p69
sg15
g16
sg17
g18
sg19
g20
sg21
g22
sg23
(lp70
g1
(g25
g3
Ntp71
Rp72
(dp73
g29
V285
p74
sg31
VShroomish
p75
sg33
VF
p76
sg35
V18
p77
sg37
(lp78
Vpoison-powder
p79
aVstun-spore
p80
aVspore
p81
aVgiga-drain
p82
asg43
g44
sg45
Veffect-spore
p83
sbag1
(g25
g3
Ntp84
Rp85
(dp86
g29
V183
p87
sg31
VMarill
p88
sg33
g76
sg35
V18
p89
sg37
(lp90
Vbubble-beam
p91
aVdefense-curl
p92
aVrollout
p93
aVrain-dance
p94
asg43
g44
sg45
Vhuge-power
p95
sbasg60
I00
sg61
g62
sbag1
(g2
g3
Ntp96
Rp97
(dp98
g7
VSpr RS Camper.png
p99
sg9
VCamper
p100
sg11
VTravis
p101
sg13
V288
p102
sg15
V1
p103
sg17
g18
sg19
g20
sg21
g22
sg23
(lp104
g1
(g25
g3
Ntp105
Rp106
(dp107
g29
V027
p108
sg31
VSandshrew
p109
sg33
g52
sg35
V19
p110
sg37
(lp111
Vfury-swipes
p112
aVslash
p113
aVsandstorm
p114
aVsand-tomb
p115
asg43
g44
sg45
Vsand-veil
p116
sbasg60
I00
sg61
g62
sbag1
(g2
g3
Ntp117
Rp118
(dp119
g7
VSpr RS Camper.png
p120
sg9
VCamper
p121
sg11
VCliff
p122
sg13
V352
p123
sg15
V3
p124
sg17
g18
sg19
g20
sg21
g22
sg23
(lp125
g1
(g25
g3
Ntp126
Rp127
(dp128
g29
V343
p129
sg31
VBaltoy
p130
sg33
g34
sg35
V22
p131
sg37
(lp132
Vrapid-spin
p133
aVancient-power
p134
aVrock-tomb
p135
aVcosmic-power
p136
asg43
g44
sg45
Vlevitate
p137
sbag1
(g25
g3
Ntp138
Rp139
(dp140
g29
V027
p141
sg31
VSandshrew
p142
sg33
g52
sg35
V22
p143
sg37
(lp144
Vfury-swipes
p145
aVslash
p146
aVsandstorm
p147
aVsand-tomb
p148
asg43
g44
sg45
Vsand-veil
p149
sbag1
(g25
g3
Ntp150
Rp151
(dp152
g29
V343
p153
sg31
VBaltoy
p154
sg33
g34
sg35
V22
p155
sg37
(lp156
Vrapid-spin
p157
aVancient-power
p158
aVrock-tomb
p159
aVcosmic-power
p160
asg43
g44
sg45
Vlevitate
p161
sbasg60
I00
sg61
g62
sbag1
(g2
g3
Ntp162
Rp163
(dp164
g7
VSpr RS Picnicker.png
p165
sg9
VPicnicker
p166
sg11
VHeidi
p167
sg13
V368
p168
sg15
g16
sg17
g18
sg19
g20
sg21
g22
sg23
(lp169
g1
(g25
g3
Ntp170
Rp171
(dp172
g29
V027
p173
sg31
VSandshrew
p174
sg33
g76
sg35
V23
p175
sg37
(lp176
Vfury-swipes
p177
aVslash
p178
aVsandstorm
p179
aVsand-tomb
p180
asg43
g44
sg45
Vsand-veil
p181
sbag1
(g25
g3
Ntp182
Rp183
(dp184
g29
V343
p185
sg31
VBaltoy
p186
sg33
g34
sg35
V23
p187
sg37
(lp188
Vrapid-spin
p189
aVancient-power
p190
aVrock-tomb
p191
aVcosmic-power
p192
asg43
g44
sg45
Vlevitate
p193
sbasg60
I00
sg61
g62
sbag1
(g2
g3
Ntp194
Rp195
(dp196
g7
VSpr RS Camper.png
p197
sg9
VCamper
p198
sg11
VDrew
p199
sg13
V384
p200
sg15
g103
sg17
g18
sg19
g20
sg21
g22
sg23
(lp201
g1
(g25
g3
Ntp202
Rp203
(dp204
g29
V027
p205
sg31
VSandshrew
p206
sg33
g52
sg35
V24
p207
sg37
(lp208
Vfury-swipes
p209
aVslash
p210
aVsandstorm
p211
aVsand-tomb
p212
asg43
g44
sg45
Vsand-veil
p213
sbasg60
I00
sg61
g62
sbag1
(g2
g3
Ntp214
Rp215
(dp216
g7
VSpr RS Ruin Maniac.png
p217
sg9
VRuin Maniac
p218
sg11
VDusty
p219
sg13
V1440
p220
sg15
g103
sg17
g18
sg19
g20
sg21
g22
sg23
(lp221
g1
(g25
g3
Ntp222
Rp223
(dp224
g29
V028
p225
sg31
VSandslash
p226
sg33
g52
sg35
V24
p227
sg37
(lp228
Vfury-swipes
p229
aVslash
p230
aVsandstorm
p231
aVsand-tomb
p232
asg43
g44
sg45
Vsand-veil
p233
sbasg60
I00
sg61
g62
sbag1
(g2
g3
Ntp234
Rp235
(dp236
g7
VSpr RS Picnicker.png
p237
sg9
VPicnicker
p238
sg11
VBecky
p239
sg13
V384
p240
sg15
g103
sg17
g18
sg19
g20
sg21
g22
sg23
(lp241
g1
(g25
g3
Ntp242
Rp243
(dp244
g29
V027
p245
sg31
VSandshrew
p246
sg33
g76
sg35
V24
p247
sg37
(lp248
Vfury-swipes
p249
aVslash
p250
aVsandstorm
p251
aVsand-tomb
p252
asg43
g44
sg45
Vsand-veil
p253
sbasg60
I00
sg61
g62
sbag1
(g2
g3
Ntp254
Rp255
(dp256
g7
VSpr RS Cooltrainer M.png
p257
sg9
VCooltrainer
p258
sg11
VWilton
p259
sg13
V864
p260
sg15
g124
sg17
g18
sg19
g20
sg21
g22
sg23
(lp261
g1
(g25
g3
Ntp262
Rp263
(dp264
g29
V309
p265
sg31
VElectrike
p266
sg33
g52
sg35
V18
p267
sg37
(lp268
Vspark
p269
aVcharge
p270
aVodor-sleuth
p271
aVhowl
p272
asg43
g44
sg45
Vlightning-rod
p273
sbag1
(g25
g3
Ntp274
Rp275
(dp276
g29
V320
p277
sg31
VWailmer
p278
sg33
g52
sg35
V18
p279
sg37
(lp280
Vwhirlpool
p281
aVastonish
p282
aVwater-spout
p283
aVwater-pulse
p284
asg43
g44
sg45
Vwater-veil
p285
sbag1
(g25
g3
Ntp286
Rp287
(dp288
g29
V296
p289
sg31
VMakuhita
p290
sg33
g52
sg35
V18
p291
sg37
(lp292
Vfake-out
p293
aVsmelling-salts
p294
aVknock-off
p295
aVarm-thrust
p296
asg43
g44
sg45
Vthick-fat
p297
sbasg60
I00
sg61
g62
sbag1
(g2
g3
Ntp298
Rp299
(dp300
g7
VSpr RS Cooltrainer F.png
p301
sg9
VCooltrainer
p302
sg11
VBrooke
p303
sg13
V864
p304
sg15
g124
sg17
g18
sg19
g20
sg21
g22
sg23
(lp305
g1
(g25
g3
Ntp306
Rp307
(dp308
g29
V278
p309
sg31
VWingull
p310
sg33
g76
sg35
V18
p311
sg37
(lp312
Vwater-gun
p313
aVagility
p314
aVquick-attack
p315
aVpursuit
p316
asg43
g44
sg45
Vhydration
p317
sbag1
(g25
g3
Ntp318
Rp319
(dp320
g29
V322
p321
sg31
VNumel
p322
sg33
g76
sg35
V18
p323
sg37
(lp324
Vearthquake
p325
aVfocus-energy
p326
aVamnesia
p327
aVmagnitude
p328
asg43
g44
sg45
Vsimple
p329
sbag1
(g25
g3
Ntp330
Rp331
(dp332
g29
V315
p333
sg31
VRoselia
p334
sg33
g76
sg35
V18
p335
sg37
(lp336
Vingrain
p337
aVaromatherapy
p338
aVgrass-whistle
p339
aVmagical-leaf
p340
asg43
g44
sg45
Vpoison-point
p341
sbasg60
I00
sg61
g62
sbag1
(g2
g3
Ntp342
Rp343
(dp344
g7
VSpr RS Black Belt.png
p345
sg9
VBlack Belt
p346
sg11
VDaisuke
p347
sg13
V608<br><small>Requires [[Mach Bike]]</small>
p348
sg15
g103
sg17
g18
sg19
g20
sg21
g22
sg23
(lp349
g1
(g25
g3
Ntp350
Rp351
(dp352
g29
V066
p353
sg31
VMachop
p354
sg33
g52
sg35
V19
p355
sg37
(lp356
Vdynamic-punch
p357
aVvital-throw
p358
aVcross-chop
p359
aVrevenge
p360
asg43
g44
sg45
Vguts
p361
sbasg60
I00
sg61
g62
sbag1
(g2
g3
Ntp362
Rp363
(dp364
g7
VSpr RS Ruin Maniac.png
p365
sg9
VRuin Maniac
p366
sg11
VDusty
p367
sg13
g1
(cmwparserfromhell.wikicode
Wikicode
p368
g3
Ntp369
Rp370
(dp371
V_nodes
p372
g1
(cmwparserfromhell.smart_list.smart_list
SmartList
p373
c__builtin__
list
p374
(lp375
g1
(cmwparserfromhell.nodes.text
Text
p376
g3
Ntp377
Rp378
(dp379
V_value
p380
V1620
p381
sbatp382
Rp383
(dp384
V_children
p385
(dp386
sbsbsg15
g103
sg17
g18
sg19
g20
sg21
g22
sg23
(lp387
g1
(g25
g3
Ntp388
Rp389
(dp390
g29
V028
p391
sg31
VSandslash
p392
sg33
g52
sg35
V27
p393
sg37
(lp394
Vfury-swipes
p395
aVslash
p396
aVsandstorm
p397
aVsand-tomb
p398
asg43
g44
sg45
Vsand-veil
p399
sbasg60
I00
sg61
g62
sbag1
(g2
g3
Ntp400
Rp401
(dp402
g7
VSpr RS Cooltrainer M.png
p403
sg9
VCooltrainer
p404
sg11
VWilton{{tt|*|First rematch}}
p405
sg13
V1248
p406
sg15
g124
sg17
g18
sg19
g20
sg21
g22
sg23
(lp407
g1
(g25
g3
Ntp408
Rp409
(dp410
g29
V309
p411
sg31
VElectrike
p412
sg33
g52
sg35
V26
p413
sg37
(lp414
Vspark
p415
aVcharge
p416
aVodor-sleuth
p417
aVhowl
p418
asg43
g44
sg45
Vlightning-rod
p419
sbag1
(g25
g3
Ntp420
Rp421
(dp422
g29
V320
p423
sg31
VWailmer
p424
sg33
g52
sg35
V26
p425
sg37
(lp426
Vwhirlpool
p427
aVastonish
p428
aVwater-spout
p429
aVwater-pulse
p430
asg43
g44
sg45
Vwater-veil
p431
sbag1
(g25
g3
Ntp432
Rp433
(dp434
g29
V296
p435
sg31
VMakuhita
p436
sg33
g52
sg35
V26
p437
sg37
(lp438
Vfake-out
p439
aVsmelling-salts
p440
aVknock-off
p441
aVarm-thrust
p442
asg43
g44
sg45
Vguts
p443
sbasg60
I00
sg61
g62
sbag1
(g2
g3
Ntp444
Rp445
(dp446
g7
VSpr RS Cooltrainer M.png
p447
sg9
VCooltrainer
p448
sg11
VWilton{{tt|*|Second and third rematch}}
p449
sg13
g1
(g368
g3
Ntp450
Rp451
(dp452
g372
g1
(g373
g374
(lp453
g1
(g376
g3
Ntp454
Rp455
(dp456
g380
V1392
p457
sbatp458
Rp459
(dp460
g385
(dp461
sbsbsg15
g124
sg17
g18
sg19
g20
sg21
g22
sg23
(lp462
g1
(g25
g3
Ntp463
Rp464
(dp465
g29
V310
p466
sg31
VManectric
p467
sg33
g52
sg35
V29
p468
sg37
(lp469
Vcharge
p470
aVodor-sleuth
p471
aVhowl
p472
ag472
asg43
g44
sg45
Vstatic
p473
sbag1
(g25
g3
Ntp474
Rp475
(dp476
g29
V320
p477
sg31
VWailmer
p478
sg33
g52
sg35
V29
p479
sg37
(lp480
Vwhirlpool
p481
aVastonish
p482
aVwater-spout
p483
aVwater-pulse
p484
asg43
g44
sg45
Voblivious
p485
sbag1
(g25
g3
Ntp486
Rp487
(dp488
g29
V296
p489
sg31
VMakuhita
p490
sg33
g52
sg35
V29
p491
sg37
(lp492
Vfake-out
p493
aVsmelling-salts
p494
aVknock-off
p495
aVarm-thrust
p496
asg43
g44
sg45
Vthick-fat
p497
sbasg60
I00
sg61
g62
sbag1
(g2
g3
Ntp498
Rp499
(dp500
g7
VSpr RS Cooltrainer M.png
p501
sg9
VCooltrainer
p502
sg11
VWilton{{tt|*|Fourth rematch onwards}}
p503
sg13
V1680
p504
sg15
g124
sg17
g18
sg19
g20
sg21
g22
sg23
(lp505
g1
(g25
g3
Ntp506
Rp507
(dp508
g29
V310
p509
sg31
VManectric
p510
sg33
g52
sg35
V35
p511
sg37
(lp512
Vcharge
p513
aVodor-sleuth
p514
aVhowl
p515
ag515
asg43
g44
sg45
Vlightning-rod
p516
sbag1
(g25
g3
Ntp517
Rp518
(dp519
g29
V320
p520
sg31
VWailmer
p521
sg33
g52
sg35
V35
p522
sg37
(lp523
Vwhirlpool
p524
aVastonish
p525
aVwater-spout
p526
aVwater-pulse
p527
asg43
g44
sg45
Voblivious
p528
sbag1
(g25
g3
Ntp529
Rp530
(dp531
g29
V297
p532
sg31
VHariyama
p533
sg33
g52
sg35
V35
p534
sg37
(lp535
Vsmelling-salts
p536
aVknock-off
p537
aVarm-thrust
p538
ag538
asg43
g44
sg45
Vthick-fat
p539
sbasg60
I00
sg61
g62
sbag1
(g2
g3
Ntp540
Rp541
(dp542
g7
VSpr RS Cooltrainer F.png
p543
sg9
VCooltrainer
p544
sg11
VBrooke{{tt|*|First rematch}}
p545
sg13
V1248
p546
sg15
g124
sg17
g18
sg19
g20
sg21
g22
sg23
(lp547
g1
(g25
g3
Ntp548
Rp549
(dp550
g29
V278
p551
sg31
VWingull
p552
sg33
g76
sg35
V26
p553
sg37
(lp554
Vwater-gun
p555
aVagility
p556
aVquick-attack
p557
aVpursuit
p558
asg43
g44
sg45
Vhydration
p559
sbag1
(g25
g3
Ntp560
Rp561
(dp562
g29
V322
p563
sg31
VNumel
p564
sg33
g76
sg35
V26
p565
sg37
(lp566
Vearthquake
p567
aVfocus-energy
p568
aVamnesia
p569
aVmagnitude
p570
asg43
g44
sg45
Voblivious
p571
sbag1
(g25
g3
Ntp572
Rp573
(dp574
g29
V315
p575
sg31
VRoselia
p576
sg33
g76
sg35
V26
p577
sg37
(lp578
Vingrain
p579
aVaromatherapy
p580
aVgrass-whistle
p581
aVmagical-leaf
p582
asg43
g44
sg45
Vpoison-point
p583
sbasg60
I00
sg61
g62
sbag1
(g2
g3
Ntp584
Rp585
(dp586
g7
VSpr RS Cooltrainer F.png
p587
sg9
VCooltrainer
p588
sg11
VBrooke{{tt|*|Second and third rematch}}
p589
sg13
g1
(g368
g3
Ntp590
Rp591
(dp592
g372
g1
(g373
g374
(lp593
g1
(g376
g3
Ntp594
Rp595
(dp596
g380
V1392
p597
sbatp598
Rp599
(dp600
g385
(dp601
sbsbsg15
g124
sg17
g18
sg19
g20
sg21
g22
sg23
(lp602
g1
(g25
g3
Ntp603
Rp604
(dp605
g29
V279
p606
sg31
VPelipper
p607
sg33
g76
sg35
V29
p608
sg37
(lp609
Vstockpile
p610
aVspit-up
p611
aVswallow
p612
aVwater-sport
p613
asg43
g44
sg45
Vkeen-eye
p614
sbag1
(g25
g3
Ntp615
Rp616
(dp617
g29
V322
p618
sg31
VNumel
p619
sg33
g76
sg35
V29
p620
sg37
(lp621
Vearthquake
p622
aVfocus-energy
p623
aVamnesia
p624
aVmagnitude
p625
asg43
g44
sg45
Vsimple
p626
sbag1
(g25
g3
Ntp627
Rp628
(dp629
g29
V315
p630
sg31
VRoselia
p631
sg33
g76
sg35
V29
p632
sg37
(lp633
Vingrain
p634
aVaromatherapy
p635
aVgrass-whistle
p636
aVmagical-leaf
p637
asg43
g44
sg45
Vnatural-cure
p638
sbasg60
I00
sg61
g62
sbag1
(g2
g3
Ntp639
Rp640
(dp641
g7
VSpr RS Cooltrainer F.png
p642
sg9
VCooltrainer
p643
sg11
VBrooke{{tt|*|Fourth rematch onwards}}
p644
sg13
V1680
p645
sg15
g124
sg17
g18
sg19
g20
sg21
g22
sg23
(lp646
g1
(g25
g3
Ntp647
Rp648
(dp649
g29
V279
p650
sg31
VPelipper
p651
sg33
g76
sg35
V34
p652
sg37
(lp653
Vstockpile
p654
aVspit-up
p655
aVswallow
p656
aVwater-sport
p657
asg43
g44
sg45
Vdrizzle
p658
sbag1
(g25
g3
Ntp659
Rp660
(dp661
g29
V323
p662
sg31
VCamerupt
p663
sg33
g76
sg35
V34
p664
sg37
(lp665
Vrock-slide
p666
aVmagnitude
p667
ag667
aVeruption
p668
asg43
g44
sg45
Vsolid-rock
p669
sbag1
(g25
g3
Ntp670
Rp671
(dp672
g29
V315
p673
sg31
VRoselia
p674
sg33
g76
sg35
V34
p675
sg37
(lp676
Vingrain
p677
aVaromatherapy
p678
aVgrass-whistle
p679
aVmagical-leaf
p680
asg43
g44
sg45
Vnatural-cure
p681
sbasg60
I00
sg61
g62
sbag1
(g2
g3
Ntp682
Rp683
(dp684
g7
VSpr RS Camper.png
p685
sg9
VCamper
p686
sg11
VTyron
p687
sg13
V304<br><small>Potential [[Double Battle]] with Celina</small>
p688
sg15
g103
sg17
g18
sg19
g20
sg21
g22
sg23
(lp689
g1
(g25
g3
Ntp690
Rp691
(dp692
g29
V027
p693
sg31
VSandshrew
p694
sg33
g52
sg35
V19
p695
sg37
(lp696
Vfury-swipes
p697
aVslash
p698
aVsandstorm
p699
aVsand-tomb
p700
asg43
g44
sg45
Vsand-veil
p701
sbasg60
I00
sg61
g62
sbag1
(g2
g3
Ntp702
Rp703
(dp704
g7
VSpr RS Aroma Lady.png
p705
sg9
VAroma Lady
p706
sg11
VCelina
p707
sg13
V720<br><small>Potential [[Double Battle]] with Tyron</small>
p708
sg15
g103
sg17
g18
sg19
g20
sg21
g22
sg23
(lp709
g1
(g25
g3
Ntp710
Rp711
(dp712
g29
V315
p713
sg31
VRoselia
p714
sg33
g76
sg35
V18
p715
sg37
(lp716
Vingrain
p717
aVaromatherapy
p718
aVgrass-whistle
p719
aVmagical-leaf
p720
asg43
g44
sg45
Vnatural-cure
p721
sbasg60
I00
sg61
g62
sbag1
(g2
g3
Ntp722
Rp723
(dp724
g7
VSpr RS Picnicker.png
p725
sg9
VPicnicker
p726
sg11
VBianca
p727
sg13
V288<br><small>Potential [[Double Battle]] with Hayden</small>
p728
sg15
g103
sg17
g18
sg19
g20
sg21
g22
sg23
(lp729
g1
(g25
g3
Ntp730
Rp731
(dp732
g29
V285
p733
sg31
VShroomish
p734
sg33
g76
sg35
V18
p735
sg37
(lp736
Vpoison-powder
p737
aVstun-spore
p738
aVspore
p739
aVgiga-drain
p740
asg43
g44
sg45
Vpoison-heal
p741
sbasg60
I00
sg61
g62
sbag1
(g2
g3
Ntp742
Rp743
(dp744
g7
VSpr RS Kindler.png
p745
sg9
VKindler
p746
sg11
VHayden
p747
sg13
V576<br><small>Potential [[Double Battle]] with Bianca</small>
p748
sg15
g103
sg17
g18
sg19
g20
sg21
g22
sg23
(lp749
g1
(g25
g3
Ntp750
Rp751
(dp752
g29
V322
p753
sg31
VNumel
p754
sg33
g52
sg35
V18
p755
sg37
(lp756
Vearthquake
p757
aVfocus-energy
p758
aVamnesia
p759
aVmagnitude
p760
asg43
g44
sg45
Vsimple
p761
sbasg60
I00
sg61
g62
sbag1
(g2
g3
Ntp762
Rp763
(dp764
g7
VSpr RS Interviewer.png
p765
sg9
VInterviewer
p766
sg11
V[[Gabby and Ty]]
p767
sg13
V1632
p768
sg15
g16
sg17
g18
sg19
g20
sg21
g22
sg23
(lp769
g1
(g25
g3
Ntp770
Rp771
(dp772
g29
V081
p773
sg31
VMagnemite
p774
sg33
g34
sg35
V17
p775
sg37
(lp776
Vzap-cannon
p777
aVlock-on
p778
aVspark
p779
aVmetal-sound
p780
asg43
g44
sg45
Vmagnet-pull
p781
sbag1
(g25
g3
Ntp782
Rp783
(dp784
g29
V293
p785
sg31
VWhismur
p786
sg33
g52
sg35
V17
p787
sg37
(lp788
Vuproar
p789
aVhyper-voice
p790
aVastonish
p791
aVhowl
p792
asg43
g44
sg45
Vsoundproof
p793
sbasg60
I00
sg61
g62
sbag1
(g2
g3
Ntp794
Rp795
(dp796
g7
VSpr RS Picnicker.png
p797
sg9
VPicnicker
p798
sg11
VIrene
p799
sg13
V272
p800
sg15
g16
sg17
g18
sg19
g20
sg21
g22
sg23
(lp801
g1
(g25
g3
Ntp802
Rp803
(dp804
g29
V285
p805
sg31
VShroomish
p806
sg33
g76
sg35
V17
p807
sg37
(lp808
Vpoison-powder
p809
aVstun-spore
p810
aVspore
p811
aVgiga-drain
p812
asg43
g44
sg45
Vpoison-heal
p813
sbag1
(g25
g3
Ntp814
Rp815
(dp816
g29
V183
p817
sg31
VMarill
p818
sg33
g76
sg35
V17
p819
sg37
(lp820
Vbubble-beam
p821
aVdefense-curl
p822
aVrollout
p823
aVrain-dance
p824
asg43
g44
sg45
Vhuge-power
p825
sbasg60
I00
sg61
g62
sbag1
(g2
g3
Ntp826
Rp827
(dp828
g7
VSpr RS Camper.png
p829
sg9
VCamper
p830
sg11
VTravis
p831
sg13
V288
p832
sg15
g103
sg17
g18
sg19
g20
sg21
g22
sg23
(lp833
g1
(g25
g3
Ntp834
Rp835
(dp836
g29
V027
p837
sg31
VSandshrew
p838
sg33
g52
sg35
V18
p839
sg37
(lp840
Vfury-swipes
p841
aVslash
p842
aVsandstorm
p843
aVsand-tomb
p844
asg43
g44
sg45
Vsand-veil
p845
sbasg60
I00
sg61
g62
sbag1
(g2
g3
Ntp846
Rp847
(dp848
g7
VSpr RS Picnicker.png
p849
sg9
VPicnicker
p850
sg11
VHeidi
p851
sg13
V352
p852
sg15
g16
sg17
g18
sg19
g20
sg21
g22
sg23
(lp853
g1
(g25
g3
Ntp854
Rp855
(dp856
g29
V027
p857
sg31
VSandshrew
p858
sg33
g76
sg35
V22
p859
sg37
(lp860
Vfury-swipes
p861
aVslash
p862
aVsandstorm
p863
aVsand-tomb
p864
asg43
g44
sg45
Vsand-veil
p865
sbag1
(g25
g3
Ntp866
Rp867
(dp868
g29
V343
p869
sg31
VBaltoy
p870
sg33
g34
sg35
V22
p871
sg37
(lp872
Vrapid-spin
p873
aVancient-power
p874
aVrock-tomb
p875
aVcosmic-power
p876
asg43
g44
sg45
Vlevitate
p877
sbasg60
I00
sg61
g62
sbag1
(g2
g3
Ntp878
Rp879
(dp880
g7
VSpr RS Camper.png
p881
sg9
VCamper
p882
sg11
VBeau
p883
sg13
V336
p884
sg15
g124
sg17
g18
sg19
g20
sg21
g22
sg23
(lp885
g1
(g25
g3
Ntp886
Rp887
(dp888
g29
V343
p889
sg31
VBaltoy
p890
sg33
g34
sg35
V21
p891
sg37
(lp892
Vrapid-spin
p893
aVancient-power
p894
aVrock-tomb
p895
aVcosmic-power
p896
asg43
g44
sg45
Vlevitate
p897
sbag1
(g25
g3
Ntp898
Rp899
(dp900
g29
V027
p901
sg31
VSandshrew
p902
sg33
g52
sg35
V21
p903
sg37
(lp904
Vfury-swipes
p905
aVslash
p906
aVsandstorm
p907
aVsand-tomb
p908
asg43
g44
sg45
Vsand-veil
p909
sbag1
(g25
g3
Ntp910
Rp911
(dp912
g29
V343
p913
sg31
VBaltoy
p914
sg33
g34
sg35
V21
p915
sg37
(lp916
Vrapid-spin
p917
aVancient-power
p918
aVrock-tomb
p919
aVcosmic-power
p920
asg43
g44
sg45
Vlevitate
p921
sbasg60
I00
sg61
g62
sbag1
(g2
g3
Ntp922
Rp923
(dp924
g7
VSpr RS Camper.png
p925
sg9
VCamper
p926
sg11
VDrew
p927
sg13
V368
p928
sg15
g103
sg17
g18
sg19
g20
sg21
g22
sg23
(lp929
g1
(g25
g3
Ntp930
Rp931
(dp932
g29
V027
p933
sg31
VSandshrew
p934
sg33
g52
sg35
V23
p935
sg37
(lp936
Vfury-swipes
p937
aVslash
p938
aVsandstorm
p939
aVsand-tomb
p940
asg43
g44
sg45
Vsand-veil
p941
sbasg60
I00
sg61
g62
sbag1
(g2
g3
Ntp942
Rp943
(dp944
g7
VSpr RS Picnicker.png
p945
sg9
VPicnicker
p946
sg11
VBecky
p947
sg13
V352
p948
sg15
g16
sg17
g18
sg19
g20
sg21
g22
sg23
(lp949
g1
(g25
g3
Ntp950
Rp951
(dp952
g29
V027
p953
sg31
VSandshrew
p954
sg33
g76
sg35
V22
p955
sg37
(lp956
Vfury-swipes
p957
aVslash
p958
aVsandstorm
p959
aVsand-tomb
p960
asg43
g44
sg45
Vsand-veil
p961
sbag1
(g25
g3
Ntp962
Rp963
(dp964
g29
V183
p965
sg31
VMarill
p966
sg33
g76
sg35
V22
p967
sg37
(lp968
Vbubble-beam
p969
aVdefense-curl
p970
aVrollout
p971
aVrain-dance
p972
asg43
g44
sg45
Vthick-fat
p973
sbasg60
I00
sg61
g62
sbag1
(g2
g3
Ntp974
Rp975
(dp976
g7
VSpr RS Ruin Maniac.png
p977
sg9
VRuin Maniac
p978
sg11
VDusty
p979
sg13
V1380
p980
sg15
g103
sg17
g18
sg19
g20
sg21
g22
sg23
(lp981
g1
(g25
g3
Ntp982
Rp983
(dp984
g29
V028
p985
sg31
VSandslash
p986
sg33
g52
sg35
V23
p987
sg37
(lp988
Vfury-swipes
p989
aVslash
p990
aVsandstorm
p991
aVsand-tomb
p992
asg43
g44
sg45
Vsand-veil
p993
sbasg60
I00
sg61
g62
sbag1
(g2
g3
Ntp994
Rp995
(dp996
g7
VSpr RS Picnicker.png
p997
sg9
VPicnicker
p998
sg11
VCelia
p999
sg13
V352<br><small>Potential [[Double Battle]] with Bryan</small>
p1000
sg15
g16
sg17
g18
sg19
g20
sg21
g22
sg23
(lp1001
g1
(g25
g3
Ntp1002
Rp1003
(dp1004
g29
V183
p1005
sg31
VMarill
p1006
sg33
g76
sg35
V22
p1007
sg37
(lp1008
Vbubble-beam
p1009
aVdefense-curl
p1010
aVrollout
p1011
aVrain-dance
p1012
asg43
g44
sg45
Vhuge-power
p1013
sbag1
(g25
g3
Ntp1014
Rp1015
(dp1016
g29
V271
p1017
sg31
VLombre
p1018
sg33
g76
sg35
V22
p1019
sg37
(lp1020
Vuproar
p1021
aVnature-power
p1022
aVastonish
p1023
aVwater-sport
p1024
asg43
g44
sg45
Vswift-swim
p1025
sbasg60
I00
sg61
g62
sbag1
(g2
g3
Ntp1026
Rp1027
(dp1028
g7
VSpr RS Ruin Maniac.png
p1029
sg9
VRuin Maniac
p1030
sg11
VBryan
p1031
sg13
V1320<br><small>Potential [[Double Battle]] with Celia or Branden</small>
p1032
sg15
g16
sg17
g18
sg19
g20
sg21
g22
sg23
(lp1033
g1
(g25
g3
Ntp1034
Rp1035
(dp1036
g29
V027
p1037
sg31
VSandshrew
p1038
sg33
g52
sg35
V22
p1039
sg37
(lp1040
Vfury-swipes
p1041
aVslash
p1042
aVsandstorm
p1043
aVsand-tomb
p1044
asg43
g44
sg45
Vsand-veil
p1045
sbag1
(g25
g3
Ntp1046
Rp1047
(dp1048
g29
V028
p1049
sg31
VSandslash
p1050
sg33
g52
sg35
V22
p1051
sg37
(lp1052
Vfury-swipes
p1053
aVslash
p1054
aVsandstorm
p1055
aVsand-tomb
p1056
asg43
g44
sg45
Vsand-veil
p1057
sbasg60
I00
sg61
g62
sbag1
(g2
g3
Ntp1058
Rp1059
(dp1060
g7
VSpr RS Camper.png
p1061
sg9
VCamper
p1062
sg11
VBranden
p1063
sg13
V352<br><small>Potential [[Double Battle]] with Bryan</small>
p1064
sg15
g16
sg17
g18
sg19
g20
sg21
g22
sg23
(lp1065
g1
(g25
g3
Ntp1066
Rp1067
(dp1068
g29
V276
p1069
sg31
VTaillow
p1070
sg33
g52
sg35
V22
p1071
sg37
(lp1072
Vdouble-team
p1073
aVfocus-energy
p1074
aVendeavor
p1075
aVaerial-ace
p1076
asg43
g44
sg45
Vguts
p1077
sbag1
(g25
g3
Ntp1078
Rp1079
(dp1080
g29
V274
p1081
sg31
VNuzleaf
p1082
sg33
g52
sg35
V22
p1083
sg37
(lp1084
Vfake-out
p1085
aVtorment
p1086
aVnature-power
p1087
aVextrasensory
p1088
asg43
g44
sg45
Vearly-bird
p1089
sbasg60
I00
sg61
g62
sbag1
(g2
g3
Ntp1090
Rp1091
(dp1092
g7
VSpr RS Cooltrainer M.png
p1093
sg9
VCooltrainer
p1094
sg11
VWilton
p1095
sg13
V816
p1096
sg15
g124
sg17
g18
sg19
g20
sg21
g22
sg23
(lp1097
g1
(g25
g3
Ntp1098
Rp1099
(dp1100
g29
V309
p1101
sg31
VElectrike
p1102
sg33
g52
sg35
V17
p1103
sg37
(lp1104
Vspark
p1105
aVcharge
p1106
aVodor-sleuth
p1107
aVhowl
p1108
asg43
g44
sg45
Vlightning-rod
p1109
sbag1
(g25
g3
Ntp1110
Rp1111
(dp1112
g29
V320
p1113
sg31
VWailmer
p1114
sg33
g52
sg35
V17
p1115
sg37
(lp1116
Vwhirlpool
p1117
aVastonish
p1118
aVwater-spout
p1119
aVwater-pulse
p1120
asg43
g44
sg45
Voblivious
p1121
sbag1
(g25
g3
Ntp1122
Rp1123
(dp1124
g29
V296
p1125
sg31
VMakuhita
p1126
sg33
g52
sg35
V17
p1127
sg37
(lp1128
Vfake-out
p1129
aVsmelling-salts
p1130
aVknock-off
p1131
aVarm-thrust
p1132
asg43
g44
sg45
Vguts
p1133
sbasg60
I00
sg61
g62
sbag1
(g2
g3
Ntp1134
Rp1135
(dp1136
g7
VSpr RS Cooltrainer F.png
p1137
sg9
VCooltrainer
p1138
sg11
VBrooke
p1139
sg13
V816
p1140
sg15
g124
sg17
g18
sg19
g20
sg21
g22
sg23
(lp1141
g1
(g25
g3
Ntp1142
Rp1143
(dp1144
g29
V278
p1145
sg31
VWingull
p1146
sg33
g76
sg35
V17
p1147
sg37
(lp1148
Vwater-gun
p1149
aVagility
p1150
aVquick-attack
p1151
aVpursuit
p1152
asg43
g44
sg45
Vkeen-eye
p1153
sbag1
(g25
g3
Ntp1154
Rp1155
(dp1156
g29
V322
p1157
sg31
VNumel
p1158
sg33
g76
sg35
V17
p1159
sg37
(lp1160
Vearthquake
p1161
aVfocus-energy
p1162
aVamnesia
p1163
aVmagnitude
p1164
asg43
g44
sg45
Voblivious
p1165
sbag1
(g25
g3
Ntp1166
Rp1167
(dp1168
g29
V315
p1169
sg31
VRoselia
p1170
sg33
g76
sg35
V17
p1171
sg37
(lp1172
Vingrain
p1173
aVaromatherapy
p1174
aVgrass-whistle
p1175
aVmagical-leaf
p1176
asg43
g44
sg45
Vnatural-cure
p1177
sbasg60
I00
sg61
g62
sbag1
(g2
g3
Ntp1178
Rp1179
(dp1180
g7
VSpr RS Black Belt.png
p1181
sg9
VBlack Belt
p1182
sg11
VDaisuke
p1183
sg13
V608<br><small>Requires [[Mach Bike]]</small>
p1184
sg15
g103
sg17
g18
sg19
g20
sg21
g22
sg23
(lp1185
g1
(g25
g3
Ntp1186
Rp1187
(dp1188
g29
V066
p1189
sg31
VMachop
p1190
sg33
g52
sg35
V19
p1191
sg37
(lp1192
Vdynamic-punch
p1193
aVvital-throw
p1194
aVcross-chop
p1195
aVrevenge
p1196
asg43
g44
sg45
Vguts
p1197
sbasg60
I00
sg61
g62
sbag1
(g2
g3
Ntp1198
Rp1199
(dp1200
g7
VSpr RS Ruin Maniac.png
p1201
sg9
VRuin Maniac
p1202
sg11
VDusty
p1203
sg13
g1
(g368
g3
Ntp1204
Rp1205
(dp1206
g372
g1
(g373
g374
(lp1207
g1
(g376
g3
Ntp1208
Rp1209
(dp1210
g380
V1620
p1211
sbatp1212
Rp1213
(dp1214
g385
(dp1215
sbsbsg15
g103
sg17
g18
sg19
g20
sg21
g22
sg23
(lp1216
g1
(g25
g3
Ntp1217
Rp1218
(dp1219
g29
V028
p1220
sg31
VSandslash
p1221
sg33
g52
sg35
V27
p1222
sg37
(lp1223
Vfury-swipes
p1224
aVslash
p1225
aVsandstorm
p1226
aVsand-tomb
p1227
asg43
g44
sg45
Vsand-veil
p1228
sbasg60
I00
sg61
g62
sbag1
(g2
g3
Ntp1229
Rp1230
(dp1231
g7
VSpr RS Cooltrainer M.png
p1232
sg9
VCooltrainer
p1233
sg11
VWilton{{tt|*|First rematch}}
p1234
sg13
V1248
p1235
sg15
g124
sg17
g18
sg19
g20
sg21
g22
sg23
(lp1236
g1
(g25
g3
Ntp1237
Rp1238
(dp1239
g29
V309
p1240
sg31
VElectrike
p1241
sg33
g52
sg35
V26
p1242
sg37
(lp1243
Vspark
p1244
aVcharge
p1245
aVodor-sleuth
p1246
aVhowl
p1247
asg43
g44
sg45
Vlightning-rod
p1248
sbag1
(g25
g3
Ntp1249
Rp1250
(dp1251
g29
V320
p1252
sg31
VWailmer
p1253
sg33
g52
sg35
V26
p1254
sg37
(lp1255
Vwhirlpool
p1256
aVastonish
p1257
aVwater-spout
p1258
aVwater-pulse
p1259
asg43
g44
sg45
Vwater-veil
p1260
sbag1
(g25
g3
Ntp1261
Rp1262
(dp1263
g29
V296
p1264
sg31
VMakuhita
p1265
sg33
g52
sg35
V26
p1266
sg37
(lp1267
Vfake-out
p1268
aVsmelling-salts
p1269
aVknock-off
p1270
aVarm-thrust
p1271
asg43
g44
sg45
Vguts
p1272
sbasg60
I00
sg61
g62
sbag1
(g2
g3
Ntp1273
Rp1274
(dp1275
g7
VSpr RS Cooltrainer M.png
p1276
sg9
VCooltrainer
p1277
sg11
VWilton{{tt|*|Second and third rematch}}
p1278
sg13
g1
(g368
g3
Ntp1279
Rp1280
(dp1281
g372
g1
(g373
g374
(lp1282
g1
(g376
g3
Ntp1283
Rp1284
(dp1285
g380
V1392
p1286
sbatp1287
Rp1288
(dp1289
g385
(dp1290
sbsbsg15
g124
sg17
g18
sg19
g20
sg21
g22
sg23
(lp1291
g1
(g25
g3
Ntp1292
Rp1293
(dp1294
g29
V310
p1295
sg31
VManectric
p1296
sg33
g52
sg35
V29
p1297
sg37
(lp1298
Vcharge
p1299
aVodor-sleuth
p1300
aVhowl
p1301
ag1301
asg43
g44
sg45
Vstatic
p1302
sbag1
(g25
g3
Ntp1303
Rp1304
(dp1305
g29
V320
p1306
sg31
VWailmer
p1307
sg33
g52
sg35
V29
p1308
sg37
(lp1309
Vwhirlpool
p1310
aVastonish
p1311
aVwater-spout
p1312
aVwater-pulse
p1313
asg43
g44
sg45
Voblivious
p1314
sbag1
(g25
g3
Ntp1315
Rp1316
(dp1317
g29
V296
p1318
sg31
VMakuhita
p1319
sg33
g52
sg35
V29
p1320
sg37
(lp1321
Vfake-out
p1322
aVsmelling-salts
p1323
aVknock-off
p1324
aVarm-thrust
p1325
asg43
g44
sg45
Vthick-fat
p1326
sbasg60
I00
sg61
g62
sbag1
(g2
g3
Ntp1327
Rp1328
(dp1329
g7
VSpr RS Cooltrainer M.png
p1330
sg9
VCooltrainer
p1331
sg11
VWilton{{tt|*|Fourth rematch onwards}}
p1332
sg13
V1680
p1333
sg15
g124
sg17
g18
sg19
g20
sg21
g22
sg23
(lp1334
g1
(g25
g3
Ntp1335
Rp1336
(dp1337
g29
V310
p1338
sg31
VManectric
p1339
sg33
g52
sg35
V35
p1340
sg37
(lp1341
Vcharge
p1342
aVodor-sleuth
p1343
aVhowl
p1344
ag1344
asg43
g44
sg45
Vlightning-rod
p1345
sbag1
(g25
g3
Ntp1346
Rp1347
(dp1348
g29
V320
p1349
sg31
VWailmer
p1350
sg33
g52
sg35
V35
p1351
sg37
(lp1352
Vwhirlpool
p1353
aVastonish
p1354
aVwater-spout
p1355
aVwater-pulse
p1356
asg43
g44
sg45
Voblivious
p1357
sbag1
(g25
g3
Ntp1358
Rp1359
(dp1360
g29
V297
p1361
sg31
VHariyama
p1362
sg33
g52
sg35
V35
p1363
sg37
(lp1364
Vsmelling-salts
p1365
aVknock-off
p1366
aVarm-thrust
p1367
ag1367
asg43
g44
sg45
Vthick-fat
p1368
sbasg60
I00
sg61
g62
sbag1
(g2
g3
Ntp1369
Rp1370
(dp1371
g7
VSpr RS Cooltrainer F.png
p1372
sg9
VCooltrainer
p1373
sg11
VBrooke{{tt|*|First rematch}}
p1374
sg13
V1248
p1375
sg15
g124
sg17
g18
sg19
g20
sg21
g22
sg23
(lp1376
g1
(g25
g3
Ntp1377
Rp1378
(dp1379
g29
V278
p1380
sg31
VWingull
p1381
sg33
g76
sg35
V26
p1382
sg37
(lp1383
Vwater-gun
p1384
aVagility
p1385
aVquick-attack
p1386
aVpursuit
p1387
asg43
g44
sg45
Vkeen-eye
p1388
sbag1
(g25
g3
Ntp1389
Rp1390
(dp1391
g29
V322
p1392
sg31
VNumel
p1393
sg33
g76
sg35
V26
p1394
sg37
(lp1395
Vearthquake
p1396
aVfocus-energy
p1397
aVamnesia
p1398
aVmagnitude
p1399
asg43
g44
sg45
Vsimple
p1400
sbag1
(g25
g3
Ntp1401
Rp1402
(dp1403
g29
V315
p1404
sg31
VRoselia
p1405
sg33
g76
sg35
V26
p1406
sg37
(lp1407
Vingrain
p1408
aVaromatherapy
p1409
aVgrass-whistle
p1410
aVmagical-leaf
p1411
asg43
g44
sg45
Vnatural-cure
p1412
sbasg60
I00
sg61
g62
sbag1
(g2
g3
Ntp1413
Rp1414
(dp1415
g7
VSpr RS Cooltrainer F.png
p1416
sg9
VCooltrainer
p1417
sg11
VBrooke{{tt|*|Second and third rematch}}
p1418
sg13
g1
(g368
g3
Ntp1419
Rp1420
(dp1421
g372
g1
(g373
g374
(lp1422
g1
(g376
g3
Ntp1423
Rp1424
(dp1425
g380
V1392
p1426
sbatp1427
Rp1428
(dp1429
g385
(dp1430
sbsbsg15
g124
sg17
g18
sg19
g20
sg21
g22
sg23
(lp1431
g1
(g25
g3
Ntp1432
Rp1433
(dp1434
g29
V279
p1435
sg31
VPelipper
p1436
sg33
g76
sg35
V29
p1437
sg37
(lp1438
Vstockpile
p1439
aVspit-up
p1440
aVswallow
p1441
aVwater-sport
p1442
asg43
g44
sg45
Vkeen-eye
p1443
sbag1
(g25
g3
Ntp1444
Rp1445
(dp1446
g29
V322
p1447
sg31
VNumel
p1448
sg33
g76
sg35
V29
p1449
sg37
(lp1450
Vearthquake
p1451
aVfocus-energy
p1452
aVamnesia
p1453
aVmagnitude
p1454
asg43
g44
sg45
Voblivious
p1455
sbag1
(g25
g3
Ntp1456
Rp1457
(dp1458
g29
V315
p1459
sg31
VRoselia
p1460
sg33
g76
sg35
V29
p1461
sg37
(lp1462
Vingrain
p1463
aVaromatherapy
p1464
aVgrass-whistle
p1465
aVmagical-leaf
p1466
asg43
g44
sg45
Vpoison-point
p1467
sbasg60
I00
sg61
g62
sbag1
(g2
g3
Ntp1468
Rp1469
(dp1470
g7
VSpr RS Cooltrainer F.png
p1471
sg9
VCooltrainer
p1472
sg11
VBrooke{{tt|*|Fourth rematch onwards}}
p1473
sg13
V1632
p1474
sg15
g124
sg17
g18
sg19
g20
sg21
g22
sg23
(lp1475
g1
(g25
g3
Ntp1476
Rp1477
(dp1478
g29
V279
p1479
sg31
VPelipper
p1480
sg33
g76
sg35
V34
p1481
sg37
(lp1482
Vstockpile
p1483
aVspit-up
p1484
aVswallow
p1485
aVwater-sport
p1486
asg43
g44
sg45
Vdrizzle
p1487
sbag1
(g25
g3
Ntp1488
Rp1489
(dp1490
g29
V323
p1491
sg31
VCamerupt
p1492
sg33
g76
sg35
V34
p1493
sg37
(lp1494
Vrock-slide
p1495
aVmagnitude
p1496
ag1496
aVeruption
p1497
asg43
g44
sg45
Vmagma-armor
p1498
sbag1
(g25
g3
Ntp1499
Rp1500
(dp1501
g29
V315
p1502
sg31
VRoselia
p1503
sg33
g76
sg35
V34
p1504
sg37
(lp1505
Vingrain
p1506
aVaromatherapy
p1507
aVgrass-whistle
p1508
aVmagical-leaf
p1509
asg43
g44
sg45
Vpoison-point
p1510
sbasg60
I00
sg61
g62
sbag1
(g2
g3
Ntp1511
Rp1512
(dp1513
g7
VVSInterviewers.png
p1514
sg9
VInterviewers
p1515
sg11
V[[Gabby and Ty|Gabby & Ty]]
p1516
sg13
V1,600
p1517
sg15
g16
sg17
g18
sg19
g20
sg21
VSM
p1518
sg23
(lp1519
g1
(g25
g3
Ntp1520
Rp1521
(dp1522
g29
V081
p1523
sg31
VMagnemite
p1524
sg33
g34
sg35
V20
p1525
sg37
(lp1526
Vflash-cannon
p1527
aVdischarge
p1528
aVmagnet-bomb
p1529
aVelectro-ball
p1530
asg43
g44
sg45
Vsturdy
p1531
sbag1
(g25
g3
Ntp1532
Rp1533
(dp1534
g29
V293
p1535
sg31
VWhismur
p1536
sg33
g52
sg35
V20
p1537
sg37
(lp1538
Vastonish
p1539
aVhowl
p1540
aVsynchronoise
p1541
aVechoed-voice
p1542
asg43
g44
sg45
Vsoundproof
p1543
sbasg60
I00
sg61
Vsun-moon
p1544
sbag1
(g2
g3
Ntp1545
Rp1546
(dp1547
g7
VVSPicnicker.png
p1548
sg9
VPicnicker
p1549
sg11
VIrene
p1550
sg13
V288
p1551
sg15
g16
sg17
g18
sg19
g20
sg21
g1518
sg23
(lp1552
g1
(g25
g3
Ntp1553
Rp1554
(dp1555
g29
V311
p1556
sg31
VPlusle
p1557
sg33
g76
sg35
V16
p1558
sg37
(lp1559
Ventrainment
p1560
aVbestow
p1561
aVplay-nice
p1562
aVnuzzle
p1563
asg43
g44
sg45
Vplus
p1564
sbag1
(g25
g3
Ntp1565
Rp1566
(dp1567
g29
V314
p1568
sg31
VIllumise
p1569
sg33
g76
sg35
V18
p1570
sg37
(lp1571
Vstruggle-bug
p1572
aVplay-rough
p1573
aVplay-nice
p1574
aVinfestation
p1575
asg43
g44
sg45
Vtinted-lens
p1576
sbasg60
I00
sg61
g1544
sbag1
(g2
g3
Ntp1577
Rp1578
(dp1579
g7
VVSCamper.png
p1580
sg9
VCamper
p1581
sg11
VTravis
p1582
sg13
V304
p1583
sg15
g103
sg17
g18
sg19
g20
sg21
g1518
sg23
(lp1584
g1
(g25
g3
Ntp1585
Rp1586
(dp1587
g29
V027
p1588
sg31
VSandshrew
p1589
sg33
g52
sg35
V19
p1590
sg37
(lp1591
Vmagnitude
p1592
aVrapid-spin
p1593
aVsand-tomb
p1594
aVgyro-ball
p1595
asg43
g44
sg45
Vsand-veil
p1596
sbasg60
I00
sg61
g1544
sbag1
(g2
g3
Ntp1597
Rp1598
(dp1599
g7
VVSBackpacker.png
p1600
sg9
VBackpacker
p1601
sg11
VEmory
p1602
sg13
V504
p1603
sg15
g103
sg17
g18
sg19
g20
sg21
VSM
p1604
sg23
(lp1605
g1
(g25
g3
Ntp1606
Rp1607
(dp1608
g29
V276
p1609
sg31
VTaillow
p1610
sg33
g52
sg35
V21
p1611
sg37
(lp1612
Vaerial-ace
p1613
aVair-slash
p1614
aVbrave-bird
p1615
aVquick-guard
p1616
asg43
g44
sg45
Vguts
p1617
sbasg60
I00
sg61
g1544
sbag1
(g2
g3
Ntp1618
Rp1619
(dp1620
g7
VVSCamper.png
p1621
sg9
VCamper
p1622
sg11
VCliff
p1623
sg13
V416
p1624
sg15
g103
sg17
g18
sg19
g20
sg21
g1518
sg23
(lp1625
g1
(g25
g3
Ntp1626
Rp1627
(dp1628
g29
V028
p1629
sg31
VSandslash
p1630
sg33
g52
sg35
V26
p1631
sg37
(lp1632
Vrapid-spin
p1633
aVcrush-claw
p1634
aVsand-tomb
p1635
aVgyro-ball
p1636
asg43
g44
sg45
Vsand-veil
p1637
sbasg60
I00
sg61
g1544
sbag1
(g2
g3
Ntp1638
Rp1639
(dp1640
g7
VVSPicnicker.png
p1641
sg9
VPicnicker
p1642
sg11
VHeidi
p1643
sg13
V416
p1644
sg15
g103
sg17
g18
sg19
g20
sg21
g1518
sg23
(lp1645
g1
(g25
g3
Ntp1646
Rp1647
(dp1648
g29
V028
p1649
sg31
VSandslash
p1650
sg33
g76
sg35
V26
p1651
sg37
(lp1652
Vrapid-spin
p1653
aVcrush-claw
p1654
aVsand-tomb
p1655
aVgyro-ball
p1656
asg43
g44
sg45
Vsand-veil
p1657
sbasg60
I00
sg61
g1544
sbag1
(g2
g3
Ntp1658
Rp1659
(dp1660
g7
VVSCamper.png
p1661
sg9
VCamper
p1662
sg11
VDrew
p1663
sg13
V416
p1664
sg15
g103
sg17
g18
sg19
g20
sg21
g1518
sg23
(lp1665
g1
(g25
g3
Ntp1666
Rp1667
(dp1668
g29
V075
p1669
sg31
VGraveler
p1670
sg33
g52
sg35
V26
p1671
sg37
(lp1672
Vstone-edge
p1673
aVstealth-rock
p1674
aVsmack-down
p1675
aVbulldoze
p1676
asg43
g44
sg45
Vrock-head
p1677
sbasg60
I00
sg61
g1544
sbag1
(g2
g3
Ntp1678
Rp1679
(dp1680
g7
VVSRuin Maniac.png
p1681
sg9
VRuin Maniac
p1682
sg11
VDusty
p1683
sg13
V728
p1684
sg15
g16
sg17
g18
sg19
g20
sg21
VSM
p1685
sg23
(lp1686
g1
(g25
g3
Ntp1687
Rp1688
(dp1689
g29
V343
p1690
sg31
VBaltoy
p1691
sg33
g34
sg35
V24
p1692
sg37
(lp1693
Vpower-trick
p1694
aVearth-power
p1695
aVguard-split
p1696
aVpower-split
p1697
asg43
g44
sg45
Vlevitate
p1698
sbag1
(g25
g3
Ntp1699
Rp1700
(dp1701
g29
V028
p1702
sg31
VSandslash
p1703
sg33
g52
sg35
V26
p1704
sg37
(lp1705
Vrapid-spin
p1706
aVcrush-claw
p1707
aVsand-tomb
p1708
aVgyro-ball
p1709
asg43
g44
sg45
Vsand-veil
p1710
sbasg60
I00
sg61
g1544
sbag1
(g2
g3
Ntp1711
Rp1712
(dp1713
g7
VVSPicnicker.png
p1714
sg9
VPicnicker
p1715
sg11
VBecky
p1716
sg13
V416
p1717
sg15
g103
sg17
g18
sg19
g20
sg21
g1518
sg23
(lp1718
g1
(g25
g3
Ntp1719
Rp1720
(dp1721
g29
V331
p1722
sg31
VCacnea
p1723
sg33
g76
sg35
V26
p1724
sg37
(lp1725
Vneedle-arm
p1726
aVpayback
p1727
aVsucker-punch
p1728
aVenergy-ball
p1729
asg43
g44
sg45
Vsand-veil
p1730
sbasg60
I00
sg61
g1544
sbag1
(g2
g3
Ntp1731
Rp1732
(dp1733
g7
VVSBlack Belt.png
p1734
sg9
VBlack Belt
p1735
sg11
VDaisuke
p1736
sg13
V896<br><small>Requires [[Mach Bike]]</small>
p1737
sg15
g103
sg17
g18
sg19
g20
sg21
VSM
p1738
sg23
(lp1739
g1
(g25
g3
Ntp1740
Rp1741
(dp1742
g29
V067
p1743
sg31
VMachoke
p1744
sg33
g52
sg35
V28
p1745
sg37
(lp1746
Vbulk-up
p1747
aVwake-up-slap
p1748
aVlow-sweep
p1749
aVdual-chop
p1750
asg43
g44
sg45
Vno-guard
p1751
sbasg60
I00
sg61
g1544
sbag1
(g2
g3
Ntp1752
Rp1753
(dp1754
g7
VVSAce Trainer M ORAS.png
p1755
sg9
VAce Trainer
p1756
sg11
VWilton
p1757
sg13
V1,200
p1758
sg15
g124
sg17
g18
sg19
g20
sg21
g1518
sg23
(lp1759
g1
(g25
g3
Ntp1760
Rp1761
(dp1762
g29
V309
p1763
sg31
VElectrike
p1764
sg33
g52
sg35
V20
p1765
sg37
(lp1766
Vhowl
p1767
aVthunder-fang
p1768
aVdischarge
p1769
aVwild-charge
p1770
asg43
g44
sg45
Vlightning-rod
p1771
sbag1
(g25
g3
Ntp1772
Rp1773
(dp1774
g29
V296
p1775
sg31
VMakuhita
p1776
sg33
g52
sg35
V20
p1777
sg37
(lp1778
Vwake-up-slap
p1779
aVclose-combat
p1780
aVforce-palm
p1781
aVheavy-slam
p1782
asg43
g44
sg45
Vthick-fat
p1783
sbag1
(g25
g3
Ntp1784
Rp1785
(dp1786
g29
V371
p1787
sg31
VBagon
p1788
sg33
g52
sg35
V20
p1789
sg37
(lp1790
Vdragon-breath
p1791
aVcrunch
p1792
aVdragon-claw
p1793
aVzen-headbutt
p1794
asg43
g44
sg45
Vrock-head
p1795
sbasg60
I00
sg61
g1544
sbag1
(g2
g3
Ntp1796
Rp1797
(dp1798
g7
VVSFairy Tale Girl.png
p1799
sg9
VFairy Tale Girl
p1800
sg11
VCece
p1801
sg13
V304
p1802
sg15
g16
sg17
g18
sg19
g20
sg21
g1518
sg23
(lp1803
g1
(g25
g3
Ntp1804
Rp1805
(dp1806
g29
V325
p1807
sg31
VSpoink
p1808
sg33
g76
sg35
V19
p1809
sg37
(lp1810
Vpayback
p1811
aVpower-gem
p1812
aVzen-headbutt
p1813
aVpsyshock
p1814
asg43
g44
sg45
Vown-tempo
p1815
sbag1
(g25
g3
Ntp1816
Rp1817
(dp1818
g29
V303
p1819
sg31
VMawile
p1820
sg33
g76
sg35
V19
p1821
sg37
(lp1822
Viron-head
p1823
aVplay-rough
p1824
ag1824
aVfairy-wind
p1825
asg43
g44
sg45
Vintimidate
p1826
sbasg60
I00
sg61
g1544
sbag1
(g2
g3
Ntp1827
Rp1828
(dp1829
g7
VVSBackpacker.png
p1830
sg9
VBackpacker
p1831
sg11
VDeon
p1832
sg13
V504<br><small>Requires [[Mach Bike]]</small>
p1833
sg15
g103
sg17
g18
sg19
g20
sg21
g1604
sg23
(lp1834
g1
(g25
g3
Ntp1835
Rp1836
(dp1837
g29
V264
p1838
sg31
VLinoone
p1839
sg33
g52
sg35
V21
p1840
sg37
(lp1841
Vswitcheroo
p1842
aVbestow
p1843
aVrototiller
p1844
aVplay-rough
p1845
asg43
g44
sg45
Vgluttony
p1846
sbasg60
I00
sg61
g1544
sbag1
(g2
g3
Ntp1847
Rp1848
(dp1849
g7
VVSAce Trainer F ORAS.png
p1850
sg9
VAce Trainer
p1851
sg11
VBrooke
p1852
sg13
V1,200
p1853
sg15
g124
sg17
g18
sg19
g20
sg21
VSM
p1854
sg23
(lp1855
g1
(g25
g3
Ntp1856
Rp1857
(dp1858
g29
V278
p1859
sg31
VWingull
p1860
sg33
g76
sg35
V20
p1861
sg37
(lp1862
Vwater-pulse
p1863
aVroost
p1864
aVair-slash
p1865
aVhurricane
p1866
asg43
g44
sg45
Vhydration
p1867
sbag1
(g25
g3
Ntp1868
Rp1869
(dp1870
g29
V322
p1871
sg31
VNumel
p1872
sg33
g76
sg35
V20
p1873
sg37
(lp1874
Vyawn
p1875
aVearth-power
p1876
aVlava-plume
p1877
aVflame-burst
p1878
asg43
g44
sg45
Vsimple
p1879
sbag1
(g25
g3
Ntp1880
Rp1881
(dp1882
g29
V315
p1883
sg31
VRoselia
p1884
sg33
g76
sg35
V20
p1885
sg37
(lp1886
Vgrass-whistle
p1887
aVmagical-leaf
p1888
aVtoxic-spikes
p1889
aVpetal-blizzard
p1890
asg43
g44
sg45
Vnatural-cure
p1891
sbasg60
I00
sg61
g1544
sbag1
(g2
g3
Ntp1892
Rp1893
(dp1894
g7
VVSAce Trainer M ORAS.png
p1895
sg9
VAce Trainer
p1896
sg11
VWilton
p1897
sg13
V1,560<br><small>After earning the {{badge|Heat}}</small>
p1898
sg15
g124
sg17
g18
sg19
g20
sg21
g1518
sg23
(lp1899
g1
(g25
g3
Ntp1900
Rp1901
(dp1902
g29
V310
p1903
sg31
VManectric
p1904
sg33
g52
sg35
V26
p1905
sg37
(lp1906
Vdischarge
p1907
aVwild-charge
p1908
aVelectric-terrain
p1909
ag1909
asg43
g44
sg45
Vlightning-rod
p1910
sbag1
(g25
g3
Ntp1911
Rp1912
(dp1913
g29
V320
p1914
sg31
VWailmer
p1915
sg33
g52
sg35
V26
p1916
sg37
(lp1917
Vbounce
p1918
aVwater-pulse
p1919
aVbrine
p1920
aVheavy-slam
p1921
asg43
g44
sg45
Vwater-veil
p1922
sbag1
(g25
g3
Ntp1923
Rp1924
(dp1925
g29
V297
p1926
sg31
VHariyama
p1927
sg33
g52
sg35
V26
p1928
sg37
(lp1929
Vbrine
p1930
aVclose-combat
p1931
aVforce-palm
p1932
aVheavy-slam
p1933
asg43
g44
sg45
Vguts
p1934
sbasg60
I00
sg61
g1544
sbag1
(g2
g3
Ntp1935
Rp1936
(dp1937
g7
VVSAce Trainer M ORAS.png
p1938
sg9
VAce Trainer
p1939
sg11
VWilton
p1940
sg13
V1,980<br><small>After earning the {{badge|Feather}}</small>
p1941
sg15
g124
sg17
g18
sg19
g20
sg21
g1518
sg23
(lp1942
g1
(g25
g3
Ntp1943
Rp1944
(dp1945
g29
V310
p1946
sg31
VManectric
p1947
sg33
g52
sg35
V33
p1948
sg37
(lp1949
Vdischarge
p1950
aVwild-charge
p1951
aVelectric-terrain
p1952
ag1952
asg43
g44
sg45
Vlightning-rod
p1953
sbag1
(g25
g3
Ntp1954
Rp1955
(dp1956
g29
V320
p1957
sg31
VWailmer
p1958
sg33
g52
sg35
V33
p1959
sg37
(lp1960
Vbounce
p1961
aVwater-pulse
p1962
aVbrine
p1963
aVheavy-slam
p1964
asg43
g44
sg45
Vwater-veil
p1965
sbag1
(g25
g3
Ntp1966
Rp1967
(dp1968
g29
V297
p1969
sg31
VHariyama
p1970
sg33
g52
sg35
V33
p1971
sg37
(lp1972
Vbrine
p1973
aVclose-combat
p1974
aVforce-palm
p1975
aVheavy-slam
p1976
asg43
g44
sg45
Vthick-fat
p1977
sbasg60
I00
sg61
g1544
sbag1
(g2
g3
Ntp1978
Rp1979
(dp1980
g7
VVSAce Trainer M ORAS.png
p1981
sg9
VAce Trainer
p1982
sg11
VWilton
p1983
sg13
V2,580<br><small>After earning the {{badge|Rain}}</small>
p1984
sg15
V4
p1985
sg17
g18
sg19
g20
sg21
g1518
sg23
(lp1986
g1
(g25
g3
Ntp1987
Rp1988
(dp1989
g29
V310
p1990
sg31
VManectric
p1991
sg33
g52
sg35
V43
p1992
sg37
(lp1993
Vdischarge
p1994
aVwild-charge
p1995
aVelectric-terrain
p1996
ag1996
asg43
g44
sg45
Vstatic
p1997
sbag1
(g25
g3
Ntp1998
Rp1999
(dp2000
g29
V611
p2001
sg31
VFraxure
p2002
sg33
g52
sg35
V43
p2003
sg37
(lp2004
Vassurance
p2005
aVdragon-pulse
p2006
aVgiga-impact
p2007
aVdual-chop
p2008
asg43
g44
sg45
Vmold-breaker
p2009
sbag1
(g25
g3
Ntp2010
Rp2011
(dp2012
g29
V297
p2013
sg31
VHariyama
p2014
sg33
g52
sg35
V43
p2015
sg37
(lp2016
Vbrine
p2017
aVclose-combat
p2018
aVforce-palm
p2019
aVheavy-slam
p2020
asg43
g44
sg45
Vguts
p2021
sbag1
(g25
g3
Ntp2022
Rp2023
(dp2024
g29
V321
p2025
sg31
VWailord
p2026
sg33
g52
sg35
V43
p2027
sg37
(lp2028
Vheavy-slam
p2029
ag2029
aVsoak
p2030
aVnoble-roar
p2031
asg43
g44
sg45
Voblivious
p2032
sbasg60
I00
sg61
g1544
sbag1
(g2
g3
Ntp2033
Rp2034
(dp2035
g7
VVSAce Trainer M ORAS.png
p2036
sg9
VAce Trainer
p2037
sg11
VWilton
p2038
sg13
V3,120<br><small>After entering the [[Hall of Fame]]</small>
p2039
sg15
V5
p2040
sg17
g18
sg19
g20
sg21
g1518
sg23
(lp2041
g1
(g25
g3
Ntp2042
Rp2043
(dp2044
g29
V663
p2045
sg31
VTalonflame
p2046
sg33
g52
sg35
V50
p2047
sg37
(lp2048
Vbrave-bird
p2049
ag2049
aVflame-charge
p2050
aVacrobatics
p2051
asg43
g44
sg45
Vflame-body
p2052
sbag1
(g25
g3
Ntp2053
Rp2054
(dp2055
g29
V310
p2056
sg31
VManectric
p2057
sg33
g52
sg35
V51
p2058
sg37
(lp2059
Vdischarge
p2060
aVwild-charge
p2061
aVelectric-terrain
p2062
ag2062
asg43
g44
sg45
Vlightning-rod
p2063
sbag1
(g25
g3
Ntp2064
Rp2065
(dp2066
g29
V321
p2067
sg31
VWailord
p2068
sg33
g52
sg35
V51
p2069
sg37
(lp2070
Vheavy-slam
p2071
ag2071
aVsoak
p2072
aVnoble-roar
p2073
asg43
g44
sg45
Voblivious
p2074
sbag1
(g25
g3
Ntp2075
Rp2076
(dp2077
g29
V297
p2078
sg31
VHariyama
p2079
sg33
g52
sg35
V51
p2080
sg37
(lp2081
Vbrine
p2082
aVclose-combat
p2083
aVforce-palm
p2084
aVheavy-slam
p2085
asg43
g44
sg45
Vthick-fat
p2086
sbag1
(g25
g3
Ntp2087
Rp2088
(dp2089
g29
V612
p2090
sg31
VHaxorus
p2091
sg33
g52
sg35
V52
p2092
sg37
(lp2093
Vassurance
p2094
aVdragon-pulse
p2095
aVgiga-impact
p2096
aVdual-chop
p2097
asg43
g44
sg45
Vrivalry
p2098
sbasg60
I00
sg61
g1544
sbag1
(g2
g3
Ntp2099
Rp2100
(dp2101
g7
VVSAce Trainer F ORAS.png
p2102
sg9
VAce Trainer
p2103
sg11
VBrooke
p2104
sg13
V1,560<br><small>After earning the {{badge|Heat}}</small>
p2105
sg15
g124
sg17
g18
sg19
g20
sg21
g1854
sg23
(lp2106
g1
(g25
g3
Ntp2107
Rp2108
(dp2109
g29
V279
p2110
sg31
VPelipper
p2111
sg33
g76
sg35
V26
p2112
sg37
(lp2113
Vfling
p2114
aVsoak
p2115
aVhurricane
p2116
ag2116
asg43
g44
sg45
Vdrizzle
p2117
sbag1
(g25
g3
Ntp2118
Rp2119
(dp2120
g29
V322
p2121
sg31
VNumel
p2122
sg33
g76
sg35
V26
p2123
sg37
(lp2124
Vyawn
p2125
aVearth-power
p2126
aVlava-plume
p2127
aVflame-burst
p2128
asg43
g44
sg45
Voblivious
p2129
sbag1
(g25
g3
Ntp2130
Rp2131
(dp2132
g29
V315
p2133
sg31
VRoselia
p2134
sg33
g76
sg35
V26
p2135
sg37
(lp2136
Vgrass-whistle
p2137
aVmagical-leaf
p2138
aVtoxic-spikes
p2139
aVpetal-blizzard
p2140
asg43
g44
sg45
Vnatural-cure
p2141
sbasg60
I00
sg61
g1544
sbag1
(g2
g3
Ntp2142
Rp2143
(dp2144
g7
VVSAce Trainer F ORAS.png
p2145
sg9
VAce Trainer
p2146
sg11
VBrooke
p2147
sg13
V1,980<br><small>After earning the {{badge|Feather}}</small>
p2148
sg15
g124
sg17
g18
sg19
g20
sg21
g1854
sg23
(lp2149
g1
(g25
g3
Ntp2150
Rp2151
(dp2152
g29
V279
p2153
sg31
VPelipper
p2154
sg33
g76
sg35
V33
p2155
sg37
(lp2156
Vfling
p2157
aVsoak
p2158
aVhurricane
p2159
ag2159
asg43
g44
sg45
Vkeen-eye
p2160
sbag1
(g25
g3
Ntp2161
Rp2162
(dp2163
g29
V323
p2164
sg31
VCamerupt
p2165
sg33
g76
sg35
V33
p2166
sg37
(lp2167
Veruption
p2168
aVearth-power
p2169
aVlava-plume
p2170
aVflame-burst
p2171
asg43
g44
sg45
Vsolid-rock
p2172
sbag1
(g25
g3
Ntp2173
Rp2174
(dp2175
g29
V315
p2176
sg31
VRoselia
p2177
sg33
g76
sg35
V33
p2178
sg37
(lp2179
Vgrass-whistle
p2180
aVmagical-leaf
p2181
aVtoxic-spikes
p2182
aVpetal-blizzard
p2183
asg43
g44
sg45
Vpoison-point
p2184
sbasg60
I00
sg61
g1544
sbag1
(g2
g3
Ntp2185
Rp2186
(dp2187
g7
VVSAce Trainer F ORAS.png
p2188
sg9
VAce Trainer
p2189
sg11
VBrooke
p2190
sg13
V2,640<br><small>After earning the {{badge|Rain}}</small>
p2191
sg15
g124
sg17
g18
sg19
g20
sg21
g1854
sg23
(lp2192
g1
(g25
g3
Ntp2193
Rp2194
(dp2195
g29
V279
p2196
sg31
VPelipper
p2197
sg33
g76
sg35
V44
p2198
sg37
(lp2199
Vfling
p2200
aVsoak
p2201
aVhurricane
p2202
ag2202
asg43
g44
sg45
Vkeen-eye
p2203
sbag1
(g25
g3
Ntp2204
Rp2205
(dp2206
g29
V323
p2207
sg31
VCamerupt
p2208
sg33
g76
sg35
V44
p2209
sg37
(lp2210
Veruption
p2211
aVearth-power
p2212
aVlava-plume
p2213
aVflame-burst
p2214
asg43
g44
sg45
Vmagma-armor
p2215
sbag1
(g25
g3
Ntp2216
Rp2217
(dp2218
g29
V407
p2219
sg31
VRoserade
p2220
sg33
g76
sg35
V44
p2221
sg37
(lp2222
Vweather-ball
p2223
aVmagical-leaf
p2224
aVgrassy-terrain
p2225
aVvenom-drench
p2226
asg43
g44
sg45
Vpoison-point
p2227
sbasg60
I00
sg61
g1544
sbag1
(g2
g3
Ntp2228
Rp2229
(dp2230
g7
VVSAce Trainer F ORAS.png
p2231
sg9
VAce Trainer
p2232
sg11
VBrooke
p2233
sg13
V3,120<br><small>After entering the [[Hall of Fame]]</small>
p2234
sg15
g2040
sg17
g18
sg19
g20
sg21
g1854
sg23
(lp2235
g1
(g25
g3
Ntp2236
Rp2237
(dp2238
g29
V432
p2239
sg31
VPurugly
p2240
sg33
g76
sg35
V50
p2241
sg37
(lp2242
Vfake-out
p2243
aVassist
p2244
aVcaptivate
p2245
aVhone-claws
p2246
asg43
g44
sg45
Vthick-fat
p2247
sbag1
(g25
g3
Ntp2248
Rp2249
(dp2250
g29
V279
p2251
sg31
VPelipper
p2252
sg33
g76
sg35
V51
p2253
sg37
(lp2254
Vfling
p2255
aVsoak
p2256
aVhurricane
p2257
ag2257
asg43
g44
sg45
Vkeen-eye
p2258
sbag1
(g25
g3
Ntp2259
Rp2260
(dp2261
g29
V323
p2262
sg31
VCamerupt
p2263
sg33
g76
sg35
V51
p2264
sg37
(lp2265
Veruption
p2266
aVearth-power
p2267
aVlava-plume
p2268
aVflame-burst
p2269
asg43
g44
sg45
Vmagma-armor
p2270
sbag1
(g25
g3
Ntp2271
Rp2272
(dp2273
g29
V407
p2274
sg31
VRoserade
p2275
sg33
g76
sg35
V51
p2276
sg37
(lp2277
Vweather-ball
p2278
aVmagical-leaf
p2279
aVgrassy-terrain
p2280
aVvenom-drench
p2281
asg43
g44
sg45
Vnatural-cure
p2282
sbag1
(g25
g3
Ntp2283
Rp2284
(dp2285
g29
V131
p2286
sg31
VLapras
p2287
sg33
g76
sg35
V52
p2288
sg37
(lp2289
Vsheer-cold
p2290
aVwater-pulse
p2291
aVbrine
p2292
aVice-shard
p2293
asg43
g44
sg45
Vshell-armor
p2294
sbasg60
I00
sg61
g1544
sbag1
(g2
g3
Ntp2295
Rp2296
(dp2297
g7
VVSRuin Maniac.png
p2298
sg9
VRuin Maniac
p2299
sg11
VDusty
p2300
sg13
V756<br><small>After earning the {{badge|Balance}}</small>
p2301
sg15
g16
sg17
g18
sg19
g20
sg21
g1685
sg23
(lp2302
g1
(g25
g3
Ntp2303
Rp2304
(dp2305
g29
V343
p2306
sg31
VBaltoy
p2307
sg33
g34
sg35
V27
p2308
sg37
(lp2309
Vpower-trick
p2310
aVearth-power
p2311
aVguard-split
p2312
aVpower-split
p2313
asg43
g44
sg45
Vlevitate
p2314
sbag1
(g25
g3
Ntp2315
Rp2316
(dp2317
g29
V028
p2318
sg31
VSandslash
p2319
sg33
g52
sg35
V27
p2320
sg37
(lp2321
Vrapid-spin
p2322
aVcrush-claw
p2323
aVsand-tomb
p2324
aVgyro-ball
p2325
asg43
g44
sg45
Vsand-veil
p2326
sbasg60
I00
sg61
g1544
sbag1
(g2
g3
Ntp2327
Rp2328
(dp2329
g7
VVSRuin Maniac.png
p2330
sg9
VRuin Maniac
p2331
sg11
VDusty
p2332
sg13
V896<br><small>After earning the {{badge|Feather}}</small>
p2333
sg15
g16
sg17
g18
sg19
g20
sg21
g1685
sg23
(lp2334
g1
(g25
g3
Ntp2335
Rp2336
(dp2337
g29
V343
p2338
sg31
VBaltoy
p2339
sg33
g34
sg35
V32
p2340
sg37
(lp2341
Vpower-trick
p2342
aVearth-power
p2343
aVguard-split
p2344
aVpower-split
p2345
asg43
g44
sg45
Vlevitate
p2346
sbag1
(g25
g3
Ntp2347
Rp2348
(dp2349
g29
V028
p2350
sg31
VSandslash
p2351
sg33
g52
sg35
V32
p2352
sg37
(lp2353
Vrapid-spin
p2354
aVcrush-claw
p2355
aVsand-tomb
p2356
aVgyro-ball
p2357
asg43
g44
sg45
Vsand-veil
p2358
sbasg60
I00
sg61
g1544
sbag1
(g2
g3
Ntp2359
Rp2360
(dp2361
g7
VVSRuin Maniac.png
p2362
sg9
VRuin Maniac
p2363
sg11
VDusty
p2364
sg13
V1,092<br><small>After earning the {{badge|Mind}}</small>
p2365
sg15
g16
sg17
g18
sg19
g20
sg21
g1685
sg23
(lp2366
g1
(g25
g3
Ntp2367
Rp2368
(dp2369
g29
V028
p2370
sg31
VSandslash
p2371
sg33
g52
sg35
V39
p2372
sg37
(lp2373
Vrapid-spin
p2374
aVcrush-claw
p2375
aVsand-tomb
p2376
aVgyro-ball
p2377
asg43
g44
sg45
Vsand-veil
p2378
sbag1
(g25
g3
Ntp2379
Rp2380
(dp2381
g29
V344
p2382
sg31
VClaydol
p2383
sg33
g34
sg35
V39
p2384
sg37
(lp2385
Vpower-trick
p2386
aVearth-power
p2387
aVguard-split
p2388
aVpower-split
p2389
asg43
g44
sg45
Vlevitate
p2390
sbasg60
I00
sg61
g1544
sbag1
(g2
g3
Ntp2391
Rp2392
(dp2393
g7
VVSRuin Maniac.png
p2394
sg9
VRuin Maniac
p2395
sg11
VDusty
p2396
sg13
V1,288<br><small>After entering the [[Hall of Fame]]</small>
p2397
sg15
g2040
sg17
g18
sg19
g20
sg21
g1685
sg23
(lp2398
g1
(g25
g3
Ntp2399
Rp2400
(dp2401
g29
V028
p2402
sg31
VSandslash
p2403
sg33
g52
sg35
V46
p2404
sg37
(lp2405
Vrapid-spin
p2406
aVcrush-claw
p2407
aVsand-tomb
p2408
aVgyro-ball
p2409
asg43
g44
sg45
Vsand-veil
p2410
sbag1
(g25
g3
Ntp2411
Rp2412
(dp2413
g29
V697
p2414
sg31
VTyrantrum
p2415
sg33
g52
sg35
V46
p2416
sg37
(lp2417
Vstealth-rock
p2418
aVhead-smash
p2419
ag2419
aVdragon-tail
p2420
asg43
g44
sg45
Vstrong-jaw
p2421
sbag1
(g25
g3
Ntp2422
Rp2423
(dp2424
g29
V699
p2425
sg31
VAurorus
p2426
sg33
g52
sg35
V46
p2427
sg37
(lp2428
Vnature-power
p2429
aVavalanche
p2430
aVround
p2431
aVfreeze-dry
p2432
asg43
g44
sg45
Vrefrigerate
p2433
sbag1
(g25
g3
Ntp2434
Rp2435
(dp2436
g29
V344
p2437
sg31
VClaydol
p2438
sg33
g34
sg35
V46
p2439
sg37
(lp2440
Vpower-trick
p2441
aVearth-power
p2442
aVguard-split
p2443
aVpower-split
p2444
asg43
g44
sg45
Vlevitate
p2445
sbag1
(g25
g3
Ntp2446
Rp2447
(dp2448
g29
V142
p2449
sg31
VAerodactyl
p2450
sg33
g52
sg35
V46
p2451
sg37
(lp2452
Vfire-fang
p2453
aViron-head
p2454
ag2454
aVsky-drop
p2455
asg43
g44
sg45
Vrock-head
p2456
sbasg60
I00
sg61
g1544
sba.