(lp0
ccopy_reg
_reconstructor
p1
(c__main__
Trainer
p2
c__builtin__
object
p3
Ntp4
Rp5
(dp6
VtSprite
p7
VSpr RS Swimmer F.png
p8
sVtClass
p9
VSwimmer
p10
sVtName
p11
VGrace
p12
sVtMoney
p13
V264
p14
sVtPokeCount
p15
V3
p16
sVtLocation
p17
Vwiki/Hoenn_Route_124
p18
sVtRegion
p19
VHoenn
p20
sVtGame
p21
VRS
p22
sVtPokes
p23
(lp24
g1
(c__main__
FinishedPokemon
p25
g3
Ntp26
Rp27
(dp28
VpDexNo
p29
V183
p30
sVpSpecies
p31
VMarill
p32
sVpGender
p33
VF
p34
sVpLevel
p35
V33
p36
sVpMoves
p37
(lp38
Vbubble-beam
p39
aVdefense-curl
p40
aVrollout
p41
aVrain-dance
p42
asVpHold
p43
V
p44
sVpAbility
p45
Vthick-fat
p46
sbag1
(g25
g3
Ntp47
Rp48
(dp49
g29
V320
p50
sg31
VWailmer
p51
sg33
g34
sg35
V33
p52
sg37
(lp53
Vwhirlpool
p54
aVastonish
p55
aVwater-spout
p56
aVwater-pulse
p57
asg43
g44
sg45
Voblivious
p58
sbag1
(g25
g3
Ntp59
Rp60
(dp61
g29
V278
p62
sg31
VWingull
p63
sg33
g34
sg35
V33
p64
sg37
(lp65
Vwater-gun
p66
aVagility
p67
aVquick-attack
p68
aVpursuit
p69
asg43
g44
sg45
Vhydration
p70
sbasVbossFlag
p71
I00
sVtLongGame
p72
Vruby-sapphire
p73
sbag1
(g2
g3
Ntp74
Rp75
(dp76
g7
VSpr RS Sis and Bro.png
p77
sg9
VSis and Bro
p78
sg11
VRita & Sam
p79
sg13
V816
p80
sg15
V2
p81
sg17
g18
sg19
g20
sg21
g22
sg23
(lp82
g1
(g25
g3
Ntp83
Rp84
(dp85
g29
V170
p86
sg31
VChinchou
p87
sg33
VM
p88
sg35
V36
p89
sg37
(lp90
Vbubble
p91
aVflail
p92
aVspark
p93
aVcharge
p94
asg43
g44
sg45
Villuminate
p95
sbag1
(g25
g3
Ntp96
Rp97
(dp98
g29
V318
p99
sg31
VCarvanha
p100
sg33
g88
sg35
V34
p101
sg37
(lp102
Vfocus-energy
p103
aVscary-face
p104
aVswagger
p105
aVcrunch
p106
asg43
g44
sg45
Vrough-skin
p107
sbasg71
I00
sg72
g73
sbag1
(g2
g3
Ntp108
Rp109
(dp110
g7
VSpr RS Swimmer M.png
p111
sg9
VSwimmer
p112
sg11
VSpencer
p113
sg13
V264
p114
sg15
g16
sg17
g18
sg19
g20
sg21
g22
sg23
(lp115
g1
(g25
g3
Ntp116
Rp117
(dp118
g29
V072
p119
sg31
VTentacool
p120
sg33
g88
sg35
V33
p121
sg37
(lp122
Vbubble-beam
p123
aVscreech
p124
aVbarrier
p125
aVconstrict
p126
asg43
g44
sg45
Vliquid-ooze
p127
sbag1
(g25
g3
Ntp128
Rp129
(dp130
g29
V072
p131
sg31
VTentacool
p132
sg33
g88
sg35
V33
p133
sg37
(lp134
Vbubble-beam
p135
aVscreech
p136
aVbarrier
p137
aVconstrict
p138
asg43
g44
sg45
Vclear-body
p139
sbag1
(g25
g3
Ntp140
Rp141
(dp142
g29
V072
p143
sg31
VTentacool
p144
sg33
g88
sg35
V33
p145
sg37
(lp146
Vbubble-beam
p147
aVscreech
p148
aVbarrier
p149
aVconstrict
p150
asg43
g44
sg45
Vliquid-ooze
p151
sbasg71
I00
sg72
g73
sbag1
(g2
g3
Ntp152
Rp153
(dp154
g7
VSpr RS Swimmer F.png
p155
sg9
VSwimmer
p156
sg11
VJenny
p157
sg13
V280
p158
sg15
V1
p159
sg17
g18
sg19
g20
sg21
g22
sg23
(lp160
g1
(g25
g3
Ntp161
Rp162
(dp163
g29
V320
p164
sg31
VWailmer
p165
sg33
g34
sg35
V35
p166
sg37
(lp167
Vwhirlpool
p168
aVastonish
p169
aVwater-spout
p170
aVwater-pulse
p171
asg43
g44
sg45
Vwater-veil
p172
sbasg71
I00
sg72
g73
sbag1
(g2
g3
Ntp173
Rp174
(dp175
g7
VSpr RS Swimmer M.png
p176
sg9
VSwimmer
p177
sg11
VChad
p178
sg13
V272
p179
sg15
g81
sg17
g18
sg19
g20
sg21
g22
sg23
(lp180
g1
(g25
g3
Ntp181
Rp182
(dp183
g29
V278
p184
sg31
VWingull
p185
sg33
g88
sg35
V34
p186
sg37
(lp187
Vwater-gun
p188
aVagility
p189
aVquick-attack
p190
aVpursuit
p191
asg43
g44
sg45
Vhydration
p192
sbag1
(g25
g3
Ntp193
Rp194
(dp195
g29
V320
p196
sg31
VWailmer
p197
sg33
g88
sg35
V34
p198
sg37
(lp199
Vwhirlpool
p200
aVastonish
p201
aVwater-spout
p202
aVwater-pulse
p203
asg43
g44
sg45
Vwater-veil
p204
sbasg71
I00
sg72
g73
sbag1
(g2
g3
Ntp205
Rp206
(dp207
g7
VSpr RS Swimmer M.png
p208
sg9
VSwimmer
p209
sg11
VRoland
p210
sg13
V280
p211
sg15
g159
sg17
g18
sg19
g20
sg21
g22
sg23
(lp212
g1
(g25
g3
Ntp213
Rp214
(dp215
g29
V318
p216
sg31
VCarvanha
p217
sg33
g88
sg35
V35
p218
sg37
(lp219
Vfocus-energy
p220
aVscary-face
p221
aVswagger
p222
aVcrunch
p223
asg43
g44
sg45
Vrough-skin
p224
sbasg71
I00
sg72
g73
sbag1
(g2
g3
Ntp225
Rp226
(dp227
g7
VSpr RS Sis and Bro.png
p228
sg9
VSis and Bro
p229
sg11
VLila & Roy{{tt|*|First rematch}}
p230
sg13
V960
p231
sg15
g81
sg17
g18
sg19
g20
sg21
g22
sg23
(lp232
g1
(g25
g3
Ntp233
Rp234
(dp235
g29
V170
p236
sg31
VChinchou
p237
sg33
g88
sg35
V42
p238
sg37
(lp239
Vbubble
p240
aVflail
p241
aVspark
p242
aVcharge
p243
asg43
g44
sg45
Vvolt-absorb
p244
sbag1
(g25
g3
Ntp245
Rp246
(dp247
g29
V318
p248
sg31
VCarvanha
p249
sg33
g88
sg35
V40
p250
sg37
(lp251
Vfocus-energy
p252
aVscary-face
p253
aVswagger
p254
aVcrunch
p255
asg43
g44
sg45
Vrough-skin
p256
sbasg71
I00
sg72
g73
sbag1
(g2
g3
Ntp257
Rp258
(dp259
g7
VSpr RS Sis and Bro.png
p260
sg9
VSis and Bro
p261
sg11
VLila & Roy{{tt|*|Second rematch}}
p262
sg13
V1032
p263
sg15
g81
sg17
g18
sg19
g20
sg21
g22
sg23
(lp264
g1
(g25
g3
Ntp265
Rp266
(dp267
g29
V171
p268
sg31
VLanturn
p269
sg33
g88
sg35
V45
p270
sg37
(lp271
Vbubble
p272
aVflail
p273
aVspark
p274
aVcharge
p275
asg43
g44
sg45
Villuminate
p276
sbag1
(g25
g3
Ntp277
Rp278
(dp279
g29
V318
p280
sg31
VCarvanha
p281
sg33
g88
sg35
V43
p282
sg37
(lp283
Vfocus-energy
p284
aVscary-face
p285
aVswagger
p286
aVcrunch
p287
asg43
g44
sg45
Vrough-skin
p288
sbasg71
I00
sg72
g73
sbag1
(g2
g3
Ntp289
Rp290
(dp291
g7
VSpr RS Sis and Bro.png
p292
sg9
VSis and Bro
p293
sg11
VLila & Roy{{tt|*|Third and fourth rematch onwards}}
p294
sg13
g1
(cmwparserfromhell.wikicode
Wikicode
p295
g3
Ntp296
Rp297
(dp298
V_nodes
p299
g1
(cmwparserfromhell.smart_list.smart_list
SmartList
p300
c__builtin__
list
p301
(lp302
g1
(cmwparserfromhell.nodes.text
Text
p303
g3
Ntp304
Rp305
(dp306
V_value
p307
V1104
p308
sbatp309
Rp310
(dp311
V_children
p312
(dp313
sbsbsg15
g81
sg17
g18
sg19
g20
sg21
g22
sg23
(lp314
g1
(g25
g3
Ntp315
Rp316
(dp317
g29
V171
p318
sg31
VLanturn
p319
sg33
g88
sg35
V48
p320
sg37
(lp321
Vbubble
p322
aVflail
p323
aVspark
p324
aVcharge
p325
asg43
g44
sg45
Vvolt-absorb
p326
sbag1
(g25
g3
Ntp327
Rp328
(dp329
g29
V319
p330
sg31
VSharpedo
p331
sg33
g88
sg35
V46
p332
sg37
(lp333
Vscary-face
p334
aVswagger
p335
aVcrunch
p336
aVtaunt
p337
asg43
g44
sg45
Vrough-skin
p338
sbasg71
I00
sg72
g73
sbag1
(g2
g3
Ntp339
Rp340
(dp341
g7
VSpr RS Swimmer F.png
p342
sg9
VSwimmer
p343
sg11
VJenny{{tt|*|First and second rematch}}
p344
sg13
g1
(g295
g3
Ntp345
Rp346
(dp347
g299
g1
(g300
g301
(lp348
g1
(g303
g3
Ntp349
Rp350
(dp351
g307
V304
p352
sbatp353
Rp354
(dp355
g312
(dp356
sbsbsg15
g159
sg17
g18
sg19
g20
sg21
g22
sg23
(lp357
g1
(g25
g3
Ntp358
Rp359
(dp360
g29
V320
p361
sg31
VWailmer
p362
sg33
g34
sg35
V38
p363
sg37
(lp364
Vwhirlpool
p365
aVastonish
p366
aVwater-spout
p367
aVwater-pulse
p368
asg43
g44
sg45
Vwater-veil
p369
sbasg71
I00
sg72
g73
sbag1
(g2
g3
Ntp370
Rp371
(dp372
g7
VSpr RS Swimmer F.png
p373
sg9
VSwimmer
p374
sg11
VJenny{{tt|*|Third rematch}}
p375
sg13
V344
p376
sg15
g81
sg17
g18
sg19
g20
sg21
g22
sg23
(lp377
g1
(g25
g3
Ntp378
Rp379
(dp380
g29
V120
p381
sg31
VStaryu
p382
sg33
VU
p383
sg35
V43
p384
sg37
(lp385
Vswift
p386
aVrapid-spin
p387
aVcamouflage
p388
aVcosmic-power
p389
asg43
g44
sg45
Vnatural-cure
p390
sbag1
(g25
g3
Ntp391
Rp392
(dp393
g29
V320
p394
sg31
VWailmer
p395
sg33
g34
sg35
V43
p396
sg37
(lp397
Vwhirlpool
p398
aVastonish
p399
aVwater-spout
p400
aVwater-pulse
p401
asg43
g44
sg45
Vwater-veil
p402
sbasg71
I00
sg72
g73
sbag1
(g2
g3
Ntp403
Rp404
(dp405
g7
VSpr RS Swimmer F.png
p406
sg9
VSwimmer
p407
sg11
VJenny{{tt|*|Fourth rematch onwards}}
p408
sg13
V360
p409
sg15
g16
sg17
g18
sg19
g20
sg21
g22
sg23
(lp410
g1
(g25
g3
Ntp411
Rp412
(dp413
g29
V370
p414
sg31
VLuvdisc
p415
sg33
g34
sg35
V45
p416
sg37
(lp417
Vsweet-kiss
p418
aVcharm
p419
aVattract
p420
aVsafeguard
p421
asg43
g44
sg45
Vswift-swim
p422
sbag1
(g25
g3
Ntp423
Rp424
(dp425
g29
V320
p426
sg31
VWailmer
p427
sg33
g34
sg35
V45
p428
sg37
(lp429
Vwhirlpool
p430
aVastonish
p431
aVwater-spout
p432
aVwater-pulse
p433
asg43
g44
sg45
Voblivious
p434
sbag1
(g25
g3
Ntp435
Rp436
(dp437
g29
V121
p438
sg31
VStarmie
p439
sg33
g383
sg35
V45
p440
sg37
(lp441
Vrecover
p442
aVconfuse-ray
p443
aVswift
p444
aVrapid-spin
p445
asg43
g44
sg45
Villuminate
p446
sbasg71
I00
sg72
g73
sbag1
(g2
g3
Ntp447
Rp448
(dp449
g7
VSpr RS Swimmer F.png
p450
sg9
VSwimmer
p451
sg11
VGrace
p452
sg13
V272<br><small>Potential [[Double Battle]] with Declan</small>
p453
sg15
g159
sg17
g18
sg19
g20
sg21
g22
sg23
(lp454
g1
(g25
g3
Ntp455
Rp456
(dp457
g29
V183
p458
sg31
VMarill
p459
sg33
g34
sg35
V34
p460
sg37
(lp461
Vbubble-beam
p462
aVdefense-curl
p463
aVrollout
p464
aVrain-dance
p465
asg43
g44
sg45
Vhuge-power
p466
sbasg71
I00
sg72
g73
sbag1
(g2
g3
Ntp467
Rp468
(dp469
g7
VSpr RS Swimmer M.png
p470
sg9
VSwimmer
p471
sg11
VDeclan
p472
sg13
V272<br><small>Potential [[Double Battle]] with Grace</small>
p473
sg15
g159
sg17
g18
sg19
g20
sg21
g22
sg23
(lp474
g1
(g25
g3
Ntp475
Rp476
(dp477
g29
V130
p478
sg31
VGyarados
p479
sg33
g88
sg35
V34
p480
sg37
(lp481
Vdragon-rage
p482
aVtwister
p483
aVrain-dance
p484
aVdragon-dance
p485
asg43
g44
sg45
Vintimidate
p486
sbasg71
I00
sg72
g73
sbag1
(g2
g3
Ntp487
Rp488
(dp489
g7
VSpr RS Sis and Bro.png
p490
sg9
VSis and Bro
p491
sg11
VLila & Roy
p492
sg13
V792
p493
sg15
g81
sg17
g18
sg19
g20
sg21
g22
sg23
(lp494
g1
(g25
g3
Ntp495
Rp496
(dp497
g29
V170
p498
sg31
VChinchou
p499
sg33
g88
sg35
V34
p500
sg37
(lp501
Vbubble
p502
aVflail
p503
aVspark
p504
aVcharge
p505
asg43
g44
sg45
Villuminate
p506
sbag1
(g25
g3
Ntp507
Rp508
(dp509
g29
V318
p510
sg31
VCarvanha
p511
sg33
g88
sg35
V33
p512
sg37
(lp513
Vfocus-energy
p514
aVscary-face
p515
aVswagger
p516
aVcrunch
p517
asg43
g44
sg45
Vrough-skin
p518
sbasg71
I00
sg72
g73
sbag1
(g2
g3
Ntp519
Rp520
(dp521
g7
VSpr RS Swimmer M.png
p522
sg9
VSwimmer
p523
sg11
VSpencer
p524
sg13
V264
p525
sg15
g81
sg17
g18
sg19
g20
sg21
g22
sg23
(lp526
g1
(g25
g3
Ntp527
Rp528
(dp529
g29
V072
p530
sg31
VTentacool
p531
sg33
g88
sg35
V33
p532
sg37
(lp533
Vbubble-beam
p534
aVscreech
p535
aVbarrier
p536
aVconstrict
p537
asg43
g44
sg45
Vliquid-ooze
p538
sbag1
(g25
g3
Ntp539
Rp540
(dp541
g29
V278
p542
sg31
VWingull
p543
sg33
g88
sg35
V33
p544
sg37
(lp545
Vwater-gun
p546
aVagility
p547
aVquick-attack
p548
aVpursuit
p549
asg43
g44
sg45
Vkeen-eye
p550
sbasg71
I00
sg72
g73
sbag1
(g2
g3
Ntp551
Rp552
(dp553
g7
VSpr RS Swimmer F.png
p554
sg9
VSwimmer
p555
sg11
VJenny
p556
sg13
V272
p557
sg15
g159
sg17
g18
sg19
g20
sg21
g22
sg23
(lp558
g1
(g25
g3
Ntp559
Rp560
(dp561
g29
V320
p562
sg31
VWailmer
p563
sg33
g34
sg35
V34
p564
sg37
(lp565
Vwhirlpool
p566
aVastonish
p567
aVwater-spout
p568
aVwater-pulse
p569
asg43
g44
sg45
Vwater-veil
p570
sbasg71
I00
sg72
g73
sbag1
(g2
g3
Ntp571
Rp572
(dp573
g7
VSpr RS Swimmer M.png
p574
sg9
VSwimmer
p575
sg11
VChad
p576
sg13
V264
p577
sg15
g81
sg17
g18
sg19
g20
sg21
g22
sg23
(lp578
g1
(g25
g3
Ntp579
Rp580
(dp581
g29
V072
p582
sg31
VTentacool
p583
sg33
g88
sg35
V33
p584
sg37
(lp585
Vbubble-beam
p586
aVscreech
p587
aVbarrier
p588
aVconstrict
p589
asg43
g44
sg45
Vliquid-ooze
p590
sbag1
(g25
g3
Ntp591
Rp592
(dp593
g29
V320
p594
sg31
VWailmer
p595
sg33
g88
sg35
V33
p596
sg37
(lp597
Vwhirlpool
p598
aVastonish
p599
aVwater-spout
p600
aVwater-pulse
p601
asg43
g44
sg45
Voblivious
p602
sbasg71
I00
sg72
g73
sbag1
(g2
g3
Ntp603
Rp604
(dp605
g7
VSpr RS Triathlete Swimmer F.png
p606
sg9
VTriathlete
p607
sg11
VIsabella
p608
sg13
V1360<br><small>Potential [[Double Battle]] with Roland</small>
p609
sg15
g159
sg17
g18
sg19
g20
sg21
g22
sg23
(lp610
g1
(g25
g3
Ntp611
Rp612
(dp613
g29
V120
p614
sg31
VStaryu
p615
sg33
g383
sg35
V34
p616
sg37
(lp617
Vswift
p618
aVrapid-spin
p619
aVcamouflage
p620
aVcosmic-power
p621
asg43
g44
sg45
Villuminate
p622
sbasg71
I00
sg72
g73
sbag1
(g2
g3
Ntp623
Rp624
(dp625
g7
VSpr RS Swimmer M.png
p626
sg9
VSwimmer
p627
sg11
VRoland
p628
sg13
V272<br><small>Potential [[Double Battle]] with Isabella</small>
p629
sg15
g159
sg17
g18
sg19
g20
sg21
g22
sg23
(lp630
g1
(g25
g3
Ntp631
Rp632
(dp633
g29
V318
p634
sg31
VCarvanha
p635
sg33
g88
sg35
V34
p636
sg37
(lp637
Vfocus-energy
p638
aVscary-face
p639
aVswagger
p640
aVcrunch
p641
asg43
g44
sg45
Vrough-skin
p642
sbasg71
I00
sg72
g73
sbag1
(g2
g3
Ntp643
Rp644
(dp645
g7
VSpr RS Sis and Bro.png
p646
sg9
VSis and Bro
p647
sg11
VLila & Roy{{tt|*|First rematch}}
p648
sg13
V960
p649
sg15
g81
sg17
g18
sg19
g20
sg21
g22
sg23
(lp650
g1
(g25
g3
Ntp651
Rp652
(dp653
g29
V170
p654
sg31
VChinchou
p655
sg33
g88
sg35
V42
p656
sg37
(lp657
Vbubble
p658
aVflail
p659
aVspark
p660
aVcharge
p661
asg43
g44
sg45
Villuminate
p662
sbag1
(g25
g3
Ntp663
Rp664
(dp665
g29
V318
p666
sg31
VCarvanha
p667
sg33
g88
sg35
V40
p668
sg37
(lp669
Vfocus-energy
p670
aVscary-face
p671
aVswagger
p672
aVcrunch
p673
asg43
g44
sg45
Vrough-skin
p674
sbasg71
I00
sg72
g73
sbag1
(g2
g3
Ntp675
Rp676
(dp677
g7
VSpr RS Sis and Bro.png
p678
sg9
VSis and Bro
p679
sg11
VLila & Roy{{tt|*|Second rematch}}
p680
sg13
V1032
p681
sg15
g81
sg17
g18
sg19
g20
sg21
g22
sg23
(lp682
g1
(g25
g3
Ntp683
Rp684
(dp685
g29
V171
p686
sg31
VLanturn
p687
sg33
g88
sg35
V45
p688
sg37
(lp689
Vbubble
p690
aVflail
p691
aVspark
p692
aVcharge
p693
asg43
g44
sg45
Vvolt-absorb
p694
sbag1
(g25
g3
Ntp695
Rp696
(dp697
g29
V318
p698
sg31
VCarvanha
p699
sg33
g88
sg35
V43
p700
sg37
(lp701
Vfocus-energy
p702
aVscary-face
p703
aVswagger
p704
aVcrunch
p705
asg43
g44
sg45
Vrough-skin
p706
sbasg71
I00
sg72
g73
sbag1
(g2
g3
Ntp707
Rp708
(dp709
g7
VSpr RS Sis and Bro.png
p710
sg9
VSis and Bro
p711
sg11
VLila & Roy{{tt|*|Third and fourth rematch onwards}}
p712
sg13
g1
(g295
g3
Ntp713
Rp714
(dp715
g299
g1
(g300
g301
(lp716
g1
(g303
g3
Ntp717
Rp718
(dp719
g307
V1104
p720
sbatp721
Rp722
(dp723
g312
(dp724
sbsbsg15
g81
sg17
g18
sg19
g20
sg21
g22
sg23
(lp725
g1
(g25
g3
Ntp726
Rp727
(dp728
g29
V171
p729
sg31
VLanturn
p730
sg33
g88
sg35
V48
p731
sg37
(lp732
Vbubble
p733
aVflail
p734
aVspark
p735
aVcharge
p736
asg43
g44
sg45
Vvolt-absorb
p737
sbag1
(g25
g3
Ntp738
Rp739
(dp740
g29
V319
p741
sg31
VSharpedo
p742
sg33
g88
sg35
V46
p743
sg37
(lp744
Vscary-face
p745
aVswagger
p746
aVcrunch
p747
aVtaunt
p748
asg43
g44
sg45
Vrough-skin
p749
sbasg71
I00
sg72
g73
sbag1
(g2
g3
Ntp750
Rp751
(dp752
g7
VSpr RS Swimmer F.png
p753
sg9
VSwimmer
p754
sg11
VJenny{{tt|*|First and second rematch}}
p755
sg13
g1
(g295
g3
Ntp756
Rp757
(dp758
g299
g1
(g300
g301
(lp759
g1
(g303
g3
Ntp760
Rp761
(dp762
g307
V304
p763
sbatp764
Rp765
(dp766
g312
(dp767
sbsbsg15
g159
sg17
g18
sg19
g20
sg21
g22
sg23
(lp768
g1
(g25
g3
Ntp769
Rp770
(dp771
g29
V320
p772
sg31
VWailmer
p773
sg33
g34
sg35
V38
p774
sg37
(lp775
Vwhirlpool
p776
aVastonish
p777
aVwater-spout
p778
aVwater-pulse
p779
asg43
g44
sg45
Vwater-veil
p780
sbasg71
I00
sg72
g73
sbag1
(g2
g3
Ntp781
Rp782
(dp783
g7
VSpr RS Swimmer F.png
p784
sg9
VSwimmer
p785
sg11
VJenny{{tt|*|Third rematch}}
p786
sg13
V344
p787
sg15
g81
sg17
g18
sg19
g20
sg21
g22
sg23
(lp788
g1
(g25
g3
Ntp789
Rp790
(dp791
g29
V120
p792
sg31
VStaryu
p793
sg33
g383
sg35
V43
p794
sg37
(lp795
Vswift
p796
aVrapid-spin
p797
aVcamouflage
p798
aVcosmic-power
p799
asg43
g44
sg45
Vnatural-cure
p800
sbag1
(g25
g3
Ntp801
Rp802
(dp803
g29
V320
p804
sg31
VWailmer
p805
sg33
g34
sg35
V43
p806
sg37
(lp807
Vwhirlpool
p808
aVastonish
p809
aVwater-spout
p810
aVwater-pulse
p811
asg43
g44
sg45
Vwater-veil
p812
sbasg71
I00
sg72
g73
sbag1
(g2
g3
Ntp813
Rp814
(dp815
g7
VSpr RS Swimmer F.png
p816
sg9
VSwimmer
p817
sg11
VJenny{{tt|*|Fourth rematch onwards}}
p818
sg13
V360
p819
sg15
g16
sg17
g18
sg19
g20
sg21
g22
sg23
(lp820
g1
(g25
g3
Ntp821
Rp822
(dp823
g29
V370
p824
sg31
VLuvdisc
p825
sg33
g34
sg35
V45
p826
sg37
(lp827
Vsweet-kiss
p828
aVcharm
p829
aVattract
p830
aVsafeguard
p831
asg43
g44
sg45
Vswift-swim
p832
sbag1
(g25
g3
Ntp833
Rp834
(dp835
g29
V320
p836
sg31
VWailmer
p837
sg33
g34
sg35
V45
p838
sg37
(lp839
Vwhirlpool
p840
aVastonish
p841
aVwater-spout
p842
aVwater-pulse
p843
asg43
g44
sg45
Vwater-veil
p844
sbag1
(g25
g3
Ntp845
Rp846
(dp847
g29
V121
p848
sg31
VStarmie
p849
sg33
g383
sg35
V45
p850
sg37
(lp851
Vrecover
p852
aVconfuse-ray
p853
aVswift
p854
aVrapid-spin
p855
asg43
g44
sg45
Vnatural-cure
p856
sbasg71
I00
sg72
g73
sbag1
(g2
g3
Ntp857
Rp858
(dp859
g7
VVSSwimmer F ORAS.png
p860
sg9
VSwimmer \u2640
p861
sg11
VJenny
p862
sg13
V624
p863
sg15
g159
sg17
g18
sg19
g20
sg21
VSM
p864
sg23
(lp865
g1
(g25
g3
Ntp866
Rp867
(dp868
g29
V370
p869
sg31
VLuvdisc
p870
sg33
g34
sg35
V39
p871
sg37
(lp872
Vcaptivate
p873
aVsoak
p874
aVheart-stamp
p875
aVdraining-kiss
p876
asg43
g44
sg45
Vswift-swim
p877
sbasg71
I00
sg72
Vsun-moon
p878
sbag1
(g2
g3
Ntp879
Rp880
(dp881
g7
VVSSwimmer M VI.png
p882
sg9
VSwimmer \u2642
p883
sg11
VRoland
p884
sg13
V624
p885
sg15
g159
sg17
g18
sg19
g20
sg21
g864
sg23
(lp886
g1
(g25
g3
Ntp887
Rp888
(dp889
g29
V364
p890
sg31
VSealeo
p891
sg33
g88
sg35
V39
p892
sg37
(lp893
Vhail
p894
aVice-ball
p895
aVsheer-cold
p896
aVbrine
p897
asg43
g44
sg45
Vthick-fat
p898
sbasg71
I00
sg72
g878
sbag1
(g2
g3
Ntp899
Rp900
(dp901
g7
VVSSwimmer F ORAS.png
p902
sg9
VSwimmer \u2640
p903
sg11
VGrace
p904
sg13
V608
p905
sg15
g81
sg17
g18
sg19
g20
sg21
g864
sg23
(lp906
g1
(g25
g3
Ntp907
Rp908
(dp909
g29
V320
p910
sg31
VWailmer
p911
sg33
g34
sg35
V36
p912
sg37
(lp913
Vbounce
p914
aVwater-pulse
p915
aVbrine
p916
aVheavy-slam
p917
asg43
g44
sg45
Voblivious
p918
sbag1
(g25
g3
Ntp919
Rp920
(dp921
g29
V184
p922
sg31
VAzumarill
p923
sg33
g34
sg35
V38
p924
sg37
(lp925
Vwater-sport
p926
aVaqua-ring
p927
aVaqua-tail
p928
aVplay-rough
p929
asg43
g44
sg45
Vhuge-power
p930
sbasg71
I00
sg72
g878
sbag1
(g2
g3
Ntp931
Rp932
(dp933
g7
VVSSis & Bro.png
p934
sg9
VSis & Bro
p935
sg11
VRita & Sam
p936
sg13
V760
p937
sg15
g81
sg17
g18
sg19
g20
sg21
g864
sg23
(lp938
g1
(g25
g3
Ntp939
Rp940
(dp941
g29
V279
p942
sg31
VPelipper
p943
sg33
g88
sg35
V39
p944
sg37
(lp945
Vfling
p946
aVsoak
p947
aVhurricane
p948
ag948
asg43
g44
sg45
Vkeen-eye
p949
sbag1
(g25
g3
Ntp950
Rp951
(dp952
g29
V340
p953
sg31
VWhiscash
p954
sg33
g88
sg35
V38
p955
sg37
(lp956
Vaqua-tail
p957
aVmud-bomb
p958
aVzen-headbutt
p959
aVbelch
p960
asg43
g44
sg45
Vanticipation
p961
sbasg71
I00
sg72
g878
sbag1
(g2
g3
Ntp962
Rp963
(dp964
g7
VVSSwimmer M VI.png
p965
sg9
VSwimmer \u2642
p966
sg11
VSpencer
p967
sg13
V592
p968
sg15
g81
sg17
g18
sg19
g20
sg21
g864
sg23
(lp969
g1
(g25
g3
Ntp970
Rp971
(dp972
g29
V120
p973
sg31
VStaryu
p974
sg33
g383
sg35
V37
p975
sg37
(lp976
Vgyro-ball
p977
aVbrine
p978
aVpower-gem
p979
aVreflect-type
p980
asg43
g44
sg45
Vnatural-cure
p981
sbag1
(g25
g3
Ntp982
Rp983
(dp984
g29
V073
p985
sg31
VTentacruel
p986
sg33
g88
sg35
V37
p987
sg37
(lp988
Vsludge-wave
p989
aVacid-spray
p990
aVhex
p991
aVreflect-type
p992
asg43
g44
sg45
Vclear-body
p993
sbasg71
I00
sg72
g878
sbag1
(g2
g3
Ntp994
Rp995
(dp996
g7
VVSSwimmer M VI.png
p997
sg9
VSwimmer \u2642
p998
sg11
VChad
p999
sg13
V624
p1000
sg15
g159
sg17
g18
sg19
g20
sg21
g864
sg23
(lp1001
g1
(g25
g3
Ntp1002
Rp1003
(dp1004
g29
V055
p1005
sg31
VGolduck
p1006
sg33
g88
sg35
V39
p1007
sg37
(lp1008
Vzen-headbutt
p1009
aVaqua-jet
p1010
aVwonder-room
p1011
aVsoak
p1012
asg43
g44
sg45
Vcloud-nine
p1013
sbasg71
I00
sg72
g878
sbag1
(g2
g3
Ntp1014
Rp1015
(dp1016
g7
VVSScuba Diver.png
p1017
sg9
VScuba Diver
p1018
sg11
VDmitry
p1019
sg13
V1,640
p1020
sg15
g159
sg17
g18
sg19
g20
sg21
g864
sg23
(lp1021
g1
(g25
g3
Ntp1022
Rp1023
(dp1024
g29
V121
p1025
sg31
VStarmie
p1026
sg33
g383
sg35
V41
p1027
sg37
(lp1028
Vconfuse-ray
p1029
aVswift
p1030
aVrapid-spin
p1031
aVspotlight
p1032
asg43
g44
sg45
Villuminate
p1033
sbasg71
I00
sg72
g878
sbag1
(g2
g3
Ntp1034
Rp1035
(dp1036
g7
VVSScuba Diver.png
p1037
sg9
VScuba Diver
p1038
sg11
VKylan
p1039
sg13
V1,640
p1040
sg15
g159
sg17
g18
sg19
g20
sg21
g864
sg23
(lp1041
g1
(g25
g3
Ntp1042
Rp1043
(dp1044
g29
V117
p1045
sg31
VSeadra
p1046
sg33
g88
sg35
V41
p1047
sg37
(lp1048
Vtwister
p1049
aVdragon-dance
p1050
aVbrine
p1051
aVdragon-pulse
p1052
asg43
g44
sg45
Vsniper
p1053
sbasg71
I00
sg72
g878
sbag1
(g2
g3
Ntp1054
Rp1055
(dp1056
g7
VVSFree Diver.png
p1057
sg9
VFree Diver
p1058
sg11
VRischel
p1059
sg13
V1,640
p1060
sg15
g159
sg17
g18
sg19
g20
sg21
g864
sg23
(lp1061
g1
(g25
g3
Ntp1062
Rp1063
(dp1064
g29
V119
p1065
sg31
VSeaking
p1066
sg33
g34
sg35
V41
p1067
sg37
(lp1068
Vwater-pulse
p1069
aVaqua-ring
p1070
aVpoison-jab
p1071
aVsoak
p1072
asg43
g44
sg45
Vswift-swim
p1073
sbasg71
I00
sg72
g878
sbag1
(g2
g3
Ntp1074
Rp1075
(dp1076
g7
VVSFree Diver.png
p1077
sg9
VFree Diver
p1078
sg11
VArzu
p1079
sg13
V1,560
p1080
sg15
g81
sg17
g18
sg19
g20
sg21
g864
sg23
(lp1081
g1
(g25
g3
Ntp1082
Rp1083
(dp1084
g29
V366
p1085
sg31
VClamperl
p1086
sg33
g34
sg35
V39
p1087
sg37
(lp1088
Vclamp
p1089
aVwhirlpool
p1090
aViron-defense
p1091
aVshell-smash
p1092
asg43
g44
sg45
Vshell-armor
p1093
sbag1
(g25
g3
Ntp1094
Rp1095
(dp1096
g29
V366
p1097
sg31
VClamperl
p1098
sg33
g34
sg35
V39
p1099
sg37
(lp1100
Vclamp
p1101
aVwhirlpool
p1102
aViron-defense
p1103
aVshell-smash
p1104
asg43
g44
sg45
Vshell-armor
p1105
sbasg71
I00
sg72
g878
sbag1
(g2
g3
Ntp1106
Rp1107
(dp1108
g7
VVSSwimmer F ORAS.png
p1109
sg9
VSwimmer \u2640
p1110
sg11
VJenny
p1111
sg13
V720<br><small>After earning the {{badge|Rain}}</small>
p1112
sg15
g159
sg17
g18
sg19
g20
sg21
g864
sg23
(lp1113
g1
(g25
g3
Ntp1114
Rp1115
(dp1116
g29
V370
p1117
sg31
VLuvdisc
p1118
sg33
g34
sg35
V45
p1119
sg37
(lp1120
Vcaptivate
p1121
aVsoak
p1122
aVheart-stamp
p1123
aVdraining-kiss
p1124
asg43
g44
sg45
Vswift-swim
p1125
sbasg71
I00
sg72
g878
sbag1
(g2
g3
Ntp1126
Rp1127
(dp1128
g7
VVSSwimmer F ORAS.png
p1129
sg9
VSwimmer \u2640
p1130
sg11
VJenny
p1131
sg13
V784<br><small>After entering the [[Hall of Fame]]</small>
p1132
sg15
g81
sg17
g18
sg19
g20
sg21
g864
sg23
(lp1133
g1
(g25
g3
Ntp1134
Rp1135
(dp1136
g29
V370
p1137
sg31
VLuvdisc
p1138
sg33
g34
sg35
V49
p1139
sg37
(lp1140
Vcaptivate
p1141
aVsoak
p1142
aVheart-stamp
p1143
aVdraining-kiss
p1144
asg43
g44
sg45
Vswift-swim
p1145
sbag1
(g25
g3
Ntp1146
Rp1147
(dp1148
g29
V594
p1149
sg31
VAlomomola
p1150
sg33
g34
sg35
V49
p1151
sg37
(lp1152
Vwide-guard
p1153
aVsoak
p1154
aVheal-pulse
p1155
aVplay-nice
p1156
asg43
g44
sg45
Vhealer
p1157
sbasg71
I00
sg72
g878
sbag1
(g2
g3
Ntp1158
Rp1159
(dp1160
g7
VVSSis & Bro.png
p1161
sg9
VSis & Bro
p1162
sg11
VRita & Sam
p1163
sg13
V780<br><small>After earning the {{badge|Mind}}</small>
p1164
sg15
g81
sg17
g18
sg19
g20
sg21
g864
sg23
(lp1165
g1
(g25
g3
Ntp1166
Rp1167
(dp1168
g29
V279
p1169
sg31
VPelipper
p1170
sg33
g88
sg35
V41
p1171
sg37
(lp1172
Vfling
p1173
aVsoak
p1174
aVhurricane
p1175
ag1175
asg43
g44
sg45
Vdrizzle
p1176
sbag1
(g25
g3
Ntp1177
Rp1178
(dp1179
g29
V340
p1180
sg31
VWhiscash
p1181
sg33
g88
sg35
V39
p1182
sg37
(lp1183
Vaqua-tail
p1184
aVmud-bomb
p1185
aVzen-headbutt
p1186
aVbelch
p1187
asg43
g44
sg45
Vanticipation
p1188
sbasg71
I00
sg72
g878
sbag1
(g2
g3
Ntp1189
Rp1190
(dp1191
g7
VVSSis & Bro.png
p1192
sg9
VSis & Bro
p1193
sg11
VRita & Sam
p1194
sg13
V880<br><small>After earning the {{badge|Rain}}</small>
p1195
sg15
g81
sg17
g18
sg19
g20
sg21
g864
sg23
(lp1196
g1
(g25
g3
Ntp1197
Rp1198
(dp1199
g29
V279
p1200
sg31
VPelipper
p1201
sg33
g88
sg35
V45
p1202
sg37
(lp1203
Vfling
p1204
aVsoak
p1205
aVhurricane
p1206
ag1206
asg43
g44
sg45
Vkeen-eye
p1207
sbag1
(g25
g3
Ntp1208
Rp1209
(dp1210
g29
V340
p1211
sg31
VWhiscash
p1212
sg33
g88
sg35
V44
p1213
sg37
(lp1214
Vaqua-tail
p1215
aVmud-bomb
p1216
aVzen-headbutt
p1217
aVbelch
p1218
asg43
g44
sg45
Vanticipation
p1219
sbasg71
I00
sg72
g878
sbag1
(g2
g3
Ntp1220
Rp1221
(dp1222
g7
VVSSis & Bro.png
p1223
sg9
VSis & Bro
p1224
sg11
VRita & Sam
p1225
sg13
V1,000<br><small>After entering the [[Hall of Fame]]</small>
p1226
sg15
g81
sg17
g18
sg19
g20
sg21
g864
sg23
(lp1227
g1
(g25
g3
Ntp1228
Rp1229
(dp1230
g29
V279
p1231
sg31
VPelipper
p1232
sg33
g88
sg35
V51
p1233
sg37
(lp1234
Vfling
p1235
aVsoak
p1236
aVhurricane
p1237
ag1237
asg43
g44
sg45
Vkeen-eye
p1238
sbag1
(g25
g3
Ntp1239
Rp1240
(dp1241
g29
V340
p1242
sg31
VWhiscash
p1243
sg33
g88
sg35
V50
p1244
sg37
(lp1245
Vaqua-tail
p1246
aVmud-bomb
p1247
aVzen-headbutt
p1248
aVbelch
p1249
asg43
g44
sg45
Voblivious
p1250
sbasg71
I00
sg72
g878
sbag1
(g2
g3
Ntp1251
Rp1252
(dp1253
g7
VVSScuba Diver.png
p1254
sg9
VScuba Diver
p1255
sg11
VKylan
p1256
sg13
V1,800<br><small>After earning the {{badge|Rain}}</small>
p1257
sg15
g159
sg17
g18
sg19
g20
sg21
g864
sg23
(lp1258
g1
(g25
g3
Ntp1259
Rp1260
(dp1261
g29
V117
p1262
sg31
VSeadra
p1263
sg33
g88
sg35
V45
p1264
sg37
(lp1265
Vtwister
p1266
aVdragon-dance
p1267
aVbrine
p1268
aVdragon-pulse
p1269
asg43
g44
sg45
Vpoison-point
p1270
sbasg71
I00
sg72
g878
sbag1
(g2
g3
Ntp1271
Rp1272
(dp1273
g7
VVSScuba Diver.png
p1274
sg9
VScuba Diver
p1275
sg11
VKylan
p1276
sg13
V1,960<br><small>After entering the [[Hall of Fame]]</small>
p1277
sg15
g81
sg17
g18
sg19
g20
sg21
g864
sg23
(lp1278
g1
(g25
g3
Ntp1279
Rp1280
(dp1281
g29
V099
p1282
sg31
VKingler
p1283
sg33
g88
sg35
V49
p1284
sg37
(lp1285
Vmud-sport
p1286
aVmud-shot
p1287
aVbrine
p1288
aVwide-guard
p1289
asg43
g44
sg45
Vhyper-cutter
p1290
sbag1
(g25
g3
Ntp1291
Rp1292
(dp1293
g29
V230
p1294
sg31
VKingdra
p1295
sg33
g88
sg35
V49
p1296
sg37
(lp1297
Vyawn
p1298
aVdragon-dance
p1299
aVbrine
p1300
aVdragon-pulse
p1301
asg43
g44
sg45
Vswift-swim
p1302
sbasg71
I00
sg72
g878
sbag1
(g2
g3
Ntp1303
Rp1304
(dp1305
g7
VVSFree Diver.png
p1306
sg9
VFree Diver
p1307
sg11
VArzu
p1308
sg13
V1,720<br><small>After earning the {{badge|Rain}}</small>
p1309
sg15
g81
sg17
g18
sg19
g20
sg21
g864
sg23
(lp1310
g1
(g25
g3
Ntp1311
Rp1312
(dp1313
g29
V367
p1314
sg31
VHuntail
p1315
sg33
g34
sg35
V43
p1316
sg37
(lp1317
Vsucker-punch
p1318
aVaqua-tail
p1319
aVice-fang
p1320
aVcoil
p1321
asg43
g44
sg45
Vswift-swim
p1322
sbag1
(g25
g3
Ntp1323
Rp1324
(dp1325
g29
V368
p1326
sg31
VGorebyss
p1327
sg33
g34
sg35
V43
p1328
sg37
(lp1329
Vaqua-tail
p1330
aVcaptivate
p1331
aVcoil
p1332
aVdraining-kiss
p1333
asg43
g44
sg45
Vswift-swim
p1334
sbasg71
I00
sg72
g878
sbag1
(g2
g3
Ntp1335
Rp1336
(dp1337
g7
VVSFree Diver.png
p1338
sg9
VFree Diver
p1339
sg11
VArzu
p1340
sg13
V1,920<br><small>After entering the [[Hall of Fame]]</small>
p1341
sg15
g16
sg17
g18
sg19
g20
sg21
g864
sg23
(lp1342
g1
(g25
g3
Ntp1343
Rp1344
(dp1345
g29
V367
p1346
sg31
VHuntail
p1347
sg33
g34
sg35
V48
p1348
sg37
(lp1349
Vsucker-punch
p1350
aVaqua-tail
p1351
aVice-fang
p1352
aVcoil
p1353
asg43
g44
sg45
Vswift-swim
p1354
sbag1
(g25
g3
Ntp1355
Rp1356
(dp1357
g29
V368
p1358
sg31
VGorebyss
p1359
sg33
g34
sg35
V48
p1360
sg37
(lp1361
Vaqua-tail
p1362
aVcaptivate
p1363
aVcoil
p1364
aVdraining-kiss
p1365
asg43
g44
sg45
Vswift-swim
p1366
sbag1
(g25
g3
Ntp1367
Rp1368
(dp1369
g29
V091
p1370
sg31
VCloyster
p1371
sg33
g34
sg35
V48
p1372
sg37
(lp1373
Vspikes
p1374
aVtoxic-spikes
p1375
aVshell-smash
p1376
aVicicle-crash
p1377
asg43
g44
sg45
Vskill-link
p1378
sbasg71
I00
sg72
g878
sba.