(lp0
ccopy_reg
_reconstructor
p1
(c__main__
Trainer
p2
c__builtin__
object
p3
Ntp4
Rp5
(dp6
VtSprite
p7
VSpr RS Triathlete Swimmer F.png
p8
sVtClass
p9
VTriathlete
p10
sVtName
p11
VAllison
p12
sVtMoney
p13
V1000
p14
sVtPokeCount
p15
V4
p16
sVtLocation
p17
Vwiki/Hoenn_Route_129
p18
sVtRegion
p19
VHoenn
p20
sVtGame
p21
VRS
p22
sVtPokes
p23
(lp24
g1
(c__main__
FinishedPokemon
p25
g3
Ntp26
Rp27
(dp28
VpDexNo
p29
V278
p30
sVpSpecies
p31
VWingull
p32
sVpGender
p33
VF
p34
sVpLevel
p35
V25
p36
sVpMoves
p37
(lp38
Vwater-gun
p39
aVagility
p40
aVquick-attack
p41
aVpursuit
p42
asVpHold
p43
V
p44
sVpAbility
p45
Vhydration
p46
sbag1
(g25
g3
Ntp47
Rp48
(dp49
g29
V278
p50
sg31
VWingull
p51
sg33
g34
sg35
V25
p52
sg37
(lp53
Vwater-gun
p54
aVagility
p55
aVquick-attack
p56
aVpursuit
p57
asg43
g44
sg45
Vhydration
p58
sbag1
(g25
g3
Ntp59
Rp60
(dp61
g29
V120
p62
sg31
VStaryu
p63
sg33
VU
p64
sg35
V33
p65
sg37
(lp66
Vswift
p67
aVrapid-spin
p68
aVcamouflage
p69
aVcosmic-power
p70
asg43
g44
sg45
Villuminate
p71
sbag1
(g25
g3
Ntp72
Rp73
(dp74
g29
V278
p75
sg31
VWingull
p76
sg33
g34
sg35
V25
p77
sg37
(lp78
Vwater-gun
p79
aVagility
p80
aVquick-attack
p81
aVpursuit
p82
asg43
g44
sg45
Vhydration
p83
sbasVbossFlag
p84
I00
sVtLongGame
p85
Vruby-sapphire
p86
sbag1
(g2
g3
Ntp87
Rp88
(dp89
g7
VSpr RS Triathlete Swimmer M.png
p90
sg9
VTriathlete
p91
sg11
VChase
p92
sg13
V1400
p93
sg15
V2
p94
sg17
g18
sg19
g20
sg21
g22
sg23
(lp95
g1
(g25
g3
Ntp96
Rp97
(dp98
g29
V278
p99
sg31
VWingull
p100
sg33
VM
p101
sg35
V27
p102
sg37
(lp103
Vwater-gun
p104
aVagility
p105
aVquick-attack
p106
aVpursuit
p107
asg43
g44
sg45
Vkeen-eye
p108
sbag1
(g25
g3
Ntp109
Rp110
(dp111
g29
V120
p112
sg31
VStaryu
p113
sg33
g64
sg35
V35
p114
sg37
(lp115
Vswift
p116
aVrapid-spin
p117
aVcamouflage
p118
aVcosmic-power
p119
asg43
g44
sg45
Villuminate
p120
sbasg84
I00
sg85
g86
sbag1
(g2
g3
Ntp121
Rp122
(dp123
g7
VSpr RS Swimmer M.png
p124
sg9
VSwimmer
p125
sg11
VReed
p126
sg13
V256
p127
sg15
g16
sg17
g18
sg19
g20
sg21
g22
sg23
(lp128
g1
(g25
g3
Ntp129
Rp130
(dp131
g29
V318
p132
sg31
VCarvanha
p133
sg33
g101
sg35
V32
p134
sg37
(lp135
Vfocus-energy
p136
aVscary-face
p137
aVswagger
p138
aVcrunch
p139
asg43
g44
sg45
Vrough-skin
p140
sbag1
(g25
g3
Ntp141
Rp142
(dp143
g29
V318
p144
sg31
VCarvanha
p145
sg33
g101
sg35
V32
p146
sg37
(lp147
Vfocus-energy
p148
aVscary-face
p149
aVswagger
p150
aVcrunch
p151
asg43
g44
sg45
Vrough-skin
p152
sbag1
(g25
g3
Ntp153
Rp154
(dp155
g29
V363
p156
sg31
VSpheal
p157
sg33
g101
sg35
V32
p158
sg37
(lp159
Vencore
p160
aVhail
p161
aVice-ball
p162
aVsheer-cold
p163
asg43
g44
sg45
Vice-body
p164
sbag1
(g25
g3
Ntp165
Rp166
(dp167
g29
V319
p168
sg31
VSharpedo
p169
sg33
g101
sg35
V32
p170
sg37
(lp171
Vscary-face
p172
aVswagger
p173
aVcrunch
p174
aVtaunt
p175
asg43
g44
sg45
Vrough-skin
p176
sbasg84
I00
sg85
g86
sbag1
(g2
g3
Ntp177
Rp178
(dp179
g7
VSpr RS Swimmer F.png
p180
sg9
VSwimmer
p181
sg11
VTisha
p182
sg13
V264
p183
sg15
V3
p184
sg17
g18
sg19
g20
sg21
g22
sg23
(lp185
g1
(g25
g3
Ntp186
Rp187
(dp188
g29
V170
p189
sg31
VChinchou
p190
sg33
g34
sg35
V33
p191
sg37
(lp192
Vbubble
p193
aVflail
p194
aVspark
p195
aVcharge
p196
asg43
g44
sg45
Villuminate
p197
sbag1
(g25
g3
Ntp198
Rp199
(dp200
g29
V370
p201
sg31
VLuvdisc
p202
sg33
g34
sg35
V33
p203
sg37
(lp204
Vsweet-kiss
p205
aVcharm
p206
aVattract
p207
aVsafeguard
p208
asg43
g44
sg45
Vswift-swim
p209
sbag1
(g25
g3
Ntp210
Rp211
(dp212
g29
V279
p213
sg31
VPelipper
p214
sg33
g34
sg35
V33
p215
sg37
(lp216
Vstockpile
p217
aVspit-up
p218
aVswallow
p219
aVwater-sport
p220
asg43
g44
sg45
Vkeen-eye
p221
sbasg84
I00
sg85
g86
sbag1
(g2
g3
Ntp222
Rp223
(dp224
g7
VSpr RS Swimmer M.png
p225
sg9
VSwimmer
p226
sg11
VReed
p227
sg13
V264
p228
sg15
g94
sg17
g18
sg19
g20
sg21
g22
sg23
(lp229
g1
(g25
g3
Ntp230
Rp231
(dp232
g29
V363
p233
sg31
VSpheal
p234
sg33
g101
sg35
V33
p235
sg37
(lp236
Vencore
p237
aVhail
p238
aVice-ball
p239
aVsheer-cold
p240
asg43
g44
sg45
Vice-body
p241
sbag1
(g25
g3
Ntp242
Rp243
(dp244
g29
V319
p245
sg31
VSharpedo
p246
sg33
g101
sg35
V33
p247
sg37
(lp248
Vscary-face
p249
aVswagger
p250
aVcrunch
p251
aVtaunt
p252
asg43
g44
sg45
Vrough-skin
p253
sbasg84
I00
sg85
g86
sbag1
(g2
g3
Ntp254
Rp255
(dp256
g7
VSpr RS Triathlete Swimmer M.png
p257
sg9
VTriathlete
p258
sg11
VChase
p259
sg13
V1360
p260
sg15
g94
sg17
g18
sg19
g20
sg21
g22
sg23
(lp261
g1
(g25
g3
Ntp262
Rp263
(dp264
g29
V278
p265
sg31
VWingull
p266
sg33
g101
sg35
V26
p267
sg37
(lp268
Vwater-gun
p269
aVagility
p270
aVquick-attack
p271
aVpursuit
p272
asg43
g44
sg45
Vkeen-eye
p273
sbag1
(g25
g3
Ntp274
Rp275
(dp276
g29
V120
p277
sg31
VStaryu
p278
sg33
g64
sg35
V34
p279
sg37
(lp280
Vswift
p281
aVrapid-spin
p282
aVcamouflage
p283
aVcosmic-power
p284
asg43
g44
sg45
Vnatural-cure
p285
sbasg84
I00
sg85
g86
sbag1
(g2
g3
Ntp286
Rp287
(dp288
g7
VSpr RS Triathlete Swimmer F.png
p289
sg9
VTriathlete
p290
sg11
VAllison
p291
sg13
V1320
p292
sg15
g94
sg17
g18
sg19
g20
sg21
g22
sg23
(lp293
g1
(g25
g3
Ntp294
Rp295
(dp296
g29
V278
p297
sg31
VWingull
p298
sg33
g34
sg35
V27
p299
sg37
(lp300
Vwater-gun
p301
aVagility
p302
aVquick-attack
p303
aVpursuit
p304
asg43
g44
sg45
Vkeen-eye
p305
sbag1
(g25
g3
Ntp306
Rp307
(dp308
g29
V120
p309
sg31
VStaryu
p310
sg33
g64
sg35
V33
p311
sg37
(lp312
Vswift
p313
aVrapid-spin
p314
aVcamouflage
p315
aVcosmic-power
p316
asg43
g44
sg45
Villuminate
p317
sbasg84
I00
sg85
g86
sbag1
(g2
g3
Ntp318
Rp319
(dp320
g7
VSpr RS Swimmer M.png
p321
sg9
VSwimmer
p322
sg11
VClarence
p323
sg13
V272<br><small>Potential [[Double Battle]] with Tisha</small>
p324
sg15
V1
p325
sg17
g18
sg19
g20
sg21
g22
sg23
(lp326
g1
(g25
g3
Ntp327
Rp328
(dp329
g29
V319
p330
sg31
VSharpedo
p331
sg33
g101
sg35
V34
p332
sg37
(lp333
Vscary-face
p334
aVswagger
p335
aVcrunch
p336
aVtaunt
p337
asg43
g44
sg45
Vrough-skin
p338
sbasg84
I00
sg85
g86
sbag1
(g2
g3
Ntp339
Rp340
(dp341
g7
VSpr RS Swimmer F.png
p342
sg9
VSwimmer
p343
sg11
VTisha
p344
sg13
V272<br><small>Potential [[Double Battle]] with Clarence</small>
p345
sg15
g325
sg17
g18
sg19
g20
sg21
g22
sg23
(lp346
g1
(g25
g3
Ntp347
Rp348
(dp349
g29
V170
p350
sg31
VChinchou
p351
sg33
g34
sg35
V34
p352
sg37
(lp353
Vbubble
p354
aVflail
p355
aVspark
p356
aVcharge
p357
asg43
g44
sg45
Vvolt-absorb
p358
sbasg84
I00
sg85
g86
sbag1
(g2
g3
Ntp359
Rp360
(dp361
g7
VVSFisherman ORAS.png
p362
sg9
VFisherman
p363
sg11
VFisk
p364
sg13
V1,248
p365
sg15
g325
sg17
g18
sg19
g20
sg21
VSM
p366
sg23
(lp367
g1
(g25
g3
Ntp368
Rp369
(dp370
g29
V171
p371
sg31
VLanturn
p372
sg33
g101
sg35
V39
p373
sg37
(lp374
Velectro-ball
p375
ag375
aVion-deluge
p376
aVeerie-impulse
p377
asg43
g44
sg45
Vvolt-absorb
p378
sbasg84
I00
sg85
Vsun-moon
p379
sbag1
(g2
g3
Ntp380
Rp381
(dp382
g7
VVSFisherman ORAS.png
p383
sg9
VFisherman
p384
sg11
VSheaffer
p385
sg13
V1,184
p386
sg15
g94
sg17
g18
sg19
g20
sg21
g366
sg23
(lp387
g1
(g25
g3
Ntp388
Rp389
(dp390
g29
V319
p391
sg31
VSharpedo
p392
sg33
g101
sg35
V37
p393
sg37
(lp394
Vnight-slash
p395
ag395
aVice-fang
p396
aVaqua-jet
p397
asg43
g44
sg45
Vrough-skin
p398
sbag1
(g25
g3
Ntp399
Rp400
(dp401
g29
V340
p402
sg31
VWhiscash
p403
sg33
g101
sg35
V37
p404
sg37
(lp405
Vaqua-tail
p406
aVmud-bomb
p407
aVzen-headbutt
p408
aVbelch
p409
asg43
g44
sg45
Voblivious
p410
sbasg84
I00
sg85
g379
sbag1
(g2
g3
Ntp411
Rp412
(dp413
g7
VVSAce Trainer F ORAS.png
p414
sg9
VAce Trainer
p415
sg11
VHonor
p416
sg13
V2,340
p417
sg15
g94
sg17
g18
sg19
g20
sg21
g366
sg23
(lp418
g1
(g25
g3
Ntp419
Rp420
(dp421
g29
V324
p422
sg31
VTorkoal
p423
sg33
g34
sg35
V39
p424
sg37
(lp425
Viron-defense
p426
aVlava-plume
p427
aVshell-smash
p428
aVinferno
p429
asg43
g44
sg45
Vdrought
p430
sbag1
(g25
g3
Ntp431
Rp432
(dp433
g29
V308
p434
sg31
VMedicham
p435
sg33
g34
sg35
V39
p436
sg37
(lp437
Vacupressure
p438
aVpower-trick
p439
aVforce-palm
p440
aVzen-headbutt
p441
asg43
g44
sg45
Vpure-power
p442
sbasg84
I00
sg85
g379
sbag1
(g2
g3
Ntp443
Rp444
(dp445
g7
VVSTriathlete Swimmer.png
p446
sg9
VTriathlete
p447
sg11
VChase
p448
sg13
V1,560
p449
sg15
g325
sg17
g18
sg19
g20
sg21
g366
sg23
(lp450
g1
(g25
g3
Ntp451
Rp452
(dp453
g29
V117
p454
sg31
VSeadra
p455
sg33
g101
sg35
V39
p456
sg37
(lp457
Vtwister
p458
aVdragon-dance
p459
aVbrine
p460
aVdragon-pulse
p461
asg43
g44
sg45
Vsniper
p462
sbasg84
I00
sg85
g379
sbag1
(g2
g3
Ntp463
Rp464
(dp465
g7
VVSSwimmer F ORAS.png
p466
sg9
VSwimmer \u2640
p467
sg11
VTisha
p468
sg13
V576
p469
sg15
g184
sg17
g18
sg19
g20
sg21
g366
sg23
(lp470
g1
(g25
g3
Ntp471
Rp472
(dp473
g29
V370
p474
sg31
VLuvdisc
p475
sg33
g34
sg35
V36
p476
sg37
(lp477
Vcaptivate
p478
aVsoak
p479
aVheart-stamp
p480
aVdraining-kiss
p481
asg43
g44
sg45
Vswift-swim
p482
sbag1
(g25
g3
Ntp483
Rp484
(dp485
g29
V184
p486
sg31
VAzumarill
p487
sg33
g34
sg35
V36
p488
sg37
(lp489
Vwater-sport
p490
aVaqua-ring
p491
aVaqua-tail
p492
aVplay-rough
p493
asg43
g44
sg45
Vthick-fat
p494
sbag1
(g25
g3
Ntp495
Rp496
(dp497
g29
V222
p498
sg31
VCorsola
p499
sg33
g34
sg35
V36
p500
sg37
(lp501
Vlucky-chant
p502
aVaqua-ring
p503
aVpower-gem
p504
aVearth-power
p505
asg43
g44
sg45
Vhustle
p506
sbasg84
I00
sg85
g379
sbag1
(g2
g3
Ntp507
Rp508
(dp509
g7
VVSSwimmer M VI.png
p510
sg9
VSwimmer \u2642
p511
sg11
VReed
p512
sg13
V592
p513
sg15
g94
sg17
g18
sg19
g20
sg21
g366
sg23
(lp514
g1
(g25
g3
Ntp515
Rp516
(dp517
g29
V279
p518
sg31
VPelipper
p519
sg33
g101
sg35
V37
p520
sg37
(lp521
Vfling
p522
aVsoak
p523
aVhurricane
p524
ag524
asg43
g44
sg45
Vkeen-eye
p525
sbag1
(g25
g3
Ntp526
Rp527
(dp528
g29
V117
p529
sg31
VSeadra
p530
sg33
g101
sg35
V37
p531
sg37
(lp532
Vtwister
p533
aVdragon-dance
p534
aVbrine
p535
aVdragon-pulse
p536
asg43
g44
sg45
Vsniper
p537
sbasg84
I00
sg85
g379
sbag1
(g2
g3
Ntp538
Rp539
(dp540
g7
VVSScuba Diver.png
p541
sg9
VScuba Diver
p542
sg11
VJason
p543
sg13
V1,640
p544
sg15
g325
sg17
g18
sg19
g20
sg21
g366
sg23
(lp545
g1
(g25
g3
Ntp546
Rp547
(dp548
g29
V171
p549
sg31
VLanturn
p550
sg33
g101
sg35
V41
p551
sg37
(lp552
Velectro-ball
p553
ag553
aVion-deluge
p554
aVeerie-impulse
p555
asg43
g44
sg45
Villuminate
p556
sbasg84
I00
sg85
g379
sbag1
(g2
g3
Ntp557
Rp558
(dp559
g7
VVSScuba Diver.png
p560
sg9
VScuba Diver
p561
sg11
VColten
p562
sg13
V1,600
p563
sg15
g94
sg17
g18
sg19
g20
sg21
g366
sg23
(lp564
g1
(g25
g3
Ntp565
Rp566
(dp567
g29
V055
p568
sg31
VGolduck
p569
sg33
g101
sg35
V38
p570
sg37
(lp571
Vzen-headbutt
p572
aVaqua-jet
p573
aVwonder-room
p574
aVsoak
p575
asg43
g44
sg45
Vdamp
p576
sbag1
(g25
g3
Ntp577
Rp578
(dp579
g29
V130
p580
sg31
VGyarados
p581
sg33
g101
sg35
V40
p582
sg37
(lp583
Vdragon-dance
p584
aVaqua-tail
p585
aVice-fang
p586
aVhurricane
p587
asg43
g44
sg45
Vintimidate
p588
sbasg84
I00
sg85
g379
sbag1
(g2
g3
Ntp589
Rp590
(dp591
g7
VVSFree Diver.png
p592
sg9
VFree Diver
p593
sg11
VCoral
p594
sg13
V1,600
p595
sg15
g94
sg17
g18
sg19
g20
sg21
g366
sg23
(lp596
g1
(g25
g3
Ntp597
Rp598
(dp599
g29
V366
p600
sg31
VClamperl
p601
sg33
g34
sg35
V38
p602
sg37
(lp603
Vclamp
p604
aVwhirlpool
p605
aViron-defense
p606
aVshell-smash
p607
asg43
g44
sg45
Vshell-armor
p608
sbag1
(g25
g3
Ntp609
Rp610
(dp611
g29
V073
p612
sg31
VTentacruel
p613
sg33
g34
sg35
V40
p614
sg37
(lp615
Vsludge-wave
p616
aVacid-spray
p617
aVhex
p618
aVreflect-type
p619
asg43
g44
sg45
Vclear-body
p620
sbasg84
I00
sg85
g379
sba.