(lp0
ccopy_reg
_reconstructor
p1
(c__main__
Trainer
p2
c__builtin__
object
p3
Ntp4
Rp5
(dp6
VtSprite
p7
VSpr RS Swimmer F.png
p8
sVtClass
p9
VSwimmer
p10
sVtName
p11
VBeth
p12
sVtMoney
p13
V200
p14
sVtPokeCount
p15
V3
p16
sVtLocation
p17
Vwiki/Hoenn_Route_107
p18
sVtRegion
p19
VHoenn
p20
sVtGame
p21
VRS
p22
sVtPokes
p23
(lp24
g1
(c__main__
FinishedPokemon
p25
g3
Ntp26
Rp27
(dp28
VpDexNo
p29
V183
p30
sVpSpecies
p31
VMarill
p32
sVpGender
p33
VF
p34
sVpLevel
p35
V25
p36
sVpMoves
p37
(lp38
Vbubble-beam
p39
aVdefense-curl
p40
aVrollout
p41
aVrain-dance
p42
asVpHold
p43
V
p44
sVpAbility
p45
Vthick-fat
p46
sbag1
(g25
g3
Ntp47
Rp48
(dp49
g29
V118
p50
sg31
VGoldeen
p51
sg33
g34
sg35
V25
p52
sg37
(lp53
Vagility
p54
aVwaterfall
p55
aVflail
p56
aVwater-sport
p57
asg43
g44
sg45
Vswift-swim
p58
sbag1
(g25
g3
Ntp59
Rp60
(dp61
g29
V278
p62
sg31
VWingull
p63
sg33
g34
sg35
V25
p64
sg37
(lp65
Vwater-gun
p66
aVagility
p67
aVquick-attack
p68
aVpursuit
p69
asg43
g44
sg45
Vhydration
p70
sbasVbossFlag
p71
I00
sVtLongGame
p72
Vruby-sapphire
p73
sbag1
(g2
g3
Ntp74
Rp75
(dp76
g7
VSpr RS Swimmer M.png
p77
sg9
VSwimmer
p78
sg11
VDarrin
p79
sg13
V216
p80
sg15
V1
p81
sg17
g18
sg19
g20
sg21
g22
sg23
(lp82
g1
(g25
g3
Ntp83
Rp84
(dp85
g29
V072
p86
sg31
VTentacool
p87
sg33
VM
p88
sg35
V27
p89
sg37
(lp90
Vbubble-beam
p91
aVscreech
p92
aVbarrier
p93
aVconstrict
p94
asg43
g44
sg45
Vliquid-ooze
p95
sbasg71
I00
sg72
g73
sbag1
(g2
g3
Ntp96
Rp97
(dp98
g7
VSpr RS Sis and Bro.png
p99
sg9
VSis and Bro
p100
sg11
VLisa & Ray
p101
sg13
V624
p102
sg15
V2
p103
sg17
g18
sg19
g20
sg21
g22
sg23
(lp104
g1
(g25
g3
Ntp105
Rp106
(dp107
g29
V118
p108
sg31
VGoldeen
p109
sg33
g88
sg35
V28
p110
sg37
(lp111
Vagility
p112
aVwaterfall
p113
aVflail
p114
aVwater-sport
p115
asg43
g44
sg45
Vwater-veil
p116
sbag1
(g25
g3
Ntp117
Rp118
(dp119
g29
V072
p120
sg31
VTentacool
p121
sg33
g88
sg35
V26
p122
sg37
(lp123
Vbubble-beam
p124
aVscreech
p125
aVbarrier
p126
aVconstrict
p127
asg43
g44
sg45
Vclear-body
p128
sbasg71
I00
sg72
g73
sbag1
(g2
g3
Ntp129
Rp130
(dp131
g7
VSpr RS Swimmer M.png
p132
sg9
VSwimmer
p133
sg11
VTony
p134
sg13
V216
p135
sg15
g81
sg17
g18
sg19
g20
sg21
g22
sg23
(lp136
g1
(g25
g3
Ntp137
Rp138
(dp139
g29
V318
p140
sg31
VCarvanha
p141
sg33
g88
sg35
V27
p142
sg37
(lp143
Vfocus-energy
p144
aVscary-face
p145
aVswagger
p146
aVcrunch
p147
asg43
g44
sg45
Vrough-skin
p148
sbasg71
I00
sg72
g73
sbag1
(g2
g3
Ntp149
Rp150
(dp151
g7
VSpr RS Swimmer F.png
p152
sg9
VSwimmer
p153
sg11
VDenise
p154
sg13
V216
p155
sg15
g81
sg17
g18
sg19
g20
sg21
g22
sg23
(lp156
g1
(g25
g3
Ntp157
Rp158
(dp159
g29
V278
p160
sg31
VWingull
p161
sg33
g34
sg35
V27
p162
sg37
(lp163
Vwater-gun
p164
aVagility
p165
aVquick-attack
p166
aVpursuit
p167
asg43
g44
sg45
Vkeen-eye
p168
sbasg71
I00
sg72
g73
sbag1
(g2
g3
Ntp169
Rp170
(dp171
g7
VSpr RS Swimmer M.png
p172
sg9
VSwimmer
p173
sg11
VTony{{tt|*|First and second rematch}}
p174
sg13
g1
(cmwparserfromhell.wikicode
Wikicode
p175
g3
Ntp176
Rp177
(dp178
V_nodes
p179
g1
(cmwparserfromhell.smart_list.smart_list
SmartList
p180
c__builtin__
list
p181
(lp182
g1
(cmwparserfromhell.nodes.text
Text
p183
g3
Ntp184
Rp185
(dp186
V_value
p187
V240
p188
sbatp189
Rp190
(dp191
V_children
p192
(dp193
sbsbsg15
g81
sg17
g18
sg19
g20
sg21
g22
sg23
(lp194
g1
(g25
g3
Ntp195
Rp196
(dp197
g29
V319
p198
sg31
VSharpedo
p199
sg33
g88
sg35
V30
p200
sg37
(lp201
Vscary-face
p202
aVswagger
p203
aVcrunch
p204
aVtaunt
p205
asg43
g44
sg45
Vrough-skin
p206
sbasg71
I00
sg72
g73
sbag1
(g2
g3
Ntp207
Rp208
(dp209
g7
VSpr RS Swimmer M.png
p210
sg9
VSwimmer
p211
sg11
VTony{{tt|*|Third rematch}}
p212
sg13
V288
p213
sg15
g103
sg17
g18
sg19
g20
sg21
g22
sg23
(lp214
g1
(g25
g3
Ntp215
Rp216
(dp217
g29
V120
p218
sg31
VStaryu
p219
sg33
VU
p220
sg35
V34
p221
sg37
(lp222
Vswift
p223
aVrapid-spin
p224
aVcamouflage
p225
aVcosmic-power
p226
asg43
g44
sg45
Vnatural-cure
p227
sbag1
(g25
g3
Ntp228
Rp229
(dp230
g29
V319
p231
sg31
VSharpedo
p232
sg33
g88
sg35
V36
p233
sg37
(lp234
Vscary-face
p235
aVswagger
p236
aVcrunch
p237
aVtaunt
p238
asg43
g44
sg45
Vrough-skin
p239
sbasg71
I00
sg72
g73
sbag1
(g2
g3
Ntp240
Rp241
(dp242
g7
VSpr RS Swimmer M.png
p243
sg9
VSwimmer
p244
sg11
VTony{{tt|*|Fourth rematch onwards}}
p245
sg13
V312
p246
sg15
g103
sg17
g18
sg19
g20
sg21
g22
sg23
(lp247
g1
(g25
g3
Ntp248
Rp249
(dp250
g29
V121
p251
sg31
VStarmie
p252
sg33
g220
sg35
V37
p253
sg37
(lp254
Vrecover
p255
aVconfuse-ray
p256
aVswift
p257
aVrapid-spin
p258
asg43
g44
sg45
Villuminate
p259
sbag1
(g25
g3
Ntp260
Rp261
(dp262
g29
V319
p263
sg31
VSharpedo
p264
sg33
g88
sg35
V39
p265
sg37
(lp266
Vscary-face
p267
aVswagger
p268
aVcrunch
p269
aVtaunt
p270
asg43
g44
sg45
Vrough-skin
p271
sbasg71
I00
sg72
g73
sbag1
(g2
g3
Ntp272
Rp273
(dp274
g7
VSpr RS Swimmer F.png
p275
sg9
VSwimmer
p276
sg11
VDenise
p277
sg13
V200
p278
sg15
g103
sg17
g18
sg19
g20
sg21
g22
sg23
(lp279
g1
(g25
g3
Ntp280
Rp281
(dp282
g29
V278
p283
sg31
VWingull
p284
sg33
g34
sg35
V25
p285
sg37
(lp286
Vwater-gun
p287
aVagility
p288
aVquick-attack
p289
aVpursuit
p290
asg43
g44
sg45
Vkeen-eye
p291
sbag1
(g25
g3
Ntp292
Rp293
(dp294
g29
V118
p295
sg31
VGoldeen
p296
sg33
g34
sg35
V25
p297
sg37
(lp298
Vagility
p299
aVwaterfall
p300
aVflail
p301
aVwater-sport
p302
asg43
g44
sg45
Vswift-swim
p303
sbasg71
I00
sg72
g73
sbag1
(g2
g3
Ntp304
Rp305
(dp306
g7
VSpr RS Swimmer M.png
p307
sg9
VSwimmer
p308
sg11
VTony
p309
sg13
V208
p310
sg15
g81
sg17
g18
sg19
g20
sg21
g22
sg23
(lp311
g1
(g25
g3
Ntp312
Rp313
(dp314
g29
V318
p315
sg31
VCarvanha
p316
sg33
g88
sg35
V26
p317
sg37
(lp318
Vfocus-energy
p319
aVscary-face
p320
aVswagger
p321
aVcrunch
p322
asg43
g44
sg45
Vrough-skin
p323
sbasg71
I00
sg72
g73
sbag1
(g2
g3
Ntp324
Rp325
(dp326
g7
VSpr RS Sis and Bro.png
p327
sg9
VSis and Bro
p328
sg11
VLisa & Ray
p329
sg13
V600
p330
sg15
g103
sg17
g18
sg19
g20
sg21
g22
sg23
(lp331
g1
(g25
g3
Ntp332
Rp333
(dp334
g29
V118
p335
sg31
VGoldeen
p336
sg33
g88
sg35
V27
p337
sg37
(lp338
Vagility
p339
aVwaterfall
p340
aVflail
p341
aVwater-sport
p342
asg43
g44
sg45
Vwater-veil
p343
sbag1
(g25
g3
Ntp344
Rp345
(dp346
g29
V072
p347
sg31
VTentacool
p348
sg33
g88
sg35
V25
p349
sg37
(lp350
Vbubble-beam
p351
aVscreech
p352
aVbarrier
p353
aVconstrict
p354
asg43
g44
sg45
Vliquid-ooze
p355
sbasg71
I00
sg72
g73
sbag1
(g2
g3
Ntp356
Rp357
(dp358
g7
VSpr RS Swimmer M.png
p359
sg9
VSwimmer
p360
sg11
VDarrin
p361
sg13
V192
p362
sg15
g16
sg17
g18
sg19
g20
sg21
g22
sg23
(lp363
g1
(g25
g3
Ntp364
Rp365
(dp366
g29
V072
p367
sg31
VTentacool
p368
sg33
g88
sg35
V24
p369
sg37
(lp370
Vbubble-beam
p371
aVscreech
p372
aVbarrier
p373
aVconstrict
p374
asg43
g44
sg45
Vclear-body
p375
sbag1
(g25
g3
Ntp376
Rp377
(dp378
g29
V278
p379
sg31
VWingull
p380
sg33
g88
sg35
V24
p381
sg37
(lp382
Vwater-gun
p383
aVagility
p384
aVquick-attack
p385
aVpursuit
p386
asg43
g44
sg45
Vhydration
p387
sbag1
(g25
g3
Ntp388
Rp389
(dp390
g29
V072
p391
sg31
VTentacool
p392
sg33
g88
sg35
V24
p393
sg37
(lp394
Vbubble-beam
p395
aVscreech
p396
aVbarrier
p397
aVconstrict
p398
asg43
g44
sg45
Vclear-body
p399
sbasg71
I00
sg72
g73
sbag1
(g2
g3
Ntp400
Rp401
(dp402
g7
VSpr RS Swimmer F.png
p403
sg9
VSwimmer
p404
sg11
VBeth
p405
sg13
V208<br><small>Potential [[Double Battle]] with Camron</small>
p406
sg15
g81
sg17
g18
sg19
g20
sg21
g22
sg23
(lp407
g1
(g25
g3
Ntp408
Rp409
(dp410
g29
V118
p411
sg31
VGoldeen
p412
sg33
g34
sg35
V26
p413
sg37
(lp414
Vagility
p415
aVwaterfall
p416
aVflail
p417
aVwater-sport
p418
asg43
g44
sg45
Vwater-veil
p419
sbasg71
I00
sg72
g73
sbag1
(g2
g3
Ntp420
Rp421
(dp422
g7
VSpr RS Triathlete Swimmer M.png
p423
sg9
VTriathlete
p424
sg11
VCamron
p425
sg13
V1040<br><small>Potential [[Double Battle]] with Beth</small>
p426
sg15
g81
sg17
g18
sg19
g20
sg21
g22
sg23
(lp427
g1
(g25
g3
Ntp428
Rp429
(dp430
g29
V120
p431
sg31
VStaryu
p432
sg33
g220
sg35
V26
p433
sg37
(lp434
Vswift
p435
aVrapid-spin
p436
aVcamouflage
p437
aVcosmic-power
p438
asg43
g44
sg45
Villuminate
p439
sbasg71
I00
sg72
g73
sbag1
(g2
g3
Ntp440
Rp441
(dp442
g7
VSpr RS Swimmer M.png
p443
sg9
VSwimmer
p444
sg11
VTony{{tt|*|First and second rematch}}
p445
sg13
g1
(g175
g3
Ntp446
Rp447
(dp448
g179
g1
(g180
g181
(lp449
g1
(g183
g3
Ntp450
Rp451
(dp452
g187
V240
p453
sbatp454
Rp455
(dp456
g192
(dp457
sbsbsg15
g81
sg17
g18
sg19
g20
sg21
g22
sg23
(lp458
g1
(g25
g3
Ntp459
Rp460
(dp461
g29
V319
p462
sg31
VSharpedo
p463
sg33
g88
sg35
V30
p464
sg37
(lp465
Vscary-face
p466
aVswagger
p467
aVcrunch
p468
aVtaunt
p469
asg43
g44
sg45
Vrough-skin
p470
sbasg71
I00
sg72
g73
sbag1
(g2
g3
Ntp471
Rp472
(dp473
g7
VSpr RS Swimmer M.png
p474
sg9
VSwimmer
p475
sg11
VTony{{tt|*|Third rematch}}
p476
sg13
V288
p477
sg15
g103
sg17
g18
sg19
g20
sg21
g22
sg23
(lp478
g1
(g25
g3
Ntp479
Rp480
(dp481
g29
V120
p482
sg31
VStaryu
p483
sg33
g220
sg35
V34
p484
sg37
(lp485
Vswift
p486
aVrapid-spin
p487
aVcamouflage
p488
aVcosmic-power
p489
asg43
g44
sg45
Vnatural-cure
p490
sbag1
(g25
g3
Ntp491
Rp492
(dp493
g29
V319
p494
sg31
VSharpedo
p495
sg33
g88
sg35
V36
p496
sg37
(lp497
Vscary-face
p498
aVswagger
p499
aVcrunch
p500
aVtaunt
p501
asg43
g44
sg45
Vrough-skin
p502
sbasg71
I00
sg72
g73
sbag1
(g2
g3
Ntp503
Rp504
(dp505
g7
VSpr RS Swimmer M.png
p506
sg9
VSwimmer
p507
sg11
VTony{{tt|*|Fourth rematch onwards}}
p508
sg13
V312
p509
sg15
g103
sg17
g18
sg19
g20
sg21
g22
sg23
(lp510
g1
(g25
g3
Ntp511
Rp512
(dp513
g29
V121
p514
sg31
VStarmie
p515
sg33
g220
sg35
V37
p516
sg37
(lp517
Vrecover
p518
aVconfuse-ray
p519
aVswift
p520
aVrapid-spin
p521
asg43
g44
sg45
Villuminate
p522
sbag1
(g25
g3
Ntp523
Rp524
(dp525
g29
V319
p526
sg31
VSharpedo
p527
sg33
g88
sg35
V39
p528
sg37
(lp529
Vscary-face
p530
aVswagger
p531
aVcrunch
p532
aVtaunt
p533
asg43
g44
sg45
Vrough-skin
p534
sbasg71
I00
sg72
g73
sbag1
(g2
g3
Ntp535
Rp536
(dp537
g7
VVSSwimmer F ORAS.png
p538
sg9
VSwimmer \u2640
p539
sg11
VBeth
p540
sg13
V432
p541
sg15
g81
sg17
g18
sg19
g20
sg21
VSM
p542
sg23
(lp543
g1
(g25
g3
Ntp544
Rp545
(dp546
g29
V279
p547
sg31
VPelipper
p548
sg33
g34
sg35
V27
p549
sg37
(lp550
Vfling
p551
aVsoak
p552
aVhurricane
p553
ag553
asg43
g44
sg45
Vdrizzle
p554
sbasg71
I00
sg72
Vsun-moon
p555
sbag1
(g2
g3
Ntp556
Rp557
(dp558
g7
VVSSwimmer F ORAS.png
p559
sg9
VSwimmer \u2640
p560
sg11
VDenise
p561
sg13
V400
p562
sg15
g103
sg17
g18
sg19
g20
sg21
g542
sg23
(lp563
g1
(g25
g3
Ntp564
Rp565
(dp566
g29
V118
p567
sg31
VGoldeen
p568
sg33
g34
sg35
V25
p569
sg37
(lp570
Vwater-sport
p571
aVwater-pulse
p572
aVaqua-ring
p573
aVsoak
p574
asg43
g44
sg45
Vwater-veil
p575
sbag1
(g25
g3
Ntp576
Rp577
(dp578
g29
V320
p579
sg31
VWailmer
p580
sg33
g34
sg35
V25
p581
sg37
(lp582
Vbounce
p583
aVwater-pulse
p584
aVbrine
p585
aVheavy-slam
p586
asg43
g44
sg45
Vwater-veil
p587
sbasg71
I00
sg72
g555
sbag1
(g2
g3
Ntp588
Rp589
(dp590
g7
VVSSwimmer M VI.png
p591
sg9
VSwimmer \u2642
p592
sg11
VDarrin
p593
sg13
V432
p594
sg15
g81
sg17
g18
sg19
g20
sg21
VSM
p595
sg23
(lp596
g1
(g25
g3
Ntp597
Rp598
(dp599
g29
V339
p600
sg31
VBarboach
p601
sg33
g88
sg35
V27
p602
sg37
(lp603
Vwater-sport
p604
aVwater-pulse
p605
aVaqua-tail
p606
aVmud-bomb
p607
asg43
g44
sg45
Vanticipation
p608
sbasg71
I00
sg72
g555
sbag1
(g2
g3
Ntp609
Rp610
(dp611
g7
VVSSis & Bro.png
p612
sg9
VSis & Bro
p613
sg11
VLisa & Ray
p614
sg13
V520
p615
sg15
g103
sg17
g18
sg19
g20
sg21
VSM
p616
sg23
(lp617
g1
(g25
g3
Ntp618
Rp619
(dp620
g29
V118
p621
sg31
VGoldeen
p622
sg33
g88
sg35
V27
p623
sg37
(lp624
Vwater-sport
p625
aVwater-pulse
p626
aVaqua-ring
p627
aVsoak
p628
asg43
g44
sg45
Vwater-veil
p629
sbag1
(g25
g3
Ntp630
Rp631
(dp632
g29
V341
p633
sg31
VCorphish
p634
sg33
g88
sg35
V26
p635
sg37
(lp636
Vknock-off
p637
aVnight-slash
p638
aVdouble-hit
p639
aVrazor-shell
p640
asg43
g44
sg45
Vhyper-cutter
p641
sbasg71
I00
sg72
g555
sbag1
(g2
g3
Ntp642
Rp643
(dp644
g7
VVSSwimmer M VI.png
p645
sg9
VSwimmer \u2642
p646
sg11
VTony
p647
sg13
V432
p648
sg15
g81
sg17
g18
sg19
g20
sg21
g595
sg23
(lp649
g1
(g25
g3
Ntp650
Rp651
(dp652
g29
V072
p653
sg31
VTentacool
p654
sg33
g88
sg35
V27
p655
sg37
(lp656
Vpoison-jab
p657
aVsludge-wave
p658
aVacid-spray
p659
aVhex
p660
asg43
g44
sg45
Vliquid-ooze
p661
sbasg71
I00
sg72
g555
sbag1
(g2
g3
Ntp662
Rp663
(dp664
g7
VVSScuba Diver.png
p665
sg9
VScuba Diver
p666
sg11
VKeaton
p667
sg13
V1,600
p668
sg15
g103
sg17
g18
sg19
g20
sg21
VSM
p669
sg23
(lp670
g1
(g25
g3
Ntp671
Rp672
(dp673
g29
V320
p674
sg31
VWailmer
p675
sg33
g88
sg35
V38
p676
sg37
(lp677
Vbounce
p678
aVwater-pulse
p679
aVbrine
p680
aVheavy-slam
p681
asg43
g44
sg45
Voblivious
p682
sbag1
(g25
g3
Ntp683
Rp684
(dp685
g29
V321
p686
sg31
VWailord
p687
sg33
g88
sg35
V40
p688
sg37
(lp689
Vheavy-slam
p690
ag690
aVsoak
p691
aVnoble-roar
p692
asg43
g44
sg45
Voblivious
p693
sbasg71
I00
sg72
g555
sbag1
(g2
g3
Ntp694
Rp695
(dp696
g7
VVSFree Diver.png
p697
sg9
VFree Diver
p698
sg11
VHollie
p699
sg13
V1,640
p700
sg15
g81
sg17
g18
sg19
g20
sg21
VSM
p701
sg23
(lp702
g1
(g25
g3
Ntp703
Rp704
(dp705
g29
V171
p706
sg31
VLanturn
p707
sg33
g34
sg35
V41
p708
sg37
(lp709
Velectro-ball
p710
ag710
aVion-deluge
p711
aVeerie-impulse
p712
asg43
g44
sg45
Villuminate
p713
sbasg71
I00
sg72
g555
sbag1
(g2
g3
Ntp714
Rp715
(dp716
g7
VVSSwimmer M VI.png
p717
sg9
VSwimmer \u2642
p718
sg11
VTony
p719
sg13
V544<br><small>After earning the {{badge|Feather}}</small>
p720
sg15
g81
sg17
g18
sg19
g20
sg21
g595
sg23
(lp721
g1
(g25
g3
Ntp722
Rp723
(dp724
g29
V073
p725
sg31
VTentacruel
p726
sg33
g88
sg35
V34
p727
sg37
(lp728
Vsludge-wave
p729
aVacid-spray
p730
aVhex
p731
aVreflect-type
p732
asg43
g44
sg45
Vliquid-ooze
p733
sbasg71
I00
sg72
g555
sbag1
(g2
g3
Ntp734
Rp735
(dp736
g7
VVSSwimmer M VI.png
p737
sg9
VSwimmer \u2642
p738
sg11
VTony
p739
sg13
V656<br><small>After earning the {{badge|Mind}}</small>
p740
sg15
g81
sg17
g18
sg19
g20
sg21
g595
sg23
(lp741
g1
(g25
g3
Ntp742
Rp743
(dp744
g29
V073
p745
sg31
VTentacruel
p746
sg33
g88
sg35
V41
p747
sg37
(lp748
Vsludge-wave
p749
aVacid-spray
p750
aVhex
p751
aVreflect-type
p752
asg43
g44
sg45
Vliquid-ooze
p753
sbasg71
I00
sg72
g555
sbag1
(g2
g3
Ntp754
Rp755
(dp756
g7
VVSSwimmer M VI.png
p757
sg9
VSwimmer \u2642
p758
sg11
VTony
p759
sg13
V720<br><small>After earning the {{badge|Rain}}</small>
p760
sg15
g81
sg17
g18
sg19
g20
sg21
g595
sg23
(lp761
g1
(g25
g3
Ntp762
Rp763
(dp764
g29
V073
p765
sg31
VTentacruel
p766
sg33
g88
sg35
V45
p767
sg37
(lp768
Vsludge-wave
p769
aVacid-spray
p770
aVhex
p771
aVreflect-type
p772
asg43
g44
sg45
Vclear-body
p773
sbasg71
I00
sg72
g555
sbag1
(g2
g3
Ntp774
Rp775
(dp776
g7
VVSSwimmer M VI.png
p777
sg9
VSwimmer \u2642
p778
sg11
VTony
p779
sg13
V784<br><small>After entering the [[Hall of Fame]]</small>
p780
sg15
g103
sg17
g18
sg19
g20
sg21
g595
sg23
(lp781
g1
(g25
g3
Ntp782
Rp783
(dp784
g29
V073
p785
sg31
VTentacruel
p786
sg33
g88
sg35
V49
p787
sg37
(lp788
Vsludge-wave
p789
aVacid-spray
p790
aVhex
p791
aVreflect-type
p792
asg43
g44
sg45
Vliquid-ooze
p793
sbag1
(g25
g3
Ntp794
Rp795
(dp796
g29
V593
p797
sg31
VJellicent
p798
sg33
g88
sg35
V49
p799
sg37
(lp800
Vwring-out
p801
ag801
aVominous-wind
p802
aVhex
p803
asg43
g44
sg45
Vwater-absorb
p804
sbasg71
I00
sg72
g555
sba.