(lp0
ccopy_reg
_reconstructor
p1
(c__main__
Trainer
p2
c__builtin__
object
p3
Ntp4
Rp5
(dp6
VtSprite
p7
VSpr RS Swimmer M.png
p8
sVtClass
p9
VSwimmer
p10
sVtName
p11
VFranklin
p12
sVtMoney
p13
V272
p14
sVtPokeCount
p15
V2
p16
sVtLocation
p17
Vwiki/Hoenn_Route_133
p18
sVtRegion
p19
VHoenn
p20
sVtGame
p21
VRS
p22
sVtPokes
p23
(lp24
g1
(c__main__
FinishedPokemon
p25
g3
Ntp26
Rp27
(dp28
VpDexNo
p29
V073
p30
sVpSpecies
p31
VTentacruel
p32
sVpGender
p33
VM
p34
sVpLevel
p35
V34
p36
sVpMoves
p37
(lp38
Vscreech
p39
aVbarrier
p40
aVconstrict
p41
ag41
asVpHold
p42
V
p43
sVpAbility
p44
Vliquid-ooze
p45
sbag1
(g25
g3
Ntp46
Rp47
(dp48
g29
V364
p49
sg31
VSealeo
p50
sg33
g34
sg35
V34
p51
sg37
(lp52
Vencore
p53
aVhail
p54
aVice-ball
p55
aVsheer-cold
p56
asg42
g43
sg44
Vthick-fat
p57
sbasVbossFlag
p58
I00
sVtLongGame
p59
Vruby-sapphire
p60
sbag1
(g2
g3
Ntp61
Rp62
(dp63
g7
VSpr RS Cooltrainer M.png
p64
sg9
VCool Trainer
p65
sg11
VWarren
p66
sg13
V1632
p67
sg15
V3
p68
sg17
g18
sg19
g20
sg21
g22
sg23
(lp69
g1
(g25
g3
Ntp70
Rp71
(dp72
g29
V075
p73
sg31
VGraveler
p74
sg33
g34
sg35
V34
p75
sg37
(lp76
Vmagnitude
p77
aVmud-sport
p78
ag78
aVrock-blast
p79
asg42
g43
sg44
Vsturdy
p80
sbag1
(g25
g3
Ntp81
Rp82
(dp83
g29
V219
p84
sg31
VMagcargo
p85
sg33
g34
sg35
V34
p86
sg37
(lp87
Vsmog
p88
aVamnesia
p89
aVrock-slide
p90
aVyawn
p91
asg42
g43
sg44
Vflame-body
p92
sbag1
(g25
g3
Ntp93
Rp94
(dp95
g29
V272
p96
sg31
VLudicolo
p97
sg33
g34
sg35
V34
p98
sg37
(lp99
Vgrowl
p100
aVabsorb
p101
aVnature-power
p102
aVastonish
p103
asg42
g43
sg44
Vswift-swim
p104
sbasg58
I00
sg59
g60
sbag1
(g2
g3
Ntp105
Rp106
(dp107
g7
VSpr RS Bird Keeper.png
p108
sg9
VBird Keeper
p109
sg11
VBeck
p110
sg13
V1088
p111
sg15
g16
sg17
g18
sg19
g20
sg21
g22
sg23
(lp112
g1
(g25
g3
Ntp113
Rp114
(dp115
g29
V279
p116
sg31
VPelipper
p117
sg33
g34
sg35
V34
p118
sg37
(lp119
Vstockpile
p120
aVspit-up
p121
aVswallow
p122
aVwater-sport
p123
asg42
g43
sg44
Vdrizzle
p124
sbag1
(g25
g3
Ntp125
Rp126
(dp127
g29
V279
p128
sg31
VPelipper
p129
sg33
g34
sg35
V34
p130
sg37
(lp131
Vstockpile
p132
aVspit-up
p133
aVswallow
p134
aVwater-sport
p135
asg42
g43
sg44
Vdrizzle
p136
sbasg58
I00
sg59
g60
sbag1
(g2
g3
Ntp137
Rp138
(dp139
g7
VSpr RS Swimmer F.png
p140
sg9
VSwimmer
p141
sg11
VDebra
p142
sg13
V272
p143
sg15
g16
sg17
g18
sg19
g20
sg21
g22
sg23
(lp144
g1
(g25
g3
Ntp145
Rp146
(dp147
g29
V118
p148
sg31
VGoldeen
p149
sg33
VF
p150
sg35
V34
p151
sg37
(lp152
Vagility
p153
aVwaterfall
p154
aVflail
p155
aVwater-sport
p156
asg42
g43
sg44
Vswift-swim
p157
sbag1
(g25
g3
Ntp158
Rp159
(dp160
g29
V119
p161
sg31
VSeaking
p162
sg33
g150
sg35
V34
p163
sg37
(lp164
Vagility
p165
aVwaterfall
p166
aVflail
p167
aVwater-sport
p168
asg42
g43
sg44
Vwater-veil
p169
sbasg58
I00
sg59
g60
sbag1
(g2
g3
Ntp170
Rp171
(dp172
g7
VSpr RS Swimmer F.png
p173
sg9
VSwimmer
p174
sg11
VLinda
p175
sg13
V272
p176
sg15
g16
sg17
g18
sg19
g20
sg21
g22
sg23
(lp177
g1
(g25
g3
Ntp178
Rp179
(dp180
g29
V116
p181
sg31
VHorsea
p182
sg33
g150
sg35
V34
p183
sg37
(lp184
Vsmokescreen
p185
aVbubble
p186
aVtwister
p187
aVdragon-dance
p188
asg42
g43
sg44
Vsniper
p189
sbag1
(g25
g3
Ntp190
Rp191
(dp192
g29
V117
p193
sg31
VSeadra
p194
sg33
g150
sg35
V34
p195
sg37
(lp196
Vsmokescreen
p197
aVbubble
p198
aVtwister
p199
aVdragon-dance
p200
asg42
g43
sg44
Vsniper
p201
sbasg58
I00
sg59
g60
sbag1
(g2
g3
Ntp202
Rp203
(dp204
g7
VSpr RS Swimmer F.png
p205
sg9
VSwimmer
p206
sg11
VLinda
p207
sg13
V264
p208
sg15
g16
sg17
g18
sg19
g20
sg21
g22
sg23
(lp209
g1
(g25
g3
Ntp210
Rp211
(dp212
g29
V116
p213
sg31
VHorsea
p214
sg33
g150
sg35
V33
p215
sg37
(lp216
Vsmokescreen
p217
aVbubble
p218
aVtwister
p219
aVdragon-dance
p220
asg42
g43
sg44
Vswift-swim
p221
sbag1
(g25
g3
Ntp222
Rp223
(dp224
g29
V117
p225
sg31
VSeadra
p226
sg33
g150
sg35
V33
p227
sg37
(lp228
Vsmokescreen
p229
aVbubble
p230
aVtwister
p231
aVdragon-dance
p232
asg42
g43
sg44
Vpoison-point
p233
sbasg58
I00
sg59
g60
sbag1
(g2
g3
Ntp234
Rp235
(dp236
g7
VSpr RS Bird Keeper.png
p237
sg9
VBird Keeper
p238
sg11
VBeck
p239
sg13
V1088
p240
sg15
V1
p241
sg17
g18
sg19
g20
sg21
g22
sg23
(lp242
g1
(g25
g3
Ntp243
Rp244
(dp245
g29
V357
p246
sg31
VTropius
p247
sg33
g34
sg35
V34
p248
sg37
(lp249
Vsolar-beam
p250
aVsweet-scent
p251
aVsynthesis
p252
aVmagical-leaf
p253
asg42
g43
sg44
Vsolar-power
p254
sbasg58
I00
sg59
g60
sbag1
(g2
g3
Ntp255
Rp256
(dp257
g7
VSpr RS Expert M.png
p258
sg9
VExpert
p259
sg11
VConor
p260
sg13
V1320<br><small>Potential [[Double Battle]] with Mollie</small>
p261
sg15
g16
sg17
g18
sg19
g20
sg21
g22
sg23
(lp262
g1
(g25
g3
Ntp263
Rp264
(dp265
g29
V170
p266
sg31
VChinchou
p267
sg33
g34
sg35
V33
p268
sg37
(lp269
Vbubble
p270
aVflail
p271
aVspark
p272
aVcharge
p273
asg42
g43
sg44
Villuminate
p274
sbag1
(g25
g3
Ntp275
Rp276
(dp277
g29
V297
p278
sg31
VHariyama
p279
sg33
g34
sg35
V33
p280
sg37
(lp281
Vsmelling-salts
p282
aVknock-off
p283
aVarm-thrust
p284
ag284
asg42
g43
sg44
Vguts
p285
sbasg58
I00
sg59
g60
sbag1
(g2
g3
Ntp286
Rp287
(dp288
g7
VSpr RS Expert F.png
p289
sg9
VExpert
p290
sg11
VMollie
p291
sg13
V1320<br><small>Potential [[Double Battle]] with Conor</small>
p292
sg15
g16
sg17
g18
sg19
g20
sg21
g22
sg23
(lp293
g1
(g25
g3
Ntp294
Rp295
(dp296
g29
V340
p297
sg31
VWhiscash
p298
sg33
g150
sg35
V33
p299
sg37
(lp300
Vmud-sport
p301
aVtickle
p302
aVwater-sport
p303
ag303
asg42
g43
sg44
Voblivious
p304
sbag1
(g25
g3
Ntp305
Rp306
(dp307
g29
V307
p308
sg31
VMeditite
p309
sg33
g150
sg35
V33
p310
sg37
(lp311
Vdetect
p312
aVhidden-power
p313
aVpsych-up
p314
aVcalm-mind
p315
asg42
g43
sg44
Vpure-power
p316
sbasg58
I00
sg59
g60
sbag1
(g2
g3
Ntp317
Rp318
(dp319
g7
VSpr RS Cooltrainer M.png
p320
sg9
VCool Trainer
p321
sg11
VWarren
p322
sg13
V1584
p323
sg15
g16
sg17
g18
sg19
g20
sg21
g22
sg23
(lp324
g1
(g25
g3
Ntp325
Rp326
(dp327
g29
V075
p328
sg31
VGraveler
p329
sg33
g34
sg35
V33
p330
sg37
(lp331
Vmagnitude
p332
aVmud-sport
p333
ag333
aVrock-blast
p334
asg42
g43
sg44
Vrock-head
p335
sbag1
(g25
g3
Ntp336
Rp337
(dp338
g29
V272
p339
sg31
VLudicolo
p340
sg33
g34
sg35
V33
p341
sg37
(lp342
Vgrowl
p343
aVabsorb
p344
aVnature-power
p345
aVastonish
p346
asg42
g43
sg44
Vrain-dish
p347
sbasg58
I00
sg59
g60
sbag1
(g2
g3
Ntp348
Rp349
(dp350
g7
VSpr RS Swimmer F.png
p351
sg9
VSwimmer
p352
sg11
VDebra
p353
sg13
V272<br><small>Potential [[Double Battle]] with Franklin</small>
p354
sg15
g241
sg17
g18
sg19
g20
sg21
g22
sg23
(lp355
g1
(g25
g3
Ntp356
Rp357
(dp358
g29
V119
p359
sg31
VSeaking
p360
sg33
g150
sg35
V34
p361
sg37
(lp362
Vagility
p363
aVwaterfall
p364
aVflail
p365
aVwater-sport
p366
asg42
g43
sg44
Vwater-veil
p367
sbasg58
I00
sg59
g60
sbag1
(g2
g3
Ntp368
Rp369
(dp370
g7
VSpr RS Swimmer M.png
p371
sg9
VSwimmer
p372
sg11
VFranklin
p373
sg13
V272<br><small>Potential [[Double Battle]] with Debra</small>
p374
sg15
g241
sg17
g18
sg19
g20
sg21
g22
sg23
(lp375
g1
(g25
g3
Ntp376
Rp377
(dp378
g29
V364
p379
sg31
VSealeo
p380
sg33
g34
sg35
V34
p381
sg37
(lp382
Vencore
p383
aVhail
p384
aVice-ball
p385
aVsheer-cold
p386
asg42
g43
sg44
Vice-body
p387
sbasg58
I00
sg59
g60
sbag1
(g2
g3
Ntp388
Rp389
(dp390
g7
VVSFisherman ORAS.png
p391
sg9
VFisherman
p392
sg11
VRiver
p393
sg13
V1,248
p394
sg15
g241
sg17
g18
sg19
g20
sg21
VSM
p395
sg23
(lp396
g1
(g25
g3
Ntp397
Rp398
(dp399
g29
V117
p400
sg31
VSeadra
p401
sg33
g34
sg35
V39
p402
sg37
(lp403
Vtwister
p404
aVdragon-dance
p405
aVbrine
p406
aVdragon-pulse
p407
asg42
g43
sg44
Vpoison-point
p408
sbasg58
I00
sg59
Vsun-moon
p409
sbag1
(g2
g3
Ntp410
Rp411
(dp412
g7
VVSBird Keeper.png
p413
sg9
VBird Keeper
p414
sg11
VBeck
p415
sg13
V1,560
p416
sg15
g241
sg17
g18
sg19
g20
sg21
VSM
p417
sg23
(lp418
g1
(g25
g3
Ntp419
Rp420
(dp421
g29
V227
p422
sg31
VSkarmory
p423
sg33
g34
sg35
V39
p424
sg37
(lp425
Vfeint
p426
aVnight-slash
p427
aVair-slash
p428
aVautotomize
p429
asg42
g43
sg44
Vsturdy
p430
sbasg58
I00
sg59
g409
sbag1
(g2
g3
Ntp431
Rp432
(dp433
g7
VVSAce Trainer M ORAS.png
p434
sg9
VAce Trainer
p435
sg11
VWarren
p436
sg13
V2,280
p437
sg15
g68
sg17
g18
sg19
g20
sg21
g417
sg23
(lp438
g1
(g25
g3
Ntp439
Rp440
(dp441
g29
V305
p442
sg31
VLairon
p443
sg33
g34
sg35
V38
p444
sg37
(lp445
Vmetal-burst
p446
aViron-head
p447
aVautotomize
p448
aVheavy-slam
p449
asg42
g43
sg44
Vsturdy
p450
sbag1
(g25
g3
Ntp451
Rp452
(dp453
g29
V065
p454
sg31
VAlakazam
p455
sg33
g34
sg35
V38
p456
sg37
(lp457
Vmiracle-eye
p458
aVpsycho-cut
p459
aVtelekinesis
p460
aVally-switch
p461
asg42
g43
sg44
Vsynchronize
p462
sbag1
(g25
g3
Ntp463
Rp464
(dp465
g29
V310
p466
sg31
VManectric
p467
sg33
g34
sg35
V38
p468
sg37
(lp469
Vdischarge
p470
aVwild-charge
p471
aVelectric-terrain
p472
ag472
asg42
g43
sg44
Vlightning-rod
p473
sbasg58
I00
sg59
g409
sbag1
(g2
g3
Ntp474
Rp475
(dp476
g7
VVSBackpacker.png
p477
sg9
VBackpacker
p478
sg11
VGrayson
p479
sg13
V936
p480
sg15
g241
sg17
g18
sg19
g20
sg21
g417
sg23
(lp481
g1
(g25
g3
Ntp482
Rp483
(dp484
g29
V203
p485
sg31
VGirafarig
p486
sg33
g34
sg35
V39
p487
sg37
(lp488
Vguard-swap
p489
aVnasty-plot
p490
aVzen-headbutt
p491
aVdouble-hit
p492
asg42
g43
sg44
Vearly-bird
p493
sbasg58
I00
sg59
g409
sbag1
(g2
g3
Ntp494
Rp495
(dp496
g7
VVSSwimmer F ORAS.png
p497
sg9
VSwimmer \u2640
p498
sg11
VDebra
p499
sg13
V624
p500
sg15
g241
sg17
g18
sg19
g20
sg21
g417
sg23
(lp501
g1
(g25
g3
Ntp502
Rp503
(dp504
g29
V222
p505
sg31
VCorsola
p506
sg33
g150
sg35
V39
p507
sg37
(lp508
Vlucky-chant
p509
aVaqua-ring
p510
aVpower-gem
p511
aVearth-power
p512
asg42
g43
sg44
Vnatural-cure
p513
sbasg58
I00
sg59
g409
sbag1
(g2
g3
Ntp514
Rp515
(dp516
g7
VVSSwimmer M VI.png
p517
sg9
VSwimmer \u2642
p518
sg11
VFranklin
p519
sg13
V576
p520
sg15
g16
sg17
g18
sg19
g20
sg21
VSM
p521
sg23
(lp522
g1
(g25
g3
Ntp523
Rp524
(dp525
g29
V340
p526
sg31
VWhiscash
p527
sg33
g34
sg35
V36
p528
sg37
(lp529
Vaqua-tail
p530
aVmud-bomb
p531
aVzen-headbutt
p532
aVbelch
p533
asg42
g43
sg44
Voblivious
p534
sbag1
(g25
g3
Ntp535
Rp536
(dp537
g29
V117
p538
sg31
VSeadra
p539
sg33
g34
sg35
V36
p540
sg37
(lp541
Vtwister
p542
aVdragon-dance
p543
aVbrine
p544
aVdragon-pulse
p545
asg42
g43
sg44
Vpoison-point
p546
sbasg58
I00
sg59
g409
sbag1
(g2
g3
Ntp547
Rp548
(dp549
g7
VVSSwimmer F ORAS.png
p550
sg9
VSwimmer \u2640
p551
sg11
VLinda
p552
sg13
V592
p553
sg15
g16
sg17
g18
sg19
g20
sg21
g417
sg23
(lp554
g1
(g25
g3
Ntp555
Rp556
(dp557
g29
V279
p558
sg31
VPelipper
p559
sg33
g150
sg35
V37
p560
sg37
(lp561
Vfling
p562
aVsoak
p563
aVhurricane
p564
ag564
asg42
g43
sg44
Vdrizzle
p565
sbag1
(g25
g3
Ntp566
Rp567
(dp568
g29
V119
p569
sg31
VSeaking
p570
sg33
g150
sg35
V37
p571
sg37
(lp572
Vwater-pulse
p573
aVaqua-ring
p574
aVpoison-jab
p575
aVsoak
p576
asg42
g43
sg44
Vwater-veil
p577
sbasg58
I00
sg59
g409
sbag1
(g2
g3
Ntp578
Rp579
(dp580
g7
VVSSwimmer F ORAS.png
p581
sg9
VSwimmer \u2640
p582
sg11
VSheryl
p583
sg13
V608
p584
sg15
g16
sg17
g18
sg19
g20
sg21
g417
sg23
(lp585
g1
(g25
g3
Ntp586
Rp587
(dp588
g29
V370
p589
sg31
VLuvdisc
p590
sg33
g150
sg35
V36
p591
sg37
(lp592
Vcaptivate
p593
aVsoak
p594
aVheart-stamp
p595
aVdraining-kiss
p596
asg42
g43
sg44
Vswift-swim
p597
sbag1
(g25
g3
Ntp598
Rp599
(dp600
g29
V279
p601
sg31
VPelipper
p602
sg33
g150
sg35
V38
p603
sg37
(lp604
Vfling
p605
aVsoak
p606
aVhurricane
p607
ag607
asg42
g43
sg44
Vkeen-eye
p608
sbasg58
I00
sg59
g409
sba.