(lp0
ccopy_reg
_reconstructor
p1
(c__main__
Trainer
p2
c__builtin__
object
p3
Ntp4
Rp5
(dp6
VtSprite
p7
VSpr RS Twins.png
p8
sVtClass
p9
VTwins
p10
sVtName
p11
VMiu & Yuki
p12
sVtMoney
p13
V648
p14
sVtPokeCount
p15
V2
p16
sVtLocation
p17
Vwiki/Hoenn_Route_123
p18
sVtRegion
p19
VHoenn
p20
sVtGame
p21
VRS
p22
sVtPokes
p23
(lp24
g1
(c__main__
FinishedPokemon
p25
g3
Ntp26
Rp27
(dp28
VpDexNo
p29
V267
p30
sVpSpecies
p31
VBeautifly
p32
sVpGender
p33
VM
p34
sVpLevel
p35
V27
p36
sVpMoves
p37
(lp38
Vgiga-drain
p39
aVattract
p40
aVmorning-sun
p41
aVsilver-wind
p42
asVpHold
p43
V
p44
sVpAbility
p45
Vswarm
p46
sbag1
(g25
g3
Ntp47
Rp48
(dp49
g29
V269
p50
sg31
VDustox
p51
sg33
g34
sg35
V27
p52
sg37
(lp53
Vlight-screen
p54
aVprotect
p55
aVmoonlight
p56
aVsilver-wind
p57
asg43
g44
sg45
Vshield-dust
p58
sbasVbossFlag
p59
I00
sVtLongGame
p60
Vruby-sapphire
p61
sbag1
(g2
g3
Ntp62
Rp63
(dp64
g7
VSpr RS Aroma Lady.png
p65
sg9
VAroma Lady
p66
sg11
VViolet
p67
sg13
V1000
p68
sg15
V3
p69
sg17
g18
sg19
g20
sg21
g22
sg23
(lp70
g1
(g25
g3
Ntp71
Rp72
(dp73
g29
V285
p74
sg31
VShroomish
p75
sg33
VF
p76
sg35
V25
p77
sg37
(lp78
Vpoison-powder
p79
aVstun-spore
p80
aVspore
p81
aVgiga-drain
p82
asg43
g44
sg45
Veffect-spore
p83
sbag1
(g25
g3
Ntp84
Rp85
(dp86
g29
V044
p87
sg31
VGloom
p88
sg33
g76
sg35
V25
p89
sg37
(lp90
Vpetal-dance
p91
aVsweet-scent
p92
ag92
aVmoonlight
p93
asg43
g44
sg45
Vchlorophyll
p94
sbag1
(g25
g3
Ntp95
Rp96
(dp97
g29
V286
p98
sg31
VBreloom
p99
sg33
g76
sg35
V25
p100
sg37
(lp101
Vmind-reader
p102
aVmach-punch
p103
aVdynamic-punch
p104
aVsky-uppercut
p105
asg43
g44
sg45
Veffect-spore
p106
sbasg59
I00
sg60
g61
sbag1
(g2
g3
Ntp107
Rp108
(dp109
g7
VSpr RS Hex Maniac.png
p110
sg9
VHex Maniac
p111
sg11
VKindra
p112
sg13
V744
p113
sg15
g16
sg17
g18
sg19
g20
sg21
g22
sg23
(lp114
g1
(g25
g3
Ntp115
Rp116
(dp117
g29
V355
p118
sg31
VDuskull
p119
sg33
g76
sg35
V31
p120
sg37
(lp121
Vpursuit
p122
aVfuture-sight
p123
aVwill-o-wisp
p124
aVastonish
p125
asg43
g44
sg45
Vlevitate
p126
sbag1
(g25
g3
Ntp127
Rp128
(dp129
g29
V353
p130
sg31
VShuppet
p131
sg33
g76
sg35
V31
p132
sg37
(lp133
Vwill-o-wisp
p134
aVknock-off
p135
aVgrudge
p136
aVsnatch
p137
asg43
g44
sg45
Vinsomnia
p138
sbasg59
I00
sg60
g61
sbag1
(g2
g3
Ntp139
Rp140
(dp141
g7
VSpr RS Cooltrainer F.png
p142
sg9
VCooltrainer
p143
sg11
VWendy
p144
sg13
V1488
p145
sg15
g69
sg17
g18
sg19
g20
sg21
g22
sg23
(lp146
g1
(g25
g3
Ntp147
Rp148
(dp149
g29
V303
p150
sg31
VMawile
p151
sg33
g76
sg35
V31
p152
sg37
(lp153
Vswallow
p154
aVastonish
p155
aVfake-tears
p156
aViron-defense
p157
asg43
g44
sg45
Vhyper-cutter
p158
sbag1
(g25
g3
Ntp159
Rp160
(dp161
g29
V315
p162
sg31
VRoselia
p163
sg33
g76
sg35
V31
p164
sg37
(lp165
Vingrain
p166
aVaromatherapy
p167
aVgrass-whistle
p168
aVmagical-leaf
p169
asg43
g44
sg45
Vnatural-cure
p170
sbag1
(g25
g3
Ntp171
Rp172
(dp173
g29
V279
p174
sg31
VPelipper
p175
sg33
g76
sg35
V31
p176
sg37
(lp177
Vstockpile
p178
aVspit-up
p179
aVswallow
p180
aVwater-sport
p181
asg43
g44
sg45
Vkeen-eye
p182
sbasg59
I00
sg60
g61
sbag1
(g2
g3
Ntp183
Rp184
(dp185
g7
VSpr RS Cooltrainer M.png
p186
sg9
VCooltrainer
p187
sg11
VClyde
p188
sg13
V1392
p189
sg15
V5
p190
sg17
g18
sg19
g20
sg21
g22
sg23
(lp191
g1
(g25
g3
Ntp192
Rp193
(dp194
g29
V277
p195
sg31
VSwellow
p196
sg33
g34
sg35
V29
p197
sg37
(lp198
Vfocus-energy
p199
ag199
aVendeavor
p200
aVaerial-ace
p201
asg43
g44
sg45
Vguts
p202
sbag1
(g25
g3
Ntp203
Rp204
(dp205
g29
V328
p206
sg31
VTrapinch
p207
sg33
g34
sg35
V29
p208
sg37
(lp209
Vfeint-attack
p210
aVsandstorm
p211
aVcrunch
p212
aVsand-tomb
p213
asg43
g44
sg45
Vhyper-cutter
p214
sbag1
(g25
g3
Ntp215
Rp216
(dp217
g29
V320
p218
sg31
VWailmer
p219
sg33
g34
sg35
V29
p220
sg37
(lp221
Vwhirlpool
p222
aVastonish
p223
aVwater-spout
p224
aVwater-pulse
p225
asg43
g44
sg45
Voblivious
p226
sbag1
(g25
g3
Ntp227
Rp228
(dp229
g29
V082
p230
sg31
VMagneton
p231
sg33
VU
p232
sg35
V29
p233
sg37
(lp234
Vzap-cannon
p235
aVlock-on
p236
aVspark
p237
aVmetal-sound
p238
asg43
g44
sg45
Vsturdy
p239
sbag1
(g25
g3
Ntp240
Rp241
(dp242
g29
V275
p243
sg31
VShiftry
p244
sg33
g34
sg35
V29
p245
sg37
(lp246
Vpound
p247
aVgrowth
p248
aVharden
p249
aVnature-power
p250
asg43
g44
sg45
Vearly-bird
p251
sbasg59
I00
sg60
g61
sbag1
(g2
g3
Ntp252
Rp253
(dp254
g7
VSpr RS Psychic F.png
p255
sg9
VPsychic
p256
sg11
VJacki
p257
sg13
V744
p258
sg15
g16
sg17
g18
sg19
g20
sg21
g22
sg23
(lp259
g1
(g25
g3
Ntp260
Rp261
(dp262
g29
V064
p263
sg31
VKadabra
p264
sg33
g76
sg35
V31
p265
sg37
(lp266
Vkinesis
p267
aVfuture-sight
p268
aVtrick
p269
aVrole-play
p270
asg43
g44
sg45
Vsynchronize
p271
sbag1
(g25
g3
Ntp272
Rp273
(dp274
g29
V337
p275
sg31
VLunatone
p276
sg33
g232
sg35
V31
p277
sg37
(lp278
Vpsywave
p279
aVexplosion
p280
aVfuture-sight
p281
aVcosmic-power
p282
asg43
g44
sg45
Vlevitate
p283
sbasg59
I00
sg60
g61
sbag1
(g2
g3
Ntp284
Rp285
(dp286
g7
VSpr RS Psychic M.png
p287
sg9
VPsychic
p288
sg11
VCameron
p289
sg13
V744
p290
sg15
g16
sg17
g18
sg19
g20
sg21
g22
sg23
(lp291
g1
(g25
g3
Ntp292
Rp293
(dp294
g29
V064
p295
sg31
VKadabra
p296
sg33
g34
sg35
V31
p297
sg37
(lp298
Vkinesis
p299
aVfuture-sight
p300
aVtrick
p301
aVrole-play
p302
asg43
g44
sg45
Vinner-focus
p303
sbag1
(g25
g3
Ntp304
Rp305
(dp306
g29
V338
p307
sg31
VSolrock
p308
sg33
g232
sg35
V31
p309
sg37
(lp310
Vpsywave
p311
aVexplosion
p312
aVrock-slide
p313
aVcosmic-power
p314
asg43
g44
sg45
Vlevitate
p315
sbasg59
I00
sg60
g61
sba.