(lp0
ccopy_reg
_reconstructor
p1
(c__main__
Trainer
p2
c__builtin__
object
p3
Ntp4
Rp5
(dp6
VtSprite
p7
VSpr RS Sidney.png
p8
sVtClass
p9
VElite Four
p10
sVtName
p11
VSidney
p12
sVtMoney
p13
V4900
p14
sVtPokeCount
p15
I5
sVtLocation
p16
Vwiki/hoennE4
p17
sVtRegion
p18
VHoenn
p19
sVtGame
p20
VRS
p21
sVtPokes
p22
(lp23
g1
(c__main__
FinishedPokemon
p24
g3
Ntp25
Rp26
(dp27
VpDexNo
p28
I262
sVpSpecies
p29
VMightyena
p30
sVpGender
p31
VM
p32
sVpLevel
p33
V46
p34
sVpMoves
p35
(lp36
VCrunch
p37
aVTake Down
p38
aVSand-Attack
p39
aVRoar
p40
asVpHold
p41
V
p42
sVpAbility
p43
VIntimidate
p44
sbag1
(g24
g3
Ntp45
Rp46
(dp47
g28
I332
sg29
VCacturne
p48
sg31
g32
sg33
V46
p49
sg35
(lp50
VFaint Attack
p51
aVNeedle Arm
p52
aVCotton Spore
p53
aVLeech Seed
p54
asg41
g42
sg43
VSand Veil
p55
sbag1
(g24
g3
Ntp56
Rp57
(dp58
g28
I275
sg29
VShiftry
p59
sg31
g32
sg33
V48
p60
sg35
(lp61
VFake Out
p62
aVExtrasensory
p63
aVDouble Team
p64
aVSwagger
p65
asg41
g42
sg43
VChlorophyll
p66
sbag1
(g24
g3
Ntp67
Rp68
(dp69
g28
I319
sg29
VSharpedo
p70
sg31
g32
sg33
V48
p71
sg35
(lp72
VSurf
p73
aVCrunch
p74
aVSlash
p75
aVSwagger
p76
asg41
g42
sg43
VRough Skin
p77
sbag1
(g24
g3
Ntp78
Rp79
(dp80
g28
I359
sg29
VAbsol
p81
sg31
g32
sg33
V49
p82
sg35
(lp83
VSwords Dance
p84
aVSlash
p85
aVAerial Ace
p86
aVSnatch
p87
asg41
VSitrus Berry
p88
sg43
VPressure
p89
sbasVbossFlag
p90
I01
sVtLongGame
p91
Vruby-sapphire
p92
sbag1
(g2
g3
Ntp93
Rp94
(dp95
g7
VSpr RS Sidney.png
p96
sg9
VElite Four
p97
sg11
VSidney
p98
sg13
V4900
p99
sg15
I5
sg16
g17
sg18
g19
sg20
g21
sg22
(lp100
g1
(g24
g3
Ntp101
Rp102
(dp103
g28
I262
sg29
VMightyena
p104
sg31
g32
sg33
V46
p105
sg35
(lp106
VRoar
p107
aVDouble-Edge
p108
aVSand-Attack
p109
aVCrunch
p110
asg41
g42
sg43
VIntimidate
p111
sbag1
(g24
g3
Ntp112
Rp113
(dp114
g28
I275
sg29
VShiftry
p115
sg31
g32
sg33
V48
p116
sg35
(lp117
VTorment
p118
aVDouble Team
p119
aVSwagger
p120
aVExtrasensory
p121
asg41
g42
sg43
VChlorophyll
p122
sbag1
(g24
g3
Ntp123
Rp124
(dp125
g28
I332
sg29
VCacturne
p126
sg31
g32
sg33
V46
p127
sg35
(lp128
VLeech Seed
p129
aVFaint Attack
p130
aVNeedle Arm
p131
aVCotton Spore
p132
asg41
g42
sg43
VSand Veil
p133
sbag1
(g24
g3
Ntp134
Rp135
(dp136
g28
I342
sg29
VCrawdaunt
p137
sg31
g32
sg33
V48
p138
sg35
(lp139
VSurf
p140
aVSwords Dance
p141
aVStrength
p142
aVFacade
p143
asg41
g42
sg43
VHyper Cutter
p144
sbag1
(g24
g3
Ntp145
Rp146
(dp147
g28
I359
sg29
VAbsol
p148
sg31
g32
sg33
V49
p149
sg35
(lp150
VAerial Ace
p151
aVRock Slide
p152
aVSwords Dance
p153
aVSlash
p154
asg41
VSitrus Berry
p155
sg43
VPressure
p156
sbasg90
I01
sg91
g92
sbag1
(g2
g3
Ntp157
Rp158
(dp159
g7
VVSSidney.png
p160
sg9
VElite Four
p161
sg11
VSidney
p162
sg13
V8,320
p163
sg15
I5
sg16
g17
sg18
g19
sg20
VSM
p164
sg22
(lp165
g1
(g24
g3
Ntp166
Rp167
(dp168
g28
I262
sg29
VMightyena
p169
sg31
g32
sg33
V50
p170
sg35
(lp171
VSwagger
p172
aVTake Down
p173
aVSucker Punch
p174
aVCrunch
p175
asg41
g42
sg43
VIntimidate
p176
sbag1
(g24
g3
Ntp177
Rp178
(dp179
g28
I275
sg29
VShiftry
p180
sg31
g32
sg33
V50
p181
sg35
(lp182
VFake Out
p183
aVFeint Attack
p184
aVExtrasensory
p185
aVLeaf Blade
p186
asg41
g42
sg43
VChlorophyll
p187
sbag1
(g24
g3
Ntp188
Rp189
(dp190
g28
I332
sg29
VCacturne
p191
sg31
g32
sg33
V50
p192
sg35
(lp193
VLeech Seed
p194
aVPayback
p195
aVNeedle Arm
p196
aVSpiky Shield
p197
asg41
g42
sg43
VSand Veil
p198
sbag1
(g24
g3
Ntp199
Rp200
(dp201
g28
I319
sg29
VSharpedo
p202
sg31
g32
sg33
V50
p203
sg35
(lp204
VCrunch
p205
aVPoison Fang
p206
aVAqua Jet
p207
aVSlash
p208
asg41
g42
sg43
VRough Skin
p209
sbag1
(g24
g3
Ntp210
Rp211
(dp212
g28
I359
sg29
VAbsol
p213
sg31
g32
sg33
V52
p214
sg35
(lp215
VAerial Ace
p216
aVNight Slash
p217
aVPsycho Cut
p218
aVSlash
p219
asg41
g42
sg43
VSuper Luck
p220
sbasg90
I01
sg91
Vsun-moon
p221
sbag1
(g2
g3
Ntp222
Rp223
(dp224
g7
VVSSidney.png
p225
sg9
VElite Four
p226
sg11
VSidney
p227
sg13
V11,520
p228
sg15
I6
sg16
g17
sg18
g19
sg20
g164
sg22
(lp229
g1
(g24
g3
Ntp230
Rp231
(dp232
g28
I560
sg29
VScrafty
p233
sg31
g32
sg33
V70
p234
sg35
(lp235
VCrunch
p236
aVBrick Break
p237
aVPoison Jab
p238
aVDragon Claw
p239
asg41
g42
sg43
VIntimidate
p240
sbag1
(g24
g3
Ntp241
Rp242
(dp243
g28
I275
sg29
VShiftry
p244
sg31
g32
sg33
V70
p245
sg35
(lp246
VFake Out
p247
aVFeint Attack
p248
aVExtrasensory
p249
aVLeaf Blade
p250
asg41
g42
sg43
VChlorophyll
p251
sbag1
(g24
g3
Ntp252
Rp253
(dp254
g28
I571
sg29
VZoroark
p255
sg31
g32
sg33
V70
p256
sg35
(lp257
VNight Slash
p258
aVShadow Claw
p259
aVDark Pulse
p260
aVFlamethrower
p261
asg41
g42
sg43
VIllusion
p262
sbag1
(g24
g3
Ntp263
Rp264
(dp265
g28
I319
sg29
VSharpedo
p266
sg31
g32
sg33
V70
p267
sg35
(lp268
VCrunch
p269
aVPoison Fang
p270
aVAqua Jet
p271
aVSlash
p272
asg41
g42
sg43
VRough Skin
p273
sbag1
(g24
g3
Ntp274
Rp275
(dp276
g28
I630
sg29
VMandibuzz
p277
sg31
VF
p278
sg33
V70
p279
sg35
(lp280
VBrave Bird
p281
aVBone Rush
p282
aVFeint Attack
p283
aVTailwind
p284
asg41
g42
sg43
VOvercoat
p285
sbag1
(g24
g3
Ntp286
Rp287
(dp288
g28
I359
sg29
VAbsol
p289
sg31
g32
sg33
V72
p290
sg35
(lp291
VAerial Ace
p292
aVNight Slash
p293
aVPsycho Cut
p294
aVSlash
p295
asg41
VAbsolite
p296
sg43
VSuper Luck
p297
sbasg90
I01
sg91
g221
sbag1
(g2
g3
Ntp298
Rp299
(dp300
g7
VSpr RS Phoebe.png
p301
sg9
VElite Four
p302
sg11
VPhoebe
p303
sg13
V5100
p304
sg15
I5
sg16
g17
sg18
g19
sg20
g21
sg22
(lp305
g1
(g24
g3
Ntp306
Rp307
(dp308
g28
I356
sg29
VDusclops
p309
sg31
g278
sg33
V48
p310
sg35
(lp311
VCurse
p312
aVConfuse Ray
p313
aVFuture Sight
p314
aVShadow Punch
p315
asg41
g42
sg43
VPressure
p316
sbag1
(g24
g3
Ntp317
Rp318
(dp319
g28
I354
sg29
VBanette
p320
sg31
g278
sg33
V49
p321
sg35
(lp322
VSpite
p323
aVWill-O-Wisp
p324
aVShadow Ball
p325
aVFaint Attack
p326
asg41
g42
sg43
VInsomnia
p327
sbag1
(g24
g3
Ntp328
Rp329
(dp330
g28
I354
sg29
VBanette
p331
sg31
g278
sg33
V49
p332
sg35
(lp333
VToxic
p334
aVSkill Swap
p335
aVShadow Ball
p336
aVPsychic
p337
asg41
g42
sg43
VInsomnia
p338
sbag1
(g24
g3
Ntp339
Rp340
(dp341
g28
I302
sg29
VSableye
p342
sg31
g278
sg33
V50
p343
sg35
(lp344
VFaint Attack
p345
aVShadow Ball
p346
aVPsychic
p347
aVAttract
p348
asg41
g42
sg43
VKeen Eye
p349
sbag1
(g24
g3
Ntp350
Rp351
(dp352
g28
I356
sg29
VDusclops
p353
sg31
g278
sg33
V51
p354
sg35
(lp355
VConfuse Ray
p356
aVShadow Ball
p357
aVIce Beam
p358
aVEarthquake
p359
asg41
VSitrus Berry
p360
sg43
VPressure
p361
sbasg90
I01
sg91
g92
sbag1
(g2
g3
Ntp362
Rp363
(dp364
g7
VSpr RS Phoebe.png
p365
sg9
VElite Four
p366
sg11
VPhoebe
p367
sg13
V5100
p368
sg15
I5
sg16
g17
sg18
g19
sg20
g21
sg22
(lp369
g1
(g24
g3
Ntp370
Rp371
(dp372
g28
I356
sg29
VDusclops
p373
sg31
g278
sg33
V48
p374
sg35
(lp375
VShadow Punch
p376
aVConfuse Ray
p377
aVCurse
p378
aVProtect
p379
asg41
g42
sg43
VPressure
p380
sbag1
(g24
g3
Ntp381
Rp382
(dp383
g28
I354
sg29
VBanette
p384
sg31
g278
sg33
V49
p385
sg35
(lp386
VShadow Ball
p387
aVGrudge
p388
aVWill-O-Wisp
p389
aVFaint Attack
p390
asg41
g42
sg43
VInsomnia
p391
sbag1
(g24
g3
Ntp392
Rp393
(dp394
g28
I302
sg29
VSableye
p395
sg31
g278
sg33
V50
p396
sg35
(lp397
VShadow Ball
p398
aVDouble Team
p399
aVNight Shade
p400
aVFaint Attack
p401
asg41
g42
sg43
VKeen Eye
p402
sbag1
(g24
g3
Ntp403
Rp404
(dp405
g28
I354
sg29
VBanette
p406
sg31
g278
sg33
V49
p407
sg35
(lp408
VShadow Ball
p409
aVPsychic
p410
aVThunderbolt
p411
aVFacade
p412
asg41
g42
sg43
VInsomnia
p413
sbag1
(g24
g3
Ntp414
Rp415
(dp416
g28
I356
sg29
VDusclops
p417
sg31
g278
sg33
V51
p418
sg35
(lp419
VShadow Ball
p420
aVIce Beam
p421
aVRock Slide
p422
aVEarthquake
p423
asg41
VSitrus Berry
p424
sg43
VPressure
p425
sbasg90
I01
sg91
g92
sbag1
(g2
g3
Ntp426
Rp427
(dp428
g7
VVSPhoebe.png
p429
sg9
VElite Four
p430
sg11
VPhoebe
p431
sg13
V8,480
p432
sg15
I5
sg16
g17
sg18
g19
sg20
VSM
p433
sg22
(lp434
g1
(g24
g3
Ntp435
Rp436
(dp437
g28
I356
sg29
VDusclops
p438
sg31
g278
sg33
V51
p439
sg35
(lp440
VShadow Punch
p441
aVConfuse Ray
p442
aVCurse
p443
aVFuture Sight
p444
asg41
g42
sg43
VPressure
p445
sbag1
(g24
g3
Ntp446
Rp447
(dp448
g28
I354
sg29
VBanette
p449
sg31
g278
sg33
V51
p450
sg35
(lp451
VShadow Ball
p452
aVSpite
p453
aVWill-O-Wisp
p454
aVFeint Attack
p455
asg41
g42
sg43
VInsomnia
p456
sbag1
(g24
g3
Ntp457
Rp458
(dp459
g28
I302
sg29
VSableye
p460
sg31
g32
sg33
V51
p461
sg35
(lp462
VShadow Claw
p463
aVFoul Play
p464
aVPower Gem
p465
aVFake Out
p466
asg41
g42
sg43
VPrankster
p467
sbag1
(g24
g3
Ntp468
Rp469
(dp470
g28
I354
sg29
VBanette
p471
sg31
g32
sg33
V51
p472
sg35
(lp473
VShadow Ball
p474
aVGrudge
p475
aVToxic
p476
aVPsychic
p477
asg41
g42
sg43
VInsomnia
p478
sbag1
(g24
g3
Ntp479
Rp480
(dp481
g28
I477
sg29
VDusknoir
p482
sg31
g278
sg33
V53
p483
sg35
(lp484
VHex
p485
aVFire Punch
p486
aVIce Punch
p487
aVThunder Punch
p488
asg41
g42
sg43
VPressure
p489
sbasg90
I01
sg91
g221
sbag1
(g2
g3
Ntp490
Rp491
(dp492
g7
VVSPhoebe.png
p493
sg9
VElite Four
p494
sg11
VPhoebe
p495
sg13
V11,680
p496
sg15
I6
sg16
g17
sg18
g19
sg20
g433
sg22
(lp497
g1
(g24
g3
Ntp498
Rp499
(dp500
g28
I354
sg29
VBanette
p501
sg31
g32
sg33
V71
p502
sg35
(lp503
VShadow Ball
p504
aVGrudge
p505
aVToxic
p506
aVPsychic
p507
asg41
g42
sg43
VInsomnia
p508
sbag1
(g24
g3
Ntp509
Rp510
(dp511
g28
I429
sg29
VMismagius
p512
sg31
g278
sg33
V71
p513
sg35
(lp514
VShadow Ball
p515
aVPower Gem
p516
aVThunderbolt
p517
aVPain Split
p518
asg41
g42
sg43
VLevitate
p519
sbag1
(g24
g3
Ntp520
Rp521
(dp522
g28
I426
sg29
VDrifblim
p523
sg31
g278
sg33
V71
p524
sg35
(lp525
VPhantom Force
p526
aVPsychic
p527
aVIcy Wind
p528
aVAcrobatics
p529
asg41
g42
sg43
VAftermath
p530
sbag1
(g24
g3
Ntp531
Rp532
(dp533
g28
I609
sg29
VChandelure
p534
sg31
g278
sg33
V71
p535
sg35
(lp536
VHex
p537
aVFlamethrower
p538
aVEnergy Ball
p539
aVDark Pulse
p540
asg41
g42
sg43
VFlame Body
p541
sbag1
(g24
g3
Ntp542
Rp543
(dp544
g28
I477
sg29
VDusknoir
p545
sg31
g278
sg33
V71
p546
sg35
(lp547
VHex
p548
aVFire Punch
p549
aVIce Punch
p550
aVThunder Punch
p551
asg41
g42
sg43
VPressure
p552
sbag1
(g24
g3
Ntp553
Rp554
(dp555
g28
I302
sg29
VSableye
p556
sg31
g278
sg33
V73
p557
sg35
(lp558
VShadow Claw
p559
aVFoul Play
p560
aVPower Gem
p561
aVFake Out
p562
asg41
VSablenite
p563
sg43
VPrankster
p564
sbasg90
I01
sg91
g221
sbag1
(g2
g3
Ntp565
Rp566
(dp567
g7
VSpr RS Glacia.png
p568
sg9
VElite Four
p569
sg11
VGlacia
p570
sg13
V5300
p571
sg15
I5
sg16
g17
sg18
g19
sg20
g21
sg22
(lp572
g1
(g24
g3
Ntp573
Rp574
(dp575
g28
I362
sg29
VGlalie
p576
sg31
g278
sg33
V50
p577
sg35
(lp578
VHail
p579
aVLight Screen
p580
aVIce Beam
p581
aVCrunch
p582
asg41
g42
sg43
VInner Focus
p583
sbag1
(g24
g3
Ntp584
Rp585
(dp586
g28
I364
sg29
VSealeo
p587
sg31
g278
sg33
V50
p588
sg35
(lp589
VSurf
p590
aVIce Ball
p591
aVHail
p592
aVBody Slam
p593
asg41
g42
sg43
VThick Fat
p594
sbag1
(g24
g3
Ntp595
Rp596
(dp597
g28
I364
sg29
VSealeo
p598
sg31
g278
sg33
V52
p599
sg35
(lp600
VHail
p601
aVBlizzard
p602
aVDive
p603
aVAttract
p604
asg41
g42
sg43
VThick Fat
p605
sbag1
(g24
g3
Ntp606
Rp607
(dp608
g28
I362
sg29
VGlalie
p609
sg31
g278
sg33
V52
p610
sg35
(lp611
VHail
p612
aVIce Beam
p613
aVShadow Ball
p614
aVCrunch
p615
asg41
g42
sg43
VInner Focus
p616
sbag1
(g24
g3
Ntp617
Rp618
(dp619
g28
I365
sg29
VWalrein
p620
sg31
g278
sg33
V53
p621
sg35
(lp622
VBlizzard
p623
aVSurf
p624
aVBody Slam
p625
aVSheer Cold
p626
asg41
VSitrus Berry
p627
sg43
VThick Fat
p628
sbasg90
I01
sg91
g92
sbag1
(g2
g3
Ntp629
Rp630
(dp631
g7
VSpr RS Glacia.png
p632
sg9
VElite Four
p633
sg11
VGlacia
p634
sg13
V5300
p635
sg15
I5
sg16
g17
sg18
g19
sg20
g21
sg22
(lp636
g1
(g24
g3
Ntp637
Rp638
(dp639
g28
I364
sg29
VSealeo
p640
sg31
g278
sg33
V50
p641
sg35
(lp642
VEncore
p643
aVBody Slam
p644
aVHail
p645
aVIce Ball
p646
asg41
g42
sg43
VThick Fat
p647
sbag1
(g24
g3
Ntp648
Rp649
(dp650
g28
I362
sg29
VGlalie
p651
sg31
g278
sg33
V50
p652
sg35
(lp653
VLight Screen
p654
aVCrunch
p655
aVIcy Wind
p656
aVIce Beam
p657
asg41
g42
sg43
VInner Focus
p658
sbag1
(g24
g3
Ntp659
Rp660
(dp661
g28
I364
sg29
VSealeo
p662
sg31
g278
sg33
V52
p663
sg35
(lp664
VAttract
p665
aVDouble-Edge
p666
aVHail
p667
aVBlizzard
p668
asg41
g42
sg43
VThick Fat
p669
sbag1
(g24
g3
Ntp670
Rp671
(dp672
g28
I362
sg29
VGlalie
p673
sg31
g278
sg33
V52
p674
sg35
(lp675
VShadow Ball
p676
aVExplosion
p677
aVHail
p678
aVIce Beam
p679
asg41
g42
sg43
VInner Focus
p680
sbag1
(g24
g3
Ntp681
Rp682
(dp683
g28
I365
sg29
VWalrein
p684
sg31
g278
sg33
V53
p685
sg35
(lp686
VSurf
p687
aVBody Slam
p688
aVIce Beam
p689
aVSheer Cold
p690
asg41
VSitrus Berry
p691
sg43
VThick Fat
p692
sbasg90
I01
sg91
g92
sbag1
(g2
g3
Ntp693
Rp694
(dp695
g7
VVSGlacia.png
p696
sg9
VElite Four
p697
sg11
VGlacia
p698
sg13
V8,640
p699
sg15
I5
sg16
g17
sg18
g19
sg20
VSM
p700
sg22
(lp701
g1
(g24
g3
Ntp702
Rp703
(dp704
g28
I362
sg29
VGlalie
p705
sg31
g32
sg33
V52
p706
sg35
(lp707
VLight Screen
p708
aVIce Shard
p709
aVHail
p710
aVCrunch
p711
asg41
g42
sg43
VInner Focus
p712
sbag1
(g24
g3
Ntp713
Rp714
(dp715
g28
I478
sg29
VFroslass
p716
sg31
g278
sg33
V52
p717
sg35
(lp718
VConfuse Ray
p719
aVBlizzard
p720
aVHail
p721
aVOminous Wind
p722
asg41
g42
sg43
VSnow Cloak
p723
sbag1
(g24
g3
Ntp724
Rp725
(dp726
g28
I362
sg29
VGlalie
p727
sg31
g32
sg33
V52
p728
sg35
(lp729
VProtect
p730
aVIce Shard
p731
aVHail
p732
aVFreeze-Dry
p733
asg41
g42
sg43
VInner Focus
p734
sbag1
(g24
g3
Ntp735
Rp736
(dp737
g28
I478
sg29
VFroslass
p738
sg31
g278
sg33
V52
p739
sg35
(lp740
VDraining Kiss
p741
aVBlizzard
p742
aVHail
p743
aVShadow Ball
p744
asg41
g42
sg43
VSnow Cloak
p745
sbag1
(g24
g3
Ntp746
Rp747
(dp748
g28
I365
sg29
VWalrein
p749
sg31
g32
sg33
V54
p750
sg35
(lp751
VSurf
p752
aVBody Slam
p753
aVBlizzard
p754
aVSheer Cold
p755
asg41
g42
sg43
VThick Fat
p756
sbasg90
I01
sg91
g221
sbag1
(g2
g3
Ntp757
Rp758
(dp759
g7
VVSGlacia.png
p760
sg9
VElite Four
p761
sg11
VGlacia
p762
sg13
V11,840
p763
sg15
I6
sg16
g17
sg18
g19
sg20
g700
sg22
(lp764
g1
(g24
g3
Ntp765
Rp766
(dp767
g28
I460
sg29
VAbomasnow
p768
sg31
g32
sg33
V72
p769
sg35
(lp770
VBlizzard
p771
aVWood Hammer
p772
aVIce Shard
p773
aVEarthquake
p774
asg41
g42
sg43
VSnow Warning
p775
sbag1
(g24
g3
Ntp776
Rp777
(dp778
g28
I614
sg29
VBeartic
p779
sg31
g32
sg33
V72
p780
sg35
(lp781
VIcicle Crash
p782
aVSlash
p783
aVShadow Claw
p784
aVBrick Break
p785
asg41
g42
sg43
VSnow Cloak
p786
sbag1
(g24
g3
Ntp787
Rp788
(dp789
g28
I478
sg29
VFroslass
p790
sg31
g278
sg33
V72
p791
sg35
(lp792
VDraining Kiss
p793
aVBlizzard
p794
aVHail
p795
aVShadow Ball
p796
asg41
g42
sg43
VSnow Cloak
p797
sbag1
(g24
g3
Ntp798
Rp799
(dp800
g28
I584
sg29
VVanilluxe
p801
sg31
g278
sg33
V72
p802
sg35
(lp803
VIce Beam
p804
aVMirror Coat
p805
aVFreeze-Dry
p806
aVSignal Beam
p807
asg41
g42
sg43
VIce Body
p808
sbag1
(g24
g3
Ntp809
Rp810
(dp811
g28
I365
sg29
VWalrein
p812
sg31
g32
sg33
V72
p813
sg35
(lp814
VSurf
p815
aVBody Slam
p816
aVBlizzard
p817
aVSheer Cold
p818
asg41
g42
sg43
VThick Fat
p819
sbag1
(g24
g3
Ntp820
Rp821
(dp822
g28
I362
sg29
VGlalie
p823
sg31
g32
sg33
V74
p824
sg35
(lp825
VProtect
p826
aVIce Shard
p827
aVHail
p828
aVFreeze-Dry
p829
asg41
VGlalitite
p830
sg43
VInner Focus
p831
sbasg90
I01
sg91
g221
sbag1
(g2
g3
Ntp832
Rp833
(dp834
g7
VSpr RS Drake.png
p835
sg9
VElite Four
p836
sg11
VDrake
p837
sg13
V5500
p838
sg15
I5
sg16
g17
sg18
g19
sg20
g21
sg22
(lp839
g1
(g24
g3
Ntp840
Rp841
(dp842
g28
I372
sg29
VShelgon
p843
sg31
g32
sg33
V52
p844
sg35
(lp845
VDragon Claw
p846
aVRock Tomb
p847
aVProtect
p848
aVCrunch
p849
asg41
g42
sg43
VRock Head
p850
sbag1
(g24
g3
Ntp851
Rp852
(dp853
g28
I334
sg29
VAltaria
p854
sg31
g32
sg33
V54
p855
sg35
(lp856
VTake Down
p857
aVDragonBreath
p858
aVDragon Dance
p859
aVRefresh
p860
asg41
g42
sg43
VNatural Cure
p861
sbag1
(g24
g3
Ntp862
Rp863
(dp864
g28
I330
sg29
VFlygon
p865
sg31
g32
sg33
V53
p866
sg35
(lp867
VFly
p868
aVDig
p869
aVDragonBreath
p870
aVSandstorm
p871
asg41
g42
sg43
VLevitate
p872
sbag1
(g24
g3
Ntp873
Rp874
(dp875
g28
I330
sg29
VFlygon
p876
sg31
g32
sg33
V53
p877
sg35
(lp878
VFlamethrower
p879
aVCrunch
p880
aVDragonBreath
p881
aVSand-Attack
p882
asg41
g42
sg43
VLevitate
p883
sbag1
(g24
g3
Ntp884
Rp885
(dp886
g28
I373
sg29
VSalamence
p887
sg31
g32
sg33
V55
p888
sg35
(lp889
VFlamethrower
p890
aVDragon Claw
p891
aVCrunch
p892
aVFly
p893
asg41
VSitrus Berry
p894
sg43
VIntimidate
p895
sbasg90
I01
sg91
g92
sbag1
(g2
g3
Ntp896
Rp897
(dp898
g7
VSpr RS Drake.png
p899
sg9
VElite Four
p900
sg11
VDrake
p901
sg13
V5500
p902
sg15
I5
sg16
g17
sg18
g19
sg20
g21
sg22
(lp903
g1
(g24
g3
Ntp904
Rp905
(dp906
g28
I372
sg29
VShelgon
p907
sg31
g32
sg33
V52
p908
sg35
(lp909
VRock Tomb
p910
aVDragon Claw
p911
aVProtect
p912
aVDouble-Edge
p913
asg41
g42
sg43
VRock Head
p914
sbag1
(g24
g3
Ntp915
Rp916
(dp917
g28
I334
sg29
VAltaria
p918
sg31
g32
sg33
V54
p919
sg35
(lp920
VDouble-Edge
p921
aVDragonBreath
p922
aVDragon Dance
p923
aVAerial Ace
p924
asg41
g42
sg43
VNatural Cure
p925
sbag1
(g24
g3
Ntp926
Rp927
(dp928
g28
I230
sg29
VKingdra
p929
sg31
g32
sg33
V53
p930
sg35
(lp931
VSmokeScreen
p932
aVDragon Dance
p933
aVSurf
p934
aVBody Slam
p935
asg41
g42
sg43
VSwift Swim
p936
sbag1
(g24
g3
Ntp937
Rp938
(dp939
g28
I330
sg29
VFlygon
p940
sg31
g32
sg33
V53
p941
sg35
(lp942
VFlamethrower
p943
aVCrunch
p944
aVDragonBreath
p945
aVEarthquake
p946
asg41
g42
sg43
VLevitate
p947
sbag1
(g24
g3
Ntp948
Rp949
(dp950
g28
I373
sg29
VSalamence
p951
sg31
g32
sg33
V55
p952
sg35
(lp953
VFlamethrower
p954
aVDragon Claw
p955
aVRock Slide
p956
aVCrunch
p957
asg41
VSitrus Berry
p958
sg43
VIntimidate
p959
sbasg90
I01
sg91
g92
sbag1
(g2
g3
Ntp960
Rp961
(dp962
g7
VVSDrake.png
p963
sg9
VElite Four
p964
sg11
VDrake
p965
sg13
V8,800
p966
sg15
I5
sg16
g17
sg18
g19
sg20
VSM
p967
sg22
(lp968
g1
(g24
g3
Ntp969
Rp970
(dp971
g28
I334
sg29
VAltaria
p972
sg31
g278
sg33
V53
p973
sg35
(lp974
VAerial Ace
p975
aVCotton Guard
p976
aVDragon Pulse
p977
aVMoonblast
p978
asg41
g42
sg43
VNatural Cure
p979
sbag1
(g24
g3
Ntp980
Rp981
(dp982
g28
I330
sg29
VFlygon
p983
sg31
g32
sg33
V53
p984
sg35
(lp985
VEarthquake
p986
aVDragon Claw
p987
aVRock Slide
p988
aVSupersonic
p989
asg41
g42
sg43
VLevitate
p990
sbag1
(g24
g3
Ntp991
Rp992
(dp993
g28
I230
sg29
VKingdra
p994
sg31
g32
sg33
V53
p995
sg35
(lp996
VDragon Pulse
p997
aVSurf
p998
aVYawn
p999
aVIce Beam
p1000
asg41
g42
sg43
VSniper
p1001
sbag1
(g24
g3
Ntp1002
Rp1003
(dp1004
g28
I330
sg29
VFlygon
p1005
sg31
g278
sg33
V53
p1006
sg35
(lp1007
VFlamethrower
p1008
aVBoomburst
p1009
aVDragon Pulse
p1010
aVScreech
p1011
asg41
g42
sg43
VLevitate
p1012
sbag1
(g24
g3
Ntp1013
Rp1014
(dp1015
g28
I373
sg29
VSalamence
p1016
sg31
g32
sg33
V55
p1017
sg35
(lp1018
VDragon Rush
p1019
aVZen Headbutt
p1020
aVCrunch
p1021
aVThunder Fang
p1022
asg41
g42
sg43
VIntimidate
p1023
sbasg90
I01
sg91
g221
sbag1
(g2
g3
Ntp1024
Rp1025
(dp1026
g7
VVSDrake.png
p1027
sg9
VElite Four
p1028
sg11
VDrake
p1029
sg13
V12,000
p1030
sg15
I6
sg16
g17
sg18
g19
sg20
g967
sg22
(lp1031
g1
(g24
g3
Ntp1032
Rp1033
(dp1034
g28
I334
sg29
VAltaria
p1035
sg31
g278
sg33
V73
p1036
sg35
(lp1037
VAerial Ace
p1038
aVCotton Guard
p1039
aVDragon Pulse
p1040
aVMoonblast
p1041
asg41
g42
sg43
VNatural Cure
p1042
sbag1
(g24
g3
Ntp1043
Rp1044
(dp1045
g28
I691
sg29
VDragalge
p1046
sg31
g32
sg33
V73
p1047
sg35
(lp1048
VDragon Pulse
p1049
aVHydro Pump
p1050
aVSludge Wave
p1051
aVThunderbolt
p1052
asg41
g42
sg43
VPoison Point
p1053
sbag1
(g24
g3
Ntp1054
Rp1055
(dp1056
g28
I230
sg29
VKingdra
p1057
sg31
g32
sg33
V73
p1058
sg35
(lp1059
VDragon Pulse
p1060
aVSurf
p1061
aVYawn
p1062
aVIce Beam
p1063
asg41
g42
sg43
VSniper
p1064
sbag1
(g24
g3
Ntp1065
Rp1066
(dp1067
g28
I330
sg29
VFlygon
p1068
sg31
g32
sg33
V73
p1069
sg35
(lp1070
VFlamethrower
p1071
aVBoomburst
p1072
aVDragon Pulse
p1073
aVScreech
p1074
asg41
g42
sg43
VLevitate
p1075
sbag1
(g24
g3
Ntp1076
Rp1077
(dp1078
g28
I612
sg29
VHaxorus
p1079
sg31
g32
sg33
V73
p1080
sg35
(lp1081
VDragon Claw
p1082
aVEarthquake
p1083
aVX-Scissor
p1084
aVShadow Claw
p1085
asg41
g42
sg43
VMold Breaker
p1086
sbag1
(g24
g3
Ntp1087
Rp1088
(dp1089
g28
I373
sg29
VSalamence
p1090
sg31
g32
sg33
V75
p1091
sg35
(lp1092
VDragon Rush
p1093
aVZen Headbutt
p1094
aVCrunch
p1095
aVThunder Fang
p1096
asg41
VSalamencite
p1097
sg43
VIntimidate
p1098
sbasg90
I01
sg91
g221
sbag1
(g2
g3
Ntp1099
Rp1100
(dp1101
g7
VSpr RS Steven.png
p1102
sg9
VChampion
p1103
sg11
VSteven Stone
p1104
sg13
V11600
p1105
sg15
I6
sg16
g17
sg18
g19
sg20
g21
sg22
(lp1106
g1
(g24
g3
Ntp1107
Rp1108
(dp1109
g28
I227
sg29
VSkarmory
p1110
sg31
g32
sg33
V57
p1111
sg35
(lp1112
VSteel Wing
p1113
aVToxic
p1114
aVAerial Ace
p1115
aVSpikes
p1116
asg41
g42
sg43
VKeen Eye
p1117
sbag1
(g24
g3
Ntp1118
Rp1119
(dp1120
g28
I344
sg29
VClaydol
p1121
sg31
VU
p1122
sg33
V55
p1123
sg35
(lp1124
VEarthquake
p1125
aVAncientPower
p1126
aVLight Screen
p1127
aVReflect
p1128
asg41
g42
sg43
VLevitate
p1129
sbag1
(g24
g3
Ntp1130
Rp1131
(dp1132
g28
I306
sg29
VAggron
p1133
sg31
g32
sg33
V56
p1134
sg35
(lp1135
VEarthquake
p1136
aVDragon Claw
p1137
aVThunder
p1138
aVSolarBeam
p1139
asg41
g42
sg43
VSturdy
p1140
sbag1
(g24
g3
Ntp1141
Rp1142
(dp1143
g28
I346
sg29
VCradily
p1144
sg31
g32
sg33
V56
p1145
sg35
(lp1146
VAncientPower
p1147
aVConfuse Ray
p1148
aVSludge Bomb
p1149
aVGiga Drain
p1150
asg41
g42
sg43
VSuction Cups
p1151
sbag1
(g24
g3
Ntp1152
Rp1153
(dp1154
g28
I348
sg29
VArmaldo
p1155
sg31
g32
sg33
V56
p1156
sg35
(lp1157
VAncientPower
p1158
aVSlash
p1159
aVAerial Ace
p1160
aVWater Pulse
p1161
asg41
g42
sg43
VBattle Armor
p1162
sbag1
(g24
g3
Ntp1163
Rp1164
(dp1165
g28
I376
sg29
VMetagross
p1166
sg31
g1122
sg33
V58
p1167
sg35
(lp1168
VMeteor Mash
p1169
aVEarthquake
p1170
aVPsychic
p1171
aVHyper Beam
p1172
asg41
VSitrus Berry
p1173
sg43
VClear Body
p1174
sbasg90
I01
sg91
g92
sbag1
(g2
g3
Ntp1175
Rp1176
(dp1177
g7
VSpr E Wallace.png\u200e
p1178
sg9
VChampion
p1179
sg11
VWallace
p1180
sg13
V11600
p1181
sg15
I6
sg16
g17
sg18
g19
sg20
VE
p1182
sg22
(lp1183
g1
(g24
g3
Ntp1184
Rp1185
(dp1186
g28
I321
sg29
VWailord
p1187
sg31
g32
sg33
V57
p1188
sg35
(lp1189
VRain Dance
p1190
aVWater Spout
p1191
aVDouble-Edge
p1192
aVBlizzard
p1193
asg41
g42
sg43
VWater Veil
p1194
sbag1
(g24
g3
Ntp1195
Rp1196
(dp1197
g28
I73
sg29
VTentacruel
p1198
sg31
g32
sg33
V55
p1199
sg35
(lp1200
VToxic
p1201
aVHydro Pump
p1202
aVSludge Bomb
p1203
aVIce Beam
p1204
asg41
g42
sg43
VClear Body
p1205
sbag1
(g24
g3
Ntp1206
Rp1207
(dp1208
g28
I272
sg29
VLudicolo
p1209
sg31
g32
sg33
V56
p1210
sg35
(lp1211
VGiga Drain
p1212
aVSurf
p1213
aVLeech Seed
p1214
aVDouble Team
p1215
asg41
g42
sg43
VSwift Swim
p1216
sbag1
(g24
g3
Ntp1217
Rp1218
(dp1219
g28
I340
sg29
VWhiscash
p1220
sg31
g32
sg33
V56
p1221
sg35
(lp1222
VEarthquake
p1223
aVSurf
p1224
aVAmnesia
p1225
aVHyper Beam
p1226
asg41
g42
sg43
VOblivious
p1227
sbag1
(g24
g3
Ntp1228
Rp1229
(dp1230
g28
I130
sg29
VGyarados
p1231
sg31
g32
sg33
V56
p1232
sg35
(lp1233
VDragon Dance
p1234
aVEarthquake
p1235
aVHyper Beam
p1236
aVSurf
p1237
asg41
g42
sg43
VIntimidate
p1238
sbag1
(g24
g3
Ntp1239
Rp1240
(dp1241
g28
I350
sg29
VMilotic
p1242
sg31
g32
sg33
V58
p1243
sg35
(lp1244
VRecover
p1245
aVSurf
p1246
aVIce Beam
p1247
aVToxic
p1248
asg41
VSitrus Berry
p1249
sg43
VMarvel Scale
p1250
sbasg90
I01
sg91
Vemerald
p1251
sbag1
(g2
g3
Ntp1252
Rp1253
(dp1254
g7
VVSSteven.png
p1255
sg9
VChampion
p1256
sg11
VSteven Stone
p1257
sg13
V11,800
p1258
sg15
I6
sg16
g17
sg18
g19
sg20
VSM
p1259
sg22
(lp1260
g1
(g24
g3
Ntp1261
Rp1262
(dp1263
g28
I227
sg29
VSkarmory
p1264
sg31
g32
sg33
V57
p1265
sg35
(lp1266
VToxic
p1267
aVAerial Ace
p1268
aVSpikes
p1269
aVSteel Wing
p1270
asg41
g42
sg43
VSturdy
p1271
sbag1
(g24
g3
Ntp1272
Rp1273
(dp1274
g28
I344
sg29
VClaydol
p1275
sg31
g1122
sg33
V57
p1276
sg35
(lp1277
VReflect
p1278
aVLight Screen
p1279
aVExtrasensory
p1280
aVEarth Power
p1281
asg41
g42
sg43
VLevitate
p1282
sbag1
(g24
g3
Ntp1283
Rp1284
(dp1285
g28
I306
sg29
VAggron
p1286
sg31
g32
sg33
V57
p1287
sg35
(lp1288
VStone Edge
p1289
aVEarthquake
p1290
aVIron Tail
p1291
aVDragon Claw
p1292
asg41
g42
sg43
VSturdy
p1293
sbag1
(g24
g3
Ntp1294
Rp1295
(dp1296
g28
I346
sg29
VCradily
p1297
sg31
g278
sg33
V57
p1298
sg35
(lp1299
VGiga Drain
p1300
aVAncient Power
p1301
aVSludge Bomb
p1302
aVConfuse Ray
p1303
asg41
g42
sg43
VSuction Cups
p1304
sbag1
(g24
g3
Ntp1305
Rp1306
(dp1307
g28
I348
sg29
VArmaldo
p1308
sg31
g32
sg33
V57
p1309
sg35
(lp1310
VX-Scissor
p1311
aVRock Blast
p1312
aVMetal Claw
p1313
aVCrush Claw
p1314
asg41
g42
sg43
VBattle Armor
p1315
sbag1
(g24
g3
Ntp1316
Rp1317
(dp1318
g28
I376
sg29
VMetagross
p1319
sg31
g1122
sg33
V59
p1320
sg35
(lp1321
VBullet Punch
p1322
aVZen Headbutt
p1323
aVMeteor Mash
p1324
aVGiga Impact
p1325
asg41
VMetagrossite
p1326
sg43
VClear Body
p1327
sbasg90
I01
sg91
g221
sbag1
(g2
g3
Ntp1328
Rp1329
(dp1330
g7
VVSSteven.png
p1331
sg9
VChampion
p1332
sg11
VSteven Stone
p1333
sg13
V15,800
p1334
sg15
I6
sg16
g17
sg18
g19
sg20
g1259
sg22
(lp1335
g1
(g24
g3
Ntp1336
Rp1337
(dp1338
g28
I227
sg29
VSkarmory
p1339
sg31
g32
sg33
V77
p1340
sg35
(lp1341
VToxic
p1342
aVAerial Ace
p1343
aVSpikes
p1344
aVSteel Wing
p1345
asg41
g42
sg43
VSturdy
p1346
sbag1
(g24
g3
Ntp1347
Rp1348
(dp1349
g28
I344
sg29
VClaydol
p1350
sg31
g1122
sg33
V77
p1351
sg35
(lp1352
VReflect
p1353
aVLight Screen
p1354
aVExtrasensory
p1355
aVEarth Power
p1356
asg41
g42
sg43
VLevitate
p1357
sbag1
(g24
g3
Ntp1358
Rp1359
(dp1360
g28
I306
sg29
VAggron
p1361
sg31
g32
sg33
V77
p1362
sg35
(lp1363
VStone Edge
p1364
aVEarthquake
p1365
aVIron Tail
p1366
aVDragon Claw
p1367
asg41
g42
sg43
VSturdy
p1368
sbag1
(g24
g3
Ntp1369
Rp1370
(dp1371
g28
I703
sg29
VCarbink
p1372
sg31
g1122
sg33
V77
p1373
sg35
(lp1374
VMoonblast
p1375
aVPower Gem
p1376
aVPsychic
p1377
aVEarth Power
p1378
asg41
g42
sg43
VClear Body
p1379
sbag1
(g24
g3
Ntp1380
Rp1381
(dp1382
g28
I142
sg29
VAerodactyl
p1383
sg31
g32
sg33
V77
p1384
sg35
(lp1385
VRock Slide
p1386
aVIce Fang
p1387
aVThunder Fang
p1388
aVFire Fang
p1389
asg41
g42
sg43
VPressure
p1390
sbag1
(g24
g3
Ntp1391
Rp1392
(dp1393
g28
I376
sg29
VMetagross
p1394
sg31
g1122
sg33
V79
p1395
sg35
(lp1396
VBullet Punch
p1397
aVZen Headbutt
p1398
aVMeteor Mash
p1399
aVGiga Impact
p1400
asg41
VMetagrossite
p1401
sg43
VClear Body
p1402
sbasg90
I01
sg91
g221
sba.