(lp0
ccopy_reg
_reconstructor
p1
(c__main__
Trainer
p2
c__builtin__
object
p3
Ntp4
Rp5
(dp6
VtSprite
p7
VSpr RS Black Belt.png
p8
sVtClass
p9
VBlack Belt
p10
sVtName
p11
VNob
p12
sVtMoney
p13
V640
p14
sVtPokeCount
p15
V1
p16
sVtLocation
p17
Vwiki/Hoenn_Route_115
p18
sVtRegion
p19
VHoenn
p20
sVtGame
p21
VRS
p22
sVtPokes
p23
(lp24
g1
(c__main__
FinishedPokemon
p25
g3
Ntp26
Rp27
(dp28
VpDexNo
p29
V066
p30
sVpSpecies
p31
VMachop
p32
sVpGender
p33
VM
p34
sVpLevel
p35
V20
p36
sVpMoves
p37
(lp38
Vdynamic-punch
p39
aVvital-throw
p40
aVcross-chop
p41
aVrevenge
p42
asVpHold
p43
V
p44
sVpAbility
p45
Vno-guard
p46
sbasVbossFlag
p47
I00
sVtLongGame
p48
Vruby-sapphire
p49
sbag1
(g2
g3
Ntp50
Rp51
(dp52
g7
VSpr RS Collector.png
p53
sg9
VCollector
p54
sg11
VHector{{sup/3|Ru}}
p55
sg13
V1200
p56
sg15
g16
sg17
g18
sg19
g20
sg21
g22
sg23
(lp57
g1
(g25
g3
Ntp58
Rp59
(dp60
g29
V336
p61
sg31
VSeviper
p62
sg33
g34
sg35
V20
p63
sg37
(lp64
Vswagger
p65
aVcrunch
p66
aVpoison-fang
p67
aVpoison-tail
p68
asg43
g44
sg45
Vshed-skin
p69
sbasg47
I00
sg48
g49
sbag1
(g2
g3
Ntp70
Rp71
(dp72
g7
VSpr RS Collector.png
p73
sg9
VCollector
p74
sg11
VHector{{sup/3|Sa}}
p75
sg13
V1200
p76
sg15
g16
sg17
g18
sg19
g20
sg21
g22
sg23
(lp77
g1
(g25
g3
Ntp78
Rp79
(dp80
g29
V335
p81
sg31
VZangoose
p82
sg33
g34
sg35
V20
p83
sg37
(lp84
Vfury-cutter
p85
aVpursuit
p86
aVtaunt
p87
aVcrush-claw
p88
asg43
g44
sg45
Vimmunity
p89
sbasg47
I00
sg48
g49
sbag1
(g2
g3
Ntp90
Rp91
(dp92
g7
VSpr RS Battle Girl.png
p93
sg9
VBattle Girl
p94
sg11
VCyndy
p95
sg13
V470
p96
sg15
V2
p97
sg17
g18
sg19
g20
sg21
g22
sg23
(lp98
g1
(g25
g3
Ntp99
Rp100
(dp101
g29
V307
p102
sg31
VMeditite
p103
sg33
VF
p104
sg35
V19
p105
sg37
(lp106
Vdetect
p107
aVhidden-power
p108
aVpsych-up
p109
aVcalm-mind
p110
asg43
g44
sg45
Vpure-power
p111
sbag1
(g25
g3
Ntp112
Rp113
(dp114
g29
V296
p115
sg31
VMakuhita
p116
sg33
g104
sg35
V19
p117
sg37
(lp118
Vfake-out
p119
aVsmelling-salts
p120
aVknock-off
p121
aVarm-thrust
p122
asg43
g44
sg45
Vthick-fat
p123
sbasg47
I00
sg48
g49
sbag1
(g2
g3
Ntp124
Rp125
(dp126
g7
VSpr RS Expert M.png
p127
sg9
VExpert
p128
sg11
VTimothy
p129
sg13
V1120
p130
sg15
g16
sg17
g18
sg19
g20
sg21
g22
sg23
(lp131
g1
(g25
g3
Ntp132
Rp133
(dp134
g29
V297
p135
sg31
VHariyama
p136
sg33
g34
sg35
V28
p137
sg37
(lp138
Vsmelling-salts
p139
aVknock-off
p140
aVarm-thrust
p141
ag141
asg43
g44
sg45
Vthick-fat
p142
sbasg47
I00
sg48
g49
sbag1
(g2
g3
Ntp143
Rp144
(dp145
g7
VSpr RS Black Belt.png
p146
sg9
VBlack Belt
p147
sg11
VKoichi
p148
sg13
V832
p149
sg15
g97
sg17
g18
sg19
g20
sg21
g22
sg23
(lp150
g1
(g25
g3
Ntp151
Rp152
(dp153
g29
V066
p154
sg31
VMachop
p155
sg33
g34
sg35
V26
p156
sg37
(lp157
Vdynamic-punch
p158
aVvital-throw
p159
aVcross-chop
p160
aVrevenge
p161
asg43
g44
sg45
Vguts
p162
sbag1
(g25
g3
Ntp163
Rp164
(dp165
g29
V067
p166
sg31
VMachoke
p167
sg33
g34
sg35
V26
p168
sg37
(lp169
Vdynamic-punch
p170
aVvital-throw
p171
aVcross-chop
p172
aVrevenge
p173
asg43
g44
sg45
Vno-guard
p174
sbasg47
I00
sg48
g49
sbag1
(g2
g3
Ntp175
Rp176
(dp177
g7
VSpr RS Black Belt.png
p178
sg9
VBlack Belt
p179
sg11
VNob{{tt|*|First rematch}}
p180
sg13
V864
p181
sg15
g16
sg17
g18
sg19
g20
sg21
g22
sg23
(lp182
g1
(g25
g3
Ntp183
Rp184
(dp185
g29
V067
p186
sg31
VMachoke
p187
sg33
g34
sg35
V27
p188
sg37
(lp189
Vdynamic-punch
p190
aVvital-throw
p191
aVcross-chop
p192
aVrevenge
p193
asg43
g44
sg45
Vno-guard
p194
sbasg47
I00
sg48
g49
sbag1
(g2
g3
Ntp195
Rp196
(dp197
g7
VSpr RS Black Belt.png
p198
sg9
VBlack Belt
p199
sg11
VNob{{tt|*|Second rematch}}
p200
sg13
V928
p201
sg15
g97
sg17
g18
sg19
g20
sg21
g22
sg23
(lp202
g1
(g25
g3
Ntp203
Rp204
(dp205
g29
V066
p206
sg31
VMachop
p207
sg33
g34
sg35
V29
p208
sg37
(lp209
Vdynamic-punch
p210
aVvital-throw
p211
aVcross-chop
p212
aVrevenge
p213
asg43
g44
sg45
Vguts
p214
sbag1
(g25
g3
Ntp215
Rp216
(dp217
g29
V067
p218
sg31
VMachoke
p219
sg33
g34
sg35
V29
p220
sg37
(lp221
Vdynamic-punch
p222
aVvital-throw
p223
aVcross-chop
p224
aVrevenge
p225
asg43
g44
sg45
Vno-guard
p226
sbasg47
I00
sg48
g49
sbag1
(g2
g3
Ntp227
Rp228
(dp229
g7
VSpr RS Black Belt.png
p230
sg9
VBlack Belt
p231
sg11
VNob{{tt|*|Third rematch}}
p232
sg13
V992
p233
sg15
V3
p234
sg17
g18
sg19
g20
sg21
g22
sg23
(lp235
g1
(g25
g3
Ntp236
Rp237
(dp238
g29
V066
p239
sg31
VMachop
p240
sg33
g34
sg35
V31
p241
sg37
(lp242
Vdynamic-punch
p243
aVvital-throw
p244
aVcross-chop
p245
aVrevenge
p246
asg43
g44
sg45
Vno-guard
p247
sbag1
(g25
g3
Ntp248
Rp249
(dp250
g29
V067
p251
sg31
VMachoke
p252
sg33
g34
sg35
V31
p253
sg37
(lp254
Vdynamic-punch
p255
aVvital-throw
p256
aVcross-chop
p257
aVrevenge
p258
asg43
g44
sg45
Vno-guard
p259
sbag1
(g25
g3
Ntp260
Rp261
(dp262
g29
V067
p263
sg31
VMachoke
p264
sg33
g34
sg35
V31
p265
sg37
(lp266
Vdynamic-punch
p267
aVvital-throw
p268
aVcross-chop
p269
aVrevenge
p270
asg43
g44
sg45
Vguts
p271
sbasg47
I00
sg48
g49
sbag1
(g2
g3
Ntp272
Rp273
(dp274
g7
VSpr RS Black Belt.png
p275
sg9
VBlack Belt
p276
sg11
VNob{{tt|*|Fourth rematch onwards}}
p277
sg13
V1056
p278
sg15
V4
p279
sg17
g18
sg19
g20
sg21
g22
sg23
(lp280
g1
(g25
g3
Ntp281
Rp282
(dp283
g29
V066
p284
sg31
VMachop
p285
sg33
g34
sg35
V33
p286
sg37
(lp287
Vdynamic-punch
p288
aVvital-throw
p289
aVcross-chop
p290
aVrevenge
p291
asg43
g44
sg45
Vguts
p292
sbag1
(g25
g3
Ntp293
Rp294
(dp295
g29
V067
p296
sg31
VMachoke
p297
sg33
g34
sg35
V33
p298
sg37
(lp299
Vdynamic-punch
p300
aVvital-throw
p301
aVcross-chop
p302
aVrevenge
p303
asg43
g44
sg45
Vguts
p304
sbag1
(g25
g3
Ntp305
Rp306
(dp307
g29
V067
p308
sg31
VMachoke
p309
sg33
g34
sg35
V33
p310
sg37
(lp311
Vdynamic-punch
p312
aVvital-throw
p313
aVcross-chop
p314
aVrevenge
p315
asg43
g44
sg45
Vguts
p316
sbag1
(g25
g3
Ntp317
Rp318
(dp319
g29
V068
p320
sg31
VMachamp
p321
sg33
g34
sg35
V33
p322
sg37
(lp323
Vdynamic-punch
p324
aVvital-throw
p325
aVcross-chop
p326
aVrevenge
p327
asg43
g44
sg45
Vno-guard
p328
sbasg47
I00
sg48
g49
sbag1
(g2
g3
Ntp329
Rp330
(dp331
g7
VSpr RS Battle Girl.png
p332
sg9
VBattle Girl
p333
sg11
VCyndy{{tt|*|First and second rematch}}
p334
sg13
g1
(cmwparserfromhell.wikicode
Wikicode
p335
g3
Ntp336
Rp337
(dp338
V_nodes
p339
g1
(cmwparserfromhell.smart_list.smart_list
SmartList
p340
c__builtin__
list
p341
(lp342
g1
(cmwparserfromhell.nodes.text
Text
p343
g3
Ntp344
Rp345
(dp346
V_value
p347
V624
p348
sbatp349
Rp350
(dp351
V_children
p352
(dp353
sbsbsg15
g97
sg17
g18
sg19
g20
sg21
g22
sg23
(lp354
g1
(g25
g3
Ntp355
Rp356
(dp357
g29
V307
p358
sg31
VMeditite
p359
sg33
g104
sg35
V26
p360
sg37
(lp361
Vdetect
p362
aVhidden-power
p363
aVpsych-up
p364
aVcalm-mind
p365
asg43
g44
sg45
Vpure-power
p366
sbag1
(g25
g3
Ntp367
Rp368
(dp369
g29
V296
p370
sg31
VMakuhita
p371
sg33
g34
sg35
V26
p372
sg37
(lp373
Vfake-out
p374
aVsmelling-salts
p375
aVknock-off
p376
aVarm-thrust
p377
asg43
g44
sg45
Vthick-fat
p378
sbasg47
I00
sg48
g49
sbag1
(g2
g3
Ntp379
Rp380
(dp381
g7
VSpr RS Battle Girl.png
p382
sg9
VBattle Girl
p383
sg11
VCyndy{{tt|*|Third and fourth rematch onwards}}
p384
sg13
g1
(g335
g3
Ntp385
Rp386
(dp387
g339
g1
(g340
g341
(lp388
g1
(g343
g3
Ntp389
Rp390
(dp391
g347
V768
p392
sbatp393
Rp394
(dp395
g352
(dp396
sbsbsg15
g97
sg17
g18
sg19
g20
sg21
g22
sg23
(lp397
g1
(g25
g3
Ntp398
Rp399
(dp400
g29
V308
p401
sg31
VMedicham
p402
sg33
g104
sg35
V32
p403
sg37
(lp404
Vdetect
p405
aVhidden-power
p406
aVpsych-up
p407
aVcalm-mind
p408
asg43
g44
sg45
Vpure-power
p409
sbag1
(g25
g3
Ntp410
Rp411
(dp412
g29
V297
p413
sg31
VHariyama
p414
sg33
g34
sg35
V32
p415
sg37
(lp416
Vsmelling-salts
p417
aVknock-off
p418
aVarm-thrust
p419
ag419
asg43
g44
sg45
Vguts
p420
sbasg47
I00
sg48
g49
sbag1
(g2
g3
Ntp421
Rp422
(dp423
g7
VSpr RS Expert M.png
p424
sg9
VExpert
p425
sg11
VTimothy
p426
sg13
g1
(g335
g3
Ntp427
Rp428
(dp429
g339
g1
(g340
g341
(lp430
g1
(g343
g3
Ntp431
Rp432
(dp433
g347
V1240
p434
sbatp435
Rp436
(dp437
g352
(dp438
sbsbsg15
g16
sg17
g18
sg19
g20
sg21
g22
sg23
(lp439
g1
(g25
g3
Ntp440
Rp441
(dp442
g29
V297
p443
sg31
VHariyama
p444
sg33
g34
sg35
V31
p445
sg37
(lp446
Vsmelling-salts
p447
aVknock-off
p448
aVarm-thrust
p449
ag449
asg43
g44
sg45
Vthick-fat
p450
sbasg47
I00
sg48
g49
sbag1
(g2
g3
Ntp451
Rp452
(dp453
g7
VSpr RS Black Belt.png
p454
sg9
VBlack Belt
p455
sg11
VNob
p456
sg13
V608
p457
sg15
g16
sg17
g18
sg19
g20
sg21
g22
sg23
(lp458
g1
(g25
g3
Ntp459
Rp460
(dp461
g29
V066
p462
sg31
VMachop
p463
sg33
g34
sg35
V19
p464
sg37
(lp465
Vdynamic-punch
p466
aVvital-throw
p467
aVcross-chop
p468
aVrevenge
p469
asg43
g44
sg45
Vguts
p470
sbasg47
I00
sg48
g49
sbag1
(g2
g3
Ntp471
Rp472
(dp473
g7
VSpr RS Collector.png
p474
sg9
VCollector
p475
sg11
VHector
p476
sg13
V1080<br><small>Potential [[Double Battle]] with Marlene</small>
p477
sg15
g97
sg17
g18
sg19
g20
sg21
g22
sg23
(lp478
g1
(g25
g3
Ntp479
Rp480
(dp481
g29
V335
p482
sg31
VZangoose
p483
sg33
g34
sg35
V18
p484
sg37
(lp485
Vfury-cutter
p486
aVpursuit
p487
aVtaunt
p488
aVcrush-claw
p489
asg43
g44
sg45
Vimmunity
p490
sbag1
(g25
g3
Ntp491
Rp492
(dp493
g29
V336
p494
sg31
VSeviper
p495
sg33
g34
sg35
V18
p496
sg37
(lp497
Vswagger
p498
aVcrunch
p499
aVpoison-fang
p500
aVpoison-tail
p501
asg43
g44
sg45
Vshed-skin
p502
sbasg47
I00
sg48
g49
sbag1
(g2
g3
Ntp503
Rp504
(dp505
g7
VSpr RS Psychic F.png
p506
sg9
VPsychic
p507
sg11
VMarlene
p508
sg13
V432<br><small>Potential [[Double Battle]] with Hector</small>
p509
sg15
g97
sg17
g18
sg19
g20
sg21
g22
sg23
(lp510
g1
(g25
g3
Ntp511
Rp512
(dp513
g29
V307
p514
sg31
VMeditite
p515
sg33
g104
sg35
V18
p516
sg37
(lp517
Vdetect
p518
aVhidden-power
p519
aVpsych-up
p520
aVcalm-mind
p521
asg43
g44
sg45
Vpure-power
p522
sbag1
(g25
g3
Ntp523
Rp524
(dp525
g29
V325
p526
sg31
VSpoink
p527
sg33
g104
sg35
V18
p528
sg37
(lp529
Vpsych-up
p530
aVmagic-coat
p531
aVodor-sleuth
p532
aVbounce
p533
asg43
g44
sg45
Vown-tempo
p534
sbasg47
I00
sg48
g49
sbag1
(g2
g3
Ntp535
Rp536
(dp537
g7
VSpr RS Battle Girl.png
p538
sg9
VBattle Girl
p539
sg11
VCyndy
p540
sg13
V432
p541
sg15
g97
sg17
g18
sg19
g20
sg21
g22
sg23
(lp542
g1
(g25
g3
Ntp543
Rp544
(dp545
g29
V307
p546
sg31
VMeditite
p547
sg33
g104
sg35
V18
p548
sg37
(lp549
Vdetect
p550
aVhidden-power
p551
aVpsych-up
p552
aVcalm-mind
p553
asg43
g44
sg45
Vpure-power
p554
sbag1
(g25
g3
Ntp555
Rp556
(dp557
g29
V296
p558
sg31
VMakuhita
p559
sg33
g34
sg35
V18
p560
sg37
(lp561
Vfake-out
p562
aVsmelling-salts
p563
aVknock-off
p564
aVarm-thrust
p565
asg43
g44
sg45
Vthick-fat
p566
sbasg47
I00
sg48
g49
sbag1
(g2
g3
Ntp567
Rp568
(dp569
g7
VSpr RS Ninja Boy.png
p570
sg9
VNinja Boy
p571
sg11
VJaiden
p572
sg13
V312<br><small>Potential [[Double Battle]] with Timothy or Kyra</small>
p573
sg15
g97
sg17
g18
sg19
g20
sg21
g22
sg23
(lp574
g1
(g25
g3
Ntp575
Rp576
(dp577
g29
V291
p578
sg31
VNinjask
p579
sg33
g34
sg35
V26
p580
sg37
(lp581
Vslash
p582
aVmind-reader
p583
aVfury-cutter
p584
aVbaton-pass
p585
asg43
g44
sg45
Vspeed-boost
p586
sbag1
(g25
g3
Ntp587
Rp588
(dp589
g29
V316
p590
sg31
VGulpin
p591
sg33
g34
sg35
V26
p592
sg37
(lp593
Vstockpile
p594
aVspit-up
p595
aVswallow
p596
aVyawn
p597
asg43
g44
sg45
Vliquid-ooze
p598
sbasg47
I00
sg48
g49
sbag1
(g2
g3
Ntp599
Rp600
(dp601
g7
VSpr RS Expert M.png
p602
sg9
VExpert
p603
sg11
VTimothy
p604
sg13
V1080<br><small>Potential [[Double Battle]] with Jaiden or Kyra</small>
p605
sg15
g16
sg17
g18
sg19
g20
sg21
g22
sg23
(lp606
g1
(g25
g3
Ntp607
Rp608
(dp609
g29
V297
p610
sg31
VHariyama
p611
sg33
g34
sg35
V27
p612
sg37
(lp613
Vsmelling-salts
p614
aVknock-off
p615
aVarm-thrust
p616
ag616
asg43
g44
sg45
Vthick-fat
p617
sbasg47
I00
sg48
g49
sbag1
(g2
g3
Ntp618
Rp619
(dp620
g7
VSpr RS Triathlete Runner F.png
p621
sg9
VTriathlete
p622
sg11
VKyra
p623
sg13
V1040<br><small>Potential [[Double Battle]] with Jaiden, Timothy, or Koichi</small>
p624
sg15
g97
sg17
g18
sg19
g20
sg21
g22
sg23
(lp625
g1
(g25
g3
Ntp626
Rp627
(dp628
g29
V084
p629
sg31
VDoduo
p630
sg33
g104
sg35
V26
p631
sg37
(lp632
Vrage
p633
aVtri-attack
p634
aVpursuit
p635
aVuproar
p636
asg43
g44
sg45
Vrun-away
p637
sbag1
(g25
g3
Ntp638
Rp639
(dp640
g29
V085
p641
sg31
VDodrio
p642
sg33
g104
sg35
V26
p643
sg37
(lp644
Vtri-attack
p645
aVpursuit
p646
ag646
aVuproar
p647
asg43
g44
sg45
Vearly-bird
p648
sbasg47
I00
sg48
g49
sbag1
(g2
g3
Ntp649
Rp650
(dp651
g7
VSpr RS Black Belt.png
p652
sg9
VBlack Belt
p653
sg11
VKoichi
p654
sg13
V896<br><small>Potential [[Double Battle]] with Kyra</small>
p655
sg15
g97
sg17
g18
sg19
g20
sg21
g22
sg23
(lp656
g1
(g25
g3
Ntp657
Rp658
(dp659
g29
V066
p660
sg31
VMachop
p661
sg33
g34
sg35
V24
p662
sg37
(lp663
Vdynamic-punch
p664
aVvital-throw
p665
aVcross-chop
p666
aVrevenge
p667
asg43
g44
sg45
Vguts
p668
sbag1
(g25
g3
Ntp669
Rp670
(dp671
g29
V067
p672
sg31
VMachoke
p673
sg33
g34
sg35
V28
p674
sg37
(lp675
Vdynamic-punch
p676
aVvital-throw
p677
aVcross-chop
p678
aVrevenge
p679
asg43
g44
sg45
Vno-guard
p680
sbasg47
I00
sg48
g49
sbag1
(g2
g3
Ntp681
Rp682
(dp683
g7
VSpr RS Battle Girl.png
p684
sg9
VBattle Girl
p685
sg11
VHelene
p686
sg13
V624<br><small>Potential [[Double Battle]] with Alix</small>
p687
sg15
g97
sg17
g18
sg19
g20
sg21
g22
sg23
(lp688
g1
(g25
g3
Ntp689
Rp690
(dp691
g29
V307
p692
sg31
VMeditite
p693
sg33
g104
sg35
V26
p694
sg37
(lp695
Vdetect
p696
aVhidden-power
p697
aVpsych-up
p698
aVcalm-mind
p699
asg43
g44
sg45
Vpure-power
p700
sbag1
(g25
g3
Ntp701
Rp702
(dp703
g29
V296
p704
sg31
VMakuhita
p705
sg33
g34
sg35
V26
p706
sg37
(lp707
Vfake-out
p708
aVsmelling-salts
p709
aVknock-off
p710
aVarm-thrust
p711
asg43
g44
sg45
Vthick-fat
p712
sbasg47
I00
sg48
g49
sbag1
(g2
g3
Ntp713
Rp714
(dp715
g7
VSpr RS Psychic F.png
p716
sg9
VPsychic
p717
sg11
VAlix
p718
sg13
V624<br><small>Potential [[Double Battle]] with Helene</small>
p719
sg15
g97
sg17
g18
sg19
g20
sg21
g22
sg23
(lp720
g1
(g25
g3
Ntp721
Rp722
(dp723
g29
V064
p724
sg31
VKadabra
p725
sg33
g34
sg35
V26
p726
sg37
(lp727
Vkinesis
p728
aVfuture-sight
p729
aVtrick
p730
aVrole-play
p731
asg43
g44
sg45
Vsynchronize
p732
sbag1
(g25
g3
Ntp733
Rp734
(dp735
g29
V281
p736
sg31
VKirlia
p737
sg33
g104
sg35
V26
p738
sg37
(lp739
Vdream-eater
p740
aVfuture-sight
p741
aVimprison
p742
aVcalm-mind
p743
asg43
g44
sg45
Vtrace
p744
sbasg47
I00
sg48
g49
sbag1
(g2
g3
Ntp745
Rp746
(dp747
g7
VSpr RS Black Belt.png
p748
sg9
VBlack Belt
p749
sg11
VNob{{tt|*|First rematch}}
p750
sg13
V864
p751
sg15
g16
sg17
g18
sg19
g20
sg21
g22
sg23
(lp752
g1
(g25
g3
Ntp753
Rp754
(dp755
g29
V067
p756
sg31
VMachoke
p757
sg33
g34
sg35
V27
p758
sg37
(lp759
Vdynamic-punch
p760
aVvital-throw
p761
aVcross-chop
p762
aVrevenge
p763
asg43
g44
sg45
Vno-guard
p764
sbasg47
I00
sg48
g49
sbag1
(g2
g3
Ntp765
Rp766
(dp767
g7
VSpr RS Black Belt.png
p768
sg9
VBlack Belt
p769
sg11
VNob{{tt|*|Second rematch}}
p770
sg13
V928
p771
sg15
g97
sg17
g18
sg19
g20
sg21
g22
sg23
(lp772
g1
(g25
g3
Ntp773
Rp774
(dp775
g29
V066
p776
sg31
VMachop
p777
sg33
g34
sg35
V29
p778
sg37
(lp779
Vdynamic-punch
p780
aVvital-throw
p781
aVcross-chop
p782
aVrevenge
p783
asg43
g44
sg45
Vguts
p784
sbag1
(g25
g3
Ntp785
Rp786
(dp787
g29
V067
p788
sg31
VMachoke
p789
sg33
g34
sg35
V29
p790
sg37
(lp791
Vdynamic-punch
p792
aVvital-throw
p793
aVcross-chop
p794
aVrevenge
p795
asg43
g44
sg45
Vno-guard
p796
sbasg47
I00
sg48
g49
sbag1
(g2
g3
Ntp797
Rp798
(dp799
g7
VSpr RS Black Belt.png
p800
sg9
VBlack Belt
p801
sg11
VNob{{tt|*|Third rematch}}
p802
sg13
V992
p803
sg15
g234
sg17
g18
sg19
g20
sg21
g22
sg23
(lp804
g1
(g25
g3
Ntp805
Rp806
(dp807
g29
V066
p808
sg31
VMachop
p809
sg33
g34
sg35
V31
p810
sg37
(lp811
Vdynamic-punch
p812
aVvital-throw
p813
aVcross-chop
p814
aVrevenge
p815
asg43
g44
sg45
Vguts
p816
sbag1
(g25
g3
Ntp817
Rp818
(dp819
g29
V067
p820
sg31
VMachoke
p821
sg33
g34
sg35
V31
p822
sg37
(lp823
Vdynamic-punch
p824
aVvital-throw
p825
aVcross-chop
p826
aVrevenge
p827
asg43
g44
sg45
Vguts
p828
sbag1
(g25
g3
Ntp829
Rp830
(dp831
g29
V067
p832
sg31
VMachoke
p833
sg33
g34
sg35
V31
p834
sg37
(lp835
Vdynamic-punch
p836
aVvital-throw
p837
aVcross-chop
p838
aVrevenge
p839
asg43
g44
sg45
Vno-guard
p840
sbasg47
I00
sg48
g49
sbag1
(g2
g3
Ntp841
Rp842
(dp843
g7
VSpr RS Black Belt.png
p844
sg9
VBlack Belt
p845
sg11
VNob{{tt|*|Fourth rematch onwards}}
p846
sg13
V1056
p847
sg15
g279
sg17
g18
sg19
g20
sg21
g22
sg23
(lp848
g1
(g25
g3
Ntp849
Rp850
(dp851
g29
V066
p852
sg31
VMachop
p853
sg33
g34
sg35
V33
p854
sg37
(lp855
Vdynamic-punch
p856
aVvital-throw
p857
aVcross-chop
p858
aVrevenge
p859
asg43
g44
sg45
Vno-guard
p860
sbag1
(g25
g3
Ntp861
Rp862
(dp863
g29
V067
p864
sg31
VMachoke
p865
sg33
g34
sg35
V33
p866
sg37
(lp867
Vdynamic-punch
p868
aVvital-throw
p869
aVcross-chop
p870
aVrevenge
p871
asg43
g44
sg45
Vguts
p872
sbag1
(g25
g3
Ntp873
Rp874
(dp875
g29
V067
p876
sg31
VMachoke
p877
sg33
g34
sg35
V33
p878
sg37
(lp879
Vdynamic-punch
p880
aVvital-throw
p881
aVcross-chop
p882
aVrevenge
p883
asg43
g44
sg45
Vguts
p884
sbag1
(g25
g3
Ntp885
Rp886
(dp887
g29
V068
p888
sg31
VMachamp
p889
sg33
g34
sg35
V33
p890
sg37
(lp891
Vdynamic-punch
p892
aVvital-throw
p893
aVcross-chop
p894
aVrevenge
p895
asg43
g44
sg45
Vguts
p896
sbasg47
I00
sg48
g49
sbag1
(g2
g3
Ntp897
Rp898
(dp899
g7
VSpr RS Battle Girl.png
p900
sg9
VBattle Girl
p901
sg11
VCyndy{{tt|*|First and second rematch}}
p902
sg13
g1
(g335
g3
Ntp903
Rp904
(dp905
g339
g1
(g340
g341
(lp906
g1
(g343
g3
Ntp907
Rp908
(dp909
g347
V624
p910
sbatp911
Rp912
(dp913
g352
(dp914
sbsbsg15
g97
sg17
g18
sg19
g20
sg21
g22
sg23
(lp915
g1
(g25
g3
Ntp916
Rp917
(dp918
g29
V307
p919
sg31
VMeditite
p920
sg33
g104
sg35
V26
p921
sg37
(lp922
Vdetect
p923
aVhidden-power
p924
aVpsych-up
p925
aVcalm-mind
p926
asg43
g44
sg45
Vpure-power
p927
sbag1
(g25
g3
Ntp928
Rp929
(dp930
g29
V296
p931
sg31
VMakuhita
p932
sg33
g34
sg35
V26
p933
sg37
(lp934
Vfake-out
p935
aVsmelling-salts
p936
aVknock-off
p937
aVarm-thrust
p938
asg43
g44
sg45
Vthick-fat
p939
sbasg47
I00
sg48
g49
sbag1
(g2
g3
Ntp940
Rp941
(dp942
g7
VSpr RS Battle Girl.png
p943
sg9
VBattle Girl
p944
sg11
VCyndy{{tt|*|Third and fourth rematch onwards}}
p945
sg13
g1
(g335
g3
Ntp946
Rp947
(dp948
g339
g1
(g340
g341
(lp949
g1
(g343
g3
Ntp950
Rp951
(dp952
g347
V768
p953
sbatp954
Rp955
(dp956
g352
(dp957
sbsbsg15
g97
sg17
g18
sg19
g20
sg21
g22
sg23
(lp958
g1
(g25
g3
Ntp959
Rp960
(dp961
g29
V308
p962
sg31
VMedicham
p963
sg33
g104
sg35
V32
p964
sg37
(lp965
Vdetect
p966
aVhidden-power
p967
aVpsych-up
p968
aVcalm-mind
p969
asg43
g44
sg45
Vpure-power
p970
sbag1
(g25
g3
Ntp971
Rp972
(dp973
g29
V297
p974
sg31
VHariyama
p975
sg33
g34
sg35
V32
p976
sg37
(lp977
Vsmelling-salts
p978
aVknock-off
p979
aVarm-thrust
p980
ag980
asg43
g44
sg45
Vguts
p981
sbasg47
I00
sg48
g49
sbag1
(g2
g3
Ntp982
Rp983
(dp984
g7
VSpr RS Expert M.png
p985
sg9
VExpert
p986
sg11
VTimothy
p987
sg13
g1
(g335
g3
Ntp988
Rp989
(dp990
g339
g1
(g340
g341
(lp991
g1
(g343
g3
Ntp992
Rp993
(dp994
g347
V1320
p995
sbatp996
Rp997
(dp998
g352
(dp999
sbsbsg15
g16
sg17
g18
sg19
g20
sg21
g22
sg23
(lp1000
g1
(g25
g3
Ntp1001
Rp1002
(dp1003
g29
V297
p1004
sg31
VHariyama
p1005
sg33
g34
sg35
V33
p1006
sg37
(lp1007
Vsmelling-salts
p1008
aVknock-off
p1009
aVarm-thrust
p1010
ag1010
asg43
g44
sg45
Vthick-fat
p1011
sbasg47
I00
sg48
g49
sbag1
(g2
g3
Ntp1012
Rp1013
(dp1014
g7
VVSBlack Belt.png
p1015
sg9
VBlack Belt
p1016
sg11
VNob
p1017
sg13
V800
p1018
sg15
g16
sg17
g18
sg19
g20
sg21
VSM
p1019
sg23
(lp1020
g1
(g25
g3
Ntp1021
Rp1022
(dp1023
g29
V066
p1024
sg31
VMachop
p1025
sg33
g34
sg35
V25
p1026
sg37
(lp1027
Vbulk-up
p1028
aVwake-up-slap
p1029
aVlow-sweep
p1030
aVdual-chop
p1031
asg43
g44
sg45
Vguts
p1032
sbasg47
I00
sg48
Vsun-moon
p1033
sbag1
(g2
g3
Ntp1034
Rp1035
(dp1036
g7
VVSCollector.png
p1037
sg9
VCollector
p1038
sg11
VHector{{sup/6|OR}}
p1039
sg13
V672
p1040
sg15
g16
sg17
g18
sg19
g20
sg21
VSM
p1041
sg23
(lp1042
g1
(g25
g3
Ntp1043
Rp1044
(dp1045
g29
V336
p1046
sg31
VSeviper
p1047
sg33
g34
sg35
V24
p1048
sg37
(lp1049
Vvenoshock
p1050
aVcoil
p1051
aVbelch
p1052
aVvenom-drench
p1053
asg43
g44
sg45
Vshed-skin
p1054
sbasg47
I00
sg48
g1033
sbag1
(g2
g3
Ntp1055
Rp1056
(dp1057
g7
VVSCollector.png
p1058
sg9
VCollector
p1059
sg11
VHector{{sup/6|AS}}
p1060
sg13
V672
p1061
sg15
g16
sg17
g18
sg19
g20
sg21
g1041
sg23
(lp1062
g1
(g25
g3
Ntp1063
Rp1064
(dp1065
g29
V335
p1066
sg31
VZangoose
p1067
sg33
g34
sg35
V24
p1068
sg37
(lp1069
Vclose-combat
p1070
aVembargo
p1071
aVx-scissor
p1072
aVhone-claws
p1073
asg43
g44
sg45
Vimmunity
p1074
sbasg47
I00
sg48
g1033
sbag1
(g2
g3
Ntp1075
Rp1076
(dp1077
g7
VVSBattle Girl ORAS.png
p1078
sg9
VBattle Girl
p1079
sg11
VCyndy
p1080
sg13
V800
p1081
sg15
g16
sg17
g18
sg19
g20
sg21
VSM
p1082
sg23
(lp1083
g1
(g25
g3
Ntp1084
Rp1085
(dp1086
g29
V307
p1087
sg31
VMeditite
p1088
sg33
g104
sg35
V25
p1089
sg37
(lp1090
Vfeint
p1091
aVacupressure
p1092
aVpower-trick
p1093
aVforce-palm
p1094
asg43
g44
sg45
Vpure-power
p1095
sbasg47
I00
sg48
g1033
sbag1
(g2
g3
Ntp1096
Rp1097
(dp1098
g7
VVSBlack Belt.png
p1099
sg9
VBlack Belt
p1100
sg11
VKoichi
p1101
sg13
V864
p1102
sg15
g97
sg17
g18
sg19
g20
sg21
g1019
sg23
(lp1103
g1
(g25
g3
Ntp1104
Rp1105
(dp1106
g29
V066
p1107
sg31
VMachop
p1108
sg33
g34
sg35
V25
p1109
sg37
(lp1110
Vbulk-up
p1111
aVwake-up-slap
p1112
aVlow-sweep
p1113
aVdual-chop
p1114
asg43
g44
sg45
Vguts
p1115
sbag1
(g25
g3
Ntp1116
Rp1117
(dp1118
g29
V066
p1119
sg31
VMachop
p1120
sg33
g34
sg35
V27
p1121
sg37
(lp1122
Vbulk-up
p1123
aVwake-up-slap
p1124
aVlow-sweep
p1125
aVdual-chop
p1126
asg43
g44
sg45
Vguts
p1127
sbasg47
I00
sg48
g1033
sbag1
(g2
g3
Ntp1128
Rp1129
(dp1130
g7
VVSExpert M.png
p1131
sg9
VExpert
p1132
sg11
VTimothy
p1133
sg13
V2400
p1134
sg15
g16
sg17
g18
sg19
g20
sg21
VSM
p1135
sg23
(lp1136
g1
(g25
g3
Ntp1137
Rp1138
(dp1139
g29
V297
p1140
sg31
VHariyama
p1141
sg33
g34
sg35
V30
p1142
sg37
(lp1143
Vbrine
p1144
aVclose-combat
p1145
aVforce-palm
p1146
aVheavy-slam
p1147
asg43
g44
sg45
Vthick-fat
p1148
sbasg47
I00
sg48
g1033
sbag1
(g2
g3
Ntp1149
Rp1150
(dp1151
g7
VVSRuin Maniac.png
p1152
sg9
VRuin Maniac
p1153
sg11
VHayes
p1154
sg13
V700
p1155
sg15
g97
sg17
g18
sg19
g20
sg21
VSM
p1156
sg23
(lp1157
g1
(g25
g3
Ntp1158
Rp1159
(dp1160
g29
V028
p1161
sg31
VSandslash
p1162
sg33
g34
sg35
V25
p1163
sg37
(lp1164
Vrapid-spin
p1165
aVcrush-claw
p1166
aVsand-tomb
p1167
aVgyro-ball
p1168
asg43
g44
sg45
Vsand-veil
p1169
sbag1
(g25
g3
Ntp1170
Rp1171
(dp1172
g29
V028
p1173
sg31
VSandslash
p1174
sg33
g34
sg35
V25
p1175
sg37
(lp1176
Vrapid-spin
p1177
aVcrush-claw
p1178
aVsand-tomb
p1179
aVgyro-ball
p1180
asg43
g44
sg45
Vsand-veil
p1181
sbasg47
I00
sg48
g1033
sbag1
(g2
g3
Ntp1182
Rp1183
(dp1184
g7
VVSBlack Belt.png
p1185
sg9
VBlack Belt
p1186
sg11
VNob
p1187
sg13
V960<br><small>After earning the {{badge|Balance}}</small>
p1188
sg15
g16
sg17
g18
sg19
g20
sg21
g1019
sg23
(lp1189
g1
(g25
g3
Ntp1190
Rp1191
(dp1192
g29
V067
p1193
sg31
VMachoke
p1194
sg33
g34
sg35
V30
p1195
sg37
(lp1196
Vbulk-up
p1197
aVwake-up-slap
p1198
aVlow-sweep
p1199
aVdual-chop
p1200
asg43
g44
sg45
Vno-guard
p1201
sbasg47
I00
sg48
g1033
sbag1
(g2
g3
Ntp1202
Rp1203
(dp1204
g7
VVSBlack Belt.png
p1205
sg9
VBlack Belt
p1206
sg11
VNob
p1207
sg13
V1,120<br><small>After earning the {{badge|Feather}}</small>
p1208
sg15
g16
sg17
g18
sg19
g20
sg21
g1019
sg23
(lp1209
g1
(g25
g3
Ntp1210
Rp1211
(dp1212
g29
V067
p1213
sg31
VMachoke
p1214
sg33
g34
sg35
V35
p1215
sg37
(lp1216
Vbulk-up
p1217
aVwake-up-slap
p1218
aVlow-sweep
p1219
aVdual-chop
p1220
asg43
g44
sg45
Vno-guard
p1221
sbasg47
I00
sg48
g1033
sbag1
(g2
g3
Ntp1222
Rp1223
(dp1224
g7
VVSBlack Belt.png
p1225
sg9
VBlack Belt
p1226
sg11
VNob
p1227
sg13
V1,472<br><small>After earning the {{badge|Rain}}</small>
p1228
sg15
g16
sg17
g18
sg19
g20
sg21
g1019
sg23
(lp1229
g1
(g25
g3
Ntp1230
Rp1231
(dp1232
g29
V068
p1233
sg31
VMachamp
p1234
sg33
g34
sg35
V46
p1235
sg37
(lp1236
Vwake-up-slap
p1237
aVwide-guard
p1238
aVlow-sweep
p1239
aVdual-chop
p1240
asg43
g44
sg45
Vno-guard
p1241
sbasg47
I00
sg48
g1033
sbag1
(g2
g3
Ntp1242
Rp1243
(dp1244
g7
VVSBlack Belt.png
p1245
sg9
VBlack Belt
p1246
sg11
VNob
p1247
sg13
V1,600<br><small>After entering the [[Hall of Fame]]</small>
p1248
sg15
g234
sg17
g18
sg19
g20
sg21
g1019
sg23
(lp1249
g1
(g25
g3
Ntp1250
Rp1251
(dp1252
g29
V057
p1253
sg31
VPrimeape
p1254
sg33
g34
sg35
V50
p1255
sg37
(lp1256
Vpunishment
p1257
aVfinal-gambit
p1258
ag1258
aVstomping-tantrum
p1259
asg43
g44
sg45
Vanger-point
p1260
sbag1
(g25
g3
Ntp1261
Rp1262
(dp1263
g29
V106
p1264
sg31
VHitmonlee
p1265
sg33
g34
sg35
V50
p1266
sg37
(lp1267
Vfeint
p1268
aVclose-combat
p1269
ag1269
aVwide-guard
p1270
asg43
g44
sg45
Vreckless
p1271
sbag1
(g25
g3
Ntp1272
Rp1273
(dp1274
g29
V068
p1275
sg31
VMachamp
p1276
sg33
g34
sg35
V50
p1277
sg37
(lp1278
Vwake-up-slap
p1279
aVwide-guard
p1280
aVlow-sweep
p1281
aVdual-chop
p1282
asg43
g44
sg45
Vguts
p1283
sbasg47
I00
sg48
g1033
sbag1
(g2
g3
Ntp1284
Rp1285
(dp1286
g7
VVSBattle Girl ORAS.png
p1287
sg9
VBattle Girl
p1288
sg11
VCyndy
p1289
sg13
V960<br><small>After earning the {{badge|Balance}}</small>
p1290
sg15
g16
sg17
g18
sg19
g20
sg21
g1082
sg23
(lp1291
g1
(g25
g3
Ntp1292
Rp1293
(dp1294
g29
V307
p1295
sg31
VMeditite
p1296
sg33
g104
sg35
V30
p1297
sg37
(lp1298
Vfeint
p1299
aVacupressure
p1300
aVpower-trick
p1301
aVforce-palm
p1302
asg43
g44
sg45
Vpure-power
p1303
sbasg47
I00
sg48
g1033
sbag1
(g2
g3
Ntp1304
Rp1305
(dp1306
g7
VVSBattle Girl ORAS.png
p1307
sg9
VBattle Girl
p1308
sg11
VCyndy
p1309
sg13
V1,344<br><small>After earning the {{badge|Mind}}</small>
p1310
sg15
g16
sg17
g18
sg19
g20
sg21
g1082
sg23
(lp1311
g1
(g25
g3
Ntp1312
Rp1313
(dp1314
g29
V308
p1315
sg31
VMedicham
p1316
sg33
g104
sg35
V42
p1317
sg37
(lp1318
Vacupressure
p1319
aVpower-trick
p1320
aVforce-palm
p1321
aVzen-headbutt
p1322
asg43
g44
sg45
Vpure-power
p1323
sbasg47
I00
sg48
g1033
sbag1
(g2
g3
Ntp1324
Rp1325
(dp1326
g7
VVSBattle Girl ORAS.png
p1327
sg9
VBattle Girl
p1328
sg11
VCyndy
p1329
sg13
V1,472<br><small>After earning the {{badge|Rain}}</small>
p1330
sg15
g16
sg17
g18
sg19
g20
sg21
g1082
sg23
(lp1331
g1
(g25
g3
Ntp1332
Rp1333
(dp1334
g29
V308
p1335
sg31
VMedicham
p1336
sg33
g104
sg35
V46
p1337
sg37
(lp1338
Vacupressure
p1339
aVpower-trick
p1340
aVforce-palm
p1341
aVzen-headbutt
p1342
asg43
g44
sg45
Vpure-power
p1343
sbasg47
I00
sg48
g1033
sbag1
(g2
g3
Ntp1344
Rp1345
(dp1346
g7
VVSBattle Girl ORAS.png
p1347
sg9
VBattle Girl
p1348
sg11
VCyndy
p1349
sg13
V1,664<br><small>After entering the [[Hall of Fame]]</small>
p1350
sg15
g97
sg17
g18
sg19
g20
sg21
g1082
sg23
(lp1351
g1
(g25
g3
Ntp1352
Rp1353
(dp1354
g29
V107
p1355
sg31
VHitmonchan
p1356
sg33
g34
sg35
V50
p1357
sg37
(lp1358
Vclose-combat
p1359
aVvacuum-wave
p1360
aVbullet-punch
p1361
aVquick-guard
p1362
asg43
g44
sg45
Vkeen-eye
p1363
sbag1
(g25
g3
Ntp1364
Rp1365
(dp1366
g29
V308
p1367
sg31
VMedicham
p1368
sg33
g104
sg35
V52
p1369
sg37
(lp1370
Vacupressure
p1371
aVpower-trick
p1372
aVforce-palm
p1373
aVzen-headbutt
p1374
asg43
g44
sg45
Vpure-power
p1375
sbasg47
I00
sg48
g1033
sbag1
(g2
g3
Ntp1376
Rp1377
(dp1378
g7
VVSExpert M.png
p1379
sg9
VExpert
p1380
sg11
VTimothy
p1381
sg13
V2,480<br><small>After earning the {{badge|Balance}}</small>
p1382
sg15
g16
sg17
g18
sg19
g20
sg21
g1135
sg23
(lp1383
g1
(g25
g3
Ntp1384
Rp1385
(dp1386
g29
V297
p1387
sg31
VHariyama
p1388
sg33
g34
sg35
V31
p1389
sg37
(lp1390
Vbrine
p1391
aVclose-combat
p1392
aVforce-palm
p1393
aVheavy-slam
p1394
asg43
g44
sg45
Vguts
p1395
sbasg47
I00
sg48
g1033
sbag1
(g2
g3
Ntp1396
Rp1397
(dp1398
g7
VVSExpert M.png
p1399
sg9
VExpert
p1400
sg11
VTimothy
p1401
sg13
V3,440<br><small>After earning the {{badge|Mind}}</small>
p1402
sg15
g16
sg17
g18
sg19
g20
sg21
g1135
sg23
(lp1403
g1
(g25
g3
Ntp1404
Rp1405
(dp1406
g29
V297
p1407
sg31
VHariyama
p1408
sg33
g34
sg35
V43
p1409
sg37
(lp1410
Vbrine
p1411
aVclose-combat
p1412
aVforce-palm
p1413
aVheavy-slam
p1414
asg43
g44
sg45
Vguts
p1415
sbasg47
I00
sg48
g1033
sbag1
(g2
g3
Ntp1416
Rp1417
(dp1418
g7
VVSExpert M.png
p1419
sg9
VExpert
p1420
sg11
VTimothy
p1421
sg13
V3,600<br><small>After earning the {{badge|Rain}}</small>
p1422
sg15
g97
sg17
g18
sg19
g20
sg21
g1135
sg23
(lp1423
g1
(g25
g3
Ntp1424
Rp1425
(dp1426
g29
V533
p1427
sg31
VGurdurr
p1428
sg33
g34
sg35
V45
p1429
sg37
(lp1430
Vwake-up-slap
p1431
aVhammer-arm
p1432
aVstone-edge
p1433
aVchip-away
p1434
asg43
g44
sg45
Vguts
p1435
sbag1
(g25
g3
Ntp1436
Rp1437
(dp1438
g29
V297
p1439
sg31
VHariyama
p1440
sg33
g34
sg35
V45
p1441
sg37
(lp1442
Vbrine
p1443
aVclose-combat
p1444
aVforce-palm
p1445
aVheavy-slam
p1446
asg43
g44
sg45
Vthick-fat
p1447
sbasg47
I00
sg48
g1033
sbag1
(g2
g3
Ntp1448
Rp1449
(dp1450
g7
VVSExpert M.png
p1451
sg9
VExpert
p1452
sg11
VTimothy
p1453
sg13
V4,480<br><small>After entering the [[Hall of Fame]]</small>
p1454
sg15
g234
sg17
g18
sg19
g20
sg21
g1135
sg23
(lp1455
g1
(g25
g3
Ntp1456
Rp1457
(dp1458
g29
V701
p1459
sg31
VHawlucha
p1460
sg33
g34
sg35
V54
p1461
sg37
(lp1462
Vfling
p1463
aVhone-claws
p1464
aVsky-drop
p1465
aVflying-press
p1466
asg43
g44
sg45
Vlimber
p1467
sbag1
(g25
g3
Ntp1468
Rp1469
(dp1470
g29
V297
p1471
sg31
VHariyama
p1472
sg33
g34
sg35
V55
p1473
sg37
(lp1474
Vbrine
p1475
aVclose-combat
p1476
aVforce-palm
p1477
aVheavy-slam
p1478
asg43
g44
sg45
Vthick-fat
p1479
sbag1
(g25
g3
Ntp1480
Rp1481
(dp1482
g29
V534
p1483
sg31
VConkeldurr
p1484
sg33
g34
sg35
V56
p1485
sg37
(lp1486
Vwake-up-slap
p1487
aVhammer-arm
p1488
aVstone-edge
p1489
aVchip-away
p1490
asg43
g44
sg45
Vsheer-force
p1491
sbasg47
I00
sg48
g1033
sba.