(lp0
ccopy_reg
_reconstructor
p1
(c__main__
Trainer
p2
c__builtin__
object
p3
Ntp4
Rp5
(dp6
VtSprite
p7
VSpr RS Youngster.png
p8
sVtClass
p9
VYoungster
p10
sVtName
p11
VBilly
p12
sVtMoney
p13
V128
p14
sVtPokeCount
p15
V2
p16
sVtLocation
p17
Vwiki/Hoenn_Route_104
p18
sVtRegion
p19
VHoenn
p20
sVtGame
p21
VRS
p22
sVtPokes
p23
(lp24
g1
(c__main__
FinishedPokemon
p25
g3
Ntp26
Rp27
(dp28
VpDexNo
p29
V273
p30
sVpSpecies
p31
VSeedot
p32
sVpGender
p33
VM
p34
sVpLevel
p35
V6
p36
sVpMoves
p37
(lp38
Vexplosion
p39
aVsynthesis
p40
aVsunny-day
p41
aVnature-power
p42
asVpHold
p43
V
p44
sVpAbility
p45
Vchlorophyll
p46
sbag1
(g25
g3
Ntp47
Rp48
(dp49
g29
V276
p50
sg31
VTaillow
p51
sg33
g34
sg35
V8
p52
sg37
(lp53
Vdouble-team
p54
aVfocus-energy
p55
aVendeavor
p56
aVaerial-ace
p57
asg43
g44
sg45
Vguts
p58
sbasVbossFlag
p59
I00
sVtLongGame
p60
Vruby-sapphire
p61
sbag1
(g2
g3
Ntp62
Rp63
(dp64
g7
VSpr RS Rich Boy.png
p65
sg9
VRich Boy
p66
sg11
VWinston
p67
sg13
V1400
p68
sg15
V1
p69
sg17
g18
sg19
g20
sg21
g22
sg23
(lp70
g1
(g25
g3
Ntp71
Rp72
(dp73
g29
V263
p74
sg31
VZigzagoon
p75
sg33
g34
sg35
V7
p76
sg37
(lp77
Vbelly-drum
p78
aVmud-sport
p79
aVodor-sleuth
p80
aVcovet
p81
asg43
g44
sg45
Vpickup
p82
sbasg59
I00
sg60
g61
sbag1
(g2
g3
Ntp83
Rp84
(dp85
g7
VSpr RS Lady.png
p86
sg9
VLady
p87
sg11
VCindy
p88
sg13
V1400
p89
sg15
g69
sg17
g18
sg19
g20
sg21
g22
sg23
(lp90
g1
(g25
g3
Ntp91
Rp92
(dp93
g29
V263
p94
sg31
VZigzagoon
p95
sg33
VF
p96
sg35
g76
sg37
(lp97
Vbelly-drum
p98
aVmud-sport
p99
aVodor-sleuth
p100
aVcovet
p101
asg43
g44
sg45
Vpickup
p102
sbasg59
I00
sg60
g61
sbag1
(g2
g3
Ntp103
Rp104
(dp105
g7
VSpr RS Lass.png
p106
sg9
VLass
p107
sg11
VHaley
p108
sg13
V112
p109
sg15
g16
sg17
g18
sg19
g20
sg21
g22
sg23
(lp110
g1
(g25
g3
Ntp111
Rp112
(dp113
g29
V270
p114
sg31
VLotad
p115
sg33
g96
sg35
g76
sg37
(lp116
Vmega-drain
p117
aVrain-dance
p118
aVnature-power
p119
aVastonish
p120
asg43
g44
sg45
Vrain-dish
p121
sbag1
(g25
g3
Ntp122
Rp123
(dp124
g29
V285
p125
sg31
VShroomish
p126
sg33
g96
sg35
g76
sg37
(lp127
Vpoison-powder
p128
aVstun-spore
p129
aVspore
p130
aVgiga-drain
p131
asg43
g44
sg45
Veffect-spore
p132
sbasg59
I00
sg60
g61
sbag1
(g2
g3
Ntp133
Rp134
(dp135
g7
VSpr RS Twins.png
p136
sg9
VTwins
p137
sg11
VGina & Mia
p138
sg13
V192
p139
sg15
g16
sg17
g18
sg19
g20
sg21
g22
sg23
(lp140
g1
(g25
g3
Ntp141
Rp142
(dp143
g29
V270
p144
sg31
VLotad
p145
sg33
g34
sg35
g52
sg37
(lp146
Vmega-drain
p147
aVrain-dance
p148
aVnature-power
p149
aVastonish
p150
asg43
g44
sg45
Vrain-dish
p151
sbag1
(g25
g3
Ntp152
Rp153
(dp154
g29
V273
p155
sg31
VSeedot
p156
sg33
g34
sg35
g52
sg37
(lp157
Vexplosion
p158
aVsynthesis
p159
aVsunny-day
p160
aVnature-power
p161
asg43
g44
sg45
Vchlorophyll
p162
sbasg59
I00
sg60
g61
sbag1
(g2
g3
Ntp163
Rp164
(dp165
g7
VSpr RS Fisherman.png
p166
sg9
VFisherman
p167
sg11
VIvan
p168
sg13
V240
p169
sg15
V3
p170
sg17
g18
sg19
g20
sg21
g22
sg23
(lp171
g1
(g25
g3
Ntp172
Rp173
(dp174
g29
V129
p175
sg31
VMagikarp
p176
sg33
g34
sg35
g36
sg37
(lp177
Vtackle
p178
aVsplash
p179
aVflail
p180
asg43
g44
sg45
Vswift-swim
p181
sbag1
(g25
g3
Ntp182
Rp183
(dp184
g29
V129
p185
sg31
VMagikarp
p186
sg33
g34
sg35
g36
sg37
(lp187
Vtackle
p188
aVsplash
p189
aVflail
p190
asg43
g44
sg45
Vswift-swim
p191
sbag1
(g25
g3
Ntp192
Rp193
(dp194
g29
V129
p195
sg31
VMagikarp
p196
sg33
g34
sg35
g36
sg37
(lp197
Vtackle
p198
aVsplash
p199
aVflail
p200
asg43
g44
sg45
Vswift-swim
p201
sbasg59
I00
sg60
g61
sbag1
(g2
g3
Ntp202
Rp203
(dp204
g7
VSpr E Brendan.png
p205
sg9
VPokemon Trainer
p206
sg11
VBrendan
p207
sg13
V900
p208
sg15
I2
sg17
g18
sg19
g20
sg21
VE
p209
sg23
(lp210
g1
(g25
g3
Ntp211
Rp212
(dp213
g29
I270
sg31
VLotad
p214
sg33
g34
sg35
V13
p215
sg37
(lp216
VAstonish
p217
aVGrowl
p218
aVAbsorb
p219
aVNature Power
p220
asg43
g44
sg45
VSwift Swim
p221
sbag1
(g25
g3
Ntp222
Rp223
(dp224
g29
I255
sg31
VTorchic
p225
sg33
g34
sg35
V15
p226
sg37
(lp227
VScratch
p228
aVGrowl
p229
aVFocus Energy
p230
aVEmber
p231
asg43
g44
sg45
VBlaze
p232
sbasg59
I01
sg60
Vemerald
p233
sbag1
(g2
g3
Ntp234
Rp235
(dp236
g7
VSpr E May.png
p237
sg9
VPokemon Trainer
p238
sg11
VMay
p239
sg13
V900
p240
sg15
I2
sg17
g18
sg19
g20
sg21
g209
sg23
(lp241
g1
(g25
g3
Ntp242
Rp243
(dp244
g29
I270
sg31
VLotad
p245
sg33
g96
sg35
V13
p246
sg37
(lp247
VAstonish
p248
aVGrowl
p249
aVAbsorb
p250
aVNature Power
p251
asg43
g44
sg45
VSwift Swim
p252
sbag1
(g25
g3
Ntp253
Rp254
(dp255
g29
I255
sg31
VTorchic
p256
sg33
g34
sg35
V15
p257
sg37
(lp258
VScratch
p259
aVGrowl
p260
aVFocus Energy
p261
aVEmber
p262
asg43
g44
sg45
VBlaze
p263
sbasg59
I01
sg60
g233
sbag1
(g2
g3
Ntp264
Rp265
(dp266
g7
VSpr E Brendan.png
p267
sg9
VPokemon Trainer
p268
sg11
VBrendan
p269
sg13
V900
p270
sg15
I2
sg17
g18
sg19
g20
sg21
g209
sg23
(lp271
g1
(g25
g3
Ntp272
Rp273
(dp274
g29
I218
sg31
VSlugma
p275
sg33
g34
sg35
V13
p276
sg37
(lp277
VYawn
p278
aVSmog
p279
aVEmber
p280
asg43
g44
sg45
VFlame Body
p281
sbag1
(g25
g3
Ntp282
Rp283
(dp284
g29
I258
sg31
VMudkip
p285
sg33
g34
sg35
V15
p286
sg37
(lp287
VGrowl
p288
aVMud-Slap
p289
aVWater Gun
p290
aVBide
p291
asg43
g44
sg45
VTorrent
p292
sbasg59
I01
sg60
g233
sbag1
(g2
g3
Ntp293
Rp294
(dp295
g7
VSpr E May.png
p296
sg9
VPokemon Trainer
p297
sg11
VMay
p298
sg13
V900
p299
sg15
I2
sg17
g18
sg19
g20
sg21
g209
sg23
(lp300
g1
(g25
g3
Ntp301
Rp302
(dp303
g29
I324
sg31
VTorkoal
p304
sg33
g96
sg35
V13
p305
sg37
(lp306
VEmber
p307
aVSmog
p308
aVCurse
p309
asg43
g44
sg45
VWhite Smoke
p310
sbag1
(g25
g3
Ntp311
Rp312
(dp313
g29
I258
sg31
VMudkip
p314
sg33
g34
sg35
V15
p315
sg37
(lp316
VGrowl
p317
aVMud-Slap
p318
aVWater Gun
p319
aVBide
p320
asg43
g44
sg45
VTorrent
p321
sbasg59
I01
sg60
g233
sbag1
(g2
g3
Ntp322
Rp323
(dp324
g7
VSpr E Brendan.png
p325
sg9
VPokemon Trainer
p326
sg11
VBrendan
p327
sg13
V900
p328
sg15
I2
sg17
g18
sg19
g20
sg21
g209
sg23
(lp329
g1
(g25
g3
Ntp330
Rp331
(dp332
g29
I278
sg31
VWingull
p333
sg33
g34
sg35
V13
p334
sg37
(lp335
VGrowl
p336
aVWater Gun
p337
aVSupersonic
p338
aVWing Attack
p339
asg43
g44
sg45
VKeen Eye
p340
sbag1
(g25
g3
Ntp341
Rp342
(dp343
g29
I252
sg31
VTreecko
p344
sg33
g34
sg35
V15
p345
sg37
(lp346
VPound
p347
aVLeer
p348
aVAbsorb
p349
aVQuick Attack
p350
asg43
g44
sg45
VOvergrow
p351
sbasg59
I01
sg60
g233
sbag1
(g2
g3
Ntp352
Rp353
(dp354
g7
VSpr E May.png
p355
sg9
VPokemon Trainer
p356
sg11
VMay
p357
sg13
V900
p358
sg15
I2
sg17
g18
sg19
g20
sg21
g209
sg23
(lp359
g1
(g25
g3
Ntp360
Rp361
(dp362
g29
I278
sg31
VWingull
p363
sg33
g96
sg35
V13
p364
sg37
(lp365
VGrowl
p366
aVWater Gun
p367
aVSupersonic
p368
aVWing Attack
p369
asg43
g44
sg45
VKeen Eye
p370
sbag1
(g25
g3
Ntp371
Rp372
(dp373
g29
I252
sg31
VTreecko
p374
sg33
g34
sg35
V15
p375
sg37
(lp376
VPound
p377
aVLeer
p378
aVAbsorb
p379
aVQuick Attack
p380
asg43
g44
sg45
VOvergrow
p381
sbasg59
I01
sg60
g233
sba.