(lp0
ccopy_reg
_reconstructor
p1
(c__main__
Trainer
p2
c__builtin__
object
p3
Ntp4
Rp5
(dp6
VtSprite
p7
VSpr RS Swimmer F.png
p8
sVtClass
p9
VSwimmer
p10
sVtName
p11
VSharon
p12
sVtMoney
p13
V272
p14
sVtPokeCount
p15
V2
p16
sVtLocation
p17
Vwiki/Hoenn_Route_125
p18
sVtRegion
p19
VHoenn
p20
sVtGame
p21
VRS
p22
sVtPokes
p23
(lp24
g1
(c__main__
FinishedPokemon
p25
g3
Ntp26
Rp27
(dp28
VpDexNo
p29
V118
p30
sVpSpecies
p31
VGoldeen
p32
sVpGender
p33
VF
p34
sVpLevel
p35
V34
p36
sVpMoves
p37
(lp38
Vagility
p39
aVwaterfall
p40
aVflail
p41
aVwater-sport
p42
asVpHold
p43
V
p44
sVpAbility
p45
Vswift-swim
p46
sbag1
(g25
g3
Ntp47
Rp48
(dp49
g29
V119
p50
sg31
VSeaking
p51
sg33
g34
sg35
V34
p52
sg37
(lp53
Vagility
p54
aVwaterfall
p55
aVflail
p56
aVwater-sport
p57
asg43
g44
sg45
Vwater-veil
p58
sbasVbossFlag
p59
I00
sVtLongGame
p60
Vruby-sapphire
p61
sbag1
(g2
g3
Ntp62
Rp63
(dp64
g7
VSpr RS Sailor.png
p65
sg9
VSailor
p66
sg11
VErnest
p67
sg13
V1056
p68
sg15
V3
p69
sg17
g18
sg19
g20
sg21
g22
sg23
(lp70
g1
(g25
g3
Ntp71
Rp72
(dp73
g29
V278
p74
sg31
VWingull
p75
sg33
VM
p76
sg35
V33
p77
sg37
(lp78
Vwater-gun
p79
aVagility
p80
aVquick-attack
p81
aVpursuit
p82
asg43
g44
sg45
Vkeen-eye
p83
sbag1
(g25
g3
Ntp84
Rp85
(dp86
g29
V072
p87
sg31
VTentacool
p88
sg33
g76
sg35
V33
p89
sg37
(lp90
Vbubble-beam
p91
aVscreech
p92
aVbarrier
p93
aVconstrict
p94
asg43
g44
sg45
Vliquid-ooze
p95
sbag1
(g25
g3
Ntp96
Rp97
(dp98
g29
V067
p99
sg31
VMachoke
p100
sg33
g76
sg35
V33
p101
sg37
(lp102
Vdynamic-punch
p103
aVvital-throw
p104
aVcross-chop
p105
aVrevenge
p106
asg43
g44
sg45
Vguts
p107
sbasg59
I00
sg60
g61
sbag1
(g2
g3
Ntp108
Rp109
(dp110
g7
VSpr RS Swimmer F.png
p111
sg9
VSwimmer
p112
sg11
VTanya
p113
sg13
V280
p114
sg15
V1
p115
sg17
g18
sg19
g20
sg21
g22
sg23
(lp116
g1
(g25
g3
Ntp117
Rp118
(dp119
g29
V370
p120
sg31
VLuvdisc
p121
sg33
g34
sg35
V35
p122
sg37
(lp123
Vsweet-kiss
p124
aVcharm
p125
aVattract
p126
aVsafeguard
p127
asg43
g44
sg45
Vswift-swim
p128
sbasg59
I00
sg60
g61
sbag1
(g2
g3
Ntp129
Rp130
(dp131
g7
VSpr RS Sr and Jr.png
p132
sg9
VSr. and Jr.
p133
sg11
VKim & Iris
p134
sg13
V1152
p135
sg15
g16
sg17
g18
sg19
g20
sg21
g22
sg23
(lp136
g1
(g25
g3
Ntp137
Rp138
(dp139
g29
V333
p140
sg31
VSwablu
p141
sg33
g76
sg35
V34
p142
sg37
(lp143
Vperish-song
p144
aVsafeguard
p145
aVrefresh
p146
aVastonish
p147
asg43
g44
sg45
Vnatural-cure
p148
sbag1
(g25
g3
Ntp149
Rp150
(dp151
g29
V322
p152
sg31
VNumel
p153
sg33
g76
sg35
V36
p154
sg37
(lp155
Vearthquake
p156
aVfocus-energy
p157
aVamnesia
p158
aVmagnitude
p159
asg43
g44
sg45
Vsimple
p160
sbasg59
I00
sg60
g61
sbag1
(g2
g3
Ntp161
Rp162
(dp163
g7
VSpr RS Swimmer M.png
p164
sg9
VSwimmer
p165
sg11
VStan
p166
sg13
V280
p167
sg15
g115
sg17
g18
sg19
g20
sg21
g22
sg23
(lp168
g1
(g25
g3
Ntp169
Rp170
(dp171
g29
V116
p172
sg31
VHorsea
p173
sg33
g76
sg35
V35
p174
sg37
(lp175
Vsmokescreen
p176
aVbubble
p177
aVtwister
p178
aVdragon-dance
p179
asg43
g44
sg45
Vsniper
p180
sbasg59
I00
sg60
g61
sbag1
(g2
g3
Ntp181
Rp182
(dp183
g7
VSpr RS Swimmer M.png
p184
sg9
VSwimmer
p185
sg11
VCody
p186
sg13
V272
p187
sg15
g16
sg17
g18
sg19
g20
sg21
g22
sg23
(lp188
g1
(g25
g3
Ntp189
Rp190
(dp191
g29
V120
p192
sg31
VStaryu
p193
sg33
VU
p194
sg35
V34
p195
sg37
(lp196
Vswift
p197
aVrapid-spin
p198
aVcamouflage
p199
aVcosmic-power
p200
asg43
g44
sg45
Vnatural-cure
p201
sbag1
(g25
g3
Ntp202
Rp203
(dp204
g29
V278
p205
sg31
VWingull
p206
sg33
g76
sg35
V34
p207
sg37
(lp208
Vwater-gun
p209
aVagility
p210
aVquick-attack
p211
aVpursuit
p212
asg43
g44
sg45
Vhydration
p213
sbasg59
I00
sg60
g61
sbag1
(g2
g3
Ntp214
Rp215
(dp216
g7
VSpr RS Sailor.png
p217
sg9
VSailor
p218
sg11
VErnest{{tt|*|First rematch}}
p219
sg13
V1152
p220
sg15
g69
sg17
g18
sg19
g20
sg21
g22
sg23
(lp221
g1
(g25
g3
Ntp222
Rp223
(dp224
g29
V278
p225
sg31
VWingull
p226
sg33
g76
sg35
V36
p227
sg37
(lp228
Vwater-gun
p229
aVagility
p230
aVquick-attack
p231
aVpursuit
p232
asg43
g44
sg45
Vhydration
p233
sbag1
(g25
g3
Ntp234
Rp235
(dp236
g29
V072
p237
sg31
VTentacool
p238
sg33
g76
sg35
V36
p239
sg37
(lp240
Vbubble-beam
p241
aVscreech
p242
aVbarrier
p243
aVconstrict
p244
asg43
g44
sg45
Vliquid-ooze
p245
sbag1
(g25
g3
Ntp246
Rp247
(dp248
g29
V067
p249
sg31
VMachoke
p250
sg33
g76
sg35
V36
p251
sg37
(lp252
Vdynamic-punch
p253
aVvital-throw
p254
aVcross-chop
p255
aVrevenge
p256
asg43
g44
sg45
Vguts
p257
sbasg59
I00
sg60
g61
sbag1
(g2
g3
Ntp258
Rp259
(dp260
g7
VSpr RS Sailor.png
p261
sg9
VSailor
p262
sg11
VErnest{{tt|*|Second and third rematch}}
p263
sg13
g1
(cmwparserfromhell.wikicode
Wikicode
p264
g3
Ntp265
Rp266
(dp267
V_nodes
p268
g1
(cmwparserfromhell.smart_list.smart_list
SmartList
p269
c__builtin__
list
p270
(lp271
g1
(cmwparserfromhell.nodes.text
Text
p272
g3
Ntp273
Rp274
(dp275
V_value
p276
V1248
p277
sbatp278
Rp279
(dp280
V_children
p281
(dp282
sbsbsg15
g69
sg17
g18
sg19
g20
sg21
g22
sg23
(lp283
g1
(g25
g3
Ntp284
Rp285
(dp286
g29
V279
p287
sg31
VPelipper
p288
sg33
g76
sg35
V39
p289
sg37
(lp290
Vstockpile
p291
aVspit-up
p292
aVswallow
p293
aVwater-sport
p294
asg43
g44
sg45
Vdrizzle
p295
sbag1
(g25
g3
Ntp296
Rp297
(dp298
g29
V072
p299
sg31
VTentacool
p300
sg33
g76
sg35
V39
p301
sg37
(lp302
Vbubble-beam
p303
aVscreech
p304
aVbarrier
p305
aVconstrict
p306
asg43
g44
sg45
Vliquid-ooze
p307
sbag1
(g25
g3
Ntp308
Rp309
(dp310
g29
V067
p311
sg31
VMachoke
p312
sg33
g76
sg35
V39
p313
sg37
(lp314
Vdynamic-punch
p315
aVvital-throw
p316
aVcross-chop
p317
aVrevenge
p318
asg43
g44
sg45
Vguts
p319
sbasg59
I00
sg60
g61
sbag1
(g2
g3
Ntp320
Rp321
(dp322
g7
VSpr RS Sailor.png
p323
sg9
VSailor
p324
sg11
VErnest{{tt|*|Fourth rematch onwards}}
p325
sg13
V1440
p326
sg15
g69
sg17
g18
sg19
g20
sg21
g22
sg23
(lp327
g1
(g25
g3
Ntp328
Rp329
(dp330
g29
V279
p331
sg31
VPelipper
p332
sg33
g76
sg35
V45
p333
sg37
(lp334
Vstockpile
p335
aVspit-up
p336
aVswallow
p337
aVwater-sport
p338
asg43
g44
sg45
Vkeen-eye
p339
sbag1
(g25
g3
Ntp340
Rp341
(dp342
g29
V067
p343
sg31
VMachoke
p344
sg33
g76
sg35
V45
p345
sg37
(lp346
Vdynamic-punch
p347
aVvital-throw
p348
aVcross-chop
p349
aVrevenge
p350
asg43
g44
sg45
Vguts
p351
sbag1
(g25
g3
Ntp352
Rp353
(dp354
g29
V073
p355
sg31
VTentacruel
p356
sg33
g76
sg35
V45
p357
sg37
(lp358
Vscreech
p359
aVbarrier
p360
aVconstrict
p361
ag361
asg43
g44
sg45
Vclear-body
p362
sbasg59
I00
sg60
g61
sbag1
(g2
g3
Ntp363
Rp364
(dp365
g7
VSpr RS Sailor.png
p366
sg9
VSailor
p367
sg11
VErnest
p368
sg13
V1056
p369
sg15
g16
sg17
g18
sg19
g20
sg21
g22
sg23
(lp370
g1
(g25
g3
Ntp371
Rp372
(dp373
g29
V278
p374
sg31
VWingull
p375
sg33
g76
sg35
V33
p376
sg37
(lp377
Vwater-gun
p378
aVagility
p379
aVquick-attack
p380
aVpursuit
p381
asg43
g44
sg45
Vkeen-eye
p382
sbag1
(g25
g3
Ntp383
Rp384
(dp385
g29
V067
p386
sg31
VMachoke
p387
sg33
g76
sg35
V33
p388
sg37
(lp389
Vdynamic-punch
p390
aVvital-throw
p391
aVcross-chop
p392
aVrevenge
p393
asg43
g44
sg45
Vguts
p394
sbasg59
I00
sg60
g61
sbag1
(g2
g3
Ntp395
Rp396
(dp397
g7
VSpr RS Swimmer M.png
p398
sg9
VSwimmer
p399
sg11
VNolen
p400
sg13
V272
p401
sg15
g115
sg17
g18
sg19
g20
sg21
g22
sg23
(lp402
g1
(g25
g3
Ntp403
Rp404
(dp405
g29
V073
p406
sg31
VTentacruel
p407
sg33
g76
sg35
V34
p408
sg37
(lp409
Vscreech
p410
aVbarrier
p411
aVconstrict
p412
ag412
asg43
g44
sg45
Vliquid-ooze
p413
sbasg59
I00
sg60
g61
sbag1
(g2
g3
Ntp414
Rp415
(dp416
g7
VSpr RS Swimmer F.png
p417
sg9
VSwimmer
p418
sg11
VSharon
p419
sg13
V272
p420
sg15
g115
sg17
g18
sg19
g20
sg21
g22
sg23
(lp421
g1
(g25
g3
Ntp422
Rp423
(dp424
g29
V119
p425
sg31
VSeaking
p426
sg33
g34
sg35
V34
p427
sg37
(lp428
Vagility
p429
aVwaterfall
p430
aVflail
p431
aVwater-sport
p432
asg43
g44
sg45
Vwater-veil
p433
sbasg59
I00
sg60
g61
sbag1
(g2
g3
Ntp434
Rp435
(dp436
g7
VSpr RS Swimmer F.png
p437
sg9
VSwimmer
p438
sg11
VTanya
p439
sg13
V272
p440
sg15
g115
sg17
g18
sg19
g20
sg21
g22
sg23
(lp441
g1
(g25
g3
Ntp442
Rp443
(dp444
g29
V370
p445
sg31
VLuvdisc
p446
sg33
g34
sg35
V34
p447
sg37
(lp448
Vsweet-kiss
p449
aVcharm
p450
aVattract
p451
aVsafeguard
p452
asg43
g44
sg45
Vswift-swim
p453
sbasg59
I00
sg60
g61
sbag1
(g2
g3
Ntp454
Rp455
(dp456
g7
VSpr RS Bird Keeper.png
p457
sg9
VBird Keeper
p458
sg11
VPresley
p459
sg13
V1056<br><small>Potential [[Double Battle]] with Auron</small>
p460
sg15
g16
sg17
g18
sg19
g20
sg21
g22
sg23
(lp461
g1
(g25
g3
Ntp462
Rp463
(dp464
g29
V357
p465
sg31
VTropius
p466
sg33
g76
sg35
V33
p467
sg37
(lp468
Vsolar-beam
p469
aVsweet-scent
p470
aVsynthesis
p471
aVmagical-leaf
p472
asg43
g44
sg45
Vchlorophyll
p473
sbag1
(g25
g3
Ntp474
Rp475
(dp476
g29
V178
p477
sg31
VXatu
p478
sg33
g76
sg35
V33
p479
sg37
(lp480
Vnight-shade
p481
aVconfuse-ray
p482
aVfuture-sight
p483
aVwish
p484
asg43
g44
sg45
Vearly-bird
p485
sbasg59
I00
sg60
g61
sbag1
(g2
g3
Ntp486
Rp487
(dp488
g7
VSpr RS Expert M.png
p489
sg9
VExpert
p490
sg11
VAuron
p491
sg13
V1320<br><small>Potential [[Double Battle]] with Presley</small>
p492
sg15
g16
sg17
g18
sg19
g20
sg21
g22
sg23
(lp493
g1
(g25
g3
Ntp494
Rp495
(dp496
g29
V310
p497
sg31
VManectric
p498
sg33
g76
sg35
V33
p499
sg37
(lp500
Vcharge
p501
aVodor-sleuth
p502
aVhowl
p503
ag503
asg43
g44
sg45
Vlightning-rod
p504
sbag1
(g25
g3
Ntp505
Rp506
(dp507
g29
V068
p508
sg31
VMachamp
p509
sg33
g76
sg35
V33
p510
sg37
(lp511
Vdynamic-punch
p512
aVvital-throw
p513
aVcross-chop
p514
aVrevenge
p515
asg43
g44
sg45
Vno-guard
p516
sbasg59
I00
sg60
g61
sbag1
(g2
g3
Ntp517
Rp518
(dp519
g7
VSpr RS Swimmer M.png
p520
sg9
VSwimmer
p521
sg11
VStan
p522
sg13
V272
p523
sg15
g115
sg17
g18
sg19
g20
sg21
g22
sg23
(lp524
g1
(g25
g3
Ntp525
Rp526
(dp527
g29
V116
p528
sg31
VHorsea
p529
sg33
g76
sg35
V34
p530
sg37
(lp531
Vsmokescreen
p532
aVbubble
p533
aVtwister
p534
aVdragon-dance
p535
asg43
g44
sg45
Vswift-swim
p536
sbasg59
I00
sg60
g61
sbag1
(g2
g3
Ntp537
Rp538
(dp539
g7
VSpr RS Sr and Jr.png
p540
sg9
VSr. and Jr.
p541
sg11
VKim & Iris
p542
sg13
V1120
p543
sg15
g16
sg17
g18
sg19
g20
sg21
g22
sg23
(lp544
g1
(g25
g3
Ntp545
Rp546
(dp547
g29
V333
p548
sg31
VSwablu
p549
sg33
g76
sg35
V32
p550
sg37
(lp551
Vperish-song
p552
aVsafeguard
p553
aVrefresh
p554
aVastonish
p555
asg43
g44
sg45
Vnatural-cure
p556
sbag1
(g25
g3
Ntp557
Rp558
(dp559
g29
V322
p560
sg31
VNumel
p561
sg33
g76
sg35
V35
p562
sg37
(lp563
Vearthquake
p564
aVfocus-energy
p565
aVamnesia
p566
aVmagnitude
p567
asg43
g44
sg45
Vsimple
p568
sbasg59
I00
sg60
g61
sbag1
(g2
g3
Ntp569
Rp570
(dp571
g7
VSpr RS Sailor.png
p572
sg9
VSailor
p573
sg11
VErnest{{tt|*|First rematch}}
p574
sg13
V1152
p575
sg15
g69
sg17
g18
sg19
g20
sg21
g22
sg23
(lp576
g1
(g25
g3
Ntp577
Rp578
(dp579
g29
V278
p580
sg31
VWingull
p581
sg33
g76
sg35
V36
p582
sg37
(lp583
Vwater-gun
p584
aVagility
p585
aVquick-attack
p586
aVpursuit
p587
asg43
g44
sg45
Vkeen-eye
p588
sbag1
(g25
g3
Ntp589
Rp590
(dp591
g29
V072
p592
sg31
VTentacool
p593
sg33
g76
sg35
V36
p594
sg37
(lp595
Vbubble-beam
p596
aVscreech
p597
aVbarrier
p598
aVconstrict
p599
asg43
g44
sg45
Vliquid-ooze
p600
sbag1
(g25
g3
Ntp601
Rp602
(dp603
g29
V067
p604
sg31
VMachoke
p605
sg33
g76
sg35
V36
p606
sg37
(lp607
Vdynamic-punch
p608
aVvital-throw
p609
aVcross-chop
p610
aVrevenge
p611
asg43
g44
sg45
Vno-guard
p612
sbasg59
I00
sg60
g61
sbag1
(g2
g3
Ntp613
Rp614
(dp615
g7
VSpr RS Sailor.png
p616
sg9
VSailor
p617
sg11
VErnest{{tt|*|Second and third rematch}}
p618
sg13
g1
(g264
g3
Ntp619
Rp620
(dp621
g268
g1
(g269
g270
(lp622
g1
(g272
g3
Ntp623
Rp624
(dp625
g276
V1248
p626
sbatp627
Rp628
(dp629
g281
(dp630
sbsbsg15
g69
sg17
g18
sg19
g20
sg21
g22
sg23
(lp631
g1
(g25
g3
Ntp632
Rp633
(dp634
g29
V279
p635
sg31
VPelipper
p636
sg33
g76
sg35
V39
p637
sg37
(lp638
Vstockpile
p639
aVspit-up
p640
aVswallow
p641
aVwater-sport
p642
asg43
g44
sg45
Vkeen-eye
p643
sbag1
(g25
g3
Ntp644
Rp645
(dp646
g29
V072
p647
sg31
VTentacool
p648
sg33
g76
sg35
V39
p649
sg37
(lp650
Vbubble-beam
p651
aVscreech
p652
aVbarrier
p653
aVconstrict
p654
asg43
g44
sg45
Vliquid-ooze
p655
sbag1
(g25
g3
Ntp656
Rp657
(dp658
g29
V067
p659
sg31
VMachoke
p660
sg33
g76
sg35
V39
p661
sg37
(lp662
Vdynamic-punch
p663
aVvital-throw
p664
aVcross-chop
p665
aVrevenge
p666
asg43
g44
sg45
Vno-guard
p667
sbasg59
I00
sg60
g61
sbag1
(g2
g3
Ntp668
Rp669
(dp670
g7
VSpr RS Sailor.png
p671
sg9
VSailor
p672
sg11
VErnest{{tt|*|Fourth rematch onwards}}
p673
sg13
V1440
p674
sg15
g69
sg17
g18
sg19
g20
sg21
g22
sg23
(lp675
g1
(g25
g3
Ntp676
Rp677
(dp678
g29
V279
p679
sg31
VPelipper
p680
sg33
g76
sg35
V45
p681
sg37
(lp682
Vstockpile
p683
aVspit-up
p684
aVswallow
p685
aVwater-sport
p686
asg43
g44
sg45
Vdrizzle
p687
sbag1
(g25
g3
Ntp688
Rp689
(dp690
g29
V067
p691
sg31
VMachoke
p692
sg33
g76
sg35
V45
p693
sg37
(lp694
Vdynamic-punch
p695
aVvital-throw
p696
aVcross-chop
p697
aVrevenge
p698
asg43
g44
sg45
Vguts
p699
sbag1
(g25
g3
Ntp700
Rp701
(dp702
g29
V073
p703
sg31
VTentacruel
p704
sg33
g76
sg35
V45
p705
sg37
(lp706
Vscreech
p707
aVbarrier
p708
aVconstrict
p709
ag709
asg43
g44
sg45
Vliquid-ooze
p710
sbasg59
I00
sg60
g61
sbag1
(g2
g3
Ntp711
Rp712
(dp713
g7
VVSSwimmer M VI.png
p714
sg9
VSwimmer \u2642
p715
sg11
VStan
p716
sg13
V624
p717
sg15
g115
sg17
g18
sg19
g20
sg21
VSM
p718
sg23
(lp719
g1
(g25
g3
Ntp720
Rp721
(dp722
g29
V117
p723
sg31
VSeadra
p724
sg33
g76
sg35
V39
p725
sg37
(lp726
Vtwister
p727
aVdragon-dance
p728
aVbrine
p729
aVdragon-pulse
p730
asg43
g44
sg45
Vsniper
p731
sbasg59
I00
sg60
Vsun-moon
p732
sbag1
(g2
g3
Ntp733
Rp734
(dp735
g7
VVSSailor.png
p736
sg9
VSailor
p737
sg11
VErnest
p738
sg13
V1,440
p739
sg15
g69
sg17
g18
sg19
g20
sg21
VSM
p740
sg23
(lp741
g1
(g25
g3
Ntp742
Rp743
(dp744
g29
V320
p745
sg31
VWailmer
p746
sg33
g76
sg35
V36
p747
sg37
(lp748
Vbounce
p749
aVwater-pulse
p750
aVbrine
p751
aVheavy-slam
p752
asg43
g44
sg45
Voblivious
p753
sbag1
(g25
g3
Ntp754
Rp755
(dp756
g29
V073
p757
sg31
VTentacruel
p758
sg33
g76
sg35
V36
p759
sg37
(lp760
Vsludge-wave
p761
aVacid-spray
p762
aVhex
p763
aVreflect-type
p764
asg43
g44
sg45
Vliquid-ooze
p765
sbag1
(g25
g3
Ntp766
Rp767
(dp768
g29
V067
p769
sg31
VMachoke
p770
sg33
g76
sg35
V36
p771
sg37
(lp772
Vbulk-up
p773
aVwake-up-slap
p774
aVlow-sweep
p775
aVdual-chop
p776
asg43
g44
sg45
Vno-guard
p777
sbasg59
I00
sg60
g732
sbag1
(g2
g3
Ntp778
Rp779
(dp780
g7
VVSTeammates.png
p781
sg9
VTeammates
p782
sg11
VKim & Iris
p783
sg13
V1,872
p784
sg15
g16
sg17
g18
sg19
g20
sg21
g740
sg23
(lp785
g1
(g25
g3
Ntp786
Rp787
(dp788
g29
V334
p789
sg31
VAltaria
p790
sg33
g34
sg35
V38
p791
sg37
(lp792
Vround
p793
aVcotton-guard
p794
aVdisarming-voice
p795
aVmoonblast
p796
asg43
g44
sg45
Vnatural-cure
p797
sbag1
(g25
g3
Ntp798
Rp799
(dp800
g29
V323
p801
sg31
VCamerupt
p802
sg33
g34
sg35
V39
p803
sg37
(lp804
Veruption
p805
aVearth-power
p806
aVlava-plume
p807
aVflame-burst
p808
asg43
g44
sg45
Vmagma-armor
p809
sbasg59
I00
sg60
g732
sbag1
(g2
g3
Ntp810
Rp811
(dp812
g7
VVSSwimmer F ORAS.png
p813
sg9
VSwimmer \u2640
p814
sg11
VTanya
p815
sg13
V624
p816
sg15
g115
sg17
g18
sg19
g20
sg21
VSM
p817
sg23
(lp818
g1
(g25
g3
Ntp819
Rp820
(dp821
g29
V370
p822
sg31
VLuvdisc
p823
sg33
g34
sg35
V39
p824
sg37
(lp825
Vcaptivate
p826
aVsoak
p827
aVheart-stamp
p828
aVdraining-kiss
p829
asg43
g44
sg45
Vswift-swim
p830
sbasg59
I00
sg60
g732
sbag1
(g2
g3
Ntp831
Rp832
(dp833
g7
VVSSwimmer F ORAS.png
p834
sg9
VSwimmer \u2640
p835
sg11
VSharon
p836
sg13
V576
p837
sg15
g16
sg17
g18
sg19
g20
sg21
g817
sg23
(lp838
g1
(g25
g3
Ntp839
Rp840
(dp841
g29
V366
p842
sg31
VClamperl
p843
sg33
g34
sg35
V38
p844
sg37
(lp845
Vclamp
p846
aVwhirlpool
p847
aViron-defense
p848
aVshell-smash
p849
asg43
g44
sg45
Vshell-armor
p850
sbag1
(g25
g3
Ntp851
Rp852
(dp853
g29
V119
p854
sg31
VSeaking
p855
sg33
g34
sg35
V36
p856
sg37
(lp857
Vwater-pulse
p858
aVaqua-ring
p859
aVpoison-jab
p860
aVsoak
p861
asg43
g44
sg45
Vwater-veil
p862
sbasg59
I00
sg60
g732
sbag1
(g2
g3
Ntp863
Rp864
(dp865
g7
VVSSwimmer M VI.png
p866
sg9
VSwimmer \u2642
p867
sg11
VCody
p868
sg13
V592
p869
sg15
g16
sg17
g18
sg19
g20
sg21
g718
sg23
(lp870
g1
(g25
g3
Ntp871
Rp872
(dp873
g29
V120
p874
sg31
VStaryu
p875
sg33
g194
sg35
V37
p876
sg37
(lp877
Vgyro-ball
p878
aVbrine
p879
aVpower-gem
p880
aVreflect-type
p881
asg43
g44
sg45
Villuminate
p882
sbag1
(g25
g3
Ntp883
Rp884
(dp885
g29
V120
p886
sg31
VStaryu
p887
sg33
g194
sg35
V37
p888
sg37
(lp889
Vgyro-ball
p890
aVbrine
p891
aVpower-gem
p892
aVreflect-type
p893
asg43
g44
sg45
Vnatural-cure
p894
sbasg59
I00
sg60
g732
sbag1
(g2
g3
Ntp895
Rp896
(dp897
g7
VVSSailor.png
p898
sg9
VSailor
p899
sg11
VErnest
p900
sg13
V1,680<br><small>After earning the {{badge|Rain}}</small>
p901
sg15
g69
sg17
g18
sg19
g20
sg21
g740
sg23
(lp902
g1
(g25
g3
Ntp903
Rp904
(dp905
g29
V073
p906
sg31
VTentacruel
p907
sg33
g76
sg35
V42
p908
sg37
(lp909
Vsludge-wave
p910
aVacid-spray
p911
aVhex
p912
aVreflect-type
p913
asg43
g44
sg45
Vclear-body
p914
sbag1
(g25
g3
Ntp915
Rp916
(dp917
g29
V067
p918
sg31
VMachoke
p919
sg33
g76
sg35
V42
p920
sg37
(lp921
Vbulk-up
p922
aVwake-up-slap
p923
aVlow-sweep
p924
aVdual-chop
p925
asg43
g44
sg45
Vguts
p926
sbag1
(g25
g3
Ntp927
Rp928
(dp929
g29
V321
p930
sg31
VWailord
p931
sg33
g76
sg35
V42
p932
sg37
(lp933
Vheavy-slam
p934
ag934
aVsoak
p935
aVnoble-roar
p936
asg43
g44
sg45
Vwater-veil
p937
sbasg59
I00
sg60
g732
sbag1
(g2
g3
Ntp938
Rp939
(dp940
g7
VVSSailor.png
p941
sg9
VSailor
p942
sg11
VErnest
p943
sg13
V1,920<br><small>After entering the [[Hall of Fame]]</small>
p944
sg15
g69
sg17
g18
sg19
g20
sg21
g740
sg23
(lp945
g1
(g25
g3
Ntp946
Rp947
(dp948
g29
V073
p949
sg31
VTentacruel
p950
sg33
g76
sg35
V48
p951
sg37
(lp952
Vsludge-wave
p953
aVacid-spray
p954
aVhex
p955
aVreflect-type
p956
asg43
g44
sg45
Vclear-body
p957
sbag1
(g25
g3
Ntp958
Rp959
(dp960
g29
V321
p961
sg31
VWailord
p962
sg33
g76
sg35
V48
p963
sg37
(lp964
Vheavy-slam
p965
ag965
aVsoak
p966
aVnoble-roar
p967
asg43
g44
sg45
Vwater-veil
p968
sbag1
(g25
g3
Ntp969
Rp970
(dp971
g29
V068
p972
sg31
VMachamp
p973
sg33
g76
sg35
V48
p974
sg37
(lp975
Vwake-up-slap
p976
aVwide-guard
p977
aVlow-sweep
p978
aVdual-chop
p979
asg43
g44
sg45
Vguts
p980
sbasg59
I00
sg60
g732
sba.