(lp0
ccopy_reg
_reconstructor
p1
(c__main__
Trainer
p2
c__builtin__
object
p3
Ntp4
Rp5
(dp6
VtSprite
p7
VSpr RS Cooltrainer M.png
p8
sVtClass
p9
VCooltrainer
p10
sVtName
p11
VRuben
p12
sVtMoney
p13
V1632
p14
sVtPokeCount
p15
V3
p16
sVtLocation
p17
Vwiki/Hoenn_Route_128
p18
sVtRegion
p19
VHoenn
p20
sVtGame
p21
VRS
p22
sVtPokes
p23
(lp24
g1
(c__main__
FinishedPokemon
p25
g3
Ntp26
Rp27
(dp28
VpDexNo
p29
V275
p30
sVpSpecies
p31
VShiftry
p32
sVpGender
p33
VM
p34
sVpLevel
p35
V34
p36
sVpMoves
p37
(lp38
Vpound
p39
aVgrowth
p40
aVharden
p41
aVnature-power
p42
asVpHold
p43
V
p44
sVpAbility
p45
Vchlorophyll
p46
sbag1
(g25
g3
Ntp47
Rp48
(dp49
g29
V075
p50
sg31
VGraveler
p51
sg33
g34
sg35
V34
p52
sg37
(lp53
Vmagnitude
p54
aVmud-sport
p55
ag55
aVrock-blast
p56
asg43
g44
sg45
Vsturdy
p57
sbag1
(g25
g3
Ntp58
Rp59
(dp60
g29
V294
p61
sg31
VLoudred
p62
sg33
g34
sg35
V34
p63
sg37
(lp64
Vastonish
p65
ag65
aVhowl
p66
ag66
asg43
g44
sg45
Vsoundproof
p67
sbasVbossFlag
p68
I00
sVtLongGame
p69
Vruby-sapphire
p70
sbag1
(g2
g3
Ntp71
Rp72
(dp73
g7
VSpr RS Cooltrainer F.png
p74
sg9
VCooltrainer
p75
sg11
VAlexa
p76
sg13
V1680
p77
sg15
V2
p78
sg17
g18
sg19
g20
sg21
g22
sg23
(lp79
g1
(g25
g3
Ntp80
Rp81
(dp82
g29
V044
p83
sg31
VGloom
p84
sg33
VF
p85
sg35
V35
p86
sg37
(lp87
Vpetal-dance
p88
aVsweet-scent
p89
ag89
aVmoonlight
p90
asg43
g44
sg45
Vchlorophyll
p91
sbag1
(g25
g3
Ntp92
Rp93
(dp94
g29
V184
p95
sg31
VAzumarill
p96
sg33
g85
sg35
V35
p97
sg37
(lp98
Vdefense-curl
p99
ag99
aVrollout
p100
aVrain-dance
p101
asg43
g44
sg45
Vthick-fat
p102
sbasg68
I00
sg69
g70
sbag1
(g2
g3
Ntp103
Rp104
(dp105
g7
VSpr RS Fisherman.png
p106
sg9
VFisherman
p107
sg11
VWayne
p108
sg13
V1280
p109
sg15
V4
p110
sg17
g18
sg19
g20
sg21
g22
sg23
(lp111
g1
(g25
g3
Ntp112
Rp113
(dp114
g29
V072
p115
sg31
VTentacool
p116
sg33
g34
sg35
V30
p117
sg37
(lp118
Vbubble-beam
p119
aVscreech
p120
aVbarrier
p121
aVconstrict
p122
asg43
g44
sg45
Vclear-body
p123
sbag1
(g25
g3
Ntp124
Rp125
(dp126
g29
V072
p127
sg31
VTentacool
p128
sg33
g34
sg35
V30
p129
sg37
(lp130
Vbubble-beam
p131
aVscreech
p132
aVbarrier
p133
aVconstrict
p134
asg43
g44
sg45
Vclear-body
p135
sbag1
(g25
g3
Ntp136
Rp137
(dp138
g29
V320
p139
sg31
VWailmer
p140
sg33
g34
sg35
V35
p141
sg37
(lp142
Vwhirlpool
p143
aVastonish
p144
aVwater-spout
p145
aVwater-pulse
p146
asg43
g44
sg45
Voblivious
p147
sbag1
(g25
g3
Ntp148
Rp149
(dp150
g29
V073
p151
sg31
VTentacruel
p152
sg33
g34
sg35
V32
p153
sg37
(lp154
Vscreech
p155
aVbarrier
p156
aVconstrict
p157
ag157
asg43
g44
sg45
Vclear-body
p158
sbasg68
I00
sg69
g70
sbag1
(g2
g3
Ntp159
Rp160
(dp161
g7
VSpr RS Triathlete Swimmer M.png
p162
sg9
VTriathlete
p163
sg11
VIsaiah
p164
sg13
V1440
p165
sg15
V1
p166
sg17
g18
sg19
g20
sg21
g22
sg23
(lp167
g1
(g25
g3
Ntp168
Rp169
(dp170
g29
V120
p171
sg31
VStaryu
p172
sg33
VU
p173
sg35
V36
p174
sg37
(lp175
Vswift
p176
aVrapid-spin
p177
aVcamouflage
p178
aVcosmic-power
p179
asg43
g44
sg45
Vnatural-cure
p180
sbasg68
I00
sg69
g70
sbag1
(g2
g3
Ntp181
Rp182
(dp183
g7
VSpr RS Triathlete Swimmer F.png
p184
sg9
VTriathlete
p185
sg11
VKatelyn
p186
sg13
V1440
p187
sg15
g166
sg17
g18
sg19
g20
sg21
g22
sg23
(lp188
g1
(g25
g3
Ntp189
Rp190
(dp191
g29
V120
p192
sg31
VStaryu
p193
sg33
g173
sg35
V36
p194
sg37
(lp195
Vswift
p196
aVrapid-spin
p197
aVcamouflage
p198
aVcosmic-power
p199
asg43
g44
sg45
Villuminate
p200
sbasg68
I00
sg69
g70
sbag1
(g2
g3
Ntp201
Rp202
(dp203
g7
VSpr RS Triathlete Swimmer M.png
p204
sg9
VTriathlete
p205
sg11
VIsaiah{{tt|*|First and second rematch}}
p206
sg13
g1
(cmwparserfromhell.wikicode
Wikicode
p207
g3
Ntp208
Rp209
(dp210
V_nodes
p211
g1
(cmwparserfromhell.smart_list.smart_list
SmartList
p212
c__builtin__
list
p213
(lp214
g1
(cmwparserfromhell.nodes.text
Text
p215
g3
Ntp216
Rp217
(dp218
V_value
p219
V1560
p220
sbatp221
Rp222
(dp223
V_children
p224
(dp225
sbsbsg15
g166
sg17
g18
sg19
g20
sg21
g22
sg23
(lp226
g1
(g25
g3
Ntp227
Rp228
(dp229
g29
V120
p230
sg31
VStaryu
p231
sg33
g173
sg35
V39
p232
sg37
(lp233
Vswift
p234
aVrapid-spin
p235
aVcamouflage
p236
aVcosmic-power
p237
asg43
g44
sg45
Vnatural-cure
p238
sbasg68
I00
sg69
g70
sbag1
(g2
g3
Ntp239
Rp240
(dp241
g7
VSpr RS Triathlete Swimmer M.png
p242
sg9
VTriathlete
p243
sg11
VIsaiah{{tt|*|Third and fourth rematch onwards}}
p244
sg13
g1
(g207
g3
Ntp245
Rp246
(dp247
g211
g1
(g212
g213
(lp248
g1
(g215
g3
Ntp249
Rp250
(dp251
g219
V1800
p252
sbatp253
Rp254
(dp255
g224
(dp256
sbsbsg15
g166
sg17
g18
sg19
g20
sg21
g22
sg23
(lp257
g1
(g25
g3
Ntp258
Rp259
(dp260
g29
V121
p261
sg31
VStarmie
p262
sg33
g173
sg35
V45
p263
sg37
(lp264
Vrecover
p265
aVconfuse-ray
p266
aVswift
p267
aVrapid-spin
p268
asg43
g44
sg45
Villuminate
p269
sbasg68
I00
sg69
g70
sbag1
(g2
g3
Ntp270
Rp271
(dp272
g7
VSpr RS Triathlete Swimmer F.png
p273
sg9
VTriathlete
p274
sg11
VKatelyn{{tt|*|First and second rematch}}
p275
sg13
g1
(g207
g3
Ntp276
Rp277
(dp278
g211
g1
(g212
g213
(lp279
g1
(g215
g3
Ntp280
Rp281
(dp282
g219
V1560
p283
sbatp284
Rp285
(dp286
g224
(dp287
sbsbsg15
g166
sg17
g18
sg19
g20
sg21
g22
sg23
(lp288
g1
(g25
g3
Ntp289
Rp290
(dp291
g29
V120
p292
sg31
VStaryu
p293
sg33
g173
sg35
V39
p294
sg37
(lp295
Vswift
p296
aVrapid-spin
p297
aVcamouflage
p298
aVcosmic-power
p299
asg43
g44
sg45
Villuminate
p300
sbasg68
I00
sg69
g70
sbag1
(g2
g3
Ntp301
Rp302
(dp303
g7
VSpr RS Triathlete Swimmer F.png
p304
sg9
VTriathlete
p305
sg11
VKatelyn{{tt|*|Third and fourth rematch onwards}}
p306
sg13
g1
(g207
g3
Ntp307
Rp308
(dp309
g211
g1
(g212
g213
(lp310
g1
(g215
g3
Ntp311
Rp312
(dp313
g219
V1800
p314
sbatp315
Rp316
(dp317
g224
(dp318
sbsbsg15
g166
sg17
g18
sg19
g20
sg21
g22
sg23
(lp319
g1
(g25
g3
Ntp320
Rp321
(dp322
g29
V121
p323
sg31
VStarmie
p324
sg33
g173
sg35
V45
p325
sg37
(lp326
Vrecover
p327
aVconfuse-ray
p328
aVswift
p329
aVrapid-spin
p330
asg43
g44
sg45
Villuminate
p331
sbasg68
I00
sg69
g70
sbag1
(g2
g3
Ntp332
Rp333
(dp334
g7
VSpr RS Cooltrainer M.png
p335
sg9
VCooltrainer
p336
sg11
VRuben
p337
sg13
V1632
p338
sg15
g78
sg17
g18
sg19
g20
sg21
g22
sg23
(lp339
g1
(g25
g3
Ntp340
Rp341
(dp342
g29
V275
p343
sg31
VShiftry
p344
sg33
g34
sg35
V34
p345
sg37
(lp346
Vpound
p347
aVgrowth
p348
aVharden
p349
aVnature-power
p350
asg43
g44
sg45
Vchlorophyll
p351
sbag1
(g25
g3
Ntp352
Rp353
(dp354
g29
V299
p355
sg31
VNosepass
p356
sg33
g34
sg35
V34
p357
sg37
(lp358
Vzap-cannon
p359
aVlock-on
p360
aVsandstorm
p361
aVblock
p362
asg43
g44
sg45
Vmagnet-pull
p363
sbasg68
I00
sg69
g70
sbag1
(g2
g3
Ntp364
Rp365
(dp366
g7
VSpr RS Cooltrainer F.png
p367
sg9
VCooltrainer
p368
sg11
VAlexa
p369
sg13
V1632
p370
sg15
g78
sg17
g18
sg19
g20
sg21
g22
sg23
(lp371
g1
(g25
g3
Ntp372
Rp373
(dp374
g29
V044
p375
sg31
VGloom
p376
sg33
g85
sg35
V34
p377
sg37
(lp378
Vpetal-dance
p379
aVsweet-scent
p380
ag380
aVmoonlight
p381
asg43
g44
sg45
Vchlorophyll
p382
sbag1
(g25
g3
Ntp383
Rp384
(dp385
g29
V184
p386
sg31
VAzumarill
p387
sg33
g85
sg35
V34
p388
sg37
(lp389
Vdefense-curl
p390
ag390
aVrollout
p391
aVrain-dance
p392
asg43
g44
sg45
Vthick-fat
p393
sbasg68
I00
sg69
g70
sbag1
(g2
g3
Ntp394
Rp395
(dp396
g7
VSpr RS Fisherman.png
p397
sg9
VFisherman
p398
sg11
VWayne
p399
sg13
V1440
p400
sg15
g16
sg17
g18
sg19
g20
sg21
g22
sg23
(lp401
g1
(g25
g3
Ntp402
Rp403
(dp404
g29
V072
p405
sg31
VTentacool
p406
sg33
g34
sg35
V31
p407
sg37
(lp408
Vbubble-beam
p409
aVscreech
p410
aVbarrier
p411
aVconstrict
p412
asg43
g44
sg45
Vliquid-ooze
p413
sbag1
(g25
g3
Ntp414
Rp415
(dp416
g29
V072
p417
sg31
VTentacool
p418
sg33
g34
sg35
V31
p419
sg37
(lp420
Vbubble-beam
p421
aVscreech
p422
aVbarrier
p423
aVconstrict
p424
asg43
g44
sg45
Vliquid-ooze
p425
sbag1
(g25
g3
Ntp426
Rp427
(dp428
g29
V320
p429
sg31
VWailmer
p430
sg33
g34
sg35
V36
p431
sg37
(lp432
Vwhirlpool
p433
aVastonish
p434
aVwater-spout
p435
aVwater-pulse
p436
asg43
g44
sg45
Vwater-veil
p437
sbasg68
I00
sg69
g70
sbag1
(g2
g3
Ntp438
Rp439
(dp440
g7
VSpr RS Triathlete Swimmer M.png
p441
sg9
VTriathlete
p442
sg11
VIsaiah
p443
sg13
V1400
p444
sg15
g166
sg17
g18
sg19
g20
sg21
g22
sg23
(lp445
g1
(g25
g3
Ntp446
Rp447
(dp448
g29
V120
p449
sg31
VStaryu
p450
sg33
g173
sg35
V35
p451
sg37
(lp452
Vswift
p453
aVrapid-spin
p454
aVcamouflage
p455
aVcosmic-power
p456
asg43
g44
sg45
Villuminate
p457
sbasg68
I00
sg69
g70
sbag1
(g2
g3
Ntp458
Rp459
(dp460
g7
VSpr RS Triathlete Swimmer F.png
p461
sg9
VTriathlete
p462
sg11
VKatelyn
p463
sg13
V1400
p464
sg15
g166
sg17
g18
sg19
g20
sg21
g22
sg23
(lp465
g1
(g25
g3
Ntp466
Rp467
(dp468
g29
V120
p469
sg31
VStaryu
p470
sg33
g173
sg35
V35
p471
sg37
(lp472
Vswift
p473
aVrapid-spin
p474
aVcamouflage
p475
aVcosmic-power
p476
asg43
g44
sg45
Vnatural-cure
p477
sbasg68
I00
sg69
g70
sbag1
(g2
g3
Ntp478
Rp479
(dp480
g7
VSpr RS Swimmer F.png
p481
sg9
VSwimmer
p482
sg11
VCarlee
p483
sg13
V280<br><small>Potential [[Double Battle]] with Harrison</small>
p484
sg15
g166
sg17
g18
sg19
g20
sg21
g22
sg23
(lp485
g1
(g25
g3
Ntp486
Rp487
(dp488
g29
V119
p489
sg31
VSeaking
p490
sg33
g85
sg35
V35
p491
sg37
(lp492
Vagility
p493
aVwaterfall
p494
aVflail
p495
aVwater-sport
p496
asg43
g44
sg45
Vswift-swim
p497
sbasg68
I00
sg69
g70
sbag1
(g2
g3
Ntp498
Rp499
(dp500
g7
VSpr RS Swimmer M.png
p501
sg9
VSwimmer
p502
sg11
VHarrison
p503
sg13
V280<br><small>Potential [[Double Battle]] with Carlee</small>
p504
sg15
g166
sg17
g18
sg19
g20
sg21
g22
sg23
(lp505
g1
(g25
g3
Ntp506
Rp507
(dp508
g29
V073
p509
sg31
VTentacruel
p510
sg33
g34
sg35
V35
p511
sg37
(lp512
Vscreech
p513
aVbarrier
p514
aVconstrict
p515
ag515
asg43
g44
sg45
Vclear-body
p516
sbasg68
I00
sg69
g70
sbag1
(g2
g3
Ntp517
Rp518
(dp519
g7
VSpr RS Triathlete Swimmer M.png
p520
sg9
VTriathlete
p521
sg11
VIsaiah{{tt|*|First and second rematch}}
p522
sg13
g1
(g207
g3
Ntp523
Rp524
(dp525
g211
g1
(g212
g213
(lp526
g1
(g215
g3
Ntp527
Rp528
(dp529
g219
V1560
p530
sbatp531
Rp532
(dp533
g224
(dp534
sbsbsg15
g166
sg17
g18
sg19
g20
sg21
g22
sg23
(lp535
g1
(g25
g3
Ntp536
Rp537
(dp538
g29
V120
p539
sg31
VStaryu
p540
sg33
g173
sg35
V39
p541
sg37
(lp542
Vswift
p543
aVrapid-spin
p544
aVcamouflage
p545
aVcosmic-power
p546
asg43
g44
sg45
Villuminate
p547
sbasg68
I00
sg69
g70
sbag1
(g2
g3
Ntp548
Rp549
(dp550
g7
VSpr RS Triathlete Swimmer M.png
p551
sg9
VTriathlete
p552
sg11
VIsaiah{{tt|*|Third and fourth rematch onwards}}
p553
sg13
g1
(g207
g3
Ntp554
Rp555
(dp556
g211
g1
(g212
g213
(lp557
g1
(g215
g3
Ntp558
Rp559
(dp560
g219
V1800
p561
sbatp562
Rp563
(dp564
g224
(dp565
sbsbsg15
g166
sg17
g18
sg19
g20
sg21
g22
sg23
(lp566
g1
(g25
g3
Ntp567
Rp568
(dp569
g29
V121
p570
sg31
VStarmie
p571
sg33
g173
sg35
V45
p572
sg37
(lp573
Vrecover
p574
aVconfuse-ray
p575
aVswift
p576
aVrapid-spin
p577
asg43
g44
sg45
Villuminate
p578
sbasg68
I00
sg69
g70
sbag1
(g2
g3
Ntp579
Rp580
(dp581
g7
VSpr RS Triathlete Swimmer F.png
p582
sg9
VTriathlete
p583
sg11
VKatelyn{{tt|*|First and second rematch}}
p584
sg13
g1
(g207
g3
Ntp585
Rp586
(dp587
g211
g1
(g212
g213
(lp588
g1
(g215
g3
Ntp589
Rp590
(dp591
g219
V1560
p592
sbatp593
Rp594
(dp595
g224
(dp596
sbsbsg15
g166
sg17
g18
sg19
g20
sg21
g22
sg23
(lp597
g1
(g25
g3
Ntp598
Rp599
(dp600
g29
V120
p601
sg31
VStaryu
p602
sg33
g173
sg35
V39
p603
sg37
(lp604
Vswift
p605
aVrapid-spin
p606
aVcamouflage
p607
aVcosmic-power
p608
asg43
g44
sg45
Villuminate
p609
sbasg68
I00
sg69
g70
sbag1
(g2
g3
Ntp610
Rp611
(dp612
g7
VSpr RS Triathlete Swimmer F.png
p613
sg9
VTriathlete
p614
sg11
VKatelyn{{tt|*|Third and fourth rematch onwards}}
p615
sg13
g1
(g207
g3
Ntp616
Rp617
(dp618
g211
g1
(g212
g213
(lp619
g1
(g215
g3
Ntp620
Rp621
(dp622
g219
V1800
p623
sbatp624
Rp625
(dp626
g224
(dp627
sbsbsg15
g166
sg17
g18
sg19
g20
sg21
g22
sg23
(lp628
g1
(g25
g3
Ntp629
Rp630
(dp631
g29
V121
p632
sg31
VStarmie
p633
sg33
g173
sg35
V45
p634
sg37
(lp635
Vrecover
p636
aVconfuse-ray
p637
aVswift
p638
aVrapid-spin
p639
asg43
g44
sg45
Vnatural-cure
p640
sbasg68
I00
sg69
g70
sbag1
(g2
g3
Ntp641
Rp642
(dp643
g7
VVSAce Trainer M ORAS.png
p644
sg9
VAce Trainer
p645
sg11
VCornelius
p646
sg13
V2,340<br><small>Requires {{m|Surf}}</small>
p647
sg15
g78
sg17
g18
sg19
g20
sg21
VSM
p648
sg23
(lp649
g1
(g25
g3
Ntp650
Rp651
(dp652
g29
V076
p653
sg31
VGolem
p654
sg33
g34
sg35
V39
p655
sg37
(lp656
Vheavy-slam
p657
ag657
aVbulldoze
p658
aVsteamroller
p659
asg43
g44
sg45
Vsturdy
p660
sbag1
(g25
g3
Ntp661
Rp662
(dp663
g29
V026
p664
sg31
VRaichu
p665
sg33
g34
sg35
V39
p666
sg37
(lp667
Vtail-whip
p668
aVthunder-shock
p669
aVthunderbolt
p670
aVquick-attack
p671
asg43
g44
sg45
Vstatic
p672
sbasg68
I00
sg69
Vsun-moon
p673
sbag1
(g2
g3
Ntp674
Rp675
(dp676
g7
VVSFisherman ORAS.png
p677
sg9
VFisherman
p678
sg11
VWayne
p679
sg13
V1,184
p680
sg15
g78
sg17
g18
sg19
g20
sg21
VSM
p681
sg23
(lp682
g1
(g25
g3
Ntp683
Rp684
(dp685
g29
V320
p686
sg31
VWailmer
p687
sg33
g34
sg35
V37
p688
sg37
(lp689
Vbounce
p690
aVwater-pulse
p691
aVbrine
p692
aVheavy-slam
p693
asg43
g44
sg45
Vwater-veil
p694
sbag1
(g25
g3
Ntp695
Rp696
(dp697
g29
V117
p698
sg31
VSeadra
p699
sg33
g34
sg35
V37
p700
sg37
(lp701
Vtwister
p702
aVdragon-dance
p703
aVbrine
p704
aVdragon-pulse
p705
asg43
g44
sg45
Vsniper
p706
sbasg68
I00
sg69
g673
sbag1
(g2
g3
Ntp707
Rp708
(dp709
g7
VVSTuber M.png
p710
sg9
VTuber
p711
sg11
VDelmar
p712
sg13
V152<br><small>Requires {{m|Surf}}</small>
p713
sg15
g166
sg17
g18
sg19
g20
sg21
VSM
p714
sg23
(lp715
g1
(g25
g3
Ntp716
Rp717
(dp718
g29
V370
p719
sg31
VLuvdisc
p720
sg33
g85
sg35
V38
p721
sg37
(lp722
Vcaptivate
p723
aVsoak
p724
aVheart-stamp
p725
aVdraining-kiss
p726
asg43
g44
sg45
Vswift-swim
p727
sbasg68
I00
sg69
g673
sbag1
(g2
g3
Ntp728
Rp729
(dp730
g7
VVSTuber F.png
p731
sg9
VTuber
p732
sg11
VMarlene
p733
sg13
V152<br><small>Requires {{m|Surf}}</small>
p734
sg15
g166
sg17
g18
sg19
g20
sg21
g714
sg23
(lp735
g1
(g25
g3
Ntp736
Rp737
(dp738
g29
V370
p739
sg31
VLuvdisc
p740
sg33
g85
sg35
V38
p741
sg37
(lp742
Vcaptivate
p743
aVsoak
p744
aVheart-stamp
p745
aVdraining-kiss
p746
asg43
g44
sg45
Vswift-swim
p747
sbasg68
I00
sg69
g673
sbag1
(g2
g3
Ntp748
Rp749
(dp750
g7
VVSTriathlete Swimmer.png
p751
sg9
VTriathlete
p752
sg11
VIsaiah
p753
sg13
V1,440<br><small>Requires {{m|Surf}}</small>
p754
sg15
g166
sg17
g18
sg19
g20
sg21
VSM
p755
sg23
(lp756
g1
(g25
g3
Ntp757
Rp758
(dp759
g29
V121
p760
sg31
VStarmie
p761
sg33
g173
sg35
V36
p762
sg37
(lp763
Vconfuse-ray
p764
aVswift
p765
aVrapid-spin
p766
aVspotlight
p767
asg43
g44
sg45
Vnatural-cure
p768
sbasg68
I00
sg69
g673
sbag1
(g2
g3
Ntp769
Rp770
(dp771
g7
VVSFree Diver.png
p772
sg9
VFree Diver
p773
sg11
VMayu
p774
sg13
V1,560
p775
sg15
g78
sg17
g18
sg19
g20
sg21
VSM
p776
sg23
(lp777
g1
(g25
g3
Ntp778
Rp779
(dp780
g29
V370
p781
sg31
VLuvdisc
p782
sg33
g85
sg35
V39
p783
sg37
(lp784
Vcaptivate
p785
aVsoak
p786
aVheart-stamp
p787
aVdraining-kiss
p788
asg43
g44
sg45
Vswift-swim
p789
sbag1
(g25
g3
Ntp790
Rp791
(dp792
g29
V370
p793
sg31
VLuvdisc
p794
sg33
g85
sg35
V39
p795
sg37
(lp796
Vcaptivate
p797
aVsoak
p798
aVheart-stamp
p799
aVdraining-kiss
p800
asg43
g44
sg45
Vswift-swim
p801
sbasg68
I00
sg69
g673
sbag1
(g2
g3
Ntp802
Rp803
(dp804
g7
VVSTriathlete Swimmer.png
p805
sg9
VTriathlete
p806
sg11
VIsaiah
p807
sg13
V1,640<br><small>After earning the {{badge|Mind}}</small>
p808
sg15
g166
sg17
g18
sg19
g20
sg21
g755
sg23
(lp809
g1
(g25
g3
Ntp810
Rp811
(dp812
g29
V121
p813
sg31
VStarmie
p814
sg33
g173
sg35
V41
p815
sg37
(lp816
Vconfuse-ray
p817
aVswift
p818
aVrapid-spin
p819
aVspotlight
p820
asg43
g44
sg45
Villuminate
p821
sbasg68
I00
sg69
g673
sbag1
(g2
g3
Ntp822
Rp823
(dp824
g7
VVSTriathlete Swimmer.png
p825
sg9
VTriathlete
p826
sg11
VIsaiah
p827
sg13
V1,800<br><small>After earning the {{badge|Rain}}</small>
p828
sg15
g166
sg17
g18
sg19
g20
sg21
g755
sg23
(lp829
g1
(g25
g3
Ntp830
Rp831
(dp832
g29
V121
p833
sg31
VStarmie
p834
sg33
g173
sg35
V45
p835
sg37
(lp836
Vconfuse-ray
p837
aVswift
p838
aVrapid-spin
p839
aVspotlight
p840
asg43
g44
sg45
Vnatural-cure
p841
sbasg68
I00
sg69
g673
sbag1
(g2
g3
Ntp842
Rp843
(dp844
g7
VVSTriathlete Swimmer.png
p845
sg9
VTriathlete
p846
sg11
VIsaiah
p847
sg13
V1,960<br><small>After entering the [[Hall of Fame]]</small>
p848
sg15
g78
sg17
g18
sg19
g20
sg21
g755
sg23
(lp849
g1
(g25
g3
Ntp850
Rp851
(dp852
g29
V419
p853
sg31
VFloatzel
p854
sg33
g34
sg35
V49
p855
sg37
(lp856
Vaqua-tail
p857
aVice-fang
p858
aVaqua-jet
p859
aVdouble-hit
p860
asg43
g44
sg45
Vswift-swim
p861
sbag1
(g25
g3
Ntp862
Rp863
(dp864
g29
V121
p865
sg31
VStarmie
p866
sg33
g173
sg35
V49
p867
sg37
(lp868
Vconfuse-ray
p869
aVswift
p870
aVrapid-spin
p871
aVspotlight
p872
asg43
g44
sg45
Villuminate
p873
sbasg68
I00
sg69
g673
sba.