(lp0
ccopy_reg
_reconstructor
p1
(c__main__
Trainer
p2
c__builtin__
object
p3
Ntp4
Rp5
(dp6
VtSprite
p7
VSpr RS Swimmer M.png
p8
sVtClass
p9
VSwimmer\u2642
p10
sVtName
p11
VJerome
p12
sVtMoney
p13
V208
p14
sVtPokeCount
p15
V2
p16
sVtLocation
p17
Vwiki/Hoenn_Route_108
p18
sVtRegion
p19
VHoenn
p20
sVtGame
p21
VRS
p22
sVtPokes
p23
(lp24
g1
(c__main__
FinishedPokemon
p25
g3
Ntp26
Rp27
(dp28
VpDexNo
p29
V072
p30
sVpSpecies
p31
VTentacool
p32
sVpGender
p33
VM
p34
sVpLevel
p35
V26
p36
sVpMoves
p37
(lp38
Vbubble-beam
p39
aVscreech
p40
aVbarrier
p41
aVconstrict
p42
asVpHold
p43
V
p44
sVpAbility
p45
Vliquid-ooze
p46
sbag1
(g25
g3
Ntp47
Rp48
(dp49
g29
V278
p50
sg31
VWingull
p51
sg33
g34
sg35
V26
p52
sg37
(lp53
Vwater-gun
p54
aVagility
p55
aVquick-attack
p56
aVpursuit
p57
asg43
g44
sg45
Vkeen-eye
p58
sbasVbossFlag
p59
I00
sVtLongGame
p60
Vruby-sapphire
p61
sbag1
(g2
g3
Ntp62
Rp63
(dp64
g7
VSpr RS Swimmer F.png
p65
sg9
VSwimmer\u2640
p66
sg11
VTara
p67
sg13
V208
p68
sg15
g16
sg17
g18
sg19
g20
sg21
g22
sg23
(lp69
g1
(g25
g3
Ntp70
Rp71
(dp72
g29
V116
p73
sg31
VHorsea
p74
sg33
VF
p75
sg35
V26
p76
sg37
(lp77
Vsmokescreen
p78
aVbubble
p79
aVtwister
p80
aVdragon-dance
p81
asg43
g44
sg45
Vswift-swim
p82
sbag1
(g25
g3
Ntp83
Rp84
(dp85
g29
V183
p86
sg31
VMarill
p87
sg33
g75
sg35
V26
p88
sg37
(lp89
Vbubble-beam
p90
aVdefense-curl
p91
aVrollout
p92
aVrain-dance
p93
asg43
g44
sg45
Vthick-fat
p94
sbasg59
I00
sg60
g61
sbag1
(g2
g3
Ntp95
Rp96
(dp97
g7
VSpr RS Swimmer M.png
p98
sg9
VSwimmer\u2642
p99
sg11
VMatthew
p100
sg13
V216
p101
sg15
V1
p102
sg17
g18
sg19
g20
sg21
g22
sg23
(lp103
g1
(g25
g3
Ntp104
Rp105
(dp106
g29
V318
p107
sg31
VCarvanha
p108
sg33
g34
sg35
V27
p109
sg37
(lp110
Vfocus-energy
p111
aVscary-face
p112
aVswagger
p113
aVcrunch
p114
asg43
g44
sg45
Vrough-skin
p115
sbasg59
I00
sg60
g61
sbag1
(g2
g3
Ntp116
Rp117
(dp118
g7
VSpr RS Swimmer F.png
p119
sg9
VSwimmer\u2640
p120
sg11
VMissy
p121
sg13
V192
p122
sg15
V4
p123
sg17
g18
sg19
g20
sg21
g22
sg23
(lp124
g1
(g25
g3
Ntp125
Rp126
(dp127
g29
V118
p128
sg31
VGoldeen
p129
sg33
g75
sg35
V24
p130
sg37
(lp131
Vagility
p132
aVwaterfall
p133
aVflail
p134
aVwater-sport
p135
asg43
g44
sg45
Vwater-veil
p136
sbag1
(g25
g3
Ntp137
Rp138
(dp139
g29
V278
p140
sg31
VWingull
p141
sg33
g75
sg35
V24
p142
sg37
(lp143
Vwater-gun
p144
aVagility
p145
aVquick-attack
p146
aVpursuit
p147
asg43
g44
sg45
Vhydration
p148
sbag1
(g25
g3
Ntp149
Rp150
(dp151
g29
V183
p152
sg31
VMarill
p153
sg33
g75
sg35
V24
p154
sg37
(lp155
Vbubble-beam
p156
aVdefense-curl
p157
aVrollout
p158
aVrain-dance
p159
asg43
g44
sg45
Vhuge-power
p160
sbag1
(g25
g3
Ntp161
Rp162
(dp163
g29
V320
p164
sg31
VWailmer
p165
sg33
g75
sg35
V24
p166
sg37
(lp167
Vwhirlpool
p168
aVastonish
p169
aVwater-spout
p170
aVwater-pulse
p171
asg43
g44
sg45
Voblivious
p172
sbasg59
I00
sg60
g61
sbag1
(g2
g3
Ntp173
Rp174
(dp175
g7
VSpr RS Swimmer F.png
p176
sg9
VSwimmer\u2640
p177
sg11
VMissy
p178
sg13
V208
p179
sg15
g102
sg17
g18
sg19
g20
sg21
g22
sg23
(lp180
g1
(g25
g3
Ntp181
Rp182
(dp183
g29
V118
p184
sg31
VGoldeen
p185
sg33
g75
sg35
V26
p186
sg37
(lp187
Vagility
p188
aVwaterfall
p189
aVflail
p190
aVwater-sport
p191
asg43
g44
sg45
Vwater-veil
p192
sbasg59
I00
sg60
g61
sbag1
(g2
g3
Ntp193
Rp194
(dp195
g7
VSpr RS Swimmer M.png
p196
sg9
VSwimmer
p197
sg11
VMatthew
p198
sg13
V208
p199
sg15
g102
sg17
g18
sg19
g20
sg21
g22
sg23
(lp200
g1
(g25
g3
Ntp201
Rp202
(dp203
g29
V318
p204
sg31
VCarvanha
p205
sg33
g34
sg35
V26
p206
sg37
(lp207
Vfocus-energy
p208
aVscary-face
p209
aVswagger
p210
aVcrunch
p211
asg43
g44
sg45
Vrough-skin
p212
sbasg59
I00
sg60
g61
sbag1
(g2
g3
Ntp213
Rp214
(dp215
g7
VSpr RS Swimmer F.png
p216
sg9
VSwimmer\u2640
p217
sg11
VTara
p218
sg13
V200
p219
sg15
g16
sg17
g18
sg19
g20
sg21
g22
sg23
(lp220
g1
(g25
g3
Ntp221
Rp222
(dp223
g29
V116
p224
sg31
VHorsea
p225
sg33
g75
sg35
V25
p226
sg37
(lp227
Vsmokescreen
p228
aVbubble
p229
aVtwister
p230
aVdragon-dance
p231
asg43
g44
sg45
Vswift-swim
p232
sbag1
(g25
g3
Ntp233
Rp234
(dp235
g29
V183
p236
sg31
VMarill
p237
sg33
g75
sg35
V25
p238
sg37
(lp239
Vbubble-beam
p240
aVdefense-curl
p241
aVrollout
p242
aVrain-dance
p243
asg43
g44
sg45
Vthick-fat
p244
sbasg59
I00
sg60
g61
sbag1
(g2
g3
Ntp245
Rp246
(dp247
g7
VSpr RS Cooltrainer F.png
p248
sg9
VCooltrainer
p249
sg11
VCarolina
p250
sg13
V1152<br><small>Potential [[Double Battle]] with Cory</small>
p251
sg15
V3
p252
sg17
g18
sg19
g20
sg21
g22
sg23
(lp253
g1
(g25
g3
Ntp254
Rp255
(dp256
g29
V310
p257
sg31
VManectric
p258
sg33
g75
sg35
V24
p259
sg37
(lp260
Vcharge
p261
aVodor-sleuth
p262
aVhowl
p263
ag263
asg43
g44
sg45
Vstatic
p264
sbag1
(g25
g3
Ntp265
Rp266
(dp267
g29
V277
p268
sg31
VSwellow
p269
sg33
g75
sg35
V24
p270
sg37
(lp271
Vfocus-energy
p272
ag272
aVendeavor
p273
aVaerial-ace
p274
asg43
g44
sg45
Vguts
p275
sbag1
(g25
g3
Ntp276
Rp277
(dp278
g29
V310
p279
sg31
VManectric
p280
sg33
g75
sg35
V24
p281
sg37
(lp282
Vcharge
p283
aVodor-sleuth
p284
aVhowl
p285
ag285
asg43
g44
sg45
Vstatic
p286
sbasg59
I00
sg60
g61
sbag1
(g2
g3
Ntp287
Rp288
(dp289
g7
VSpr RS Sailor.png
p290
sg9
VSailor
p291
sg11
VCory
p292
sg13
V768<br><small>Potential [[Double Battle]] with Carolina</small>
p293
sg15
g252
sg17
g18
sg19
g20
sg21
g22
sg23
(lp294
g1
(g25
g3
Ntp295
Rp296
(dp297
g29
V278
p298
sg31
VWingull
p299
sg33
g34
sg35
V24
p300
sg37
(lp301
Vwater-gun
p302
aVagility
p303
aVquick-attack
p304
aVpursuit
p305
asg43
g44
sg45
Vkeen-eye
p306
sbag1
(g25
g3
Ntp307
Rp308
(dp309
g29
V066
p310
sg31
VMachop
p311
sg33
g34
sg35
V24
p312
sg37
(lp313
Vdynamic-punch
p314
aVvital-throw
p315
aVcross-chop
p316
aVrevenge
p317
asg43
g44
sg45
Vguts
p318
sbag1
(g25
g3
Ntp319
Rp320
(dp321
g29
V072
p322
sg31
VTentacool
p323
sg33
g34
sg35
V24
p324
sg37
(lp325
Vbubble-beam
p326
aVscreech
p327
aVbarrier
p328
aVconstrict
p329
asg43
g44
sg45
Vclear-body
p330
sbasg59
I00
sg60
g61
sbag1
(g2
g3
Ntp331
Rp332
(dp333
g7
VSpr RS Swimmer M.png
p334
sg9
VSwimmer\u2642
p335
sg11
VJerome
p336
sg13
V208
p337
sg15
g102
sg17
g18
sg19
g20
sg21
g22
sg23
(lp338
g1
(g25
g3
Ntp339
Rp340
(dp341
g29
V073
p342
sg31
VTentacruel
p343
sg33
g34
sg35
V26
p344
sg37
(lp345
Vscreech
p346
aVbarrier
p347
aVconstrict
p348
ag348
asg43
g44
sg45
Vclear-body
p349
sbasg59
I00
sg60
g61
sbag1
(g2
g3
Ntp350
Rp351
(dp352
g7
VSpr RS Sailor.png
p353
sg9
VSailor
p354
sg11
VCory{{tt|*|First rematch}}
p355
sg13
V960
p356
sg15
g252
sg17
g18
sg19
g20
sg21
g22
sg23
(lp357
g1
(g25
g3
Ntp358
Rp359
(dp360
g29
V278
p361
sg31
VWingull
p362
sg33
g34
sg35
V30
p363
sg37
(lp364
Vwater-gun
p365
aVagility
p366
aVquick-attack
p367
aVpursuit
p368
asg43
g44
sg45
Vhydration
p369
sbag1
(g25
g3
Ntp370
Rp371
(dp372
g29
V066
p373
sg31
VMachop
p374
sg33
g34
sg35
V30
p375
sg37
(lp376
Vdynamic-punch
p377
aVvital-throw
p378
aVcross-chop
p379
aVrevenge
p380
asg43
g44
sg45
Vno-guard
p381
sbag1
(g25
g3
Ntp382
Rp383
(dp384
g29
V072
p385
sg31
VTentacool
p386
sg33
g34
sg35
V30
p387
sg37
(lp388
Vbubble-beam
p389
aVscreech
p390
aVbarrier
p391
aVconstrict
p392
asg43
g44
sg45
Vliquid-ooze
p393
sbasg59
I00
sg60
g61
sbag1
(g2
g3
Ntp394
Rp395
(dp396
g7
VSpr RS Sailor.png
p397
sg9
VSailor
p398
sg11
VCory{{tt|*|Second rematch}}
p399
sg13
V1024
p400
sg15
g252
sg17
g18
sg19
g20
sg21
g22
sg23
(lp401
g1
(g25
g3
Ntp402
Rp403
(dp404
g29
V279
p405
sg31
VPelipper
p406
sg33
g34
sg35
V32
p407
sg37
(lp408
Vstockpile
p409
aVspit-up
p410
aVswallow
p411
aVwater-sport
p412
asg43
g44
sg45
Vkeen-eye
p413
sbag1
(g25
g3
Ntp414
Rp415
(dp416
g29
V066
p417
sg31
VMachop
p418
sg33
g34
sg35
V32
p419
sg37
(lp420
Vdynamic-punch
p421
aVvital-throw
p422
aVcross-chop
p423
aVrevenge
p424
asg43
g44
sg45
Vguts
p425
sbag1
(g25
g3
Ntp426
Rp427
(dp428
g29
V072
p429
sg31
VTentacool
p430
sg33
g34
sg35
V32
p431
sg37
(lp432
Vbubble-beam
p433
aVscreech
p434
aVbarrier
p435
aVconstrict
p436
asg43
g44
sg45
Vliquid-ooze
p437
sbasg59
I00
sg60
g61
sbag1
(g2
g3
Ntp438
Rp439
(dp440
g7
VSpr RS Sailor.png
p441
sg9
VSailor
p442
sg11
VCory{{tt|*|Third rematch}}
p443
sg13
V1088
p444
sg15
g252
sg17
g18
sg19
g20
sg21
g22
sg23
(lp445
g1
(g25
g3
Ntp446
Rp447
(dp448
g29
V279
p449
sg31
VPelipper
p450
sg33
g34
sg35
V34
p451
sg37
(lp452
Vstockpile
p453
aVspit-up
p454
aVswallow
p455
aVwater-sport
p456
asg43
g44
sg45
Vdrizzle
p457
sbag1
(g25
g3
Ntp458
Rp459
(dp460
g29
V066
p461
sg31
VMachop
p462
sg33
g34
sg35
V34
p463
sg37
(lp464
Vdynamic-punch
p465
aVvital-throw
p466
aVcross-chop
p467
aVrevenge
p468
asg43
g44
sg45
Vno-guard
p469
sbag1
(g25
g3
Ntp470
Rp471
(dp472
g29
V073
p473
sg31
VTentacruel
p474
sg33
g34
sg35
V34
p475
sg37
(lp476
Vscreech
p477
aVbarrier
p478
aVconstrict
p479
ag479
asg43
g44
sg45
Vliquid-ooze
p480
sbasg59
I00
sg60
g61
sbag1
(g2
g3
Ntp481
Rp482
(dp483
g7
VSpr RS Sailor.png
p484
sg9
VSailor
p485
sg11
VCory{{tt|*|Fourth rematch onwards}}
p486
sg13
V1152
p487
sg15
g252
sg17
g18
sg19
g20
sg21
g22
sg23
(lp488
g1
(g25
g3
Ntp489
Rp490
(dp491
g29
V279
p492
sg31
VPelipper
p493
sg33
g34
sg35
V36
p494
sg37
(lp495
Vstockpile
p496
aVspit-up
p497
aVswallow
p498
aVwater-sport
p499
asg43
g44
sg45
Vkeen-eye
p500
sbag1
(g25
g3
Ntp501
Rp502
(dp503
g29
V067
p504
sg31
VMachoke
p505
sg33
g34
sg35
V36
p506
sg37
(lp507
Vdynamic-punch
p508
aVvital-throw
p509
aVcross-chop
p510
aVrevenge
p511
asg43
g44
sg45
Vguts
p512
sbag1
(g25
g3
Ntp513
Rp514
(dp515
g29
V073
p516
sg31
VTentacruel
p517
sg33
g34
sg35
V36
p518
sg37
(lp519
Vscreech
p520
aVbarrier
p521
aVconstrict
p522
ag522
asg43
g44
sg45
Vliquid-ooze
p523
sbasg59
I00
sg60
g61
sbag1
(g2
g3
Ntp524
Rp525
(dp526
g7
VVSSwimmer M VI.png
p527
sg9
VSwimmer \u2642
p528
sg11
VJerome
p529
sg13
V400
p530
sg15
g16
sg17
g18
sg19
g20
sg21
VSM
p531
sg23
(lp532
g1
(g25
g3
Ntp533
Rp534
(dp535
g29
V072
p536
sg31
VTentacool
p537
sg33
g34
sg35
V25
p538
sg37
(lp539
Vpoison-jab
p540
aVsludge-wave
p541
aVacid-spray
p542
aVhex
p543
asg43
g44
sg45
Vliquid-ooze
p544
sbag1
(g25
g3
Ntp545
Rp546
(dp547
g29
V279
p548
sg31
VPelipper
p549
sg33
g34
sg35
V25
p550
sg37
(lp551
Vfling
p552
aVsoak
p553
aVhurricane
p554
ag554
asg43
g44
sg45
Vkeen-eye
p555
sbasg59
I00
sg60
Vsun-moon
p556
sbag1
(g2
g3
Ntp557
Rp558
(dp559
g7
VVSSwimmer F ORAS.png
p560
sg9
VSwimmer \u2640
p561
sg11
VMissy
p562
sg13
V384
p563
sg15
g252
sg17
g18
sg19
g20
sg21
VSM
p564
sg23
(lp565
g1
(g25
g3
Ntp566
Rp567
(dp568
g29
V278
p569
sg31
VWingull
p570
sg33
g75
sg35
V24
p571
sg37
(lp572
Vwater-pulse
p573
aVroost
p574
aVair-slash
p575
aVhurricane
p576
asg43
g44
sg45
Vhydration
p577
sbag1
(g25
g3
Ntp578
Rp579
(dp580
g29
V339
p581
sg31
VBarboach
p582
sg33
g75
sg35
V24
p583
sg37
(lp584
Vwater-sport
p585
aVwater-pulse
p586
aVaqua-tail
p587
aVmud-bomb
p588
asg43
g44
sg45
Vanticipation
p589
sbag1
(g25
g3
Ntp590
Rp591
(dp592
g29
V320
p593
sg31
VWailmer
p594
sg33
g75
sg35
V24
p595
sg37
(lp596
Vbounce
p597
aVwater-pulse
p598
aVbrine
p599
aVheavy-slam
p600
asg43
g44
sg45
Voblivious
p601
sbasg59
I00
sg60
g556
sbag1
(g2
g3
Ntp602
Rp603
(dp604
g7
VVSSwimmer F ORAS.png
p605
sg9
VSwimmer \u2640
p606
sg11
VTara
p607
sg13
V432
p608
sg15
g102
sg17
g18
sg19
g20
sg21
g564
sg23
(lp609
g1
(g25
g3
Ntp610
Rp611
(dp612
g29
V320
p613
sg31
VWailmer
p614
sg33
g75
sg35
V27
p615
sg37
(lp616
Vbounce
p617
aVwater-pulse
p618
aVbrine
p619
aVheavy-slam
p620
asg43
g44
sg45
Vwater-veil
p621
sbasg59
I00
sg60
g556
sbag1
(g2
g3
Ntp622
Rp623
(dp624
g7
VVSAce Trainer F ORAS.png
p625
sg9
VAce Trainer
p626
sg11
VConstance
p627
sg13
V1,680
p628
sg15
g16
sg17
g18
sg19
g20
sg21
VSM
p629
sg23
(lp630
g1
(g25
g3
Ntp631
Rp632
(dp633
g29
V336
p634
sg31
VSeviper
p635
sg33
g75
sg35
V26
p636
sg37
(lp637
Vvenoshock
p638
aVcoil
p639
aVbelch
p640
aVvenom-drench
p641
asg43
g44
sg45
Vshed-skin
p642
sbag1
(g25
g3
Ntp643
Rp644
(dp645
g29
V277
p646
sg31
VSwellow
p647
sg33
g75
sg35
V28
p648
sg37
(lp649
Vair-slash
p650
aVbrave-bird
p651
ag651
aVquick-guard
p652
asg43
g44
sg45
Vguts
p653
sbasg59
I00
sg60
g556
sbag1
(g2
g3
Ntp654
Rp655
(dp656
g7
VVSAce Trainer M ORAS.png
p657
sg9
VAce Trainer
p658
sg11
VNeville
p659
sg13
V1,680
p660
sg15
g16
sg17
g18
sg19
g20
sg21
VSM
p661
sg23
(lp662
g1
(g25
g3
Ntp663
Rp664
(dp665
g29
V335
p666
sg31
VZangoose
p667
sg33
g34
sg35
V26
p668
sg37
(lp669
Vclose-combat
p670
aVembargo
p671
aVx-scissor
p672
aVhone-claws
p673
asg43
g44
sg45
Vimmunity
p674
sbag1
(g25
g3
Ntp675
Rp676
(dp677
g29
V286
p678
sg31
VBreloom
p679
sg33
g34
sg35
V28
p680
sg37
(lp681
Vsky-uppercut
p682
aVfeint
p683
aVforce-palm
p684
aVseed-bomb
p685
asg43
g44
sg45
Veffect-spore
p686
sbasg59
I00
sg60
g556
sbag1
(g2
g3
Ntp687
Rp688
(dp689
g7
VVSSwimmer M VI.png
p690
sg9
VSwimmer \u2642
p691
sg11
VMatthew
p692
sg13
V432
p693
sg15
g102
sg17
g18
sg19
g20
sg21
g531
sg23
(lp694
g1
(g25
g3
Ntp695
Rp696
(dp697
g29
V271
p698
sg31
VLombre
p699
sg33
g34
sg35
V27
p700
sg37
(lp701
Vknock-off
p702
aVastonish
p703
aVwater-sport
p704
aVzen-headbutt
p705
asg43
g44
sg45
Vswift-swim
p706
sbasg59
I00
sg60
g556
sbag1
(g2
g3
Ntp707
Rp708
(dp709
g7
VVSAce Trainer M ORAS.png
p710
sg9
VAce Trainer
p711
sg11
VNeville
p712
sg13
V2,160<br><small>After earning the {{badge|Feather}}</small>
p713
sg15
g16
sg17
g18
sg19
g20
sg21
g661
sg23
(lp714
g1
(g25
g3
Ntp715
Rp716
(dp717
g29
V335
p718
sg31
VZangoose
p719
sg33
g34
sg35
V34
p720
sg37
(lp721
Vclose-combat
p722
aVembargo
p723
aVx-scissor
p724
aVhone-claws
p725
asg43
g44
sg45
Vimmunity
p726
sbag1
(g25
g3
Ntp727
Rp728
(dp729
g29
V286
p730
sg31
VBreloom
p731
sg33
g34
sg35
V36
p732
sg37
(lp733
Vsky-uppercut
p734
aVfeint
p735
aVforce-palm
p736
aVseed-bomb
p737
asg43
g44
sg45
Vpoison-heal
p738
sbasg59
I00
sg60
g556
sbag1
(g2
g3
Ntp739
Rp740
(dp741
g7
VVSAce Trainer M ORAS.png
p742
sg9
VAce Trainer
p743
sg11
VNeville
p744
sg13
V2,520<br><small>After earning the {{badge|Mind}}</small>
p745
sg15
g16
sg17
g18
sg19
g20
sg21
g661
sg23
(lp746
g1
(g25
g3
Ntp747
Rp748
(dp749
g29
V335
p750
sg31
VZangoose
p751
sg33
g34
sg35
V40
p752
sg37
(lp753
Vclose-combat
p754
aVembargo
p755
aVx-scissor
p756
aVhone-claws
p757
asg43
g44
sg45
Vimmunity
p758
sbag1
(g25
g3
Ntp759
Rp760
(dp761
g29
V286
p762
sg31
VBreloom
p763
sg33
g34
sg35
V42
p764
sg37
(lp765
Vsky-uppercut
p766
aVfeint
p767
aVforce-palm
p768
aVseed-bomb
p769
asg43
g44
sg45
Vpoison-heal
p770
sbasg59
I00
sg60
g556
sbag1
(g2
g3
Ntp771
Rp772
(dp773
g7
VVSAce Trainer M ORAS.png
p774
sg9
VAce Trainer
p775
sg11
VNeville
p776
sg13
V2,820<br><small>After earning the {{badge|Rain}}</small>
p777
sg15
g16
sg17
g18
sg19
g20
sg21
g661
sg23
(lp778
g1
(g25
g3
Ntp779
Rp780
(dp781
g29
V335
p782
sg31
VZangoose
p783
sg33
g34
sg35
V45
p784
sg37
(lp785
Vclose-combat
p786
aVembargo
p787
aVx-scissor
p788
aVhone-claws
p789
asg43
g44
sg45
Vimmunity
p790
sbag1
(g25
g3
Ntp791
Rp792
(dp793
g29
V286
p794
sg31
VBreloom
p795
sg33
g34
sg35
V47
p796
sg37
(lp797
Vsky-uppercut
p798
aVfeint
p799
aVforce-palm
p800
aVseed-bomb
p801
asg43
g44
sg45
Veffect-spore
p802
sbasg59
I00
sg60
g556
sbag1
(g2
g3
Ntp803
Rp804
(dp805
g7
VVSAce Trainer M ORAS.png
p806
sg9
VAce Trainer
p807
sg11
VNeville
p808
sg13
V3,240<br><small>After entering the [[Hall of Fame]]</small>
p809
sg15
g252
sg17
g18
sg19
g20
sg21
g661
sg23
(lp810
g1
(g25
g3
Ntp811
Rp812
(dp813
g29
V335
p814
sg31
VZangoose
p815
sg33
g34
sg35
V52
p816
sg37
(lp817
Vclose-combat
p818
aVembargo
p819
aVx-scissor
p820
aVhone-claws
p821
asg43
g44
sg45
Vimmunity
p822
sbag1
(g25
g3
Ntp823
Rp824
(dp825
g29
V286
p826
sg31
VBreloom
p827
sg33
g34
sg35
V53
p828
sg37
(lp829
Vsky-uppercut
p830
aVfeint
p831
aVforce-palm
p832
aVseed-bomb
p833
asg43
g44
sg45
Vpoison-heal
p834
sbag1
(g25
g3
Ntp835
Rp836
(dp837
g29
V609
p838
sg31
VChandelure
p839
sg33
g34
sg35
V54
p840
sg37
(lp841
Vsmog
p842
aVpain-split
p843
aVflame-burst
p844
aVhex
p845
asg43
g44
sg45
Vflame-body
p846
sbasg59
I00
sg60
g556
sba.