(lp0
ccopy_reg
_reconstructor
p1
(c__main__
Trainer
p2
c__builtin__
object
p3
Ntp4
Rp5
(dp6
VtSprite
p7
VSpr RS Sailor.png
p8
sVtClass
p9
VSailor
p10
sVtName
p11
VHuey
p12
sVtMoney
p13
V448
p14
sVtPokeCount
p15
V1
p16
sVtLocation
p17
Vwiki/Hoenn_Route_109
p18
sVtRegion
p19
VHoenn
p20
sVtGame
p21
VRS
p22
sVtPokes
p23
(lp24
g1
(c__main__
FinishedPokemon
p25
g3
Ntp26
Rp27
(dp28
VpDexNo
p29
V066
p30
sVpSpecies
p31
VMachop
p32
sVpGender
p33
VM
p34
sVpLevel
p35
V14
p36
sVpMoves
p37
(lp38
Vdynamic-punch
p39
aVvital-throw
p40
aVcross-chop
p41
aVrevenge
p42
asVpHold
p43
V
p44
sVpAbility
p45
Vguts
p46
sbasVbossFlag
p47
I00
sVtLongGame
p48
Vruby-sapphire
p49
sbag1
(g2
g3
Ntp50
Rp51
(dp52
g7
VSpr RS Sailor.png
p53
sg9
VSailor
p54
sg11
VEdmond
p55
sg13
V384
p56
sg15
V3
p57
sg17
g18
sg19
g20
sg21
g22
sg23
(lp58
g1
(g25
g3
Ntp59
Rp60
(dp61
g29
V278
p62
sg31
VWingull
p63
sg33
g34
sg35
V12
p64
sg37
(lp65
Vwater-gun
p66
aVagility
p67
aVquick-attack
p68
aVpursuit
p69
asg43
g44
sg45
Vhydration
p70
sbag1
(g25
g3
Ntp71
Rp72
(dp73
g29
V066
p74
sg31
VMachop
p75
sg33
g34
sg35
V12
p76
sg37
(lp77
Vdynamic-punch
p78
aVvital-throw
p79
aVcross-chop
p80
aVrevenge
p81
asg43
g44
sg45
Vguts
p82
sbag1
(g25
g3
Ntp83
Rp84
(dp85
g29
V278
p86
sg31
VWingull
p87
sg33
g34
sg35
V12
p88
sg37
(lp89
Vwater-gun
p90
aVagility
p91
aVquick-attack
p92
aVpursuit
p93
asg43
g44
sg45
Vhydration
p94
sbasg47
I00
sg48
g49
sbag1
(g2
g3
Ntp95
Rp96
(dp97
g7
VSpr RS Tuber M.png
p98
sg9
VTuber
p99
sg11
VRicky
p100
sg13
V56
p101
sg15
g16
sg17
g18
sg19
g20
sg21
g22
sg23
(lp102
g1
(g25
g3
Ntp103
Rp104
(dp105
g29
V263
p106
sg31
VZigzagoon
p107
sg33
g34
sg35
V14
p108
sg37
(lp109
Vbelly-drum
p110
aVmud-sport
p111
aVodor-sleuth
p112
aVcovet
p113
asg43
g44
sg45
Vgluttony
p114
sbasg47
I00
sg48
g49
sbag1
(g2
g3
Ntp115
Rp116
(dp117
g7
VSpr RS Tuber F.png
p118
sg9
VTuber
p119
sg11
VLola
p120
sg13
V52
p121
sg15
V2
p122
sg17
g18
sg19
g20
sg21
g22
sg23
(lp123
g1
(g25
g3
Ntp124
Rp125
(dp126
g29
V298
p127
sg31
VAzurill
p128
sg33
VF
p129
sg35
V13
p130
sg37
(lp131
Vwater-gun
p132
aVbubble
p133
aVsplash
p134
aVcharm
p135
asg43
g44
sg45
Vhuge-power
p136
sbag1
(g25
g3
Ntp137
Rp138
(dp139
g29
V298
p140
sg31
VAzurill
p141
sg33
g129
sg35
V13
p142
sg37
(lp143
Vwater-gun
p144
aVbubble
p145
aVsplash
p146
aVcharm
p147
asg43
g44
sg45
Vhuge-power
p148
sbasg47
I00
sg48
g49
sbag1
(g2
g3
Ntp149
Rp150
(dp151
g7
VSpr RS Tuber M.png
p152
sg9
VTuber
p153
sg11
VSimon
p154
sg13
V48
p155
sg15
g122
sg17
g18
sg19
g20
sg21
g22
sg23
(lp156
g1
(g25
g3
Ntp157
Rp158
(dp159
g29
V298
p160
sg31
VAzurill
p161
sg33
g129
sg35
V12
p162
sg37
(lp163
Vwater-gun
p164
aVbubble
p165
aVsplash
p166
aVcharm
p167
asg43
g44
sg45
Vthick-fat
p168
sbag1
(g25
g3
Ntp169
Rp170
(dp171
g29
V183
p172
sg31
VMarill
p173
sg33
g34
sg35
V12
p174
sg37
(lp175
Vbubble-beam
p176
aVdefense-curl
p177
aVrollout
p178
aVrain-dance
p179
asg43
g44
sg45
Vthick-fat
p180
sbasg47
I00
sg48
g49
sbag1
(g2
g3
Ntp181
Rp182
(dp183
g7
VSpr RS Beauty.png
p184
sg9
VBeauty
p185
sg11
VJohanna
p186
sg13
V1040
p187
sg15
g16
sg17
g18
sg19
g20
sg21
g22
sg23
(lp188
g1
(g25
g3
Ntp189
Rp190
(dp191
g29
V118
p192
sg31
VGoldeen
p193
sg33
g129
sg35
V13
p194
sg37
(lp195
Vagility
p196
aVwaterfall
p197
aVflail
p198
aVwater-sport
p199
asg43
g44
sg45
Vswift-swim
p200
sbasg47
I00
sg48
g49
sbag1
(g2
g3
Ntp201
Rp202
(dp203
g7
VSpr RS Sailor.png
p204
sg9
VSailor
p205
sg11
VDwayne
p206
sg13
V352
p207
sg15
g57
sg17
g18
sg19
g20
sg21
g22
sg23
(lp208
g1
(g25
g3
Ntp209
Rp210
(dp211
g29
V278
p212
sg31
VWingull
p213
sg33
g34
sg35
V11
p214
sg37
(lp215
Vwater-gun
p216
aVagility
p217
aVquick-attack
p218
aVpursuit
p219
asg43
g44
sg45
Vhydration
p220
sbag1
(g25
g3
Ntp221
Rp222
(dp223
g29
V066
p224
sg31
VMachop
p225
sg33
g34
sg35
V11
p226
sg37
(lp227
Vdynamic-punch
p228
aVvital-throw
p229
aVcross-chop
p230
aVrevenge
p231
asg43
g44
sg45
Vno-guard
p232
sbag1
(g25
g3
Ntp233
Rp234
(dp235
g29
V072
p236
sg31
VTentacool
p237
sg33
g34
sg35
V11
p238
sg37
(lp239
Vbubble-beam
p240
aVscreech
p241
aVbarrier
p242
aVconstrict
p243
asg43
g44
sg45
Vliquid-ooze
p244
sbasg47
I00
sg48
g49
sbag1
(g2
g3
Ntp245
Rp246
(dp247
g7
VSpr RS Tuber F.png
p248
sg9
VTuber
p249
sg11
VGwen
p250
sg13
V108
p251
sg15
g16
sg17
g18
sg19
g20
sg21
g22
sg23
(lp252
g1
(g25
g3
Ntp253
Rp254
(dp255
g29
V183
p256
sg31
VMarill
p257
sg33
g129
sg35
V27
p258
sg37
(lp259
Vbubble-beam
p260
aVdefense-curl
p261
aVrollout
p262
aVrain-dance
p263
asg43
g44
sg45
Vthick-fat
p264
sbasg47
I00
sg48
g49
sbag1
(g2
g3
Ntp265
Rp266
(dp267
g7
VSpr RS Tuber F.png
p268
sg9
VTuber
p269
sg11
VCarmen
p270
sg13
V108
p271
sg15
g16
sg17
g18
sg19
g20
sg21
g22
sg23
(lp272
g1
(g25
g3
Ntp273
Rp274
(dp275
g29
V183
p276
sg31
VMarill
p277
sg33
g129
sg35
V27
p278
sg37
(lp279
Vbubble-beam
p280
aVdefense-curl
p281
aVrollout
p282
aVrain-dance
p283
asg43
g44
sg45
Vhuge-power
p284
sbasg47
I00
sg48
g49
sbag1
(g2
g3
Ntp285
Rp286
(dp287
g7
VSpr RS Swimmer F.png
p288
sg9
VSwimmer\u2640
p289
sg11
VAlice
p290
sg13
V192
p291
sg15
g57
sg17
g18
sg19
g20
sg21
g22
sg23
(lp292
g1
(g25
g3
Ntp293
Rp294
(dp295
g29
V118
p296
sg31
VGoldeen
p297
sg33
g34
sg35
V25
p298
sg37
(lp299
Vagility
p300
aVwaterfall
p301
aVflail
p302
aVwater-sport
p303
asg43
g44
sg45
Vswift-swim
p304
sbag1
(g25
g3
Ntp305
Rp306
(dp307
g29
V278
p308
sg31
VWingull
p309
sg33
g129
sg35
V25
p310
sg37
(lp311
Vwater-gun
p312
aVagility
p313
aVquick-attack
p314
aVpursuit
p315
asg43
g44
sg45
Vkeen-eye
p316
sbag1
(g25
g3
Ntp317
Rp318
(dp319
g29
V118
p320
sg31
VGoldeen
p321
sg33
g34
sg35
V25
p322
sg37
(lp323
Vagility
p324
aVwaterfall
p325
aVflail
p326
aVwater-sport
p327
asg43
g44
sg45
Vswift-swim
p328
sbasg47
I00
sg48
g49
sbag1
(g2
g3
Ntp329
Rp330
(dp331
g7
VSpr RS Swimmer M.png
p332
sg9
VSwimmer\u2642
p333
sg11
VDavid
p334
sg13
V208
p335
sg15
g122
sg17
g18
sg19
g20
sg21
g22
sg23
(lp336
g1
(g25
g3
Ntp337
Rp338
(dp339
g29
V278
p340
sg31
VWingull
p341
sg33
g34
sg35
V26
p342
sg37
(lp343
Vwater-gun
p344
aVagility
p345
aVquick-attack
p346
aVpursuit
p347
asg43
g44
sg45
Vhydration
p348
sbag1
(g25
g3
Ntp349
Rp350
(dp351
g29
V318
p352
sg31
VCarvanha
p353
sg33
g34
sg35
V26
p354
sg37
(lp355
Vfocus-energy
p356
aVscary-face
p357
aVswagger
p358
aVcrunch
p359
asg43
g44
sg45
Vrough-skin
p360
sbasg47
I00
sg48
g49
sbag1
(g2
g3
Ntp361
Rp362
(dp363
g7
VSpr RS Young Couple.png
p364
sg9
VYoung Couple
p365
sg11
VMel & Paul
p366
sg13
V1728
p367
sg15
g122
sg17
g18
sg19
g20
sg21
g22
sg23
(lp368
g1
(g25
g3
Ntp369
Rp370
(dp371
g29
V267
p372
sg31
VBeautifly
p373
sg33
g34
sg35
V27
p374
sg37
(lp375
Vgiga-drain
p376
aVattract
p377
aVmorning-sun
p378
aVsilver-wind
p379
asg43
g44
sg45
Vswarm
p380
sbag1
(g25
g3
Ntp381
Rp382
(dp383
g29
V269
p384
sg31
VDustox
p385
sg33
g34
sg35
V27
p386
sg37
(lp387
Vlight-screen
p388
aVprotect
p389
aVmoonlight
p390
aVsilver-wind
p391
asg43
g44
sg45
Vshield-dust
p392
sbasg47
I00
sg48
g49
sbag1
(g2
g3
Ntp393
Rp394
(dp395
g7
VSpr RS Fisherman.png
p396
sg9
VFisherman
p397
sg11
VCarter
p398
sg13
V900
p399
sg15
V4
p400
sg17
g18
sg19
g20
sg21
g22
sg23
(lp401
g1
(g25
g3
Ntp402
Rp403
(dp404
g29
V072
p405
sg31
VTentacool
p406
sg33
g34
sg35
V23
p407
sg37
(lp408
Vbubble-beam
p409
aVscreech
p410
aVbarrier
p411
aVconstrict
p412
asg43
g44
sg45
Vliquid-ooze
p413
sbag1
(g25
g3
Ntp414
Rp415
(dp416
g29
V072
p417
sg31
VTentacool
p418
sg33
g34
sg35
V24
p419
sg37
(lp420
Vbubble-beam
p421
aVscreech
p422
aVbarrier
p423
aVconstrict
p424
asg43
g44
sg45
Vliquid-ooze
p425
sbag1
(g25
g3
Ntp426
Rp427
(dp428
g29
V320
p429
sg31
VWailmer
p430
sg33
g34
sg35
V24
p431
sg37
(lp432
Vwhirlpool
p433
aVastonish
p434
aVwater-spout
p435
aVwater-pulse
p436
asg43
g44
sg45
Voblivious
p437
sbag1
(g25
g3
Ntp438
Rp439
(dp440
g29
V072
p441
sg31
VTentacool
p442
sg33
g34
sg35
V25
p443
sg37
(lp444
Vbubble-beam
p445
aVscreech
p446
aVbarrier
p447
aVconstrict
p448
asg43
g44
sg45
Vclear-body
p449
sbasg47
I00
sg48
g49
sbag1
(g2
g3
Ntp450
Rp451
(dp452
g7
VSpr RS Tuber M.png
p453
sg9
VTuber
p454
sg11
VRicky
p455
sg13
g1
(cmwparserfromhell.wikicode
Wikicode
p456
g3
Ntp457
Rp458
(dp459
V_nodes
p460
g1
(cmwparserfromhell.smart_list.smart_list
SmartList
p461
c__builtin__
list
p462
(lp463
g1
(cmwparserfromhell.nodes.text
Text
p464
g3
Ntp465
Rp466
(dp467
V_value
p468
V108
p469
sbatp470
Rp471
(dp472
V_children
p473
(dp474
sbsbsg15
g16
sg17
g18
sg19
g20
sg21
g22
sg23
(lp475
g1
(g25
g3
Ntp476
Rp477
(dp478
g29
V264
p479
sg31
VLinoone
p480
sg33
g34
sg35
V27
p481
sg37
(lp482
Vbelly-drum
p483
aVmud-sport
p484
aVodor-sleuth
p485
aVcovet
p486
asg43
g44
sg45
Vpickup
p487
sbasg47
I00
sg48
g49
sbag1
(g2
g3
Ntp488
Rp489
(dp490
g7
VSpr RS Tuber F.png
p491
sg9
VTuber
p492
sg11
VLola{{tt|*|First, second and third rematch}}
p493
sg13
g1
(g456
g3
Ntp494
Rp495
(dp496
g460
g1
(g461
g462
(lp497
g1
(g464
g3
Ntp498
Rp499
(dp500
g468
V104
p501
sbatp502
Rp503
(dp504
g473
(dp505
sbsbsg15
g122
sg17
g18
sg19
g20
sg21
g22
sg23
(lp506
g1
(g25
g3
Ntp507
Rp508
(dp509
g29
V183
p510
sg31
VMarill
p511
sg33
g129
sg35
V26
p512
sg37
(lp513
Vbubble-beam
p514
aVdefense-curl
p515
aVrollout
p516
aVrain-dance
p517
asg43
g44
sg45
Vhuge-power
p518
sbag1
(g25
g3
Ntp519
Rp520
(dp521
g29
V183
p522
sg31
VMarill
p523
sg33
g129
sg35
V26
p524
sg37
(lp525
Vbubble-beam
p526
aVdefense-curl
p527
aVrollout
p528
aVrain-dance
p529
asg43
g44
sg45
Vthick-fat
p530
sbasg47
I00
sg48
g49
sbag1
(g2
g3
Ntp531
Rp532
(dp533
g7
VSpr RS Tuber F.png
p534
sg9
VTuber
p535
sg11
VLola{{tt|*|Fourth rematch onwards}}
p536
sg13
V140
p537
sg15
g122
sg17
g18
sg19
g20
sg21
g22
sg23
(lp538
g1
(g25
g3
Ntp539
Rp540
(dp541
g29
V184
p542
sg31
VAzumarill
p543
sg33
g129
sg35
V35
p544
sg37
(lp545
Vdefense-curl
p546
ag546
aVrollout
p547
aVrain-dance
p548
asg43
g44
sg45
Vthick-fat
p549
sbag1
(g25
g3
Ntp550
Rp551
(dp552
g29
V184
p553
sg31
VAzumarill
p554
sg33
g129
sg35
V35
p555
sg37
(lp556
Vdefense-curl
p557
ag557
aVrollout
p558
aVrain-dance
p559
asg43
g44
sg45
Vthick-fat
p560
sbasg47
I00
sg48
g49
sbag1
(g2
g3
Ntp561
Rp562
(dp563
g7
VSpr RS Sailor.png
p564
sg9
VSailor
p565
sg11
VHuey
p566
sg13
V384
p567
sg15
g122
sg17
g18
sg19
g20
sg21
g22
sg23
(lp568
g1
(g25
g3
Ntp569
Rp570
(dp571
g29
V278
p572
sg31
VWingull
p573
sg33
g34
sg35
V12
p574
sg37
(lp575
Vwater-gun
p576
aVagility
p577
aVquick-attack
p578
aVpursuit
p579
asg43
g44
sg45
Vkeen-eye
p580
sbag1
(g25
g3
Ntp581
Rp582
(dp583
g29
V066
p584
sg31
VMachop
p585
sg33
g34
sg35
V12
p586
sg37
(lp587
Vdynamic-punch
p588
aVvital-throw
p589
aVcross-chop
p590
aVrevenge
p591
asg43
g44
sg45
Vno-guard
p592
sbasg47
I00
sg48
g49
sbag1
(g2
g3
Ntp593
Rp594
(dp595
g7
VSpr RS Sailor.png
p596
sg9
VSailor
p597
sg11
VEdmond
p598
sg13
V416<br><small>Potential [[Double Battle]] with Hailey or Ricky</small>
p599
sg15
g16
sg17
g18
sg19
g20
sg21
g22
sg23
(lp600
g1
(g25
g3
Ntp601
Rp602
(dp603
g29
V278
p604
sg31
VWingull
p605
sg33
g34
sg35
V13
p606
sg37
(lp607
Vwater-gun
p608
aVagility
p609
aVquick-attack
p610
aVpursuit
p611
asg43
g44
sg45
Vhydration
p612
sbasg47
I00
sg48
g49
sbag1
(g2
g3
Ntp613
Rp614
(dp615
g7
VSpr RS Tuber F.png
p616
sg9
VTuber
p617
sg11
VHailey
p618
sg13
V52<br><small>Potential [[Double Battle]] with Edmond or Ricky</small>
p619
sg15
g16
sg17
g18
sg19
g20
sg21
g22
sg23
(lp620
g1
(g25
g3
Ntp621
Rp622
(dp623
g29
V183
p624
sg31
VMarill
p625
sg33
g129
sg35
V13
p626
sg37
(lp627
Vbubble-beam
p628
aVdefense-curl
p629
aVrollout
p630
aVrain-dance
p631
asg43
g44
sg45
Vhuge-power
p632
sbasg47
I00
sg48
g49
sbag1
(g2
g3
Ntp633
Rp634
(dp635
g7
VSpr RS Tuber M.png
p636
sg9
VTuber
p637
sg11
VRicky
p638
sg13
V52<br><small>Potential [[Double Battle]] with Edmond or Hailey</small>
p639
sg15
g16
sg17
g18
sg19
g20
sg21
g22
sg23
(lp640
g1
(g25
g3
Ntp641
Rp642
(dp643
g29
V263
p644
sg31
VZigzagoon
p645
sg33
g34
sg35
V13
p646
sg37
(lp647
Vbelly-drum
p648
aVmud-sport
p649
aVodor-sleuth
p650
aVcovet
p651
asg43
g44
sg45
Vgluttony
p652
sbasg47
I00
sg48
g49
sbag1
(g2
g3
Ntp653
Rp654
(dp655
g7
VSpr RS Tuber F.png
p656
sg9
VTuber
p657
sg11
VLola
p658
sg13
V48<br><small>Potential [[Double Battle]] with Chandler</small>
p659
sg15
g122
sg17
g18
sg19
g20
sg21
g22
sg23
(lp660
g1
(g25
g3
Ntp661
Rp662
(dp663
g29
V298
p664
sg31
VAzurill
p665
sg33
g129
sg35
V12
p666
sg37
(lp667
Vwater-gun
p668
aVbubble
p669
aVsplash
p670
aVcharm
p671
asg43
g44
sg45
Vthick-fat
p672
sbag1
(g25
g3
Ntp673
Rp674
(dp675
g29
V298
p676
sg31
VAzurill
p677
sg33
g129
sg35
V12
p678
sg37
(lp679
Vwater-gun
p680
aVbubble
p681
aVsplash
p682
aVcharm
p683
asg43
g44
sg45
Vhuge-power
p684
sbasg47
I00
sg48
g49
sbag1
(g2
g3
Ntp685
Rp686
(dp687
g7
VSpr RS Tuber M.png
p688
sg9
VTuber
p689
sg11
VChandler
p690
sg13
V48<br><small>Potential [[Double Battle]] with Lola</small>
p691
sg15
g122
sg17
g18
sg19
g20
sg21
g22
sg23
(lp692
g1
(g25
g3
Ntp693
Rp694
(dp695
g29
V072
p696
sg31
VTentacool
p697
sg33
g34
sg35
V12
p698
sg37
(lp699
Vbubble-beam
p700
aVscreech
p701
aVbarrier
p702
aVconstrict
p703
asg43
g44
sg45
Vclear-body
p704
sbag1
(g25
g3
Ntp705
Rp706
(dp707
g29
V072
p708
sg31
VTentacool
p709
sg33
g34
sg35
V12
p710
sg37
(lp711
Vbubble-beam
p712
aVscreech
p713
aVbarrier
p714
aVconstrict
p715
asg43
g44
sg45
Vclear-body
p716
sbasg47
I00
sg48
g49
sbag1
(g2
g3
Ntp717
Rp718
(dp719
g7
VSpr RS Tuber M.png
p720
sg9
VTuber
p721
sg11
VSimon
p722
sg13
V48
p723
sg15
g122
sg17
g18
sg19
g20
sg21
g22
sg23
(lp724
g1
(g25
g3
Ntp725
Rp726
(dp727
g29
V298
p728
sg31
VAzurill
p729
sg33
g129
sg35
V12
p730
sg37
(lp731
Vwater-gun
p732
aVbubble
p733
aVsplash
p734
aVcharm
p735
asg43
g44
sg45
Vhuge-power
p736
sbag1
(g25
g3
Ntp737
Rp738
(dp739
g29
V183
p740
sg31
VMarill
p741
sg33
g34
sg35
V12
p742
sg37
(lp743
Vbubble-beam
p744
aVdefense-curl
p745
aVrollout
p746
aVrain-dance
p747
asg43
g44
sg45
Vthick-fat
p748
sbasg47
I00
sg48
g49
sbag1
(g2
g3
Ntp749
Rp750
(dp751
g7
VSpr RS Beauty.png
p752
sg9
VBeauty
p753
sg11
VJohanna
p754
sg13
V1040
p755
sg15
g16
sg17
g18
sg19
g20
sg21
g22
sg23
(lp756
g1
(g25
g3
Ntp757
Rp758
(dp759
g29
V118
p760
sg31
VGoldeen
p761
sg33
g129
sg35
V13
p762
sg37
(lp763
Vagility
p764
aVwaterfall
p765
aVflail
p766
aVwater-sport
p767
asg43
g44
sg45
Vwater-veil
p768
sbasg47
I00
sg48
g49
sbag1
(g2
g3
Ntp769
Rp770
(dp771
g7
VSpr RS Sailor.png
p772
sg9
VSailor
p773
sg11
VDwayne
p774
sg13
V352
p775
sg15
g57
sg17
g18
sg19
g20
sg21
g22
sg23
(lp776
g1
(g25
g3
Ntp777
Rp778
(dp779
g29
V278
p780
sg31
VWingull
p781
sg33
g34
sg35
V11
p782
sg37
(lp783
Vwater-gun
p784
aVagility
p785
aVquick-attack
p786
aVpursuit
p787
asg43
g44
sg45
Vkeen-eye
p788
sbag1
(g25
g3
Ntp789
Rp790
(dp791
g29
V066
p792
sg31
VMachop
p793
sg33
g34
sg35
V11
p794
sg37
(lp795
Vdynamic-punch
p796
aVvital-throw
p797
aVcross-chop
p798
aVrevenge
p799
asg43
g44
sg45
Vno-guard
p800
sbag1
(g25
g3
Ntp801
Rp802
(dp803
g29
V072
p804
sg31
VTentacool
p805
sg33
g34
sg35
V11
p806
sg37
(lp807
Vbubble-beam
p808
aVscreech
p809
aVbarrier
p810
aVconstrict
p811
asg43
g44
sg45
Vclear-body
p812
sbasg47
I00
sg48
g49
sbag1
(g2
g3
Ntp813
Rp814
(dp815
g7
VSpr RS Tuber F.png
p816
sg9
VTuber
p817
sg11
VAustina
p818
sg13
V104
p819
sg15
g16
sg17
g18
sg19
g20
sg21
g22
sg23
(lp820
g1
(g25
g3
Ntp821
Rp822
(dp823
g29
V183
p824
sg31
VMarill
p825
sg33
g129
sg35
V26
p826
sg37
(lp827
Vbubble-beam
p828
aVdefense-curl
p829
aVrollout
p830
aVrain-dance
p831
asg43
g44
sg45
Vhuge-power
p832
sbasg47
I00
sg48
g49
sbag1
(g2
g3
Ntp833
Rp834
(dp835
g7
VSpr RS Tuber F.png
p836
sg9
VTuber
p837
sg11
VGwen
p838
sg13
V104
p839
sg15
g16
sg17
g18
sg19
g20
sg21
g22
sg23
(lp840
g1
(g25
g3
Ntp841
Rp842
(dp843
g29
V183
p844
sg31
VMarill
p845
sg33
g129
sg35
V26
p846
sg37
(lp847
Vbubble-beam
p848
aVdefense-curl
p849
aVrollout
p850
aVrain-dance
p851
asg43
g44
sg45
Vthick-fat
p852
sbasg47
I00
sg48
g49
sbag1
(g2
g3
Ntp853
Rp854
(dp855
g7
VSpr RS Swimmer M.png
p856
sg9
VSwimmer\u2642
p857
sg11
VDavid
p858
sg13
V200
p859
sg15
g122
sg17
g18
sg19
g20
sg21
g22
sg23
(lp860
g1
(g25
g3
Ntp861
Rp862
(dp863
g29
V072
p864
sg31
VTentacool
p865
sg33
g34
sg35
V25
p866
sg37
(lp867
Vbubble-beam
p868
aVscreech
p869
aVbarrier
p870
aVconstrict
p871
asg43
g44
sg45
Vliquid-ooze
p872
sbag1
(g25
g3
Ntp873
Rp874
(dp875
g29
V318
p876
sg31
VCarvanha
p877
sg33
g34
sg35
V25
p878
sg37
(lp879
Vfocus-energy
p880
aVscary-face
p881
aVswagger
p882
aVcrunch
p883
asg43
g44
sg45
Vrough-skin
p884
sbasg47
I00
sg48
g49
sbag1
(g2
g3
Ntp885
Rp886
(dp887
g7
VSpr RS Swimmer F.png
p888
sg9
VSwimmer\u2640
p889
sg11
VAlice
p890
sg13
V192
p891
sg15
g57
sg17
g18
sg19
g20
sg21
g22
sg23
(lp892
g1
(g25
g3
Ntp893
Rp894
(dp895
g29
V118
p896
sg31
VGoldeen
p897
sg33
g129
sg35
V24
p898
sg37
(lp899
Vagility
p900
aVwaterfall
p901
aVflail
p902
aVwater-sport
p903
asg43
g44
sg45
Vwater-veil
p904
sbag1
(g25
g3
Ntp905
Rp906
(dp907
g29
V278
p908
sg31
VWingull
p909
sg33
g129
sg35
V24
p910
sg37
(lp911
Vwater-gun
p912
aVagility
p913
aVquick-attack
p914
aVpursuit
p915
asg43
g44
sg45
Vkeen-eye
p916
sbag1
(g25
g3
Ntp917
Rp918
(dp919
g29
V118
p920
sg31
VGoldeen
p921
sg33
g129
sg35
V24
p922
sg37
(lp923
Vagility
p924
aVwaterfall
p925
aVflail
p926
aVwater-sport
p927
asg43
g44
sg45
Vwater-veil
p928
sbasg47
I00
sg48
g49
sbag1
(g2
g3
Ntp929
Rp930
(dp931
g7
VSpr RS Fisherman.png
p932
sg9
VFisherman
p933
sg11
VCarter
p934
sg13
V1000<br><small>Potential [[Double Battle]] with Elijah</small>
p935
sg15
g122
sg17
g18
sg19
g20
sg21
g22
sg23
(lp936
g1
(g25
g3
Ntp937
Rp938
(dp939
g29
V320
p940
sg31
VWailmer
p941
sg33
g34
sg35
V25
p942
sg37
(lp943
Vwhirlpool
p944
aVastonish
p945
aVwater-spout
p946
aVwater-pulse
p947
asg43
g44
sg45
Vwater-veil
p948
sbag1
(g25
g3
Ntp949
Rp950
(dp951
g29
V073
p952
sg31
VTentacruel
p953
sg33
g34
sg35
V25
p954
sg37
(lp955
Vscreech
p956
aVbarrier
p957
aVconstrict
p958
ag958
asg43
g44
sg45
Vclear-body
p959
sbasg47
I00
sg48
g49
sbag1
(g2
g3
Ntp960
Rp961
(dp962
g7
VSpr RS Bird Keeper.png
p963
sg9
VBird Keeper
p964
sg11
VElijah
p965
sg13
V800<br><small>Potential [[Double Battle]] with Carter</small>
p966
sg15
g122
sg17
g18
sg19
g20
sg21
g22
sg23
(lp967
g1
(g25
g3
Ntp968
Rp969
(dp970
g29
V227
p971
sg31
VSkarmory
p972
sg33
g34
sg35
V25
p973
sg37
(lp974
Vspikes
p975
aVsteel-wing
p976
aVair-cutter
p977
aVmetal-sound
p978
asg43
g44
sg45
Vsturdy
p979
sbag1
(g25
g3
Ntp980
Rp981
(dp982
g29
V227
p983
sg31
VSkarmory
p984
sg33
g34
sg35
V25
p985
sg37
(lp986
Vspikes
p987
aVsteel-wing
p988
aVair-cutter
p989
aVmetal-sound
p990
asg43
g44
sg45
Vsturdy
p991
sbasg47
I00
sg48
g49
sbag1
(g2
g3
Ntp992
Rp993
(dp994
g7
VSpr RS Young Couple.png
p995
sg9
VYoung Couple
p996
sg11
VMel & Paul
p997
sg13
V1728
p998
sg15
g122
sg17
g18
sg19
g20
sg21
g22
sg23
(lp999
g1
(g25
g3
Ntp1000
Rp1001
(dp1002
g29
V269
p1003
sg31
VDustox
p1004
sg33
g34
sg35
V27
p1005
sg37
(lp1006
Vlight-screen
p1007
aVprotect
p1008
aVmoonlight
p1009
aVsilver-wind
p1010
asg43
g44
sg45
Vshield-dust
p1011
sbag1
(g25
g3
Ntp1012
Rp1013
(dp1014
g29
V267
p1015
sg31
VBeautifly
p1016
sg33
g34
sg35
V27
p1017
sg37
(lp1018
Vgiga-drain
p1019
aVattract
p1020
aVmorning-sun
p1021
aVsilver-wind
p1022
asg43
g44
sg45
Vswarm
p1023
sbasg47
I00
sg48
g49
sbag1
(g2
g3
Ntp1024
Rp1025
(dp1026
g7
VSpr RS Tuber M.png
p1027
sg9
VTuber
p1028
sg11
VRicky
p1029
sg13
g1
(g456
g3
Ntp1030
Rp1031
(dp1032
g460
g1
(g461
g462
(lp1033
g1
(g464
g3
Ntp1034
Rp1035
(dp1036
g468
V108
p1037
sbatp1038
Rp1039
(dp1040
g473
(dp1041
sbsbsg15
g16
sg17
g18
sg19
g20
sg21
g22
sg23
(lp1042
g1
(g25
g3
Ntp1043
Rp1044
(dp1045
g29
V264
p1046
sg31
VLinoone
p1047
sg33
g34
sg35
V27
p1048
sg37
(lp1049
Vbelly-drum
p1050
aVmud-sport
p1051
aVodor-sleuth
p1052
aVcovet
p1053
asg43
g44
sg45
Vpickup
p1054
sbasg47
I00
sg48
g49
sbag1
(g2
g3
Ntp1055
Rp1056
(dp1057
g7
VSpr RS Tuber F.png
p1058
sg9
VTuber
p1059
sg11
VLola{{tt|*|First, second and third rematch}}
p1060
sg13
g1
(g456
g3
Ntp1061
Rp1062
(dp1063
g460
g1
(g461
g462
(lp1064
g1
(g464
g3
Ntp1065
Rp1066
(dp1067
g468
V104
p1068
sbatp1069
Rp1070
(dp1071
g473
(dp1072
sbsbsg15
g122
sg17
g18
sg19
g20
sg21
g22
sg23
(lp1073
g1
(g25
g3
Ntp1074
Rp1075
(dp1076
g29
V183
p1077
sg31
VMarill
p1078
sg33
g129
sg35
V26
p1079
sg37
(lp1080
Vbubble-beam
p1081
aVdefense-curl
p1082
aVrollout
p1083
aVrain-dance
p1084
asg43
g44
sg45
Vhuge-power
p1085
sbag1
(g25
g3
Ntp1086
Rp1087
(dp1088
g29
V183
p1089
sg31
VMarill
p1090
sg33
g129
sg35
V26
p1091
sg37
(lp1092
Vbubble-beam
p1093
aVdefense-curl
p1094
aVrollout
p1095
aVrain-dance
p1096
asg43
g44
sg45
Vhuge-power
p1097
sbasg47
I00
sg48
g49
sbag1
(g2
g3
Ntp1098
Rp1099
(dp1100
g7
VSpr RS Tuber F.png
p1101
sg9
VTuber
p1102
sg11
VLola{{tt|*|Fourth rematch onwards}}
p1103
sg13
V140
p1104
sg15
g122
sg17
g18
sg19
g20
sg21
g22
sg23
(lp1105
g1
(g25
g3
Ntp1106
Rp1107
(dp1108
g29
V184
p1109
sg31
VAzumarill
p1110
sg33
g129
sg35
V35
p1111
sg37
(lp1112
Vdefense-curl
p1113
ag1113
aVrollout
p1114
aVrain-dance
p1115
asg43
g44
sg45
Vthick-fat
p1116
sbag1
(g25
g3
Ntp1117
Rp1118
(dp1119
g29
V184
p1120
sg31
VAzumarill
p1121
sg33
g129
sg35
V35
p1122
sg37
(lp1123
Vdefense-curl
p1124
ag1124
aVrollout
p1125
aVrain-dance
p1126
asg43
g44
sg45
Vthick-fat
p1127
sbasg47
I00
sg48
g49
sbag1
(g2
g3
Ntp1128
Rp1129
(dp1130
g7
VVSSailor.png
p1131
sg9
VSailor
p1132
sg11
VHuey
p1133
sg13
V600
p1134
sg15
g16
sg17
g18
sg19
g20
sg21
VSM
p1135
sg23
(lp1136
g1
(g25
g3
Ntp1137
Rp1138
(dp1139
g29
V066
p1140
sg31
VMachop
p1141
sg33
g34
sg35
V15
p1142
sg37
(lp1143
Vbulk-up
p1144
aVwake-up-slap
p1145
aVlow-sweep
p1146
aVdual-chop
p1147
asg43
g44
sg45
Vguts
p1148
sbasg47
I00
sg48
Vsun-moon
p1149
sbag1
(g2
g3
Ntp1150
Rp1151
(dp1152
g7
VVSSailor.png
p1153
sg9
VSailor
p1154
sg11
VEdmond
p1155
sg13
V560
p1156
sg15
g122
sg17
g18
sg19
g20
sg21
g1135
sg23
(lp1157
g1
(g25
g3
Ntp1158
Rp1159
(dp1160
g29
V278
p1161
sg31
VWingull
p1162
sg33
g34
sg35
V12
p1163
sg37
(lp1164
Vwater-pulse
p1165
aVroost
p1166
aVair-slash
p1167
aVhurricane
p1168
asg43
g44
sg45
Vkeen-eye
p1169
sbag1
(g25
g3
Ntp1170
Rp1171
(dp1172
g29
V066
p1173
sg31
VMachop
p1174
sg33
g34
sg35
V14
p1175
sg37
(lp1176
Vbulk-up
p1177
aVwake-up-slap
p1178
aVlow-sweep
p1179
aVdual-chop
p1180
asg43
g44
sg45
Vguts
p1181
sbasg47
I00
sg48
g1149
sbag1
(g2
g3
Ntp1182
Rp1183
(dp1184
g7
VVSTuber M.png
p1185
sg9
VTuber
p1186
sg11
VRicky
p1187
sg13
V56
p1188
sg15
g16
sg17
g18
sg19
g20
sg21
g1135
sg23
(lp1189
g1
(g25
g3
Ntp1190
Rp1191
(dp1192
g29
V263
p1193
sg31
VZigzagoon
p1194
sg33
g34
sg35
V14
p1195
sg37
(lp1196
Vcovet
p1197
aVfling
p1198
aVbestow
p1199
aVbaby-doll-eyes
p1200
asg43
g44
sg45
Vpickup
p1201
sbasg47
I00
sg48
g1149
sbag1
(g2
g3
Ntp1202
Rp1203
(dp1204
g7
VVSTuber F.png
p1205
sg9
VTuber
p1206
sg11
VLola
p1207
sg13
V56
p1208
sg15
g16
sg17
g18
sg19
g20
sg21
g1135
sg23
(lp1209
g1
(g25
g3
Ntp1210
Rp1211
(dp1212
g29
V298
p1213
sg31
VAzurill
p1214
sg33
g129
sg35
V14
p1215
sg37
(lp1216
Vcharm
p1217
aVhelping-hand
p1218
aVbounce
p1219
aVwater-sport
p1220
asg43
g44
sg45
Vthick-fat
p1221
sbasg47
I00
sg48
g1149
sbag1
(g2
g3
Ntp1222
Rp1223
(dp1224
g7
VVSTuber M.png
p1225
sg9
VTuber
p1226
sg11
VSimon
p1227
sg13
V56
p1228
sg15
g16
sg17
g18
sg19
g20
sg21
g1135
sg23
(lp1229
g1
(g25
g3
Ntp1230
Rp1231
(dp1232
g29
V298
p1233
sg31
VAzurill
p1234
sg33
g129
sg35
V14
p1235
sg37
(lp1236
Vcharm
p1237
aVhelping-hand
p1238
aVbounce
p1239
aVwater-sport
p1240
asg43
g44
sg45
Vthick-fat
p1241
sbasg47
I00
sg48
g1149
sbag1
(g2
g3
Ntp1242
Rp1243
(dp1244
g7
VVSDelinquent.png
p1245
sg9
VDelinquent
p1246
sg11
VDestinee
p1247
sg13
V480
p1248
sg15
g16
sg17
g18
sg19
g20
sg21
g1135
sg23
(lp1249
g1
(g25
g3
Ntp1250
Rp1251
(dp1252
g29
V302
p1253
sg31
VSableye
p1254
sg33
g129
sg35
V15
p1255
sg37
(lp1256
Vshadow-sneak
p1257
aVzen-headbutt
p1258
aVfoul-play
p1259
aVquash
p1260
asg43
g44
sg45
Vstall
p1261
sbasg47
I00
sg48
g1149
sbag1
(g2
g3
Ntp1262
Rp1263
(dp1264
g7
VVSStreet Thug.png
p1265
sg9
VStreet Thug
p1266
sg11
VBlair
p1267
sg13
V448
p1268
sg15
g122
sg17
g18
sg19
g20
sg21
g1135
sg23
(lp1269
g1
(g25
g3
Ntp1270
Rp1271
(dp1272
g29
V261
p1273
sg31
VPoochyena
p1274
sg33
g34
sg35
V12
p1275
sg37
(lp1276
Vassurance
p1277
aVembargo
p1278
aVsucker-punch
p1279
aVplay-rough
p1280
asg43
g44
sg45
Vrun-away
p1281
sbag1
(g25
g3
Ntp1282
Rp1283
(dp1284
g29
V318
p1285
sg31
VCarvanha
p1286
sg33
g34
sg35
V14
p1287
sg37
(lp1288
Vpoison-fang
p1289
aVassurance
p1290
aVice-fang
p1291
aVaqua-jet
p1292
asg43
g44
sg45
Vrough-skin
p1293
sbasg47
I00
sg48
g1149
sbag1
(g2
g3
Ntp1294
Rp1295
(dp1296
g7
VVSBeauty ORAS.png
p1297
sg9
VBeauty
p1298
sg11
VJohanna
p1299
sg13
V840
p1300
sg15
g16
sg17
g18
sg19
g20
sg21
g1135
sg23
(lp1301
g1
(g25
g3
Ntp1302
Rp1303
(dp1304
g29
V118
p1305
sg31
VGoldeen
p1306
sg33
g129
sg35
V15
p1307
sg37
(lp1308
Vwater-sport
p1309
aVwater-pulse
p1310
aVaqua-ring
p1311
aVsoak
p1312
asg43
g44
sg45
Vwater-veil
p1313
sbasg47
I00
sg48
g1149
sbag1
(g2
g3
Ntp1314
Rp1315
(dp1316
g7
VVSSailor.png
p1317
sg9
VSailor
p1318
sg11
VDwayne
p1319
sg13
V520
p1320
sg15
g122
sg17
g18
sg19
g20
sg21
g1135
sg23
(lp1321
g1
(g25
g3
Ntp1322
Rp1323
(dp1324
g29
V072
p1325
sg31
VTentacool
p1326
sg33
g34
sg35
V13
p1327
sg37
(lp1328
Vpoison-jab
p1329
aVsludge-wave
p1330
aVacid-spray
p1331
aVhex
p1332
asg43
g44
sg45
Vclear-body
p1333
sbag1
(g25
g3
Ntp1334
Rp1335
(dp1336
g29
V066
p1337
sg31
VMachop
p1338
sg33
g34
sg35
V13
p1339
sg37
(lp1340
Vbulk-up
p1341
aVwake-up-slap
p1342
aVlow-sweep
p1343
aVdual-chop
p1344
asg43
g44
sg45
Vno-guard
p1345
sbasg47
I00
sg48
g1149
sbag1
(g2
g3
Ntp1346
Rp1347
(dp1348
g7
VVSTuber F.png
p1349
sg9
VTuber
p1350
sg11
VGwen
p1351
sg13
V104
p1352
sg15
g16
sg17
g18
sg19
g20
sg21
g1135
sg23
(lp1353
g1
(g25
g3
Ntp1354
Rp1355
(dp1356
g29
V184
p1357
sg31
VAzumarill
p1358
sg33
g129
sg35
V26
p1359
sg37
(lp1360
Vwater-sport
p1361
aVaqua-ring
p1362
aVaqua-tail
p1363
aVplay-rough
p1364
asg43
g44
sg45
Vthick-fat
p1365
sbasg47
I00
sg48
g1149
sbag1
(g2
g3
Ntp1366
Rp1367
(dp1368
g7
VVSTuber F.png
p1369
sg9
VTuber
p1370
sg11
VCarmen
p1371
sg13
V104
p1372
sg15
g16
sg17
g18
sg19
g20
sg21
g1135
sg23
(lp1373
g1
(g25
g3
Ntp1374
Rp1375
(dp1376
g29
V184
p1377
sg31
VAzumarill
p1378
sg33
g129
sg35
V26
p1379
sg37
(lp1380
Vwater-sport
p1381
aVaqua-ring
p1382
aVaqua-tail
p1383
aVplay-rough
p1384
asg43
g44
sg45
Vhuge-power
p1385
sbasg47
I00
sg48
g1149
sbag1
(g2
g3
Ntp1386
Rp1387
(dp1388
g7
VVSAce Trainer F ORAS.png
p1389
sg9
VAce Trainer
p1390
sg11
VPortia
p1391
sg13
V1,680
p1392
sg15
g122
sg17
g18
sg19
g20
sg21
g1135
sg23
(lp1393
g1
(g25
g3
Ntp1394
Rp1395
(dp1396
g29
V352
p1397
sg31
VKecleon
p1398
sg33
g129
sg35
V26
p1399
sg37
(lp1400
Vsucker-punch
p1401
aVshadow-claw
p1402
aVshadow-sneak
p1403
aVsynchronoise
p1404
asg43
g44
sg45
Vcolor-change
p1405
sbag1
(g25
g3
Ntp1406
Rp1407
(dp1408
g29
V219
p1409
sg31
VMagcargo
p1410
sg33
g129
sg35
V28
p1411
sg37
(lp1412
Vflame-burst
p1413
aVclear-smog
p1414
aVshell-smash
p1415
aVincinerate
p1416
asg43
g44
sg45
Vmagma-armor
p1417
sbasg47
I00
sg48
g1149
sbag1
(g2
g3
Ntp1418
Rp1419
(dp1420
g7
VVSSwimmer F ORAS.png
p1421
sg9
VSwimmer \u2640
p1422
sg11
VAlice
p1423
sg13
V400
p1424
sg15
g122
sg17
g18
sg19
g20
sg21
VSM
p1425
sg23
(lp1426
g1
(g25
g3
Ntp1427
Rp1428
(dp1429
g29
V118
p1430
sg31
VGoldeen
p1431
sg33
g129
sg35
V25
p1432
sg37
(lp1433
Vwater-sport
p1434
aVwater-pulse
p1435
aVaqua-ring
p1436
aVsoak
p1437
asg43
g44
sg45
Vswift-swim
p1438
sbag1
(g25
g3
Ntp1439
Rp1440
(dp1441
g29
V320
p1442
sg31
VWailmer
p1443
sg33
g129
sg35
V25
p1444
sg37
(lp1445
Vbounce
p1446
aVwater-pulse
p1447
aVbrine
p1448
aVheavy-slam
p1449
asg43
g44
sg45
Vwater-veil
p1450
sbasg47
I00
sg48
g1149
sbag1
(g2
g3
Ntp1451
Rp1452
(dp1453
g7
VVSSwimmer M VI.png
p1454
sg9
VSwimmer \u2642
p1455
sg11
VDavid
p1456
sg13
V416
p1457
sg15
g122
sg17
g18
sg19
g20
sg21
VSM
p1458
sg23
(lp1459
g1
(g25
g3
Ntp1460
Rp1461
(dp1462
g29
V341
p1463
sg31
VCorphish
p1464
sg33
g34
sg35
V26
p1465
sg37
(lp1466
Vknock-off
p1467
aVnight-slash
p1468
aVdouble-hit
p1469
aVrazor-shell
p1470
asg43
g44
sg45
Vshell-armor
p1471
sbag1
(g25
g3
Ntp1472
Rp1473
(dp1474
g29
V318
p1475
sg31
VCarvanha
p1476
sg33
g34
sg35
V26
p1477
sg37
(lp1478
Vpoison-fang
p1479
aVassurance
p1480
aVice-fang
p1481
aVaqua-jet
p1482
asg43
g44
sg45
Vrough-skin
p1483
sbasg47
I00
sg48
g1149
sbag1
(g2
g3
Ntp1484
Rp1485
(dp1486
g7
VVSYoung Couple.png
p1487
sg9
VYoung Couple
p1488
sg11
VMel & Paul
p1489
sg13
V1,728
p1490
sg15
g122
sg17
g18
sg19
g20
sg21
g1135
sg23
(lp1491
g1
(g25
g3
Ntp1492
Rp1493
(dp1494
g29
V267
p1495
sg31
VBeautifly
p1496
sg33
g34
sg35
V27
p1497
sg37
(lp1498
Vair-cutter
p1499
aVsilver-wind
p1500
aVbug-buzz
p1501
aVquiver-dance
p1502
asg43
g44
sg45
Vswarm
p1503
sbag1
(g25
g3
Ntp1504
Rp1505
(dp1506
g29
V269
p1507
sg31
VDustox
p1508
sg33
g34
sg35
V27
p1509
sg37
(lp1510
Vsilver-wind
p1511
aVbug-buzz
p1512
aVvenoshock
p1513
aVquiver-dance
p1514
asg43
g44
sg45
Vshield-dust
p1515
sbasg47
I00
sg48
g1149
sbag1
(g2
g3
Ntp1516
Rp1517
(dp1518
g7
VVSFisherman ORAS.png
p1519
sg9
VFisherman
p1520
sg11
VCarter
p1521
sg13
V864
p1522
sg15
g16
sg17
g18
sg19
g20
sg21
VSM
p1523
sg23
(lp1524
g1
(g25
g3
Ntp1525
Rp1526
(dp1527
g29
V072
p1528
sg31
VTentacool
p1529
sg33
g34
sg35
V27
p1530
sg37
(lp1531
Vpoison-jab
p1532
aVsludge-wave
p1533
aVacid-spray
p1534
aVhex
p1535
asg43
g44
sg45
Vliquid-ooze
p1536
sbasg47
I00
sg48
g1149
sbag1
(g2
g3
Ntp1537
Rp1538
(dp1539
g7
VVSTuber M.png
p1540
sg9
VTuber
p1541
sg11
VRicky
p1542
sg13
V104<br><small>After earning the {{badge|Heat}}</small>
p1543
sg15
g16
sg17
g18
sg19
g20
sg21
g1135
sg23
(lp1544
g1
(g25
g3
Ntp1545
Rp1546
(dp1547
g29
V264
p1548
sg31
VLinoone
p1549
sg33
g34
sg35
V26
p1550
sg37
(lp1551
Vswitcheroo
p1552
aVbestow
p1553
aVrototiller
p1554
aVplay-rough
p1555
asg43
g44
sg45
Vpickup
p1556
sbasg47
I00
sg48
g1149
sbag1
(g2
g3
Ntp1557
Rp1558
(dp1559
g7
VVSTuber M.png
p1560
sg9
VTuber
p1561
sg11
VRicky
p1562
sg13
V132<br><small>After earning the {{badge|Feather}}</small>
p1563
sg15
g16
sg17
g18
sg19
g20
sg21
g1135
sg23
(lp1564
g1
(g25
g3
Ntp1565
Rp1566
(dp1567
g29
V264
p1568
sg31
VLinoone
p1569
sg33
g34
sg35
V33
p1570
sg37
(lp1571
Vswitcheroo
p1572
aVbestow
p1573
aVrototiller
p1574
aVplay-rough
p1575
asg43
g44
sg45
Vpickup
p1576
sbasg47
I00
sg48
g1149
sbag1
(g2
g3
Ntp1577
Rp1578
(dp1579
g7
VVSTuber M.png
p1580
sg9
VTuber
p1581
sg11
VRicky
p1582
sg13
V160<br><small>After earning the {{badge|Mind}}</small>
p1583
sg15
g16
sg17
g18
sg19
g20
sg21
g1135
sg23
(lp1584
g1
(g25
g3
Ntp1585
Rp1586
(dp1587
g29
V264
p1588
sg31
VLinoone
p1589
sg33
g34
sg35
V40
p1590
sg37
(lp1591
Vswitcheroo
p1592
aVbestow
p1593
aVrototiller
p1594
aVplay-rough
p1595
asg43
g44
sg45
Vgluttony
p1596
sbasg47
I00
sg48
g1149
sbag1
(g2
g3
Ntp1597
Rp1598
(dp1599
g7
VVSTuber M.png
p1600
sg9
VTuber
p1601
sg11
VRicky
p1602
sg13
V200<br><small>After earning the [[Hall of Fame]]</small>
p1603
sg15
g16
sg17
g18
sg19
g20
sg21
g1135
sg23
(lp1604
g1
(g25
g3
Ntp1605
Rp1606
(dp1607
g29
V264
p1608
sg31
VLinoone
p1609
sg33
g34
sg35
V50
p1610
sg37
(lp1611
Vswitcheroo
p1612
aVbestow
p1613
aVrototiller
p1614
aVplay-rough
p1615
asg43
g44
sg45
Vpickup
p1616
sbasg47
I00
sg48
g1149
sbag1
(g2
g3
Ntp1617
Rp1618
(dp1619
g7
VVSTuber F.png
p1620
sg9
VTuber
p1621
sg11
VLola
p1622
sg13
V104<br><small>After earning the {{badge|Heat}}</small>
p1623
sg15
g16
sg17
g18
sg19
g20
sg21
g1135
sg23
(lp1624
g1
(g25
g3
Ntp1625
Rp1626
(dp1627
g29
V183
p1628
sg31
VMarill
p1629
sg33
g129
sg35
V26
p1630
sg37
(lp1631
Vwater-sport
p1632
aVaqua-ring
p1633
aVaqua-tail
p1634
aVplay-rough
p1635
asg43
g44
sg45
Vthick-fat
p1636
sbasg47
I00
sg48
g1149
sbag1
(g2
g3
Ntp1637
Rp1638
(dp1639
g7
VVSTuber F.png
p1640
sg9
VTuber
p1641
sg11
VLola
p1642
sg13
V132<br><small>After earning the {{badge|Feather}}</small>
p1643
sg15
g16
sg17
g18
sg19
g20
sg21
g1135
sg23
(lp1644
g1
(g25
g3
Ntp1645
Rp1646
(dp1647
g29
V183
p1648
sg31
VMarill
p1649
sg33
g129
sg35
V33
p1650
sg37
(lp1651
Vwater-sport
p1652
aVaqua-ring
p1653
aVaqua-tail
p1654
aVplay-rough
p1655
asg43
g44
sg45
Vthick-fat
p1656
sbasg47
I00
sg48
g1149
sbag1
(g2
g3
Ntp1657
Rp1658
(dp1659
g7
VVSTuber F.png
p1660
sg9
VTuber
p1661
sg11
VLola
p1662
sg13
V160<br><small>After earning the {{badge|Mind}}</small>
p1663
sg15
g16
sg17
g18
sg19
g20
sg21
g1135
sg23
(lp1664
g1
(g25
g3
Ntp1665
Rp1666
(dp1667
g29
V183
p1668
sg31
VMarill
p1669
sg33
g129
sg35
V40
p1670
sg37
(lp1671
Vwater-sport
p1672
aVaqua-ring
p1673
aVaqua-tail
p1674
aVplay-rough
p1675
asg43
g44
sg45
Vthick-fat
p1676
sbasg47
I00
sg48
g1149
sbag1
(g2
g3
Ntp1677
Rp1678
(dp1679
g7
VVSTuber F.png
p1680
sg9
VTuber
p1681
sg11
VLola
p1682
sg13
V200<br><small>After entering the [[Hall of Fame]]</small>
p1683
sg15
g16
sg17
g18
sg19
g20
sg21
g1135
sg23
(lp1684
g1
(g25
g3
Ntp1685
Rp1686
(dp1687
g29
V184
p1688
sg31
VAzumarill
p1689
sg33
g129
sg35
V50
p1690
sg37
(lp1691
Vwater-sport
p1692
aVaqua-ring
p1693
aVaqua-tail
p1694
aVplay-rough
p1695
asg43
g44
sg45
Vhuge-power
p1696
sbasg47
I00
sg48
g1149
sbag1
(g2
g3
Ntp1697
Rp1698
(dp1699
g7
VVSAce Trainer F ORAS.png
p1700
sg9
VAce Trainer
p1701
sg11
VPortia
p1702
sg13
V2,100<br><small>After earning the {{badge|Feather}}</small>
p1703
sg15
g122
sg17
g18
sg19
g20
sg21
g1135
sg23
(lp1704
g1
(g25
g3
Ntp1705
Rp1706
(dp1707
g29
V352
p1708
sg31
VKecleon
p1709
sg33
g129
sg35
V33
p1710
sg37
(lp1711
Vsucker-punch
p1712
aVshadow-claw
p1713
aVshadow-sneak
p1714
aVsynchronoise
p1715
asg43
g44
sg45
Vcolor-change
p1716
sbag1
(g25
g3
Ntp1717
Rp1718
(dp1719
g29
V219
p1720
sg31
VMagcargo
p1721
sg33
g129
sg35
V35
p1722
sg37
(lp1723
Vflame-burst
p1724
aVclear-smog
p1725
aVshell-smash
p1726
aVincinerate
p1727
asg43
g44
sg45
Vmagma-armor
p1728
sbasg47
I00
sg48
g1149
sbag1
(g2
g3
Ntp1729
Rp1730
(dp1731
g7
VVSAce Trainer F ORAS.png
p1732
sg9
VAce Trainer
p1733
sg11
VPortia
p1734
sg13
V2,520<br><small>After earning the {{badge|Mind}}</small>
p1735
sg15
g122
sg17
g18
sg19
g20
sg21
g1135
sg23
(lp1736
g1
(g25
g3
Ntp1737
Rp1738
(dp1739
g29
V352
p1740
sg31
VKecleon
p1741
sg33
g129
sg35
V40
p1742
sg37
(lp1743
Vsucker-punch
p1744
aVshadow-claw
p1745
aVshadow-sneak
p1746
aVsynchronoise
p1747
asg43
g44
sg45
Vcolor-change
p1748
sbag1
(g25
g3
Ntp1749
Rp1750
(dp1751
g29
V219
p1752
sg31
VMagcargo
p1753
sg33
g129
sg35
V42
p1754
sg37
(lp1755
Vflame-burst
p1756
aVclear-smog
p1757
aVshell-smash
p1758
aVincinerate
p1759
asg43
g44
sg45
Vmagma-armor
p1760
sbasg47
I00
sg48
g1149
sbag1
(g2
g3
Ntp1761
Rp1762
(dp1763
g7
VVSAce Trainer F ORAS.png
p1764
sg9
VAce Trainer
p1765
sg11
VPortia
p1766
sg13
V2,640<br><small>After earning the {{badge|Rain}}</small>
p1767
sg15
g57
sg17
g18
sg19
g20
sg21
g1135
sg23
(lp1768
g1
(g25
g3
Ntp1769
Rp1770
(dp1771
g29
V352
p1772
sg31
VKecleon
p1773
sg33
g129
sg35
V44
p1774
sg37
(lp1775
Vsucker-punch
p1776
aVshadow-claw
p1777
aVshadow-sneak
p1778
aVsynchronoise
p1779
asg43
g44
sg45
Vcolor-change
p1780
sbag1
(g25
g3
Ntp1781
Rp1782
(dp1783
g29
V583
p1784
sg31
VVanillish
p1785
sg33
g129
sg35
V46
p1786
sg37
(lp1787
Vsheer-cold
p1788
aVicicle-spear
p1789
aVavalanche
p1790
aVmirror-shot
p1791
asg43
g44
sg45
Vice-body
p1792
sbag1
(g25
g3
Ntp1793
Rp1794
(dp1795
g29
V219
p1796
sg31
VMagcargo
p1797
sg33
g129
sg35
V44
p1798
sg37
(lp1799
Vflame-burst
p1800
aVclear-smog
p1801
aVshell-smash
p1802
aVincinerate
p1803
asg43
g44
sg45
Vmagma-armor
p1804
sbasg47
I00
sg48
g1149
sbag1
(g2
g3
Ntp1805
Rp1806
(dp1807
g7
VVSAce Trainer F ORAS.png
p1808
sg9
VAce Trainer
p1809
sg11
VPortia
p1810
sg13
V3,240<br><small>After entering the [[Hall of Fame]]</small>
p1811
sg15
g57
sg17
g18
sg19
g20
sg21
g1135
sg23
(lp1812
g1
(g25
g3
Ntp1813
Rp1814
(dp1815
g29
V352
p1816
sg31
VKecleon
p1817
sg33
g129
sg35
V52
p1818
sg37
(lp1819
Vsucker-punch
p1820
aVshadow-claw
p1821
aVshadow-sneak
p1822
aVsynchronoise
p1823
asg43
g44
sg45
Vcolor-change
p1824
sbag1
(g25
g3
Ntp1825
Rp1826
(dp1827
g29
V219
p1828
sg31
VMagcargo
p1829
sg33
g129
sg35
V53
p1830
sg37
(lp1831
Vflame-burst
p1832
aVclear-smog
p1833
aVshell-smash
p1834
aVincinerate
p1835
asg43
g44
sg45
Vmagma-armor
p1836
sbag1
(g25
g3
Ntp1837
Rp1838
(dp1839
g29
V584
p1840
sg31
VVanilluxe
p1841
sg33
g129
sg35
V54
p1842
sg37
(lp1843
Vicicle-spear
p1844
aVavalanche
p1845
aVmirror-shot
p1846
aVfreeze-dry
p1847
asg43
g44
sg45
Vice-body
p1848
sbasg47
I00
sg48
g1149
sba.