(lp0
ccopy_reg
_reconstructor
p1
(c__main__
Trainer
p2
c__builtin__
object
p3
Ntp4
Rp5
(dp6
VtSprite
p7
VSpr RS Swimmer F.png
p8
sVtClass
p9
VSwimmer
p10
sVtName
p11
VKara
p12
sVtMoney
p13
V280
p14
sVtPokeCount
p15
V1
p16
sVtLocation
p17
Vwiki/Hoenn_Route_131
p18
sVtRegion
p19
VHoenn
p20
sVtGame
p21
VRS
p22
sVtPokes
p23
(lp24
g1
(c__main__
FinishedPokemon
p25
g3
Ntp26
Rp27
(dp28
VpDexNo
p29
V119
p30
sVpSpecies
p31
VSeaking
p32
sVpGender
p33
VF
p34
sVpLevel
p35
V35
p36
sVpMoves
p37
(lp38
Vagility
p39
aVwaterfall
p40
aVflail
p41
aVwater-sport
p42
asVpHold
p43
V
p44
sVpAbility
p45
Vswift-swim
p46
sbasVbossFlag
p47
I00
sVtLongGame
p48
Vruby-sapphire
p49
sbag1
(g2
g3
Ntp50
Rp51
(dp52
g7
VSpr RS Swimmer M.png
p53
sg9
VSwimmer
p54
sg11
VHerman
p55
sg13
V272
p56
sg15
V2
p57
sg17
g18
sg19
g20
sg21
g22
sg23
(lp58
g1
(g25
g3
Ntp59
Rp60
(dp61
g29
V320
p62
sg31
VWailmer
p63
sg33
VM
p64
sg35
V34
p65
sg37
(lp66
Vwhirlpool
p67
aVastonish
p68
aVwater-spout
p69
aVwater-pulse
p70
asg43
g44
sg45
Vwater-veil
p71
sbag1
(g25
g3
Ntp72
Rp73
(dp74
g29
V073
p75
sg31
VTentacruel
p76
sg33
g64
sg35
V34
p77
sg37
(lp78
Vscreech
p79
aVbarrier
p80
aVconstrict
p81
ag81
asg43
g44
sg45
Vliquid-ooze
p82
sbasg47
I00
sg48
g49
sbag1
(g2
g3
Ntp83
Rp84
(dp85
g7
VSpr RS Swimmer F.png
p86
sg9
VSwimmer
p87
sg11
VSusie
p88
sg13
V264
p89
sg15
V3
p90
sg17
g18
sg19
g20
sg21
g22
sg23
(lp91
g1
(g25
g3
Ntp92
Rp93
(dp94
g29
V116
p95
sg31
VHorsea
p96
sg33
g34
sg35
V33
p97
sg37
(lp98
Vsmokescreen
p99
aVbubble
p100
aVtwister
p101
aVdragon-dance
p102
asg43
g44
sg45
Vsniper
p103
sbag1
(g25
g3
Ntp104
Rp105
(dp106
g29
V320
p107
sg31
VWailmer
p108
sg33
g34
sg35
V33
p109
sg37
(lp110
Vwhirlpool
p111
aVastonish
p112
aVwater-spout
p113
aVwater-pulse
p114
asg43
g44
sg45
Vwater-veil
p115
sbag1
(g25
g3
Ntp116
Rp117
(dp118
g29
V279
p119
sg31
VPelipper
p120
sg33
g34
sg35
V33
p121
sg37
(lp122
Vstockpile
p123
aVspit-up
p124
aVswallow
p125
aVwater-sport
p126
asg43
g44
sg45
Vdrizzle
p127
sbasg47
I00
sg48
g49
sbag1
(g2
g3
Ntp128
Rp129
(dp130
g7
VSpr RS Swimmer M.png
p131
sg9
VSwimmer
p132
sg11
VRichard
p133
sg13
V280
p134
sg15
g16
sg17
g18
sg19
g20
sg21
g22
sg23
(lp135
g1
(g25
g3
Ntp136
Rp137
(dp138
g29
V279
p139
sg31
VPelipper
p140
sg33
g64
sg35
V35
p141
sg37
(lp142
Vstockpile
p143
aVspit-up
p144
aVswallow
p145
aVwater-sport
p146
asg43
g44
sg45
Vkeen-eye
p147
sbasg47
I00
sg48
g49
sbag1
(g2
g3
Ntp148
Rp149
(dp150
g7
VSpr RS Sis and Bro.png
p151
sg9
VSis and Bro
p152
sg11
VReli & Ian
p153
sg13
V816
p154
sg15
g57
sg17
g18
sg19
g20
sg21
g22
sg23
(lp155
g1
(g25
g3
Ntp156
Rp157
(dp158
g29
V184
p159
sg31
VAzumarill
p160
sg33
g34
sg35
V36
p161
sg37
(lp162
Vdefense-curl
p163
ag163
aVrollout
p164
aVrain-dance
p165
asg43
g44
sg45
Vhuge-power
p166
sbag1
(g25
g3
Ntp167
Rp168
(dp169
g29
V278
p170
sg31
VWingull
p171
sg33
g64
sg35
V34
p172
sg37
(lp173
Vwater-gun
p174
aVagility
p175
aVquick-attack
p176
aVpursuit
p177
asg43
g44
sg45
Vhydration
p178
sbasg47
I00
sg48
g49
sbag1
(g2
g3
Ntp179
Rp180
(dp181
g7
VSpr RS Swimmer M.png
p182
sg9
VSwimmer
p183
sg11
VKevin
p184
sg13
V272<br><small>Potential [[Double Battle]] with Taila</small>
p185
sg15
g16
sg17
g18
sg19
g20
sg21
g22
sg23
(lp186
g1
(g25
g3
Ntp187
Rp188
(dp189
g29
V363
p190
sg31
VSpheal
p191
sg33
g64
sg35
V34
p192
sg37
(lp193
Vencore
p194
aVhail
p195
aVice-ball
p196
aVsheer-cold
p197
asg43
g44
sg45
Vthick-fat
p198
sbasg47
I00
sg48
g49
sbag1
(g2
g3
Ntp199
Rp200
(dp201
g7
VSpr RS Triathlete Swimmer F.png
p202
sg9
VTriathlete
p203
sg11
VTaila
p204
sg13
V1360<br><small>Potential [[Double Battle]] with Kevin</small>
p205
sg15
g16
sg17
g18
sg19
g20
sg21
g22
sg23
(lp206
g1
(g25
g3
Ntp207
Rp208
(dp209
g29
V120
p210
sg31
VStaryu
p211
sg33
VU
p212
sg35
V34
p213
sg37
(lp214
Vswift
p215
aVrapid-spin
p216
aVcamouflage
p217
aVcosmic-power
p218
asg43
g44
sg45
Villuminate
p219
sbasg47
I00
sg48
g49
sbag1
(g2
g3
Ntp220
Rp221
(dp222
g7
VSpr RS Swimmer M.png
p223
sg9
VSwimmer
p224
sg11
VRichard
p225
sg13
V272
p226
sg15
g16
sg17
g18
sg19
g20
sg21
g22
sg23
(lp227
g1
(g25
g3
Ntp228
Rp229
(dp230
g29
V279
p231
sg31
VPelipper
p232
sg33
g64
sg35
V34
p233
sg37
(lp234
Vstockpile
p235
aVspit-up
p236
aVswallow
p237
aVwater-sport
p238
asg43
g44
sg45
Vkeen-eye
p239
sbasg47
I00
sg48
g49
sbag1
(g2
g3
Ntp240
Rp241
(dp242
g7
VSpr RS Swimmer F.png
p243
sg9
VSwimmer
p244
sg11
VKara
p245
sg13
V272
p246
sg15
g16
sg17
g18
sg19
g20
sg21
g22
sg23
(lp247
g1
(g25
g3
Ntp248
Rp249
(dp250
g29
V119
p251
sg31
VSeaking
p252
sg33
g34
sg35
V34
p253
sg37
(lp254
Vagility
p255
aVwaterfall
p256
aVflail
p257
aVwater-sport
p258
asg43
g44
sg45
Vwater-veil
p259
sbasg47
I00
sg48
g49
sbag1
(g2
g3
Ntp260
Rp261
(dp262
g7
VSpr RS Swimmer M.png
p263
sg9
VSwimmer
p264
sg11
VHerman
p265
sg13
V264
p266
sg15
g57
sg17
g18
sg19
g20
sg21
g22
sg23
(lp267
g1
(g25
g3
Ntp268
Rp269
(dp270
g29
V278
p271
sg31
VWingull
p272
sg33
g64
sg35
V33
p273
sg37
(lp274
Vwater-gun
p275
aVagility
p276
aVquick-attack
p277
aVpursuit
p278
asg43
g44
sg45
Vkeen-eye
p279
sbag1
(g25
g3
Ntp280
Rp281
(dp282
g29
V073
p283
sg31
VTentacruel
p284
sg33
g64
sg35
V33
p285
sg37
(lp286
Vscreech
p287
aVbarrier
p288
aVconstrict
p289
ag289
asg43
g44
sg45
Vliquid-ooze
p290
sbasg47
I00
sg48
g49
sbag1
(g2
g3
Ntp291
Rp292
(dp293
g7
VSpr RS Swimmer F.png
p294
sg9
VSwimmer
p295
sg11
VSusie
p296
sg13
V272
p297
sg15
g16
sg17
g18
sg19
g20
sg21
g22
sg23
(lp298
g1
(g25
g3
Ntp299
Rp300
(dp301
g29
V370
p302
sg31
VLuvdisc
p303
sg33
g34
sg35
V34
p304
sg37
(lp305
Vsweet-kiss
p306
aVcharm
p307
aVattract
p308
aVsafeguard
p309
asg43
g44
sg45
Vswift-swim
p310
sbasg47
I00
sg48
g49
sbag1
(g2
g3
Ntp311
Rp312
(dp313
g7
VSpr RS Sis and Bro.png
p314
sg9
VSis and Bro
p315
sg11
VReli & Ian
p316
sg13
V792
p317
sg15
g57
sg17
g18
sg19
g20
sg21
g22
sg23
(lp318
g1
(g25
g3
Ntp319
Rp320
(dp321
g29
V184
p322
sg31
VAzumarill
p323
sg33
g64
sg35
V35
p324
sg37
(lp325
Vdefense-curl
p326
ag326
aVrollout
p327
aVrain-dance
p328
asg43
g44
sg45
Vhuge-power
p329
sbag1
(g25
g3
Ntp330
Rp331
(dp332
g29
V278
p333
sg31
VWingull
p334
sg33
g64
sg35
V33
p335
sg37
(lp336
Vwater-gun
p337
aVagility
p338
aVquick-attack
p339
aVpursuit
p340
asg43
g44
sg45
Vhydration
p341
sbasg47
I00
sg48
g49
sbag1
(g2
g3
Ntp342
Rp343
(dp344
g7
VVSSwimmer F ORAS.png
p345
sg9
VSwimmer \u2640
p346
sg11
VKara
p347
sg13
V624
p348
sg15
g16
sg17
g18
sg19
g20
sg21
VSM
p349
sg23
(lp350
g1
(g25
g3
Ntp351
Rp352
(dp353
g29
V366
p354
sg31
VClamperl
p355
sg33
g34
sg35
V39
p356
sg37
(lp357
Vclamp
p358
aVwhirlpool
p359
aViron-defense
p360
aVshell-smash
p361
asg43
g44
sg45
Vshell-armor
p362
sbasg47
I00
sg48
Vsun-moon
p363
sbag1
(g2
g3
Ntp364
Rp365
(dp366
g7
VVSSwimmer M VI.png
p367
sg9
VSwimmer \u2642
p368
sg11
VRichard
p369
sg13
V624
p370
sg15
g16
sg17
g18
sg19
g20
sg21
VSM
p371
sg23
(lp372
g1
(g25
g3
Ntp373
Rp374
(dp375
g29
V320
p376
sg31
VWailmer
p377
sg33
g64
sg35
V39
p378
sg37
(lp379
Vbounce
p380
aVwater-pulse
p381
aVbrine
p382
aVheavy-slam
p383
asg43
g44
sg45
Voblivious
p384
sbasg47
I00
sg48
g363
sbag1
(g2
g3
Ntp385
Rp386
(dp387
g7
VVSSwimmer M VI.png
p388
sg9
VSwimmer \u2642
p389
sg11
VHerman
p390
sg13
V592
p391
sg15
g57
sg17
g18
sg19
g20
sg21
g371
sg23
(lp392
g1
(g25
g3
Ntp393
Rp394
(dp395
g29
V117
p396
sg31
VSeadra
p397
sg33
g64
sg35
V37
p398
sg37
(lp399
Vtwister
p400
aVdragon-dance
p401
aVbrine
p402
aVdragon-pulse
p403
asg43
g44
sg45
Vpoison-point
p404
sbag1
(g25
g3
Ntp405
Rp406
(dp407
g29
V130
p408
sg31
VGyarados
p409
sg33
g64
sg35
V37
p410
sg37
(lp411
Vdragon-dance
p412
aVaqua-tail
p413
aVice-fang
p414
aVhurricane
p415
asg43
g44
sg45
Vintimidate
p416
sbasg47
I00
sg48
g363
sbag1
(g2
g3
Ntp417
Rp418
(dp419
g7
VVSSwimmer F ORAS.png
p420
sg9
VSwimmer \u2640
p421
sg11
VSusie
p422
sg13
V624
p423
sg15
g16
sg17
g18
sg19
g20
sg21
g349
sg23
(lp424
g1
(g25
g3
Ntp425
Rp426
(dp427
g29
V121
p428
sg31
VStarmie
p429
sg33
g212
sg35
V39
p430
sg37
(lp431
Vconfuse-ray
p432
aVswift
p433
aVrapid-spin
p434
aVspotlight
p435
asg43
g44
sg45
Vnatural-cure
p436
sbasg47
I00
sg48
g363
sbag1
(g2
g3
Ntp437
Rp438
(dp439
g7
VVSSis & Bro.png
p440
sg9
VSis & Bro
p441
sg11
VRell & Ian
p442
sg13
V760
p443
sg15
g57
sg17
g18
sg19
g20
sg21
VSM
p444
sg23
(lp445
g1
(g25
g3
Ntp446
Rp447
(dp448
g29
V184
p449
sg31
VAzumarill
p450
sg33
g64
sg35
V39
p451
sg37
(lp452
Vwater-sport
p453
aVaqua-ring
p454
aVaqua-tail
p455
aVplay-rough
p456
asg43
g44
sg45
Vhuge-power
p457
sbag1
(g25
g3
Ntp458
Rp459
(dp460
g29
V364
p461
sg31
VSealeo
p462
sg33
g64
sg35
V38
p463
sg37
(lp464
Vhail
p465
aVice-ball
p466
aVsheer-cold
p467
aVbrine
p468
asg43
g44
sg45
Vthick-fat
p469
sbasg47
I00
sg48
g363
sbag1
(g2
g3
Ntp470
Rp471
(dp472
g7
VVSWallace.png\u200e
p473
sg9
VSootopolitan
p474
sg11
VWallace
p475
sg13
V6,840
p476
sg15
I6
sg17
g18
sg19
g20
sg21
g444
sg23
(lp477
g1
(g25
g3
Ntp478
Rp479
(dp480
g29
I321
sg31
VWailord
p481
sg33
g64
sg35
V55
p482
sg37
(lp483
VWater Spout
p484
aVHeavy Slam
p485
aVEarthquake
p486
aVBlizzard
p487
asg43
g44
sg45
VOblivious
p488
sbag1
(g25
g3
Ntp489
Rp490
(dp491
g29
I73
sg31
VTentacruel
p492
sg33
g34
sg35
V55
p493
sg37
(lp494
VSludge Wave
p495
aVBrine
p496
aVRain Dance
p497
aVDazzling Gleam
p498
asg43
g44
sg45
VClear Body
p499
sbag1
(g25
g3
Ntp500
Rp501
(dp502
g29
I272
sg31
VLudicolo
p503
sg33
g64
sg35
V55
p504
sg37
(lp505
VFake Out
p506
aVScald
p507
aVEnergy Ball
p508
aVIce Beam
p509
asg43
g44
sg45
VSwift Swim
p510
sbag1
(g25
g3
Ntp511
Rp512
(dp513
g29
I340
sg31
VWhiscash
p514
sg33
g64
sg35
V55
p515
sg37
(lp516
VEarthquake
p517
aVMuddy Water
p518
aVRock Tomb
p519
aVRain Dance
p520
asg43
g44
sg45
VOblivious
p521
sbag1
(g25
g3
Ntp522
Rp523
(dp524
g29
I130
sg31
VGyarados
p525
sg33
g64
sg35
V55
p526
sg37
(lp527
VWaterfall
p528
aVCrunch
p529
aVIce Fang
p530
aVStone Edge
p531
asg43
g44
sg45
VIntimidate
p532
sbag1
(g25
g3
Ntp533
Rp534
(dp535
g29
I350
sg31
VMilotic
p536
sg33
g34
sg35
V57
p537
sg37
(lp538
VDragon Pulse
p539
aVBlizzard
p540
aVRecover
p541
aVHydro Pump
p542
asg43
g44
sg45
VMarvel Scale
p543
sbasg47
I01
sg48
g363
sba.