(lp0
ccopy_reg
_reconstructor
p1
(c__main__
Trainer
p2
c__builtin__
object
p3
Ntp4
Rp5
(dp6
VtSprite
p7
VSpr RS Aroma Lady.png
p8
sVtClass
p9
VAroma Lady
p10
sVtName
p11
VRose
p12
sVtMoney
p13
V560
p14
sVtPokeCount
p15
V2
p16
sVtLocation
p17
Vwiki/Hoenn_Route_118
p18
sVtRegion
p19
VHoenn
p20
sVtGame
p21
VRS
p22
sVtPokes
p23
(lp24
g1
(c__main__
FinishedPokemon
p25
g3
Ntp26
Rp27
(dp28
VpDexNo
p29
V285
p30
sVpSpecies
p31
VShroomish
p32
sVpGender
p33
VF
p34
sVpLevel
p35
V16
p36
sVpMoves
p37
(lp38
Vpoison-powder
p39
aVstun-spore
p40
aVspore
p41
aVgiga-drain
p42
asVpHold
p43
V
p44
sVpAbility
p45
Veffect-spore
p46
sbag1
(g25
g3
Ntp47
Rp48
(dp49
g29
V315
p50
sg31
VRoselia
p51
sg33
g34
sg35
V16
p52
sg37
(lp53
Vingrain
p54
aVaromatherapy
p55
aVgrass-whistle
p56
aVmagical-leaf
p57
asg43
g44
sg45
Vnatural-cure
p58
sbasVbossFlag
p59
I00
sVtLongGame
p60
Vruby-sapphire
p61
sbag1
(g2
g3
Ntp62
Rp63
(dp64
g7
VSpr RS Fisherman.png
p65
sg9
VFisherman
p66
sg11
VWade
p67
sg13
V640
p68
sg15
V1
p69
sg17
g18
sg19
g20
sg21
g22
sg23
(lp70
g1
(g25
g3
Ntp71
Rp72
(dp73
g29
V318
p74
sg31
VCarvanha
p75
sg33
VM
p76
sg35
V17
p77
sg37
(lp78
Vfocus-energy
p79
aVscary-face
p80
aVswagger
p81
aVcrunch
p82
asg43
g44
sg45
Vrough-skin
p83
sbasg59
I00
sg60
g61
sbag1
(g2
g3
Ntp84
Rp85
(dp86
g7
VSpr RS Guitarist.png
p87
sg9
VGuitarist
p88
sg11
VDalton
p89
sg13
V480
p90
sg15
V3
p91
sg17
g18
sg19
g20
sg21
g22
sg23
(lp92
g1
(g25
g3
Ntp93
Rp94
(dp95
g29
V081
p96
sg31
VMagnemite
p97
sg33
VU
p98
sg35
V15
p99
sg37
(lp100
Vzap-cannon
p101
aVlock-on
p102
aVspark
p103
aVmetal-sound
p104
asg43
g44
sg45
Vmagnet-pull
p105
sbag1
(g25
g3
Ntp106
Rp107
(dp108
g29
V293
p109
sg31
VWhismur
p110
sg33
g76
sg35
V15
p111
sg37
(lp112
Vuproar
p113
aVhyper-voice
p114
aVastonish
p115
aVhowl
p116
asg43
g44
sg45
Vsoundproof
p117
sbag1
(g25
g3
Ntp118
Rp119
(dp120
g29
V081
p121
sg31
VMagnemite
p122
sg33
g98
sg35
V15
p123
sg37
(lp124
Vzap-cannon
p125
aVlock-on
p126
aVspark
p127
aVmetal-sound
p128
asg43
g44
sg45
Vmagnet-pull
p129
sbasg59
I00
sg60
g61
sbag1
(g2
g3
Ntp130
Rp131
(dp132
g7
VSpr RS Interviewer.png
p133
sg9
VInterviewer
p134
sg11
V[[Gabby and Ty|Gabby & Ty]]
p135
sg13
V2592
p136
sg15
g16
sg17
g18
sg19
g20
sg21
g22
sg23
(lp137
g1
(g25
g3
Ntp138
Rp139
(dp140
g29
V081
p141
sg31
VMagnemite
p142
sg33
g98
sg35
V27
p143
sg37
(lp144
Vzap-cannon
p145
aVlock-on
p146
aVspark
p147
aVmetal-sound
p148
asg43
g44
sg45
Vmagnet-pull
p149
sbag1
(g25
g3
Ntp150
Rp151
(dp152
g29
V294
p153
sg31
VLoudred
p154
sg33
g76
sg35
V27
p155
sg37
(lp156
Vastonish
p157
ag157
aVhowl
p158
ag158
asg43
g44
sg45
Vsoundproof
p159
sbasg59
I00
sg60
g61
sbag1
(g2
g3
Ntp160
Rp161
(dp162
g7
VSpr RS Fisherman.png
p163
sg9
VFisherman
p164
sg11
VBarny
p165
sg13
V1000
p166
sg15
g16
sg17
g18
sg19
g20
sg21
g22
sg23
(lp167
g1
(g25
g3
Ntp168
Rp169
(dp170
g29
V318
p171
sg31
VCarvanha
p172
sg33
g76
sg35
V26
p173
sg37
(lp174
Vfocus-energy
p175
aVscary-face
p176
aVswagger
p177
aVcrunch
p178
asg43
g44
sg45
Vrough-skin
p179
sbag1
(g25
g3
Ntp180
Rp181
(dp182
g29
V318
p183
sg31
VCarvanha
p184
sg33
g76
sg35
V26
p185
sg37
(lp186
Vfocus-energy
p187
aVscary-face
p188
aVswagger
p189
aVcrunch
p190
asg43
g44
sg45
Vrough-skin
p191
sbasg59
I00
sg60
g61
sbag1
(g2
g3
Ntp192
Rp193
(dp194
g7
VSpr RS Bird Keeper.png
p195
sg9
VBird Keeper
p196
sg11
VChester
p197
sg13
V832
p198
sg15
g16
sg17
g18
sg19
g20
sg21
g22
sg23
(lp199
g1
(g25
g3
Ntp200
Rp201
(dp202
g29
V276
p203
sg31
VTaillow
p204
sg33
g76
sg35
V26
p205
sg37
(lp206
Vdouble-team
p207
aVfocus-energy
p208
aVendeavor
p209
aVaerial-ace
p210
asg43
g44
sg45
Vguts
p211
sbag1
(g25
g3
Ntp212
Rp213
(dp214
g29
V277
p215
sg31
VSwellow
p216
sg33
g76
sg35
V26
p217
sg37
(lp218
Vfocus-energy
p219
ag219
aVendeavor
p220
aVaerial-ace
p221
asg43
g44
sg45
Vguts
p222
sbasg59
I00
sg60
g61
sbag1
(g2
g3
Ntp223
Rp224
(dp225
g7
VSpr RS Bird Keeper.png
p226
sg9
VBird Keeper
p227
sg11
VPerry
p228
sg13
V864
p229
sg15
g69
sg17
g18
sg19
g20
sg21
g22
sg23
(lp230
g1
(g25
g3
Ntp231
Rp232
(dp233
g29
V278
p234
sg31
VWingull
p235
sg33
g76
sg35
V27
p236
sg37
(lp237
Vwater-gun
p238
aVagility
p239
aVquick-attack
p240
aVpursuit
p241
asg43
g44
sg45
Vkeen-eye
p242
sbasg59
I00
sg60
g61
sba.