(lp0
ccopy_reg
_reconstructor
p1
(c__main__
Trainer
p2
c__builtin__
object
p3
Ntp4
Rp5
(dp6
VtSprite
p7
VVSSophocles.png
p8
sVtClass
p9
VCaptain
p10
sVtName
p11
VSophocles
p12
sVtMoney
p13
V6,120
p14
sVtPokeCount
p15
I3
sVtLocation
p16
Vwiki/Hokulani_Observatory
p17
sVtRegion
p18
VAlola
p19
sVtGame
p20
VSM
p21
sVtPokes
p22
(lp23
g1
(c__main__
FinishedPokemon
p24
g3
Ntp25
Rp26
(dp27
VpDexNo
p28
I777
sVpSpecies
p29
VTogedemaru
p30
sVpGender
p31
VF
p32
sVpLevel
p33
V51
p34
sVpMoves
p35
(lp36
VSpiky Shield
p37
aVZing Zap
p38
aVFell Stinger
p39
asVpHold
p40
V
p41
sVpAbility
p42
VIron Barbs
p43
sbag1
(g24
g3
Ntp44
Rp45
(dp46
g28
I462
sg29
VMagnezone
p47
sg31
VU
p48
sg33
V51
p49
sg35
(lp50
VFlash Cannon
p51
aVDischarge
p52
aVTri Attack
p53
asg40
g41
sg42
VSturdy
p54
sbag1
(g24
g3
Ntp55
Rp56
(dp57
g28
I76
sg29
VGolem
p58
sg31
VM
p59
sg33
V51
p60
sg35
(lp61
VStone Edge
p62
aVThunder Punch
p63
aVSteamroller
p64
asg40
VElectrium Z
p65
sg42
VSturdy
p66
sbasVbossFlag
p67
I01
sVtLongGame
p68
Vsun-moon
p69
sba.