(lp0
ccopy_reg
_reconstructor
p1
(c__main__
Trainer
p2
c__builtin__
object
p3
Ntp4
Rp5
(dp6
VtSprite
p7
VSpr B2W2 Ace Trainer M.png
p8
sVtClass
p9
VAce Trainer
p10
sVtName
p11
VDoyle
p12
sVtMoney
p13
g1
(cmwparserfromhell.wikicode
Wikicode
p14
g3
Ntp15
Rp16
(dp17
V_nodes
p18
g1
(cmwparserfromhell.smart_list.smart_list
SmartList
p19
c__builtin__
list
p20
(lp21
g1
(cmwparserfromhell.nodes.text
Text
p22
g3
Ntp23
Rp24
(dp25
V_value
p26
V2820
p27
sbatp28
Rp29
(dp30
V_children
p31
(dp32
sbsbsVtPokeCount
p33
V2
p34
sVtLocation
p35
Vwiki/Humilau_Gym
p36
sVtRegion
p37
VUnova
p38
sVtGame
p39
VB2W2
p40
sVtPokes
p41
(lp42
g1
(c__main__
FinishedPokemon
p43
g3
Ntp44
Rp45
(dp46
VpDexNo
p47
V419
p48
sVpSpecies
p49
VFloatzel
p50
sVpGender
p51
VM
p52
sVpLevel
p53
V47
p54
sVpMoves
p55
(lp56
Vaqua-tail
p57
aVice-fang
p58
aVaqua-jet
p59
aVdouble-hit
p60
asVpHold
p61
V
p62
sVpAbility
p63
Vswift-swim
p64
sbag1
(g43
g3
Ntp65
Rp66
(dp67
g47
V226
p68
sg49
VMantine
p69
sg51
g52
sg53
V47
p70
sg55
(lp71
Vwater-pulse
p72
aVaqua-ring
p73
aVair-slash
p74
aVwide-guard
p75
asg61
g62
sg63
Vswift-swim
p76
sbasVbossFlag
p77
I00
sVtLongGame
p78
Vblack-2-white-2
p79
sbag1
(g2
g3
Ntp80
Rp81
(dp82
g7
VSpr B2W2 Ace Trainer F.png
p83
sg9
VAce Trainer
p84
sg11
VMelina
p85
sg13
g1
(g14
g3
Ntp86
Rp87
(dp88
g18
g1
(g19
g20
(lp89
g1
(g22
g3
Ntp90
Rp91
(dp92
g26
V2880
p93
sbatp94
Rp95
(dp96
g31
(dp97
sbsbsg33
V1
p98
sg35
g36
sg37
g38
sg39
g40
sg41
(lp99
g1
(g43
g3
Ntp100
Rp101
(dp102
g47
V594
p103
sg49
VAlomomola
p104
sg51
VF
p105
sg53
V48
p106
sg55
(lp107
Vaqua-jet
p108
aVwide-guard
p109
aVsoak
p110
aVheal-pulse
p111
asg61
g62
sg63
Vhydration
p112
sbasg77
I00
sg78
g79
sbag1
(g2
g3
Ntp113
Rp114
(dp115
g7
VSpr B2W2 Ace Trainer M.png
p116
sg9
VAce Trainer
p117
sg11
VSantino{{tt|*|Optional; battled only if spoken to}}
p118
sg13
g1
(g14
g3
Ntp119
Rp120
(dp121
g18
g1
(g19
g20
(lp122
g1
(g22
g3
Ntp123
Rp124
(dp125
g26
V2880
p126
sbatp127
Rp128
(dp129
g31
(dp130
sbsbsg33
g98
sg35
g36
sg37
g38
sg39
g40
sg41
(lp131
g1
(g43
g3
Ntp132
Rp133
(dp134
g47
V365
p135
sg49
VWalrein
p136
sg51
g52
sg53
V48
p137
sg55
(lp138
Vhail
p139
aVice-ball
p140
aVsheer-cold
p141
aVice-fang
p142
asg61
g62
sg63
Vthick-fat
p143
sbasg77
I00
sg78
g79
sbag1
(g2
g3
Ntp144
Rp145
(dp146
g7
VSpr B2W2 Ace Trainer F.png
p147
sg9
VAce Trainer
p148
sg11
VJeanne
p149
sg13
g1
(g14
g3
Ntp150
Rp151
(dp152
g18
g1
(g19
g20
(lp153
g1
(g22
g3
Ntp154
Rp155
(dp156
g26
V2820
p157
sbatp158
Rp159
(dp160
g31
(dp161
sbsbsg33
g34
sg35
g36
sg37
g38
sg39
g40
sg41
(lp162
g1
(g43
g3
Ntp163
Rp164
(dp165
g47
V279
p166
sg49
VPelipper
p167
sg51
g105
sg53
V47
p168
sg55
(lp169
Vpayback
p170
aVfling
p171
aVsoak
p172
aVhurricane
p173
asg61
g62
sg63
Vkeen-eye
p174
sbag1
(g43
g3
Ntp175
Rp176
(dp177
g47
V321
p178
sg49
VWailord
p179
sg51
g105
sg53
V47
p180
sg55
(lp181
Vbounce
p182
aVwater-pulse
p183
aVbrine
p184
aVheavy-slam
p185
asg61
g62
sg63
Voblivious
p186
sbasg77
I00
sg78
g79
sbag1
(g2
g3
Ntp187
Rp188
(dp189
g7
VSpr B2W2 Ace Trainer F.png
p190
sg9
VAce Trainer
p191
sg11
VSable
p192
sg13
g1
(g14
g3
Ntp193
Rp194
(dp195
g18
g1
(g19
g20
(lp196
g1
(g22
g3
Ntp197
Rp198
(dp199
g26
V2820
p200
sbatp201
Rp202
(dp203
g31
(dp204
sbsbsg33
g34
sg35
g36
sg37
g38
sg39
g40
sg41
(lp205
g1
(g43
g3
Ntp206
Rp207
(dp208
g47
V055
p209
sg49
VGolduck
p210
sg51
g105
sg53
V47
p211
sg55
(lp212
Vzen-headbutt
p213
aVaqua-jet
p214
aVwonder-room
p215
aVsoak
p216
asg61
g62
sg63
Vdamp
p217
sbag1
(g43
g3
Ntp218
Rp219
(dp220
g47
V121
p221
sg49
VStarmie
p222
sg51
VU
p223
sg53
V47
p224
sg55
(lp225
Vrecover
p226
aVconfuse-ray
p227
aVswift
p228
aVrapid-spin
p229
asg61
g62
sg63
Villuminate
p230
sbasg77
I00
sg78
g79
sbag1
(g2
g3
Ntp231
Rp232
(dp233
g7
VSpr B2W2 Ace Trainer M.png
p234
sg9
VAce Trainer
p235
sg11
VEnzio
p236
sg13
g1
(g14
g3
Ntp237
Rp238
(dp239
g18
g1
(g19
g20
(lp240
g1
(g22
g3
Ntp241
Rp242
(dp243
g26
V2760
p244
sbatp245
Rp246
(dp247
g31
(dp248
sbsbsg33
V3
p249
sg35
g36
sg37
g38
sg39
g40
sg41
(lp250
sg77
I00
sg78
g79
sbag1
(g2
g3
Ntp251
Rp252
(dp253
g7
VSpr B2W2 Marlon.png
p254
sg9
VLeader
p255
sg11
VMarlon
p256
sg13
g1
(g14
g3
Ntp257
Rp258
(dp259
g18
g1
(g19
g20
(lp260
g1
(g22
g3
Ntp261
Rp262
(dp263
g26
V5640
p264
sbatp265
Rp266
(dp267
g31
(dp268
sbsbsg33
I3
sg35
g36
sg37
g38
sg39
g40
sg41
(lp269
g1
(g43
g3
Ntp270
Rp271
(dp272
g47
I565
sg49
VCarracosta
p273
sg51
g52
sg53
g1
(g14
g3
Ntp274
Rp275
(dp276
g18
g1
(g19
g20
(lp277
g1
(g22
g3
Ntp278
Rp279
(dp280
g26
V45
p281
sbatp282
Rp283
(dp284
g31
(dp285
sbsbsg55
(lp286
VSmack Down
p287
aVShell Smash
p288
aVScald
p289
aVCrunch
p290
asg61
g62
sg63
VSturdy
p291
sbag1
(g43
g3
Ntp292
Rp293
(dp294
g47
I321
sg49
VWailord 
p295
sg51
g52
sg53
g1
(g14
g3
Ntp296
Rp297
(dp298
g18
g1
(g19
g20
(lp299
g1
(g22
g3
Ntp300
Rp301
(dp302
g26
V45
p303
sbatp304
Rp305
(dp306
g31
(dp307
sbsbsg55
(lp308
VAmnesia
p309
aVScald
p310
aVRollout
p311
aVBounce
p312
asg61
g62
sg63
VWater Veil
p313
sbag1
(g43
g3
Ntp314
Rp315
(dp316
g47
I593
sg49
VJellicent 
p317
sg51
g52
sg53
g1
(g14
g3
Ntp318
Rp319
(dp320
g18
g1
(g19
g20
(lp321
g1
(g22
g3
Ntp322
Rp323
(dp324
g26
V47
p325
sbatp326
Rp327
(dp328
g31
(dp329
sbsbsg55
(lp330
VBrine
p331
aVRecover
p332
aVScald
p333
aVOminous Wind
p334
asg61
VSitrus Berry
p335
sg63
VCursed Body
p336
sbasg77
I01
sg78
g79
sbag1
(g2
g3
Ntp337
Rp338
(dp339
g7
VSpr B2W2 Marlon.png
p340
sg9
VLeader
p341
sg11
VMarlon
p342
sg13
V6600
p343
sg33
I4
sg35
g36
sg37
g38
sg39
g40
sg41
(lp344
g1
(g43
g3
Ntp345
Rp346
(dp347
g47
I321
sg49
VWailord 
p348
sg51
g52
sg53
V53
p349
sg55
(lp350
VScald
p351
aVIce Beam
p352
aVRain Dance
p353
aVEarthquake
p354
asg61
g62
sg63
VWater Veil
p355
sbag1
(g43
g3
Ntp356
Rp357
(dp358
g47
I226
sg49
VMantine
p359
sg51
g52
sg53
V53
p360
sg55
(lp361
VAir Slash
p362
aVIce Beam
p363
aVScald
p364
aVConfuse Ray
p365
asg61
g62
sg63
VSwift Swim
p366
sbag1
(g43
g3
Ntp367
Rp368
(dp369
g47
I565
sg49
VCarracosta
p370
sg51
g52
sg53
V53
p371
sg55
(lp372
VRock Slide
p373
aVShell Smash
p374
aVScald
p375
aVCrunch
p376
asg61
VSitrus Berry
p377
sg63
VSturdy
p378
sbag1
(g43
g3
Ntp379
Rp380
(dp381
g47
I593
sg49
VJellicent 
p382
sg51
g52
sg53
V55
p383
sg55
(lp384
VEnergy Ball
p385
aVRecover
p386
aVScald
p387
aVShadow Ball
p388
asg61
VSitrus Berry
p389
sg63
VCursed Body
p390
sbasg77
I01
sg78
g79
sba.