(lp0
ccopy_reg
_reconstructor
p1
(c__main__
Trainer
p2
c__builtin__
object
p3
Ntp4
Rp5
(dp6
VtSprite
p7
VSpr FRLG Team Rocket Grunt M.png
p8
sVtClass
p9
VTeam Rocket Grunt
p10
sVtName
p11
V
p12
sVtMoney
p13
V1216
p14
sVtPokeCount
p15
V3
p16
sVtLocation
p17
Vwiki/Icefall_Cave
p18
sVtRegion
p19
Vlands
p20
sVtGame
p21
VFRLG
p22
sVtPokes
p23
(lp24
g1
(c__main__
FinishedPokemon
p25
g3
Ntp26
Rp27
(dp28
VpDexNo
p29
V041
p30
sVpSpecies
p31
VZubat
p32
sVpGender
p33
VM
p34
sVpLevel
p35
V38
p36
sVpMoves
p37
(lp38
Vmean-look
p39
aVpoison-fang
p40
aVastonish
p41
aVair-cutter
p42
asVpHold
p43
g12
sVpAbility
p44
Vinner-focus
p45
sbag1
(g25
g3
Ntp46
Rp47
(dp48
g29
V041
p49
sg31
VZubat
p50
sg33
g34
sg35
V38
p51
sg37
(lp52
Vmean-look
p53
aVpoison-fang
p54
aVastonish
p55
aVair-cutter
p56
asg43
g12
sg44
Vinner-focus
p57
sbag1
(g25
g3
Ntp58
Rp59
(dp60
g29
V042
p61
sg31
VGolbat
p62
sg33
g34
sg35
V38
p63
sg37
(lp64
Vpoison-fang
p65
aVastonish
p66
ag66
aVair-cutter
p67
asg43
g12
sg44
Vinner-focus
p68
sbasVbossFlag
p69
I00
sVtLongGame
p70
Vfirered-leafgreen
p71
sba.