(lp0
ccopy_reg
_reconstructor
p1
(c__main__
Trainer
p2
c__builtin__
object
p3
Ntp4
Rp5
(dp6
VtSprite
p7
V Spr B2W2 Shadow Triad.png
p8
sVtClass
p9
VTeam Plasma
p10
sVtName
p11
VShadow Triad
p12
sVtMoney
p13
g1
(cmwparserfromhell.wikicode
Wikicode
p14
g3
Ntp15
Rp16
(dp17
V_nodes
p18
g1
(cmwparserfromhell.smart_list.smart_list
SmartList
p19
c__builtin__
list
p20
(lp21
g1
(cmwparserfromhell.nodes.text
Text
p22
g3
Ntp23
Rp24
(dp25
V_value
p26
V12060
p27
sbatp28
Rp29
(dp30
V_children
p31
(dp32
sbsbsVtPokeCount
p33
I3
sVtLocation
p34
Vwiki/Icirrus_City
p35
sVtRegion
p36
VUnova
p37
sVtGame
p38
VB2W2
p39
sVtPokes
p40
(lp41
g1
(c__main__
FinishedPokemon
p42
g3
Ntp43
Rp44
(dp45
VpDexNo
p46
I625
sVpSpecies
p47
VBisharp
p48
sVpGender
p49
VM
p50
sVpLevel
p51
g1
(g14
g3
Ntp52
Rp53
(dp54
g18
g1
(g19
g20
(lp55
g1
(g22
g3
Ntp56
Rp57
(dp58
g26
V65
p59
sbatp60
Rp61
(dp62
g31
(dp63
sbsbsVpMoves
p64
(lp65
VScary Face
p66
aVIron Head
p67
aVNight Slash
p68
aVLow Sweep
p69
asVpHold
p70
V
p71
sVpAbility
p72
VDefiant
p73
sbag1
(g42
g3
Ntp74
Rp75
(dp76
g46
I625
sg47
VBisharp
p77
sg49
g50
sg51
g1
(g14
g3
Ntp78
Rp79
(dp80
g18
g1
(g19
g20
(lp81
g1
(g22
g3
Ntp82
Rp83
(dp84
g26
V65
p85
sbatp86
Rp87
(dp88
g31
(dp89
sbsbsg64
(lp90
VSwords Dance
p91
aVX-Scissor
p92
aVGuillotine
p93
aVNight Slash
p94
asg70
g71
sg72
VInner Focus
p95
sbag1
(g42
g3
Ntp96
Rp97
(dp98
g46
I359
sg47
VAbsol
p99
sg49
g50
sg51
g1
(g14
g3
Ntp100
Rp101
(dp102
g18
g1
(g19
g20
(lp103
g1
(g22
g3
Ntp104
Rp105
(dp106
g26
V67
p107
sbatp108
Rp109
(dp110
g31
(dp111
sbsbsg64
(lp112
VAerial Ace
p113
aVX-Scissor
p114
aVPsycho Cut
p115
aVSucker Punch
p116
asg70
g71
sg72
VSuper Luck
p117
sbasVbossFlag
p118
I01
sVtLongGame
p119
Vblack-2-white-2
p120
sbag1
(g2
g3
Ntp121
Rp122
(dp123
g7
V Spr B2W2 Shadow Triad.png
p124
sg9
VTeam Plasma
p125
sg11
VShadow Triad
p126
sg13
g1
(g14
g3
Ntp127
Rp128
(dp129
g18
g1
(g19
g20
(lp130
g1
(g22
g3
Ntp131
Rp132
(dp133
g26
V11700
p134
sbatp135
Rp136
(dp137
g31
(dp138
sbsbsg33
I3
sg34
g35
sg36
g37
sg38
g39
sg40
(lp139
g1
(g42
g3
Ntp140
Rp141
(dp142
g46
I625
sg47
VBisharp
p143
sg49
g50
sg51
g1
(g14
g3
Ntp144
Rp145
(dp146
g18
g1
(g19
g20
(lp147
g1
(g22
g3
Ntp148
Rp149
(dp150
g26
V65
p151
sbatp152
Rp153
(dp154
g31
(dp155
sbsbsg64
(lp156
VScary Face
p157
aVIron Head
p158
aVNight Slash
p159
aVLow Sweep
p160
asg70
g71
sg72
VDefiant
p161
sbag1
(g42
g3
Ntp162
Rp163
(dp164
g46
I617
sg47
VAccelgor
p165
sg49
g50
sg51
g1
(g14
g3
Ntp166
Rp167
(dp168
g18
g1
(g19
g20
(lp169
g1
(g22
g3
Ntp170
Rp171
(dp172
g26
V67
p173
sbatp174
Rp175
(dp176
g31
(dp177
sbsbsg64
(lp178
VBug Buzz
p179
aVGiga Drain
p180
aVSludge Bomb
p181
aVFocus Blast
p182
asg70
g71
sg72
VHydration
p183
sbag1
(g42
g3
Ntp184
Rp185
(dp186
g46
I625
sg47
VBisharp
p187
sg49
g50
sg51
g1
(g14
g3
Ntp188
Rp189
(dp190
g18
g1
(g19
g20
(lp191
g1
(g22
g3
Ntp192
Rp193
(dp194
g26
V65
p195
sbatp196
Rp197
(dp198
g31
(dp199
sbsbsg64
(lp200
VSwords Dance
p201
aVX-Scissor
p202
aVGuillotine
p203
aVNight Slash
p204
asg70
g71
sg72
VInner Focus
p205
sbasg118
I01
sg119
g120
sbag1
(g2
g3
Ntp206
Rp207
(dp208
g7
V Spr B2W2 Shadow Triad.png
p209
sg9
VTeam Plasma
p210
sg11
VShadow Triad
p211
sg13
g1
(g14
g3
Ntp212
Rp213
(dp214
g18
g1
(g19
g20
(lp215
g1
(g22
g3
Ntp216
Rp217
(dp218
g26
V11700
p219
sbatp220
Rp221
(dp222
g31
(dp223
sbsbsg33
I3
sg34
g35
sg36
g37
sg38
g39
sg40
(lp224
g1
(g42
g3
Ntp225
Rp226
(dp227
g46
I354
sg47
VBanette
p228
sg49
g50
sg51
g1
(g14
g3
Ntp229
Rp230
(dp231
g18
g1
(g19
g20
(lp232
g1
(g22
g3
Ntp233
Rp234
(dp235
g26
V67
p236
sbatp237
Rp238
(dp239
g31
(dp240
sbsbsg64
(lp241
VShadow Claw
p242
aVWill-O-Wisp
p243
aVPsychic
p244
aVSucker Punch
p245
asg70
g71
sg72
VInsomnia
p246
sbag1
(g42
g3
Ntp247
Rp248
(dp249
g46
I625
sg47
VBisharp
p250
sg49
g50
sg51
g1
(g14
g3
Ntp251
Rp252
(dp253
g18
g1
(g19
g20
(lp254
g1
(g22
g3
Ntp255
Rp256
(dp257
g26
V65
p258
sbatp259
Rp260
(dp261
g31
(dp262
sbsbsg64
(lp263
VScary Face
p264
aVIron Head
p265
aVNight Slash
p266
aVLow Sweep
p267
asg70
g71
sg72
VDefiant
p268
sbag1
(g42
g3
Ntp269
Rp270
(dp271
g46
I625
sg47
VBisharp
p272
sg49
g50
sg51
g1
(g14
g3
Ntp273
Rp274
(dp275
g18
g1
(g19
g20
(lp276
g1
(g22
g3
Ntp277
Rp278
(dp279
g26
V65
p280
sbatp281
Rp282
(dp283
g31
(dp284
sbsbsg64
(lp285
VSwords Dance
p286
aVX-Scissor
p287
aVGuillotine
p288
aVNight Slash
p289
asg70
g71
sg72
VInner Focus
p290
sbasg118
I01
sg119
g120
sba.