(lp0
ccopy_reg
_reconstructor
p1
(c__main__
Trainer
p2
c__builtin__
object
p3
Ntp4
Rp5
(dp6
VtSprite
p7
VSpr BW Black Belt.png
p8
sVtClass
p9
VBlack Belt
p10
sVtName
p11
VGrant
p12
sVtMoney
p13
V1120
p14
sVtPokeCount
p15
V3
p16
sVtLocation
p17
Vwiki/Icirrus_Gym
p18
sVtRegion
p19
VUnova
p20
sVtGame
p21
VBW
p22
sVtPokes
p23
(lp24
g1
(c__main__
FinishedPokemon
p25
g3
Ntp26
Rp27
(dp28
VpDexNo
p29
V613
p30
sVpSpecies
p31
VCubchoo
p32
sVpGender
p33
VM
p34
sVpLevel
p35
V35
p36
sVpMoves
p37
(lp38
Vcharm
p39
aVhail
p40
aVsheer-cold
p41
aVbrine
p42
asVpHold
p43
V
p44
sVpAbility
p45
Vsnow-cloak
p46
sbag1
(g25
g3
Ntp47
Rp48
(dp49
g29
V615
p50
sg31
VCryogonal
p51
sg33
VU
p52
sg35
V35
p53
sg37
(lp54
Vrapid-spin
p55
aVsheer-cold
p56
aVnight-slash
p57
aVice-shard
p58
asg43
g44
sg45
Vlevitate
p59
sbag1
(g25
g3
Ntp60
Rp61
(dp62
g29
V613
p63
sg31
VCubchoo
p64
sg33
g34
sg35
V35
p65
sg37
(lp66
Vcharm
p67
aVhail
p68
aVsheer-cold
p69
aVbrine
p70
asg43
g44
sg45
Vslush-rush
p71
sbasVbossFlag
p72
I00
sVtLongGame
p73
Vblack-white
p74
sbag1
(g2
g3
Ntp75
Rp76
(dp77
g7
VSpr BW Battle Girl.png
p78
sg9
VBattle Girl
p79
sg11
VMiriam
p80
sg13
V1184
p81
sg15
V1
p82
sg17
g18
sg19
g20
sg21
g22
sg23
(lp83
g1
(g25
g3
Ntp84
Rp85
(dp86
g29
V615
p87
sg31
VCryogonal
p88
sg33
g52
sg35
V37
p89
sg37
(lp90
Vrapid-spin
p91
aVsheer-cold
p92
aVnight-slash
p93
aVice-shard
p94
asg43
g44
sg45
Vlevitate
p95
sbasg72
I00
sg73
g74
sbag1
(g2
g3
Ntp96
Rp97
(dp98
g7
VSpr BW Black Belt.png
p99
sg9
VBlack Belt
p100
sg11
VKendrew
p101
sg13
V1184
p102
sg15
g82
sg17
g18
sg19
g20
sg21
g22
sg23
(lp103
g1
(g25
g3
Ntp104
Rp105
(dp106
g29
V613
p107
sg31
VCubchoo
p108
sg33
g34
sg35
V37
p109
sg37
(lp110
Vcharm
p111
aVhail
p112
aVsheer-cold
p113
aVbrine
p114
asg43
g44
sg45
Vslush-rush
p115
sbasg72
I00
sg73
g74
sbag1
(g2
g3
Ntp116
Rp117
(dp118
g7
VSpr BW Battle Girl.png
p119
sg9
VBattle Girl
p120
sg11
VMikiko<!--Kept name-->
p121
sg13
V1152
p122
sg15
V2
p123
sg17
g18
sg19
g20
sg21
g22
sg23
(lp124
g1
(g25
g3
Ntp125
Rp126
(dp127
g29
V613
p128
sg31
VCubchoo
p129
sg33
VF
p130
sg35
V36
p131
sg37
(lp132
Vcharm
p133
aVhail
p134
aVsheer-cold
p135
aVbrine
p136
asg43
g44
sg45
Vsnow-cloak
p137
sbag1
(g25
g3
Ntp138
Rp139
(dp140
g29
V583
p141
sg31
VVanillish
p142
sg33
g130
sg35
V36
p143
sg37
(lp144
Vsheer-cold
p145
aVicicle-spear
p146
aVavalanche
p147
aVmirror-shot
p148
asg43
g44
sg45
Vsnow-cloak
p149
sbasg72
I00
sg73
g74
sbag1
(g2
g3
Ntp150
Rp151
(dp152
g7
VSpr BW Battle Girl.png
p153
sg9
VBattle Girl
p154
sg11
VChandra
p155
sg13
V1152
p156
sg15
g123
sg17
g18
sg19
g20
sg21
g22
sg23
(lp157
g1
(g25
g3
Ntp158
Rp159
(dp160
g29
V583
p161
sg31
VVanillish
p162
sg33
g130
sg35
V36
p163
sg37
(lp164
Vsheer-cold
p165
aVicicle-spear
p166
aVavalanche
p167
aVmirror-shot
p168
asg43
g44
sg45
Vice-body
p169
sbag1
(g25
g3
Ntp170
Rp171
(dp172
g29
V583
p173
sg31
VVanillish
p174
sg33
g130
sg35
V36
p175
sg37
(lp176
Vsheer-cold
p177
aVicicle-spear
p178
aVavalanche
p179
aVmirror-shot
p180
asg43
g44
sg45
Vsnow-cloak
p181
sbasg72
I00
sg73
g74
sbag1
(g2
g3
Ntp182
Rp183
(dp184
g7
VSpr BW Black Belt.png
p185
sg9
VBlack Belt
p186
sg11
VThomas
p187
sg13
V1152
p188
sg15
g123
sg17
g18
sg19
g20
sg21
g22
sg23
(lp189
g1
(g25
g3
Ntp190
Rp191
(dp192
g29
V583
p193
sg31
VVanillish
p194
sg33
g34
sg35
V36
p195
sg37
(lp196
Vsheer-cold
p197
aVicicle-spear
p198
aVavalanche
p199
aVmirror-shot
p200
asg43
g44
sg45
Vice-body
p201
sbag1
(g25
g3
Ntp202
Rp203
(dp204
g29
V613
p205
sg31
VCubchoo
p206
sg33
g34
sg35
V36
p207
sg37
(lp208
Vcharm
p209
aVhail
p210
aVsheer-cold
p211
aVbrine
p212
asg43
g44
sg45
Vsnow-cloak
p213
sbasg72
I00
sg73
g74
sbag1
(g2
g3
Ntp214
Rp215
(dp216
g7
VSpr BW Brycen.png
p217
sg9
VLeader
p218
sg11
VBrycen
p219
sg13
V4680
p220
sg15
I3
sg17
g18
sg19
g20
sg21
g22
sg23
(lp221
g1
(g25
g3
Ntp222
Rp223
(dp224
g29
I583
sg31
VVanillish
p225
sg33
g34
sg35
V37
p226
sg37
(lp227
VFrost Breath
p228
aVAcid Armor
p229
aVAstonish
p230
aVMirror Shot
p231
asg43
g44
sg45
VIce Body
p232
sbag1
(g25
g3
Ntp233
Rp234
(dp235
g29
I615
sg31
VCryogonal
p236
sg33
g52
sg35
V37
p237
sg37
(lp238
VAurora Beam
p239
aVReflect
p240
aVFrost Breath
p241
aVRapid Spin
p242
asg43
g44
sg45
VLevitate
p243
sbag1
(g25
g3
Ntp244
Rp245
(dp246
g29
I614
sg31
VBeartic
p247
sg33
g34
sg35
V39
p248
sg37
(lp249
VSwagger
p250
aVIcicle Crash
p251
aVSlash
p252
aVBrine
p253
asg43
g44
sg45
VSnow Cloak
p254
sbasg72
I01
sg73
g74
sba.