(lp0
ccopy_reg
_reconstructor
p1
(c__main__
Trainer
p2
c__builtin__
object
p3
Ntp4
Rp5
(dp6
VtSprite
p7
VSpr DP Camper.png
p8
sVtClass
p9
VCamper
p10
sVtName
p11
VLawrence
p12
sVtMoney
p13
V496
p14
sVtPokeCount
p15
V2
p16
sVtLocation
p17
Vwiki/Iron_Island
p18
sVtRegion
p19
VSinnoh
p20
sVtGame
p21
VDP
p22
sVtPokes
p23
(lp24
g1
(c__main__
FinishedPokemon
p25
g3
Ntp26
Rp27
(dp28
VpDexNo
p29
V404
p30
sVpSpecies
p31
VLuxio
p32
sVpGender
p33
VM
p34
sVpLevel
p35
V31
p36
sVpMoves
p37
(lp38
Vcrunch
p39
aVcharge
p40
aVthunder-fang
p41
aVdischarge
p42
asVpHold
p43
V
p44
sVpAbility
p45
Vintimidate
p46
sbag1
(g25
g3
Ntp47
Rp48
(dp49
g29
V434
p50
sg31
VStunky
p51
sg33
g34
sg35
V31
p52
sg37
(lp53
Vfury-swipes
p54
aVslash
p55
aVmemento
p56
aVnight-slash
p57
asg43
g44
sg45
Vaftermath
p58
sbasVbossFlag
p59
I00
sVtLongGame
p60
Vdiamond-pearl
p61
sbag1
(g2
g3
Ntp62
Rp63
(dp64
g7
VSpr DP Worker.png
p65
sg9
VWorker
p66
sg11
VWilly
p67
sg13
V1240
p68
sg15
g16
sg17
g18
sg19
g20
sg21
g22
sg23
(lp69
g1
(g25
g3
Ntp70
Rp71
(dp72
g29
V095
p73
sg31
VOnix
p74
sg33
g34
sg35
V31
p75
sg37
(lp76
Vrock-tomb
p77
aVsand-tomb
p78
aVrock-polish
p79
aVstone-edge
p80
asg43
g44
sg45
Vrock-head
p81
sbag1
(g25
g3
Ntp82
Rp83
(dp84
g29
V075
p85
sg31
VGraveler
p86
sg33
g34
sg35
V31
p87
sg37
(lp88
Vrock-blast
p89
aVrock-polish
p90
ag90
aVstone-edge
p91
asg43
g44
sg45
Vsturdy
p92
sbasg59
I00
sg60
g61
sbag1
(g2
g3
Ntp93
Rp94
(dp95
g7
VSpr DP Worker.png
p96
sg9
VWorker
p97
sg11
VBraden
p98
sg13
V1320
p99
sg15
V1
p100
sg17
g18
sg19
g20
sg21
g22
sg23
(lp101
g1
(g25
g3
Ntp102
Rp103
(dp104
g29
V075
p105
sg31
VGraveler
p106
sg33
g34
sg35
V33
p107
sg37
(lp108
Vrock-blast
p109
aVrock-polish
p110
ag110
aVstone-edge
p111
asg43
g44
sg45
Vrock-head
p112
sbasg59
I00
sg60
g61
sbag1
(g2
g3
Ntp113
Rp114
(dp115
g7
VSpr DP Hiker.png
p116
sg9
VHiker
p117
sg11
VMaurice
p118
sg13
V1024<br><small>Potential [[Double Battle]] with Damon</small>
p119
sg15
g16
sg17
g18
sg19
g20
sg21
g22
sg23
(lp120
g1
(g25
g3
Ntp121
Rp122
(dp123
g29
V075
p124
sg31
VGraveler
p125
sg33
g34
sg35
V30
p126
sg37
(lp127
Vrock-blast
p128
aVrock-polish
p129
ag129
aVstone-edge
p130
asg43
g44
sg45
Vrock-head
p131
sbag1
(g25
g3
Ntp132
Rp133
(dp134
g29
V067
p135
sg31
VMachoke
p136
sg33
g34
sg35
V32
p137
sg37
(lp138
Vvital-throw
p139
aVcross-chop
p140
aVrevenge
p141
aVwake-up-slap
p142
asg43
g44
sg45
Vguts
p143
sbasg59
I00
sg60
g61
sbag1
(g2
g3
Ntp144
Rp145
(dp146
g7
VSpr DP Black Belt.png
p147
sg9
VBlack Belt
p148
sg11
VKendal
p149
sg13
V840<br><small>Potential [[Double Battle]] with Tyler</small>
p150
sg15
g100
sg17
g18
sg19
g20
sg21
g22
sg23
(lp151
g1
(g25
g3
Ntp152
Rp153
(dp154
g29
V453
p155
sg31
VCroagunk
p156
sg33
g34
sg35
V35
p157
sg37
(lp158
Vsucker-punch
p159
aVpoison-jab
p160
aVnasty-plot
p161
aVmud-bomb
p162
asg43
g44
sg45
Vanticipation
p163
sbasg59
I00
sg60
g61
sbag1
(g2
g3
Ntp164
Rp165
(dp166
g7
VSpr DP Battle Girl.png
p167
sg9
VBattle Girl
p168
sg11
VTyler
p169
sg13
V544<br><small>Potential [[Double Battle]] with Kendal</small>
p170
sg15
g100
sg17
g18
sg19
g20
sg21
g22
sg23
(lp171
g1
(g25
g3
Ntp172
Rp173
(dp174
g29
V308
p175
sg31
VMedicham
p176
sg33
VF
p177
sg35
V34
p178
sg37
(lp179
Vcalm-mind
p180
aVfeint
p181
aVpower-trick
p182
aVforce-palm
p183
asg43
g44
sg45
Vpure-power
p184
sbasg59
I00
sg60
g61
sbag1
(g2
g3
Ntp185
Rp186
(dp187
g7
VSpr DP Worker.png
p188
sg9
VWorker
p189
sg11
VBrendon
p190
sg13
V1320<br><small>Potential [[Double Battle]] with Quentin</small>
p191
sg15
g16
sg17
g18
sg19
g20
sg21
g22
sg23
(lp192
g1
(g25
g3
Ntp193
Rp194
(dp195
g29
V095
p196
sg31
VOnix
p197
sg33
g34
sg35
V29
p198
sg37
(lp199
Vrock-tomb
p200
aVsand-tomb
p201
aVrock-polish
p202
aVstone-edge
p203
asg43
g44
sg45
Vsturdy
p204
sbag1
(g25
g3
Ntp205
Rp206
(dp207
g29
V208
p208
sg31
VSteelix
p209
sg33
g34
sg35
V33
p210
sg37
(lp211
Vthunder-fang
p212
aVice-fang
p213
aVfire-fang
p214
aVstone-edge
p215
asg43
g44
sg45
Vrock-head
p216
sbasg59
I00
sg60
g61
sbag1
(g2
g3
Ntp217
Rp218
(dp219
g7
VSpr DP Camper.png
p220
sg9
VCamper
p221
sg11
VLawrence
p222
sg13
V576
p223
sg15
g16
sg17
g18
sg19
g20
sg21
g22
sg23
(lp224
g1
(g25
g3
Ntp225
Rp226
(dp227
g29
V190
p228
sg31
VAipom
p229
sg33
g34
sg35
V34
p230
sg37
(lp231
Vfling
p232
aVlast-resort
p233
aVnasty-plot
p234
aVdouble-hit
p235
asg43
g44
sg45
Vrun-away
p236
sbag1
(g25
g3
Ntp237
Rp238
(dp239
g29
V419
p240
sg31
VFloatzel
p241
sg33
g34
sg35
V36
p242
sg37
(lp243
Vwhirlpool
p244
aVwater-sport
p245
aVice-fang
p246
aVaqua-jet
p247
asg43
g44
sg45
Vswift-swim
p248
sbasg59
I00
sg60
g61
sbag1
(g2
g3
Ntp249
Rp250
(dp251
g7
VSpr DP Picnicker.png
p252
sg9
VPicnicker
p253
sg11
VSummer
p254
sg13
V592
p255
sg15
g100
sg17
g18
sg19
g20
sg21
g22
sg23
(lp256
g1
(g25
g3
Ntp257
Rp258
(dp259
g29
V026
p260
sg31
VRaichu
p261
sg33
g177
sg35
V37
p262
sg37
(lp263
Vtail-whip
p264
aVthunder-shock
p265
aVthunderbolt
p266
aVquick-attack
p267
asg43
g44
sg45
Vstatic
p268
sbasg59
I00
sg60
g61
sbag1
(g2
g3
Ntp269
Rp270
(dp271
g7
VSpr DP Worker.png
p272
sg9
VWorker
p273
sg11
VNoel
p274
sg13
V1440
p275
sg15
g16
sg17
g18
sg19
g20
sg21
g22
sg23
(lp276
g1
(g25
g3
Ntp277
Rp278
(dp279
g29
V081
p280
sg31
VMagnemite
p281
sg33
VU
p282
sg35
V34
p283
sg37
(lp284
Vmagnet-rise
p285
aVmirror-shot
p286
aVdischarge
p287
aVmagnet-bomb
p288
asg43
g44
sg45
Vsturdy
p289
sbag1
(g25
g3
Ntp290
Rp291
(dp292
g29
V081
p293
sg31
VMagnemite
p294
sg33
g282
sg35
V36
p295
sg37
(lp296
Vmagnet-rise
p297
aVmirror-shot
p298
aVdischarge
p299
aVmagnet-bomb
p300
asg43
g44
sg45
Vmagnet-pull
p301
sbasg59
I00
sg60
g61
sbag1
(g2
g3
Ntp302
Rp303
(dp304
g7
VSpr DP Worker.png
p305
sg9
VWorker
p306
sg11
VBraden
p307
sg13
V1480
p308
sg15
g100
sg17
g18
sg19
g20
sg21
g22
sg23
(lp309
g1
(g25
g3
Ntp310
Rp311
(dp312
g29
V208
p313
sg31
VSteelix
p314
sg33
g34
sg35
V37
p315
sg37
(lp316
Vthunder-fang
p317
aVice-fang
p318
aVfire-fang
p319
aVstone-edge
p320
asg43
g44
sg45
Vrock-head
p321
sbasg59
I00
sg60
g61
sbag1
(g2
g3
Ntp322
Rp323
(dp324
g7
VSpr DP Hiker.png
p325
sg9
VHiker
p326
sg11
VMaurice
p327
sg13
V1120<br><small>Potential [[Double Battle]] with Damon</small>
p328
sg15
g16
sg17
g18
sg19
g20
sg21
g22
sg23
(lp329
g1
(g25
g3
Ntp330
Rp331
(dp332
g29
V075
p333
sg31
VGraveler
p334
sg33
g34
sg35
V35
p335
sg37
(lp336
Vrock-blast
p337
aVrock-polish
p338
ag338
aVstone-edge
p339
asg43
g44
sg45
Vrock-head
p340
sbag1
(g25
g3
Ntp341
Rp342
(dp343
g29
V111
p344
sg31
VRhyhorn
p345
sg33
g34
sg35
V35
p346
sg37
(lp347
Vscary-face
p348
aVmegahorn
p349
aVrock-blast
p350
aVstone-edge
p351
asg43
g44
sg45
Vlightning-rod
p352
sbasg59
I00
sg60
g61
sbag1
(g2
g3
Ntp353
Rp354
(dp355
g7
VSpr DP Black Belt.png
p356
sg9
VBlack Belt
p357
sg11
VKendal
p358
sg13
V912<br><small>Potential [[Double Battle]] with Tyler</small>
p359
sg15
g100
sg17
g18
sg19
g20
sg21
g22
sg23
(lp360
g1
(g25
g3
Ntp361
Rp362
(dp363
g29
V454
p364
sg31
VToxicroak
p365
sg33
g34
sg35
V38
p366
sg37
(lp367
Vsucker-punch
p368
aVpoison-jab
p369
aVnasty-plot
p370
aVmud-bomb
p371
asg43
g44
sg45
Vanticipation
p372
sbasg59
I00
sg60
g61
sbag1
(g2
g3
Ntp373
Rp374
(dp375
g7
VSpr DP Battle Girl.png
p376
sg9
VBattle Girl
p377
sg11
VTyler
p378
sg13
V608<br><small>Potential [[Double Battle]] with Kendal</small>
p379
sg15
g100
sg17
g18
sg19
g20
sg21
g22
sg23
(lp380
g1
(g25
g3
Ntp381
Rp382
(dp383
g29
V308
p384
sg31
VMedicham
p385
sg33
g177
sg35
V38
p386
sg37
(lp387
Vcalm-mind
p388
aVfeint
p389
aVpower-trick
p390
aVforce-palm
p391
asg43
g44
sg45
Vpure-power
p392
sbasg59
I00
sg60
g61
sbag1
(g2
g3
Ntp393
Rp394
(dp395
g7
VDP Riley Back.png
p396
sg9
VPokemon Trainer
p397
sg11
VRiley
p398
sg13
Vn/a
p399
sg15
I1
sg17
g18
sg19
g20
sg21
VSM
p400
sg23
(lp401
g1
(g25
g3
Ntp402
Rp403
(dp404
g29
I448
sg31
VLucario
p405
sg33
g34
sg35
g1
(cmwparserfromhell.wikicode
Wikicode
p406
g3
Ntp407
Rp408
(dp409
V_nodes
p410
g1
(cmwparserfromhell.smart_list.smart_list
SmartList
p411
c__builtin__
list
p412
(lp413
g1
(cmwparserfromhell.nodes.text
Text
p414
g3
Ntp415
Rp416
(dp417
V_value
p418
V34
p419
sbatp420
Rp421
(dp422
V_children
p423
(dp424
sbsbsg37
(lp425
VMetal Claw
p426
aVBone Rush
p427
aVForce Palm
p428
aVQuick Attack
p429
asg43
g44
sg45
VSteadfast
p430
sbasg59
I01
sg60
Vsun-moon
p431
sba.