(lp0
ccopy_reg
_reconstructor
p1
(c__main__
Trainer
p2
c__builtin__
object
p3
Ntp4
Rp5
(dp6
VtSprite
p7
VSpr RS Hiker.png
p8
sVtClass
p9
VHiker
p10
sVtName
p11
VEric
p12
sVtMoney
p13
V840
p14
sVtPokeCount
p15
V2
p16
sVtLocation
p17
Vwiki/Jagged_Pass
p18
sVtRegion
p19
VHoenn
p20
sVtGame
p21
VRS
p22
sVtPokes
p23
(lp24
g1
(c__main__
FinishedPokemon
p25
g3
Ntp26
Rp27
(dp28
VpDexNo
p29
V343
p30
sVpSpecies
p31
VBaltoy
p32
sVpGender
p33
VU
p34
sVpLevel
p35
V21
p36
sVpMoves
p37
(lp38
Vrapid-spin
p39
aVancient-power
p40
aVrock-tomb
p41
aVcosmic-power
p42
asVpHold
p43
V
p44
sVpAbility
p45
Vlevitate
p46
sbag1
(g25
g3
Ntp47
Rp48
(dp49
g29
V343
p50
sg31
VBaltoy
p51
sg33
g34
sg35
V21
p52
sg37
(lp53
Vrapid-spin
p54
aVancient-power
p55
aVrock-tomb
p56
aVcosmic-power
p57
asg43
g44
sg45
Vlevitate
p58
sbasVbossFlag
p59
I00
sVtLongGame
p60
Vruby-sapphire
p61
sbag1
(g2
g3
Ntp62
Rp63
(dp64
g7
VSpr RS Camper.png
p65
sg9
VCamper
p66
sg11
VEthan
p67
sg13
V336
p68
sg15
g16
sg17
g18
sg19
g20
sg21
g22
sg23
(lp69
g1
(g25
g3
Ntp70
Rp71
(dp72
g29
V263
p73
sg31
VZigzagoon
p74
sg33
VM
p75
sg35
V21
p76
sg37
(lp77
Vbelly-drum
p78
aVmud-sport
p79
aVodor-sleuth
p80
aVcovet
p81
asg43
g44
sg45
Vpickup
p82
sbag1
(g25
g3
Ntp83
Rp84
(dp85
g29
V276
p86
sg31
VTaillow
p87
sg33
g75
sg35
V21
p88
sg37
(lp89
Vdouble-team
p90
aVfocus-energy
p91
aVendeavor
p92
aVaerial-ace
p93
asg43
g44
sg45
Vguts
p94
sbasg59
I00
sg60
g61
sbag1
(g2
g3
Ntp95
Rp96
(dp97
g7
VSpr RS Picnicker.png
p98
sg9
VPicnicker
p99
sg11
VDiana
p100
sg13
V320
p101
sg15
V3
p102
sg17
g18
sg19
g20
sg21
g22
sg23
(lp103
g1
(g25
g3
Ntp104
Rp105
(dp106
g29
V285
p107
sg31
VShroomish
p108
sg33
VF
p109
sg35
V20
p110
sg37
(lp111
Vpoison-powder
p112
aVstun-spore
p113
aVspore
p114
aVgiga-drain
p115
asg43
g44
sg45
Vpoison-heal
p116
sbag1
(g25
g3
Ntp117
Rp118
(dp119
g29
V043
p120
sg31
VOddish
p121
sg33
g109
sg35
V20
p122
sg37
(lp123
Vsleep-powder
p124
aVpetal-dance
p125
aVsweet-scent
p126
aVmoonlight
p127
asg43
g44
sg45
Vchlorophyll
p128
sbag1
(g25
g3
Ntp129
Rp130
(dp131
g29
V333
p132
sg31
VSwablu
p133
sg33
g109
sg35
V20
p134
sg37
(lp135
Vperish-song
p136
aVsafeguard
p137
aVrefresh
p138
aVastonish
p139
asg43
g44
sg45
Vnatural-cure
p140
sbasg59
I00
sg60
g61
sbag1
(g2
g3
Ntp141
Rp142
(dp143
g7
VSpr RS Camper.png
p144
sg9
VCamper
p145
sg11
VEthan{{tt|*|First rematch}}
p146
sg13
V416
p147
sg15
g16
sg17
g18
sg19
g20
sg21
g22
sg23
(lp148
g1
(g25
g3
Ntp149
Rp150
(dp151
g29
V263
p152
sg31
VZigzagoon
p153
sg33
g75
sg35
V26
p154
sg37
(lp155
Vbelly-drum
p156
aVmud-sport
p157
aVodor-sleuth
p158
aVcovet
p159
asg43
g44
sg45
Vpickup
p160
sbag1
(g25
g3
Ntp161
Rp162
(dp163
g29
V276
p164
sg31
VTaillow
p165
sg33
g75
sg35
V26
p166
sg37
(lp167
Vdouble-team
p168
aVfocus-energy
p169
aVendeavor
p170
aVaerial-ace
p171
asg43
g44
sg45
Vguts
p172
sbasg59
I00
sg60
g61
sbag1
(g2
g3
Ntp173
Rp174
(dp175
g7
VSpr RS Camper.png
p176
sg9
VCamper
p177
sg11
VEthan{{tt|*|Second rematch}}
p178
sg13
V464
p179
sg15
g16
sg17
g18
sg19
g20
sg21
g22
sg23
(lp180
g1
(g25
g3
Ntp181
Rp182
(dp183
g29
V264
p184
sg31
VLinoone
p185
sg33
g75
sg35
V29
p186
sg37
(lp187
Vbelly-drum
p188
aVmud-sport
p189
aVodor-sleuth
p190
aVcovet
p191
asg43
g44
sg45
Vpickup
p192
sbag1
(g25
g3
Ntp193
Rp194
(dp195
g29
V277
p196
sg31
VSwellow
p197
sg33
g75
sg35
V29
p198
sg37
(lp199
Vfocus-energy
p200
ag200
aVendeavor
p201
aVaerial-ace
p202
asg43
g44
sg45
Vguts
p203
sbasg59
I00
sg60
g61
sbag1
(g2
g3
Ntp204
Rp205
(dp206
g7
VSpr RS Camper.png
p207
sg9
VCamper
p208
sg11
VEthan{{tt|*|Third rematch}}
p209
sg13
V496
p210
sg15
g102
sg17
g18
sg19
g20
sg21
g22
sg23
(lp211
g1
(g25
g3
Ntp212
Rp213
(dp214
g29
V027
p215
sg31
VSandshrew
p216
sg33
g75
sg35
V31
p217
sg37
(lp218
Vfury-swipes
p219
aVslash
p220
aVsandstorm
p221
aVsand-tomb
p222
asg43
g44
sg45
Vsand-veil
p223
sbag1
(g25
g3
Ntp224
Rp225
(dp226
g29
V264
p227
sg31
VLinoone
p228
sg33
g75
sg35
V31
p229
sg37
(lp230
Vbelly-drum
p231
aVmud-sport
p232
aVodor-sleuth
p233
aVcovet
p234
asg43
g44
sg45
Vpickup
p235
sbag1
(g25
g3
Ntp236
Rp237
(dp238
g29
V277
p239
sg31
VSwellow
p240
sg33
g75
sg35
V31
p241
sg37
(lp242
Vfocus-energy
p243
ag243
aVendeavor
p244
aVaerial-ace
p245
asg43
g44
sg45
Vguts
p246
sbasg59
I00
sg60
g61
sbag1
(g2
g3
Ntp247
Rp248
(dp249
g7
VSpr RS Camper.png
p250
sg9
VCamper
p251
sg11
VEthan{{tt|*|Third rematch}}
p252
sg13
V544
p253
sg15
g102
sg17
g18
sg19
g20
sg21
g22
sg23
(lp254
g1
(g25
g3
Ntp255
Rp256
(dp257
g29
V277
p258
sg31
VSwellow
p259
sg33
g75
sg35
V34
p260
sg37
(lp261
Vfocus-energy
p262
ag262
aVendeavor
p263
aVaerial-ace
p264
asg43
g44
sg45
Vguts
p265
sbag1
(g25
g3
Ntp266
Rp267
(dp268
g29
V028
p269
sg31
VSandslash
p270
sg33
g75
sg35
V34
p271
sg37
(lp272
Vfury-swipes
p273
aVslash
p274
aVsandstorm
p275
aVsand-tomb
p276
asg43
g44
sg45
Vsand-veil
p277
sbag1
(g25
g3
Ntp278
Rp279
(dp280
g29
V264
p281
sg31
VLinoone
p282
sg33
g75
sg35
V34
p283
sg37
(lp284
Vbelly-drum
p285
aVmud-sport
p286
aVodor-sleuth
p287
aVcovet
p288
asg43
g44
sg45
Vpickup
p289
sbasg59
I00
sg60
g61
sbag1
(g2
g3
Ntp290
Rp291
(dp292
g7
VSpr RS Picnicker.png
p293
sg9
VPicnicker
p294
sg11
VDiana{{tt|*|First rematch}}
p295
sg13
V400
p296
sg15
g102
sg17
g18
sg19
g20
sg21
g22
sg23
(lp297
g1
(g25
g3
Ntp298
Rp299
(dp300
g29
V285
p301
sg31
VShroomish
p302
sg33
g109
sg35
V25
p303
sg37
(lp304
Vpoison-powder
p305
aVstun-spore
p306
aVspore
p307
aVgiga-drain
p308
asg43
g44
sg45
Vpoison-heal
p309
sbag1
(g25
g3
Ntp310
Rp311
(dp312
g29
V044
p313
sg31
VGloom
p314
sg33
g109
sg35
V25
p315
sg37
(lp316
Vpetal-dance
p317
aVsweet-scent
p318
ag318
aVmoonlight
p319
asg43
g44
sg45
Vchlorophyll
p320
sbag1
(g25
g3
Ntp321
Rp322
(dp323
g29
V333
p324
sg31
VSwablu
p325
sg33
g109
sg35
V25
p326
sg37
(lp327
Vperish-song
p328
aVsafeguard
p329
aVrefresh
p330
aVastonish
p331
asg43
g44
sg45
Vnatural-cure
p332
sbasg59
I00
sg60
g61
sbag1
(g2
g3
Ntp333
Rp334
(dp335
g7
VSpr RS Picnicker.png
p336
sg9
VPicnicker
p337
sg11
VDiana{{tt|*|Second and third rematch}}
p338
sg13
g1
(cmwparserfromhell.wikicode
Wikicode
p339
g3
Ntp340
Rp341
(dp342
V_nodes
p343
g1
(cmwparserfromhell.smart_list.smart_list
SmartList
p344
c__builtin__
list
p345
(lp346
g1
(cmwparserfromhell.nodes.text
Text
p347
g3
Ntp348
Rp349
(dp350
V_value
p351
V448
p352
sbatp353
Rp354
(dp355
V_children
p356
(dp357
sbsbsg15
g102
sg17
g18
sg19
g20
sg21
g22
sg23
(lp358
g1
(g25
g3
Ntp359
Rp360
(dp361
g29
V286
p362
sg31
VBreloom
p363
sg33
g109
sg35
V28
p364
sg37
(lp365
Vmind-reader
p366
aVmach-punch
p367
aVdynamic-punch
p368
aVsky-uppercut
p369
asg43
g44
sg45
Veffect-spore
p370
sbag1
(g25
g3
Ntp371
Rp372
(dp373
g29
V044
p374
sg31
VGloom
p375
sg33
g109
sg35
V28
p376
sg37
(lp377
Vpetal-dance
p378
aVsweet-scent
p379
ag379
aVmoonlight
p380
asg43
g44
sg45
Vchlorophyll
p381
sbag1
(g25
g3
Ntp382
Rp383
(dp384
g29
V333
p385
sg31
VSwablu
p386
sg33
g109
sg35
V28
p387
sg37
(lp388
Vperish-song
p389
aVsafeguard
p390
aVrefresh
p391
aVastonish
p392
asg43
g44
sg45
Vnatural-cure
p393
sbasg59
I00
sg60
g61
sbag1
(g2
g3
Ntp394
Rp395
(dp396
g7
VSpr RS Picnicker.png
p397
sg9
VPicnicker
p398
sg11
VDiana{{tt|*|Fourth rematch onwards}}
p399
sg13
V640
p400
sg15
g102
sg17
g18
sg19
g20
sg21
g22
sg23
(lp401
g1
(g25
g3
Ntp402
Rp403
(dp404
g29
V286
p405
sg31
VBreloom
p406
sg33
g109
sg35
V40
p407
sg37
(lp408
Vmind-reader
p409
aVmach-punch
p410
aVdynamic-punch
p411
aVsky-uppercut
p412
asg43
g44
sg45
Vpoison-heal
p413
sbag1
(g25
g3
Ntp414
Rp415
(dp416
g29
V045
p417
sg31
VVileplume
p418
sg33
g109
sg35
V40
p419
sg37
(lp420
Vmega-drain
p421
aVstun-spore
p422
aVpetal-dance
p423
aVaromatherapy
p424
asg43
g44
sg45
Vchlorophyll
p425
sbag1
(g25
g3
Ntp426
Rp427
(dp428
g29
V334
p429
sg31
VAltaria
p430
sg33
g109
sg35
V40
p431
sg37
(lp432
Vrefresh
p433
aVastonish
p434
ag434
aVdragon-dance
p435
asg43
g44
sg45
Vnatural-cure
p436
sbasg59
I00
sg60
g61
sbag1
(g2
g3
Ntp437
Rp438
(dp439
g7
VSpr RS Hiker.png
p440
sg9
VHiker
p441
sg11
VEric
p442
sg13
V800
p443
sg15
g16
sg17
g18
sg19
g20
sg21
g22
sg23
(lp444
g1
(g25
g3
Ntp445
Rp446
(dp447
g29
V074
p448
sg31
VGeodude
p449
sg33
g75
sg35
V20
p450
sg37
(lp451
Vrollout
p452
aVmagnitude
p453
aVmud-sport
p454
aVrock-blast
p455
asg43
g44
sg45
Vsturdy
p456
sbag1
(g25
g3
Ntp457
Rp458
(dp459
g29
V343
p460
sg31
VBaltoy
p461
sg33
g34
sg35
V20
p462
sg37
(lp463
Vrapid-spin
p464
aVancient-power
p465
aVrock-tomb
p466
aVcosmic-power
p467
asg43
g44
sg45
Vlevitate
p468
sbasg59
I00
sg60
g61
sbag1
(g2
g3
Ntp469
Rp470
(dp471
g7
VSpr RS Team Magma Grunt M.png
p472
sg9
VTeam Magma Grunt
p473
sg11
g44
sg13
V440<br><small>Only before obtaining the [[Magma Emblem]]</small>
p474
sg15
g16
sg17
g18
sg19
g20
sg21
g22
sg23
(lp475
g1
(g25
g3
Ntp476
Rp477
(dp478
g29
V261
p479
sg31
VPoochyena
p480
sg33
g75
sg35
V22
p481
sg37
(lp482
Vcrunch
p483
aVtaunt
p484
aVodor-sleuth
p485
aVhowl
p486
asg43
g44
sg45
Vrun-away
p487
sbag1
(g25
g3
Ntp488
Rp489
(dp490
g29
V322
p491
sg31
VNumel
p492
sg33
g75
sg35
V22
p493
sg37
(lp494
Vearthquake
p495
aVfocus-energy
p496
aVamnesia
p497
aVmagnitude
p498
asg43
g44
sg45
Vsimple
p499
sbasg59
I00
sg60
g61
sbag1
(g2
g3
Ntp500
Rp501
(dp502
g7
VSpr RS Picnicker.png
p503
sg9
VPicnicker
p504
sg11
VDiana
p505
sg13
V304
p506
sg15
g102
sg17
g18
sg19
g20
sg21
g22
sg23
(lp507
g1
(g25
g3
Ntp508
Rp509
(dp510
g29
V285
p511
sg31
VShroomish
p512
sg33
g109
sg35
V19
p513
sg37
(lp514
Vpoison-powder
p515
aVstun-spore
p516
aVspore
p517
aVgiga-drain
p518
asg43
g44
sg45
Veffect-spore
p519
sbag1
(g25
g3
Ntp520
Rp521
(dp522
g29
V043
p523
sg31
VOddish
p524
sg33
g109
sg35
V19
p525
sg37
(lp526
Vsleep-powder
p527
aVpetal-dance
p528
aVsweet-scent
p529
aVmoonlight
p530
asg43
g44
sg45
Vchlorophyll
p531
sbag1
(g25
g3
Ntp532
Rp533
(dp534
g29
V333
p535
sg31
VSwablu
p536
sg33
g109
sg35
V19
p537
sg37
(lp538
Vperish-song
p539
aVsafeguard
p540
aVrefresh
p541
aVastonish
p542
asg43
g44
sg45
Vnatural-cure
p543
sbasg59
I00
sg60
g61
sbag1
(g2
g3
Ntp544
Rp545
(dp546
g7
VSpr RS Picnicker.png
p547
sg9
VPicnicker
p548
sg11
VAutumn
p549
sg13
V336<br><small>Potential [[Double Battle]] with Julio</small>
p550
sg15
V1
p551
sg17
g18
sg19
g20
sg21
g22
sg23
(lp552
g1
(g25
g3
Ntp553
Rp554
(dp555
g29
V285
p556
sg31
VShroomish
p557
sg33
g109
sg35
V21
p558
sg37
(lp559
Vpoison-powder
p560
aVstun-spore
p561
aVspore
p562
aVgiga-drain
p563
asg43
g44
sg45
Vpoison-heal
p564
sbasg59
I00
sg60
g61
sbag1
(g2
g3
Ntp565
Rp566
(dp567
g7
VSpr RS Triathlete Biker M.png
p568
sg9
VTriathlete
p569
sg11
VJulio
p570
sg13
V840<br><small>Potential [[Double Battle]] with Autumn</small>
p571
sg15
g551
sg17
g18
sg19
g20
sg21
g22
sg23
(lp572
g1
(g25
g3
Ntp573
Rp574
(dp575
g29
V081
p576
sg31
VMagnemite
p577
sg33
g34
sg35
V21
p578
sg37
(lp579
Vzap-cannon
p580
aVlock-on
p581
aVspark
p582
aVmetal-sound
p583
asg43
g44
sg45
Vmagnet-pull
p584
sbasg59
I00
sg60
g61
sbag1
(g2
g3
Ntp585
Rp586
(dp587
g7
VSpr RS Camper.png
p588
sg9
VCamper
p589
sg11
VEthan
p590
sg13
V320
p591
sg15
g16
sg17
g18
sg19
g20
sg21
g22
sg23
(lp592
g1
(g25
g3
Ntp593
Rp594
(dp595
g29
V263
p596
sg31
VZigzagoon
p597
sg33
g75
sg35
V20
p598
sg37
(lp599
Vbelly-drum
p600
aVmud-sport
p601
aVodor-sleuth
p602
aVcovet
p603
asg43
g44
sg45
Vgluttony
p604
sbag1
(g25
g3
Ntp605
Rp606
(dp607
g29
V276
p608
sg31
VTaillow
p609
sg33
g75
sg35
V20
p610
sg37
(lp611
Vdouble-team
p612
aVfocus-energy
p613
aVendeavor
p614
aVaerial-ace
p615
asg43
g44
sg45
Vguts
p616
sbasg59
I00
sg60
g61
sbag1
(g2
g3
Ntp617
Rp618
(dp619
g7
VSpr RS Picnicker.png
p620
sg9
VPicnicker
p621
sg11
VDiana{{tt|*|First rematch}}
p622
sg13
V400
p623
sg15
g102
sg17
g18
sg19
g20
sg21
g22
sg23
(lp624
g1
(g25
g3
Ntp625
Rp626
(dp627
g29
V285
p628
sg31
VShroomish
p629
sg33
g109
sg35
V25
p630
sg37
(lp631
Vpoison-powder
p632
aVstun-spore
p633
aVspore
p634
aVgiga-drain
p635
asg43
g44
sg45
Vpoison-heal
p636
sbag1
(g25
g3
Ntp637
Rp638
(dp639
g29
V044
p640
sg31
VGloom
p641
sg33
g109
sg35
V25
p642
sg37
(lp643
Vpetal-dance
p644
aVsweet-scent
p645
ag645
aVmoonlight
p646
asg43
g44
sg45
Vchlorophyll
p647
sbag1
(g25
g3
Ntp648
Rp649
(dp650
g29
V333
p651
sg31
VSwablu
p652
sg33
g109
sg35
V25
p653
sg37
(lp654
Vperish-song
p655
aVsafeguard
p656
aVrefresh
p657
aVastonish
p658
asg43
g44
sg45
Vnatural-cure
p659
sbasg59
I00
sg60
g61
sbag1
(g2
g3
Ntp660
Rp661
(dp662
g7
VSpr RS Picnicker.png
p663
sg9
VPicnicker
p664
sg11
VDiana{{tt|*|Second and third rematch}}
p665
sg13
g1
(g339
g3
Ntp666
Rp667
(dp668
g343
g1
(g344
g345
(lp669
g1
(g347
g3
Ntp670
Rp671
(dp672
g351
V448
p673
sbatp674
Rp675
(dp676
g356
(dp677
sbsbsg15
g102
sg17
g18
sg19
g20
sg21
g22
sg23
(lp678
g1
(g25
g3
Ntp679
Rp680
(dp681
g29
V286
p682
sg31
VBreloom
p683
sg33
g109
sg35
V28
p684
sg37
(lp685
Vmind-reader
p686
aVmach-punch
p687
aVdynamic-punch
p688
aVsky-uppercut
p689
asg43
g44
sg45
Veffect-spore
p690
sbag1
(g25
g3
Ntp691
Rp692
(dp693
g29
V044
p694
sg31
VGloom
p695
sg33
g109
sg35
V28
p696
sg37
(lp697
Vpetal-dance
p698
aVsweet-scent
p699
ag699
aVmoonlight
p700
asg43
g44
sg45
Vchlorophyll
p701
sbag1
(g25
g3
Ntp702
Rp703
(dp704
g29
V333
p705
sg31
VSwablu
p706
sg33
g109
sg35
V28
p707
sg37
(lp708
Vperish-song
p709
aVsafeguard
p710
aVrefresh
p711
aVastonish
p712
asg43
g44
sg45
Vnatural-cure
p713
sbasg59
I00
sg60
g61
sbag1
(g2
g3
Ntp714
Rp715
(dp716
g7
VSpr RS Picnicker.png
p717
sg9
VPicnicker
p718
sg11
VDiana{{tt|*|Fourth rematch onwards}}
p719
sg13
V640
p720
sg15
g102
sg17
g18
sg19
g20
sg21
g22
sg23
(lp721
g1
(g25
g3
Ntp722
Rp723
(dp724
g29
V286
p725
sg31
VBreloom
p726
sg33
g109
sg35
V40
p727
sg37
(lp728
Vmind-reader
p729
aVmach-punch
p730
aVdynamic-punch
p731
aVsky-uppercut
p732
asg43
g44
sg45
Vpoison-heal
p733
sbag1
(g25
g3
Ntp734
Rp735
(dp736
g29
V045
p737
sg31
VVileplume
p738
sg33
g109
sg35
V40
p739
sg37
(lp740
Vmega-drain
p741
aVstun-spore
p742
aVpetal-dance
p743
aVaromatherapy
p744
asg43
g44
sg45
Vchlorophyll
p745
sbag1
(g25
g3
Ntp746
Rp747
(dp748
g29
V334
p749
sg31
VAltaria
p750
sg33
g109
sg35
V40
p751
sg37
(lp752
Vrefresh
p753
aVastonish
p754
ag754
aVdragon-dance
p755
asg43
g44
sg45
Vnatural-cure
p756
sbasg59
I00
sg60
g61
sbag1
(g2
g3
Ntp757
Rp758
(dp759
g7
VSpr RS Camper.png
p760
sg9
VCamper
p761
sg11
VEthan{{tt|*|First rematch}}
p762
sg13
V416
p763
sg15
g16
sg17
g18
sg19
g20
sg21
g22
sg23
(lp764
g1
(g25
g3
Ntp765
Rp766
(dp767
g29
V263
p768
sg31
VZigzagoon
p769
sg33
g75
sg35
V26
p770
sg37
(lp771
Vbelly-drum
p772
aVmud-sport
p773
aVodor-sleuth
p774
aVcovet
p775
asg43
g44
sg45
Vgluttony
p776
sbag1
(g25
g3
Ntp777
Rp778
(dp779
g29
V276
p780
sg31
VTaillow
p781
sg33
g75
sg35
V26
p782
sg37
(lp783
Vdouble-team
p784
aVfocus-energy
p785
aVendeavor
p786
aVaerial-ace
p787
asg43
g44
sg45
Vguts
p788
sbasg59
I00
sg60
g61
sbag1
(g2
g3
Ntp789
Rp790
(dp791
g7
VSpr RS Camper.png
p792
sg9
VCamper
p793
sg11
VEthan{{tt|*|Second rematch}}
p794
sg13
V464
p795
sg15
g16
sg17
g18
sg19
g20
sg21
g22
sg23
(lp796
g1
(g25
g3
Ntp797
Rp798
(dp799
g29
V264
p800
sg31
VLinoone
p801
sg33
g75
sg35
V29
p802
sg37
(lp803
Vbelly-drum
p804
aVmud-sport
p805
aVodor-sleuth
p806
aVcovet
p807
asg43
g44
sg45
Vgluttony
p808
sbag1
(g25
g3
Ntp809
Rp810
(dp811
g29
V277
p812
sg31
VSwellow
p813
sg33
g75
sg35
V29
p814
sg37
(lp815
Vfocus-energy
p816
ag816
aVendeavor
p817
aVaerial-ace
p818
asg43
g44
sg45
Vguts
p819
sbasg59
I00
sg60
g61
sbag1
(g2
g3
Ntp820
Rp821
(dp822
g7
VSpr RS Camper.png
p823
sg9
VCamper
p824
sg11
VEthan{{tt|*|Third rematch}}
p825
sg13
V496
p826
sg15
g102
sg17
g18
sg19
g20
sg21
g22
sg23
(lp827
g1
(g25
g3
Ntp828
Rp829
(dp830
g29
V027
p831
sg31
VSandshrew
p832
sg33
g75
sg35
V31
p833
sg37
(lp834
Vfury-swipes
p835
aVslash
p836
aVsandstorm
p837
aVsand-tomb
p838
asg43
g44
sg45
Vsand-veil
p839
sbag1
(g25
g3
Ntp840
Rp841
(dp842
g29
V277
p843
sg31
VSwellow
p844
sg33
g75
sg35
V31
p845
sg37
(lp846
Vfocus-energy
p847
ag847
aVendeavor
p848
aVaerial-ace
p849
asg43
g44
sg45
Vguts
p850
sbag1
(g25
g3
Ntp851
Rp852
(dp853
g29
V264
p854
sg31
VLinoone
p855
sg33
g75
sg35
V31
p856
sg37
(lp857
Vbelly-drum
p858
aVmud-sport
p859
aVodor-sleuth
p860
aVcovet
p861
asg43
g44
sg45
Vpickup
p862
sbasg59
I00
sg60
g61
sbag1
(g2
g3
Ntp863
Rp864
(dp865
g7
VSpr RS Camper.png
p866
sg9
VCamper
p867
sg11
VEthan{{tt|*|Fourth rematch onwards}}
p868
sg13
V544
p869
sg15
g102
sg17
g18
sg19
g20
sg21
g22
sg23
(lp870
g1
(g25
g3
Ntp871
Rp872
(dp873
g29
V277
p874
sg31
VSwellow
p875
sg33
g75
sg35
V34
p876
sg37
(lp877
Vfocus-energy
p878
ag878
aVendeavor
p879
aVaerial-ace
p880
asg43
g44
sg45
Vguts
p881
sbag1
(g25
g3
Ntp882
Rp883
(dp884
g29
V028
p885
sg31
VSandslash
p886
sg33
g75
sg35
V34
p887
sg37
(lp888
Vfury-swipes
p889
aVslash
p890
aVsandstorm
p891
aVsand-tomb
p892
asg43
g44
sg45
Vsand-veil
p893
sbag1
(g25
g3
Ntp894
Rp895
(dp896
g29
V264
p897
sg31
VLinoone
p898
sg33
g75
sg35
V34
p899
sg37
(lp900
Vbelly-drum
p901
aVmud-sport
p902
aVodor-sleuth
p903
aVcovet
p904
asg43
g44
sg45
Vgluttony
p905
sbasg59
I00
sg60
g61
sbag1
(g2
g3
Ntp906
Rp907
(dp908
g7
VVSExpert F.png
p909
sg9
VExpert
p910
sg11
VShelby
p911
sg13
V2080
p912
sg15
g16
sg17
g18
sg19
g20
sg21
VSM
p913
sg23
(lp914
g1
(g25
g3
Ntp915
Rp916
(dp917
g29
V307
p918
sg31
VMeditite
p919
sg33
g109
sg35
V24
p920
sg37
(lp921
Vfeint
p922
aVacupressure
p923
aVpower-trick
p924
aVforce-palm
p925
asg43
g44
sg45
Vpure-power
p926
sbag1
(g25
g3
Ntp927
Rp928
(dp929
g29
V297
p930
sg31
VHariyama
p931
sg33
g75
sg35
V26
p932
sg37
(lp933
Vbrine
p934
aVclose-combat
p935
aVforce-palm
p936
aVheavy-slam
p937
asg43
g44
sg45
Vguts
p938
sbasg59
I00
sg60
Vsun-moon
p939
sbag1
(g2
g3
Ntp940
Rp941
(dp942
g7
VVSHiker.png
p943
sg9
VHiker
p944
sg11
VEric
p945
sg13
V800
p946
sg15
g551
sg17
g18
sg19
g20
sg21
VSM
p947
sg23
(lp948
g1
(g25
g3
Ntp949
Rp950
(dp951
g29
V075
p952
sg31
VGraveler
p953
sg33
g75
sg35
V25
p954
sg37
(lp955
Vstone-edge
p956
aVstealth-rock
p957
aVsmack-down
p958
aVbulldoze
p959
asg43
g44
sg45
Vrock-head
p960
sbasg59
I00
sg60
g939
sbag1
(g2
g3
Ntp961
Rp962
(dp963
g7
VVSCamper.png
p964
sg9
VCamper
p965
sg11
VEthan
p966
sg13
V384
p967
sg15
g551
sg17
g18
sg19
g20
sg21
VSM
p968
sg23
(lp969
g1
(g25
g3
Ntp970
Rp971
(dp972
g29
V316
p973
sg31
VGulpin
p974
sg33
g75
sg35
V24
p975
sg37
(lp976
Vgastro-acid
p977
aVgunk-shot
p978
aVacid-spray
p979
aVbelch
p980
asg43
g44
sg45
Vliquid-ooze
p981
sbasg59
I00
sg60
g939
sbag1
(g2
g3
Ntp982
Rp983
(dp984
g7
VVSFairy Tale Girl.png
p985
sg9
VFairy Tale Girl
p986
sg11
VNellie
p987
sg13
V368
p988
sg15
g16
sg17
g18
sg19
g20
sg21
VSM
p989
sg23
(lp990
g1
(g25
g3
Ntp991
Rp992
(dp993
g29
V300
p994
sg31
VSkitty
p995
sg33
g109
sg35
V21
p996
sg37
(lp997
Vcopycat
p998
aVcaptivate
p999
aVdisarming-voice
p1000
aVplay-rough
p1001
asg43
g44
sg45
Vcute-charm
p1002
sbag1
(g25
g3
Ntp1003
Rp1004
(dp1005
g29
V039
p1006
sg31
VJigglypuff
p1007
sg33
g109
sg35
V23
p1008
sg37
(lp1009
Vgyro-ball
p1010
aVround
p1011
aVdisarming-voice
p1012
aVplay-nice
p1013
asg43
g44
sg45
Vcute-charm
p1014
sbasg59
I00
sg60
g939
sbag1
(g2
g3
Ntp1015
Rp1016
(dp1017
g7
VVSPicnicker.png
p1018
sg9
VPicnicker
p1019
sg11
VDiana
p1020
sg13
V352
p1021
sg15
g16
sg17
g18
sg19
g20
sg21
VSM
p1022
sg23
(lp1023
g1
(g25
g3
Ntp1024
Rp1025
(dp1026
g29
V044
p1027
sg31
VGloom
p1028
sg33
g109
sg35
V22
p1029
sg37
(lp1030
Vnatural-gift
p1031
aVlucky-chant
p1032
aVpetal-blizzard
p1033
aVgrassy-terrain
p1034
asg43
g44
sg45
Vchlorophyll
p1035
sbag1
(g25
g3
Ntp1036
Rp1037
(dp1038
g29
V333
p1039
sg31
VSwablu
p1040
sg33
g109
sg35
V22
p1041
sg37
(lp1042
Vround
p1043
aVcotton-guard
p1044
aVdisarming-voice
p1045
aVmoonblast
p1046
asg43
g44
sg45
Vnatural-cure
p1047
sbasg59
I00
sg60
g939
sbag1
(g2
g3
Ntp1048
Rp1049
(dp1050
g7
VVSExpert F.png
p1051
sg9
VExpert
p1052
sg11
VShelby
p1053
sg13
V2,800<br><small>After earning the {{badge|Feather}}</small>
p1054
sg15
g16
sg17
g18
sg19
g20
sg21
g913
sg23
(lp1055
g1
(g25
g3
Ntp1056
Rp1057
(dp1058
g29
V307
p1059
sg31
VMeditite
p1060
sg33
g109
sg35
V33
p1061
sg37
(lp1062
Vfeint
p1063
aVacupressure
p1064
aVpower-trick
p1065
aVforce-palm
p1066
asg43
g44
sg45
Vpure-power
p1067
sbag1
(g25
g3
Ntp1068
Rp1069
(dp1070
g29
V297
p1071
sg31
VHariyama
p1072
sg33
g75
sg35
V35
p1073
sg37
(lp1074
Vbrine
p1075
aVclose-combat
p1076
aVforce-palm
p1077
aVheavy-slam
p1078
asg43
g44
sg45
Vguts
p1079
sbasg59
I00
sg60
g939
sbag1
(g2
g3
Ntp1080
Rp1081
(dp1082
g7
VVSExpert F.png
p1083
sg9
VExpert
p1084
sg11
VShelby
p1085
sg13
V3,360<br><small>After earning the {{badge|Mind}}</small>
p1086
sg15
g16
sg17
g18
sg19
g20
sg21
g913
sg23
(lp1087
g1
(g25
g3
Ntp1088
Rp1089
(dp1090
g29
V308
p1091
sg31
VMedicham
p1092
sg33
g109
sg35
V40
p1093
sg37
(lp1094
Vacupressure
p1095
aVpower-trick
p1096
aVforce-palm
p1097
aVzen-headbutt
p1098
asg43
g44
sg45
Vpure-power
p1099
sbag1
(g25
g3
Ntp1100
Rp1101
(dp1102
g29
V297
p1103
sg31
VHariyama
p1104
sg33
g75
sg35
V42
p1105
sg37
(lp1106
Vbrine
p1107
aVclose-combat
p1108
aVforce-palm
p1109
aVheavy-slam
p1110
asg43
g44
sg45
Vthick-fat
p1111
sbasg59
I00
sg60
g939
sbag1
(g2
g3
Ntp1112
Rp1113
(dp1114
g7
VVSExpert F.png
p1115
sg9
VExpert
p1116
sg11
VShelby
p1117
sg13
V3,520<br><small>After earning the {{badge|Rain}}</small>
p1118
sg15
g102
sg17
g18
sg19
g20
sg21
g913
sg23
(lp1119
g1
(g25
g3
Ntp1120
Rp1121
(dp1122
g29
V447
p1123
sg31
VRiolu
p1124
sg33
g75
sg35
V44
p1125
sg37
(lp1126
Vcopycat
p1127
aVforce-palm
p1128
aVnasty-plot
p1129
aVfinal-gambit
p1130
asg43
g44
sg45
Vsteadfast
p1131
sbag1
(g25
g3
Ntp1132
Rp1133
(dp1134
g29
V308
p1135
sg31
VMedicham
p1136
sg33
g109
sg35
V44
p1137
sg37
(lp1138
Vacupressure
p1139
aVpower-trick
p1140
aVforce-palm
p1141
aVzen-headbutt
p1142
asg43
g44
sg45
Vpure-power
p1143
sbag1
(g25
g3
Ntp1144
Rp1145
(dp1146
g29
V297
p1147
sg31
VHariyama
p1148
sg33
g75
sg35
V44
p1149
sg37
(lp1150
Vbrine
p1151
aVclose-combat
p1152
aVforce-palm
p1153
aVheavy-slam
p1154
asg43
g44
sg45
Vguts
p1155
sbasg59
I00
sg60
g939
sbag1
(g2
g3
Ntp1156
Rp1157
(dp1158
g7
VVSExpert F.png
p1159
sg9
VExpert
p1160
sg11
VShelby
p1161
sg13
V4,480<br><small>After entering the [[Hall of Fame]]</small>
p1162
sg15
g102
sg17
g18
sg19
g20
sg21
g913
sg23
(lp1163
g1
(g25
g3
Ntp1164
Rp1165
(dp1166
g29
V308
p1167
sg31
VMedicham
p1168
sg33
g109
sg35
V54
p1169
sg37
(lp1170
Vacupressure
p1171
aVpower-trick
p1172
aVforce-palm
p1173
aVzen-headbutt
p1174
asg43
g44
sg45
Vpure-power
p1175
sbag1
(g25
g3
Ntp1176
Rp1177
(dp1178
g29
V297
p1179
sg31
VHariyama
p1180
sg33
g75
sg35
V55
p1181
sg37
(lp1182
Vbrine
p1183
aVclose-combat
p1184
aVforce-palm
p1185
aVheavy-slam
p1186
asg43
g44
sg45
Vthick-fat
p1187
sbag1
(g25
g3
Ntp1188
Rp1189
(dp1190
g29
V448
p1191
sg31
VLucario
p1192
sg33
g75
sg35
V56
p1193
sg37
(lp1194
Vheal-pulse
p1195
aVwork-up
p1196
aVpower-up-punch
p1197
aVlaser-focus
p1198
asg43
g44
sg45
Vinner-focus
p1199
sbasg59
I00
sg60
g939
sbag1
(g2
g3
Ntp1200
Rp1201
(dp1202
g7
VVSCamper.png
p1203
sg9
VCamper
p1204
sg11
VEthan
p1205
sg13
V448<br><small>After earning the {{badge|Balance}}</small>
p1206
sg15
g551
sg17
g18
sg19
g20
sg21
g968
sg23
(lp1207
g1
(g25
g3
Ntp1208
Rp1209
(dp1210
g29
V317
p1211
sg31
VSwalot
p1212
sg33
g75
sg35
V28
p1213
sg37
(lp1214
Vgunk-shot
p1215
aVacid-spray
p1216
aVbelch
p1217
aVvenom-drench
p1218
asg43
g44
sg45
Vsticky-hold
p1219
sbasg59
I00
sg60
g939
sbag1
(g2
g3
Ntp1220
Rp1221
(dp1222
g7
VVSCamper.png
p1223
sg9
VCamper
p1224
sg11
VEthan
p1225
sg13
V496<br><small>After earning the {{badge|Feather}}</small>
p1226
sg15
g16
sg17
g18
sg19
g20
sg21
g968
sg23
(lp1227
g1
(g25
g3
Ntp1228
Rp1229
(dp1230
g29
V317
p1231
sg31
VSwalot
p1232
sg33
g75
sg35
V31
p1233
sg37
(lp1234
Vgunk-shot
p1235
aVacid-spray
p1236
aVbelch
p1237
aVvenom-drench
p1238
asg43
g44
sg45
Vliquid-ooze
p1239
sbag1
(g25
g3
Ntp1240
Rp1241
(dp1242
g29
V042
p1243
sg31
VGolbat
p1244
sg33
g75
sg35
V31
p1245
sg37
(lp1246
Vair-cutter
p1247
aVair-slash
p1248
aVvenoshock
p1249
aVquick-guard
p1250
asg43
g44
sg45
Vinner-focus
p1251
sbasg59
I00
sg60
g939
sbag1
(g2
g3
Ntp1252
Rp1253
(dp1254
g7
VVSCamper.png
p1255
sg9
VCamper
p1256
sg11
VEthan
p1257
sg13
V608<br><small>After earning the {{badge|Mind}}</small>
p1258
sg15
g16
sg17
g18
sg19
g20
sg21
g968
sg23
(lp1259
g1
(g25
g3
Ntp1260
Rp1261
(dp1262
g29
V317
p1263
sg31
VSwalot
p1264
sg33
g75
sg35
V38
p1265
sg37
(lp1266
Vgunk-shot
p1267
aVacid-spray
p1268
aVbelch
p1269
aVvenom-drench
p1270
asg43
g44
sg45
Vsticky-hold
p1271
sbag1
(g25
g3
Ntp1272
Rp1273
(dp1274
g29
V042
p1275
sg31
VGolbat
p1276
sg33
g75
sg35
V38
p1277
sg37
(lp1278
Vair-cutter
p1279
aVair-slash
p1280
aVvenoshock
p1281
aVquick-guard
p1282
asg43
g44
sg45
Vinner-focus
p1283
sbasg59
I00
sg60
g939
sbag1
(g2
g3
Ntp1284
Rp1285
(dp1286
g7
VVSCamper.png
p1287
sg9
VCamper
p1288
sg11
VEthan
p1289
sg13
V752<br><small>After entering the [[Hall of Fame]]</small>
p1290
sg15
g102
sg17
g18
sg19
g20
sg21
g968
sg23
(lp1291
g1
(g25
g3
Ntp1292
Rp1293
(dp1294
g29
V317
p1295
sg31
VSwalot
p1296
sg33
g75
sg35
V47
p1297
sg37
(lp1298
Vgunk-shot
p1299
aVacid-spray
p1300
aVbelch
p1301
aVvenom-drench
p1302
asg43
g44
sg45
Vliquid-ooze
p1303
sbag1
(g25
g3
Ntp1304
Rp1305
(dp1306
g29
V435
p1307
sg31
VSkuntank
p1308
sg33
g75
sg35
V47
p1309
sg37
(lp1310
Vnight-slash
p1311
aVacid-spray
p1312
aVbelch
p1313
aVvenom-drench
p1314
asg43
g44
sg45
Vaftermath
p1315
sbag1
(g25
g3
Ntp1316
Rp1317
(dp1318
g29
V169
p1319
sg31
VCrobat
p1320
sg33
g75
sg35
V47
p1321
sg37
(lp1322
Vair-slash
p1323
aVcross-poison
p1324
aVvenoshock
p1325
aVquick-guard
p1326
asg43
g44
sg45
Vinner-focus
p1327
sbasg59
I00
sg60
g939
sbag1
(g2
g3
Ntp1328
Rp1329
(dp1330
g7
VVSPicnicker.png
p1331
sg9
VPicnicker
p1332
sg11
VDiana
p1333
sg13
V416<br><small>After earning the {{badge|Balance}}</small>
p1334
sg15
g16
sg17
g18
sg19
g20
sg21
g1022
sg23
(lp1335
g1
(g25
g3
Ntp1336
Rp1337
(dp1338
g29
V044
p1339
sg31
VGloom
p1340
sg33
g109
sg35
V26
p1341
sg37
(lp1342
Vnatural-gift
p1343
aVlucky-chant
p1344
aVpetal-blizzard
p1345
aVgrassy-terrain
p1346
asg43
g44
sg45
Vchlorophyll
p1347
sbag1
(g25
g3
Ntp1348
Rp1349
(dp1350
g29
V333
p1351
sg31
VSwablu
p1352
sg33
g109
sg35
V26
p1353
sg37
(lp1354
Vround
p1355
aVcotton-guard
p1356
aVdisarming-voice
p1357
aVmoonblast
p1358
asg43
g44
sg45
Vnatural-cure
p1359
sbasg59
I00
sg60
g939
sbag1
(g2
g3
Ntp1360
Rp1361
(dp1362
g7
VVSPicnicker.png
p1363
sg9
VPicnicker
p1364
sg11
VDiana
p1365
sg13
V496<br><small>After earning the {{badge|Feather}}</small>
p1366
sg15
g16
sg17
g18
sg19
g20
sg21
g1022
sg23
(lp1367
g1
(g25
g3
Ntp1368
Rp1369
(dp1370
g29
V044
p1371
sg31
VGloom
p1372
sg33
g109
sg35
V31
p1373
sg37
(lp1374
Vnatural-gift
p1375
aVlucky-chant
p1376
aVpetal-blizzard
p1377
aVgrassy-terrain
p1378
asg43
g44
sg45
Vchlorophyll
p1379
sbag1
(g25
g3
Ntp1380
Rp1381
(dp1382
g29
V333
p1383
sg31
VSwablu
p1384
sg33
g109
sg35
V31
p1385
sg37
(lp1386
Vround
p1387
aVcotton-guard
p1388
aVdisarming-voice
p1389
aVmoonblast
p1390
asg43
g44
sg45
Vnatural-cure
p1391
sbasg59
I00
sg60
g939
sbag1
(g2
g3
Ntp1392
Rp1393
(dp1394
g7
VVSPicnicker.png
p1395
sg9
VPicnicker
p1396
sg11
VDiana
p1397
sg13
V608<br><small>After earning the {{badge|Mind}}</small>
p1398
sg15
g16
sg17
g18
sg19
g20
sg21
g1022
sg23
(lp1399
g1
(g25
g3
Ntp1400
Rp1401
(dp1402
g29
V044
p1403
sg31
VGloom
p1404
sg33
g109
sg35
V38
p1405
sg37
(lp1406
Vnatural-gift
p1407
aVlucky-chant
p1408
aVpetal-blizzard
p1409
aVgrassy-terrain
p1410
asg43
g44
sg45
Vchlorophyll
p1411
sbag1
(g25
g3
Ntp1412
Rp1413
(dp1414
g29
V334
p1415
sg31
VAltaria
p1416
sg33
g109
sg35
V38
p1417
sg37
(lp1418
Vround
p1419
aVcotton-guard
p1420
aVdisarming-voice
p1421
aVmoonblast
p1422
asg43
g44
sg45
Vnatural-cure
p1423
sbasg59
I00
sg60
g939
sbag1
(g2
g3
Ntp1424
Rp1425
(dp1426
g7
VVSPicnicker.png
p1427
sg9
VPicnicker
p1428
sg11
VDiana
p1429
sg13
V768<br><small>After entering the [[Hall of Fame]]</small>
p1430
sg15
g16
sg17
g18
sg19
g20
sg21
g1022
sg23
(lp1431
g1
(g25
g3
Ntp1432
Rp1433
(dp1434
g29
V045
p1435
sg31
VVileplume
p1436
sg33
g109
sg35
V48
p1437
sg37
(lp1438
Vstun-spore
p1439
aVpetal-dance
p1440
aVaromatherapy
p1441
aVpetal-blizzard
p1442
asg43
g44
sg45
Vchlorophyll
p1443
sbag1
(g25
g3
Ntp1444
Rp1445
(dp1446
g29
V334
p1447
sg31
VAltaria
p1448
sg33
g109
sg35
V48
p1449
sg37
(lp1450
Vround
p1451
aVcotton-guard
p1452
aVdisarming-voice
p1453
aVmoonblast
p1454
asg43
g44
sg45
Vnatural-cure
p1455
sbasg59
I00
sg60
g939
sba.