(lp0
ccopy_reg
_reconstructor
p1
(c__main__
Trainer
p2
c__builtin__
object
p3
Ntp4
Rp5
(dp6
VtSprite
p7
VSpr GS Swimmer M.png
p8
sVtClass
p9
VSwimmer
p10
sVtName
p11
VGeorge
p12
sVtMoney
p13
V152
p14
sVtPokeCount
p15
V6
p16
sVtLocation
p17
Vwiki/Johto_Route_41
p18
sVtRegion
p19
VJohto
p20
sVtGame
p21
VGS
p22
sVtPokes
p23
(lp24
g1
(c__main__
FinishedPokemon
p25
g3
Ntp26
Rp27
(dp28
VpDexNo
p29
V072
p30
sVpSpecies
p31
VTentacool
p32
sVpGender
p33
VM
p34
sVpLevel
p35
V16
p36
sVpMoves
p37
(lp38
Vbubble-beam
p39
aVscreech
p40
aVbarrier
p41
aVconstrict
p42
asVpHold
p43
V
p44
sVpAbility
p45
Vclear-body
p46
sbag1
(g25
g3
Ntp47
Rp48
(dp49
g29
V072
p50
sg31
VTentacool
p51
sg33
g34
sg35
V16
p52
sg37
(lp53
Vbubble-beam
p54
aVscreech
p55
aVbarrier
p56
aVconstrict
p57
asg43
g44
sg45
Vliquid-ooze
p58
sbag1
(g25
g3
Ntp59
Rp60
(dp61
g29
V072
p62
sg31
VTentacool
p63
sg33
g34
sg35
V17
p64
sg37
(lp65
Vbubble-beam
p66
aVscreech
p67
aVbarrier
p68
aVconstrict
p69
asg43
g44
sg45
Vliquid-ooze
p70
sbag1
(g25
g3
Ntp71
Rp72
(dp73
g29
V072
p74
sg31
VTentacool
p75
sg33
g34
sg35
V17
p76
sg37
(lp77
Vbubble-beam
p78
aVscreech
p79
aVbarrier
p80
aVconstrict
p81
asg43
g44
sg45
Vclear-body
p82
sbag1
(g25
g3
Ntp83
Rp84
(dp85
g29
V223
p86
sg31
VRemoraid
p87
sg33
g34
sg35
V19
p88
sg37
(lp89
Vaurora-beam
p90
aVhyper-beam
p91
aVfocus-energy
p92
aVlock-on
p93
asg43
g44
sg45
Vhustle
p94
sbag1
(g25
g3
Ntp95
Rp96
(dp97
g29
V120
p98
sg31
VStaryu
p99
sg33
VU
p100
sg35
V19
p101
sg37
(lp102
Vminimize
p103
aVlight-screen
p104
aVswift
p105
aVrapid-spin
p106
asg43
g44
sg45
Vnatural-cure
p107
sbasVbossFlag
p108
I00
sVtLongGame
p109
Vgold-silver
p110
sbag1
(g2
g3
Ntp111
Rp112
(dp113
g7
VSpr GS Swimmer F.png
p114
sg9
VSwimmer
p115
sg11
VKara
p116
sg13
V400
p117
sg15
V2
p118
sg17
g18
sg19
g20
sg21
g22
sg23
(lp119
g1
(g25
g3
Ntp120
Rp121
(dp122
g29
V120
p123
sg31
VStaryu
p124
sg33
g100
sg35
V20
p125
sg37
(lp126
Vminimize
p127
aVlight-screen
p128
aVswift
p129
aVrapid-spin
p130
asg43
g44
sg45
Villuminate
p131
sbag1
(g25
g3
Ntp132
Rp133
(dp134
g29
V121
p135
sg31
VStarmie
p136
sg33
g100
sg35
V20
p137
sg37
(lp138
Vbubble-beam
p139
aVrecover
p140
aVconfuse-ray
p141
aVrapid-spin
p142
asg43
g44
sg45
Villuminate
p143
sbasg108
I00
sg109
g110
sbag1
(g2
g3
Ntp144
Rp145
(dp146
g7
VSpr GS Swimmer M.png
p147
sg9
VSwimmer
p148
sg11
VMathew
p149
sg13
V184
p150
sg15
V1
p151
sg17
g18
sg19
g20
sg21
g22
sg23
(lp152
g1
(g25
g3
Ntp153
Rp154
(dp155
g29
V098
p156
sg31
VKrabby
p157
sg33
g34
sg35
V23
p158
sg37
(lp159
Vharden
p160
aVbubble
p161
aVcrabhammer
p162
aVprotect
p163
asg43
g44
sg45
Vhyper-cutter
p164
sbasg108
I00
sg109
g110
sbag1
(g2
g3
Ntp165
Rp166
(dp167
g7
VSpr GS Swimmer F.png
p168
sg9
VSwimmer
p169
sg11
VDenise
p170
sg13
V440
p171
sg15
g151
sg17
g18
sg19
g20
sg21
g22
sg23
(lp172
g1
(g25
g3
Ntp173
Rp174
(dp175
g29
V086
p176
sg31
VSeel
p177
sg33
VF
p178
sg35
V22
p179
sg37
(lp180
Vice-beam
p181
aVaurora-beam
p182
aVrest
p183
aVsafeguard
p184
asg43
g44
sg45
Vhydration
p185
sbasg108
I00
sg109
g110
sbag1
(g2
g3
Ntp186
Rp187
(dp188
g7
VSpr GS Swimmer M.png
p189
sg9
VSwimmer
p190
sg11
VKirk
p191
sg13
V180
p192
sg15
g118
sg17
g18
sg19
g20
sg21
g22
sg23
(lp193
g1
(g25
g3
Ntp194
Rp195
(dp196
g29
V130
p197
sg31
VGyarados
p198
sg33
g34
sg35
V20
p199
sg37
(lp200
Vhyper-beam
p201
aVdragon-rage
p202
aVtwister
p203
aVrain-dance
p204
asg43
g44
sg45
Vintimidate
p205
sbag1
(g25
g3
Ntp206
Rp207
(dp208
g29
V130
p209
sg31
VGyarados
p210
sg33
g34
sg35
V20
p211
sg37
(lp212
Vhyper-beam
p213
aVdragon-rage
p214
aVtwister
p215
aVrain-dance
p216
asg43
g44
sg45
Vintimidate
p217
sbasg108
I00
sg109
g110
sbag1
(g2
g3
Ntp218
Rp219
(dp220
g7
VSpr GS Swimmer M.png
p221
sg9
VSwimmer
p222
sg11
VBerke
p223
sg13
V184
p224
sg15
g151
sg17
g18
sg19
g20
sg21
g22
sg23
(lp225
g1
(g25
g3
Ntp226
Rp227
(dp228
g29
V211
p229
sg31
VQwilfish
p230
sg33
g34
sg35
V23
p231
sg37
(lp232
Vwater-gun
p233
aVhydro-pump
p234
aVharden
p235
aVminimize
p236
asg43
g44
sg45
Vswift-swim
p237
sbasg108
I00
sg109
g110
sbag1
(g2
g3
Ntp238
Rp239
(dp240
g7
VSpr GS Swimmer M.png
p241
sg9
VSwimmer
p242
sg11
VCharlie
p243
sg13
V152
p244
sg15
V3
p245
sg17
g18
sg19
g20
sg21
g22
sg23
(lp246
g1
(g25
g3
Ntp247
Rp248
(dp249
g29
V090
p250
sg31
VShellder
p251
sg33
g34
sg35
V21
p252
sg37
(lp253
Vaurora-beam
p254
aVwithdraw
p255
aVclamp
p256
aVprotect
p257
asg43
g44
sg45
Vshell-armor
p258
sbag1
(g25
g3
Ntp259
Rp260
(dp261
g29
V072
p262
sg31
VTentacool
p263
sg33
g34
sg35
V19
p264
sg37
(lp265
Vbubble-beam
p266
aVscreech
p267
aVbarrier
p268
aVconstrict
p269
asg43
g44
sg45
Vliquid-ooze
p270
sbag1
(g25
g3
Ntp271
Rp272
(dp273
g29
V073
p274
sg31
VTentacruel
p275
sg33
g34
sg35
V19
p276
sg37
(lp277
Vscreech
p278
aVbarrier
p279
aVconstrict
p280
ag280
asg43
g44
sg45
Vliquid-ooze
p281
sbasg108
I00
sg109
g110
sbag1
(g2
g3
Ntp282
Rp283
(dp284
g7
VSpr GS Swimmer F.png
p285
sg9
VSwimmer
p286
sg11
VSusie
p287
sg13
V440
p288
sg15
g118
sg17
g18
sg19
g20
sg21
g22
sg23
(lp289
g1
(g25
g3
Ntp290
Rp291
(dp292
g29
V054
p293
sg31
VPsyduck
p294
sg33
g178
sg35
V20
p295
sg37
(lp296
Vconfusion
p297
aVscreech
p298
aVfury-swipes
p299
aVpsych-up
p300
asg43
g44
sg45
Vcloud-nine
p301
sbag1
(g25
g3
Ntp302
Rp303
(dp304
g29
V118
p305
sg31
VGoldeen
p306
sg33
g178
sg35
V22
p307
sg37
(lp308
Vpeck
p309
aVagility
p310
aVwaterfall
p311
aVflail
p312
asg43
g44
sg45
Vswift-swim
p313
sbasg108
I00
sg109
g110
sbag1
(g2
g3
Ntp314
Rp315
(dp316
g7
VSpr GS Swimmer F.png
p317
sg9
VSwimmer
p318
sg11
VKaylee
p319
sg13
V400
p320
sg15
g245
sg17
g18
sg19
g20
sg21
g22
sg23
(lp321
g1
(g25
g3
Ntp322
Rp323
(dp324
g29
V118
p325
sg31
VGoldeen
p326
sg33
g178
sg35
V18
p327
sg37
(lp328
Vpeck
p329
aVagility
p330
aVwaterfall
p331
aVflail
p332
asg43
g44
sg45
Vswift-swim
p333
sbag1
(g25
g3
Ntp334
Rp335
(dp336
g29
V118
p337
sg31
VGoldeen
p338
sg33
g178
sg35
V20
p339
sg37
(lp340
Vpeck
p341
aVagility
p342
aVwaterfall
p343
aVflail
p344
asg43
g44
sg45
Vwater-veil
p345
sbag1
(g25
g3
Ntp346
Rp347
(dp348
g29
V119
p349
sg31
VSeaking
p350
sg33
g178
sg35
V20
p351
sg37
(lp352
Vpeck
p353
aVagility
p354
aVwaterfall
p355
aVflail
p356
asg43
g44
sg45
Vswift-swim
p357
sbasg108
I00
sg109
g110
sbag1
(g2
g3
Ntp358
Rp359
(dp360
g7
VSpr GS Swimmer F.png
p361
sg9
VSwimmer
p362
sg11
VWendy
p363
sg13
V420
p364
sg15
g118
sg17
g18
sg19
g20
sg21
g22
sg23
(lp365
g1
(g25
g3
Ntp366
Rp367
(dp368
g29
V116
p369
sg31
VHorsea
p370
sg33
g178
sg35
V21
p371
sg37
(lp372
Vagility
p373
aVsmokescreen
p374
aVbubble
p375
aVtwister
p376
asg43
g44
sg45
Vsniper
p377
sbag1
(g25
g3
Ntp378
Rp379
(dp380
g29
V116
p381
sg31
VHorsea
p382
sg33
g178
sg35
V21
p383
sg37
(lp384
Vagility
p385
aVsmokescreen
p386
aVbubble
p387
aVtwister
p388
asg43
g44
sg45
Vsniper
p389
sbasg108
I00
sg109
g110
sbag1
(g2
g3
Ntp390
Rp391
(dp392
g7
VSpr HGSS Swimmer M.png
p393
sg9
VSwimmer
p394
sg11
VCharlie
p395
sg13
V304
p396
sg15
g245
sg17
g18
sg19
g20
sg21
VHGSS
p397
sg23
(lp398
g1
(g25
g3
Ntp399
Rp400
(dp401
g29
V090
p402
sg31
VShellder
p403
sg33
g34
sg35
V21
p404
sg37
(lp405
Vicicle-spear
p406
aViron-defense
p407
aVbrine
p408
aVice-shard
p409
asg43
g44
sg45
Vskill-link
p410
sbag1
(g25
g3
Ntp411
Rp412
(dp413
g29
V072
p414
sg31
VTentacool
p415
sg33
g34
sg35
V19
p416
sg37
(lp417
Vwater-pulse
p418
aVwring-out
p419
aVtoxic-spikes
p420
aVpoison-jab
p421
asg43
g44
sg45
Vclear-body
p422
sbag1
(g25
g3
Ntp423
Rp424
(dp425
g29
V073
p426
sg31
VTentacruel
p427
sg33
g34
sg35
V19
p428
sg37
(lp429
Vwater-pulse
p430
aVwring-out
p431
aVtoxic-spikes
p432
aVpoison-jab
p433
asg43
g44
sg45
Vliquid-ooze
p434
sbasg108
I00
sg109
Vheartgold-soulsilver
p435
sbag1
(g2
g3
Ntp436
Rp437
(dp438
g7
VSpr HGSS Swimmer M.png
p439
sg9
VSwimmer
p440
sg11
VGeorge
p441
sg13
V304
p442
sg15
g16
sg17
g18
sg19
g20
sg21
g397
sg23
(lp443
g1
(g25
g3
Ntp444
Rp445
(dp446
g29
V072
p447
sg31
VTentacool
p448
sg33
g34
sg35
V16
p449
sg37
(lp450
Vwater-pulse
p451
aVwring-out
p452
aVtoxic-spikes
p453
aVpoison-jab
p454
asg43
g44
sg45
Vclear-body
p455
sbag1
(g25
g3
Ntp456
Rp457
(dp458
g29
V072
p459
sg31
VTentacool
p460
sg33
g34
sg35
V16
p461
sg37
(lp462
Vwater-pulse
p463
aVwring-out
p464
aVtoxic-spikes
p465
aVpoison-jab
p466
asg43
g44
sg45
Vliquid-ooze
p467
sbag1
(g25
g3
Ntp468
Rp469
(dp470
g29
V072
p471
sg31
VTentacool
p472
sg33
g34
sg35
V17
p473
sg37
(lp474
Vwater-pulse
p475
aVwring-out
p476
aVtoxic-spikes
p477
aVpoison-jab
p478
asg43
g44
sg45
Vclear-body
p479
sbag1
(g25
g3
Ntp480
Rp481
(dp482
g29
V072
p483
sg31
VTentacool
p484
sg33
g34
sg35
V17
p485
sg37
(lp486
Vwater-pulse
p487
aVwring-out
p488
aVtoxic-spikes
p489
aVpoison-jab
p490
asg43
g44
sg45
Vliquid-ooze
p491
sbag1
(g25
g3
Ntp492
Rp493
(dp494
g29
V223
p495
sg31
VRemoraid
p496
sg33
g34
sg35
V19
p497
sg37
(lp498
Vlock-on
p499
aVsignal-beam
p500
aVbullet-seed
p501
aVwater-pulse
p502
asg43
g44
sg45
Vsniper
p503
sbag1
(g25
g3
Ntp504
Rp505
(dp506
g29
V120
p507
sg31
VStaryu
p508
sg33
g100
sg35
V19
p509
sg37
(lp510
Vcamouflage
p511
aVcosmic-power
p512
aVgyro-ball
p513
aVpower-gem
p514
asg43
g44
sg45
Vnatural-cure
p515
sbasg108
I00
sg109
g435
sbag1
(g2
g3
Ntp516
Rp517
(dp518
g7
VSpr HGSS Swimmer F.png
p519
sg9
VSwimmer
p520
sg11
VSusie
p521
sg13
V352
p522
sg15
g118
sg17
g18
sg19
g20
sg21
g397
sg23
(lp523
g1
(g25
g3
Ntp524
Rp525
(dp526
g29
V054
p527
sg31
VPsyduck
p528
sg33
g178
sg35
V20
p529
sg37
(lp530
Vpsych-up
p531
aVwater-sport
p532
aVwater-pulse
p533
aVzen-headbutt
p534
asg43
g44
sg45
Vdamp
p535
sbag1
(g25
g3
Ntp536
Rp537
(dp538
g29
V118
p539
sg31
VGoldeen
p540
sg33
g178
sg35
V22
p541
sg37
(lp542
Vmegahorn
p543
aVwater-sport
p544
aVwater-pulse
p545
aVaqua-ring
p546
asg43
g44
sg45
Vswift-swim
p547
sbasg108
I00
sg109
g435
sbag1
(g2
g3
Ntp548
Rp549
(dp550
g7
VSpr HGSS Swimmer F.png
p551
sg9
VSwimmer
p552
sg11
VKaylee
p553
sg13
V320
p554
sg15
g245
sg17
g18
sg19
g20
sg21
g397
sg23
(lp555
g1
(g25
g3
Ntp556
Rp557
(dp558
g29
V118
p559
sg31
VGoldeen
p560
sg33
g178
sg35
V18
p561
sg37
(lp562
Vmegahorn
p563
aVwater-sport
p564
aVwater-pulse
p565
aVaqua-ring
p566
asg43
g44
sg45
Vswift-swim
p567
sbag1
(g25
g3
Ntp568
Rp569
(dp570
g29
V118
p571
sg31
VGoldeen
p572
sg33
g178
sg35
V20
p573
sg37
(lp574
Vmegahorn
p575
aVwater-sport
p576
aVwater-pulse
p577
aVaqua-ring
p578
asg43
g44
sg45
Vwater-veil
p579
sbag1
(g25
g3
Ntp580
Rp581
(dp582
g29
V119
p583
sg31
VSeaking
p584
sg33
g178
sg35
V20
p585
sg37
(lp586
Vwater-sport
p587
aVwater-pulse
p588
aVaqua-ring
p589
aVpoison-jab
p590
asg43
g44
sg45
Vwater-veil
p591
sbasg108
I00
sg109
g435
sbag1
(g2
g3
Ntp592
Rp593
(dp594
g7
VSpr HGSS Swimmer M.png
p595
sg9
VSwimmer
p596
sg11
VMatthew
p597
sg13
V368
p598
sg15
g151
sg17
g18
sg19
g20
sg21
g397
sg23
(lp599
g1
(g25
g3
Ntp600
Rp601
(dp602
g29
V098
p603
sg31
VKrabby
p604
sg33
g34
sg35
V23
p605
sg37
(lp606
Vmetal-claw
p607
aVmud-sport
p608
aVmud-shot
p609
aVbrine
p610
asg43
g44
sg45
Vhyper-cutter
p611
sbasg108
I00
sg109
g435
sbag1
(g2
g3
Ntp612
Rp613
(dp614
g7
VSpr HGSS Swimmer F.png
p615
sg9
VSwimmer
p616
sg11
VWendy
p617
sg13
V336
p618
sg15
g118
sg17
g18
sg19
g20
sg21
g397
sg23
(lp619
g1
(g25
g3
Ntp620
Rp621
(dp622
g29
V116
p623
sg31
VHorsea
p624
sg33
g178
sg35
V21
p625
sg37
(lp626
Vtwister
p627
aVdragon-dance
p628
aVbrine
p629
aVdragon-pulse
p630
asg43
g44
sg45
Vsniper
p631
sbag1
(g25
g3
Ntp632
Rp633
(dp634
g29
V116
p635
sg31
VHorsea
p636
sg33
g178
sg35
V21
p637
sg37
(lp638
Vtwister
p639
aVdragon-dance
p640
aVbrine
p641
aVdragon-pulse
p642
asg43
g44
sg45
Vswift-swim
p643
sbasg108
I00
sg109
g435
sbag1
(g2
g3
Ntp644
Rp645
(dp646
g7
VSpr HGSS Swimmer M.png
p647
sg9
VSwimmer
p648
sg11
VBerke
p649
sg13
V368
p650
sg15
g151
sg17
g18
sg19
g20
sg21
g397
sg23
(lp651
g1
(g25
g3
Ntp652
Rp653
(dp654
g29
V211
p655
sg31
VQwilfish
p656
sg33
g34
sg35
V23
p657
sg37
(lp658
Vbrine
p659
aVtoxic-spikes
p660
aVpoison-jab
p661
aVaqua-tail
p662
asg43
g44
sg45
Vpoison-point
p663
sbasg108
I00
sg109
g435
sbag1
(g2
g3
Ntp664
Rp665
(dp666
g7
VSpr HGSS Swimmer F.png
p667
sg9
VSwimmer
p668
sg11
VKara
p669
sg13
V320
p670
sg15
g118
sg17
g18
sg19
g20
sg21
g397
sg23
(lp671
g1
(g25
g3
Ntp672
Rp673
(dp674
g29
V120
p675
sg31
VStaryu
p676
sg33
g100
sg35
V20
p677
sg37
(lp678
Vcamouflage
p679
aVcosmic-power
p680
aVgyro-ball
p681
aVpower-gem
p682
asg43
g44
sg45
Villuminate
p683
sbag1
(g25
g3
Ntp684
Rp685
(dp686
g29
V121
p687
sg31
VStarmie
p688
sg33
g100
sg35
V20
p689
sg37
(lp690
Vrecover
p691
aVconfuse-ray
p692
aVswift
p693
aVrapid-spin
p694
asg43
g44
sg45
Villuminate
p695
sbasg108
I00
sg109
g435
sbag1
(g2
g3
Ntp696
Rp697
(dp698
g7
VSpr HGSS Swimmer M.png
p699
sg9
VSwimmer
p700
sg11
VRonald
p701
sg13
V320
p702
sg15
g118
sg17
g18
sg19
g20
sg21
g397
sg23
(lp703
g1
(g25
g3
Ntp704
Rp705
(dp706
g29
V130
p707
sg31
VGyarados
p708
sg33
g34
sg35
V20
p709
sg37
(lp710
Vrain-dance
p711
aVdragon-dance
p712
aVaqua-tail
p713
aVice-fang
p714
asg43
g44
sg45
Vintimidate
p715
sbag1
(g25
g3
Ntp716
Rp717
(dp718
g29
V130
p719
sg31
VGyarados
p720
sg33
g34
sg35
V20
p721
sg37
(lp722
Vrain-dance
p723
aVdragon-dance
p724
aVaqua-tail
p725
aVice-fang
p726
asg43
g44
sg45
Vintimidate
p727
sbasg108
I00
sg109
g435
sbag1
(g2
g3
Ntp728
Rp729
(dp730
g7
VSpr HGSS Swimmer F.png
p731
sg9
VSwimmer
p732
sg11
VDenise
p733
sg13
V352
p734
sg15
g151
sg17
g18
sg19
g20
sg21
g397
sg23
(lp735
g1
(g25
g3
Ntp736
Rp737
(dp738
g29
V086
p739
sg31
VSeel
p740
sg33
g178
sg35
V22
p741
sg37
(lp742
Vaqua-ring
p743
aVaqua-tail
p744
aVice-shard
p745
aVaqua-jet
p746
asg43
g44
sg45
Vthick-fat
p747
sbasg108
I00
sg109
g435
sba.