(lp0
ccopy_reg
_reconstructor
p1
(c__main__
Trainer
p2
c__builtin__
object
p3
Ntp4
Rp5
(dp6
VtSprite
p7
VSpr GS Camper.png
p8
sVtClass
p9
VCamper
p10
sVtName
p11
VTed
p12
sVtMoney
p13
V340
p14
sVtPokeCount
p15
V1
p16
sVtLocation
p17
Vwiki/Johto_Route_46
p18
sVtRegion
p19
VJohto
p20
sVtGame
p21
VGS
p22
sVtPokes
p23
(lp24
g1
(c__main__
FinishedPokemon
p25
g3
Ntp26
Rp27
(dp28
VpDexNo
p29
V056
p30
sVpSpecies
p31
VMankey
p32
sVpGender
p33
VM
p34
sVpLevel
p35
V17
p36
sVpMoves
p37
(lp38
Vscreech
p39
aVfocus-energy
p40
aVfury-swipes
p41
aVcross-chop
p42
asVpHold
p43
V
p44
sVpAbility
p45
Vanger-point
p46
sbasVbossFlag
p47
I00
sVtLongGame
p48
Vgold-silver
p49
sbag1
(g2
g3
Ntp50
Rp51
(dp52
g7
VSpr GS Picnicker.png
p53
sg9
VPicnicker
p54
sg11
VErin
p55
sg13
V320
p56
sg15
V2
p57
sg17
g18
sg19
g20
sg21
g22
sg23
(lp58
g1
(g25
g3
Ntp59
Rp60
(dp61
g29
V077
p62
sg31
VPonyta
p63
sg33
VF
p64
sg35
V16
p65
sg37
(lp66
Vember
p67
aVfire-spin
p68
aVagility
p69
aVfire-blast
p70
asg43
g44
sg45
Vrun-away
p71
sbag1
(g25
g3
Ntp72
Rp73
(dp74
g29
V077
p75
sg31
VPonyta
p76
sg33
g64
sg35
V16
p77
sg37
(lp78
Vember
p79
aVfire-spin
p80
aVagility
p81
aVfire-blast
p82
asg43
g44
sg45
Vflash-fire
p83
sbasg47
I00
sg48
g49
sbag1
(g2
g3
Ntp84
Rp85
(dp86
g7
VSpr GS Hiker.png
p87
sg9
VHiker
p88
sg11
VBailey
p89
sg13
V416
p90
sg15
V5
p91
sg17
g18
sg19
g20
sg21
g22
sg23
(lp92
g1
(g25
g3
Ntp93
Rp94
(dp95
g29
V074
p96
sg31
VGeodude
p97
sg33
g34
sg35
V13
p98
sg37
(lp99
Vself-destruct
p100
aVexplosion
p101
aVrollout
p102
aVmagnitude
p103
asg43
g44
sg45
Vrock-head
p104
sbag1
(g25
g3
Ntp105
Rp106
(dp107
g29
V074
p108
sg31
VGeodude
p109
sg33
g34
sg35
V13
p110
sg37
(lp111
Vself-destruct
p112
aVexplosion
p113
aVrollout
p114
aVmagnitude
p115
asg43
g44
sg45
Vsturdy
p116
sbag1
(g25
g3
Ntp117
Rp118
(dp119
g29
V074
p120
sg31
VGeodude
p121
sg33
g34
sg35
V13
p122
sg37
(lp123
Vself-destruct
p124
aVexplosion
p125
aVrollout
p126
aVmagnitude
p127
asg43
g44
sg45
Vsturdy
p128
sbag1
(g25
g3
Ntp129
Rp130
(dp131
g29
V074
p132
sg31
VGeodude
p133
sg33
g34
sg35
V13
p134
sg37
(lp135
Vself-destruct
p136
aVexplosion
p137
aVrollout
p138
aVmagnitude
p139
asg43
g44
sg45
Vrock-head
p140
sbag1
(g25
g3
Ntp141
Rp142
(dp143
g29
V074
p144
sg31
VGeodude
p145
sg33
g34
sg35
V13
p146
sg37
(lp147
Vself-destruct
p148
aVexplosion
p149
aVrollout
p150
aVmagnitude
p151
asg43
g44
sg45
Vsturdy
p152
sbasg47
I00
sg48
g49
sbag1
(g2
g3
Ntp153
Rp154
(dp155
g7
VSpr GS Picnicker.png
p156
sg9
VPicnicker
p157
sg11
VErin{{tt|*|First rematch}}
p158
sg13
V640
p159
sg15
g57
sg17
g18
sg19
g20
sg21
g22
sg23
(lp160
g1
(g25
g3
Ntp161
Rp162
(dp163
g29
V077
p164
sg31
VPonyta
p165
sg33
g64
sg35
V32
p166
sg37
(lp167
Vember
p168
aVfire-spin
p169
aVagility
p170
aVfire-blast
p171
asg43
g44
sg45
Vflash-fire
p172
sbag1
(g25
g3
Ntp173
Rp174
(dp175
g29
V077
p176
sg31
VPonyta
p177
sg33
g64
sg35
V32
p178
sg37
(lp179
Vember
p180
aVfire-spin
p181
aVagility
p182
aVfire-blast
p183
asg43
g44
sg45
Vrun-away
p184
sbasg47
I00
sg48
g49
sbag1
(g2
g3
Ntp185
Rp186
(dp187
g7
VSpr GS Picnicker.png
p188
sg9
VPicnicker
p189
sg11
VErin{{sup/2|GS}}{{tt|*|Second rematch onward}}
p190
sg13
V720
p191
sg15
g57
sg17
g18
sg19
g20
sg21
g22
sg23
(lp192
g1
(g25
g3
Ntp193
Rp194
(dp195
g29
V077
p196
sg31
VPonyta
p197
sg33
g64
sg35
V36
p198
sg37
(lp199
Vember
p200
aVfire-spin
p201
aVagility
p202
aVfire-blast
p203
asg43
g44
sg45
Vrun-away
p204
sbag1
(g25
g3
Ntp205
Rp206
(dp207
g29
V077
p208
sg31
VPonyta
p209
sg33
g64
sg35
V36
p210
sg37
(lp211
Vember
p212
aVfire-spin
p213
aVagility
p214
aVfire-blast
p215
asg43
g44
sg45
Vflash-fire
p216
sbasg47
I00
sg48
g49
sbag1
(g2
g3
Ntp217
Rp218
(dp219
g7
VSpr GS Picnicker.png
p220
sg9
VPicnicker
p221
sg11
VErin{{sup/2|C}}{{tt|*|Second rematch onward}}
p222
sg13
V720
p223
sg15
V3
p224
sg17
g18
sg19
g20
sg21
g22
sg23
(lp225
g1
(g25
g3
Ntp226
Rp227
(dp228
g29
V077
p229
sg31
VPonyta
p230
sg33
g64
sg35
V36
p231
sg37
(lp232
Vember
p233
aVfire-spin
p234
aVagility
p235
aVfire-blast
p236
asg43
g44
sg45
Vflash-fire
p237
sbag1
(g25
g3
Ntp238
Rp239
(dp240
g29
V026
p241
sg31
VRaichu
p242
sg33
g64
sg35
V34
p243
sg37
(lp244
Vtail-whip
p245
aVthunder-shock
p246
aVthunderbolt
p247
aVquick-attack
p248
asg43
g44
sg45
Vstatic
p249
sbag1
(g25
g3
Ntp250
Rp251
(dp252
g29
V077
p253
sg31
VPonyta
p254
sg33
g64
sg35
V36
p255
sg37
(lp256
Vember
p257
aVfire-spin
p258
aVagility
p259
aVfire-blast
p260
asg43
g44
sg45
Vrun-away
p261
sbasg47
I00
sg48
g49
sbag1
(g2
g3
Ntp262
Rp263
(dp264
g7
VSpr DP Camper.png
p265
sg9
VCamper
p266
sg11
VTed
p267
sg13
V272<br><small>Potential [[Double Battle]] with Erin</small>
p268
sg15
g16
sg17
g18
sg19
g20
sg21
VDP
p269
sg23
(lp270
g1
(g25
g3
Ntp271
Rp272
(dp273
g29
V056
p274
sg31
VMankey
p275
sg33
g34
sg35
V17
p276
sg37
(lp277
Vcovet
p278
aVclose-combat
p279
aVassurance
p280
aVpunishment
p281
asg43
g44
sg45
Vvital-spirit
p282
sbasg47
I00
sg48
Vdiamond-pearl
p283
sbag1
(g2
g3
Ntp284
Rp285
(dp286
g7
VSpr DP Picnicker.png
p287
sg9
VPicnicker
p288
sg11
VErin
p289
sg13
V224<br><small>Potential [[Double Battle]] with Ted</small>
p290
sg15
g57
sg17
g18
sg19
g20
sg21
g269
sg23
(lp291
g1
(g25
g3
Ntp292
Rp293
(dp294
g29
V077
p295
sg31
VPonyta
p296
sg33
g64
sg35
V17
p297
sg37
(lp298
Vagility
p299
aVfire-blast
p300
aVbounce
p301
aVflare-blitz
p302
asg43
g44
sg45
Vrun-away
p303
sbag1
(g25
g3
Ntp304
Rp305
(dp306
g29
V043
p307
sg31
VOddish
p308
sg33
g64
sg35
V14
p309
sg37
(lp310
Vsweet-scent
p311
aVmoonlight
p312
aVnatural-gift
p313
aVlucky-chant
p314
asg43
g44
sg45
Vchlorophyll
p315
sbasg47
I00
sg48
g283
sbag1
(g2
g3
Ntp316
Rp317
(dp318
g7
VSpr DP Hiker.png
p319
sg9
VHiker
p320
sg11
VBailey
p321
sg13
V416
p322
sg15
g91
sg17
g18
sg19
g20
sg21
g269
sg23
(lp323
g1
(g25
g3
Ntp324
Rp325
(dp326
g29
V074
p327
sg31
VGeodude
p328
sg33
g34
sg35
V13
p329
sg37
(lp330
Vmud-sport
p331
aVrock-blast
p332
aVrock-polish
p333
aVstone-edge
p334
asg43
g44
sg45
Vrock-head
p335
sbag1
(g25
g3
Ntp336
Rp337
(dp338
g29
V074
p339
sg31
VGeodude
p340
sg33
g34
sg35
V13
p341
sg37
(lp342
Vmud-sport
p343
aVrock-blast
p344
aVrock-polish
p345
aVstone-edge
p346
asg43
g44
sg45
Vsturdy
p347
sbag1
(g25
g3
Ntp348
Rp349
(dp350
g29
V074
p351
sg31
VGeodude
p352
sg33
g34
sg35
V13
p353
sg37
(lp354
Vmud-sport
p355
aVrock-blast
p356
aVrock-polish
p357
aVstone-edge
p358
asg43
g44
sg45
Vsturdy
p359
sbag1
(g25
g3
Ntp360
Rp361
(dp362
g29
V074
p363
sg31
VGeodude
p364
sg33
g34
sg35
V13
p365
sg37
(lp366
Vmud-sport
p367
aVrock-blast
p368
aVrock-polish
p369
aVstone-edge
p370
asg43
g44
sg45
Vrock-head
p371
sbag1
(g25
g3
Ntp372
Rp373
(dp374
g29
V074
p375
sg31
VGeodude
p376
sg33
g34
sg35
V13
p377
sg37
(lp378
Vmud-sport
p379
aVrock-blast
p380
aVrock-polish
p381
aVstone-edge
p382
asg43
g44
sg45
Vsturdy
p383
sbasg47
I00
sg48
g283
sbag1
(g2
g3
Ntp384
Rp385
(dp386
g7
VSpr DP Picnicker.png
p387
sg9
VPicnicker
p388
sg11
VErin{{tt|*|First rematch}}
p389
sg13
V656
p390
sg15
g57
sg17
g18
sg19
g20
sg21
g269
sg23
(lp391
g1
(g25
g3
Ntp392
Rp393
(dp394
g29
V044
p395
sg31
VGloom
p396
sg33
g64
sg35
V32
p397
sg37
(lp398
Vsweet-scent
p399
aVmoonlight
p400
aVnatural-gift
p401
aVlucky-chant
p402
asg43
g44
sg45
Vchlorophyll
p403
sbag1
(g25
g3
Ntp404
Rp405
(dp406
g29
V078
p407
sg31
VRapidash
p408
sg33
g64
sg35
V41
p409
sg37
(lp410
Vmegahorn
p411
aVbounce
p412
aVflare-blitz
p413
aVpoison-jab
p414
asg43
g44
sg45
Vrun-away
p415
sbasg47
I00
sg48
g283
sbag1
(g2
g3
Ntp416
Rp417
(dp418
g7
VSpr DP Picnicker.png
p419
sg9
VPicnicker
p420
sg11
VErin{{tt|*|Second rematch}}
p421
sg13
V848
p422
sg15
g224
sg17
g18
sg19
g20
sg21
g269
sg23
(lp423
g1
(g25
g3
Ntp424
Rp425
(dp426
g29
V182
p427
sg31
VBellossom
p428
sg33
g64
sg35
V46
p429
sg37
(lp430
Vsweet-scent
p431
aVsunny-day
p432
aVmagical-leaf
p433
aVleaf-storm
p434
asg43
g44
sg45
Vchlorophyll
p435
sbag1
(g25
g3
Ntp436
Rp437
(dp438
g29
V078
p439
sg31
VRapidash
p440
sg33
g64
sg35
V48
p441
sg37
(lp442
Vmegahorn
p443
aVbounce
p444
aVflare-blitz
p445
aVpoison-jab
p446
asg43
g44
sg45
Vrun-away
p447
sbag1
(g25
g3
Ntp448
Rp449
(dp450
g29
V192
p451
sg31
VSunflora
p452
sg33
g64
sg35
V39
p453
sg37
(lp454
Vgrass-whistle
p455
aVbullet-seed
p456
aVworry-seed
p457
aVleaf-storm
p458
asg43
g44
sg45
Vchlorophyll
p459
sbasg47
I00
sg48
g283
sbag1
(g2
g3
Ntp460
Rp461
(dp462
g7
VSpr DP Picnicker.png
p463
sg9
VPicnicker
p464
sg11
VErin{{tt|*|Third rematch}}
p465
sg13
V1000
p466
sg15
V4
p467
sg17
g18
sg19
g20
sg21
g269
sg23
(lp468
g1
(g25
g3
Ntp469
Rp470
(dp471
g29
V421
p472
sg31
VCherrim
p473
sg33
g64
sg35
V42
p474
sg37
(lp475
Vhelping-hand
p476
aVmagical-leaf
p477
aVlucky-chant
p478
aVworry-seed
p479
asg43
g44
sg45
Vflower-gift
p480
sbag1
(g25
g3
Ntp481
Rp482
(dp483
g29
V192
p484
sg31
VSunflora
p485
sg33
g64
sg35
V46
p486
sg37
(lp487
Vgrass-whistle
p488
aVbullet-seed
p489
aVworry-seed
p490
aVleaf-storm
p491
asg43
g44
sg45
Vchlorophyll
p492
sbag1
(g25
g3
Ntp493
Rp494
(dp495
g29
V078
p496
sg31
VRapidash
p497
sg33
g64
sg35
V53
p498
sg37
(lp499
Vmegahorn
p500
aVbounce
p501
aVflare-blitz
p502
aVpoison-jab
p503
asg43
g44
sg45
Vflash-fire
p504
sbag1
(g25
g3
Ntp505
Rp506
(dp507
g29
V182
p508
sg31
VBellossom
p509
sg33
g64
sg35
V49
p510
sg37
(lp511
Vsweet-scent
p512
aVsunny-day
p513
aVmagical-leaf
p514
aVleaf-storm
p515
asg43
g44
sg45
Vchlorophyll
p516
sbasg47
I00
sg48
g283
sba.