(lp0
ccopy_reg
_reconstructor
p1
(c__main__
Trainer
p2
c__builtin__
object
p3
Ntp4
Rp5
(dp6
VtSprite
p7
VSpr GS Twins.png
p8
sVtClass
p9
VTwins
p10
sVtName
p11
VAnn & Anne
p12
sVtMoney
p13
V320
p14
sVtPokeCount
p15
V2
p16
sVtLocation
p17
Vwiki/Johto_Route_37
p18
sVtRegion
p19
VJohto
p20
sVtGame
p21
VGS
p22
sVtPokes
p23
(lp24
g1
(c__main__
FinishedPokemon
p25
g3
Ntp26
Rp27
(dp28
VpDexNo
p29
V035
p30
sVpSpecies
p31
VClefairy
p32
sVpGender
p33
VF
p34
sVpLevel
p35
V16
p36
sVpMoves
p37
(lp38
Vlight-screen
p39
aVmetronome
p40
aVencore
p41
aVmoonlight
p42
asVpHold
p43
V
p44
sVpAbility
p45
Vmagic-guard
p46
sbag1
(g25
g3
Ntp47
Rp48
(dp49
g29
V039
p50
sg31
VJigglypuff
p51
sg33
g34
sg35
V16
p52
sg37
(lp53
Vdisable
p54
aVdefense-curl
p55
aVrest
p56
aVrollout
p57
asg43
g44
sg45
Vcompetitive
p58
sbasVbossFlag
p59
I00
sVtLongGame
p60
Vgold-silver
p61
sbag1
(g2
g3
Ntp62
Rp63
(dp64
g7
VSpr GS Psychic.png
p65
sg9
VPsychic
p66
sg11
VGreg
p67
sg13
V544
p68
sg15
V1
p69
sg17
g18
sg19
g20
sg21
g22
sg23
(lp70
g1
(g25
g3
Ntp71
Rp72
(dp73
g29
V096
p74
sg31
VDrowzee
p75
sg33
VM
p76
sg35
V17
p77
sg37
(lp78
Vmeditate
p79
aVpoison-gas
p80
aVpsych-up
p81
aVfuture-sight
p82
asg43
g44
sg45
Vinsomnia
p83
sbasg59
I00
sg60
g61
sbag1
(g2
g3
Ntp84
Rp85
(dp86
g7
VSpr HGSS Twins.png
p87
sg9
VTwins
p88
sg11
VTori & Til
p89
sg13
V512
p90
sg15
g16
sg17
g18
sg19
g20
sg21
VHGSS
p91
sg23
(lp92
g1
(g25
g3
Ntp93
Rp94
(dp95
g29
V183
p96
sg31
VMarill
p97
sg33
g34
sg35
V16
p98
sg37
(lp99
Vrollout
p100
aVrain-dance
p101
aVaqua-ring
p102
aVaqua-tail
p103
asg43
g44
sg45
Vthick-fat
p104
sbag1
(g25
g3
Ntp105
Rp106
(dp107
g29
V179
p108
sg31
VMareep
p109
sg33
g34
sg35
V16
p110
sg37
(lp111
Vcharge
p112
aVsignal-beam
p113
aVpower-gem
p114
aVdischarge
p115
asg43
g44
sg45
Vstatic
p116
sbasg59
I00
sg60
Vheartgold-soulsilver
p117
sbag1
(g2
g3
Ntp118
Rp119
(dp120
g7
VSpr HGSS Beauty.png
p121
sg9
VBeauty
p122
sg11
VCallie
p123
sg13
V896<br><sup>[[Double Battle]] with Kassandra</sup>
p124
sg15
g16
sg17
g18
sg19
g20
sg21
g91
sg23
(lp125
g1
(g25
g3
Ntp126
Rp127
(dp128
g29
V036
p129
sg31
VClefable
p130
sg33
g34
sg35
V16
p131
sg37
(lp132
Vdouble-slap
p133
aVsing
p134
aVminimize
p135
aVmetronome
p136
asg43
g44
sg45
Vcute-charm
p137
sbag1
(g25
g3
Ntp138
Rp139
(dp140
g29
V040
p141
sg31
VWigglytuff
p142
sg33
g34
sg35
V16
p143
sg37
(lp144
Vdouble-slap
p145
aVsing
p146
aVdisable
p147
aVdefense-curl
p148
asg43
g44
sg45
Vcute-charm
p149
sbasg59
I00
sg60
g117
sbag1
(g2
g3
Ntp150
Rp151
(dp152
g7
VSpr HGSS Beauty.png
p153
sg9
VBeauty
p154
sg11
VKassandra
p155
sg13
V896<br><sup>[[Double Battle]] with Callie</sup>
p156
sg15
g16
sg17
g18
sg19
g20
sg21
g91
sg23
(lp157
g1
(g25
g3
Ntp158
Rp159
(dp160
g29
V040
p161
sg31
VWigglytuff
p162
sg33
g34
sg35
V16
p163
sg37
(lp164
Vdouble-slap
p165
aVsing
p166
aVdisable
p167
aVdefense-curl
p168
asg43
g44
sg45
Vcute-charm
p169
sbag1
(g25
g3
Ntp170
Rp171
(dp172
g29
V036
p173
sg31
VClefable
p174
sg33
g34
sg35
V16
p175
sg37
(lp176
Vdouble-slap
p177
aVsing
p178
aVminimize
p179
aVmetronome
p180
asg43
g44
sg45
Vcute-charm
p181
sbasg59
I00
sg60
g117
sbag1
(g2
g3
Ntp182
Rp183
(dp184
g7
VSpr DP Psychic M.png
p185
sg9
VPsychic
p186
sg11
VGreg
p187
sg13
V544
p188
sg15
g69
sg17
g18
sg19
g20
sg21
VDP
p189
sg23
(lp190
g1
(g25
g3
Ntp191
Rp192
(dp193
g29
V096
p194
sg31
VDrowzee
p195
sg33
g76
sg35
V17
p196
sg37
(lp197
Vpsych-up
p198
aVfuture-sight
p199
aVnasty-plot
p200
aVzen-headbutt
p201
asg43
g44
sg45
Vinsomnia
p202
sbasg59
I00
sg60
Vdiamond-pearl
p203
sbag1
(g2
g3
Ntp204
Rp205
(dp206
g7
VSpr HGSS Twins.png
p207
sg9
VTwins
p208
sg11
VSaya and Aya
p209
sg13
V480
p210
sg15
g16
sg17
g18
sg19
g20
sg21
g91
sg23
(lp211
g1
(g25
g3
Ntp212
Rp213
(dp214
g29
V183
p215
sg31
VMarill
p216
sg33
g34
sg35
V15
p217
sg37
(lp218
Vrollout
p219
aVrain-dance
p220
aVaqua-ring
p221
aVaqua-tail
p222
asg43
g44
sg45
Vhuge-power
p223
sbag1
(g25
g3
Ntp224
Rp225
(dp226
g29
V179
p227
sg31
VMareep
p228
sg33
g34
sg35
V15
p229
sg37
(lp230
Vcharge
p231
aVsignal-beam
p232
aVpower-gem
p233
aVdischarge
p234
asg43
g44
sg45
Vstatic
p235
sbasg59
I00
sg60
g117
sbag1
(g2
g3
Ntp236
Rp237
(dp238
g7
VSpr DP Psychic M.png
p239
sg9
VPsychic
p240
sg11
VT\u014dru
p241
sg13
V512
p242
sg15
g69
sg17
g18
sg19
g20
sg21
g189
sg23
(lp243
g1
(g25
g3
Ntp244
Rp245
(dp246
g29
V206
p247
sg31
VDunsparce
p248
sg33
g76
sg35
V16
p249
sg37
(lp250
Vancient-power
p251
aVyawn
p252
aVendeavor
p253
aVroost
p254
asg43
g44
sg45
Vrun-away
p255
sbasg59
I00
sg60
g203
sba.