(lp0
ccopy_reg
_reconstructor
p1
(c__main__
Trainer
p2
c__builtin__
object
p3
Ntp4
Rp5
(dp6
VtSprite
p7
VSpr GS Bug Catcher.png
p8
sVtClass
p9
VBug Catcher
p10
sVtName
p11
VWade
p12
sVtMoney
p13
V32
p14
sVtPokeCount
p15
V4
p16
sVtLocation
p17
Vwiki/Johto_Route_31
p18
sVtRegion
p19
VJohto
p20
sVtGame
p21
VGS
p22
sVtPokes
p23
(lp24
g1
(c__main__
FinishedPokemon
p25
g3
Ntp26
Rp27
(dp28
VpDexNo
p29
V010
p30
sVpSpecies
p31
VCaterpie
p32
sVpGender
p33
VM
p34
sVpLevel
p35
V2
p36
sVpMoves
p37
(lp38
Vtackle
p39
aVstring-shot
p40
asVpHold
p41
V
p42
sVpAbility
p43
Vshield-dust
p44
sbag1
(g25
g3
Ntp45
Rp46
(dp47
g29
V010
p48
sg31
VCaterpie
p49
sg33
g34
sg35
g36
sg37
(lp50
Vtackle
p51
aVstring-shot
p52
asg41
g42
sg43
Vshield-dust
p53
sbag1
(g25
g3
Ntp54
Rp55
(dp56
g29
V013
p57
sg31
VWeedle
p58
sg33
g34
sg35
V3
p59
sg37
(lp60
Vpoison-sting
p61
aVstring-shot
p62
asg41
g42
sg43
Vshield-dust
p63
sbag1
(g25
g3
Ntp64
Rp65
(dp66
g29
V010
p67
sg31
VCaterpie
p68
sg33
g34
sg35
g36
sg37
(lp69
Vtackle
p70
aVstring-shot
p71
asg41
g42
sg43
Vshield-dust
p72
sbasVbossFlag
p73
I00
sVtLongGame
p74
Vgold-silver
p75
sbag1
(g2
g3
Ntp76
Rp77
(dp78
g7
VSpr GS Bug Catcher.png
p79
sg9
VBug Catcher
p80
sg11
VWade{{tt|*|First rematch}}
p81
sg13
V144
p82
sg15
g16
sg17
g18
sg19
g20
sg21
g22
sg23
(lp83
g1
(g25
g3
Ntp84
Rp85
(dp86
g29
V011
p87
sg31
VMetapod
p88
sg33
g34
sg35
V9
p89
sg37
(lp90
Vharden
p91
ag91
asg41
g42
sg43
Vshed-skin
p92
sbag1
(g25
g3
Ntp93
Rp94
(dp95
g29
V011
p96
sg31
VMetapod
p97
sg33
g34
sg35
g89
sg37
(lp98
Vharden
p99
ag99
asg41
g42
sg43
Vshed-skin
p100
sbag1
(g25
g3
Ntp101
Rp102
(dp103
g29
V014
p104
sg31
VKakuna
p105
sg33
g34
sg35
V10
p106
sg37
(lp107
Vharden
p108
ag108
asg41
g42
sg43
Vshed-skin
p109
sbag1
(g25
g3
Ntp110
Rp111
(dp112
g29
V011
p113
sg31
VMetapod
p114
sg33
g34
sg35
g89
sg37
(lp115
Vharden
p116
ag116
asg41
g42
sg43
Vshed-skin
p117
sbasg73
I00
sg74
g75
sbag1
(g2
g3
Ntp118
Rp119
(dp120
g7
VSpr GS Bug Catcher.png
p121
sg9
VBug Catcher
p122
sg11
VWade
p123
sg13
g1
(cmwparserfromhell.wikicode
Wikicode
p124
g3
Ntp125
Rp126
(dp127
V_nodes
p128
g1
(cmwparserfromhell.smart_list.smart_list
SmartList
p129
c__builtin__
list
p130
(lp131
g1
(cmwparserfromhell.nodes.text
Text
p132
g3
Ntp133
Rp134
(dp135
V_value
p136
V224
p137
sbatp138
Rp139
(dp140
V_children
p141
(dp142
sbsbsg15
g16
sg17
g18
sg19
g20
sg21
g22
sg23
(lp143
g1
(g25
g3
Ntp144
Rp145
(dp146
g29
V012
p147
sg31
VButterfree
p148
sg33
g34
sg35
V14
p149
sg37
(lp150
Vsleep-powder
p151
aVconfusion
p152
ag152
aVsafeguard
p153
asg41
g42
sg43
Vcompound-eyes
p154
sbag1
(g25
g3
Ntp155
Rp156
(dp157
g29
V012
p158
sg31
VButterfree
p159
sg33
g34
sg35
V14
p160
sg37
(lp161
Vsleep-powder
p162
aVconfusion
p163
ag163
aVsafeguard
p164
asg41
g42
sg43
Vcompound-eyes
p165
sbag1
(g25
g3
Ntp166
Rp167
(dp168
g29
V015
p169
sg31
VBeedrill
p170
sg33
g34
sg35
V15
p171
sg37
(lp172
Vagility
p173
aVrage
p174
aVfocus-energy
p175
aVpursuit
p176
asg41
g42
sg43
Vswarm
p177
sbag1
(g25
g3
Ntp178
Rp179
(dp180
g29
V012
p181
sg31
VButterfree
p182
sg33
g34
sg35
V14
p183
sg37
(lp184
Vsleep-powder
p185
aVconfusion
p186
ag186
aVsafeguard
p187
asg41
g42
sg43
Vcompound-eyes
p188
sbasg73
I00
sg74
g75
sbag1
(g2
g3
Ntp189
Rp190
(dp191
g7
VSpr HGSS Bug Catcher.png
p192
sg9
VBug Catcher
p193
sg11
VWade
p194
sg13
V32
p195
sg15
g16
sg17
g18
sg19
g20
sg21
VHGSS
p196
sg23
(lp197
g1
(g25
g3
Ntp198
Rp199
(dp200
g29
V010
p201
sg31
VCaterpie
p202
sg33
g34
sg35
g36
sg37
(lp203
Vtackle
p204
aVstring-shot
p205
aVbug-bite
p206
asg41
g42
sg43
Vshield-dust
p207
sbag1
(g25
g3
Ntp208
Rp209
(dp210
g29
V010
p211
sg31
VCaterpie
p212
sg33
g34
sg35
g36
sg37
(lp213
Vtackle
p214
aVstring-shot
p215
aVbug-bite
p216
asg41
g42
sg43
Vshield-dust
p217
sbag1
(g25
g3
Ntp218
Rp219
(dp220
g29
V010
p221
sg31
VCaterpie
p222
sg33
g34
sg35
g36
sg37
(lp223
Vtackle
p224
aVstring-shot
p225
aVbug-bite
p226
asg41
g42
sg43
Vshield-dust
p227
sbag1
(g25
g3
Ntp228
Rp229
(dp230
g29
V013
p231
sg31
VWeedle
p232
sg33
g34
sg35
g59
sg37
(lp233
Vpoison-sting
p234
aVstring-shot
p235
aVbug-bite
p236
asg41
g42
sg43
Vshield-dust
p237
sbasg73
I00
sg74
Vheartgold-soulsilver
p238
sbag1
(g2
g3
Ntp239
Rp240
(dp241
g7
VSpr HGSS Bug Catcher.png
p242
sg9
VBug Catcher
p243
sg11
VWade
p244
sg13
g1
(g124
g3
Ntp245
Rp246
(dp247
g128
g1
(g129
g130
(lp248
g1
(g132
g3
Ntp249
Rp250
(dp251
g136
V464
p252
sbatp253
Rp254
(dp255
g141
(dp256
sbsbsg15
g16
sg17
g18
sg19
g20
sg21
g196
sg23
(lp257
g1
(g25
g3
Ntp258
Rp259
(dp260
g29
V011
p261
sg31
VMetapod
p262
sg33
g34
sg35
V18
p263
sg37
(lp264
Vharden
p265
ag265
asg41
g42
sg43
Vshed-skin
p266
sbag1
(g25
g3
Ntp267
Rp268
(dp269
g29
V011
p270
sg31
VMetapod
p271
sg33
g34
sg35
V18
p272
sg37
(lp273
Vharden
p274
ag274
asg41
g42
sg43
Vshed-skin
p275
sbag1
(g25
g3
Ntp276
Rp277
(dp278
g29
V014
p279
sg31
VKakuna
p280
sg33
g34
sg35
V22
p281
sg37
(lp282
Vharden
p283
ag283
asg41
g42
sg43
Vshed-skin
p284
sbag1
(g25
g3
Ntp285
Rp286
(dp287
g29
V012
p288
sg31
VButterfree
p289
sg33
g34
sg35
V29
p290
sg37
(lp291
Vsilver-wind
p292
aVtailwind
p293
aVbug-buzz
p294
aVcaptivate
p295
asg41
g42
sg43
Vcompound-eyes
p296
sbasg73
I00
sg74
g238
sbag1
(g2
g3
Ntp297
Rp298
(dp299
g7
VSpr HGSS Bug Catcher.png
p300
sg9
VBug Catcher
p301
sg11
VWade
p302
sg13
g1
(g124
g3
Ntp303
Rp304
(dp305
g128
g1
(g129
g130
(lp306
g1
(g132
g3
Ntp307
Rp308
(dp309
g136
V640
p310
sbatp311
Rp312
(dp313
g141
(dp314
sbsbsg15
g16
sg17
g18
sg19
g20
sg21
g196
sg23
(lp315
g1
(g25
g3
Ntp316
Rp317
(dp318
g29
V012
p319
sg31
VButterfree
p320
sg33
g34
sg35
V28
p321
sg37
(lp322
Vsilver-wind
p323
aVtailwind
p324
aVbug-buzz
p325
aVcaptivate
p326
asg41
g42
sg43
Vcompound-eyes
p327
sbag1
(g25
g3
Ntp328
Rp329
(dp330
g29
V012
p331
sg31
VButterfree
p332
sg33
g34
sg35
V28
p333
sg37
(lp334
Vsilver-wind
p335
aVtailwind
p336
aVbug-buzz
p337
aVcaptivate
p338
asg41
g42
sg43
Vcompound-eyes
p339
sbag1
(g25
g3
Ntp340
Rp341
(dp342
g29
V015
p343
sg31
VBeedrill
p344
sg33
g34
sg35
V37
p345
sg37
(lp346
Vendeavor
p347
aVassurance
p348
aVtoxic-spikes
p349
aVpoison-jab
p350
asg41
g42
sg43
Vswarm
p351
sbag1
(g25
g3
Ntp352
Rp353
(dp354
g29
V012
p355
sg31
VButterfree
p356
sg33
g34
sg35
V40
p357
sg37
(lp358
Vsilver-wind
p359
aVtailwind
p360
aVbug-buzz
p361
aVcaptivate
p362
asg41
g42
sg43
Vcompound-eyes
p363
sbasg73
I00
sg74
g238
sba.