(lp0
ccopy_reg
_reconstructor
p1
(c__main__
Trainer
p2
c__builtin__
object
p3
Ntp4
Rp5
(dp6
VtSprite
p7
VSpr DP Hiker.png
p8
sVtClass
p9
VHiker
p10
sVtName
p11
VDevin
p12
sVtMoney
p13
V608
p14
sVtPokeCount
p15
V3
p16
sVtLocation
p17
Vwiki/Johto_Route_47
p18
sVtRegion
p19
VJohto
p20
sVtGame
p21
VDP
p22
sVtPokes
p23
(lp24
g1
(c__main__
FinishedPokemon
p25
g3
Ntp26
Rp27
(dp28
VpDexNo
p29
V206
p30
sVpSpecies
p31
VDunsparce
p32
sVpGender
p33
VM
p34
sVpLevel
p35
V19
p36
sVpMoves
p37
(lp38
Vancient-power
p39
aVyawn
p40
aVendeavor
p41
aVroost
p42
asVpHold
p43
V
p44
sVpAbility
p45
Vserene-grace
p46
sbag1
(g25
g3
Ntp47
Rp48
(dp49
g29
V206
p50
sg31
VDunsparce
p51
sg33
g34
sg35
V19
p52
sg37
(lp53
Vancient-power
p54
aVyawn
p55
aVendeavor
p56
aVroost
p57
asg43
g44
sg45
Vserene-grace
p58
sbag1
(g25
g3
Ntp59
Rp60
(dp61
g29
V206
p62
sg31
VDunsparce
p63
sg33
g34
sg35
V19
p64
sg37
(lp65
Vancient-power
p66
aVyawn
p67
aVendeavor
p68
aVroost
p69
asg43
g44
sg45
Vserene-grace
p70
sbasVbossFlag
p71
I00
sVtLongGame
p72
Vdiamond-pearl
p73
sbag1
(g2
g3
Ntp74
Rp75
(dp76
g7
VSpr DP Camper.png
p77
sg9
VCamper
p78
sg11
VGrant
p79
sg13
V336
p80
sg15
V2
p81
sg17
g18
sg19
g20
sg21
g22
sg23
(lp82
g1
(g25
g3
Ntp83
Rp84
(dp85
g29
V188
p86
sg31
VSkiploom
p87
sg33
g34
sg35
V21
p88
sg37
(lp89
Vbullet-seed
p90
aVbounce
p91
aVu-turn
p92
aVworry-seed
p93
asg43
g44
sg45
Vchlorophyll
p94
sbag1
(g25
g3
Ntp95
Rp96
(dp97
g29
V183
p98
sg31
VMarill
p99
sg33
g34
sg35
V21
p100
sg37
(lp101
Vrollout
p102
aVrain-dance
p103
aVaqua-ring
p104
aVaqua-tail
p105
asg43
g44
sg45
Vthick-fat
p106
sbasg71
I00
sg72
g73
sbag1
(g2
g3
Ntp107
Rp108
(dp109
g7
VSpr HGSS Double Team.png
p110
sg9
VDouble Team
p111
sg11
VThom & Kae
p112
sg13
V6000
p113
sg15
g81
sg17
g18
sg19
g20
sg21
VHGSS
p114
sg23
(lp115
g1
(g25
g3
Ntp116
Rp117
(dp118
g29
V126
p119
sg31
VMagmar
p120
sg33
g34
sg35
V25
p121
sg37
(lp122
Vfire-blast
p123
aVfeint-attack
p124
aVsunny-day
p125
aVlava-plume
p126
asg43
g44
sg45
Vflame-body
p127
sbag1
(g25
g3
Ntp128
Rp129
(dp130
g29
V125
p131
sg31
VElectabuzz
p132
sg33
g34
sg35
V25
p133
sg37
(lp134
Vlight-screen
p135
aVswift
p136
aVshock-wave
p137
aVdischarge
p138
asg43
g44
sg45
Vstatic
p139
sbasg71
I00
sg72
Vheartgold-soulsilver
p140
sbag1
(g2
g3
Ntp141
Rp142
(dp143
g7
VSpr HGSS Young Couple.png
p144
sg9
VYoung Couple
p145
sg11
VDuff & Eda
p146
sg13
V2816
p147
sg15
g81
sg17
g18
sg19
g20
sg21
g114
sg23
(lp148
g1
(g25
g3
Ntp149
Rp150
(dp151
g29
V091
p152
sg31
VCloyster
p153
sg33
g34
sg35
V22
p154
sg37
(lp155
Vspike-cannon
p156
aVprotect
p157
aVspikes
p158
aVtoxic-spikes
p159
asg43
g44
sg45
Vshell-armor
p160
sbag1
(g25
g3
Ntp161
Rp162
(dp163
g29
V095
p164
sg31
VOnix
p165
sg33
g34
sg35
V22
p166
sg37
(lp167
Vrock-tomb
p168
aVsand-tomb
p169
aVrock-polish
p170
aVstone-edge
p171
asg43
g44
sg45
Vsturdy
p172
sbasg71
I00
sg72
g140
sba.