(lp0
ccopy_reg
_reconstructor
p1
(c__main__
Trainer
p2
c__builtin__
object
p3
Ntp4
Rp5
(dp6
VtSprite
p7
VSpr GS Psychic.png
p8
sVtClass
p9
VPsychic
p10
sVtName
p11
VMark
p12
sVtMoney
p13
V544
p14
sVtPokeCount
p15
V3
p16
sVtLocation
p17
Vwiki/Johto_Route_36
p18
sVtRegion
p19
VJohto
p20
sVtGame
p21
VGS
p22
sVtPokes
p23
(lp24
g1
(c__main__
FinishedPokemon
p25
g3
Ntp26
Rp27
(dp28
VpDexNo
p29
V063
p30
sVpSpecies
p31
VAbra
p32
sVpGender
p33
VM
p34
sVpLevel
p35
V13
p36
sVpMoves
p37
(lp38
Vteleport
p39
asVpHold
p40
V
p41
sVpAbility
p42
Vsynchronize
p43
sbag1
(g25
g3
Ntp44
Rp45
(dp46
g29
V063
p47
sg31
VAbra
p48
sg33
g34
sg35
V13
p49
sg37
(lp50
Vteleport
p51
asg40
g41
sg42
Vinner-focus
p52
sbag1
(g25
g3
Ntp53
Rp54
(dp55
g29
V064
p56
sg31
VKadabra
p57
sg33
g34
sg35
V15
p58
sg37
(lp59
Vrecover
p60
aVreflect
p61
aVkinesis
p62
aVfuture-sight
p63
asg40
g41
sg42
Vsynchronize
p64
sbasVbossFlag
p65
I00
sVtLongGame
p66
Vgold-silver
p67
sbag1
(g2
g3
Ntp68
Rp69
(dp70
g7
VSpr GS Schoolboy.png
p71
sg9
VSchoolboy
p72
sg11
VAlan
p73
sg13
V512
p74
sg15
V1
p75
sg17
g18
sg19
g20
sg21
g22
sg23
(lp76
g1
(g25
g3
Ntp77
Rp78
(dp79
g29
V114
p80
sg31
VTangela
p81
sg33
g34
sg35
V16
p82
sg37
(lp83
Vpoison-powder
p84
aVstun-spore
p85
aVsleep-powder
p86
aVconstrict
p87
asg40
g41
sg42
Vleaf-guard
p88
sbasg65
I00
sg66
g67
sbag1
(g2
g3
Ntp89
Rp90
(dp91
g7
VSpr GS Schoolboy.png
p92
sg9
VSchoolboy
p93
sg11
VAlan{{tt|*|First rematch}}
p94
sg13
V544
p95
sg15
V2
p96
sg17
g18
sg19
g20
sg21
g22
sg23
(lp97
g1
(g25
g3
Ntp98
Rp99
(dp100
g29
V114
p101
sg31
VTangela
p102
sg33
g34
sg35
V17
p103
sg37
(lp104
Vpoison-powder
p105
aVstun-spore
p106
aVsleep-powder
p107
aVconstrict
p108
asg40
g41
sg42
Vchlorophyll
p109
sbag1
(g25
g3
Ntp110
Rp111
(dp112
g29
V193
p113
sg31
VYanma
p114
sg33
g34
sg35
V17
p115
sg37
(lp116
Vdouble-team
p117
aVswift
p118
aVforesight
p119
aVdetect
p120
asg40
g41
sg42
Vcompound-eyes
p121
sbasg65
I00
sg66
g67
sbag1
(g2
g3
Ntp122
Rp123
(dp124
g7
VSpr GS Schoolboy.png
p125
sg9
VSchoolboy
p126
sg11
VAlan
p127
sg13
g1
(cmwparserfromhell.wikicode
Wikicode
p128
g3
Ntp129
Rp130
(dp131
V_nodes
p132
g1
(cmwparserfromhell.smart_list.smart_list
SmartList
p133
c__builtin__
list
p134
(lp135
g1
(cmwparserfromhell.nodes.text
Text
p136
g3
Ntp137
Rp138
(dp139
V_value
p140
V800
p141
sbatp142
Rp143
(dp144
V_children
p145
(dp146
sbsbsg15
V4
p147
sg17
g18
sg19
g20
sg21
g22
sg23
(lp148
g1
(g25
g3
Ntp149
Rp150
(dp151
g29
V177
p152
sg31
VNatu
p153
sg33
g34
sg35
V20
p154
sg37
(lp155
Vteleport
p156
aVnight-shade
p157
aVconfuse-ray
p158
aVfuture-sight
p159
asg40
g41
sg42
Vearly-bird
p160
sbag1
(g25
g3
Ntp161
Rp162
(dp163
g29
V114
p164
sg31
VTangela
p165
sg33
g34
sg35
V22
p166
sg37
(lp167
Vpoison-powder
p168
aVstun-spore
p169
aVsleep-powder
p170
aVconstrict
p171
asg40
g41
sg42
Vleaf-guard
p172
sbag1
(g25
g3
Ntp173
Rp174
(dp175
g29
V195
p176
sg31
VQuagsire
p177
sg33
g34
sg35
V20
p178
sg37
(lp179
Vearthquake
p180
aVhaze
p181
aVamnesia
p182
aVrain-dance
p183
asg40
g41
sg42
Vdamp
p184
sbag1
(g25
g3
Ntp185
Rp186
(dp187
g29
V193
p188
sg31
VYanma
p189
sg33
g34
sg35
V25
p190
sg37
(lp191
Vdouble-team
p192
aVswift
p193
aVforesight
p194
aVdetect
p195
asg40
g41
sg42
Vspeed-boost
p196
sbasg65
I00
sg66
g67
sbag1
(g2
g3
Ntp197
Rp198
(dp199
g7
VSpr GS Schoolboy.png
p200
sg9
VSchoolboy
p201
sg11
VAlan{{tt|*|Fourth rematch onward}}
p202
sg13
V1120
p203
sg15
g147
sg17
g18
sg19
g20
sg21
g22
sg23
(lp204
g1
(g25
g3
Ntp205
Rp206
(dp207
g29
V178
p208
sg31
VXatu
p209
sg33
g34
sg35
V35
p210
sg37
(lp211
Vnight-shade
p212
ag212
aVconfuse-ray
p213
aVfuture-sight
p214
asg40
g41
sg42
Vsynchronize
p215
sbag1
(g25
g3
Ntp216
Rp217
(dp218
g29
V114
p219
sg31
VTangela
p220
sg33
g34
sg35
V32
p221
sg37
(lp222
Vpoison-powder
p223
aVstun-spore
p224
aVsleep-powder
p225
aVconstrict
p226
asg40
g41
sg42
Vchlorophyll
p227
sbag1
(g25
g3
Ntp228
Rp229
(dp230
g29
V193
p231
sg31
VYanma
p232
sg33
g34
sg35
V32
p233
sg37
(lp234
Vdouble-team
p235
aVswift
p236
aVforesight
p237
aVdetect
p238
asg40
g41
sg42
Vspeed-boost
p239
sbag1
(g25
g3
Ntp240
Rp241
(dp242
g29
V195
p243
sg31
VQuagsire
p244
sg33
g34
sg35
V35
p245
sg37
(lp246
Vearthquake
p247
aVhaze
p248
aVamnesia
p249
aVrain-dance
p250
asg40
g41
sg42
Vwater-absorb
p251
sbasg65
I00
sg66
g67
sbag1
(g2
g3
Ntp252
Rp253
(dp254
g7
VSpr DP Psychic M.png
p255
sg9
VPsychic
p256
sg11
VMark
p257
sg13
V512
p258
sg15
g16
sg17
g18
sg19
g20
sg21
VDP
p259
sg23
(lp260
g1
(g25
g3
Ntp261
Rp262
(dp263
g29
V063
p264
sg31
VAbra
p265
sg33
g34
sg35
V14
p266
sg37
(lp267
Vteleport
p268
asg40
g41
sg42
Vsynchronize
p269
sbag1
(g25
g3
Ntp270
Rp271
(dp272
g29
V063
p273
sg31
VAbra
p274
sg33
g34
sg35
V14
p275
sg37
(lp276
Vteleport
p277
asg40
g41
sg42
Vsynchronize
p278
sbag1
(g25
g3
Ntp279
Rp280
(dp281
g29
V064
p282
sg31
VKadabra
p283
sg33
g34
sg35
V16
p284
sg37
(lp285
Vtrick
p286
aVrole-play
p287
aVmiracle-eye
p288
aVpsycho-cut
p289
asg40
g41
sg42
Vsynchronize
p290
sbasg65
I00
sg66
Vdiamond-pearl
p291
sbag1
(g2
g3
Ntp292
Rp293
(dp294
g7
Vspr HGSS School Kid.png
p295
sg9
VSchool Kid
p296
sg11
VAlan
p297
sg13
V340
p298
sg15
g75
sg17
g18
sg19
g20
sg21
VHGSS
p299
sg23
(lp300
g1
(g25
g3
Ntp301
Rp302
(dp303
g29
V114
p304
sg31
VTangela
p305
sg33
g34
sg35
V17
p306
sg37
(lp307
Vtickle
p308
aVnatural-gift
p309
aVwring-out
p310
aVpower-whip
p311
asg40
g41
sg42
Vleaf-guard
p312
sbasg65
I00
sg66
Vheartgold-soulsilver
p313
sbag1
(g2
g3
Ntp314
Rp315
(dp316
g7
Vspr HGSS School Kid.png
p317
sg9
VSchool Kid
p318
sg11
VAlan{{tt|*|First rematch}}
p319
sg13
V600
p320
sg15
g96
sg17
g18
sg19
g20
sg21
g299
sg23
(lp321
g1
(g25
g3
Ntp322
Rp323
(dp324
g29
V114
p325
sg31
VTangela
p326
sg33
g34
sg35
V32
p327
sg37
(lp328
Vtickle
p329
aVnatural-gift
p330
aVwring-out
p331
aVpower-whip
p332
asg40
g41
sg42
Vchlorophyll
p333
sbag1
(g25
g3
Ntp334
Rp335
(dp336
g29
V193
p337
sg31
VYanma
p338
sg33
g34
sg35
V30
p339
sg37
(lp340
Vuproar
p341
aVu-turn
p342
aVair-slash
p343
aVbug-buzz
p344
asg40
g41
sg42
Vcompound-eyes
p345
sbasg65
I00
sg66
g313
sbag1
(g2
g3
Ntp346
Rp347
(dp348
g7
Vspr HGSS School Kid.png
p349
sg9
VSchool Kid
p350
sg11
VAlan
p351
sg13
g1
(g128
g3
Ntp352
Rp353
(dp354
g132
g1
(g133
g134
(lp355
g1
(g136
g3
Ntp356
Rp357
(dp358
g140
V680
p359
sbatp360
Rp361
(dp362
g145
(dp363
sbsbsg15
g147
sg17
g18
sg19
g20
sg21
g299
sg23
(lp364
g1
(g25
g3
Ntp365
Rp366
(dp367
g29
V178
p368
sg31
VXatu
p369
sg33
g34
sg35
V32
p370
sg37
(lp371
Vme-first
p372
aVpower-swap
p373
aVguard-swap
p374
aVominous-wind
p375
asg40
g41
sg42
Vearly-bird
p376
sbag1
(g25
g3
Ntp377
Rp378
(dp379
g29
V465
p380
sg31
VTangrowth
p381
sg33
g34
sg35
V36
p382
sg37
(lp383
Vblock
p384
aVnatural-gift
p385
aVwring-out
p386
aVpower-whip
p387
asg40
g41
sg42
Vleaf-guard
p388
sbag1
(g25
g3
Ntp389
Rp390
(dp391
g29
V195
p392
sg31
VQuagsire
p393
sg33
g34
sg35
V32
p394
sg37
(lp395
Vmud-sport
p396
aVmuddy-water
p397
aVmud-shot
p398
aVmud-bomb
p399
asg40
g41
sg42
Vdamp
p400
sbag1
(g25
g3
Ntp401
Rp402
(dp403
g29
V469
p404
sg31
VYanmega
p405
sg33
g34
sg35
V34
p406
sg37
(lp407
Vnight-slash
p408
aVair-slash
p409
aVbug-buzz
p410
aVbug-bite
p411
asg40
g41
sg42
Vtinted-lens
p412
sbasg65
I00
sg66
g313
sba.