(lp0
ccopy_reg
_reconstructor
p1
(c__main__
Trainer
p2
c__builtin__
object
p3
Ntp4
Rp5
(dp6
VtSprite
p7
VSpr GS Youngster.png
p8
sVtClass
p9
VYoungster
p10
sVtName
p11
V[[Joey]]
p12
sVtMoney
p13
V64
p14
sVtPokeCount
p15
V1
p16
sVtLocation
p17
Vwiki/Johto_Route_30
p18
sVtRegion
p19
VJohto
p20
sVtGame
p21
VGS
p22
sVtPokes
p23
(lp24
g1
(c__main__
FinishedPokemon
p25
g3
Ntp26
Rp27
(dp28
VpDexNo
p29
V019
p30
sVpSpecies
p31
VRattata
p32
sVpGender
p33
VM
p34
sVpLevel
p35
V4
p36
sVpMoves
p37
(lp38
Vfocus-energy
p39
aVhyper-fang
p40
aVsuper-fang
p41
aVpursuit
p42
asVpHold
p43
V
p44
sVpAbility
p45
Vguts
p46
sbasVbossFlag
p47
I00
sVtLongGame
p48
Vgold-silver
p49
sbag1
(g2
g3
Ntp50
Rp51
(dp52
g7
VSpr GS Youngster.png
p53
sg9
VYoungster
p54
sg11
VMikey
p55
sg13
V64
p56
sg15
V2
p57
sg17
g18
sg19
g20
sg21
g22
sg23
(lp58
g1
(g25
g3
Ntp59
Rp60
(dp61
g29
V016
p62
sg31
VPidgey
p63
sg33
g34
sg35
g57
sg37
(lp64
Vtackle
p65
aVagility
p66
aVquick-attack
p67
aVmirror-move
p68
asg43
g44
sg45
Vtangled-feet
p69
sbag1
(g25
g3
Ntp70
Rp71
(dp72
g29
V019
p73
sg31
VRattata
p74
sg33
g34
sg35
g36
sg37
(lp75
Vfocus-energy
p76
aVhyper-fang
p77
aVsuper-fang
p78
aVpursuit
p79
asg43
g44
sg45
Vguts
p80
sbasg47
I00
sg48
g49
sbag1
(g2
g3
Ntp81
Rp82
(dp83
g7
VSpr GS Bug Catcher.png
p84
sg9
VBug Catcher
p85
sg11
VDon
p86
sg13
V48
p87
sg15
g57
sg17
g18
sg19
g20
sg21
g22
sg23
(lp88
g1
(g25
g3
Ntp89
Rp90
(dp91
g29
V010
p92
sg31
VCaterpie
p93
sg33
g34
sg35
V3
p94
sg37
(lp95
Vtackle
p96
aVstring-shot
p97
asg43
g44
sg45
Vshield-dust
p98
sbag1
(g25
g3
Ntp99
Rp100
(dp101
g29
V010
p102
sg31
VCaterpie
p103
sg33
g34
sg35
g94
sg37
(lp104
Vtackle
p105
aVstring-shot
p106
asg43
g44
sg45
Vshield-dust
p107
sbasg47
I00
sg48
g49
sbag1
(g2
g3
Ntp108
Rp109
(dp110
g7
VSpr GS Youngster.png
p111
sg9
VYoungster
p112
sg11
V[[Joey]]{{tt|*|First rematch}}
p113
sg13
V240
p114
sg15
g16
sg17
g18
sg19
g20
sg21
g22
sg23
(lp115
g1
(g25
g3
Ntp116
Rp117
(dp118
g29
V019
p119
sg31
VRattata
p120
sg33
g34
sg35
V15
p121
sg37
(lp122
Vfocus-energy
p123
aVhyper-fang
p124
aVsuper-fang
p125
aVpursuit
p126
asg43
g44
sg45
Vguts
p127
sbasg47
I00
sg48
g49
sbag1
(g2
g3
Ntp128
Rp129
(dp130
g7
VSpr GS Youngster.png
p131
sg9
VYoungster
p132
sg11
V[[Joey]]
p133
sg13
g1
(cmwparserfromhell.wikicode
Wikicode
p134
g3
Ntp135
Rp136
(dp137
V_nodes
p138
g1
(cmwparserfromhell.smart_list.smart_list
SmartList
p139
c__builtin__
list
p140
(lp141
g1
(cmwparserfromhell.nodes.text
Text
p142
g3
Ntp143
Rp144
(dp145
V_value
p146
V336
p147
sbatp148
Rp149
(dp150
V_children
p151
(dp152
sbsbsg15
g16
sg17
g18
sg19
g20
sg21
g22
sg23
(lp153
g1
(g25
g3
Ntp154
Rp155
(dp156
g29
V020
p157
sg31
VRaticate
p158
sg33
g34
sg35
V21
p159
sg37
(lp160
Vhyper-fang
p161
aVsuper-fang
p162
aVscary-face
p163
aVpursuit
p164
asg43
g44
sg45
Vrun-away
p165
sbasg47
I00
sg48
g49
sbag1
(g2
g3
Ntp166
Rp167
(dp168
g7
VSpr HGSS Youngster.png
p169
sg9
VYoungster
p170
sg11
V[[Joey]]
p171
sg13
V64
p172
sg15
g16
sg17
g18
sg19
g20
sg21
VHGSS
p173
sg23
(lp174
g1
(g25
g3
Ntp175
Rp176
(dp177
g29
V019
p178
sg31
VRattata
p179
sg33
g34
sg35
g36
sg37
(lp180
Vcrunch
p181
aVendeavor
p182
aVassurance
p183
aVsucker-punch
p184
asg43
g44
sg45
Vrun-away
p185
sbasg47
I00
sg48
Vheartgold-soulsilver
p186
sbag1
(g2
g3
Ntp187
Rp188
(dp189
g7
VSpr HGSS Youngster.png
p190
sg9
VYoungster
p191
sg11
VMikey
p192
sg13
V64
p193
sg15
g57
sg17
g18
sg19
g20
sg21
g173
sg23
(lp194
g1
(g25
g3
Ntp195
Rp196
(dp197
g29
V016
p198
sg31
VPidgey
p199
sg33
g34
sg35
g57
sg37
(lp200
Vfeather-dance
p201
aVroost
p202
aVtailwind
p203
aVair-slash
p204
asg43
g44
sg45
Vtangled-feet
p205
sbag1
(g25
g3
Ntp206
Rp207
(dp208
g29
V019
p209
sg31
VRattata
p210
sg33
g34
sg35
g36
sg37
(lp211
Vcrunch
p212
aVendeavor
p213
aVassurance
p214
aVsucker-punch
p215
asg43
g44
sg45
Vguts
p216
sbasg47
I00
sg48
g186
sbag1
(g2
g3
Ntp217
Rp218
(dp219
g7
VSpr HGSS Bug Catcher.png
p220
sg9
VBug Catcher
p221
sg11
VDon
p222
sg13
V48
p223
sg15
g57
sg17
g18
sg19
g20
sg21
g173
sg23
(lp224
g1
(g25
g3
Ntp225
Rp226
(dp227
g29
V010
p228
sg31
VCaterpie
p229
sg33
g34
sg35
g94
sg37
(lp230
Vtackle
p231
aVstring-shot
p232
aVbug-bite
p233
asg43
g44
sg45
Vshield-dust
p234
sbag1
(g25
g3
Ntp235
Rp236
(dp237
g29
V010
p238
sg31
VCaterpie
p239
sg33
g34
sg35
g94
sg37
(lp240
Vtackle
p241
aVstring-shot
p242
aVbug-bite
p243
asg43
g44
sg45
Vshield-dust
p244
sbasg47
I00
sg48
g186
sbag1
(g2
g3
Ntp245
Rp246
(dp247
g7
VSpr HGSS Youngster.png
p248
sg9
VYoungster
p249
sg11
V[[Joey]]
p250
sg13
g1
(g134
g3
Ntp251
Rp252
(dp253
g138
g1
(g139
g140
(lp254
g1
(g142
g3
Ntp255
Rp256
(dp257
g146
V544
p258
sbatp259
Rp260
(dp261
g151
(dp262
sbsbsg15
g16
sg17
g18
sg19
g20
sg21
g173
sg23
(lp263
g1
(g25
g3
Ntp264
Rp265
(dp266
g29
V020
p267
sg31
VRaticate
p268
sg33
g34
sg35
V34
p269
sg37
(lp270
Vcrunch
p271
aVendeavor
p272
aVassurance
p273
aVsucker-punch
p274
asg43
g44
sg45
Vguts
p275
sbasg47
I00
sg48
g186
sba.