(lp0
ccopy_reg
_reconstructor
p1
(c__main__
Trainer
p2
c__builtin__
object
p3
Ntp4
Rp5
(dp6
VtSprite
p7
VSpr GS Youngster.png
p8
sVtClass
p9
VYoungster
p10
sVtName
p11
VAlbert
p12
sVtMoney
p13
V128
p14
sVtPokeCount
p15
V2
p16
sVtLocation
p17
Vwiki/Johto_Route_32
p18
sVtRegion
p19
VJohto
p20
sVtGame
p21
VGS
p22
sVtPokes
p23
(lp24
g1
(c__main__
FinishedPokemon
p25
g3
Ntp26
Rp27
(dp28
VpDexNo
p29
V019
p30
sVpSpecies
p31
VRattata
p32
sVpGender
p33
VM
p34
sVpLevel
p35
V6
p36
sVpMoves
p37
(lp38
Vfocus-energy
p39
aVhyper-fang
p40
aVsuper-fang
p41
aVpursuit
p42
asVpHold
p43
V
p44
sVpAbility
p45
Vrun-away
p46
sbag1
(g25
g3
Ntp47
Rp48
(dp49
g29
V041
p50
sg31
VZubat
p51
sg33
g34
sg35
V8
p52
sg37
(lp53
Vconfuse-ray
p54
aVhaze
p55
aVleech-life
p56
aVmean-look
p57
asg43
g44
sg45
Vinner-focus
p58
sbasVbossFlag
p59
I00
sVtLongGame
p60
Vgold-silver
p61
sbag1
(g2
g3
Ntp62
Rp63
(dp64
g7
VSpr GS Picnicker.png
p65
sg9
VPicnicker
p66
sg11
VLiz
p67
sg13
V180
p68
sg15
V1
p69
sg17
g18
sg19
g20
sg21
g22
sg23
(lp70
g1
(g25
g3
Ntp71
Rp72
(dp73
g29
V029
p74
sg31
VNidoran\u2640
p75
sg33
VU
p76
sg35
V9
p77
sg37
(lp78
Vpoison-sting
p79
aVbite
p80
aVgrowl
p81
aVfury-swipes
p82
asg43
g44
sg45
Vpoison-point
p83
sbasg59
I00
sg60
g61
sbag1
(g2
g3
Ntp84
Rp85
(dp86
g7
VSpr GS Camper.png
p87
sg9
VCamper
p88
sg11
VRoland
p89
sg13
V180
p90
sg15
g69
sg17
g18
sg19
g20
sg21
g22
sg23
(lp91
g1
(g25
g3
Ntp92
Rp93
(dp94
g29
V032
p95
sg31
VNidoran\u2642
p96
sg33
g76
sg35
g77
sg37
(lp97
Vtackle
p98
aVpoison-sting
p99
aVleer
p100
aVfocus-energy
p101
asg43
g44
sg45
Vpoison-point
p102
sbasg59
I00
sg60
g61
sbag1
(g2
g3
Ntp103
Rp104
(dp105
g7
VSpr GS Fisher.png
p106
sg9
VFisher
p107
sg11
VHenry
p108
sg13
V320
p109
sg15
g16
sg17
g18
sg19
g20
sg21
g22
sg23
(lp110
g1
(g25
g3
Ntp111
Rp112
(dp113
g29
V060
p114
sg31
VPoliwag
p115
sg33
g34
sg35
g52
sg37
(lp116
Vhypnosis
p117
aVbubble
p118
aVbelly-drum
p119
aVrain-dance
p120
asg43
g44
sg45
Vdamp
p121
sbag1
(g25
g3
Ntp122
Rp123
(dp124
g29
V060
p125
sg31
VPoliwag
p126
sg33
g34
sg35
g52
sg37
(lp127
Vhypnosis
p128
aVbubble
p129
aVbelly-drum
p130
aVrain-dance
p131
asg43
g44
sg45
Vdamp
p132
sbasg59
I00
sg60
g61
sbag1
(g2
g3
Ntp133
Rp134
(dp135
g7
VSpr GS Fisher.png
p136
sg9
VFisher
p137
sg11
VJustin
p138
sg13
V200
p139
sg15
V4
p140
sg17
g18
sg19
g20
sg21
g22
sg23
(lp141
g1
(g25
g3
Ntp142
Rp143
(dp144
g29
V129
p145
sg31
VMagikarp
p146
sg33
g34
sg35
V5
p147
sg37
(lp148
Vtackle
p149
aVsplash
p150
aVflail
p151
asg43
g44
sg45
Vswift-swim
p152
sbag1
(g25
g3
Ntp153
Rp154
(dp155
g29
V129
p156
sg31
VMagikarp
p157
sg33
g34
sg35
g147
sg37
(lp158
Vtackle
p159
aVsplash
p160
aVflail
p161
asg43
g44
sg45
Vswift-swim
p162
sbag1
(g25
g3
Ntp163
Rp164
(dp165
g29
V129
p166
sg31
VMagikarp
p167
sg33
g34
sg35
V15
p168
sg37
(lp169
Vtackle
p170
aVsplash
p171
aVflail
p172
asg43
g44
sg45
Vswift-swim
p173
sbag1
(g25
g3
Ntp174
Rp175
(dp176
g29
V129
p177
sg31
VMagikarp
p178
sg33
g34
sg35
g147
sg37
(lp179
Vtackle
p180
aVsplash
p181
aVflail
p182
asg43
g44
sg45
Vswift-swim
p183
sbasg59
I00
sg60
g61
sbag1
(g2
g3
Ntp184
Rp185
(dp186
g7
VSpr GS Fisher.png
p187
sg9
VFisher
p188
sg11
VRalph
p189
sg13
V400
p190
sg15
g69
sg17
g18
sg19
g20
sg21
g22
sg23
(lp191
g1
(g25
g3
Ntp192
Rp193
(dp194
g29
V118
p195
sg31
VGoldeen
p196
sg33
g34
sg35
V10
p197
sg37
(lp198
Vpeck
p199
aVagility
p200
aVwaterfall
p201
aVflail
p202
asg43
g44
sg45
Vwater-veil
p203
sbasg59
I00
sg60
g61
sbag1
(g2
g3
Ntp204
Rp205
(dp206
g7
VSpr GS Youngster.png
p207
sg9
VYoungster
p208
sg11
VGordon
p209
sg13
V160
p210
sg15
g69
sg17
g18
sg19
g20
sg21
g22
sg23
(lp211
g1
(g25
g3
Ntp212
Rp213
(dp214
g29
V194
p215
sg31
VWooper
p216
sg33
g34
sg35
V10
p217
sg37
(lp218
Vearthquake
p219
aVhaze
p220
aVamnesia
p221
aVrain-dance
p222
asg43
g44
sg45
Vwater-absorb
p223
sbasg59
I00
sg60
g61
sbag1
(g2
g3
Ntp224
Rp225
(dp226
g7
VSpr GS Bird Keeper.png
p227
sg9
VBird Keeper
p228
sg11
VPeter
p229
sg13
V192
p230
sg15
V3
p231
sg17
g18
sg19
g20
sg21
g22
sg23
(lp232
g1
(g25
g3
Ntp233
Rp234
(dp235
g29
V016
p236
sg31
VPidgey
p237
sg33
g34
sg35
g36
sg37
(lp238
Vtackle
p239
aVagility
p240
aVquick-attack
p241
aVmirror-move
p242
asg43
g44
sg45
Vkeen-eye
p243
sbag1
(g25
g3
Ntp244
Rp245
(dp246
g29
V016
p247
sg31
VPidgey
p248
sg33
g34
sg35
g36
sg37
(lp249
Vtackle
p250
aVagility
p251
aVquick-attack
p252
aVmirror-move
p253
asg43
g44
sg45
Vkeen-eye
p254
sbag1
(g25
g3
Ntp255
Rp256
(dp257
g29
V021
p258
sg31
VSpearow
p259
sg33
g34
sg35
g52
sg37
(lp260
Vdrill-peck
p261
aVagility
p262
aVmirror-move
p263
aVpursuit
p264
asg43
g44
sg45
Vkeen-eye
p265
sbasg59
I00
sg60
g61
sbag1
(g2
g3
Ntp266
Rp267
(dp268
g7
VSpr GS Picnicker.png
p269
sg9
VPicnicker
p270
sg11
VLiz{{tt|*|First rematch}}
p271
sg13
V300
p272
sg15
g16
sg17
g18
sg19
g20
sg21
g22
sg23
(lp273
g1
(g25
g3
Ntp274
Rp275
(dp276
g29
V070
p277
sg31
VWeepinbell
p278
sg33
VF
p279
sg35
V15
p280
sg37
(lp281
Vpoison-powder
p282
aVstun-spore
p283
aVsleep-powder
p284
aVsweet-scent
p285
asg43
g44
sg45
Vchlorophyll
p286
sbag1
(g25
g3
Ntp287
Rp288
(dp289
g29
V030
p290
sg31
VNidorina
p291
sg33
g279
sg35
V15
p292
sg37
(lp293
Vpoison-sting
p294
aVbite
p295
aVgrowl
p296
aVfury-swipes
p297
asg43
g44
sg45
Vrivalry
p298
sbasg59
I00
sg60
g61
sbag1
(g2
g3
Ntp299
Rp300
(dp301
g7
VSpr GS Picnicker.png
p302
sg9
VPicnicker
p303
sg11
VLiz
p304
sg13
g1
(cmwparserfromhell.wikicode
Wikicode
p305
g3
Ntp306
Rp307
(dp308
V_nodes
p309
g1
(cmwparserfromhell.smart_list.smart_list
SmartList
p310
c__builtin__
list
p311
(lp312
g1
(cmwparserfromhell.nodes.text
Text
p313
g3
Ntp314
Rp315
(dp316
V_value
p317
V420
p318
sbatp319
Rp320
(dp321
V_children
p322
(dp323
sbsbsg15
g231
sg17
g18
sg19
g20
sg21
g22
sg23
(lp324
g1
(g25
g3
Ntp325
Rp326
(dp327
g29
V070
p328
sg31
VWeepinbell
p329
sg33
g279
sg35
V19
p330
sg37
(lp331
Vpoison-powder
p332
aVstun-spore
p333
aVsleep-powder
p334
aVsweet-scent
p335
asg43
g44
sg45
Vchlorophyll
p336
sbag1
(g25
g3
Ntp337
Rp338
(dp339
g29
V033
p340
sg31
VNidorino
p341
sg33
g34
sg35
V19
p342
sg37
(lp343
Vtackle
p344
aVpoison-sting
p345
aVleer
p346
aVfocus-energy
p347
asg43
g44
sg45
Vpoison-point
p348
sbag1
(g25
g3
Ntp349
Rp350
(dp351
g29
V031
p352
sg31
VNidoqueen
p353
sg33
g279
sg35
V21
p354
sg37
(lp355
Vdouble-kick
p356
aVtackle
p357
aVbody-slam
p358
aVtail-whip
p359
asg43
g44
sg45
Vrivalry
p360
sbasg59
I00
sg60
g61
sbag1
(g2
g3
Ntp361
Rp362
(dp363
g7
VSpr GS Picnicker.png
p364
sg9
VPicnicker
p365
sg11
VLiz{{tt|*|Fourth rematch onward}}{{sup/2|C}}
p366
sg13
V640
p367
sg15
g231
sg17
g18
sg19
g20
sg21
g22
sg23
(lp368
g1
(g25
g3
Ntp369
Rp370
(dp371
g29
V070
p372
sg31
VWeepinbell
p373
sg33
g279
sg35
V30
p374
sg37
(lp375
Vpoison-powder
p376
aVstun-spore
p377
aVsleep-powder
p378
aVsweet-scent
p379
asg43
g44
sg45
Vchlorophyll
p380
sbag1
(g25
g3
Ntp381
Rp382
(dp383
g29
V034
p384
sg31
VNidoking
p385
sg33
g34
sg35
V32
p386
sg37
(lp387
Vhorn-attack
p388
aVtackle
p389
aVthrash
p390
aVpoison-sting
p391
asg43
g44
sg45
Vrivalry
p392
sbag1
(g25
g3
Ntp393
Rp394
(dp395
g29
V031
p396
sg31
VNidoqueen
p397
sg33
g279
sg35
V32
p398
sg37
(lp399
Vdouble-kick
p400
aVtackle
p401
aVbody-slam
p402
aVtail-whip
p403
asg43
g44
sg45
Vrivalry
p404
sbasg59
I00
sg60
g61
sbag1
(g2
g3
Ntp405
Rp406
(dp407
g7
VSpr GS Fisher.png
p408
sg9
VFisher
p409
sg11
VRalph{{tt|*|First rematch}}
p410
sg13
V680
p411
sg15
g69
sg17
g18
sg19
g20
sg21
g22
sg23
(lp412
g1
(g25
g3
Ntp413
Rp414
(dp415
g29
V118
p416
sg31
VGoldeen
p417
sg33
g34
sg35
V17
p418
sg37
(lp419
Vpeck
p420
aVagility
p421
aVwaterfall
p422
aVflail
p423
asg43
g44
sg45
Vswift-swim
p424
sbasg59
I00
sg60
g61
sbag1
(g2
g3
Ntp425
Rp426
(dp427
g7
VSpr GS Fisher.png
p428
sg9
VFisher
p429
sg11
VRalph
p430
sg13
g1
(g305
g3
Ntp431
Rp432
(dp433
g309
g1
(g310
g311
(lp434
g1
(g313
g3
Ntp435
Rp436
(dp437
g317
V760
p438
sbatp439
Rp440
(dp441
g322
(dp442
sbsbsg15
g16
sg17
g18
sg19
g20
sg21
g22
sg23
(lp443
g1
(g25
g3
Ntp444
Rp445
(dp446
g29
V211
p447
sg31
VQwilfish
p448
sg33
g34
sg35
V17
p449
sg37
(lp450
Vwater-gun
p451
aVhydro-pump
p452
aVharden
p453
aVminimize
p454
asg43
g44
sg45
Vpoison-point
p455
sbag1
(g25
g3
Ntp456
Rp457
(dp458
g29
V118
p459
sg31
VGoldeen
p460
sg33
g34
sg35
V19
p461
sg37
(lp462
Vpeck
p463
aVagility
p464
aVwaterfall
p465
aVflail
p466
asg43
g44
sg45
Vswift-swim
p467
sbasg59
I00
sg60
g61
sbag1
(g2
g3
Ntp468
Rp469
(dp470
g7
VSpr GS Fisher.png
p471
sg9
VFisher
p472
sg11
VRalph{{tt|*|Fourth rematch onward}}{{sup/2|C}}
p473
sg13
V1560
p474
sg15
g16
sg17
g18
sg19
g20
sg21
g22
sg23
(lp475
g1
(g25
g3
Ntp476
Rp477
(dp478
g29
V211
p479
sg31
VQwilfish
p480
sg33
g34
sg35
V35
p481
sg37
(lp482
Vwater-gun
p483
aVhydro-pump
p484
aVharden
p485
aVminimize
p486
asg43
g44
sg45
Vswift-swim
p487
sbag1
(g25
g3
Ntp488
Rp489
(dp490
g29
V119
p491
sg31
VSeaking
p492
sg33
g34
sg35
V39
p493
sg37
(lp494
Vpeck
p495
aVagility
p496
aVwaterfall
p497
aVflail
p498
asg43
g44
sg45
Vwater-veil
p499
sbasg59
I00
sg60
g61
sbag1
(g2
g3
Ntp500
Rp501
(dp502
g7
VSpr HGSS Youngster.png
p503
sg9
VYoungster
p504
sg11
VAlbert
p505
sg13
V128
p506
sg15
g16
sg17
g18
sg19
g20
sg21
VHGSS
p507
sg23
(lp508
g1
(g25
g3
Ntp509
Rp510
(dp511
g29
V019
p512
sg31
VRattata
p513
sg33
g34
sg35
g36
sg37
(lp514
Vcrunch
p515
aVendeavor
p516
aVassurance
p517
aVsucker-punch
p518
asg43
g44
sg45
Vrun-away
p519
sbag1
(g25
g3
Ntp520
Rp521
(dp522
g29
V041
p523
sg31
VZubat
p524
sg33
g34
sg35
g52
sg37
(lp525
Vpoison-fang
p526
aVastonish
p527
aVair-cutter
p528
aVair-slash
p529
asg43
g44
sg45
Vinner-focus
p530
sbasg59
I00
sg60
Vheartgold-soulsilver
p531
sbag1
(g2
g3
Ntp532
Rp533
(dp534
g7
VSpr DP Picnicker.png
p535
sg9
VPicnicker
p536
sg11
VLiz
p537
sg13
V128
p538
sg15
g69
sg17
g18
sg19
g20
sg21
VDP
p539
sg23
(lp540
g1
(g25
g3
Ntp541
Rp542
(dp543
g29
V029
p544
sg31
VNidoran\u2640
p545
sg33
g76
sg35
g52
sg37
(lp546
Vhelping-hand
p547
aVpoison-fang
p548
aVtoxic-spikes
p549
aVcaptivate
p550
asg43
g44
sg45
Vrivalry
p551
sbasg59
I00
sg60
Vdiamond-pearl
p552
sbag1
(g2
g3
Ntp553
Rp554
(dp555
g7
VSpr DP Camper.png
p556
sg9
VCamper
p557
sg11
VRoland
p558
sg13
V144
p559
sg15
g69
sg17
g18
sg19
g20
sg21
g539
sg23
(lp560
g1
(g25
g3
Ntp561
Rp562
(dp563
g29
V032
p564
sg31
VNidoran\u2642
p565
sg33
g76
sg35
g77
sg37
(lp566
Vhelping-hand
p567
aVtoxic-spikes
p568
aVpoison-jab
p569
aVcaptivate
p570
asg43
g44
sg45
Vrivalry
p571
sbasg59
I00
sg60
g552
sbag1
(g2
g3
Ntp572
Rp573
(dp574
g7
VSpr DP Fisherman.png
p575
sg9
VFisherman
p576
sg11
VHenry
p577
sg13
V256
p578
sg15
g16
sg17
g18
sg19
g20
sg21
g539
sg23
(lp579
g1
(g25
g3
Ntp580
Rp581
(dp582
g29
V060
p583
sg31
VPoliwag
p584
sg33
g34
sg35
g52
sg37
(lp585
Vmud-shot
p586
aVwater-sport
p587
aVwake-up-slap
p588
aVmud-bomb
p589
asg43
g44
sg45
Vwater-absorb
p590
sbag1
(g25
g3
Ntp591
Rp592
(dp593
g29
V060
p594
sg31
VPoliwag
p595
sg33
g34
sg35
g52
sg37
(lp596
Vmud-shot
p597
aVwater-sport
p598
aVwake-up-slap
p599
aVmud-bomb
p600
asg43
g44
sg45
Vdamp
p601
sbasg59
I00
sg60
g552
sbag1
(g2
g3
Ntp602
Rp603
(dp604
g7
VSpr DP Fisherman.png
p605
sg9
VFisherman
p606
sg11
VJustin
p607
sg13
V160
p608
sg15
g140
sg17
g18
sg19
g20
sg21
g539
sg23
(lp609
g1
(g25
g3
Ntp610
Rp611
(dp612
g29
V129
p613
sg31
VMagikarp
p614
sg33
g34
sg35
g147
sg37
(lp615
Vtackle
p616
aVsplash
p617
aVflail
p618
asg43
g44
sg45
Vswift-swim
p619
sbag1
(g25
g3
Ntp620
Rp621
(dp622
g29
V129
p623
sg31
VMagikarp
p624
sg33
g34
sg35
g147
sg37
(lp625
Vtackle
p626
aVsplash
p627
aVflail
p628
asg43
g44
sg45
Vswift-swim
p629
sbag1
(g25
g3
Ntp630
Rp631
(dp632
g29
V129
p633
sg31
VMagikarp
p634
sg33
g34
sg35
V15
p635
sg37
(lp636
Vtackle
p637
aVsplash
p638
aVflail
p639
asg43
g44
sg45
Vswift-swim
p640
sbag1
(g25
g3
Ntp641
Rp642
(dp643
g29
V129
p644
sg31
VMagikarp
p645
sg33
g34
sg35
g147
sg37
(lp646
Vtackle
p647
aVsplash
p648
aVflail
p649
asg43
g44
sg45
Vswift-swim
p650
sbasg59
I00
sg60
g552
sbag1
(g2
g3
Ntp651
Rp652
(dp653
g7
VSpr DP Fisherman.png
p654
sg9
VFisherman
p655
sg11
VRalph
p656
sg13
V320
p657
sg15
g69
sg17
g18
sg19
g20
sg21
g539
sg23
(lp658
g1
(g25
g3
Ntp659
Rp660
(dp661
g29
V118
p662
sg31
VGoldeen
p663
sg33
g34
sg35
V10
p664
sg37
(lp665
Vmegahorn
p666
aVwater-sport
p667
aVwater-pulse
p668
aVaqua-ring
p669
asg43
g44
sg45
Vswift-swim
p670
sbasg59
I00
sg60
g552
sbag1
(g2
g3
Ntp671
Rp672
(dp673
g7
VSpr HGSS Youngster.png
p674
sg9
VYoungster
p675
sg11
VGordon
p676
sg13
V160
p677
sg15
g69
sg17
g18
sg19
g20
sg21
g507
sg23
(lp678
g1
(g25
g3
Ntp679
Rp680
(dp681
g29
V194
p682
sg31
VWooper
p683
sg33
g34
sg35
V10
p684
sg37
(lp685
Vmud-sport
p686
aVmuddy-water
p687
aVmud-shot
p688
aVmud-bomb
p689
asg43
g44
sg45
Vwater-absorb
p690
sbasg59
I00
sg60
g531
sbag1
(g2
g3
Ntp691
Rp692
(dp693
g7
VSpr HGSS Bird Keeper.png
p694
sg9
VBird Keeper
p695
sg11
VPeter
p696
sg13
V256
p697
sg15
g231
sg17
g18
sg19
g20
sg21
g507
sg23
(lp698
g1
(g25
g3
Ntp699
Rp700
(dp701
g29
V016
p702
sg31
VPidgey
p703
sg33
g34
sg35
g36
sg37
(lp704
Vfeather-dance
p705
aVroost
p706
aVtailwind
p707
aVair-slash
p708
asg43
g44
sg45
Vkeen-eye
p709
sbag1
(g25
g3
Ntp710
Rp711
(dp712
g29
V016
p713
sg31
VPidgey
p714
sg33
g34
sg35
g36
sg37
(lp715
Vfeather-dance
p716
aVroost
p717
aVtailwind
p718
aVair-slash
p719
asg43
g44
sg45
Vtangled-feet
p720
sbag1
(g25
g3
Ntp721
Rp722
(dp723
g29
V021
p724
sg31
VSpearow
p725
sg33
g34
sg35
g52
sg37
(lp726
Vpursuit
p727
aVaerial-ace
p728
aVroost
p729
aVassurance
p730
asg43
g44
sg45
Vkeen-eye
p731
sbasg59
I00
sg60
g531
sbag1
(g2
g3
Ntp732
Rp733
(dp734
g7
VSpr DP Picnicker.png
p735
sg9
VPicnicker
p736
sg11
VLiz
p737
sg13
g1
(g305
g3
Ntp738
Rp739
(dp740
g309
g1
(g310
g311
(lp741
g1
(g313
g3
Ntp742
Rp743
(dp744
g317
V608
p745
sbatp746
Rp747
(dp748
g322
(dp749
sbsbsg15
g16
sg17
g18
sg19
g20
sg21
g539
sg23
(lp750
g1
(g25
g3
Ntp751
Rp752
(dp753
g29
V070
p754
sg31
VWeepinbell
p755
sg33
g279
sg35
V35
p756
sg37
(lp757
Vsweet-scent
p758
aVknock-off
p759
aVwring-out
p760
aVgastro-acid
p761
asg43
g44
sg45
Vchlorophyll
p762
sbag1
(g25
g3
Ntp763
Rp764
(dp765
g29
V030
p766
sg31
VNidorina
p767
sg33
g279
sg35
V38
p768
sg37
(lp769
Vhelping-hand
p770
aVpoison-fang
p771
aVtoxic-spikes
p772
aVcaptivate
p773
asg43
g44
sg45
Vpoison-point
p774
sbasg59
I00
sg60
g552
sbag1
(g2
g3
Ntp775
Rp776
(dp777
g7
VSpr DP Picnicker.png
p778
sg9
VPicnicker
p779
sg11
VLiz
p780
sg13
g1
(g305
g3
Ntp781
Rp782
(dp783
g309
g1
(g310
g311
(lp784
g1
(g313
g3
Ntp785
Rp786
(dp787
g317
V640
p788
sbatp789
Rp790
(dp791
g322
(dp792
sbsbsg15
g231
sg17
g18
sg19
g20
sg21
g539
sg23
(lp793
g1
(g25
g3
Ntp794
Rp795
(dp796
g29
V070
p797
sg31
VWeepinbell
p798
sg33
g279
sg35
V39
p799
sg37
(lp800
Vsweet-scent
p801
aVknock-off
p802
aVwring-out
p803
aVgastro-acid
p804
asg43
g44
sg45
Vchlorophyll
p805
sbag1
(g25
g3
Ntp806
Rp807
(dp808
g29
V033
p809
sg31
VNidorino
p810
sg33
g34
sg35
V38
p811
sg37
(lp812
Vhelping-hand
p813
aVtoxic-spikes
p814
aVpoison-jab
p815
aVcaptivate
p816
asg43
g44
sg45
Vpoison-point
p817
sbag1
(g25
g3
Ntp818
Rp819
(dp820
g29
V031
p821
sg31
VNidoqueen
p822
sg33
g279
sg35
V40
p823
sg37
(lp824
Vtail-whip
p825
aVpoison-sting
p826
aVsuperpower
p827
aVearth-power
p828
asg43
g44
sg45
Vpoison-point
p829
sbasg59
I00
sg60
g552
sbag1
(g2
g3
Ntp830
Rp831
(dp832
g7
VSpr DP Picnicker.png
p833
sg9
VPicnicker
p834
sg11
VLiz
p835
sg13
g1
(g305
g3
Ntp836
Rp837
(dp838
g309
g1
(g310
g311
(lp839
g1
(g313
g3
Ntp840
Rp841
(dp842
g317
V960
p843
sbatp844
Rp845
(dp846
g322
(dp847
sbsbsg15
g231
sg17
g18
sg19
g20
sg21
g539
sg23
(lp848
g1
(g25
g3
Ntp849
Rp850
(dp851
g29
V070
p852
sg31
VWeepinbell
p853
sg33
g279
sg35
V47
p854
sg37
(lp855
Vsweet-scent
p856
aVknock-off
p857
aVwring-out
p858
aVgastro-acid
p859
asg43
g44
sg45
Vchlorophyll
p860
sbag1
(g25
g3
Ntp861
Rp862
(dp863
g29
V034
p864
sg31
VNidoking
p865
sg33
g34
sg35
V58
p866
sg37
(lp867
Vpeck
p868
aVfocus-energy
p869
aVmegahorn
p870
aVearth-power
p871
asg43
g44
sg45
Vrivalry
p872
sbag1
(g25
g3
Ntp873
Rp874
(dp875
g29
V031
p876
sg31
VNidoqueen
p877
sg33
g279
sg35
V60
p878
sg37
(lp879
Vtail-whip
p880
aVpoison-sting
p881
aVsuperpower
p882
aVearth-power
p883
asg43
g44
sg45
Vpoison-point
p884
sbasg59
I00
sg60
g552
sbag1
(g2
g3
Ntp885
Rp886
(dp887
g7
VSpr DP Fisherman.png
p888
sg9
VFisherman
p889
sg11
VRalph
p890
sg13
g1
(g305
g3
Ntp891
Rp892
(dp893
g309
g1
(g310
g311
(lp894
g1
(g313
g3
Ntp895
Rp896
(dp897
g317
V1280
p898
sbatp899
Rp900
(dp901
g322
(dp902
sbsbsg15
g69
sg17
g18
sg19
g20
sg21
g539
sg23
(lp903
g1
(g25
g3
Ntp904
Rp905
(dp906
g29
V119
p907
sg31
VSeaking
p908
sg33
g34
sg35
V40
p909
sg37
(lp910
Vwater-sport
p911
aVwater-pulse
p912
aVaqua-ring
p913
aVpoison-jab
p914
asg43
g44
sg45
Vwater-veil
p915
sbasg59
I00
sg60
g552
sbag1
(g2
g3
Ntp916
Rp917
(dp918
g7
VSpr DP Fisherman.png
p919
sg9
VFisherman
p920
sg11
VRalph
p921
sg13
g1
(g305
g3
Ntp922
Rp923
(dp924
g309
g1
(g310
g311
(lp925
g1
(g313
g3
Ntp926
Rp927
(dp928
g317
V1344
p929
sbatp930
Rp931
(dp932
g322
(dp933
sbsbsg15
g16
sg17
g18
sg19
g20
sg21
g539
sg23
(lp934
g1
(g25
g3
Ntp935
Rp936
(dp937
g29
V211
p938
sg31
VQwilfish
p939
sg33
g34
sg35
V45
p940
sg37
(lp941
Vbrine
p942
aVtoxic-spikes
p943
aVpoison-jab
p944
aVaqua-tail
p945
asg43
g44
sg45
Vpoison-point
p946
sbag1
(g25
g3
Ntp947
Rp948
(dp949
g29
V119
p950
sg31
VSeaking
p951
sg33
g34
sg35
V42
p952
sg37
(lp953
Vwater-sport
p954
aVwater-pulse
p955
aVaqua-ring
p956
aVpoison-jab
p957
asg43
g44
sg45
Vswift-swim
p958
sbasg59
I00
sg60
g552
sba.