(lp0
ccopy_reg
_reconstructor
p1
(c__main__
Trainer
p2
c__builtin__
object
p3
Ntp4
Rp5
(dp6
VtSprite
p7
VSpr GS Swimmer M.png
p8
sVtClass
p9
VSwimmer
p10
sVtName
p11
VSimon
p12
sVtMoney
p13
V160
p14
sVtPokeCount
p15
V2
p16
sVtLocation
p17
Vwiki/Johto_Route_40
p18
sVtRegion
p19
VJohto
p20
sVtGame
p21
VGS
p22
sVtPokes
p23
(lp24
g1
(c__main__
FinishedPokemon
p25
g3
Ntp26
Rp27
(dp28
VpDexNo
p29
V072
p30
sVpSpecies
p31
VTentacool
p32
sVpGender
p33
VM
p34
sVpLevel
p35
V20
p36
sVpMoves
p37
(lp38
Vbubble-beam
p39
aVscreech
p40
aVbarrier
p41
aVconstrict
p42
asVpHold
p43
V
p44
sVpAbility
p45
Vliquid-ooze
p46
sbag1
(g25
g3
Ntp47
Rp48
(dp49
g29
V072
p50
sg31
VTentacool
p51
sg33
g34
sg35
V20
p52
sg37
(lp53
Vbubble-beam
p54
aVscreech
p55
aVbarrier
p56
aVconstrict
p57
asg43
g44
sg45
Vclear-body
p58
sbasVbossFlag
p59
I00
sVtLongGame
p60
Vgold-silver
p61
sbag1
(g2
g3
Ntp62
Rp63
(dp64
g7
VSpr GS Swimmer F.png
p65
sg9
VSwimmer
p66
sg11
VElaine
p67
sg13
V420
p68
sg15
V1
p69
sg17
g18
sg19
g20
sg21
g22
sg23
(lp70
g1
(g25
g3
Ntp71
Rp72
(dp73
g29
V120
p74
sg31
VStaryu
p75
sg33
VU
p76
sg35
V21
p77
sg37
(lp78
Vminimize
p79
aVlight-screen
p80
aVswift
p81
aVrapid-spin
p82
asg43
g44
sg45
Vnatural-cure
p83
sbasg59
I00
sg60
g61
sbag1
(g2
g3
Ntp84
Rp85
(dp86
g7
VSpr GS Swimmer M.png
p87
sg9
VSwimmer
p88
sg11
VRandall
p89
sg13
V144
p90
sg15
V3
p91
sg17
g18
sg19
g20
sg21
g22
sg23
(lp92
g1
(g25
g3
Ntp93
Rp94
(dp95
g29
V090
p96
sg31
VShellder
p97
sg33
g34
sg35
V18
p98
sg37
(lp99
Vaurora-beam
p100
aVwithdraw
p101
aVclamp
p102
aVprotect
p103
asg43
g44
sg45
Vskill-link
p104
sbag1
(g25
g3
Ntp105
Rp106
(dp107
g29
V090
p108
sg31
VShellder
p109
sg33
g34
sg35
V18
p110
sg37
(lp111
Vaurora-beam
p112
aVwithdraw
p113
aVclamp
p114
aVprotect
p115
asg43
g44
sg45
Vshell-armor
p116
sbag1
(g25
g3
Ntp117
Rp118
(dp119
g29
V008
p120
sg31
VWartortle
p121
sg33
g34
sg35
V20
p122
sg37
(lp123
Vbubble
p124
aVprotect
p125
aVrapid-spin
p126
aVrain-dance
p127
asg43
g44
sg45
Vtorrent
p128
sbasg59
I00
sg60
g61
sbag1
(g2
g3
Ntp129
Rp130
(dp131
g7
VSpr GS Swimmer F.png
p132
sg9
VSwimmer
p133
sg11
VPaula
p134
sg13
V380
p135
sg15
g16
sg17
g18
sg19
g20
sg21
g22
sg23
(lp136
g1
(g25
g3
Ntp137
Rp138
(dp139
g29
V120
p140
sg31
VStaryu
p141
sg33
g76
sg35
V19
p142
sg37
(lp143
Vminimize
p144
aVlight-screen
p145
aVswift
p146
aVrapid-spin
p147
asg43
g44
sg45
Villuminate
p148
sbag1
(g25
g3
Ntp149
Rp150
(dp151
g29
V090
p152
sg31
VShellder
p153
sg33
VF
p154
sg35
V19
p155
sg37
(lp156
Vaurora-beam
p157
aVwithdraw
p158
aVclamp
p159
aVprotect
p160
asg43
g44
sg45
Vshell-armor
p161
sbasg59
I00
sg60
g61
sbag1
(g2
g3
Ntp162
Rp163
(dp164
g7
VSpr HGSS Swimmer M.png
p165
sg9
VSwimmer
p166
sg11
VSimon
p167
sg13
V320
p168
sg15
g16
sg17
g18
sg19
g20
sg21
VHGSS
p169
sg23
(lp170
g1
(g25
g3
Ntp171
Rp172
(dp173
g29
V072
p174
sg31
VTentacool
p175
sg33
g34
sg35
V20
p176
sg37
(lp177
Vwater-pulse
p178
aVwring-out
p179
aVtoxic-spikes
p180
aVpoison-jab
p181
asg43
g44
sg45
Vclear-body
p182
sbag1
(g25
g3
Ntp183
Rp184
(dp185
g29
V072
p186
sg31
VTentacool
p187
sg33
g34
sg35
V20
p188
sg37
(lp189
Vwater-pulse
p190
aVwring-out
p191
aVtoxic-spikes
p192
aVpoison-jab
p193
asg43
g44
sg45
Vliquid-ooze
p194
sbasg59
I00
sg60
Vheartgold-soulsilver
p195
sbag1
(g2
g3
Ntp196
Rp197
(dp198
g7
VSpr HGSS Swimmer F.png
p199
sg9
VSwimmer
p200
sg11
VElaine
p201
sg13
V336
p202
sg15
g69
sg17
g18
sg19
g20
sg21
g169
sg23
(lp203
g1
(g25
g3
Ntp204
Rp205
(dp206
g29
V120
p207
sg31
VStaryu
p208
sg33
g76
sg35
V21
p209
sg37
(lp210
Vcamouflage
p211
aVcosmic-power
p212
aVgyro-ball
p213
aVpower-gem
p214
asg43
g44
sg45
Vnatural-cure
p215
sbasg59
I00
sg60
g195
sbag1
(g2
g3
Ntp216
Rp217
(dp218
g7
VSpr HGSS Swimmer M.png
p219
sg9
VSwimmer
p220
sg11
VRandall
p221
sg13
V288
p222
sg15
g91
sg17
g18
sg19
g20
sg21
g169
sg23
(lp223
g1
(g25
g3
Ntp224
Rp225
(dp226
g29
V090
p227
sg31
VShellder
p228
sg33
g34
sg35
V18
p229
sg37
(lp230
Vicicle-spear
p231
aViron-defense
p232
aVbrine
p233
aVice-shard
p234
asg43
g44
sg45
Vskill-link
p235
sbag1
(g25
g3
Ntp236
Rp237
(dp238
g29
V008
p239
sg31
VWartortle
p240
sg33
g34
sg35
V20
p241
sg37
(lp242
Vrain-dance
p243
aViron-defense
p244
aVwater-pulse
p245
aVaqua-tail
p246
asg43
g44
sg45
Vtorrent
p247
sbag1
(g25
g3
Ntp248
Rp249
(dp250
g29
V090
p251
sg31
VShellder
p252
sg33
g34
sg35
V18
p253
sg37
(lp254
Vicicle-spear
p255
aViron-defense
p256
aVbrine
p257
aVice-shard
p258
asg43
g44
sg45
Vshell-armor
p259
sbasg59
I00
sg60
g195
sbag1
(g2
g3
Ntp260
Rp261
(dp262
g7
VSpr HGSS Swimmer F.png
p263
sg9
VSwimmer
p264
sg11
VPaula
p265
sg13
V304
p266
sg15
g16
sg17
g18
sg19
g20
sg21
g169
sg23
(lp267
g1
(g25
g3
Ntp268
Rp269
(dp270
g29
V120
p271
sg31
VStaryu
p272
sg33
g76
sg35
V19
p273
sg37
(lp274
Vcamouflage
p275
aVcosmic-power
p276
aVgyro-ball
p277
aVpower-gem
p278
asg43
g44
sg45
Vnatural-cure
p279
sbag1
(g25
g3
Ntp280
Rp281
(dp282
g29
V090
p283
sg31
VShellder
p284
sg33
g154
sg35
V19
p285
sg37
(lp286
Vicicle-spear
p287
aViron-defense
p288
aVbrine
p289
aVice-shard
p290
asg43
g44
sg45
Vshell-armor
p291
sbasg59
I00
sg60
g195
sba.