(lp0
ccopy_reg
_reconstructor
p1
(c__main__
Trainer
p2
c__builtin__
object
p3
Ntp4
Rp5
(dp6
VtSprite
p7
VSpr GS Sailor.png
p8
sVtClass
p9
VSailor
p10
sVtName
p11
VHarry
p12
sVtMoney
p13
V760
p14
sVtPokeCount
p15
V1
p16
sVtLocation
p17
Vwiki/Johto_Route_38
p18
sVtRegion
p19
VJohto
p20
sVtGame
p21
VGS
p22
sVtPokes
p23
(lp24
g1
(c__main__
FinishedPokemon
p25
g3
Ntp26
Rp27
(dp28
VpDexNo
p29
V194
p30
sVpSpecies
p31
VWooper
p32
sVpGender
p33
VM
p34
sVpLevel
p35
V19
p36
sVpMoves
p37
(lp38
Vearthquake
p39
aVhaze
p40
aVamnesia
p41
aVrain-dance
p42
asVpHold
p43
V
p44
sVpAbility
p45
Vwater-absorb
p46
sbasVbossFlag
p47
I00
sVtLongGame
p48
Vgold-silver
p49
sbag1
(g2
g3
Ntp50
Rp51
(dp52
g7
VSpr GS Lass.png
p53
sg9
VLass
p54
sg11
VDana
p55
sg13
V432
p56
sg15
V2
p57
sg17
g18
sg19
g20
sg21
g22
sg23
(lp58
g1
(g25
g3
Ntp59
Rp60
(dp61
g29
V180
p62
sg31
VFlaaffy
p63
sg33
VF
p64
sg35
V18
p65
sg37
(lp66
Vthunder-wave
p67
aVthunder
p68
aVlight-screen
p69
aVcotton-spore
p70
asg43
g44
sg45
Vstatic
p71
sbag1
(g25
g3
Ntp72
Rp73
(dp74
g29
V054
p75
sg31
VPsyduck
p76
sg33
g64
sg35
V18
p77
sg37
(lp78
Vconfusion
p79
aVscreech
p80
aVfury-swipes
p81
aVpsych-up
p82
asg43
g44
sg45
Vcloud-nine
p83
sbasg47
I00
sg48
g49
sbag1
(g2
g3
Ntp84
Rp85
(dp86
g7
VSpr GS Beauty.png
p87
sg9
VBeauty
p88
sg11
VValerie
p89
sg13
V1496
p90
sg15
g57
sg17
g18
sg19
g20
sg21
g22
sg23
(lp91
g1
(g25
g3
Ntp92
Rp93
(dp94
g29
V187
p95
sg31
VHoppip
p96
sg33
g64
sg35
V17
p97
sg37
(lp98
Vsleep-powder
p99
aVsplash
p100
aVcotton-spore
p101
aVsynthesis
p102
asg43
g44
sg45
Vleaf-guard
p103
sbag1
(g25
g3
Ntp104
Rp105
(dp106
g29
V188
p107
sg31
VSkiploom
p108
sg33
g64
sg35
V17
p109
sg37
(lp110
Vsleep-powder
p111
aVsplash
p112
aVcotton-spore
p113
aVsynthesis
p114
asg43
g44
sg45
Vchlorophyll
p115
sbasg47
I00
sg48
g49
sbag1
(g2
g3
Ntp116
Rp117
(dp118
g7
VSpr GS Bird Keeper.png
p119
sg9
VBird Keeper
p120
sg11
VToby
p121
sg13
V408
p122
sg15
V3
p123
sg17
g18
sg19
g20
sg21
g22
sg23
(lp124
g1
(g25
g3
Ntp125
Rp126
(dp127
g29
V084
p128
sg31
VDoduo
p129
sg33
g34
sg35
V15
p130
sg37
(lp131
Vagility
p132
aVrage
p133
aVtri-attack
p134
aVpursuit
p135
asg43
g44
sg45
Vearly-bird
p136
sbag1
(g25
g3
Ntp137
Rp138
(dp139
g29
V084
p140
sg31
VDoduo
p141
sg33
g34
sg35
V16
p142
sg37
(lp143
Vagility
p144
aVrage
p145
aVtri-attack
p146
aVpursuit
p147
asg43
g44
sg45
Vrun-away
p148
sbag1
(g25
g3
Ntp149
Rp150
(dp151
g29
V084
p152
sg31
VDoduo
p153
sg33
g34
sg35
V17
p154
sg37
(lp155
Vagility
p156
aVrage
p157
aVtri-attack
p158
aVpursuit
p159
asg43
g44
sg45
Vrun-away
p160
sbasg47
I00
sg48
g49
sbag1
(g2
g3
Ntp161
Rp162
(dp163
g7
VSpr GS Schoolboy.png
p164
sg9
VSchoolboy
p165
sg11
VChad
p166
sg13
V608
p167
sg15
g16
sg17
g18
sg19
g20
sg21
g22
sg23
(lp168
g1
(g25
g3
Ntp169
Rp170
(dp171
g29
V122
p172
sg31
VMr. Mime
p173
sg33
g34
sg35
V19
p174
sg37
(lp175
Vsubstitute
p176
aVsafeguard
p177
aVbaton-pass
p178
aVencore
p179
asg43
g44
sg45
Vfilter
p180
sbasg47
I00
sg48
g49
sbag1
(g2
g3
Ntp181
Rp182
(dp183
g7
VSpr GS Beauty.png
p184
sg9
VBeauty
p185
sg11
VOlivia{{sup/2|C}}
p186
sg13
V1672
p187
sg15
g16
sg17
g18
sg19
g20
sg21
g22
sg23
(lp188
g1
(g25
g3
Ntp189
Rp190
(dp191
g29
V222
p192
sg31
VCorsola
p193
sg33
g64
sg35
V19
p194
sg37
(lp195
Vspike-cannon
p196
aVbubble
p197
aVmirror-coat
p198
aVancient-power
p199
asg43
g44
sg45
Vhustle
p200
sbasg47
I00
sg48
g49
sbag1
(g2
g3
Ntp201
Rp202
(dp203
g7
VSpr GS Lass.png
p204
sg9
VLass
p205
sg11
VDana
p206
sg13
g1
(cmwparserfromhell.wikicode
Wikicode
p207
g3
Ntp208
Rp209
(dp210
V_nodes
p211
g1
(cmwparserfromhell.smart_list.smart_list
SmartList
p212
c__builtin__
list
p213
(lp214
g1
(cmwparserfromhell.nodes.text
Text
p215
g3
Ntp216
Rp217
(dp218
V_value
p219
V504
p220
sbatp221
Rp222
(dp223
V_children
p224
(dp225
sbsbsg15
g57
sg17
g18
sg19
g20
sg21
g22
sg23
(lp226
g1
(g25
g3
Ntp227
Rp228
(dp229
g29
V180
p230
sg31
VFlaaffy
p231
sg33
g64
sg35
V21
p232
sg37
(lp233
Vthunder-wave
p234
aVthunder
p235
aVlight-screen
p236
aVcotton-spore
p237
asg43
g44
sg45
Vstatic
p238
sbag1
(g25
g3
Ntp239
Rp240
(dp241
g29
V054
p242
sg31
VPsyduck
p243
sg33
g64
sg35
V21
p244
sg37
(lp245
Vconfusion
p246
aVscreech
p247
aVfury-swipes
p248
aVpsych-up
p249
asg43
g44
sg45
Vdamp
p250
sbasg47
I00
sg48
g49
sbag1
(g2
g3
Ntp251
Rp252
(dp253
g7
VSpr GS Lass.png
p254
sg9
VLass
p255
sg11
VDana
p256
sg13
g1
(g207
g3
Ntp257
Rp258
(dp259
g211
g1
(g212
g213
(lp260
g1
(g215
g3
Ntp261
Rp262
(dp263
g219
V696
p264
sbatp265
Rp266
(dp267
g224
(dp268
sbsbsg15
g57
sg17
g18
sg19
g20
sg21
g22
sg23
(lp269
g1
(g25
g3
Ntp270
Rp271
(dp272
g29
V054
p273
sg31
VPsyduck
p274
sg33
g64
sg35
V29
p275
sg37
(lp276
Vconfusion
p277
aVscreech
p278
aVfury-swipes
p279
aVpsych-up
p280
asg43
g44
sg45
Vdamp
p281
sbag1
(g25
g3
Ntp282
Rp283
(dp284
g29
V181
p285
sg31
VAmpharos
p286
sg33
g64
sg35
V29
p287
sg37
(lp288
Vthunder-wave
p289
aVthunder
p290
aVlight-screen
p291
aVcotton-spore
p292
asg43
g44
sg45
Vstatic
p293
sbasg47
I00
sg48
g49
sbag1
(g2
g3
Ntp294
Rp295
(dp296
g7
VSpr GS Lass.png
p297
sg9
VLass
p298
sg11
VDana
p299
sg13
g1
(g207
g3
Ntp300
Rp301
(dp302
g211
g1
(g212
g213
(lp303
g1
(g215
g3
Ntp304
Rp305
(dp306
g219
V864
p307
sbatp308
Rp309
(dp310
g224
(dp311
sbsbsg15
g57
sg17
g18
sg19
g20
sg21
g22
sg23
(lp312
g1
(g25
g3
Ntp313
Rp314
(dp315
g29
V181
p316
sg31
VAmpharos
p317
sg33
g64
sg35
V36
p318
sg37
(lp319
Vthunder-wave
p320
aVthunder
p321
aVlight-screen
p322
aVcotton-spore
p323
asg43
g44
sg45
Vstatic
p324
sbag1
(g25
g3
Ntp325
Rp326
(dp327
g29
V055
p328
sg31
VGolduck
p329
sg33
g64
sg35
V36
p330
sg37
(lp331
Vconfusion
p332
aVscreech
p333
aVfury-swipes
p334
aVpsych-up
p335
asg43
g44
sg45
Vcloud-nine
p336
sbasg47
I00
sg48
g49
sbag1
(g2
g3
Ntp337
Rp338
(dp339
g7
VSpr GS Schoolboy.png
p340
sg9
VSchoolboy
p341
sg11
VChad
p342
sg13
g1
(g207
g3
Ntp343
Rp344
(dp345
g211
g1
(g212
g213
(lp346
g1
(g215
g3
Ntp347
Rp348
(dp349
g219
V608
p350
sbatp351
Rp352
(dp353
g224
(dp354
sbsbsg15
g57
sg17
g18
sg19
g20
sg21
g22
sg23
(lp355
g1
(g25
g3
Ntp356
Rp357
(dp358
g29
V122
p359
sg31
VMr. Mime
p360
sg33
g34
sg35
V19
p361
sg37
(lp362
Vsubstitute
p363
aVsafeguard
p364
aVbaton-pass
p365
aVencore
p366
asg43
g44
sg45
Vfilter
p367
sbag1
(g25
g3
Ntp368
Rp369
(dp370
g29
V081
p371
sg31
VMagnemite
p372
sg33
VU
p373
sg35
V19
p374
sg37
(lp375
Vscreech
p376
aVswift
p377
aVzap-cannon
p378
aVlock-on
p379
asg43
g44
sg45
Vmagnet-pull
p380
sbasg47
I00
sg48
g49
sbag1
(g2
g3
Ntp381
Rp382
(dp383
g7
VSpr GS Schoolboy.png
p384
sg9
VSchoolboy
p385
sg11
VChad
p386
sg13
g1
(g207
g3
Ntp387
Rp388
(dp389
g211
g1
(g212
g213
(lp390
g1
(g215
g3
Ntp391
Rp392
(dp393
g219
V992
p394
sbatp395
Rp396
(dp397
g224
(dp398
sbsbsg15
g57
sg17
g18
sg19
g20
sg21
g22
sg23
(lp399
g1
(g25
g3
Ntp400
Rp401
(dp402
g29
V122
p403
sg31
VMr. Mime
p404
sg33
g34
sg35
V27
p405
sg37
(lp406
Vsubstitute
p407
aVsafeguard
p408
aVbaton-pass
p409
aVencore
p410
asg43
g44
sg45
Vfilter
p411
sbag1
(g25
g3
Ntp412
Rp413
(dp414
g29
V082
p415
sg31
VMagneton
p416
sg33
g373
sg35
V31
p417
sg37
(lp418
Vscreech
p419
aVswift
p420
aVzap-cannon
p421
aVlock-on
p422
asg43
g44
sg45
Vsturdy
p423
sbasg47
I00
sg48
g49
sbag1
(g2
g3
Ntp424
Rp425
(dp426
g7
VSpr DP Sailor.png
p427
sg9
VSailor
p428
sg11
VHarry
p429
sg13
V640
p430
sg15
g16
sg17
g18
sg19
g20
sg21
VDP
p431
sg23
(lp432
g1
(g25
g3
Ntp433
Rp434
(dp435
g29
V194
p436
sg31
VWooper
p437
sg33
g34
sg35
V20
p438
sg37
(lp439
Vmud-sport
p440
aVmuddy-water
p441
aVmud-shot
p442
aVmud-bomb
p443
asg43
g44
sg45
Vdamp
p444
sbasg47
I00
sg48
Vdiamond-pearl
p445
sbag1
(g2
g3
Ntp446
Rp447
(dp448
g7
VSpr HGSS Lass.png
p449
sg9
VLass
p450
sg11
VDana
p451
sg13
V304
p452
sg15
g57
sg17
g18
sg19
g20
sg21
VHGSS
p453
sg23
(lp454
g1
(g25
g3
Ntp455
Rp456
(dp457
g29
V180
p458
sg31
VFlaaffy
p459
sg33
g64
sg35
V19
p460
sg37
(lp461
Vcharge
p462
aVsignal-beam
p463
aVpower-gem
p464
aVdischarge
p465
asg43
g44
sg45
Vstatic
p466
sbag1
(g25
g3
Ntp467
Rp468
(dp469
g29
V054
p470
sg31
VPsyduck
p471
sg33
g64
sg35
V19
p472
sg37
(lp473
Vpsych-up
p474
aVwater-sport
p475
aVwater-pulse
p476
aVzen-headbutt
p477
asg43
g44
sg45
Vdamp
p478
sbasg47
I00
sg48
Vheartgold-soulsilver
p479
sbag1
(g2
g3
Ntp480
Rp481
(dp482
g7
VSpr HGSS Bird Keeper.png
p483
sg9
VBird Keeper
p484
sg11
VToby
p485
sg13
V576
p486
sg15
g123
sg17
g18
sg19
g20
sg21
g453
sg23
(lp487
g1
(g25
g3
Ntp488
Rp489
(dp490
g29
V084
p491
sg31
VDoduo
p492
sg33
g34
sg35
V16
p493
sg37
(lp494
Vuproar
p495
aVendeavor
p496
aVacupressure
p497
aVdouble-hit
p498
asg43
g44
sg45
Vearly-bird
p499
sbag1
(g25
g3
Ntp500
Rp501
(dp502
g29
V084
p503
sg31
VDoduo
p504
sg33
g34
sg35
V17
p505
sg37
(lp506
Vuproar
p507
aVendeavor
p508
aVacupressure
p509
aVdouble-hit
p510
asg43
g44
sg45
Vrun-away
p511
sbag1
(g25
g3
Ntp512
Rp513
(dp514
g29
V084
p515
sg31
VDoduo
p516
sg33
g34
sg35
V18
p517
sg37
(lp518
Vuproar
p519
aVendeavor
p520
aVacupressure
p521
aVdouble-hit
p522
asg43
g44
sg45
Vearly-bird
p523
sbasg47
I00
sg48
g479
sbag1
(g2
g3
Ntp524
Rp525
(dp526
g7
VSpr HGSS School Kid.png
p527
sg9
VSchool Kid
p528
sg11
VChad
p529
sg13
V400
p530
sg15
g16
sg17
g18
sg19
g20
sg21
g453
sg23
(lp531
g1
(g25
g3
Ntp532
Rp533
(dp534
g29
V122
p535
sg31
VMr. Mime
p536
sg33
g34
sg35
V20
p537
sg37
(lp538
Vmagical-leaf
p539
aVcopycat
p540
aVpower-swap
p541
aVguard-swap
p542
asg43
g44
sg45
Vsoundproof
p543
sbasg47
I00
sg48
g479
sbag1
(g2
g3
Ntp544
Rp545
(dp546
g7
VSpr HGSS Beauty.png
p547
sg9
VBeauty
p548
sg11
VValerie
p549
sg13
V1008
p550
sg15
g57
sg17
g18
sg19
g20
sg21
g453
sg23
(lp551
g1
(g25
g3
Ntp552
Rp553
(dp554
g29
V187
p555
sg31
VHoppip
p556
sg33
g64
sg35
V18
p557
sg37
(lp558
Vbullet-seed
p559
aVbounce
p560
aVu-turn
p561
aVworry-seed
p562
asg43
g44
sg45
Vleaf-guard
p563
sbag1
(g25
g3
Ntp564
Rp565
(dp566
g29
V188
p567
sg31
VSkiploom
p568
sg33
g64
sg35
V18
p569
sg37
(lp570
Vbullet-seed
p571
aVbounce
p572
aVu-turn
p573
aVworry-seed
p574
asg43
g44
sg45
Vleaf-guard
p575
sbasg47
I00
sg48
g479
sbag1
(g2
g3
Ntp576
Rp577
(dp578
g7
VSpr HGSS Lass.png
p579
sg9
VLass
p580
sg11
VDana{{tt|*|First rematch}}
p581
sg13
V496
p582
sg15
g57
sg17
g18
sg19
g20
sg21
g453
sg23
(lp583
g1
(g25
g3
Ntp584
Rp585
(dp586
g29
V180
p587
sg31
VFlaaffy
p588
sg33
g64
sg35
V32
p589
sg37
(lp590
Vcharge
p591
aVsignal-beam
p592
aVpower-gem
p593
aVdischarge
p594
asg43
g44
sg45
Vstatic
p595
sbag1
(g25
g3
Ntp596
Rp597
(dp598
g29
V054
p599
sg31
VPsyduck
p600
sg33
g64
sg35
V31
p601
sg37
(lp602
Vpsych-up
p603
aVwater-sport
p604
aVwater-pulse
p605
aVzen-headbutt
p606
asg43
g44
sg45
Vdamp
p607
sbasg47
I00
sg48
g479
sbag1
(g2
g3
Ntp608
Rp609
(dp610
g7
VSpr HGSS Lass.png
p611
sg9
VLass
p612
sg11
VDana
p613
sg13
g1
(g207
g3
Ntp614
Rp615
(dp616
g211
g1
(g212
g213
(lp617
g1
(g215
g3
Ntp618
Rp619
(dp620
g219
V608
p621
sbatp622
Rp623
(dp624
g224
(dp625
sbsbsg15
g57
sg17
g18
sg19
g20
sg21
g453
sg23
(lp626
g1
(g25
g3
Ntp627
Rp628
(dp629
g29
V055
p630
sg31
VGolduck
p631
sg33
g64
sg35
V36
p632
sg37
(lp633
Vwater-sport
p634
aVwater-pulse
p635
aVzen-headbutt
p636
aVaqua-jet
p637
asg43
g44
sg45
Vcloud-nine
p638
sbag1
(g25
g3
Ntp639
Rp640
(dp641
g29
V181
p642
sg31
VAmpharos
p643
sg33
g64
sg35
V38
p644
sg37
(lp645
Vcharge
p646
aVsignal-beam
p647
aVpower-gem
p648
aVdischarge
p649
asg43
g44
sg45
Vstatic
p650
sbasg47
I00
sg48
g479
sbag1
(g2
g3
Ntp651
Rp652
(dp653
g7
VSpr HGSS School Kid.png
p654
sg9
VSchool Kid
p655
sg11
VChad{{tt|*|First rematch}}
p656
sg13
V600
p657
sg15
g57
sg17
g18
sg19
g20
sg21
g453
sg23
(lp658
g1
(g25
g3
Ntp659
Rp660
(dp661
g29
V122
p662
sg31
VMr. Mime
p663
sg33
g34
sg35
V29
p664
sg37
(lp665
Vmagical-leaf
p666
aVcopycat
p667
aVpower-swap
p668
aVguard-swap
p669
asg43
g44
sg45
Vsoundproof
p670
sbag1
(g25
g3
Ntp671
Rp672
(dp673
g29
V081
p674
sg31
VMagnemite
p675
sg33
g373
sg35
V30
p676
sg37
(lp677
Vmagnet-rise
p678
aVmirror-shot
p679
aVdischarge
p680
aVmagnet-bomb
p681
asg43
g44
sg45
Vmagnet-pull
p682
sbasg47
I00
sg48
g479
sbag1
(g2
g3
Ntp683
Rp684
(dp685
g7
VSpr HGSS School Kid.png
p686
sg9
VSchool Kid
p687
sg11
VChad
p688
sg13
g1
(g207
g3
Ntp689
Rp690
(dp691
g211
g1
(g212
g213
(lp692
g1
(g215
g3
Ntp693
Rp694
(dp695
g219
V760
p696
sbatp697
Rp698
(dp699
g224
(dp700
sbsbsg15
g57
sg17
g18
sg19
g20
sg21
g453
sg23
(lp701
g1
(g25
g3
Ntp702
Rp703
(dp704
g29
V122
p705
sg31
VMr. Mime
p706
sg33
g34
sg35
V39
p707
sg37
(lp708
Vmagical-leaf
p709
aVcopycat
p710
aVpower-swap
p711
aVguard-swap
p712
asg43
g44
sg45
Vfilter
p713
sbag1
(g25
g3
Ntp714
Rp715
(dp716
g29
V082
p717
sg31
VMagneton
p718
sg33
g373
sg35
V46
p719
sg37
(lp720
Vmagnet-rise
p721
aVmirror-shot
p722
aVdischarge
p723
aVmagnet-bomb
p724
asg43
g44
sg45
Vmagnet-pull
p725
sbasg47
I00
sg48
g479
sba.