(lp0
ccopy_reg
_reconstructor
p1
(c__main__
Trainer
p2
c__builtin__
object
p3
Ntp4
Rp5
(dp6
VtSprite
p7
VSpr GS Hiker.png
p8
sVtClass
p9
VHiker
p10
sVtName
p11
VErik
p12
sVtMoney
p13
V864
p14
sVtPokeCount
p15
V3
p16
sVtLocation
p17
Vwiki/Johto_Route_45
p18
sVtRegion
p19
VJohto
p20
sVtGame
p21
VGS
p22
sVtPokes
p23
(lp24
g1
(c__main__
FinishedPokemon
p25
g3
Ntp26
Rp27
(dp28
VpDexNo
p29
V066
p30
sVpSpecies
p31
VMachop
p32
sVpGender
p33
VM
p34
sVpLevel
p35
V24
p36
sVpMoves
p37
(lp38
Vscary-face
p39
aVforesight
p40
aVvital-throw
p41
aVcross-chop
p42
asVpHold
p43
V
p44
sVpAbility
p45
Vguts
p46
sbag1
(g25
g3
Ntp47
Rp48
(dp49
g29
V075
p50
sg31
VGraveler
p51
sg33
g34
sg35
V27
p52
sg37
(lp53
Vself-destruct
p54
aVexplosion
p55
aVrollout
p56
aVmagnitude
p57
asg43
g44
sg45
Vsturdy
p58
sbag1
(g25
g3
Ntp59
Rp60
(dp61
g29
V066
p62
sg31
VMachop
p63
sg33
g34
sg35
V27
p64
sg37
(lp65
Vscary-face
p66
aVforesight
p67
aVvital-throw
p68
aVcross-chop
p69
asg43
g44
sg45
Vno-guard
p70
sbasVbossFlag
p71
I00
sVtLongGame
p72
Vgold-silver
p73
sbag1
(g2
g3
Ntp74
Rp75
(dp76
g7
VSpr GS Cooltrainer M.png
p77
sg9
VCooltrainer
p78
sg11
VRyan
p79
sg13
V1296
p80
sg15
V2
p81
sg17
g18
sg19
g20
sg21
g22
sg23
(lp82
g1
(g25
g3
Ntp83
Rp84
(dp85
g29
V018
p86
sg31
VPidgeot
p87
sg33
g34
sg35
V25
p88
sg37
(lp89
Vagility
p90
aVquick-attack
p91
ag91
aVmirror-move
p92
asg43
g44
sg45
Vkeen-eye
p93
sbag1
(g25
g3
Ntp94
Rp95
(dp96
g29
V125
p97
sg31
VElectabuzz
p98
sg33
g34
sg35
V27
p99
sg37
(lp100
Vquick-attack
p101
aVscreech
p102
aVlight-screen
p103
aVswift
p104
asg43
g44
sg45
Vstatic
p105
sbasg71
I00
sg72
g73
sbag1
(g2
g3
Ntp106
Rp107
(dp108
g7
VSpr GS Cooltrainer F.png
p109
sg9
VCooltrainer
p110
sg11
VKelly
p111
sg13
V1152
p112
sg15
g16
sg17
g18
sg19
g20
sg21
g22
sg23
(lp113
g1
(g25
g3
Ntp114
Rp115
(dp116
g29
V183
p117
sg31
VMarill
p118
sg33
VF
p119
sg35
V27
p120
sg37
(lp121
Vbubble-beam
p122
aVdefense-curl
p123
aVrollout
p124
aVrain-dance
p125
asg43
g44
sg45
Vhuge-power
p126
sbag1
(g25
g3
Ntp127
Rp128
(dp129
g29
V008
p130
sg31
VWartortle
p131
sg33
g34
sg35
V24
p132
sg37
(lp133
Vbubble
p134
aVprotect
p135
aVrapid-spin
p136
aVrain-dance
p137
asg43
g44
sg45
Vtorrent
p138
sbag1
(g25
g3
Ntp139
Rp140
(dp141
g29
V008
p142
sg31
VWartortle
p143
sg33
g34
sg35
V24
p144
sg37
(lp145
Vbubble
p146
aVprotect
p147
aVrapid-spin
p148
aVrain-dance
p149
asg43
g44
sg45
Vtorrent
p150
sbasg71
I00
sg72
g73
sbag1
(g2
g3
Ntp151
Rp152
(dp153
g7
VSpr GS Hiker.png
p154
sg9
VHiker
p155
sg11
VParry
p156
sg13
V928
p157
sg15
V1
p158
sg17
g18
sg19
g20
sg21
g22
sg23
(lp159
g1
(g25
g3
Ntp160
Rp161
(dp162
g29
V095
p163
sg31
VOnix
p164
sg33
g34
sg35
V29
p165
sg37
(lp166
Vrage
p167
aVscreech
p168
aVharden
p169
aVsandstorm
p170
asg43
g44
sg45
Vsturdy
p171
sbasg71
I00
sg72
g73
sbag1
(g2
g3
Ntp172
Rp173
(dp174
g7
VSpr GS Blackbelt.png
p175
sg9
VBlackbelt
p176
sg11
VKenji
p177
sg13
V672
p178
sg15
g158
sg17
g18
sg19
g20
sg21
g22
sg23
(lp179
g1
(g25
g3
Ntp180
Rp181
(dp182
g29
V067
p183
sg31
VMachoke
p184
sg33
g34
sg35
V28
p185
sg37
(lp186
Vscary-face
p187
aVforesight
p188
aVvital-throw
p189
aVcross-chop
p190
asg43
g44
sg45
Vno-guard
p191
sbasg71
I00
sg72
g73
sbag1
(g2
g3
Ntp192
Rp193
(dp194
g7
VSpr GS Hiker.png
p195
sg9
VHiker
p196
sg11
VTimothy
p197
sg13
V864
p198
sg15
g81
sg17
g18
sg19
g20
sg21
g22
sg23
(lp199
g1
(g25
g3
Ntp200
Rp201
(dp202
g29
V050
p203
sg31
VDiglett
p204
sg33
g34
sg35
V27
p205
sg37
(lp206
Vfissure
p207
aVdig
p208
aVslash
p209
aVmagnitude
p210
asg43
g44
sg45
Varena-trap
p211
sbag1
(g25
g3
Ntp212
Rp213
(dp214
g29
V051
p215
sg31
VDugtrio
p216
sg33
g34
sg35
V27
p217
sg37
(lp218
Vdig
p219
aVslash
p220
aVmagnitude
p221
ag221
asg43
g44
sg45
Vsand-veil
p222
sbasg71
I00
sg72
g73
sbag1
(g2
g3
Ntp223
Rp224
(dp225
g7
VSpr GS Hiker.png
p226
sg9
VHiker
p227
sg11
VMichael
p228
sg13
V800
p229
sg15
g16
sg17
g18
sg19
g20
sg21
g22
sg23
(lp230
g1
(g25
g3
Ntp231
Rp232
(dp233
g29
V074
p234
sg31
VGeodude
p235
sg33
g34
sg35
V25
p236
sg37
(lp237
Vself-destruct
p238
aVexplosion
p239
aVrollout
p240
aVmagnitude
p241
asg43
g44
sg45
Vsturdy
p242
sbag1
(g25
g3
Ntp243
Rp244
(dp245
g29
V075
p246
sg31
VGraveler
p247
sg33
g34
sg35
V25
p248
sg37
(lp249
Vself-destruct
p250
aVexplosion
p251
aVrollout
p252
aVmagnitude
p253
asg43
g44
sg45
Vsturdy
p254
sbag1
(g25
g3
Ntp255
Rp256
(dp257
g29
V076
p258
sg31
VGolem
p259
sg33
g34
sg35
V25
p260
sg37
(lp261
Vexplosion
p262
aVrollout
p263
aVmagnitude
p264
ag264
asg43
g44
sg45
Vsturdy
p265
sbasg71
I00
sg72
g73
sbag1
(g2
g3
Ntp266
Rp267
(dp268
g7
VSpr GS Camper.png
p269
sg9
VCamper
p270
sg11
VQuentin{{sup/2|C}}
p271
sg13
V600
p272
sg15
g16
sg17
g18
sg19
g20
sg21
g22
sg23
(lp273
g1
(g25
g3
Ntp274
Rp275
(dp276
g29
V022
p277
sg31
VFearow
p278
sg33
g34
sg35
V30
p279
sg37
(lp280
Vdrill-peck
p281
aVagility
p282
aVmirror-move
p283
aVpursuit
p284
asg43
g44
sg45
Vkeen-eye
p285
sbag1
(g25
g3
Ntp286
Rp287
(dp288
g29
V057
p289
sg31
VPrimeape
p290
sg33
g34
sg35
V30
p291
sg37
(lp292
Vscreech
p293
aVfocus-energy
p294
aVfury-swipes
p295
aVcross-chop
p296
asg43
g44
sg45
Vanger-point
p297
sbag1
(g25
g3
Ntp298
Rp299
(dp300
g29
V128
p301
sg31
VTauros
p302
sg33
g34
sg35
V30
p303
sg37
(lp304
Vrage
p305
aVrest
p306
aVscary-face
p307
aVpursuit
p308
asg43
g44
sg45
Vintimidate
p309
sbasg71
I00
sg72
g73
sbag1
(g2
g3
Ntp310
Rp311
(dp312
g7
VSpr GS Hiker.png
p313
sg9
VHiker
p314
sg11
VParry{{sup/2|GS}}
p315
sg13
g1
(cmwparserfromhell.wikicode
Wikicode
p316
g3
Ntp317
Rp318
(dp319
V_nodes
p320
g1
(cmwparserfromhell.smart_list.smart_list
SmartList
p321
c__builtin__
list
p322
(lp323
g1
(cmwparserfromhell.nodes.text
Text
p324
g3
Ntp325
Rp326
(dp327
V_value
p328
V1088
p329
sbatp330
Rp331
(dp332
V_children
p333
(dp334
sbsbsg15
g158
sg17
g18
sg19
g20
sg21
g22
sg23
(lp335
g1
(g25
g3
Ntp336
Rp337
(dp338
g29
V095
p339
sg31
VOnix
p340
sg33
g34
sg35
V34
p341
sg37
(lp342
Vrage
p343
aVscreech
p344
aVharden
p345
aVsandstorm
p346
asg43
g44
sg45
Vsturdy
p347
sbasg71
I00
sg72
g73
sbag1
(g2
g3
Ntp348
Rp349
(dp350
g7
VSpr GS Hiker.png
p351
sg9
VHiker
p352
sg11
VParry{{sup/2|C}}{{tt|*|First rematch}}
p353
sg13
V1056
p354
sg15
g81
sg17
g18
sg19
g20
sg21
g22
sg23
(lp355
g1
(g25
g3
Ntp356
Rp357
(dp358
g29
V095
p359
sg31
VOnix
p360
sg33
g34
sg35
V35
p361
sg37
(lp362
Vrage
p363
aVscreech
p364
aVharden
p365
aVsandstorm
p366
asg43
g44
sg45
Vrock-head
p367
sbag1
(g25
g3
Ntp368
Rp369
(dp370
g29
V220
p371
sg31
VSwinub
p372
sg33
g34
sg35
V33
p373
sg37
(lp374
Vmist
p375
aVblizzard
p376
aVpowder-snow
p377
aVendure
p378
asg43
g44
sg45
Vsnow-cloak
p379
sbasg71
I00
sg72
g73
sbag1
(g2
g3
Ntp380
Rp381
(dp382
g7
VSpr GS Hiker.png
p383
sg9
VHiker
p384
sg11
VParry{{sup/2|C}}{{tt|*|Second rematch onward}}
p385
sg13
V1216
p386
sg15
g16
sg17
g18
sg19
g20
sg21
g22
sg23
(lp387
g1
(g25
g3
Ntp388
Rp389
(dp390
g29
V221
p391
sg31
VPiloswine
p392
sg33
g34
sg35
V35
p393
sg37
(lp394
Vpowder-snow
p395
ag395
aVendure
p396
ag396
asg43
g44
sg45
Voblivious
p397
sbag1
(g25
g3
Ntp398
Rp399
(dp400
g29
V051
p401
sg31
VDugtrio
p402
sg33
g34
sg35
V35
p403
sg37
(lp404
Vdig
p405
aVslash
p406
aVmagnitude
p407
ag407
asg43
g44
sg45
Vsand-veil
p408
sbag1
(g25
g3
Ntp409
Rp410
(dp411
g29
V208
p412
sg31
VSteelix
p413
sg33
g34
sg35
V38
p414
sg37
(lp415
Vscreech
p416
aVharden
p417
aVsandstorm
p418
aVcrunch
p419
asg43
g44
sg45
Vsturdy
p420
sbasg71
I00
sg72
g73
sbag1
(g2
g3
Ntp421
Rp422
(dp423
g7
VSpr GS Blackbelt.png
p424
sg9
VBlackbelt
p425
sg11
VKenji{{sup/2|GS}}{{tt|*|First rematch}}
p426
sg13
V768
p427
sg15
V4
p428
sg17
g18
sg19
g20
sg21
g22
sg23
(lp429
g1
(g25
g3
Ntp430
Rp431
(dp432
g29
V095
p433
sg31
VOnix
p434
sg33
g34
sg35
V27
p435
sg37
(lp436
Vrage
p437
aVscreech
p438
aVharden
p439
aVsandstorm
p440
asg43
g44
sg45
Vrock-head
p441
sbag1
(g25
g3
Ntp442
Rp443
(dp444
g29
V106
p445
sg31
VHitmonlee
p446
sg33
g34
sg35
V30
p447
sg37
(lp448
Vmind-reader
p449
aVreversal
p450
aVforesight
p451
aVendure
p452
asg43
g44
sg45
Vlimber
p453
sbag1
(g25
g3
Ntp454
Rp455
(dp456
g29
V095
p457
sg31
VOnix
p458
sg33
g34
sg35
V27
p459
sg37
(lp460
Vrage
p461
aVscreech
p462
aVharden
p463
aVsandstorm
p464
asg43
g44
sg45
Vsturdy
p465
sbag1
(g25
g3
Ntp466
Rp467
(dp468
g29
V067
p469
sg31
VMachoke
p470
sg33
g34
sg35
V32
p471
sg37
(lp472
Vscary-face
p473
aVforesight
p474
aVvital-throw
p475
aVcross-chop
p476
asg43
g44
sg45
Vno-guard
p477
sbasg71
I00
sg72
g73
sbag1
(g2
g3
Ntp478
Rp479
(dp480
g7
VSpr GS Blackbelt.png
p481
sg9
VBlackbelt
p482
sg11
VKenji{{sup/2|GS}}{{tt|*|Second rematch onward}}
p483
sg13
V840
p484
sg15
g428
sg17
g18
sg19
g20
sg21
g22
sg23
(lp485
g1
(g25
g3
Ntp486
Rp487
(dp488
g29
V095
p489
sg31
VOnix
p490
sg33
g34
sg35
V30
p491
sg37
(lp492
Vrage
p493
aVscreech
p494
aVharden
p495
aVsandstorm
p496
asg43
g44
sg45
Vsturdy
p497
sbag1
(g25
g3
Ntp498
Rp499
(dp500
g29
V068
p501
sg31
VMachamp
p502
sg33
g34
sg35
V37
p503
sg37
(lp504
Vscary-face
p505
aVforesight
p506
aVvital-throw
p507
aVcross-chop
p508
asg43
g44
sg45
Vguts
p509
sbag1
(g25
g3
Ntp510
Rp511
(dp512
g29
V095
p513
sg31
VOnix
p514
sg33
g34
sg35
V30
p515
sg37
(lp516
Vrage
p517
aVscreech
p518
aVharden
p519
aVsandstorm
p520
asg43
g44
sg45
Vrock-head
p521
sbag1
(g25
g3
Ntp522
Rp523
(dp524
g29
V106
p525
sg31
VHitmonlee
p526
sg33
g34
sg35
V35
p527
sg37
(lp528
Vmind-reader
p529
aVreversal
p530
aVforesight
p531
aVendure
p532
asg43
g44
sg45
Vreckless
p533
sbasg71
I00
sg72
g73
sbag1
(g2
g3
Ntp534
Rp535
(dp536
g7
VSpr DP Hiker.png
p537
sg9
VHiker
p538
sg11
VErik
p539
sg13
V864
p540
sg15
g16
sg17
g18
sg19
g20
sg21
VDP
p541
sg23
(lp542
g1
(g25
g3
Ntp543
Rp544
(dp545
g29
V066
p546
sg31
VMachop
p547
sg33
g34
sg35
V24
p548
sg37
(lp549
Vvital-throw
p550
aVcross-chop
p551
aVrevenge
p552
aVwake-up-slap
p553
asg43
g44
sg45
Vguts
p554
sbag1
(g25
g3
Ntp555
Rp556
(dp557
g29
V075
p558
sg31
VGraveler
p559
sg33
g34
sg35
V27
p560
sg37
(lp561
Vrock-blast
p562
aVrock-polish
p563
ag563
aVstone-edge
p564
asg43
g44
sg45
Vsturdy
p565
sbag1
(g25
g3
Ntp566
Rp567
(dp568
g29
V066
p569
sg31
VMachop
p570
sg33
g34
sg35
V27
p571
sg37
(lp572
Vvital-throw
p573
aVcross-chop
p574
aVrevenge
p575
aVwake-up-slap
p576
asg43
g44
sg45
Vno-guard
p577
sbasg71
I00
sg72
Vdiamond-pearl
p578
sbag1
(g2
g3
Ntp579
Rp580
(dp581
g7
VSpr HGSS Ace Trainer M.png
p582
sg9
VAce Trainer
p583
sg11
VRyan
p584
sg13
V1620
p585
sg15
g81
sg17
g18
sg19
g20
sg21
VHGSS
p586
sg23
(lp587
g1
(g25
g3
Ntp588
Rp589
(dp590
g29
V018
p591
sg31
VPidgeot
p592
sg33
g34
sg35
V25
p593
sg37
(lp594
Vfeather-dance
p595
aVroost
p596
aVtailwind
p597
aVair-slash
p598
asg43
g44
sg45
Vtangled-feet
p599
sbag1
(g25
g3
Ntp600
Rp601
(dp602
g29
V125
p603
sg31
VElectabuzz
p604
sg33
g34
sg35
V27
p605
sg37
(lp606
Vlight-screen
p607
aVswift
p608
aVshock-wave
p609
aVdischarge
p610
asg43
g44
sg45
Vstatic
p611
sbasg71
I00
sg72
Vheartgold-soulsilver
p612
sbag1
(g2
g3
Ntp613
Rp614
(dp615
g7
VSpr HGSS Ace Trainer F.png
p616
sg9
VAce Trainer
p617
sg11
VKelly
p618
sg13
V1440
p619
sg15
g16
sg17
g18
sg19
g20
sg21
g586
sg23
(lp620
g1
(g25
g3
Ntp621
Rp622
(dp623
g29
V183
p624
sg31
VMarill
p625
sg33
g119
sg35
V27
p626
sg37
(lp627
Vrollout
p628
aVrain-dance
p629
aVaqua-ring
p630
aVaqua-tail
p631
asg43
g44
sg45
Vhuge-power
p632
sbag1
(g25
g3
Ntp633
Rp634
(dp635
g29
V008
p636
sg31
VWartortle
p637
sg33
g34
sg35
V24
p638
sg37
(lp639
Vrain-dance
p640
aViron-defense
p641
aVwater-pulse
p642
aVaqua-tail
p643
asg43
g44
sg45
Vtorrent
p644
sbag1
(g25
g3
Ntp645
Rp646
(dp647
g29
V008
p648
sg31
VWartortle
p649
sg33
g34
sg35
V24
p650
sg37
(lp651
Vrain-dance
p652
aViron-defense
p653
aVwater-pulse
p654
aVaqua-tail
p655
asg43
g44
sg45
Vtorrent
p656
sbasg71
I00
sg72
g612
sbag1
(g2
g3
Ntp657
Rp658
(dp659
g7
VSpr DP Hiker.png
p660
sg9
VHiker
p661
sg11
VParry
p662
sg13
V960
p663
sg15
g158
sg17
g18
sg19
g20
sg21
g541
sg23
(lp664
g1
(g25
g3
Ntp665
Rp666
(dp667
g29
V095
p668
sg31
VOnix
p669
sg33
g34
sg35
V30
p670
sg37
(lp671
Vrock-tomb
p672
aVsand-tomb
p673
aVrock-polish
p674
aVstone-edge
p675
asg43
g44
sg45
Vsturdy
p676
sbasg71
I00
sg72
g578
sbag1
(g2
g3
Ntp677
Rp678
(dp679
g7
VSpr HGSS Black Belt.png
p680
sg9
VBlack Belt
p681
sg11
VKenji
p682
sg13
V672
p683
sg15
g158
sg17
g18
sg19
g20
sg21
g586
sg23
(lp684
g1
(g25
g3
Ntp685
Rp686
(dp687
g29
V067
p688
sg31
VMachoke
p689
sg33
g34
sg35
V28
p690
sg37
(lp691
Vvital-throw
p692
aVcross-chop
p693
aVrevenge
p694
aVwake-up-slap
p695
asg43
g44
sg45
Vno-guard
p696
sbasg71
I00
sg72
g612
sbag1
(g2
g3
Ntp697
Rp698
(dp699
g7
VSpr DP Hiker.png
p700
sg9
VHiker
p701
sg11
VTimothy
p702
sg13
V864
p703
sg15
g81
sg17
g18
sg19
g20
sg21
g541
sg23
(lp704
g1
(g25
g3
Ntp705
Rp706
(dp707
g29
V050
p708
sg31
VDiglett
p709
sg33
g34
sg35
V27
p710
sg37
(lp711
Vastonish
p712
aVsucker-punch
p713
aVearth-power
p714
aVmud-bomb
p715
asg43
g44
sg45
Vsand-veil
p716
sbag1
(g25
g3
Ntp717
Rp718
(dp719
g29
V051
p720
sg31
VDugtrio
p721
sg33
g34
sg35
V27
p722
sg37
(lp723
Vsucker-punch
p724
aVnight-slash
p725
aVearth-power
p726
aVmud-bomb
p727
asg43
g44
sg45
Vsand-veil
p728
sbasg71
I00
sg72
g578
sbag1
(g2
g3
Ntp729
Rp730
(dp731
g7
VSpr DP Hiker.png
p732
sg9
VHiker
p733
sg11
VMichael
p734
sg13
V800
p735
sg15
g16
sg17
g18
sg19
g20
sg21
g541
sg23
(lp736
g1
(g25
g3
Ntp737
Rp738
(dp739
g29
V074
p740
sg31
VGeodude
p741
sg33
g34
sg35
V25
p742
sg37
(lp743
Vmud-sport
p744
aVrock-blast
p745
aVrock-polish
p746
aVstone-edge
p747
asg43
g44
sg45
Vrock-head
p748
sbag1
(g25
g3
Ntp749
Rp750
(dp751
g29
V075
p752
sg31
VGraveler
p753
sg33
g34
sg35
V25
p754
sg37
(lp755
Vrock-blast
p756
aVrock-polish
p757
ag757
aVstone-edge
p758
asg43
g44
sg45
Vsturdy
p759
sbag1
(g25
g3
Ntp760
Rp761
(dp762
g29
V076
p763
sg31
VGolem
p764
sg33
g34
sg35
V25
p765
sg37
(lp766
Vrock-blast
p767
aVrock-polish
p768
ag768
aVstone-edge
p769
asg43
g44
sg45
Vsturdy
p770
sbasg71
I00
sg72
g578
sbag1
(g2
g3
Ntp771
Rp772
(dp773
g7
VSpr HGSS Black Belt.png
p774
sg9
VBlack Belt
p775
sg11
VKenji{{tt|*|First rematch}}
p776
sg13
V768
p777
sg15
g428
sg17
g18
sg19
g20
sg21
g586
sg23
(lp778
g1
(g25
g3
Ntp779
Rp780
(dp781
g29
V095
p782
sg31
VOnix
p783
sg33
g34
sg35
V27
p784
sg37
(lp785
Vrock-tomb
p786
aVsand-tomb
p787
aVrock-polish
p788
aVstone-edge
p789
asg43
g44
sg45
Vsturdy
p790
sbag1
(g25
g3
Ntp791
Rp792
(dp793
g29
V106
p794
sg31
VHitmonlee
p795
sg33
g34
sg35
V32
p796
sg37
(lp797
Vbrick-break
p798
aVblaze-kick
p799
aVfeint
p800
aVclose-combat
p801
asg43
g44
sg45
Vlimber
p802
sbag1
(g25
g3
Ntp803
Rp804
(dp805
g29
V095
p806
sg31
VOnix
p807
sg33
g34
sg35
V27
p808
sg37
(lp809
Vrock-tomb
p810
aVsand-tomb
p811
aVrock-polish
p812
aVstone-edge
p813
asg43
g44
sg45
Vrock-head
p814
sbag1
(g25
g3
Ntp815
Rp816
(dp817
g29
V067
p818
sg31
VMachoke
p819
sg33
g34
sg35
V32
p820
sg37
(lp821
Vvital-throw
p822
aVcross-chop
p823
aVrevenge
p824
aVwake-up-slap
p825
asg43
g44
sg45
Vguts
p826
sbasg71
I00
sg72
g612
sbag1
(g2
g3
Ntp827
Rp828
(dp829
g7
VSpr HGSS Black Belt.png
p830
sg9
VBlack Belt
p831
sg11
VKenji
p832
sg13
g1
(g316
g3
Ntp833
Rp834
(dp835
g320
g1
(g321
g322
(lp836
g1
(g324
g3
Ntp837
Rp838
(dp839
g328
V888
p840
sbatp841
Rp842
(dp843
g333
(dp844
sbsbsg15
g428
sg17
g18
sg19
g20
sg21
g586
sg23
(lp845
g1
(g25
g3
Ntp846
Rp847
(dp848
g29
V095
p849
sg31
VOnix
p850
sg33
g34
sg35
V30
p851
sg37
(lp852
Vrock-tomb
p853
aVsand-tomb
p854
aVrock-polish
p855
aVstone-edge
p856
asg43
g44
sg45
Vsturdy
p857
sbag1
(g25
g3
Ntp858
Rp859
(dp860
g29
V106
p861
sg31
VHitmonlee
p862
sg33
g34
sg35
V41
p863
sg37
(lp864
Vbrick-break
p865
aVblaze-kick
p866
aVfeint
p867
aVclose-combat
p868
asg43
g44
sg45
Vreckless
p869
sbag1
(g25
g3
Ntp870
Rp871
(dp872
g29
V095
p873
sg31
VOnix
p874
sg33
g34
sg35
V33
p875
sg37
(lp876
Vrock-tomb
p877
aVsand-tomb
p878
aVrock-polish
p879
aVstone-edge
p880
asg43
g44
sg45
Vrock-head
p881
sbag1
(g25
g3
Ntp882
Rp883
(dp884
g29
V068
p885
sg31
VMachamp
p886
sg33
g34
sg35
V37
p887
sg37
(lp888
Vvital-throw
p889
aVcross-chop
p890
aVrevenge
p891
aVwake-up-slap
p892
asg43
g44
sg45
Vguts
p893
sbasg71
I00
sg72
g612
sbag1
(g2
g3
Ntp894
Rp895
(dp896
g7
VSpr DP Hiker.png
p897
sg9
VHiker
p898
sg11
VParry{{tt|*|First rematch}}
p899
sg13
V1120
p900
sg15
g81
sg17
g18
sg19
g20
sg21
g541
sg23
(lp901
g1
(g25
g3
Ntp902
Rp903
(dp904
g29
V095
p905
sg31
VOnix
p906
sg33
g34
sg35
V38
p907
sg37
(lp908
Vrock-tomb
p909
aVsand-tomb
p910
aVrock-polish
p911
aVstone-edge
p912
asg43
g44
sg45
Vrock-head
p913
sbag1
(g25
g3
Ntp914
Rp915
(dp916
g29
V075
p917
sg31
VGraveler
p918
sg33
g34
sg35
V35
p919
sg37
(lp920
Vrock-blast
p921
aVrock-polish
p922
ag922
aVstone-edge
p923
asg43
g44
sg45
Vrock-head
p924
sbasg71
I00
sg72
g578
sbag1
(g2
g3
Ntp925
Rp926
(dp927
g7
VSpr DP Hiker.png
p928
sg9
VHiker
p929
sg11
VParry{{tt|*|Second rematch}}
p930
sg13
V1184
p931
sg15
g81
sg17
g18
sg19
g20
sg21
g541
sg23
(lp932
g1
(g25
g3
Ntp933
Rp934
(dp935
g29
V208
p936
sg31
VSteelix
p937
sg33
g34
sg35
V41
p938
sg37
(lp939
Vthunder-fang
p940
aVice-fang
p941
aVfire-fang
p942
aVstone-edge
p943
asg43
g44
sg45
Vrock-head
p944
sbag1
(g25
g3
Ntp945
Rp946
(dp947
g29
V075
p948
sg31
VGraveler
p949
sg33
g34
sg35
V37
p950
sg37
(lp951
Vrock-blast
p952
aVrock-polish
p953
ag953
aVstone-edge
p954
asg43
g44
sg45
Vsturdy
p955
sbasg71
I00
sg72
g578
sbag1
(g2
g3
Ntp956
Rp957
(dp958
g7
VSpr DP Hiker.png
p959
sg9
VHiker
p960
sg11
VParry{{tt|*|Third rematch onwards}}
p961
sg13
V1664
p962
sg15
g81
sg17
g18
sg19
g20
sg21
g541
sg23
(lp963
g1
(g25
g3
Ntp964
Rp965
(dp966
g29
V208
p967
sg31
VSteelix
p968
sg33
g34
sg35
V56
p969
sg37
(lp970
Vthunder-fang
p971
aVice-fang
p972
aVfire-fang
p973
aVstone-edge
p974
asg43
g44
sg45
Vrock-head
p975
sbag1
(g25
g3
Ntp976
Rp977
(dp978
g29
V076
p979
sg31
VGolem
p980
sg33
g34
sg35
V52
p981
sg37
(lp982
Vrock-blast
p983
aVrock-polish
p984
ag984
aVstone-edge
p985
asg43
g44
sg45
Vrock-head
p986
sbasg71
I00
sg72
g578
sba.