(lp0
ccopy_reg
_reconstructor
p1
(c__main__
Trainer
p2
c__builtin__
object
p3
Ntp4
Rp5
(dp6
VtSprite
p7
VSpr GS Hiker.png
p8
sVtClass
p9
VHiker
p10
sVtName
p11
VAnthony
p12
sVtMoney
p13
V352
p14
sVtPokeCount
p15
V2
p16
sVtLocation
p17
Vwiki/Johto_Route_33
p18
sVtRegion
p19
VJohto
p20
sVtGame
p21
VGS
p22
sVtPokes
p23
(lp24
g1
(c__main__
FinishedPokemon
p25
g3
Ntp26
Rp27
(dp28
VpDexNo
p29
V074
p30
sVpSpecies
p31
VGeodude
p32
sVpGender
p33
VM
p34
sVpLevel
p35
V11
p36
sVpMoves
p37
(lp38
Vself-destruct
p39
aVexplosion
p40
aVrollout
p41
aVmagnitude
p42
asVpHold
p43
V
p44
sVpAbility
p45
Vsturdy
p46
sbag1
(g25
g3
Ntp47
Rp48
(dp49
g29
V066
p50
sg31
VMachop
p51
sg33
g34
sg35
V11
p52
sg37
(lp53
Vscary-face
p54
aVforesight
p55
aVvital-throw
p56
aVcross-chop
p57
asg43
g44
sg45
Vguts
p58
sbasVbossFlag
p59
I00
sVtLongGame
p60
Vgold-silver
p61
sbag1
(g2
g3
Ntp62
Rp63
(dp64
g7
VSpr GS Hiker.png
p65
sg9
VHiker
p66
sg11
VAnthony{{tt|*|First rematch}}
p67
sg13
V576
p68
sg15
g16
sg17
g18
sg19
g20
sg21
g22
sg23
(lp69
g1
(g25
g3
Ntp70
Rp71
(dp72
g29
V074
p73
sg31
VGeodude
p74
sg33
g34
sg35
V16
p75
sg37
(lp76
Vself-destruct
p77
aVexplosion
p78
aVrollout
p79
aVmagnitude
p80
asg43
g44
sg45
Vsturdy
p81
sbag1
(g25
g3
Ntp82
Rp83
(dp84
g29
V068
p85
sg31
VMachamp
p86
sg33
g34
sg35
V18
p87
sg37
(lp88
Vscary-face
p89
aVforesight
p90
aVvital-throw
p91
aVcross-chop
p92
asg43
g44
sg45
Vguts
p93
sbasg59
I00
sg60
g61
sbag1
(g2
g3
Ntp94
Rp95
(dp96
g7
VSpr GS Hiker.png
p97
sg9
VHiker
p98
sg11
VAnthony
p99
sg13
g1
(cmwparserfromhell.wikicode
Wikicode
p100
g3
Ntp101
Rp102
(dp103
V_nodes
p104
g1
(cmwparserfromhell.smart_list.smart_list
SmartList
p105
c__builtin__
list
p106
(lp107
g1
(cmwparserfromhell.nodes.text
Text
p108
g3
Ntp109
Rp110
(dp111
V_value
p112
V928
p113
sbatp114
Rp115
(dp116
V_children
p117
(dp118
sbsbsg15
V3
p119
sg17
g18
sg19
g20
sg21
g22
sg23
(lp120
g1
(g25
g3
Ntp121
Rp122
(dp123
g29
V075
p124
sg31
VGraveler
p125
sg33
g34
sg35
V25
p126
sg37
(lp127
Vself-destruct
p128
aVexplosion
p129
aVrollout
p130
aVmagnitude
p131
asg43
g44
sg45
Vsturdy
p132
sbag1
(g25
g3
Ntp133
Rp134
(dp135
g29
V075
p136
sg31
VGraveler
p137
sg33
g34
sg35
V27
p138
sg37
(lp139
Vself-destruct
p140
aVexplosion
p141
aVrollout
p142
aVmagnitude
p143
asg43
g44
sg45
Vsturdy
p144
sbag1
(g25
g3
Ntp145
Rp146
(dp147
g29
V067
p148
sg31
VMachoke
p149
sg33
g34
sg35
V29
p150
sg37
(lp151
Vscary-face
p152
aVforesight
p153
aVvital-throw
p154
aVcross-chop
p155
asg43
g44
sg45
Vno-guard
p156
sbasg59
I00
sg60
g61
sbag1
(g2
g3
Ntp157
Rp158
(dp159
g7
VSpr GS Hiker.png
p160
sg9
VHiker
p161
sg11
VAnthony{{tt|*|Fourth rematch onward}}{{sup/2|C}}
p162
sg13
V1088
p163
sg15
g119
sg17
g18
sg19
g20
sg21
g22
sg23
(lp164
g1
(g25
g3
Ntp165
Rp166
(dp167
g29
V075
p168
sg31
VGraveler
p169
sg33
g34
sg35
V34
p170
sg37
(lp171
Vself-destruct
p172
aVexplosion
p173
aVrollout
p174
aVmagnitude
p175
asg43
g44
sg45
Vsturdy
p176
sbag1
(g25
g3
Ntp177
Rp178
(dp179
g29
V076
p180
sg31
VGolem
p181
sg33
g34
sg35
V36
p182
sg37
(lp183
Vexplosion
p184
aVrollout
p185
aVmagnitude
p186
ag186
asg43
g44
sg45
Vrock-head
p187
sbag1
(g25
g3
Ntp188
Rp189
(dp190
g29
V067
p191
sg31
VMachoke
p192
sg33
g34
sg35
V34
p193
sg37
(lp194
Vscary-face
p195
aVforesight
p196
aVvital-throw
p197
aVcross-chop
p198
asg43
g44
sg45
Vno-guard
p199
sbasg59
I00
sg60
g61
sbag1
(g2
g3
Ntp200
Rp201
(dp202
g7
VSpr DP Hiker.png
p203
sg9
VHiker
p204
sg11
VAnthony
p205
sg13
V352
p206
sg15
g16
sg17
g18
sg19
g20
sg21
VDP
p207
sg23
(lp208
g1
(g25
g3
Ntp209
Rp210
(dp211
g29
V074
p212
sg31
VGeodude
p213
sg33
g34
sg35
V11
p214
sg37
(lp215
Vmud-sport
p216
aVrock-blast
p217
aVrock-polish
p218
aVstone-edge
p219
asg43
g44
sg45
Vsturdy
p220
sbag1
(g25
g3
Ntp221
Rp222
(dp223
g29
V066
p224
sg31
VMachop
p225
sg33
g34
sg35
V11
p226
sg37
(lp227
Vvital-throw
p228
aVcross-chop
p229
aVrevenge
p230
aVwake-up-slap
p231
asg43
g44
sg45
Vno-guard
p232
sbasg59
I00
sg60
Vdiamond-pearl
p233
sbag1
(g2
g3
Ntp234
Rp235
(dp236
g7
VSpr DP Hiker.png
p237
sg9
VHiker
p238
sg11
VAnthony
p239
sg13
g1
(g100
g3
Ntp240
Rp241
(dp242
g104
g1
(g105
g106
(lp243
g1
(g108
g3
Ntp244
Rp245
(dp246
g112
V1024
p247
sbatp248
Rp249
(dp250
g117
(dp251
sbsbsg15
g16
sg17
g18
sg19
g20
sg21
g207
sg23
(lp252
g1
(g25
g3
Ntp253
Rp254
(dp255
g29
V075
p256
sg31
VGraveler
p257
sg33
g34
sg35
V33
p258
sg37
(lp259
Vrock-blast
p260
aVrock-polish
p261
ag261
aVstone-edge
p262
asg43
g44
sg45
Vsturdy
p263
sbag1
(g25
g3
Ntp264
Rp265
(dp266
g29
V067
p267
sg31
VMachoke
p268
sg33
g34
sg35
V32
p269
sg37
(lp270
Vvital-throw
p271
aVcross-chop
p272
aVrevenge
p273
aVwake-up-slap
p274
asg43
g44
sg45
Vno-guard
p275
sbasg59
I00
sg60
g233
sbag1
(g2
g3
Ntp276
Rp277
(dp278
g7
VSpr DP Hiker.png
p279
sg9
VHiker
p280
sg11
VAnthony
p281
sg13
g1
(g100
g3
Ntp282
Rp283
(dp284
g104
g1
(g105
g106
(lp285
g1
(g108
g3
Ntp286
Rp287
(dp288
g112
V1280
p289
sbatp290
Rp291
(dp292
g117
(dp293
sbsbsg15
g119
sg17
g18
sg19
g20
sg21
g207
sg23
(lp294
g1
(g25
g3
Ntp295
Rp296
(dp297
g29
V075
p298
sg31
VGraveler
p299
sg33
g34
sg35
V37
p300
sg37
(lp301
Vrock-blast
p302
aVrock-polish
p303
ag303
aVstone-edge
p304
asg43
g44
sg45
Vsturdy
p305
sbag1
(g25
g3
Ntp306
Rp307
(dp308
g29
V075
p309
sg31
VGraveler
p310
sg33
g34
sg35
V38
p311
sg37
(lp312
Vrock-blast
p313
aVrock-polish
p314
ag314
aVstone-edge
p315
asg43
g44
sg45
Vrock-head
p316
sbag1
(g25
g3
Ntp317
Rp318
(dp319
g29
V067
p320
sg31
VMachoke
p321
sg33
g34
sg35
V40
p322
sg37
(lp323
Vvital-throw
p324
aVcross-chop
p325
aVrevenge
p326
aVwake-up-slap
p327
asg43
g44
sg45
Vno-guard
p328
sbasg59
I00
sg60
g233
sbag1
(g2
g3
Ntp329
Rp330
(dp331
g7
VSpr DP Hiker.png
p332
sg9
VHiker
p333
sg11
VAnthony
p334
sg13
g1
(g100
g3
Ntp335
Rp336
(dp337
g104
g1
(g105
g106
(lp338
g1
(g108
g3
Ntp339
Rp340
(dp341
g112
V1760
p342
sbatp343
Rp344
(dp345
g117
(dp346
sbsbsg15
g119
sg17
g18
sg19
g20
sg21
g207
sg23
(lp347
g1
(g25
g3
Ntp348
Rp349
(dp350
g29
V075
p351
sg31
VGraveler
p352
sg33
g34
sg35
V41
p353
sg37
(lp354
Vrock-blast
p355
aVrock-polish
p356
ag356
aVstone-edge
p357
asg43
g44
sg45
Vsturdy
p358
sbag1
(g25
g3
Ntp359
Rp360
(dp361
g29
V076
p362
sg31
VGolem
p363
sg33
g34
sg35
V49
p364
sg37
(lp365
Vrock-blast
p366
aVrock-polish
p367
ag367
aVstone-edge
p368
asg43
g44
sg45
Vrock-head
p369
sbag1
(g25
g3
Ntp370
Rp371
(dp372
g29
V068
p373
sg31
VMachamp
p374
sg33
g34
sg35
V55
p375
sg37
(lp376
Vvital-throw
p377
aVcross-chop
p378
aVrevenge
p379
aVwake-up-slap
p380
asg43
g44
sg45
Vguts
p381
sbasg59
I00
sg60
g233
sba.