(lp0
ccopy_reg
_reconstructor
p1
(c__main__
Trainer
p2
c__builtin__
object
p3
Ntp4
Rp5
(dp6
VtSprite
p7
VSpr GS Picnicker.png
p8
sVtClass
p9
VPicnicker
p10
sVtName
p11
VKim
p12
sVtMoney
p13
V300
p14
sVtPokeCount
p15
V1
p16
sVtLocation
p17
Vwiki/Johto_Route_35
p18
sVtRegion
p19
VJohto
p20
sVtGame
p21
VGS
p22
sVtPokes
p23
(lp24
g1
(c__main__
FinishedPokemon
p25
g3
Ntp26
Rp27
(dp28
VpDexNo
p29
V037
p30
sVpSpecies
p31
VVulpix
p32
sVpGender
p33
VF
p34
sVpLevel
p35
V15
p36
sVpMoves
p37
(lp38
Vfire-spin
p39
aVquick-attack
p40
aVconfuse-ray
p41
aVsafeguard
p42
asVpHold
p43
V
p44
sVpAbility
p45
Vflash-fire
p46
sbasVbossFlag
p47
I00
sVtLongGame
p48
Vgold-silver
p49
sbag1
(g2
g3
Ntp50
Rp51
(dp52
g7
VSpr GS Camper.png
p53
sg9
VCamper
p54
sg11
VElliot
p55
sg13
V300
p56
sg15
V2
p57
sg17
g18
sg19
g20
sg21
g22
sg23
(lp58
g1
(g25
g3
Ntp59
Rp60
(dp61
g29
V027
p62
sg31
VSandshrew
p63
sg33
VM
p64
sg35
V13
p65
sg37
(lp66
Vswift
p67
aVfury-swipes
p68
aVslash
p69
aVsandstorm
p70
asg43
g44
sg45
Vsand-veil
p71
sbag1
(g25
g3
Ntp72
Rp73
(dp74
g29
V183
p75
sg31
VMarill
p76
sg33
g64
sg35
V15
p77
sg37
(lp78
Vbubble-beam
p79
aVdefense-curl
p80
aVrollout
p81
aVrain-dance
p82
asg43
g44
sg45
Vthick-fat
p83
sbasg47
I00
sg48
g49
sbag1
(g2
g3
Ntp84
Rp85
(dp86
g7
VSpr GS Picnicker.png
p87
sg9
VPicnicker
p88
sg11
VBrooke
p89
sg13
V320
p90
sg15
g16
sg17
g18
sg19
g20
sg21
g22
sg23
(lp91
g1
(g25
g3
Ntp92
Rp93
(dp94
g29
V025
p95
sg31
VPikachu
p96
sg33
g34
sg35
V16
p97
sg37
(lp98
Vagility
p99
aVquick-attack
p100
aVdouble-team
p101
aVlight-screen
p102
asg43
g44
sg45
Vstatic
p103
sbasg47
I00
sg48
g49
sbag1
(g2
g3
Ntp104
Rp105
(dp106
g7
VSpr GS Camper.png
p107
sg9
VCamper
p108
sg11
VIvan
p109
sg13
V280
p110
sg15
V3
p111
sg17
g18
sg19
g20
sg21
g22
sg23
(lp112
g1
(g25
g3
Ntp113
Rp114
(dp115
g29
V050
p116
sg31
VDiglett
p117
sg33
g64
sg35
V10
p118
sg37
(lp119
Vfissure
p120
aVdig
p121
aVslash
p122
aVmagnitude
p123
asg43
g44
sg45
Varena-trap
p124
sbag1
(g25
g3
Ntp125
Rp126
(dp127
g29
V041
p128
sg31
VZubat
p129
sg33
g64
sg35
V10
p130
sg37
(lp131
Vconfuse-ray
p132
aVhaze
p133
aVleech-life
p134
aVmean-look
p135
asg43
g44
sg45
Vinner-focus
p136
sbag1
(g25
g3
Ntp137
Rp138
(dp139
g29
V050
p140
sg31
VDiglett
p141
sg33
g64
sg35
V14
p142
sg37
(lp143
Vfissure
p144
aVdig
p145
aVslash
p146
aVmagnitude
p147
asg43
g44
sg45
Vsand-veil
p148
sbasg47
I00
sg48
g49
sbag1
(g2
g3
Ntp149
Rp150
(dp151
g7
VSpr GS Juggler.png
p152
sg9
VJuggler
p153
sg11
VIrwin
p154
sg13
V560
p155
sg15
V4
p156
sg17
g18
sg19
g20
sg21
g22
sg23
(lp157
g1
(g25
g3
Ntp158
Rp159
(dp160
g29
V100
p161
sg31
VVoltorb
p162
sg33
VU
p163
sg35
g57
sg37
(lp164
Vswift
p165
aVexplosion
p166
aVrollout
p167
aVmirror-coat
p168
asg43
g44
sg45
Vsoundproof
p169
sbag1
(g25
g3
Ntp170
Rp171
(dp172
g29
V100
p173
sg31
VVoltorb
p174
sg33
g163
sg35
V6
p175
sg37
(lp176
Vswift
p177
aVexplosion
p178
aVrollout
p179
aVmirror-coat
p180
asg43
g44
sg45
Vstatic
p181
sbag1
(g25
g3
Ntp182
Rp183
(dp184
g29
V100
p185
sg31
VVoltorb
p186
sg33
g163
sg35
V10
p187
sg37
(lp188
Vswift
p189
aVexplosion
p190
aVrollout
p191
aVmirror-coat
p192
asg43
g44
sg45
Vsoundproof
p193
sbag1
(g25
g3
Ntp194
Rp195
(dp196
g29
V100
p197
sg31
VVoltorb
p198
sg33
g163
sg35
V14
p199
sg37
(lp200
Vswift
p201
aVexplosion
p202
aVrollout
p203
aVmirror-coat
p204
asg43
g44
sg45
Vsoundproof
p205
sbasg47
I00
sg48
g49
sbag1
(g2
g3
Ntp206
Rp207
(dp208
g7
VSpr GS Firebreather.png
p209
sg9
VFirebreather
p210
sg11
VWalt
p211
sg13
V624
p212
sg15
g57
sg17
g18
sg19
g20
sg21
g22
sg23
(lp213
g1
(g25
g3
Ntp214
Rp215
(dp216
g29
V126
p217
sg31
VMagmar
p218
sg33
g64
sg35
V11
p219
sg37
(lp220
Vsmog
p221
ag221
aVfire-blast
p222
aVsunny-day
p223
asg43
g44
sg45
Vflame-body
p224
sbag1
(g25
g3
Ntp225
Rp226
(dp227
g29
V126
p228
sg31
VMagmar
p229
sg33
g64
sg35
V13
p230
sg37
(lp231
Vsmog
p232
ag232
aVfire-blast
p233
aVsunny-day
p234
asg43
g44
sg45
Vflame-body
p235
sbasg47
I00
sg48
g49
sbag1
(g2
g3
Ntp236
Rp237
(dp238
g7
VSpr GS Officer.png
p239
sg9
VOfficer
p240
sg11
VDirk
p241
sg13
V560<br><small>[[Time#Times of day|Night]] only</small>
p242
sg15
g57
sg17
g18
sg19
g20
sg21
g22
sg23
(lp243
g1
(g25
g3
Ntp244
Rp245
(dp246
g29
V058
p247
sg31
VGrowlithe
p248
sg33
g64
sg35
V14
p249
sg37
(lp250
Vember
p251
aVflamethrower
p252
aVagility
p253
aVflame-wheel
p254
asg43
g44
sg45
Vflash-fire
p255
sbag1
(g25
g3
Ntp256
Rp257
(dp258
g29
V058
p259
sg31
VGrowlithe
p260
sg33
g64
sg35
V14
p261
sg37
(lp262
Vember
p263
aVflamethrower
p264
aVagility
p265
aVflame-wheel
p266
asg43
g44
sg45
Vintimidate
p267
sbasg47
I00
sg48
g49
sbag1
(g2
g3
Ntp268
Rp269
(dp270
g7
VSpr GS Bug Catcher.png
p271
sg9
VBug Catcher
p272
sg11
VArnie
p273
sg13
V240
p274
sg15
g16
sg17
g18
sg19
g20
sg21
g22
sg23
(lp275
g1
(g25
g3
Ntp276
Rp277
(dp278
g29
V048
p279
sg31
VVenonat
p280
sg33
g64
sg35
V15
p281
sg37
(lp282
Vconfusion
p283
aVpsychic
p284
aVleech-life
p285
aVforesight
p286
asg43
g44
sg45
Vtinted-lens
p287
sbasg47
I00
sg48
g49
sbag1
(g2
g3
Ntp288
Rp289
(dp290
g7
VSpr GS Bird Keeper.png
p291
sg9
VBird Keeper
p292
sg11
VBryan
p293
sg13
V336
p294
sg15
g57
sg17
g18
sg19
g20
sg21
g22
sg23
(lp295
g1
(g25
g3
Ntp296
Rp297
(dp298
g29
V016
p299
sg31
VPidgey
p300
sg33
g64
sg35
V12
p301
sg37
(lp302
Vtackle
p303
aVagility
p304
aVquick-attack
p305
aVmirror-move
p306
asg43
g44
sg45
Vtangled-feet
p307
sbag1
(g25
g3
Ntp308
Rp309
(dp310
g29
V017
p311
sg31
VPidgeotto
p312
sg33
g64
sg35
V14
p313
sg37
(lp314
Vtackle
p315
aVagility
p316
aVquick-attack
p317
aVmirror-move
p318
asg43
g44
sg45
Vkeen-eye
p319
sbasg47
I00
sg48
g49
sbag1
(g2
g3
Ntp320
Rp321
(dp322
g7
VSpr GS Juggler.png
p323
sg9
VJuggler
p324
sg11
VIrwin{{tt|*|First rematch}}{{sup/2|GS}}
p325
sg13
V720
p326
sg15
g156
sg17
g18
sg19
g20
sg21
g22
sg23
(lp327
g1
(g25
g3
Ntp328
Rp329
(dp330
g29
V100
p331
sg31
VVoltorb
p332
sg33
g163
sg35
g175
sg37
(lp333
Vswift
p334
aVexplosion
p335
aVrollout
p336
aVmirror-coat
p337
asg43
g44
sg45
Vsoundproof
p338
sbag1
(g25
g3
Ntp339
Rp340
(dp341
g29
V100
p342
sg31
VVoltorb
p343
sg33
g163
sg35
V10
p344
sg37
(lp345
Vswift
p346
aVexplosion
p347
aVrollout
p348
aVmirror-coat
p349
asg43
g44
sg45
Vsoundproof
p350
sbag1
(g25
g3
Ntp351
Rp352
(dp353
g29
V100
p354
sg31
VVoltorb
p355
sg33
g163
sg35
V14
p356
sg37
(lp357
Vswift
p358
aVexplosion
p359
aVrollout
p360
aVmirror-coat
p361
asg43
g44
sg45
Vstatic
p362
sbag1
(g25
g3
Ntp363
Rp364
(dp365
g29
V100
p366
sg31
VVoltorb
p367
sg33
g163
sg35
V18
p368
sg37
(lp369
Vswift
p370
aVexplosion
p371
aVrollout
p372
aVmirror-coat
p373
asg43
g44
sg45
Vstatic
p374
sbasg47
I00
sg48
g49
sbag1
(g2
g3
Ntp375
Rp376
(dp377
g7
VSpr GS Juggler.png
p378
sg9
VJuggler
p379
sg11
VIrwin{{tt|*|Second rematch onward}}{{sup/2|GS}}
p380
sg13
V1200
p381
sg15
g156
sg17
g18
sg19
g20
sg21
g22
sg23
(lp382
g1
(g25
g3
Ntp383
Rp384
(dp385
g29
V100
p386
sg31
VVoltorb
p387
sg33
g163
sg35
V18
p388
sg37
(lp389
Vswift
p390
aVexplosion
p391
aVrollout
p392
aVmirror-coat
p393
asg43
g44
sg45
Vstatic
p394
sbag1
(g25
g3
Ntp395
Rp396
(dp397
g29
V100
p398
sg31
VVoltorb
p399
sg33
g163
sg35
V22
p400
sg37
(lp401
Vswift
p402
aVexplosion
p403
aVrollout
p404
aVmirror-coat
p405
asg43
g44
sg45
Vsoundproof
p406
sbag1
(g25
g3
Ntp407
Rp408
(dp409
g29
V100
p410
sg31
VVoltorb
p411
sg33
g163
sg35
V26
p412
sg37
(lp413
Vswift
p414
aVexplosion
p415
aVrollout
p416
aVmirror-coat
p417
asg43
g44
sg45
Vstatic
p418
sbag1
(g25
g3
Ntp419
Rp420
(dp421
g29
V101
p422
sg31
VElectrode
p423
sg33
g163
sg35
V30
p424
sg37
(lp425
Vswift
p426
aVexplosion
p427
aVrollout
p428
aVmirror-coat
p429
asg43
g44
sg45
Vsoundproof
p430
sbasg47
I00
sg48
g49
sbag1
(g2
g3
Ntp431
Rp432
(dp433
g7
VSpr GS Bug Catcher.png
p434
sg9
VBug Catcher
p435
sg11
VArnie{{tt|*|First rematch}}
p436
sg13
V304
p437
sg15
g16
sg17
g18
sg19
g20
sg21
g22
sg23
(lp438
g1
(g25
g3
Ntp439
Rp440
(dp441
g29
V048
p442
sg31
VVenonat
p443
sg33
g64
sg35
V19
p444
sg37
(lp445
Vconfusion
p446
aVpsychic
p447
aVleech-life
p448
aVforesight
p449
asg43
g44
sg45
Vcompound-eyes
p450
sbasg47
I00
sg48
g49
sbag1
(g2
g3
Ntp451
Rp452
(dp453
g7
VSpr GS Bug Catcher.png
p454
sg9
VBug Catcher
p455
sg11
VArnie
p456
sg13
g1
(cmwparserfromhell.wikicode
Wikicode
p457
g3
Ntp458
Rp459
(dp460
V_nodes
p461
g1
(cmwparserfromhell.smart_list.smart_list
SmartList
p462
c__builtin__
list
p463
(lp464
g1
(cmwparserfromhell.nodes.text
Text
p465
g3
Ntp466
Rp467
(dp468
V_value
p469
V448
p470
sbatp471
Rp472
(dp473
V_children
p474
(dp475
sbsbsg15
g16
sg17
g18
sg19
g20
sg21
g22
sg23
(lp476
g1
(g25
g3
Ntp477
Rp478
(dp479
g29
V049
p480
sg31
VVenomoth
p481
sg33
g64
sg35
V28
p482
sg37
(lp483
Vconfusion
p484
aVpsychic
p485
aVleech-life
p486
aVforesight
p487
asg43
g44
sg45
Vtinted-lens
p488
sbasg47
I00
sg48
g49
sbag1
(g2
g3
Ntp489
Rp490
(dp491
g7
VSpr DP Picnicker.png
p492
sg9
VPicnicker
p493
sg11
VKim
p494
sg13
V240
p495
sg15
g16
sg17
g18
sg19
g20
sg21
VDP
p496
sg23
(lp497
g1
(g25
g3
Ntp498
Rp499
(dp500
g29
V037
p501
sg31
VVulpix
p502
sg33
g34
sg35
V15
p503
sg37
(lp504
Vgrudge
p505
aVextrasensory
p506
aVpayback
p507
aVcaptivate
p508
asg43
g44
sg45
Vflash-fire
p509
sbasg47
I00
sg48
Vdiamond-pearl
p510
sbag1
(g2
g3
Ntp511
Rp512
(dp513
g7
VSpr DP Camper.png
p514
sg9
VCamper
p515
sg11
VElliot
p516
sg13
V240
p517
sg15
g57
sg17
g18
sg19
g20
sg21
g496
sg23
(lp518
g1
(g25
g3
Ntp519
Rp520
(dp521
g29
V027
p522
sg31
VSandshrew
p523
sg33
g64
sg35
V13
p524
sg37
(lp525
Vfury-cutter
p526
aVrapid-spin
p527
aVsand-tomb
p528
aVgyro-ball
p529
asg43
g44
sg45
Vsand-veil
p530
sbag1
(g25
g3
Ntp531
Rp532
(dp533
g29
V183
p534
sg31
VMarill
p535
sg33
g64
sg35
V15
p536
sg37
(lp537
Vrollout
p538
aVrain-dance
p539
aVaqua-ring
p540
aVaqua-tail
p541
asg43
g44
sg45
Vhuge-power
p542
sbasg47
I00
sg48
g510
sbag1
(g2
g3
Ntp543
Rp544
(dp545
g7
VSpr DP Picnicker.png
p546
sg9
VPicnicker
p547
sg11
VBrooke
p548
sg13
V256
p549
sg15
g16
sg17
g18
sg19
g20
sg21
g496
sg23
(lp550
g1
(g25
g3
Ntp551
Rp552
(dp553
g29
V025
p554
sg31
VPikachu
p555
sg33
g34
sg35
V16
p556
sg37
(lp557
Vdouble-team
p558
aVlight-screen
p559
aVfeint
p560
aVdischarge
p561
asg43
g44
sg45
Vstatic
p562
sbasg47
I00
sg48
g510
sbag1
(g2
g3
Ntp563
Rp564
(dp565
g7
VSpr DP Camper.png
p566
sg9
VCamper
p567
sg11
VIvan
p568
sg13
V224
p569
sg15
g111
sg17
g18
sg19
g20
sg21
g496
sg23
(lp570
g1
(g25
g3
Ntp571
Rp572
(dp573
g29
V050
p574
sg31
VDiglett
p575
sg33
g64
sg35
V10
p576
sg37
(lp577
Vastonish
p578
aVsucker-punch
p579
aVearth-power
p580
aVmud-bomb
p581
asg43
g44
sg45
Varena-trap
p582
sbag1
(g25
g3
Ntp583
Rp584
(dp585
g29
V050
p586
sg31
VDiglett
p587
sg33
g64
sg35
V14
p588
sg37
(lp589
Vastonish
p590
aVsucker-punch
p591
aVearth-power
p592
aVmud-bomb
p593
asg43
g44
sg45
Varena-trap
p594
sbag1
(g25
g3
Ntp595
Rp596
(dp597
g29
V041
p598
sg31
VZubat
p599
sg33
g64
sg35
V10
p600
sg37
(lp601
Vpoison-fang
p602
aVastonish
p603
aVair-cutter
p604
aVair-slash
p605
asg43
g44
sg45
Vinner-focus
p606
sbasg47
I00
sg48
g510
sbag1
(g2
g3
Ntp607
Rp608
(dp609
g7
VSpr HGSS Juggler.png
p610
sg9
VJuggler
p611
sg11
VIrwin
p612
sg13
V448
p613
sg15
g156
sg17
g18
sg19
g20
sg21
VHGSS
p614
sg23
(lp615
g1
(g25
g3
Ntp616
Rp617
(dp618
g29
V100
p619
sg31
VVoltorb
p620
sg33
g163
sg35
g57
sg37
(lp621
Vcharge
p622
aVgyro-ball
p623
aVmagnet-rise
p624
aVcharge-beam
p625
asg43
g44
sg45
Vsoundproof
p626
sbag1
(g25
g3
Ntp627
Rp628
(dp629
g29
V100
p630
sg31
VVoltorb
p631
sg33
g163
sg35
g175
sg37
(lp632
Vcharge
p633
aVgyro-ball
p634
aVmagnet-rise
p635
aVcharge-beam
p636
asg43
g44
sg45
Vstatic
p637
sbag1
(g25
g3
Ntp638
Rp639
(dp640
g29
V100
p641
sg31
VVoltorb
p642
sg33
g163
sg35
V10
p643
sg37
(lp644
Vcharge
p645
aVgyro-ball
p646
aVmagnet-rise
p647
aVcharge-beam
p648
asg43
g44
sg45
Vstatic
p649
sbag1
(g25
g3
Ntp650
Rp651
(dp652
g29
V100
p653
sg31
VVoltorb
p654
sg33
g163
sg35
V14
p655
sg37
(lp656
Vcharge
p657
aVgyro-ball
p658
aVmagnet-rise
p659
aVcharge-beam
p660
asg43
g44
sg45
Vsoundproof
p661
sbasg47
I00
sg48
Vheartgold-soulsilver
p662
sbag1
(g2
g3
Ntp663
Rp664
(dp665
g7
VSpr HGSS Firebreather.png
p666
sg9
VFirebreather
p667
sg11
VWalt
p668
sg13
V512
p669
sg15
g57
sg17
g18
sg19
g20
sg21
g614
sg23
(lp670
g1
(g25
g3
Ntp671
Rp672
(dp673
g29
V126
p674
sg31
VMagmar
p675
sg33
g64
sg35
V11
p676
sg37
(lp677
Vfire-blast
p678
aVfeint-attack
p679
aVsunny-day
p680
aVlava-plume
p681
asg43
g44
sg45
Vflame-body
p682
sbag1
(g25
g3
Ntp683
Rp684
(dp685
g29
V126
p686
sg31
VMagmar
p687
sg33
g64
sg35
V16
p688
sg37
(lp689
Vfire-blast
p690
aVfeint-attack
p691
aVsunny-day
p692
aVlava-plume
p693
asg43
g44
sg45
Vflame-body
p694
sbasg47
I00
sg48
g662
sbag1
(g2
g3
Ntp695
Rp696
(dp697
g7
VSpr DP Officer.png
p698
sg9
VPoliceman
p699
sg11
VDirk
p700
sg13
V560<br><small>[[Time#Times of day|Night]] only</small>
p701
sg15
g57
sg17
g18
sg19
g20
sg21
g496
sg23
(lp702
g1
(g25
g3
Ntp703
Rp704
(dp705
g29
V058
p706
sg31
VGrowlithe
p707
sg33
g64
sg35
V14
p708
sg37
(lp709
Vhelping-hand
p710
aVodor-sleuth
p711
aVflare-blitz
p712
aVfire-fang
p713
asg43
g44
sg45
Vflash-fire
p714
sbag1
(g25
g3
Ntp715
Rp716
(dp717
g29
V058
p718
sg31
VGrowlithe
p719
sg33
g64
sg35
V14
p720
sg37
(lp721
Vhelping-hand
p722
aVodor-sleuth
p723
aVflare-blitz
p724
aVfire-fang
p725
asg43
g44
sg45
Vflash-fire
p726
sbasg47
I00
sg48
g510
sbag1
(g2
g3
Ntp727
Rp728
(dp729
g7
VSpr HGSS Bug Catcher.png
p730
sg9
VBug Catcher
p731
sg11
VArnie
p732
sg13
V240
p733
sg15
g16
sg17
g18
sg19
g20
sg21
g614
sg23
(lp734
g1
(g25
g3
Ntp735
Rp736
(dp737
g29
V048
p738
sg31
VVenonat
p739
sg33
g64
sg35
V15
p740
sg37
(lp741
Vforesight
p742
aVpoison-fang
p743
aVsignal-beam
p744
aVzen-headbutt
p745
asg43
g44
sg45
Vtinted-lens
p746
sbasg47
I00
sg48
g662
sbag1
(g2
g3
Ntp747
Rp748
(dp749
g7
VSpr HGSS Bird Keeper.png
p750
sg9
VBird Keeper
p751
sg11
VBryan
p752
sg13
V448
p753
sg15
g57
sg17
g18
sg19
g20
sg21
g614
sg23
(lp754
g1
(g25
g3
Ntp755
Rp756
(dp757
g29
V016
p758
sg31
VPidgey
p759
sg33
g64
sg35
V12
p760
sg37
(lp761
Vfeather-dance
p762
aVroost
p763
aVtailwind
p764
aVair-slash
p765
asg43
g44
sg45
Vtangled-feet
p766
sbag1
(g25
g3
Ntp767
Rp768
(dp769
g29
V017
p770
sg31
VPidgeotto
p771
sg33
g64
sg35
V14
p772
sg37
(lp773
Vfeather-dance
p774
aVroost
p775
aVtailwind
p776
aVair-slash
p777
asg43
g44
sg45
Vtangled-feet
p778
sbasg47
I00
sg48
g662
sbag1
(g2
g3
Ntp779
Rp780
(dp781
g7
VSpr HGSS Juggler.png
p782
sg9
VJuggler
p783
sg11
VIrwin{{tt|*|First rematch}}
p784
sg13
V1088
p785
sg15
g156
sg17
g18
sg19
g20
sg21
g614
sg23
(lp786
g1
(g25
g3
Ntp787
Rp788
(dp789
g29
V100
p790
sg31
VVoltorb
p791
sg33
g163
sg35
V22
p792
sg37
(lp793
Vcharge
p794
aVgyro-ball
p795
aVmagnet-rise
p796
aVcharge-beam
p797
asg43
g44
sg45
Vstatic
p798
sbag1
(g25
g3
Ntp799
Rp800
(dp801
g29
V100
p802
sg31
VVoltorb
p803
sg33
g163
sg35
V26
p804
sg37
(lp805
Vcharge
p806
aVgyro-ball
p807
aVmagnet-rise
p808
aVcharge-beam
p809
asg43
g44
sg45
Vstatic
p810
sbag1
(g25
g3
Ntp811
Rp812
(dp813
g29
V100
p814
sg31
VVoltorb
p815
sg33
g163
sg35
V28
p816
sg37
(lp817
Vcharge
p818
aVgyro-ball
p819
aVmagnet-rise
p820
aVcharge-beam
p821
asg43
g44
sg45
Vstatic
p822
sbag1
(g25
g3
Ntp823
Rp824
(dp825
g29
V100
p826
sg31
VVoltorb
p827
sg33
g163
sg35
V34
p828
sg37
(lp829
Vcharge
p830
aVgyro-ball
p831
aVmagnet-rise
p832
aVcharge-beam
p833
asg43
g44
sg45
Vsoundproof
p834
sbasg47
I00
sg48
g662
sbag1
(g2
g3
Ntp835
Rp836
(dp837
g7
VSpr HGSS Juggler.png
p838
sg9
VJuggler
p839
sg11
VIrwin{{tt|*|Second rematch}}
p840
sg13
V1344
p841
sg15
g156
sg17
g18
sg19
g20
sg21
g614
sg23
(lp842
g1
(g25
g3
Ntp843
Rp844
(dp845
g29
V100
p846
sg31
VVoltorb
p847
sg33
g163
sg35
V34
p848
sg37
(lp849
Vcharge
p850
aVgyro-ball
p851
aVmagnet-rise
p852
aVcharge-beam
p853
asg43
g44
sg45
Vsoundproof
p854
sbag1
(g25
g3
Ntp855
Rp856
(dp857
g29
V100
p858
sg31
VVoltorb
p859
sg33
g163
sg35
V36
p860
sg37
(lp861
Vcharge
p862
aVgyro-ball
p863
aVmagnet-rise
p864
aVcharge-beam
p865
asg43
g44
sg45
Vsoundproof
p866
sbag1
(g25
g3
Ntp867
Rp868
(dp869
g29
V100
p870
sg31
VVoltorb
p871
sg33
g163
sg35
V38
p872
sg37
(lp873
Vcharge
p874
aVgyro-ball
p875
aVmagnet-rise
p876
aVcharge-beam
p877
asg43
g44
sg45
Vsoundproof
p878
sbag1
(g25
g3
Ntp879
Rp880
(dp881
g29
V101
p882
sg31
VElectrode
p883
sg33
g163
sg35
V42
p884
sg37
(lp885
Vcharge
p886
aVgyro-ball
p887
aVmagnet-rise
p888
aVcharge-beam
p889
asg43
g44
sg45
Vstatic
p890
sbasg47
I00
sg48
g662
sbag1
(g2
g3
Ntp891
Rp892
(dp893
g7
VSpr HGSS Juggler.png
p894
sg9
VJuggler
p895
sg11
VIrwin{{tt|*|Third rematch onwards}}
p896
sg13
V1632
p897
sg15
g156
sg17
g18
sg19
g20
sg21
g614
sg23
(lp898
g1
(g25
g3
Ntp899
Rp900
(dp901
g29
V100
p902
sg31
VVoltorb
p903
sg33
g163
sg35
V40
p904
sg37
(lp905
Vcharge
p906
aVgyro-ball
p907
aVmagnet-rise
p908
aVcharge-beam
p909
asg43
g44
sg45
Vsoundproof
p910
sbag1
(g25
g3
Ntp911
Rp912
(dp913
g29
V100
p914
sg31
VVoltorb
p915
sg33
g163
sg35
V40
p916
sg37
(lp917
Vcharge
p918
aVgyro-ball
p919
aVmagnet-rise
p920
aVcharge-beam
p921
asg43
g44
sg45
Vsoundproof
p922
sbag1
(g25
g3
Ntp923
Rp924
(dp925
g29
V101
p926
sg31
VElectrode
p927
sg33
g163
sg35
V46
p928
sg37
(lp929
Vcharge
p930
aVgyro-ball
p931
aVmagnet-rise
p932
aVcharge-beam
p933
asg43
g44
sg45
Vsoundproof
p934
sbag1
(g25
g3
Ntp935
Rp936
(dp937
g29
V101
p938
sg31
VElectrode
p939
sg33
g163
sg35
V51
p940
sg37
(lp941
Vcharge
p942
aVgyro-ball
p943
aVmagnet-rise
p944
aVcharge-beam
p945
asg43
g44
sg45
Vsoundproof
p946
sbasg47
I00
sg48
g662
sbag1
(g2
g3
Ntp947
Rp948
(dp949
g7
VSpr HGSS Bug Catcher.png
p950
sg9
VBug Catcher
p951
sg11
VArnie{{tt|*|First rematch}}
p952
sg13
V576
p953
sg15
g16
sg17
g18
sg19
g20
sg21
g614
sg23
(lp954
g1
(g25
g3
Ntp955
Rp956
(dp957
g29
V048
p958
sg31
VVenonat
p959
sg33
g64
sg35
V36
p960
sg37
(lp961
Vforesight
p962
aVpoison-fang
p963
aVsignal-beam
p964
aVzen-headbutt
p965
asg43
g44
sg45
Vcompound-eyes
p966
sbasg47
I00
sg48
g662
sbag1
(g2
g3
Ntp967
Rp968
(dp969
g7
VSpr HGSS Bug Catcher.png
p970
sg9
VBug Catcher
p971
sg11
VArnie{{tt|*|Second rematch}}
p972
sg13
V688
p973
sg15
g16
sg17
g18
sg19
g20
sg21
g614
sg23
(lp974
g1
(g25
g3
Ntp975
Rp976
(dp977
g29
V049
p978
sg31
VVenomoth
p979
sg33
g64
sg35
V43
p980
sg37
(lp981
Vsilver-wind
p982
aVsignal-beam
p983
aVbug-buzz
p984
aVzen-headbutt
p985
asg43
g44
sg45
Vtinted-lens
p986
sbasg47
I00
sg48
g662
sbag1
(g2
g3
Ntp987
Rp988
(dp989
g7
VSpr HGSS Bug Catcher.png
p990
sg9
VBug Catcher
p991
sg11
VArnie{{tt|*|Third rematch onwards}}
p992
sg13
V896
p993
sg15
g57
sg17
g18
sg19
g20
sg21
g614
sg23
(lp994
g1
(g25
g3
Ntp995
Rp996
(dp997
g29
V290
p998
sg31
VNincada
p999
sg33
g64
sg35
V45
p1000
sg37
(lp1001
Vmind-reader
p1002
aVmud-slap
p1003
aVfalse-swipe
p1004
aVmetal-claw
p1005
asg43
g44
sg45
Vcompound-eyes
p1006
sbag1
(g25
g3
Ntp1007
Rp1008
(dp1009
g29
V049
p1010
sg31
VVenomoth
p1011
sg33
g64
sg35
V56
p1012
sg37
(lp1013
Vsilver-wind
p1014
aVsignal-beam
p1015
aVbug-buzz
p1016
aVzen-headbutt
p1017
asg43
g44
sg45
Vtinted-lens
p1018
sbasg47
I00
sg48
g662
sbag1
(g2
g3
Ntp1019
Rp1020
(dp1021
g7
VSpr HGSS Firebreather.png
p1022
sg9
VFirebreather
p1023
sg11
VWalt
p1024
sg13
g1
(g457
g3
Ntp1025
Rp1026
(dp1027
g461
g1
(g462
g463
(lp1028
g1
(g465
g3
Ntp1029
Rp1030
(dp1031
g469
V1024
p1032
sbatp1033
Rp1034
(dp1035
g474
(dp1036
sbsbsg15
g57
sg17
g18
sg19
g20
sg21
g614
sg23
(lp1037
g1
(g25
g3
Ntp1038
Rp1039
(dp1040
g29
V126
p1041
sg31
VMagmar
p1042
sg33
g64
sg35
V25
p1043
sg37
(lp1044
Vfire-blast
p1045
aVfeint-attack
p1046
aVsunny-day
p1047
aVlava-plume
p1048
asg43
g44
sg45
Vflame-body
p1049
sbag1
(g25
g3
Ntp1050
Rp1051
(dp1052
g29
V126
p1053
sg31
VMagmar
p1054
sg33
g64
sg35
V32
p1055
sg37
(lp1056
Vfire-blast
p1057
aVfeint-attack
p1058
aVsunny-day
p1059
aVlava-plume
p1060
asg43
g44
sg45
Vflame-body
p1061
sbasg47
I00
sg48
g662
sbag1
(g2
g3
Ntp1062
Rp1063
(dp1064
g7
VSpr HGSS Firebreather.png
p1065
sg9
VFirebreather
p1066
sg11
VWalt{{tt|*|Third rematch onwards}}
p1067
sg13
V1856
p1068
sg15
g111
sg17
g18
sg19
g20
sg21
g614
sg23
(lp1069
g1
(g25
g3
Ntp1070
Rp1071
(dp1072
g29
V240
p1073
sg31
VMagby
p1074
sg33
g64
sg35
V26
p1075
sg37
(lp1076
Vfire-blast
p1077
aVfeint-attack
p1078
aVsunny-day
p1079
aVlava-plume
p1080
asg43
g44
sg45
Vflame-body
p1081
sbag1
(g25
g3
Ntp1082
Rp1083
(dp1084
g29
V126
p1085
sg31
VMagmar
p1086
sg33
g64
sg35
V49
p1087
sg37
(lp1088
Vfire-blast
p1089
aVfeint-attack
p1090
aVsunny-day
p1091
aVlava-plume
p1092
asg43
g44
sg45
Vflame-body
p1093
sbag1
(g25
g3
Ntp1094
Rp1095
(dp1096
g29
V467
p1097
sg31
VMagmortar
p1098
sg33
g64
sg35
V58
p1099
sg37
(lp1100
Vfire-blast
p1101
aVfeint-attack
p1102
aVsunny-day
p1103
aVlava-plume
p1104
asg43
g44
sg45
Vflame-body
p1105
sbasg47
I00
sg48
g662
sba.