(lp0
ccopy_reg
_reconstructor
p1
(c__main__
Trainer
p2
c__builtin__
object
p3
Ntp4
Rp5
(dp6
VtSprite
p7
VSpr DP Galactic Grunt M.png
p8
sVtClass
p9
VGalactic Grunt
p10
sVtName
p11
V
p12
sVtMoney
p13
V360<br><sup>[[Double Battle]] with the following Grunt</sup>
p14
sVtPokeCount
p15
V1
p16
sVtLocation
p17
Vwiki/Jubilife_City
p18
sVtRegion
p19
VSinnoh
p20
sVtGame
p21
VDP
p22
sVtPokes
p23
(lp24
g1
(c__main__
FinishedPokemon
p25
g3
Ntp26
Rp27
(dp28
VpDexNo
p29
V041
p30
sVpSpecies
p31
VZubat
p32
sVpGender
p33
VM
p34
sVpLevel
p35
V9
p36
sVpMoves
p37
(lp38
Vpoison-fang
p39
aVastonish
p40
aVair-cutter
p41
aVair-slash
p42
asVpHold
p43
g12
sVpAbility
p44
Vinner-focus
p45
sbasVbossFlag
p46
I00
sVtLongGame
p47
Vdiamond-pearl
p48
sbag1
(g2
g3
Ntp49
Rp50
(dp51
g7
VSpr DP Galactic Grunt M.png
p52
sg9
VGalactic Grunt
p53
sg11
g12
sg13
V360<br><sup>[[Double Battle]] with the previous Grunt</sup>
p54
sg15
g16
sg17
g18
sg19
g20
sg21
g22
sg23
(lp55
g1
(g25
g3
Ntp56
Rp57
(dp58
g29
V265
p59
sg31
VWurmple
p60
sg33
g34
sg35
g36
sg37
(lp61
Vtackle
p62
aVpoison-sting
p63
aVstring-shot
p64
asg43
g12
sg44
Vshield-dust
p65
sbasg46
I00
sg47
g48
sbag1
(g2
g3
Ntp66
Rp67
(dp68
g7
VSpr DP Galactic Grunt M.png
p69
sg9
VGalactic Grunt
p70
sg11
g12
sg13
V440<br><sup>[[Double Battle]] with the following Grunt</sup>
p71
sg15
g16
sg17
g18
sg19
g20
sg21
g22
sg23
(lp72
g1
(g25
g3
Ntp73
Rp74
(dp75
g29
V434
p76
sg31
VStunky
p77
sg33
g34
sg35
V11
p78
sg37
(lp79
Vfury-swipes
p80
aVslash
p81
aVmemento
p82
aVnight-slash
p83
asg43
g12
sg44
Vstench
p84
sbasg46
I00
sg47
g48
sbag1
(g2
g3
Ntp85
Rp86
(dp87
g7
VSpr DP Galactic Grunt M.png
p88
sg9
VGalactic Grunt
p89
sg11
g12
sg13
V440<br><sup>[[Double Battle]] with the previous Grunt</sup>
p90
sg15
g16
sg17
g18
sg19
g20
sg21
g22
sg23
(lp91
g1
(g25
g3
Ntp92
Rp93
(dp94
g29
V431
p95
sg31
VGlameow
p96
sg33
VF
p97
sg35
V11
p98
sg37
(lp99
Vfake-out
p100
aVassist
p101
aVsucker-punch
p102
aVcaptivate
p103
asg43
g12
sg44
Vlimber
p104
sbasg46
I00
sg47
g48
sbag1
(g2
g3
Ntp105
Rp106
(dp107
g7
VSpr DP Reporter.png
p108
sg9
VReporter
p109
sg11
VKinsey{{tt|*|Initial battle}}
p110
sg13
V880
p111
sg15
V2
p112
sg17
g18
sg19
g20
sg21
g22
sg23
(lp113
g1
(g25
g3
Ntp114
Rp115
(dp116
g29
V403
p117
sg31
VShinx
p118
sg33
g97
sg35
V22
p119
sg37
(lp120
Vcrunch
p121
aVcharge
p122
aVthunder-fang
p123
aVdischarge
p124
asg43
g12
sg44
Vrivalry
p125
sbag1
(g25
g3
Ntp126
Rp127
(dp128
g29
V425
p129
sg31
VDrifloon
p130
sg33
g97
sg35
V22
p131
sg37
(lp132
Vswallow
p133
aVastonish
p134
aVpayback
p135
aVominous-wind
p136
asg43
g12
sg44
Vunburden
p137
sbasg46
I00
sg47
g48
sbag1
(g2
g3
Ntp138
Rp139
(dp140
g7
VSpr DP Reporter.png
p141
sg9
VReporter
p142
sg11
VKinsey{{tt|*|First rematch}}
p143
sg13
V1320
p144
sg15
g112
sg17
g18
sg19
g20
sg21
g22
sg23
(lp145
g1
(g25
g3
Ntp146
Rp147
(dp148
g29
V404
p149
sg31
VLuxio
p150
sg33
g97
sg35
V33
p151
sg37
(lp152
Vcrunch
p153
aVcharge
p154
aVthunder-fang
p155
aVdischarge
p156
asg43
g12
sg44
Vrivalry
p157
sbag1
(g25
g3
Ntp158
Rp159
(dp160
g29
V425
p161
sg31
VDrifloon
p162
sg33
g97
sg35
V33
p163
sg37
(lp164
Vswallow
p165
aVastonish
p166
aVpayback
p167
aVominous-wind
p168
asg43
g12
sg44
Vaftermath
p169
sbasg46
I00
sg47
g48
sbag1
(g2
g3
Ntp170
Rp171
(dp172
g7
VSpr DP Reporter.png
p173
sg9
VReporter
p174
sg11
VKinsey{{tt||Second rematch}}
p175
sg13
g1
(cmwparserfromhell.wikicode
Wikicode
p176
g3
Ntp177
Rp178
(dp179
V_nodes
p180
g1
(cmwparserfromhell.smart_list.smart_list
SmartList
p181
c__builtin__
list
p182
(lp183
g1
(cmwparserfromhell.nodes.text
Text
p184
g3
Ntp185
Rp186
(dp187
V_value
p188
V1800
p189
sbatp190
Rp191
(dp192
V_children
p193
(dp194
sbsbsg15
g112
sg17
g18
sg19
g20
sg21
g22
sg23
(lp195
g1
(g25
g3
Ntp196
Rp197
(dp198
g29
V405
p199
sg31
VLuxray
p200
sg33
g97
sg35
V45
p201
sg37
(lp202
Vcharge
p203
ag203
aVthunder-fang
p204
aVdischarge
p205
asg43
g12
sg44
Vintimidate
p206
sbag1
(g25
g3
Ntp207
Rp208
(dp209
g29
V426
p210
sg31
VDrifblim
p211
sg33
g97
sg35
V45
p212
sg37
(lp213
Vastonish
p214
ag214
aVpayback
p215
aVominous-wind
p216
asg43
g12
sg44
Vaftermath
p217
sbasg46
I00
sg47
g48
sbag1
(g2
g3
Ntp218
Rp219
(dp220
g7
VSpr DP Cameraman.png
p221
sg9
VCameraman
p222
sg11
VTevin{{tt|*|Initial battle}}
p223
sg13
V640
p224
sg15
g112
sg17
g18
sg19
g20
sg21
g22
sg23
(lp225
g1
(g25
g3
Ntp226
Rp227
(dp228
g29
V066
p229
sg31
VMachop
p230
sg33
g34
sg35
V20
p231
sg37
(lp232
Vvital-throw
p233
aVcross-chop
p234
aVrevenge
p235
aVwake-up-slap
p236
asg43
g12
sg44
Vguts
p237
sbasg46
I00
sg47
g48
sbag1
(g2
g3
Ntp238
Rp239
(dp240
g7
VSpr DP Cameraman.png
p241
sg9
VCameraman
p242
sg11
VTevin{{tt|*|First rematch}}
p243
sg13
V1088
p244
sg15
V3
p245
sg17
g18
sg19
g20
sg21
g22
sg23
(lp246
g1
(g25
g3
Ntp247
Rp248
(dp249
g29
V067
p250
sg31
VMachoke
p251
sg33
g34
sg35
V34
p252
sg37
(lp253
Vvital-throw
p254
aVcross-chop
p255
aVrevenge
p256
aVwake-up-slap
p257
asg43
g12
sg44
Vguts
p258
sbag1
(g25
g3
Ntp259
Rp260
(dp261
g29
V122
p262
sg31
VMr. Mime
p263
sg33
g34
sg35
V32
p264
sg37
(lp265
Vmagical-leaf
p266
aVcopycat
p267
aVpower-swap
p268
aVguard-swap
p269
asg43
g12
sg44
Vsoundproof
p270
sbag1
(g25
g3
Ntp271
Rp272
(dp273
g29
V081
p274
sg31
VMagnemite
p275
sg33
VU
p276
sg35
V30
p277
sg37
(lp278
Vmagnet-rise
p279
aVmirror-shot
p280
aVdischarge
p281
aVmagnet-bomb
p282
asg43
g12
sg44
Vsturdy
p283
sbasg46
I00
sg47
g48
sbag1
(g2
g3
Ntp284
Rp285
(dp286
g7
VSpr DP Cameraman.png
p287
sg9
VCameraman
p288
sg11
VTevin{{tt|*|Second rematch}}
p289
sg13
V1440
p290
sg15
V4
p291
sg17
g18
sg19
g20
sg21
g22
sg23
(lp292
g1
(g25
g3
Ntp293
Rp294
(dp295
g29
V067
p296
sg31
VMachoke
p297
sg33
g34
sg35
V45
p298
sg37
(lp299
Vvital-throw
p300
aVcross-chop
p301
aVrevenge
p302
aVwake-up-slap
p303
asg43
g12
sg44
Vno-guard
p304
sbag1
(g25
g3
Ntp305
Rp306
(dp307
g29
V122
p308
sg31
VMr. Mime
p309
sg33
g34
sg35
V43
p310
sg37
(lp311
Vmagical-leaf
p312
aVcopycat
p313
aVpower-swap
p314
aVguard-swap
p315
asg43
g12
sg44
Vfilter
p316
sbag1
(g25
g3
Ntp317
Rp318
(dp319
g29
V082
p320
sg31
VMagneton
p321
sg33
g276
sg35
V42
p322
sg37
(lp323
Vmagnet-rise
p324
aVmirror-shot
p325
aVdischarge
p326
aVmagnet-bomb
p327
asg43
g12
sg44
Vmagnet-pull
p328
sbag1
(g25
g3
Ntp329
Rp330
(dp331
g29
V081
p332
sg31
VMagnemite
p333
sg33
g276
sg35
V43
p334
sg37
(lp335
Vmagnet-rise
p336
aVmirror-shot
p337
aVdischarge
p338
aVmagnet-bomb
p339
asg43
g12
sg44
Vsturdy
p340
sbasg46
I00
sg47
g48
sbag1
(g2
g3
Ntp341
Rp342
(dp343
g7
VSpr DP Cameraman.png
p344
sg9
VCameraman
p345
sg11
VTevin
p346
sg13
g1
(g176
g3
Ntp347
Rp348
(dp349
g180
g1
(g181
g182
(lp350
g1
(g184
g3
Ntp351
Rp352
(dp353
g188
V1632
p354
sbatp355
Rp356
(dp357
g193
(dp358
sbsbsg15
g291
sg17
g18
sg19
g20
sg21
g22
sg23
(lp359
g1
(g25
g3
Ntp360
Rp361
(dp362
g29
V068
p363
sg31
VMachamp
p364
sg33
g34
sg35
V51
p365
sg37
(lp366
Vvital-throw
p367
aVcross-chop
p368
aVrevenge
p369
aVwake-up-slap
p370
asg43
g12
sg44
Vguts
p371
sbag1
(g25
g3
Ntp372
Rp373
(dp374
g29
V122
p375
sg31
VMr. Mime
p376
sg33
g34
sg35
V49
p377
sg37
(lp378
Vmagical-leaf
p379
aVcopycat
p380
aVpower-swap
p381
aVguard-swap
p382
asg43
g12
sg44
Vsoundproof
p383
sbag1
(g25
g3
Ntp384
Rp385
(dp386
g29
V082
p387
sg31
VMagneton
p388
sg33
g276
sg35
V48
p389
sg37
(lp390
Vmagnet-rise
p391
aVmirror-shot
p392
aVdischarge
p393
aVmagnet-bomb
p394
asg43
g12
sg44
Vsturdy
p395
sbag1
(g25
g3
Ntp396
Rp397
(dp398
g29
V082
p399
sg31
VMagneton
p400
sg33
g276
sg35
V48
p401
sg37
(lp402
Vmagnet-rise
p403
aVmirror-shot
p404
aVdischarge
p405
aVmagnet-bomb
p406
asg43
g12
sg44
Vsturdy
p407
sbasg46
I00
sg47
g48
sbag1
(g2
g3
Ntp408
Rp409
(dp410
g7
VDP Lucas Back.png
p411
sg9
VPokemon Trainer
p412
sg11
VLucas (game)
p413
sg13
Vn/a
p414
sg15
I1
sg17
g18
sg19
g20
sg21
VSM
p415
sg23
(lp416
g1
(g25
g3
Ntp417
Rp418
(dp419
g29
I393
sg31
VPiplup
p420
sg33
g276
sg35
V13
p421
sg37
(lp422
VBubble
p423
aVPound
p424
asg43
g12
sg44
VTorrent
p425
sbasg46
I01
sg47
Vsun-moon
p426
sbag1
(g2
g3
Ntp427
Rp428
(dp429
g7
VDP Dawn Back.png
p430
sg9
VPokemon Trainer
p431
sg11
VDawn (game)
p432
sg13
Vn/a
p433
sg15
I1
sg17
g18
sg19
g20
sg21
VSM
p434
sg23
(lp435
g1
(g25
g3
Ntp436
Rp437
(dp438
g29
I393
sg31
VPiplup
p439
sg33
g276
sg35
V13
p440
sg37
(lp441
VBubble
p442
aVPound
p443
asg43
g12
sg44
VTorrent
p444
sbasg46
I01
sg47
g426
sbag1
(g2
g3
Ntp445
Rp446
(dp447
g7
VDP Lucas Back.png
p448
sg9
VPokemon Trainer
p449
sg11
VLucas (game)
p450
sg13
Vn/a
p451
sg15
I1
sg17
g18
sg19
g20
sg21
g415
sg23
(lp452
g1
(g25
g3
Ntp453
Rp454
(dp455
g29
I387
sg31
VTurtwig
p456
sg33
g276
sg35
V13
p457
sg37
(lp458
VAbsorb
p459
aVTackle
p460
asg43
g12
sg44
VOvergrow
p461
sbasg46
I01
sg47
g426
sbag1
(g2
g3
Ntp462
Rp463
(dp464
g7
VDP Dawn Back.png
p465
sg9
VPokemon Trainer
p466
sg11
VDawn (game)
p467
sg13
Vn/a
p468
sg15
I1
sg17
g18
sg19
g20
sg21
g434
sg23
(lp469
g1
(g25
g3
Ntp470
Rp471
(dp472
g29
I387
sg31
VTurtwig
p473
sg33
g276
sg35
V13
p474
sg37
(lp475
VAbsorb
p476
aVTackle
p477
asg43
g12
sg44
VOvergrow
p478
sbasg46
I01
sg47
g426
sbag1
(g2
g3
Ntp479
Rp480
(dp481
g7
VDP Lucas Back.png
p482
sg9
VPokemon Trainer
p483
sg11
VLucas (game)
p484
sg13
Vn/a
p485
sg15
I1
sg17
g18
sg19
g20
sg21
g415
sg23
(lp486
g1
(g25
g3
Ntp487
Rp488
(dp489
g29
I390
sg31
VChimchar
p490
sg33
g276
sg35
V13
p491
sg37
(lp492
VEmber
p493
aVScratch
p494
asg43
g12
sg44
VBlaze
p495
sbasg46
I01
sg47
g426
sbag1
(g2
g3
Ntp496
Rp497
(dp498
g7
VDP Dawn Back.png
p499
sg9
VPokemon Trainer
p500
sg11
VDawn (game)
p501
sg13
Vn/a
p502
sg15
I1
sg17
g18
sg19
g20
sg21
g434
sg23
(lp503
g1
(g25
g3
Ntp504
Rp505
(dp506
g29
I390
sg31
VChimchar
p507
sg33
g276
sg35
V13
p508
sg37
(lp509
VEmber
p510
aVScratch
p511
asg43
g12
sg44
VBlaze
p512
sbasg46
I01
sg47
g426
sbag1
(g2
g3
Ntp513
Rp514
(dp515
g7
VPt Lucas Back.png
p516
sg9
VPokemon Trainer
p517
sg11
VLucas (game)
p518
sg13
Vn/a
p519
sg15
I1
sg17
g18
sg19
g20
sg21
VSM
p520
sg23
(lp521
g1
(g25
g3
Ntp522
Rp523
(dp524
g29
I393
sg31
VPiplup
p525
sg33
g276
sg35
V13
p526
sg37
(lp527
VBubble
p528
aVPound
p529
asg43
g12
sg44
VTorrent
p530
sbasg46
I01
sg47
g426
sbag1
(g2
g3
Ntp531
Rp532
(dp533
g7
VPt Dawn Back.png
p534
sg9
VPokemon Trainer
p535
sg11
VDawn (game)
p536
sg13
Vn/a
p537
sg15
I1
sg17
g18
sg19
g20
sg21
VSM
p538
sg23
(lp539
g1
(g25
g3
Ntp540
Rp541
(dp542
g29
I393
sg31
VPiplup
p543
sg33
g276
sg35
V13
p544
sg37
(lp545
VBubble
p546
aVPound
p547
asg43
g12
sg44
VTorrent
p548
sbasg46
I01
sg47
g426
sbag1
(g2
g3
Ntp549
Rp550
(dp551
g7
VPt Lucas Back.png
p552
sg9
VPokemon Trainer
p553
sg11
VLucas (game)
p554
sg13
Vn/a
p555
sg15
I1
sg17
g18
sg19
g20
sg21
g520
sg23
(lp556
g1
(g25
g3
Ntp557
Rp558
(dp559
g29
I387
sg31
VTurtwig
p560
sg33
g276
sg35
V13
p561
sg37
(lp562
VAbsorb
p563
aVTackle
p564
asg43
g12
sg44
VOvergrow
p565
sbasg46
I01
sg47
g426
sbag1
(g2
g3
Ntp566
Rp567
(dp568
g7
VPt Dawn Back.png
p569
sg9
VPokemon Trainer
p570
sg11
VDawn (game)
p571
sg13
Vn/a
p572
sg15
I1
sg17
g18
sg19
g20
sg21
g538
sg23
(lp573
g1
(g25
g3
Ntp574
Rp575
(dp576
g29
I387
sg31
VTurtwig
p577
sg33
g276
sg35
V13
p578
sg37
(lp579
VAbsorb
p580
aVTackle
p581
asg43
g12
sg44
VOvergrow
p582
sbasg46
I01
sg47
g426
sbag1
(g2
g3
Ntp583
Rp584
(dp585
g7
VPt Lucas Back.png
p586
sg9
VPokemon Trainer
p587
sg11
VLucas (game)
p588
sg13
Vn/a
p589
sg15
I1
sg17
g18
sg19
g20
sg21
g520
sg23
(lp590
g1
(g25
g3
Ntp591
Rp592
(dp593
g29
I390
sg31
VChimchar
p594
sg33
g276
sg35
V13
p595
sg37
(lp596
VEmber
p597
aVScratch
p598
asg43
g12
sg44
VBlaze
p599
sbasg46
I01
sg47
g426
sbag1
(g2
g3
Ntp600
Rp601
(dp602
g7
VPt Dawn Back.png
p603
sg9
VPokemon Trainer
p604
sg11
VDawn (game)
p605
sg13
Vn/a
p606
sg15
I1
sg17
g18
sg19
g20
sg21
g538
sg23
(lp607
g1
(g25
g3
Ntp608
Rp609
(dp610
g29
I390
sg31
VChimchar
p611
sg33
g276
sg35
V13
p612
sg37
(lp613
VEmber
p614
aVScratch
p615
asg43
g12
sg44
VBlaze
p616
sbasg46
I01
sg47
g426
sba.