(lp0
ccopy_reg
_reconstructor
p1
(c__main__
Trainer
p2
c__builtin__
object
p3
Ntp4
Rp5
(dp6
VtSprite
p7
VVSPsychic.png
p8
sVtClass
p9
VPsychic
p10
sVtName
p11
VRobert
p12
sVtMoney
p13
V1,232
p14
sVtPokeCount
p15
V1
p16
sVtLocation
p17
Vwiki/Kalos_Route_10
p18
sVtRegion
p19
VKalos
p20
sVtGame
p21
VSM
p22
sVtPokes
p23
(lp24
g1
(c__main__
FinishedPokemon
p25
g3
Ntp26
Rp27
(dp28
VpDexNo
p29
V577
p30
sVpSpecies
p31
VSolosis
p32
sVpGender
p33
VM
p34
sVpLevel
p35
V22
p36
sVpMoves
p37
(lp38
Vsnatch
p39
aVheal-block
p40
aVwonder-room
p41
aVpsyshock
p42
asVpHold
p43
V
p44
sVpAbility
p45
Vovercoat
p46
sbasVbossFlag
p47
I00
sVtLongGame
p48
Vsun-moon
p49
sbag1
(g2
g3
Ntp50
Rp51
(dp52
g7
VVSTourist F A.png
p53
sg9
VTourist
p54
sg11
VFumiko
p55
sg13
V1,520
p56
sg15
V3
p57
sg17
g18
sg19
g20
sg21
g22
sg23
(lp58
g1
(g25
g3
Ntp59
Rp60
(dp61
g29
V188
p62
sg31
VSkiploom
p63
sg33
VF
p64
sg35
V19
p65
sg37
(lp66
Vworry-seed
p67
aVrage-powder
p68
aVacrobatics
p69
aVfairy-wind
p70
asg43
g44
sg45
Vchlorophyll
p71
sbag1
(g25
g3
Ntp72
Rp73
(dp74
g29
V184
p75
sg31
VAzumarill
p76
sg33
g64
sg35
V19
p77
sg37
(lp78
Vwater-sport
p79
aVaqua-ring
p80
aVaqua-tail
p81
aVplay-rough
p82
asg43
g44
sg45
Vthick-fat
p83
sbag1
(g25
g3
Ntp84
Rp85
(dp86
g29
V206
p87
sg31
VDunsparce
p88
sg33
g64
sg35
V19
p89
sg37
(lp90
Vair-slash
p91
aVdragon-rush
p92
aVcoil
p93
aVdrill-run
p94
asg43
g44
sg45
Vrun-away
p95
sbasg47
I00
sg48
g49
sbag1
(g2
g3
Ntp96
Rp97
(dp98
g7
VVSTeam Flare Grunt M.png
p99
sg9
VTeam Flare Grunt
p100
sg11
g44
sg13
V920<br/><small>After earning the {{badge|Cliff}}</small>
p101
sg15
V2
p102
sg17
g18
sg19
g20
sg21
VSM
p103
sg23
(lp104
g1
(g25
g3
Ntp105
Rp106
(dp107
g29
V228
p108
sg31
VHoundour
p109
sg33
g34
sg35
V21
p110
sg37
(lp111
Vnasty-plot
p112
aVfire-fang
p113
aVfoul-play
p114
aVinferno
p115
asg43
g44
sg45
Vearly-bird
p116
sbag1
(g25
g3
Ntp117
Rp118
(dp119
g29
V042
p120
sg31
VGolbat
p121
sg33
g34
sg35
V23
p122
sg37
(lp123
Vair-cutter
p124
aVair-slash
p125
aVvenoshock
p126
aVquick-guard
p127
asg43
g44
sg45
Vinner-focus
p128
sbasg47
I00
sg48
g49
sbag1
(g2
g3
Ntp129
Rp130
(dp131
g7
VVSPsychic.png
p132
sg9
VPsychic
p133
sg11
VSayid
p134
sg13
V1,176
p135
sg15
g102
sg17
g18
sg19
g20
sg21
g22
sg23
(lp136
g1
(g25
g3
Ntp137
Rp138
(dp139
g29
V307
p140
sg31
VMeditite
p141
sg33
g34
sg35
V19
p142
sg37
(lp143
Vfeint
p144
aVacupressure
p145
aVpower-trick
p146
aVforce-palm
p147
asg43
g44
sg45
Vpure-power
p148
sbag1
(g25
g3
Ntp149
Rp150
(dp151
g29
V281
p152
sg31
VKirlia
p153
sg33
g34
sg35
V21
p154
sg37
(lp155
Vstored-power
p156
aVheal-pulse
p157
aVdisarming-voice
p158
aVdraining-kiss
p159
asg43
g44
sg45
Vtrace
p160
sbasg47
I00
sg48
g49
sbag1
(g2
g3
Ntp161
Rp162
(dp163
g7
VVSTeam Flare Grunt F.png
p164
sg9
VTeam Flare Grunt
p165
sg11
g44
sg13
V840<br/><small>After earning the {{badge|Cliff}}</small>
p166
sg15
g102
sg17
g18
sg19
g20
sg21
VSM
p167
sg23
(lp168
g1
(g25
g3
Ntp169
Rp170
(dp171
g29
V309
p172
sg31
VElectrike
p173
sg33
g64
sg35
V23
p174
sg37
(lp175
Vhowl
p176
aVthunder-fang
p177
aVdischarge
p178
aVwild-charge
p179
asg43
g44
sg45
Vstatic
p180
sbag1
(g25
g3
Ntp181
Rp182
(dp183
g29
V453
p184
sg31
VCroagunk
p185
sg33
g64
sg35
V21
p186
sg37
(lp187
Vnasty-plot
p188
aVmud-bomb
p189
aVvenoshock
p190
aVbelch
p191
asg43
g44
sg45
Vanticipation
p192
sbasg47
I00
sg48
g49
sbag1
(g2
g3
Ntp193
Rp194
(dp195
g7
VVSTeam Flare Grunt F.png
p196
sg9
VTeam Flare Grunt
p197
sg11
g44
sg13
V960<br/><small>After earning the {{badge|Cliff}}</small>
p198
sg15
g16
sg17
g18
sg19
g20
sg21
g167
sg23
(lp199
g1
(g25
g3
Ntp200
Rp201
(dp202
g29
V316
p203
sg31
VGulpin
p204
sg33
g64
sg35
V24
p205
sg37
(lp206
Vgastro-acid
p207
aVgunk-shot
p208
aVacid-spray
p209
aVbelch
p210
asg43
g44
sg45
Vliquid-ooze
p211
sbasg47
I00
sg48
g49
sbag1
(g2
g3
Ntp212
Rp213
(dp214
g7
VVSTourist F A.png
p215
sg9
VTourist
p216
sg11
VTomoko
p217
sg13
V1,520
p218
sg15
g57
sg17
g18
sg19
g20
sg21
g22
sg23
(lp219
g1
(g25
g3
Ntp220
Rp221
(dp222
g29
V425
p223
sg31
VDrifloon
p224
sg33
g64
sg35
V19
p225
sg37
(lp226
Vastonish
p227
aVpayback
p228
aVominous-wind
p229
aVhex
p230
asg43
g44
sg45
Vaftermath
p231
sbag1
(g25
g3
Ntp232
Rp233
(dp234
g29
V449
p235
sg31
VHippopotas
p236
sg33
g64
sg35
V19
p237
sg37
(lp238
Vdig
p239
aVcrunch
p240
aVyawn
p241
aVsand-tomb
p242
asg43
g44
sg45
Vsand-stream
p243
sbag1
(g25
g3
Ntp244
Rp245
(dp246
g29
V417
p247
sg31
VPachirisu
p248
sg33
g64
sg35
V19
p249
sg37
(lp250
Vlast-resort
p251
aVdischarge
p252
aVelectro-ball
p253
aVnuzzle
p254
asg43
g44
sg45
Vpickup
p255
sbasg47
I00
sg48
g49
sba.