(lp0
ccopy_reg
_reconstructor
p1
(c__main__
Trainer
p2
c__builtin__
object
p3
Ntp4
Rp5
(dp6
VtSprite
p7
VVSYoungster.png
p8
sVtClass
p9
VYoungster
p10
sVtName
p11
VJayden
p12
sVtMoney
p13
V1,152
p14
sVtPokeCount
p15
V2
p16
sVtLocation
p17
Vwiki/Kalos_Route_18
p18
sVtRegion
p19
VKalos
p20
sVtGame
p21
VSM
p22
sVtPokes
p23
(lp24
g1
(c__main__
FinishedPokemon
p25
g3
Ntp26
Rp27
(dp28
VpDexNo
p29
V545
p30
sVpSpecies
p31
VScolipede
p32
sVpGender
p33
VM
p34
sVpLevel
p35
V48
p36
sVpMoves
p37
(lp38
Vbug-bite
p39
aVvenoshock
p40
aVsteamroller
p41
aVvenom-drench
p42
asVpHold
p43
V
p44
sVpAbility
p45
Vpoison-point
p46
sbag1
(g25
g3
Ntp47
Rp48
(dp49
g29
V127
p50
sg31
VPinsir
p51
sg33
g34
sg35
V48
p52
sg37
(lp53
Vbrick-break
p54
aVx-scissor
p55
aVdouble-hit
p56
aVstorm-throw
p57
asg43
g44
sg45
Vmold-breaker
p58
sbasVbossFlag
p59
I00
sVtLongGame
p60
Vsun-moon
p61
sbag1
(g2
g3
Ntp62
Rp63
(dp64
g7
VVSBattle Girl.png
p65
sg9
VBattle Girl
p66
sg11
VJustine
p67
sg13
V2,496
p68
sg15
V1
p69
sg17
g18
sg19
g20
sg21
VSM
p70
sg23
(lp71
g1
(g25
g3
Ntp72
Rp73
(dp74
g29
V620
p75
sg31
VMienshao
p76
sg33
VF
p77
sg35
V52
p78
sg37
(lp79
Vaura-sphere
p80
ag80
aVdrain-punch
p81
aVwide-guard
p82
asg43
g44
sg45
Vinner-focus
p83
sbasg59
I00
sg60
g61
sbag1
(g2
g3
Ntp84
Rp85
(dp86
g7
VVSHiker.png
p87
sg9
VHiker
p88
sg11
VOrestes
p89
sg13
V2,800
p90
sg15
g69
sg17
g18
sg19
g20
sg21
VSM
p91
sg23
(lp92
g1
(g25
g3
Ntp93
Rp94
(dp95
g29
V618
p96
sg31
VStunfisk
p97
sg33
g34
sg35
V50
p98
sg37
(lp99
Vbounce
p100
aVmud-shot
p101
aVmud-bomb
p102
aVdischarge
p103
asg43
g44
sg45
Vlimber
p104
sbasg59
I00
sg60
g61
sbag1
(g2
g3
Ntp105
Rp106
(dp107
g7
VVSSky Trainer M.png
p108
sg9
VSky Trainer
p109
sg11
VJeremy
p110
sg13
V5,000
p111
sg15
V3
p112
sg17
g18
sg19
g20
sg21
VSM
p113
sg23
(lp114
g1
(g25
g3
Ntp115
Rp116
(dp117
g29
V291
p118
sg31
VNinjask
p119
sg33
g34
sg35
V46
p120
sg37
(lp121
Vfury-cutter
p122
aVbaton-pass
p123
aVx-scissor
p124
aVbug-bite
p125
asg43
g44
sg45
Vspeed-boost
p126
sbag1
(g25
g3
Ntp127
Rp128
(dp129
g29
V426
p130
sg31
VDrifblim
p131
sg33
g34
sg35
V47
p132
sg37
(lp133
Vominous-wind
p134
aVhex
p135
aVphantom-force
p136
ag136
asg43
g44
sg45
Vaftermath
p137
sbag1
(g25
g3
Ntp138
Rp139
(dp140
g29
V330
p141
sg31
VFlygon
p142
sg33
g34
sg35
V50
p143
sg37
(lp144
Vdragon-rush
p145
aVearth-power
p146
aVbulldoze
p147
aVdragon-tail
p148
asg43
g44
sg45
Vlevitate
p149
sbasg59
I00
sg60
g61
sbag1
(g2
g3
Ntp150
Rp151
(dp152
g7
VVSBlack Belt.png
p153
sg9
VBlack Belt
p154
sg11
VYanis
p155
sg13
V2,400<br><small>Requires {{m|Rock Smash}}</small>
p156
sg15
g16
sg17
g18
sg19
g20
sg21
VSM
p157
sg23
(lp158
g1
(g25
g3
Ntp159
Rp160
(dp161
g29
V539
p162
sg31
VSawk
p163
sg33
g34
sg35
V49
p164
sg37
(lp165
Vclose-combat
p166
aVlow-sweep
p167
aVquick-guard
p168
aVretaliate
p169
asg43
g44
sg45
Vsturdy
p170
sbag1
(g25
g3
Ntp171
Rp172
(dp173
g29
V675
p174
sg31
VPangoro
p175
sg33
g34
sg35
V50
p176
sg37
(lp177
Vcircle-throw
p178
aVwork-up
p179
ag179
aVparting-shot
p180
asg43
g44
sg45
Viron-fist
p181
sbasg59
I00
sg60
g61
sbag1
(g2
g3
Ntp182
Rp183
(dp184
g7
VVSLass XY.png
p185
sg9
VLass
p186
sg11
VSara
p187
sg13
V1,152
p188
sg15
g16
sg17
g18
sg19
g20
sg21
VSM
p189
sg23
(lp190
g1
(g25
g3
Ntp191
Rp192
(dp193
g29
V210
p194
sg31
VGranbull
p195
sg33
g34
sg35
V48
p196
sg37
(lp197
Vthunder-fang
p198
aVice-fang
p199
aVfire-fang
p200
aVplay-rough
p201
asg43
g44
sg45
Vquick-feet
p202
sbag1
(g25
g3
Ntp203
Rp204
(dp205
g29
V702
p206
sg31
VDedenne
p207
sg33
g77
sg35
V48
p208
sg37
(lp209
Vvolt-switch
p210
aVparabolic-charge
p211
aVplay-rough
p212
aVnuzzle
p213
asg43
g44
sg45
Vpickup
p214
sbasg59
I00
sg60
g61
sba.