(lp0
ccopy_reg
_reconstructor
p1
(c__main__
Trainer
p2
c__builtin__
object
p3
Ntp4
Rp5
(dp6
VtSprite
p7
VVSTeam Flare Grunt M.png
p8
sVtClass
p9
VTeam Flare Grunt
p10
sVtName
p11
V
p12
sVtMoney
p13
V1,320
p14
sVtPokeCount
p15
V2
p16
sVtLocation
p17
Vwiki/Kalos_Route_13
p18
sVtRegion
p19
VKalos
p20
sVtGame
p21
VSM
p22
sVtPokes
p23
(lp24
g1
(c__main__
FinishedPokemon
p25
g3
Ntp26
Rp27
(dp28
VpDexNo
p29
V229
p30
sVpSpecies
p31
VHoundoom
p32
sVpGender
p33
VM
p34
sVpLevel
p35
V31
p36
sVpMoves
p37
(lp38
Vfire-fang
p39
aVfoul-play
p40
aVinferno
p41
ag41
asVpHold
p42
g12
sVpAbility
p43
Vflash-fire
p44
sbag1
(g25
g3
Ntp45
Rp46
(dp47
g29
V042
p48
sg31
VGolbat
p49
sg33
g34
sg35
V33
p50
sg37
(lp51
Vair-cutter
p52
aVair-slash
p53
aVvenoshock
p54
aVquick-guard
p55
asg42
g12
sg43
Vinner-focus
p56
sbasVbossFlag
p57
I00
sVtLongGame
p58
Vsun-moon
p59
sba.