(lp0
ccopy_reg
_reconstructor
p1
(c__main__
Trainer
p2
c__builtin__
object
p3
Ntp4
Rp5
(dp6
VtSprite
p7
VVSPsychic.png
p8
sVtClass
p9
VPsychic
p10
sVtName
p11
VEmanuel
p12
sVtMoney
p13
V1,344
p14
sVtPokeCount
p15
V2
p16
sVtLocation
p17
Vwiki/Kalos_Route_11
p18
sVtRegion
p19
VKalos
p20
sVtGame
p21
VSM
p22
sVtPokes
p23
(lp24
g1
(c__main__
FinishedPokemon
p25
g3
Ntp26
Rp27
(dp28
VpDexNo
p29
V577
p30
sVpSpecies
p31
VSolosis
p32
sVpGender
p33
VM
p34
sVpLevel
p35
V24
p36
sVpMoves
p37
(lp38
Vsnatch
p39
aVheal-block
p40
aVwonder-room
p41
aVpsyshock
p42
asVpHold
p43
V
p44
sVpAbility
p45
Vmagic-guard
p46
sbag1
(g25
g3
Ntp47
Rp48
(dp49
g29
V561
p50
sg31
VSigilyph
p51
sg33
g34
sg35
V24
p52
sg37
(lp53
Vmiracle-eye
p54
aVtailwind
p55
aVair-slash
p56
aVsynchronoise
p57
asg43
g44
sg45
Vwonder-skin
p58
sbasVbossFlag
p59
I00
sVtLongGame
p60
Vsun-moon
p61
sbag1
(g2
g3
Ntp62
Rp63
(dp64
g7
VVSBattle Girl.png
p65
sg9
VBattle Girl
p66
sg11
VGerardine
p67
sg13
V1,344
p68
sg15
V1
p69
sg17
g18
sg19
g20
sg21
VSM
p70
sg23
(lp71
g1
(g25
g3
Ntp72
Rp73
(dp74
g29
V619
p75
sg31
VMienfoo
p76
sg33
VF
p77
sg35
V28
p78
sg37
(lp79
Vforce-palm
p80
aVaura-sphere
p81
aVdrain-punch
p82
aVquick-guard
p83
asg43
g44
sg45
Vinner-focus
p84
sbasg59
I00
sg60
g61
sbag1
(g2
g3
Ntp85
Rp86
(dp87
g7
VVSBrains & Brawn.png
p88
sg9
VBrains & Brawn
p89
sg11
VFrank & Sly
p90
sg13
V2,912
p91
sg15
g16
sg17
g18
sg19
g20
sg21
g70
sg23
(lp92
g1
(g25
g3
Ntp93
Rp94
(dp95
g29
V122
p96
sg31
VMr. Mime
p97
sg33
g34
sg35
V26
p98
sg37
(lp99
Vguard-swap
p100
aVwide-guard
p101
aVquick-guard
p102
aVmisty-terrain
p103
asg43
g44
sg45
Vsoundproof
p104
sbag1
(g25
g3
Ntp105
Rp106
(dp107
g29
V067
p108
sg31
VMachoke
p109
sg33
g34
sg35
V28
p110
sg37
(lp111
Vbulk-up
p112
aVwake-up-slap
p113
aVlow-sweep
p114
aVdual-chop
p115
asg43
g44
sg45
Vno-guard
p116
sbasg59
I00
sg60
g61
sbag1
(g2
g3
Ntp117
Rp118
(dp119
g7
VVSSky Trainer F.png
p120
sg9
VSky Trainer
p121
sg11
V[[Yvette]]
p122
sg13
V2,400
p123
sg15
V3
p124
sg17
g18
sg19
g20
sg21
g70
sg23
(lp125
g1
(g25
g3
Ntp126
Rp127
(dp128
g29
V587
p129
sg31
VEmolga
p130
sg33
g77
sg35
V23
p131
sg37
(lp132
Velectro-ball
p133
aVacrobatics
p134
aVvolt-switch
p135
aVnuzzle
p136
asg43
g44
sg45
Vstatic
p137
sbag1
(g25
g3
Ntp138
Rp139
(dp140
g29
V278
p141
sg31
VWingull
p142
sg33
g77
sg35
V23
p143
sg37
(lp144
Vwater-pulse
p145
aVroost
p146
aVair-slash
p147
aVhurricane
p148
asg43
g44
sg45
Vkeen-eye
p149
sbag1
(g25
g3
Ntp150
Rp151
(dp152
g29
V397
p153
sg31
VStaravia
p154
sg33
g77
sg35
V24
p155
sg37
(lp156
Vendeavor
p157
aVaerial-ace
p158
aVbrave-bird
p159
aVfinal-gambit
p160
asg43
g44
sg45
Vintimidate
p161
sbasg59
I00
sg60
g61
sba.