(lp0
ccopy_reg
_reconstructor
p1
(c__main__
Trainer
p2
c__builtin__
object
p3
Ntp4
Rp5
(dp6
VtSprite
p7
VVSSky Trainer F.png
p8
sVtClass
p9
VSky Trainer
p10
sVtName
p11
VAnila
p12
sVtMoney
p13
V4,400
p14
sVtPokeCount
p15
V2
p16
sVtLocation
p17
Vwiki/Kalos_Route_17
p18
sVtRegion
p19
VKalos
p20
sVtGame
p21
VSM
p22
sVtPokes
p23
(lp24
g1
(c__main__
FinishedPokemon
p25
g3
Ntp26
Rp27
(dp28
VpDexNo
p29
V479
p30
sVpSpecies
p31
VRotom
p32
sVpGender
p33
VU
p34
sVpLevel
p35
V42
p36
sVpMoves
p37
(lp38
Vdischarge
p39
aVominous-wind
p40
aVelectro-ball
p41
aVhex
p42
asVpHold
p43
V
p44
sVpAbility
p45
Vlevitate
p46
sbag1
(g25
g3
Ntp47
Rp48
(dp49
g29
V012
p50
sg31
VButterfree
p51
sg33
VF
p52
sg35
V44
p53
sg37
(lp54
Vbug-buzz
p55
aVcaptivate
p56
aVrage-powder
p57
aVquiver-dance
p58
asg43
g44
sg45
Vcompound-eyes
p59
sbasVbossFlag
p60
I00
sVtLongGame
p61
Vsun-moon
p62
sba.