(lp0
ccopy_reg
_reconstructor
p1
(c__main__
Trainer
p2
c__builtin__
object
p3
Ntp4
Rp5
(dp6
VtSprite
p7
VVSTeam Flare Grunt M.png
p8
sVtClass
p9
VTeam Flare Grunt
p10
sVtName
p11
V
p12
sVtMoney
p13
V1,280
p14
sVtPokeCount
p15
V2
p16
sVtLocation
p17
Vwiki/Kalos_Power_Plant
p18
sVtRegion
p19
VKalos
p20
sVtGame
p21
VSM
p22
sVtPokes
p23
(lp24
g1
(c__main__
FinishedPokemon
p25
g3
Ntp26
Rp27
(dp28
VpDexNo
p29
V559
p30
sVpSpecies
p31
VScraggy
p32
sVpGender
p33
VM
p34
sVpLevel
p35
V32
p36
sVpMoves
p37
(lp38
Vpayback
p39
aVrock-climb
p40
aVhead-smash
p41
aVchip-away
p42
asVpHold
p43
g12
sVpAbility
p44
Vshed-skin
p45
sbag1
(g25
g3
Ntp46
Rp47
(dp48
g29
V453
p49
sg31
VCroagunk
p50
sg33
g34
sg35
V32
p51
sg37
(lp52
Vnasty-plot
p53
aVmud-bomb
p54
aVvenoshock
p55
aVbelch
p56
asg43
g12
sg44
Vanticipation
p57
sbasVbossFlag
p58
I00
sVtLongGame
p59
Vsun-moon
p60
sbag1
(g2
g3
Ntp61
Rp62
(dp63
g7
VVSTeam Flare Grunt F.png
p64
sg9
VTeam Flare Grunt
p65
sg11
g12
sg13
V1,320
p66
sg15
g16
sg17
g18
sg19
g20
sg21
g22
sg23
(lp67
g1
(g25
g3
Ntp68
Rp69
(dp70
g29
V453
p71
sg31
VCroagunk
p72
sg33
VF
p73
sg35
V31
p74
sg37
(lp75
Vnasty-plot
p76
aVmud-bomb
p77
aVvenoshock
p78
aVbelch
p79
asg43
g12
sg44
Vanticipation
p80
sbag1
(g25
g3
Ntp81
Rp82
(dp83
g29
V042
p84
sg31
VGolbat
p85
sg33
g73
sg35
V33
p86
sg37
(lp87
Vair-cutter
p88
aVair-slash
p89
aVvenoshock
p90
aVquick-guard
p91
asg43
g12
sg44
Vinner-focus
p92
sbasg58
I00
sg59
g60
sbag1
(g2
g3
Ntp93
Rp94
(dp95
g7
VVSTeam Flare Grunt M.png
p96
sg9
VTeam Flare Grunt
p97
sg11
g12
sg13
V1,360
p98
sg15
V1
p99
sg17
g18
sg19
g20
sg21
g22
sg23
(lp100
g1
(g25
g3
Ntp101
Rp102
(dp103
g29
V262
p104
sg31
VMightyena
p105
sg33
g34
sg35
V34
p106
sg37
(lp107
Vice-fang
p108
aVfire-fang
p109
aVsnarl
p110
aVplay-rough
p111
asg43
g12
sg44
Vintimidate
p112
sbasg58
I00
sg59
g60
sbag1
(g2
g3
Ntp113
Rp114
(dp115
g7
VVSTeam Flare Grunt M.png
p116
sg9
VTeam Flare Grunt
p117
sg11
g12
sg13
V1,280
p118
sg15
g16
sg17
g18
sg19
g20
sg21
g22
sg23
(lp119
g1
(g25
g3
Ntp120
Rp121
(dp122
g29
V559
p123
sg31
VScraggy
p124
sg33
g34
sg35
V32
p125
sg37
(lp126
Vpayback
p127
aVrock-climb
p128
aVhead-smash
p129
aVchip-away
p130
asg43
g12
sg44
Vmoxie
p131
sbag1
(g25
g3
Ntp132
Rp133
(dp134
g29
V042
p135
sg31
VGolbat
p136
sg33
g34
sg35
V32
p137
sg37
(lp138
Vair-cutter
p139
aVair-slash
p140
aVvenoshock
p141
aVquick-guard
p142
asg43
g12
sg44
Vinner-focus
p143
sbasg58
I00
sg59
g60
sbag1
(g2
g3
Ntp144
Rp145
(dp146
g7
VVSTeam Flare Grunt M.png
p147
sg9
VTeam Flare Grunt
p148
sg11
g12
sg13
V1,280
p149
sg15
g16
sg17
g18
sg19
g20
sg21
g22
sg23
(lp150
g1
(g25
g3
Ntp151
Rp152
(dp153
g29
V042
p154
sg31
VGolbat
p155
sg33
g34
sg35
V32
p156
sg37
(lp157
Vair-cutter
p158
aVair-slash
p159
aVvenoshock
p160
aVquick-guard
p161
asg43
g12
sg44
Vinner-focus
p162
sbag1
(g25
g3
Ntp163
Rp164
(dp165
g29
V262
p166
sg31
VMightyena
p167
sg33
g34
sg35
V32
p168
sg37
(lp169
Vice-fang
p170
aVfire-fang
p171
aVsnarl
p172
aVplay-rough
p173
asg43
g12
sg44
Vintimidate
p174
sbasg58
I00
sg59
g60
sbag1
(g2
g3
Ntp175
Rp176
(dp177
g7
VVSTeam Flare Grunt F.png
p178
sg9
VTeam Flare Grunt
p179
sg11
g12
sg13
V1,360
p180
sg15
g99
sg17
g18
sg19
g20
sg21
g22
sg23
(lp181
g1
(g25
g3
Ntp182
Rp183
(dp184
g29
V317
p185
sg31
VSwalot
p186
sg33
g73
sg35
V34
p187
sg37
(lp188
Vgunk-shot
p189
aVacid-spray
p190
aVbelch
p191
aVvenom-drench
p192
asg43
g12
sg44
Vliquid-ooze
p193
sbasg58
I00
sg59
g60
sbag1
(g2
g3
Ntp194
Rp195
(dp196
g7
VVSTeam Flare Grunt F.png
p197
sg9
VTeam Flare Grunt
p198
sg11
g12
sg13
V1,320
p199
sg15
g16
sg17
g18
sg19
g20
sg21
g22
sg23
(lp200
g1
(g25
g3
Ntp201
Rp202
(dp203
g29
V510
p204
sg31
VLiepard
p205
sg33
g73
sg35
V31
p206
sg37
(lp207
Vnight-slash
p208
aVnasty-plot
p209
aVhone-claws
p210
aVplay-rough
p211
asg43
g12
sg44
Vunburden
p212
sbag1
(g25
g3
Ntp213
Rp214
(dp215
g29
V317
p216
sg31
VSwalot
p217
sg33
g73
sg35
V33
p218
sg37
(lp219
Vgunk-shot
p220
aVacid-spray
p221
aVbelch
p222
aVvenom-drench
p223
asg43
g12
sg44
Vsticky-hold
p224
sbasg58
I00
sg59
g60
sbag1
(g2
g3
Ntp225
Rp226
(dp227
g7
VVSTeam Flare Grunt F.png
p228
sg9
VTeam Flare Grunt
p229
sg11
g12
sg13
V1,240
p230
sg15
V3
p231
sg17
g18
sg19
g20
sg21
g22
sg23
(lp232
g1
(g25
g3
Ntp233
Rp234
(dp235
g29
V453
p236
sg31
VCroagunk
p237
sg33
g73
sg35
V31
p238
sg37
(lp239
Vnasty-plot
p240
aVmud-bomb
p241
aVvenoshock
p242
aVbelch
p243
asg43
g12
sg44
Vanticipation
p244
sbag1
(g25
g3
Ntp245
Rp246
(dp247
g29
V559
p248
sg31
VScraggy
p249
sg33
g73
sg35
V31
p250
sg37
(lp251
Vpayback
p252
aVrock-climb
p253
aVhead-smash
p254
aVchip-away
p255
asg43
g12
sg44
Vmoxie
p256
sbag1
(g25
g3
Ntp257
Rp258
(dp259
g29
V510
p260
sg31
VLiepard
p261
sg33
g73
sg35
V31
p262
sg37
(lp263
Vnight-slash
p264
aVnasty-plot
p265
aVhone-claws
p266
aVplay-rough
p267
asg43
g12
sg44
Vlimber
p268
sbasg58
I00
sg59
g60
sbag1
(g2
g3
Ntp269
Rp270
(dp271
g7
VVSTeam Flare Admin M.png
p272
sg9
VTeam Flare Admin
p273
sg11
g12
sg13
V2,880
p274
sg15
g99
sg17
g18
sg19
g20
sg21
g22
sg23
(lp275
g1
(g25
g3
Ntp276
Rp277
(dp278
g29
V229
p279
sg31
VHoundoom
p280
sg33
g34
sg35
V36
p281
sg37
(lp282
Vfire-fang
p283
aVfoul-play
p284
aVinferno
p285
ag285
asg43
g12
sg44
Vearly-bird
p286
sbasg58
I00
sg59
g60
sbag1
(g2
g3
Ntp287
Rp288
(dp289
g7
VVSAliana.png
p290
sg9
VTeam Flare
p291
sg11
VAliana
p292
sg13
V5,320
p293
sg15
I1
sg17
g18
sg19
g20
sg21
g22
sg23
(lp294
g1
(g25
g3
Ntp295
Rp296
(dp297
g29
I262
sg31
VMightyena
p298
sg33
g73
sg35
V38
p299
sg37
(lp300
VRoar
p301
aVSwagger
p302
aVAssurance
p303
aVScary Face
p304
asg43
g12
sg44
VIntimidate
p305
sbasg58
I01
sg59
g60
sba.