(lp0
ccopy_reg
_reconstructor
p1
(c__main__
Trainer
p2
c__builtin__
object
p3
Ntp4
Rp5
(dp6
VtSprite
p7
VVSRising Star F.png
p8
sVtClass
p9
VRising Star
p10
sVtName
p11
VPaulette
p12
sVtMoney
p13
V1,140
p14
sVtPokeCount
p15
V1
p16
sVtLocation
p17
Vwiki/Kalos_Route_8
p18
sVtRegion
p19
VKalos
p20
sVtGame
p21
VSM
p22
sVtPokes
p23
(lp24
g1
(c__main__
FinishedPokemon
p25
g3
Ntp26
Rp27
(dp28
VpDexNo
p29
V610
p30
sVpSpecies
p31
VAxew
p32
sVpGender
p33
VF
p34
sVpLevel
p35
V19
p36
sVpMoves
p37
(lp38
Vassurance
p39
aVdragon-pulse
p40
aVgiga-impact
p41
aVdual-chop
p42
asVpHold
p43
V
p44
sVpAbility
p45
Vmold-breaker
p46
sbasVbossFlag
p47
I00
sVtLongGame
p48
Vsun-moon
p49
sbag1
(g2
g3
Ntp50
Rp51
(dp52
g7
VVSRising Star M.png
p53
sg9
VRising Star
p54
sg11
VRhys
p55
sg13
V1,020
p56
sg15
V3
p57
sg17
g18
sg19
g20
sg21
VSM
p58
sg23
(lp59
g1
(g25
g3
Ntp60
Rp61
(dp62
g29
V674
p63
sg31
VPancham
p64
sg33
VM
p65
sg35
V15
p66
sg37
(lp67
Ventrainment
p68
aVcircle-throw
p69
aVwork-up
p70
aVparting-shot
p71
asg43
g44
sg45
Viron-fist
p72
sbag1
(g25
g3
Ntp73
Rp74
(dp75
g29
V672
p76
sg31
VSkiddo
p77
sg33
g65
sg35
V16
p78
sg37
(lp79
Vworry-seed
p80
aVseed-bomb
p81
aVbulldoze
p82
aVhorn-leech
p83
asg43
g44
sg45
Vsap-sipper
p84
sbag1
(g25
g3
Ntp85
Rp86
(dp87
g29
V118
p88
sg31
VGoldeen
p89
sg33
g65
sg35
V17
p90
sg37
(lp91
Vwater-sport
p92
aVwater-pulse
p93
aVaqua-ring
p94
aVsoak
p95
asg43
g44
sg45
Vswift-swim
p96
sbasg47
I00
sg48
g49
sbag1
(g2
g3
Ntp97
Rp98
(dp99
g7
VVSSky Trainer M.png
p100
sg9
VSky Trainer
p101
sg11
VHowe
p102
sg13
V1,800
p103
sg15
V2
p104
sg17
g18
sg19
g20
sg21
VSM
p105
sg23
(lp106
g1
(g25
g3
Ntp107
Rp108
(dp109
g29
V425
p110
sg31
VDrifloon
p111
sg33
g65
sg35
V15
p112
sg37
(lp113
Vastonish
p114
aVpayback
p115
aVominous-wind
p116
aVhex
p117
asg43
g44
sg45
Vaftermath
p118
sbag1
(g25
g3
Ntp119
Rp120
(dp121
g29
V017
p122
sg31
VPidgeotto
p123
sg33
g65
sg35
V18
p124
sg37
(lp125
Vroost
p126
aVtailwind
p127
aVair-slash
p128
aVhurricane
p129
asg43
g44
sg45
Vkeen-eye
p130
sbasg47
I00
sg48
g49
sbag1
(g2
g3
Ntp131
Rp132
(dp133
g7
VVSBlack Belt.png
p134
sg9
VBlack Belt
p135
sg11
VCadoc
p136
sg13
V960
p137
sg15
g16
sg17
g18
sg19
g20
sg21
VSM
p138
sg23
(lp139
g1
(g25
g3
Ntp140
Rp141
(dp142
g29
V066
p143
sg31
VMachop
p144
sg33
g65
sg35
V20
p145
sg37
(lp146
Vbulk-up
p147
aVwake-up-slap
p148
aVlow-sweep
p149
aVdual-chop
p150
asg43
g44
sg45
Vno-guard
p151
sbasg47
I00
sg48
g49
sbag1
(g2
g3
Ntp152
Rp153
(dp154
g7
VVSSky Trainer M.png
p155
sg9
VSky Trainer
p156
sg11
VColm
p157
sg13
V2,900
p158
sg15
g104
sg17
g18
sg19
g20
sg21
g105
sg23
(lp159
g1
(g25
g3
Ntp160
Rp161
(dp162
g29
V458
p163
sg31
VMantyke
p164
sg33
g65
sg35
V28
p165
sg37
(lp166
Vwater-pulse
p167
aVaqua-ring
p168
aVair-slash
p169
aVwide-guard
p170
asg43
g44
sg45
Vwater-absorb
p171
sbag1
(g25
g3
Ntp172
Rp173
(dp174
g29
V189
p175
sg31
VJumpluff
p176
sg33
g65
sg35
V29
p177
sg37
(lp178
Vworry-seed
p179
aVrage-powder
p180
aVacrobatics
p181
aVfairy-wind
p182
asg43
g44
sg45
Vchlorophyll
p183
sbasg47
I00
sg48
g49
sbag1
(g2
g3
Ntp184
Rp185
(dp186
g7
VVSSwimmer F XY.png
p187
sg9
VSwimmer \u2640
p188
sg11
VGenevieve
p189
sg13
V336
p190
sg15
g104
sg17
g18
sg19
g20
sg21
VSM
p191
sg23
(lp192
g1
(g25
g3
Ntp193
Rp194
(dp195
g29
V278
p196
sg31
VWingull
p197
sg33
g34
sg35
V19
p198
sg37
(lp199
Vwater-pulse
p200
aVroost
p201
aVair-slash
p202
aVhurricane
p203
asg43
g44
sg45
Vhydration
p204
sbag1
(g25
g3
Ntp205
Rp206
(dp207
g29
V054
p208
sg31
VPsyduck
p209
sg33
g34
sg35
V21
p210
sg37
(lp211
Vaqua-tail
p212
aVzen-headbutt
p213
aVwonder-room
p214
aVsoak
p215
asg43
g44
sg45
Vcloud-nine
p216
sbasg47
I00
sg48
g49
sbag1
(g2
g3
Ntp217
Rp218
(dp219
g7
VVSFisherman.png
p220
sg9
VFisherman
p221
sg11
VWharton
p222
sg13
V1,064
p223
sg15
g57
sg17
g18
sg19
g20
sg21
VSM
p224
sg23
(lp225
g1
(g25
g3
Ntp226
Rp227
(dp228
g29
V072
p229
sg31
VTentacool
p230
sg33
g65
sg35
V19
p231
sg37
(lp232
Vpoison-jab
p233
aVsludge-wave
p234
aVacid-spray
p235
aVhex
p236
asg43
g44
sg45
Vliquid-ooze
p237
sbag1
(g25
g3
Ntp238
Rp239
(dp240
g29
V072
p241
sg31
VTentacool
p242
sg33
g65
sg35
V19
p243
sg37
(lp244
Vpoison-jab
p245
aVsludge-wave
p246
aVacid-spray
p247
aVhex
p248
asg43
g44
sg45
Vliquid-ooze
p249
sbag1
(g25
g3
Ntp250
Rp251
(dp252
g29
V072
p253
sg31
VTentacool
p254
sg33
g65
sg35
V19
p255
sg37
(lp256
Vpoison-jab
p257
aVsludge-wave
p258
aVacid-spray
p259
aVhex
p260
asg43
g44
sg45
Vclear-body
p261
sbasg47
I00
sg48
g49
sbag1
(g2
g3
Ntp262
Rp263
(dp264
g7
VVSSky Trainer F.png
p265
sg9
VSky Trainer
p266
sg11
VAveza
p267
sg13
V2,200
p268
sg15
g104
sg17
g18
sg19
g20
sg21
VSM
p269
sg23
(lp270
g1
(g25
g3
Ntp271
Rp272
(dp273
g29
V188
p274
sg31
VSkiploom
p275
sg33
g34
sg35
V19
p276
sg37
(lp277
Vworry-seed
p278
aVrage-powder
p279
aVacrobatics
p280
aVfairy-wind
p281
asg43
g44
sg45
Vchlorophyll
p282
sbag1
(g25
g3
Ntp283
Rp284
(dp285
g29
V528
p286
sg31
VSwoobat
p287
sg33
g34
sg35
V22
p288
sg37
(lp289
Vassurance
p290
ag290
aVair-slash
p291
aVheart-stamp
p292
asg43
g44
sg45
Vklutz
p293
sbasg47
I00
sg48
g49
sbag1
(g2
g3
Ntp294
Rp295
(dp296
g7
VVSFisherman.png
p297
sg9
VFisherman
p298
sg11
VShad
p299
sg13
V1,120
p300
sg15
g104
sg17
g18
sg19
g20
sg21
g224
sg23
(lp301
g1
(g25
g3
Ntp302
Rp303
(dp304
g29
V090
p305
sg31
VShellder
p306
sg33
g65
sg35
V20
p307
sg37
(lp308
Vbrine
p309
aVice-shard
p310
aVshell-smash
p311
aVrazor-shell
p312
asg43
g44
sg45
Vskill-link
p313
sbag1
(g25
g3
Ntp314
Rp315
(dp316
g29
V120
p317
sg31
VStaryu
p318
sg33
VU
p319
sg35
V20
p320
sg37
(lp321
Vgyro-ball
p322
aVbrine
p323
aVpower-gem
p324
aVreflect-type
p325
asg43
g44
sg45
Villuminate
p326
sbasg47
I00
sg48
g49
sbag1
(g2
g3
Ntp327
Rp328
(dp329
g7
VVSSwimmer F XY.png
p330
sg9
VSwimmer \u2640
p331
sg11
VMarissa
p332
sg13
V352
p333
sg15
g16
sg17
g18
sg19
g20
sg21
g191
sg23
(lp334
g1
(g25
g3
Ntp335
Rp336
(dp337
g29
V284
p338
sg31
VMasquerain
p339
sg33
g34
sg35
V22
p340
sg37
(lp341
Vbug-buzz
p342
aVominous-wind
p343
aVquiver-dance
p344
ag344
asg43
g44
sg45
Vintimidate
p345
sbasg47
I00
sg48
g49
sbag1
(g2
g3
Ntp346
Rp347
(dp348
g7
VVSSwimmer M VI.png
p349
sg9
VSwimmer \u2642
p350
sg11
VEstaban
p351
sg13
V448
p352
sg15
g104
sg17
g18
sg19
g20
sg21
VSM
p353
sg23
(lp354
g1
(g25
g3
Ntp355
Rp356
(dp357
g29
V690
p358
sg31
VSkrelp
p359
sg33
g65
sg35
V28
p360
sg37
(lp361
Vpoison-tail
p362
aVwater-pulse
p363
aVaqua-tail
p364
aVdragon-pulse
p365
asg43
g44
sg45
Vpoison-touch
p366
sbag1
(g25
g3
Ntp367
Rp368
(dp369
g29
V116
p370
sg31
VHorsea
p371
sg33
g65
sg35
V28
p372
sg37
(lp373
Vtwister
p374
aVdragon-dance
p375
aVbrine
p376
aVdragon-pulse
p377
asg43
g44
sg45
Vswift-swim
p378
sbasg47
I00
sg48
g49
sbag1
(g2
g3
Ntp379
Rp380
(dp381
g7
VVSSwimmer M VI.png
p382
sg9
VSwimmer \u2642
p383
sg11
VRamses
p384
sg13
V480
p385
sg15
g16
sg17
g18
sg19
g20
sg21
g353
sg23
(lp386
g1
(g25
g3
Ntp387
Rp388
(dp389
g29
V072
p390
sg31
VTentacool
p391
sg33
g65
sg35
V30
p392
sg37
(lp393
Vpoison-jab
p394
aVsludge-wave
p395
aVacid-spray
p396
aVhex
p397
asg43
g44
sg45
Vclear-body
p398
sbasg47
I00
sg48
g49
sba.