(lp0
ccopy_reg
_reconstructor
p1
(c__main__
Trainer
p2
c__builtin__
object
p3
Ntp4
Rp5
(dp6
VtSprite
p7
VVSAce Trainer F.png
p8
sVtClass
p9
VAce Trainer
p10
sVtName
p11
VMireille
p12
sVtMoney
p13
V5,600
p14
sVtPokeCount
p15
V2
p16
sVtLocation
p17
Vwiki/Kalos_Route_21
p18
sVtRegion
p19
VKalos
p20
sVtGame
p21
VSM
p22
sVtPokes
p23
(lp24
g1
(c__main__
FinishedPokemon
p25
g3
Ntp26
Rp27
(dp28
VpDexNo
p29
V302
p30
sVpSpecies
p31
VSableye
p32
sVpGender
p33
VF
p34
sVpLevel
p35
V55
p36
sVpMoves
p37
(lp38
Vshadow-sneak
p39
aVzen-headbutt
p40
aVfoul-play
p41
aVquash
p42
asVpHold
p43
V
p44
sVpAbility
p45
Vkeen-eye
p46
sbag1
(g25
g3
Ntp47
Rp48
(dp49
g29
V558
p50
sg31
VCrustle
p51
sg33
g34
sg35
V56
p52
sg37
(lp53
Vbug-bite
p54
aVsmack-down
p55
aVshell-smash
p56
ag56
asg43
g44
sg45
Vshell-armor
p57
sbasVbossFlag
p58
I00
sVtLongGame
p59
Vsun-moon
p60
sbag1
(g2
g3
Ntp61
Rp62
(dp63
g7
VVSAce Duo.png
p64
sg9
VAce Duo
p65
sg11
VElina & Sean
p66
sg13
V11,400
p67
sg15
g16
sg17
g18
sg19
g20
sg21
g22
sg23
(lp68
g1
(g25
g3
Ntp69
Rp70
(dp71
g29
V321
p72
sg31
VWailord
p73
sg33
VM
p74
sg35
V57
p75
sg37
(lp76
Vheavy-slam
p77
ag77
aVsoak
p78
aVnoble-roar
p79
asg43
g44
sg45
Voblivious
p80
sbag1
(g25
g3
Ntp81
Rp82
(dp83
g29
V045
p84
sg31
VVileplume
p85
sg33
g74
sg35
V57
p86
sg37
(lp87
Vstun-spore
p88
aVpetal-dance
p89
aVaromatherapy
p90
aVpetal-blizzard
p91
asg43
g44
sg45
Vchlorophyll
p92
sbasg58
I00
sg59
g60
sbag1
(g2
g3
Ntp93
Rp94
(dp95
g7
VVSAce Trainer M.png
p96
sg9
VAce Trainer
p97
sg11
VEvan
p98
sg13
V5,800
p99
sg15
V1
p100
sg17
g18
sg19
g20
sg21
g22
sg23
(lp101
g1
(g25
g3
Ntp102
Rp103
(dp104
g29
V609
p105
sg31
VChandelure
p106
sg33
g74
sg35
V58
p107
sg37
(lp108
Vsmog
p109
aVpain-split
p110
aVflame-burst
p111
aVhex
p112
asg43
g44
sg45
Vflame-body
p113
sbasg58
I00
sg59
g60
sbag1
(g2
g3
Ntp114
Rp115
(dp116
g7
VVSVeteran F.png
p117
sg9
VVeteran
p118
sg11
VTrisha
p119
sg13
V8,260
p120
sg15
g100
sg17
g18
sg19
g20
sg21
g22
sg23
(lp121
g1
(g25
g3
Ntp122
Rp123
(dp124
g29
V697
p125
sg31
VTyrantrum
p126
sg33
g74
sg35
V59
p127
sg37
(lp128
Vstealth-rock
p129
aVhead-smash
p130
ag130
aVdragon-tail
p131
asg43
g44
sg45
Vstrong-jaw
p132
sbasg58
I00
sg59
g60
sbag1
(g2
g3
Ntp133
Rp134
(dp135
g7
VVSVeteran M.png
p136
sg9
VVeteran
p137
sg11
VLouis
p138
sg13
V7,980
p139
sg15
g16
sg17
g18
sg19
g20
sg21
g22
sg23
(lp140
g1
(g25
g3
Ntp141
Rp142
(dp143
g29
V450
p144
sg31
VHippowdon
p145
sg33
g74
sg35
V55
p146
sg37
(lp147
Vsand-tomb
p148
aVthunder-fang
p149
aVice-fang
p150
aVfire-fang
p151
asg43
g44
sg45
Vsand-stream
p152
sbag1
(g25
g3
Ntp153
Rp154
(dp155
g29
V699
p156
sg31
VAurorus
p157
sg33
g74
sg35
V57
p158
sg37
(lp159
Vnature-power
p160
aVavalanche
p161
aVround
p162
aVfreeze-dry
p163
asg43
g44
sg45
Vrefrigerate
p164
sbasg58
I00
sg59
g60
sba.