(lp0
ccopy_reg
_reconstructor
p1
(c__main__
Trainer
p2
c__builtin__
object
p3
Ntp4
Rp5
(dp6
VtSprite
p7
VVSPreschooler M.png
p8
sVtClass
p9
VPreschooler
p10
sVtName
p11
VOliver
p12
sVtMoney
p13
V64
p14
sVtPokeCount
p15
V2
p16
sVtLocation
p17
Vwiki/Kalos_Route_3
p18
sVtRegion
p19
VKalos
p20
sVtGame
p21
VSM
p22
sVtPokes
p23
(lp24
g1
(c__main__
FinishedPokemon
p25
g3
Ntp26
Rp27
(dp28
VpDexNo
p29
V010
p30
sVpSpecies
p31
VCaterpie
p32
sVpGender
p33
VM
p34
sVpLevel
p35
g16
sVpMoves
p36
(lp37
Vtackle
p38
aVstring-shot
p39
aVbug-bite
p40
asVpHold
p41
V
p42
sVpAbility
p43
Vshield-dust
p44
sbag1
(g25
g3
Ntp45
Rp46
(dp47
g29
V298
p48
sg31
VAzurill
p49
sg33
VF
p50
sg35
V4
p51
sg36
(lp52
Vcharm
p53
aVhelping-hand
p54
aVbounce
p55
aVwater-sport
p56
asg41
g42
sg43
Vhuge-power
p57
sbasVbossFlag
p58
I00
sVtLongGame
p59
Vsun-moon
p60
sbag1
(g2
g3
Ntp61
Rp62
(dp63
g7
VVSPreschooler F.png
p64
sg9
VPreschooler
p65
sg11
VElla
p66
sg13
V80
p67
sg15
V1
p68
sg17
g18
sg19
g20
sg21
g22
sg23
(lp69
g1
(g25
g3
Ntp70
Rp71
(dp72
g29
V172
p73
sg31
VPichu
p74
sg33
g50
sg35
V5
p75
sg36
(lp76
Vthunder-wave
p77
aVsweet-kiss
p78
aVcharm
p79
aVnasty-plot
p80
asg41
g42
sg43
Vstatic
p81
sbasg58
I00
sg59
g60
sbag1
(g2
g3
Ntp82
Rp83
(dp84
g7
VVSSchoolgirl.png
p85
sg9
VSchoolgirl
p86
sg11
VBridget
p87
sg13
V192
p88
sg15
g68
sg17
g18
sg19
g20
sg21
VSM
p89
sg23
(lp90
g1
(g25
g3
Ntp91
Rp92
(dp93
g29
V399
p94
sg31
VBidoof
p95
sg33
g50
sg35
V6
p96
sg36
(lp97
Vrollout
p98
aVcrunch
p99
aVsuperpower
p100
aVyawn
p101
asg41
g42
sg43
Vsimple
p102
sbasg58
I00
sg59
g60
sbag1
(g2
g3
Ntp103
Rp104
(dp105
g7
VVSSchoolboy.png
p106
sg9
VSchoolboy
p107
sg11
VBrighton
p108
sg13
V96
p109
sg15
V3
p110
sg17
g18
sg19
g20
sg21
VSM
p111
sg23
(lp112
g1
(g25
g3
Ntp113
Rp114
(dp115
g29
V511
p116
sg31
VPansage
p117
sg33
g34
sg35
g110
sg36
(lp118
Vseed-bomb
p119
aVgrass-knot
p120
aVacrobatics
p121
aVplay-nice
p122
asg41
g42
sg43
Vgluttony
p123
sbag1
(g25
g3
Ntp124
Rp125
(dp126
g29
V513
p127
sg31
VPansear
p128
sg33
g34
sg35
g110
sg36
(lp129
Vflame-burst
p130
aVincinerate
p131
aVacrobatics
p132
aVplay-nice
p133
asg41
g42
sg43
Vgluttony
p134
sbag1
(g25
g3
Ntp135
Rp136
(dp137
g29
V515
p138
sg31
VPanpour
p139
sg33
g34
sg35
g110
sg36
(lp140
Vfling
p141
aVscald
p142
aVacrobatics
p143
aVplay-nice
p144
asg41
g42
sg43
Vgluttony
p145
sbasg58
I00
sg59
g60
sba.