(lp0
ccopy_reg
_reconstructor
p1
(c__main__
Trainer
p2
c__builtin__
object
p3
Ntp4
Rp5
(dp6
VtSprite
p7
VSpr RG Lass.png
p8
sVtClass
p9
VLass
p10
sVtName
p11
V
p12
sVtMoney
p13
V465
p14
sVtPokeCount
p15
V3
p16
sVtLocation
p17
Vwiki/Kanto_Route_4
p18
sVtRegion
p19
VKanto
p20
sVtGame
p21
VRGB
p22
sVtPokes
p23
(lp24
g1
(c__main__
FinishedPokemon
p25
g3
Ntp26
Rp27
(dp28
VpDexNo
p29
V046
p30
sVpSpecies
p31
VParas
p32
sVpGender
p33
VU
p34
sVpLevel
p35
V31
p36
sVpMoves
p37
(lp38
Vstun-spore
p39
aVleech-life
p40
aVspore
p41
aVslash
p42
asVpHold
p43
g12
sVpAbility
p44
Veffect-spore
p45
sbag1
(g25
g3
Ntp46
Rp47
(dp48
g29
V046
p49
sg31
VParas
p50
sg33
g34
sg35
V31
p51
sg37
(lp52
Vstun-spore
p53
aVleech-life
p54
aVspore
p55
aVslash
p56
asg43
g12
sg44
Veffect-spore
p57
sbag1
(g25
g3
Ntp58
Rp59
(dp60
g29
V047
p61
sg31
VParasect
p62
sg33
g34
sg35
V31
p63
sg37
(lp64
Vleech-life
p65
ag65
aVspore
p66
aVslash
p67
asg43
g12
sg44
Veffect-spore
p68
sbasVbossFlag
p69
I00
sVtLongGame
p70
Vred-blue
p71
sbag1
(g2
g3
Ntp72
Rp73
(dp74
g7
VSpr GS Picnicker.png
p75
sg9
VPicnicker
p76
sg11
VHope
p77
sg13
V680
p78
sg15
V1
p79
sg17
g18
sg19
g20
sg21
VGS
p80
sg23
(lp81
g1
(g25
g3
Ntp82
Rp83
(dp84
g29
V180
p85
sg31
VFlaaffy
p86
sg33
VF
p87
sg35
V34
p88
sg37
(lp89
Vthunder-wave
p90
aVthunder
p91
aVlight-screen
p92
aVcotton-spore
p93
asg43
g12
sg44
Vstatic
p94
sbasg69
I00
sg70
Vgold-silver
p95
sbag1
(g2
g3
Ntp96
Rp97
(dp98
g7
VSpr GS Bird Keeper.png
p99
sg9
VBird Keeper
p100
sg11
VHank
p101
sg13
V816
p102
sg15
V2
p103
sg17
g18
sg19
g20
sg21
g80
sg23
(lp104
g1
(g25
g3
Ntp105
Rp106
(dp107
g29
V016
p108
sg31
VPidgey
p109
sg33
VM
p110
sg35
V12
p111
sg37
(lp112
Vtackle
p113
aVagility
p114
aVquick-attack
p115
aVmirror-move
p116
asg43
g12
sg44
Vkeen-eye
p117
sbag1
(g25
g3
Ntp118
Rp119
(dp120
g29
V018
p121
sg31
VPidgeot
p122
sg33
g110
sg35
V34
p123
sg37
(lp124
Vagility
p125
aVquick-attack
p126
ag126
aVmirror-move
p127
asg43
g12
sg44
Vtangled-feet
p128
sbasg69
I00
sg70
g95
sbag1
(g2
g3
Ntp129
Rp130
(dp131
g7
VSpr GS Picnicker.png
p132
sg9
VPicnicker
p133
sg11
VSharon
p134
sg13
V660
p135
sg15
g103
sg17
g18
sg19
g20
sg21
g80
sg23
(lp136
g1
(g25
g3
Ntp137
Rp138
(dp139
g29
V162
p140
sg31
VFurret
p141
sg33
g87
sg35
V31
p142
sg37
(lp143
Vdefense-curl
p144
aVamnesia
p145
aVfury-swipes
p146
aVrest
p147
asg43
g12
sg44
Vrun-away
p148
sbag1
(g25
g3
Ntp149
Rp150
(dp151
g29
V078
p152
sg31
VRapidash
p153
sg33
g87
sg35
V33
p154
sg37
(lp155
Vember
p156
aVfire-spin
p157
aVagility
p158
aVfire-blast
p159
asg43
g12
sg44
Vrun-away
p160
sbasg69
I00
sg70
g95
sbag1
(g2
g3
Ntp161
Rp162
(dp163
g7
VSpr FRLG Lass.png
p164
sg9
VLass
p165
sg11
VCrissy
p166
sg13
V496
p167
sg15
g16
sg17
g18
sg19
g20
sg21
VFRLG
p168
sg23
(lp169
g1
(g25
g3
Ntp170
Rp171
(dp172
g29
V046
p173
sg31
VParas
p174
sg33
g87
sg35
V31
p175
sg37
(lp176
Vspore
p177
aVslash
p178
aVgiga-drain
p179
aVaromatherapy
p180
asg43
g12
sg44
Veffect-spore
p181
sbag1
(g25
g3
Ntp182
Rp183
(dp184
g29
V046
p185
sg31
VParas
p186
sg33
g87
sg35
V31
p187
sg37
(lp188
Vspore
p189
aVslash
p190
aVgiga-drain
p191
aVaromatherapy
p192
asg43
g12
sg44
Vdry-skin
p193
sbag1
(g25
g3
Ntp194
Rp195
(dp196
g29
V047
p197
sg31
VParasect
p198
sg33
g87
sg35
V31
p199
sg37
(lp200
Vspore
p201
aVslash
p202
aVgiga-drain
p203
aVaromatherapy
p204
asg43
g12
sg44
Veffect-spore
p205
sbasg69
I00
sg70
Vfirered-leafgreen
p206
sbag1
(g2
g3
Ntp207
Rp208
(dp209
g7
VSpr DP Picnicker.png
p210
sg9
VPicnicker
p211
sg11
VHope
p212
sg13
V704
p213
sg15
g79
sg17
g18
sg19
g20
sg21
VDP
p214
sg23
(lp215
g1
(g25
g3
Ntp216
Rp217
(dp218
g29
V180
p219
sg31
VFlaaffy
p220
sg33
g87
sg35
V44
p221
sg37
(lp222
Vcharge
p223
aVsignal-beam
p224
aVpower-gem
p225
aVdischarge
p226
asg43
g12
sg44
Vstatic
p227
sbasg69
I00
sg70
Vdiamond-pearl
p228
sbag1
(g2
g3
Ntp229
Rp230
(dp231
g7
VSpr HGSS Bird Keeper.png
p232
sg9
VBird Keeper
p233
sg11
VHank
p234
sg13
V1408
p235
sg15
g103
sg17
g18
sg19
g20
sg21
VHGSS
p236
sg23
(lp237
g1
(g25
g3
Ntp238
Rp239
(dp240
g29
V016
p241
sg31
VPidgey
p242
sg33
g110
sg35
V13
p243
sg37
(lp244
Vfeather-dance
p245
aVroost
p246
aVtailwind
p247
aVair-slash
p248
asg43
g12
sg44
Vtangled-feet
p249
sbag1
(g25
g3
Ntp250
Rp251
(dp252
g29
V018
p253
sg31
VPidgeot
p254
sg33
g110
sg35
V44
p255
sg37
(lp256
Vfeather-dance
p257
aVroost
p258
aVtailwind
p259
aVair-slash
p260
asg43
g12
sg44
Vkeen-eye
p261
sbasg69
I00
sg70
Vheartgold-soulsilver
p262
sbag1
(g2
g3
Ntp263
Rp264
(dp265
g7
VSpr DP Picnicker.png
p266
sg9
VPicnicker
p267
sg11
VSharon
p268
sg13
V688
p269
sg15
g103
sg17
g18
sg19
g20
sg21
g214
sg23
(lp270
g1
(g25
g3
Ntp271
Rp272
(dp273
g29
V162
p274
sg31
VFurret
p275
sg33
g87
sg35
V41
p276
sg37
(lp277
Vhelping-hand
p278
aVhyper-voice
p279
aVme-first
p280
aVsucker-punch
p281
asg43
g12
sg44
Vrun-away
p282
sbag1
(g25
g3
Ntp283
Rp284
(dp285
g29
V078
p286
sg31
VRapidash
p287
sg33
g87
sg35
V43
p288
sg37
(lp289
Vmegahorn
p290
aVbounce
p291
aVflare-blitz
p292
aVpoison-jab
p293
asg43
g12
sg44
Vflash-fire
p294
sbasg69
I00
sg70
g228
sbag1
(g2
g3
Ntp295
Rp296
(dp297
g7
VVSCoach Trainer M PE.png
p298
sg9
VCoach Trainer
p299
sg11
VOberon
p300
sg13
V1,300
p301
sg15
g79
sg17
g18
sg19
g20
sg21
VLGPE
p302
sg23
(lp303
g1
(g25
g3
Ntp304
Rp305
(dp306
g29
V052
p307
sg31
VMeowth
p308
sg33
g87
sg35
V13
p309
sg37
(lp310
Vassurance
p311
aVnight-slash
p312
aVnasty-plot
p313
aVcaptivate
p314
asg43
g12
sg44
Vpickup
p315
sbasg69
I00
sg70
Vsun-moon
p316
sba.