(lp0
ccopy_reg
_reconstructor
p1
(c__main__
Trainer
p2
c__builtin__
object
p3
Ntp4
Rp5
(dp6
VtSprite
p7
VVSCoach Trainer F PE.png
p8
sVtClass
p9
VCoach Trainer
p10
sVtName
p11
VMable
p12
sVtMoney
p13
V4,500
p14
sVtPokeCount
p15
V3
p16
sVtLocation
p17
Vwiki/Kanto_Power_Plant
p18
sVtRegion
p19
VKanto
p20
sVtGame
p21
VLGPE
p22
sVtPokes
p23
(lp24
g1
(c__main__
FinishedPokemon
p25
g3
Ntp26
Rp27
(dp28
VpDexNo
p29
V139
p30
sVpSpecies
p31
VOmastar
p32
sVpGender
p33
VM
p34
sVpLevel
p35
V44
p36
sVpMoves
p37
(lp38
Vmud-shot
p39
aVrock-blast
p40
aVbrine
p41
aVshell-smash
p42
asVpHold
p43
V
p44
sVpAbility
p45
Vshell-armor
p46
sbag1
(g25
g3
Ntp47
Rp48
(dp49
g29
V141
p50
sg31
VKabutops
p51
sg33
g34
sg35
V44
p52
sg37
(lp53
Vwring-out
p54
aVnight-slash
p55
ag55
aVaqua-jet
p56
asg43
g44
sg45
Vbattle-armor
p57
sbag1
(g25
g3
Ntp58
Rp59
(dp60
g29
V142
p61
sg31
VAerodactyl
p62
sg33
g34
sg35
V45
p63
sg37
(lp64
Vfire-fang
p65
aViron-head
p66
ag66
aVsky-drop
p67
asg43
g44
sg45
Vrock-head
p68
sbasVbossFlag
p69
I00
sVtLongGame
p70
Vsun-moon
p71
sba.