(lp0
ccopy_reg
_reconstructor
p1
(c__main__
Trainer
p2
c__builtin__
object
p3
Ntp4
Rp5
(dp6
VtSprite
p7
VSpr GS Bug Catcher.png
p8
sVtClass
p9
VBug Catcher
p10
sVtName
p11
VRob
p12
sVtMoney
p13
V512
p14
sVtPokeCount
p15
V2
p16
sVtLocation
p17
Vwiki/Kanto_Route_2
p18
sVtRegion
p19
VKanto
p20
sVtGame
p21
VGS
p22
sVtPokes
p23
(lp24
g1
(c__main__
FinishedPokemon
p25
g3
Ntp26
Rp27
(dp28
VpDexNo
p29
V015
p30
sVpSpecies
p31
VBeedrill
p32
sVpGender
p33
VM
p34
sVpLevel
p35
V32
p36
sVpMoves
p37
(lp38
Vagility
p39
aVrage
p40
aVfocus-energy
p41
aVpursuit
p42
asVpHold
p43
V
p44
sVpAbility
p45
Vswarm
p46
sbag1
(g25
g3
Ntp47
Rp48
(dp49
g29
V012
p50
sg31
VButterfree
p51
sg33
g34
sg35
V32
p52
sg37
(lp53
Vsleep-powder
p54
aVconfusion
p55
ag55
aVsafeguard
p56
asg43
g44
sg45
Vcompound-eyes
p57
sbasVbossFlag
p58
I00
sVtLongGame
p59
Vgold-silver
p60
sbag1
(g2
g3
Ntp61
Rp62
(dp63
g7
VSpr GS Bug Catcher.png
p64
sg9
VBug Catcher
p65
sg11
VDoug
p66
sg13
V544
p67
sg15
V1
p68
sg17
g18
sg19
g20
sg21
g22
sg23
(lp69
g1
(g25
g3
Ntp70
Rp71
(dp72
g29
V168
p73
sg31
VAriados
p74
sg33
g34
sg35
V34
p75
sg37
(lp76
Vfury-swipes
p77
aVspider-web
p78
aVscary-face
p79
ag79
asg43
g44
sg45
Vinsomnia
p80
sbasg58
I00
sg59
g60
sbag1
(g2
g3
Ntp81
Rp82
(dp83
g7
VSpr GS Bug Catcher.png
p84
sg9
VBug Catcher
p85
sg11
VEd
p86
sg13
V480
p87
sg15
V3
p88
sg17
g18
sg19
g20
sg21
g22
sg23
(lp89
g1
(g25
g3
Ntp90
Rp91
(dp92
g29
V015
p93
sg31
VBeedrill
p94
sg33
g34
sg35
V30
p95
sg37
(lp96
Vagility
p97
aVrage
p98
aVfocus-energy
p99
aVpursuit
p100
asg43
g44
sg45
Vswarm
p101
sbag1
(g25
g3
Ntp102
Rp103
(dp104
g29
V015
p105
sg31
VBeedrill
p106
sg33
g34
sg35
V30
p107
sg37
(lp108
Vagility
p109
aVrage
p110
aVfocus-energy
p111
aVpursuit
p112
asg43
g44
sg45
Vswarm
p113
sbag1
(g25
g3
Ntp114
Rp115
(dp116
g29
V015
p117
sg31
VBeedrill
p118
sg33
g34
sg35
V30
p119
sg37
(lp120
Vagility
p121
aVrage
p122
aVfocus-energy
p123
aVpursuit
p124
asg43
g44
sg45
Vswarm
p125
sbasg58
I00
sg59
g60
sbag1
(g2
g3
Ntp126
Rp127
(dp128
g7
VSpr HGSS Bug Catcher.png
p129
sg9
VBug Catcher
p130
sg11
VEd
p131
sg13
V688
p132
sg15
g88
sg17
g18
sg19
g20
sg21
VHGSS
p133
sg23
(lp134
g1
(g25
g3
Ntp135
Rp136
(dp137
g29
V412
p138
sg31
VBurmy
p139
sg33
g34
sg35
V43
p140
sg37
(lp141
Vtackle
p142
aVprotect
p143
aVhidden-power
p144
aVbug-bite
p145
asg43
g44
sg45
Vshed-skin
p146
sbag1
(g25
g3
Ntp147
Rp148
(dp149
g29
V015
p150
sg31
VBeedrill
p151
sg33
g34
sg35
V43
p152
sg37
(lp153
Vendeavor
p154
aVassurance
p155
aVtoxic-spikes
p156
aVpoison-jab
p157
asg43
g44
sg45
Vswarm
p158
sbag1
(g25
g3
Ntp159
Rp160
(dp161
g29
V012
p162
sg31
VButterfree
p163
sg33
g34
sg35
V43
p164
sg37
(lp165
Vsilver-wind
p166
aVtailwind
p167
aVbug-buzz
p168
aVcaptivate
p169
asg43
g44
sg45
Vcompound-eyes
p170
sbasg58
I00
sg59
Vheartgold-soulsilver
p171
sbag1
(g2
g3
Ntp172
Rp173
(dp174
g7
VSpr HGSS Bug Catcher.png
p175
sg9
VBug Catcher
p176
sg11
VDoug
p177
sg13
V592
p178
sg15
g16
sg17
g18
sg19
g20
sg21
g133
sg23
(lp179
g1
(g25
g3
Ntp180
Rp181
(dp182
g29
V012
p183
sg31
VButterfree
p184
sg33
g34
sg35
V39
p185
sg37
(lp186
Vsilver-wind
p187
aVtailwind
p188
aVbug-buzz
p189
aVcaptivate
p190
asg43
g44
sg45
Vcompound-eyes
p191
sbag1
(g25
g3
Ntp192
Rp193
(dp194
g29
V168
p195
sg31
VAriados
p196
sg33
g34
sg35
V37
p197
sg37
(lp198
Vsucker-punch
p199
aVpoison-jab
p200
aVshadow-sneak
p201
aVbug-bite
p202
asg43
g44
sg45
Vinsomnia
p203
sbasg58
I00
sg59
g171
sbag1
(g2
g3
Ntp204
Rp205
(dp206
g7
VSpr HGSS Bug Catcher.png
p207
sg9
VBug Catcher
p208
sg11
VRob
p209
sg13
V624
p210
sg15
g16
sg17
g18
sg19
g20
sg21
g133
sg23
(lp211
g1
(g25
g3
Ntp212
Rp213
(dp214
g29
V015
p215
sg31
VBeedrill
p216
sg33
g34
sg35
V40
p217
sg37
(lp218
Vendeavor
p219
aVassurance
p220
aVtoxic-spikes
p221
aVpoison-jab
p222
asg43
g44
sg45
Vswarm
p223
sbag1
(g25
g3
Ntp224
Rp225
(dp226
g29
V012
p227
sg31
VButterfree
p228
sg33
g34
sg35
V39
p229
sg37
(lp230
Vsilver-wind
p231
aVtailwind
p232
aVbug-buzz
p233
aVcaptivate
p234
asg43
g44
sg45
Vcompound-eyes
p235
sbasg58
I00
sg59
g171
sbag1
(g2
g3
Ntp236
Rp237
(dp238
g7
VSpr HGSS Bug Catcher.png
p239
sg9
VBug Catcher
p240
sg11
VDoug
p241
sg13
g1
(cmwparserfromhell.wikicode
Wikicode
p242
g3
Ntp243
Rp244
(dp245
V_nodes
p246
g1
(cmwparserfromhell.smart_list.smart_list
SmartList
p247
c__builtin__
list
p248
(lp249
g1
(cmwparserfromhell.nodes.text
Text
p250
g3
Ntp251
Rp252
(dp253
V_value
p254
V640
p255
sbatp256
Rp257
(dp258
V_children
p259
(dp260
sbsbsg15
g16
sg17
g18
sg19
g20
sg21
g133
sg23
(lp261
g1
(g25
g3
Ntp262
Rp263
(dp264
g29
V012
p265
sg31
VButterfree
p266
sg33
g34
sg35
V40
p267
sg37
(lp268
Vsilver-wind
p269
aVtailwind
p270
aVbug-buzz
p271
aVcaptivate
p272
asg43
g44
sg45
Vcompound-eyes
p273
sbag1
(g25
g3
Ntp274
Rp275
(dp276
g29
V168
p277
sg31
VAriados
p278
sg33
g34
sg35
V40
p279
sg37
(lp280
Vsucker-punch
p281
aVpoison-jab
p282
aVshadow-sneak
p283
aVbug-bite
p284
asg43
g44
sg45
Vinsomnia
p285
sbasg58
I00
sg59
g171
sbag1
(g2
g3
Ntp286
Rp287
(dp288
g7
VSpr HGSS Bug Catcher.png
p289
sg9
VBug Catcher
p290
sg11
VRob
p291
sg13
g1
(g242
g3
Ntp292
Rp293
(dp294
g246
g1
(g247
g248
(lp295
g1
(g250
g3
Ntp296
Rp297
(dp298
g254
V672
p299
sbatp300
Rp301
(dp302
g259
(dp303
sbsbsg15
g16
sg17
g18
sg19
g20
sg21
g133
sg23
(lp304
g1
(g25
g3
Ntp305
Rp306
(dp307
g29
V015
p308
sg31
VBeedrill
p309
sg33
g34
sg35
V45
p310
sg37
(lp311
Vendeavor
p312
aVassurance
p313
aVtoxic-spikes
p314
aVpoison-jab
p315
asg43
g44
sg45
Vswarm
p316
sbag1
(g25
g3
Ntp317
Rp318
(dp319
g29
V012
p320
sg31
VButterfree
p321
sg33
g34
sg35
V42
p322
sg37
(lp323
Vsilver-wind
p324
aVtailwind
p325
aVbug-buzz
p326
aVcaptivate
p327
asg43
g44
sg45
Vcompound-eyes
p328
sbasg58
I00
sg59
g171
sba.