(lp0
ccopy_reg
_reconstructor
p1
(c__main__
Trainer
p2
c__builtin__
object
p3
Ntp4
Rp5
(dp6
VtSprite
p7
VSpr GS Cooltrainer F.png
p8
sVtClass
p9
VCooltrainer
p10
sVtName
p11
VMegan
p12
sVtMoney
p13
V1536
p14
sVtPokeCount
p15
V3
p16
sVtLocation
p17
Vwiki/Kanto_Route_27
p18
sVtRegion
p19
VKanto
p20
sVtGame
p21
VGS
p22
sVtPokes
p23
(lp24
g1
(c__main__
FinishedPokemon
p25
g3
Ntp26
Rp27
(dp28
VpDexNo
p29
V001
p30
sVpSpecies
p31
VBulbasaur
p32
sVpGender
p33
VM
p34
sVpLevel
p35
V32
p36
sVpMoves
p37
(lp38
Vpoison-powder
p39
aVsleep-powder
p40
aVsweet-scent
p41
aVsynthesis
p42
asVpHold
p43
V
p44
sVpAbility
p45
Vovergrow
p46
sbag1
(g25
g3
Ntp47
Rp48
(dp49
g29
V002
p50
sg31
VIvysaur
p51
sg33
g34
sg35
V32
p52
sg37
(lp53
Vpoison-powder
p54
aVsleep-powder
p55
aVsweet-scent
p56
aVsynthesis
p57
asg43
g44
sg45
Vovergrow
p58
sbag1
(g25
g3
Ntp59
Rp60
(dp61
g29
V003
p62
sg31
VVenusaur
p63
sg33
g34
sg35
V32
p64
sg37
(lp65
Vpoison-powder
p66
aVsleep-powder
p67
aVsweet-scent
p68
aVsynthesis
p69
asg43
g44
sg45
Vovergrow
p70
sbasVbossFlag
p71
I00
sVtLongGame
p72
Vgold-silver
p73
sbag1
(g2
g3
Ntp74
Rp75
(dp76
g7
VSpr GS Cooltrainer M.png
p77
sg9
VCooltrainer
p78
sg11
VBlake
p79
sg13
V1488
p80
sg15
g16
sg17
g18
sg19
g20
sg21
g22
sg23
(lp81
g1
(g25
g3
Ntp82
Rp83
(dp84
g29
V082
p85
sg31
VMagneton
p86
sg33
VU
p87
sg35
V33
p88
sg37
(lp89
Vscreech
p90
aVswift
p91
aVzap-cannon
p92
aVlock-on
p93
asg43
g44
sg45
Vsturdy
p94
sbag1
(g25
g3
Ntp95
Rp96
(dp97
g29
V195
p98
sg31
VQuagsire
p99
sg33
g34
sg35
V31
p100
sg37
(lp101
Vearthquake
p102
aVhaze
p103
aVamnesia
p104
aVrain-dance
p105
asg43
g44
sg45
Vdamp
p106
sbag1
(g25
g3
Ntp107
Rp108
(dp109
g29
V 102
p110
sg31
VExeggcute
p111
sg33
g34
sg35
V31
p112
sg37
(lp113
Vconfusion
p114
aVhypnosis
p115
aVreflect
p116
aVbarrage
p117
asg43
g44
sg45
Vchlorophyll
p118
sbasg71
I00
sg72
g73
sbag1
(g2
g3
Ntp119
Rp120
(dp121
g7
VSpr GS Bird Keeper.png
p122
sg9
VBird Keeper
p123
sg11
VJose
p124
sg13
V840{{sup/2|GS}}/816{{sup/2|C}}<br><small>Requires {{m|Surf}} and {{m|Whirlpool}}</small>
p125
sg15
V1
p126
sg17
g18
sg19
g20
sg21
g22
sg23
(lp127
g1
(g25
g3
Ntp128
Rp129
(dp130
g29
V083
p131
sg31
VFarfetch'd
p132
sg33
g34
sg35
V35{{sup/2|GS}}/34{{sup/2|C}}
p133
sg37
(lp134
Vpeck
p135
aVagility
p136
aVslash
p137
aVfalse-swipe
p138
asg43
g44
sg45
Vinner-focus
p139
sbasg71
I00
sg72
g73
sbag1
(g2
g3
Ntp140
Rp141
(dp142
g7
VSpr GS Cooltrainer M.png
p143
sg9
VCooltrainer
p144
sg11
VBrian
p145
sg13
V1680
p146
sg15
g126
sg17
g18
sg19
g20
sg21
g22
sg23
(lp147
g1
(g25
g3
Ntp148
Rp149
(dp150
g29
V028
p151
sg31
VSandslash
p152
sg33
g34
sg35
V35
p153
sg37
(lp154
Vswift
p155
aVfury-swipes
p156
aVslash
p157
aVsandstorm
p158
asg43
g44
sg45
Vsand-veil
p159
sbasg71
I00
sg72
g73
sbag1
(g2
g3
Ntp160
Rp161
(dp162
g7
VSpr GS Psychic.png
p163
sg9
VPsychic
p164
sg11
VGilbert
p165
sg13
V1088
p166
sg15
g16
sg17
g18
sg19
g20
sg21
g22
sg23
(lp167
g1
(g25
g3
Ntp168
Rp169
(dp170
g29
V121
p171
sg31
VStarmie
p172
sg33
g87
sg35
V30
p173
sg37
(lp174
Vbubble-beam
p175
aVrecover
p176
aVconfuse-ray
p177
aVrapid-spin
p178
asg43
g44
sg45
Villuminate
p179
sbag1
(g25
g3
Ntp180
Rp181
(dp182
g29
V102
p183
sg31
VExeggcute
p184
sg33
g34
sg35
V30
p185
sg37
(lp186
Vconfusion
p187
aVhypnosis
p188
aVreflect
p189
aVbarrage
p190
asg43
g44
sg45
Vchlorophyll
p191
sbag1
(g25
g3
Ntp192
Rp193
(dp194
g29
V203
p195
sg31
VGirafarig
p196
sg33
g34
sg35
V34
p197
sg37
(lp198
Vconfusion
p199
aVagility
p200
aVbaton-pass
p201
aVcrunch
p202
asg43
g44
sg45
Vearly-bird
p203
sbasg71
I00
sg72
g73
sbag1
(g2
g3
Ntp204
Rp205
(dp206
g7
VSpr GS Cooltrainer F.png
p207
sg9
VCooltrainer
p208
sg11
VReena
p209
sg13
V1488
p210
sg15
g16
sg17
g18
sg19
g20
sg21
g22
sg23
(lp211
g1
(g25
g3
Ntp212
Rp213
(dp214
g29
V121
p215
sg31
VStarmie
p216
sg33
g87
sg35
V31
p217
sg37
(lp218
Vbubble-beam
p219
aVrecover
p220
aVconfuse-ray
p221
aVrapid-spin
p222
asg43
g44
sg45
Vnatural-cure
p223
sbag1
(g25
g3
Ntp224
Rp225
(dp226
g29
V031
p227
sg31
VNidoqueen
p228
sg33
VF
p229
sg35
V33
p230
sg37
(lp231
Vdouble-kick
p232
aVtackle
p233
aVbody-slam
p234
aVtail-whip
p235
asg43
g44
sg45
Vrivalry
p236
sbag1
(g25
g3
Ntp237
Rp238
(dp239
g29
V121
p240
sg31
VStarmie
p241
sg33
g87
sg35
V31
p242
sg37
(lp243
Vbubble-beam
p244
aVrecover
p245
aVconfuse-ray
p246
aVrapid-spin
p247
asg43
g44
sg45
Vnatural-cure
p248
sbasg71
I00
sg72
g73
sbag1
(g2
g3
Ntp249
Rp250
(dp251
g7
VSpr GS Bird Keeper.png
p252
sg9
VBird Keeper
p253
sg11
VJose{{sup/2|GS}}
p254
sg13
g1
(cmwparserfromhell.wikicode
Wikicode
p255
g3
Ntp256
Rp257
(dp258
V_nodes
p259
g1
(cmwparserfromhell.smart_list.smart_list
SmartList
p260
c__builtin__
list
p261
(lp262
g1
(cmwparserfromhell.nodes.text
Text
p263
g3
Ntp264
Rp265
(dp266
V_value
p267
V888
p268
sbatp269
Rp270
(dp271
V_children
p272
(dp273
sbsbsg15
g126
sg17
g18
sg19
g20
sg21
g22
sg23
(lp274
g1
(g25
g3
Ntp275
Rp276
(dp277
g29
V083
p278
sg31
VFarfetch'd
p279
sg33
g34
sg35
V37
p280
sg37
(lp281
Vpeck
p282
aVagility
p283
aVslash
p284
aVfalse-swipe
p285
asg43
g44
sg45
Vinner-focus
p286
sbasg71
I00
sg72
g73
sbag1
(g2
g3
Ntp287
Rp288
(dp289
g7
VSpr GS Bird Keeper.png
p290
sg9
VBird Keeper
p291
sg11
VJose{{sup/2|C}}
p292
sg13
g1
(g255
g3
Ntp293
Rp294
(dp295
g259
g1
(g260
g261
(lp296
g1
(g263
g3
Ntp297
Rp298
(dp299
g267
V864
p300
sbatp301
Rp302
(dp303
g272
(dp304
sbsbsg15
g126
sg17
g18
sg19
g20
sg21
g22
sg23
(lp305
g1
(g25
g3
Ntp306
Rp307
(dp308
g29
V083
p309
sg31
VFarfetch'd
p310
sg33
g34
sg35
V36
p311
sg37
(lp312
Vpeck
p313
aVagility
p314
aVslash
p315
aVfalse-swipe
p316
asg43
g44
sg45
Vinner-focus
p317
sbasg71
I00
sg72
g73
sbag1
(g2
g3
Ntp318
Rp319
(dp320
g7
VSpr GS Cooltrainer F.png
p321
sg9
VCooltrainer
p322
sg11
VReena{{sup/2|GS}}
p323
sg13
g1
(g255
g3
Ntp324
Rp325
(dp326
g259
g1
(g260
g261
(lp327
g1
(g263
g3
Ntp328
Rp329
(dp330
g267
V1584
p331
sbatp332
Rp333
(dp334
g272
(dp335
sbsbsg15
g16
sg17
g18
sg19
g20
sg21
g22
sg23
(lp336
g1
(g25
g3
Ntp337
Rp338
(dp339
g29
V121
p340
sg31
VStarmie
p341
sg33
g87
sg35
V33
p342
sg37
(lp343
Vbubble-beam
p344
aVrecover
p345
aVconfuse-ray
p346
aVrapid-spin
p347
asg43
g44
sg45
Vnatural-cure
p348
sbag1
(g25
g3
Ntp349
Rp350
(dp351
g29
V031
p352
sg31
VNidoqueen
p353
sg33
g229
sg35
V35
p354
sg37
(lp355
Vdouble-kick
p356
aVtackle
p357
aVbody-slam
p358
aVtail-whip
p359
asg43
g44
sg45
Vpoison-point
p360
sbag1
(g25
g3
Ntp361
Rp362
(dp363
g29
V121
p364
sg31
VStarmie
p365
sg33
g87
sg35
V33
p366
sg37
(lp367
Vbubble-beam
p368
aVrecover
p369
aVconfuse-ray
p370
aVrapid-spin
p371
asg43
g44
sg45
Villuminate
p372
sbasg71
I00
sg72
g73
sbag1
(g2
g3
Ntp373
Rp374
(dp375
g7
VSpr GS Cooltrainer F.png
p376
sg9
VCooltrainer
p377
sg11
VReena{{sup/2|C}}{{tt|*|First rematch}}
p378
sg13
V1632
p379
sg15
g16
sg17
g18
sg19
g20
sg21
g22
sg23
(lp380
g1
(g25
g3
Ntp381
Rp382
(dp383
g29
V121
p384
sg31
VStarmie
p385
sg33
g87
sg35
V34
p386
sg37
(lp387
Vbubble-beam
p388
aVrecover
p389
aVconfuse-ray
p390
aVrapid-spin
p391
asg43
g44
sg45
Vnatural-cure
p392
sbag1
(g25
g3
Ntp393
Rp394
(dp395
g29
V031
p396
sg31
VNidoqueen
p397
sg33
g229
sg35
V36
p398
sg37
(lp399
Vdouble-kick
p400
aVtackle
p401
aVbody-slam
p402
aVtail-whip
p403
asg43
g44
sg45
Vpoison-point
p404
sbag1
(g25
g3
Ntp405
Rp406
(dp407
g29
V121
p408
sg31
VStarmie
p409
sg33
g87
sg35
V34
p410
sg37
(lp411
Vbubble-beam
p412
aVrecover
p413
aVconfuse-ray
p414
aVrapid-spin
p415
asg43
g44
sg45
Vnatural-cure
p416
sbasg71
I00
sg72
g73
sbag1
(g2
g3
Ntp417
Rp418
(dp419
g7
VSpr GS Cooltrainer F.png
p420
sg9
VCooltrainer
p421
sg11
VReena{{sup/2|C}}{{tt|*|Second rematch onward}}
p422
sg13
V1824
p423
sg15
g16
sg17
g18
sg19
g20
sg21
g22
sg23
(lp424
g1
(g25
g3
Ntp425
Rp426
(dp427
g29
V121
p428
sg31
VStarmie
p429
sg33
g87
sg35
V38
p430
sg37
(lp431
Vbubble-beam
p432
aVrecover
p433
aVconfuse-ray
p434
aVrapid-spin
p435
asg43
g44
sg45
Villuminate
p436
sbag1
(g25
g3
Ntp437
Rp438
(dp439
g29
V031
p440
sg31
VNidoqueen
p441
sg33
g229
sg35
V40
p442
sg37
(lp443
Vdouble-kick
p444
aVtackle
p445
aVbody-slam
p446
aVtail-whip
p447
asg43
g44
sg45
Vpoison-point
p448
sbag1
(g25
g3
Ntp449
Rp450
(dp451
g29
V121
p452
sg31
VStarmie
p453
sg33
g87
sg35
V38
p454
sg37
(lp455
Vbubble-beam
p456
aVrecover
p457
aVconfuse-ray
p458
aVrapid-spin
p459
asg43
g44
sg45
Villuminate
p460
sbasg71
I00
sg72
g73
sbag1
(g2
g3
Ntp461
Rp462
(dp463
g7
VSpr HGSS Ace Trainer F.png
p464
sg9
VAce Trainer
p465
sg11
VMegan
p466
sg13
V1920
p467
sg15
g16
sg17
g18
sg19
g20
sg21
VHGSS
p468
sg23
(lp469
g1
(g25
g3
Ntp470
Rp471
(dp472
g29
V001
p473
sg31
VBulbasaur
p474
sg33
g34
sg35
V32
p475
sg37
(lp476
Vsweet-scent
p477
aVsynthesis
p478
aVworry-seed
p479
aVseed-bomb
p480
asg43
g44
sg45
Vovergrow
p481
sbag1
(g25
g3
Ntp482
Rp483
(dp484
g29
V002
p485
sg31
VIvysaur
p486
sg33
g34
sg35
V32
p487
sg37
(lp488
Vsleep-powder
p489
aVsweet-scent
p490
aVsynthesis
p491
aVworry-seed
p492
asg43
g44
sg45
Vovergrow
p493
sbag1
(g25
g3
Ntp494
Rp495
(dp496
g29
V003
p497
sg31
VVenusaur
p498
sg33
g34
sg35
V32
p499
sg37
(lp500
Vpetal-dance
p501
aVsweet-scent
p502
aVsynthesis
p503
aVworry-seed
p504
asg43
g44
sg45
Vovergrow
p505
sbasg71
I00
sg72
Vheartgold-soulsilver
p506
sbag1
(g2
g3
Ntp507
Rp508
(dp509
g7
VSpr HGSS Ace Trainer M.png
p510
sg9
VAce Trainer
p511
sg11
VBlake
p512
sg13
V1860
p513
sg15
g16
sg17
g18
sg19
g20
sg21
g468
sg23
(lp514
g1
(g25
g3
Ntp515
Rp516
(dp517
g29
V082
p518
sg31
VMagneton
p519
sg33
g87
sg35
V33
p520
sg37
(lp521
Vmagnet-rise
p522
aVmirror-shot
p523
aVdischarge
p524
aVmagnet-bomb
p525
asg43
g44
sg45
Vsturdy
p526
sbag1
(g25
g3
Ntp527
Rp528
(dp529
g29
V195
p530
sg31
VQuagsire
p531
sg33
g34
sg35
V31
p532
sg37
(lp533
Vmud-sport
p534
aVmuddy-water
p535
aVmud-shot
p536
aVmud-bomb
p537
asg43
g44
sg45
Vdamp
p538
sbag1
(g25
g3
Ntp539
Rp540
(dp541
g29
V102
p542
sg31
VExeggcute
p543
sg33
g34
sg35
V31
p544
sg37
(lp545
Vuproar
p546
aVbullet-seed
p547
aVnatural-gift
p548
aVworry-seed
p549
asg43
g44
sg45
Vchlorophyll
p550
sbasg71
I00
sg72
g506
sbag1
(g2
g3
Ntp551
Rp552
(dp553
g7
VSpr HGSS Bird Keeper.png
p554
sg9
VBird Keeper
p555
sg11
VJose
p556
sg13
V1280<br><small>Requires {{m|Surf}} and {{m|Whirlpool}}</small>
p557
sg15
g126
sg17
g18
sg19
g20
sg21
g468
sg23
(lp558
g1
(g25
g3
Ntp559
Rp560
(dp561
g29
V083
p562
sg31
VFarfetch'd
p563
sg33
g34
sg35
V40
p564
sg37
(lp565
Vfeint
p566
aVpoison-jab
p567
aVnight-slash
p568
aVair-slash
p569
asg43
g44
sg45
Vinner-focus
p570
sbasg71
I00
sg72
g506
sbag1
(g2
g3
Ntp571
Rp572
(dp573
g7
VSpr HGSS Ace Trainer M.png
p574
sg9
VAce Trainer
p575
sg11
VBrian
p576
sg13
V2100
p577
sg15
g126
sg17
g18
sg19
g20
sg21
g468
sg23
(lp578
g1
(g25
g3
Ntp579
Rp580
(dp581
g29
V179
p582
sg31
VMareep
p583
sg33
g34
sg35
V35
p584
sg37
(lp585
Vcharge
p586
aVsignal-beam
p587
aVpower-gem
p588
aVdischarge
p589
asg43
g44
sg45
Vstatic
p590
sbasg71
I00
sg72
g506
sbag1
(g2
g3
Ntp591
Rp592
(dp593
g7
VSpr DP Psychic M.png
p594
sg9
VPsychic
p595
sg11
VEli
p596
sg13
V1088
p597
sg15
g16
sg17
g18
sg19
g20
sg21
VDP
p598
sg23
(lp599
g1
(g25
g3
Ntp600
Rp601
(dp602
g29
V121
p603
sg31
VStarmie
p604
sg33
g87
sg35
V30
p605
sg37
(lp606
Vrecover
p607
aVconfuse-ray
p608
aVswift
p609
aVrapid-spin
p610
asg43
g44
sg45
Villuminate
p611
sbag1
(g25
g3
Ntp612
Rp613
(dp614
g29
V102
p615
sg31
VExeggcute
p616
sg33
g34
sg35
V30
p617
sg37
(lp618
Vuproar
p619
aVbullet-seed
p620
aVnatural-gift
p621
aVworry-seed
p622
asg43
g44
sg45
Vchlorophyll
p623
sbag1
(g25
g3
Ntp624
Rp625
(dp626
g29
V203
p627
sg31
VGirafarig
p628
sg33
g34
sg35
V34
p629
sg37
(lp630
Vpower-swap
p631
aVguard-swap
p632
aVzen-headbutt
p633
aVdouble-hit
p634
asg43
g44
sg45
Vinner-focus
p635
sbasg71
I00
sg72
Vdiamond-pearl
p636
sbag1
(g2
g3
Ntp637
Rp638
(dp639
g7
VSpr HGSS Ace Trainer F.png
p640
sg9
VAce Trainer
p641
sg11
VReena
p642
sg13
V2160
p643
sg15
g16
sg17
g18
sg19
g20
sg21
g468
sg23
(lp644
g1
(g25
g3
Ntp645
Rp646
(dp647
g29
V058
p648
sg31
VGrowlithe
p649
sg33
g34
sg35
V36
p650
sg37
(lp651
Vhelping-hand
p652
aVodor-sleuth
p653
aVflare-blitz
p654
aVfire-fang
p655
asg43
g44
sg45
Vflash-fire
p656
sbag1
(g25
g3
Ntp657
Rp658
(dp659
g29
V030
p660
sg31
VNidorina
p661
sg33
g229
sg35
V33
p662
sg37
(lp663
Vhelping-hand
p664
aVpoison-fang
p665
aVtoxic-spikes
p666
aVcaptivate
p667
asg43
g44
sg45
Vpoison-point
p668
sbag1
(g25
g3
Ntp669
Rp670
(dp671
g29
V120
p672
sg31
VStaryu
p673
sg33
g87
sg35
V36
p674
sg37
(lp675
Vcamouflage
p676
aVcosmic-power
p677
aVgyro-ball
p678
aVpower-gem
p679
asg43
g44
sg45
Vnatural-cure
p680
sbasg71
I00
sg72
g506
sbag1
(g2
g3
Ntp681
Rp682
(dp683
g7
VSpr HGSS Bird Keeper.png
p684
sg9
VBird Keeper
p685
sg11
VJose{{tt|*|First rematch}}
p686
sg13
V1408
p687
sg15
g126
sg17
g18
sg19
g20
sg21
g468
sg23
(lp688
g1
(g25
g3
Ntp689
Rp690
(dp691
g29
V083
p692
sg31
VFarfetch'd
p693
sg33
g34
sg35
V44
p694
sg37
(lp695
Vfeint
p696
aVpoison-jab
p697
aVnight-slash
p698
aVair-slash
p699
asg43
g44
sg45
Vinner-focus
p700
sbasg71
I00
sg72
g506
sbag1
(g2
g3
Ntp701
Rp702
(dp703
g7
VSpr HGSS Bird Keeper.png
p704
sg9
VBird Keeper
p705
sg11
VJose{{tt|*|Second rematch}}
p706
sg13
V1408
p707
sg15
V2
p708
sg17
g18
sg19
g20
sg21
g468
sg23
(lp709
g1
(g25
g3
Ntp710
Rp711
(dp712
g29
V083
p713
sg31
VFarfetch'd
p714
sg33
g34
sg35
V35
p715
sg37
(lp716
Vfeint
p717
aVpoison-jab
p718
aVnight-slash
p719
aVair-slash
p720
asg43
g44
sg45
Vinner-focus
p721
sbag1
(g25
g3
Ntp722
Rp723
(dp724
g29
V083
p725
sg31
VFarfetch'd
p726
sg33
g34
sg35
V45
p727
sg37
(lp728
Vfeint
p729
aVpoison-jab
p730
aVnight-slash
p731
aVair-slash
p732
asg43
g44
sg45
Vkeen-eye
p733
sbasg71
I00
sg72
g506
sbag1
(g2
g3
Ntp734
Rp735
(dp736
g7
VSpr HGSS Bird Keeper.png
p737
sg9
VBird Keeper
p738
sg11
VJose{{tt|*|Third rematch onward}}
p739
sg13
V1696
p740
sg15
g16
sg17
g18
sg19
g20
sg21
g468
sg23
(lp741
g1
(g25
g3
Ntp742
Rp743
(dp744
g29
V083
p745
sg31
VFarfetch'd
p746
sg33
g34
sg35
V50
p747
sg37
(lp748
Vfeint
p749
aVpoison-jab
p750
aVnight-slash
p751
aVair-slash
p752
asg43
g44
sg45
Vkeen-eye
p753
sbag1
(g25
g3
Ntp754
Rp755
(dp756
g29
V083
p757
sg31
VFarfetch'd
p758
sg33
g34
sg35
V51
p759
sg37
(lp760
Vfeint
p761
aVpoison-jab
p762
aVnight-slash
p763
aVair-slash
p764
asg43
g44
sg45
Vkeen-eye
p765
sbag1
(g25
g3
Ntp766
Rp767
(dp768
g29
V083
p769
sg31
VFarfetch'd
p770
sg33
g34
sg35
V53
p771
sg37
(lp772
Vfeint
p773
aVpoison-jab
p774
aVnight-slash
p775
aVair-slash
p776
asg43
g44
sg45
Vkeen-eye
p777
sbasg71
I00
sg72
g506
sbag1
(g2
g3
Ntp778
Rp779
(dp780
g7
VSpr HGSS Ace Trainer F.png
p781
sg9
VAce Trainer
p782
sg11
VReena{{tt|*|First rematch}}
p783
sg13
V2280
p784
sg15
g16
sg17
g18
sg19
g20
sg21
g468
sg23
(lp785
g1
(g25
g3
Ntp786
Rp787
(dp788
g29
V058
p789
sg31
VGrowlithe
p790
sg33
g34
sg35
V38
p791
sg37
(lp792
Vhelping-hand
p793
aVodor-sleuth
p794
aVflare-blitz
p795
aVfire-fang
p796
asg43
g44
sg45
Vintimidate
p797
sbag1
(g25
g3
Ntp798
Rp799
(dp800
g29
V030
p801
sg31
VNidorina
p802
sg33
g229
sg35
V36
p803
sg37
(lp804
Vhelping-hand
p805
aVpoison-fang
p806
aVtoxic-spikes
p807
aVcaptivate
p808
asg43
g44
sg45
Vpoison-point
p809
sbag1
(g25
g3
Ntp810
Rp811
(dp812
g29
V120
p813
sg31
VStaryu
p814
sg33
g87
sg35
V38
p815
sg37
(lp816
Vcamouflage
p817
aVcosmic-power
p818
aVgyro-ball
p819
aVpower-gem
p820
asg43
g44
sg45
Villuminate
p821
sbasg71
I00
sg72
g506
sbag1
(g2
g3
Ntp822
Rp823
(dp824
g7
VSpr HGSS Ace Trainer F.png
p825
sg9
VAce Trainer
p826
sg11
VReena
p827
sg13
g1
(g255
g3
Ntp828
Rp829
(dp830
g259
g1
(g260
g261
(lp831
g1
(g263
g3
Ntp832
Rp833
(dp834
g267
V2820
p835
sbatp836
Rp837
(dp838
g272
(dp839
sbsbsg15
g16
sg17
g18
sg19
g20
sg21
g468
sg23
(lp840
g1
(g25
g3
Ntp841
Rp842
(dp843
g29
V059
p844
sg31
VArcanine
p845
sg33
g34
sg35
V47
p846
sg37
(lp847
Vextreme-speed
p848
aVodor-sleuth
p849
aVthunder-fang
p850
aVfire-fang
p851
asg43
g44
sg45
Vintimidate
p852
sbag1
(g25
g3
Ntp853
Rp854
(dp855
g29
V031
p856
sg31
VNidoqueen
p857
sg33
g229
sg35
V43
p858
sg37
(lp859
Vtail-whip
p860
aVpoison-sting
p861
aVsuperpower
p862
aVearth-power
p863
asg43
g44
sg45
Vrivalry
p864
sbag1
(g25
g3
Ntp865
Rp866
(dp867
g29
V121
p868
sg31
VStarmie
p869
sg33
g87
sg35
V47
p870
sg37
(lp871
Vrecover
p872
aVconfuse-ray
p873
aVswift
p874
aVrapid-spin
p875
asg43
g44
sg45
Vnatural-cure
p876
sbasg71
I00
sg72
g506
sba.