(lp0
ccopy_reg
_reconstructor
p1
(c__main__
Trainer
p2
c__builtin__
object
p3
Ntp4
Rp5
(dp6
VtSprite
p7
VVSAce Trainer F PE.png
p8
sVtClass
p9
VAce Trainer
p10
sVtName
p11
VYvette
p12
sVtMoney
p13
V2,800<br/>5 [[Ultra Ball]]s
p14
sVtPokeCount
p15
V3
p16
sVtLocation
p17
Vwiki/Kanto_Route_7
p18
sVtRegion
p19
VKanto
p20
sVtGame
p21
VLGPE
p22
sVtPokes
p23
(lp24
g1
(c__main__
FinishedPokemon
p25
g3
Ntp26
Rp27
(dp28
VpDexNo
p29
V026
p30
sVpSpecies
p31
VRaichu
p32
sVpGender
p33
VM
p34
sVpLevel
p35
V28
p36
sVpMoves
p37
(lp38
Vtail-whip
p39
aVthunder-shock
p40
aVthunderbolt
p41
aVquick-attack
p42
asVpHold
p43
V
p44
sVpAbility
p45
Vstatic
p46
sbag1
(g25
g3
Ntp47
Rp48
(dp49
g29
V051
p50
sg31
VDugtrio
p51
sg33
VF
p52
sg35
V29
p53
sg37
(lp54
Vearth-power
p55
aVmud-bomb
p56
aVbulldoze
p57
aVrototiller
p58
asg43
g44
sg45
Varena-trap
p59
sbag1
(g25
g3
Ntp60
Rp61
(dp62
g29
V086
p63
sg31
VSeel
p64
sg33
g34
sg35
V28
p65
sg37
(lp66
Vaqua-ring
p67
aVaqua-tail
p68
aVice-shard
p69
aVaqua-jet
p70
asg43
g44
sg45
Vthick-fat
p71
sbasVbossFlag
p72
I00
sVtLongGame
p73
Vsun-moon
p74
sbag1
(g2
g3
Ntp75
Rp76
(dp77
g7
VVSCoach Trainer M PE.png
p78
sg9
VCoach Trainer
p79
sg11
VAlpesh
p80
sg13
V3,000
p81
sg15
V2
p82
sg17
g18
sg19
g20
sg21
g22
sg23
(lp83
g1
(g25
g3
Ntp84
Rp85
(dp86
g29
V083
p87
sg31
VFarfetch'd
p88
sg33
g34
sg35
V29
p89
sg37
(lp90
Vair-slash
p91
aVbrave-bird
p92
ag92
aVacrobatics
p93
asg43
g44
sg45
Vinner-focus
p94
sbag1
(g25
g3
Ntp95
Rp96
(dp97
g29
V040
p98
sg31
VWigglytuff
p99
sg33
g34
sg35
V30
p100
sg37
(lp101
Vsing
p102
aVdisable
p103
aVdefense-curl
p104
aVplay-rough
p105
asg43
g44
sg45
Vcute-charm
p106
sbasg72
I00
sg73
g74
sba.