(lp0
ccopy_reg
_reconstructor
p1
(c__main__
Trainer
p2
c__builtin__
object
p3
Ntp4
Rp5
(dp6
VtSprite
p7
VSpr FRLG Swimmer F.png
p8
sVtClass
p9
VSwimmer\u2640
p10
sVtName
p11
VAbigail
p12
sVtMoney
p13
V148
p14
sVtPokeCount
p15
V3
p16
sVtLocation
p17
Vwiki/Kindle_Road
p18
sVtRegion
p19
Vlands
p20
sVtGame
p21
VFRLG
p22
sVtPokes
p23
(lp24
g1
(c__main__
FinishedPokemon
p25
g3
Ntp26
Rp27
(dp28
VpDexNo
p29
V054
p30
sVpSpecies
p31
VPsyduck
p32
sVpGender
p33
VF
p34
sVpLevel
p35
V35
p36
sVpMoves
p37
(lp38
Vscreech
p39
aVfury-swipes
p40
aVpsych-up
p41
aVwater-sport
p42
asVpHold
p43
V
p44
sVpAbility
p45
Vcloud-nine
p46
sbag1
(g25
g3
Ntp47
Rp48
(dp49
g29
V054
p50
sg31
VPsyduck
p51
sg33
g34
sg35
V36
p52
sg37
(lp53
Vscreech
p54
aVfury-swipes
p55
aVpsych-up
p56
aVwater-sport
p57
asg43
g44
sg45
Vdamp
p58
sbag1
(g25
g3
Ntp59
Rp60
(dp61
g29
V055
p62
sg31
VGolduck
p63
sg33
g34
sg35
V37
p64
sg37
(lp65
Vscreech
p66
aVfury-swipes
p67
aVpsych-up
p68
aVwater-sport
p69
asg43
g44
sg45
Vcloud-nine
p70
sbasVbossFlag
p71
I00
sVtLongGame
p72
Vfirered-leafgreen
p73
sbag1
(g2
g3
Ntp74
Rp75
(dp76
g7
VSpr FRLG Picnicker.png
p77
sg9
VPicnicker
p78
sg11
VClaire
p79
sg13
V700
p80
sg15
V4
p81
sg17
g18
sg19
g20
sg21
g22
sg23
(lp82
g1
(g25
g3
Ntp83
Rp84
(dp85
g29
V052
p86
sg31
VMeowth
p87
sg33
g34
sg35
V35
p88
sg37
(lp89
Vslash
p90
aVfeint-attack
p91
aVswagger
p92
aVfake-out
p93
asg43
g44
sg45
Vpickup
p94
sbag1
(g25
g3
Ntp95
Rp96
(dp97
g29
V052
p98
sg31
VMeowth
p99
sg33
g34
sg35
V35
p100
sg37
(lp101
Vslash
p102
aVfeint-attack
p103
aVswagger
p104
aVfake-out
p105
asg43
g44
sg45
Vtechnician
p106
sbag1
(g25
g3
Ntp107
Rp108
(dp109
g29
V025
p110
sg31
VPikachu
p111
sg33
g34
sg35
V35
p112
sg37
(lp113
Vagility
p114
aVquick-attack
p115
aVdouble-team
p116
aVlight-screen
p117
asg43
g44
sg45
Vstatic
p118
sbag1
(g25
g3
Ntp119
Rp120
(dp121
g29
V035
p122
sg31
VClefairy
p123
sg33
g34
sg35
V35
p124
sg37
(lp125
Vmoonlight
p126
aVfollow-me
p127
aVmeteor-mash
p128
aVcosmic-power
p129
asg43
g44
sg45
Vcute-charm
p130
sbasg71
I00
sg72
g73
sbag1
(g2
g3
Ntp131
Rp132
(dp133
g7
VSpr FRLG Crush Girl.png
p134
sg9
VCrush Girl
p135
sg11
VTanya
p136
sg13
V912
p137
sg15
V2
p138
sg17
g18
sg19
g20
sg21
g22
sg23
(lp139
g1
(g25
g3
Ntp140
Rp141
(dp142
g29
V106
p143
sg31
VHitmonlee
p144
sg33
VM
p145
sg35
V38
p146
sg37
(lp147
Vforesight
p148
aVendure
p149
aVrevenge
p150
aVbrick-break
p151
asg43
g44
sg45
Vlimber
p152
sbag1
(g25
g3
Ntp153
Rp154
(dp155
g29
V107
p156
sg31
VHitmonchan
p157
sg33
g145
sg35
V38
p158
sg37
(lp159
Vdetect
p160
aVpursuit
p161
aVrevenge
p162
aVsky-uppercut
p163
asg43
g44
sg45
Vkeen-eye
p164
sbasg71
I00
sg72
g73
sbag1
(g2
g3
Ntp165
Rp166
(dp167
g7
VSpr FRLG Camper.png
p168
sg9
VCamper
p169
sg11
VBryce
p170
sg13
V720
p171
sg15
g16
sg17
g18
sg19
g20
sg21
g22
sg23
(lp172
g1
(g25
g3
Ntp173
Rp174
(dp175
g29
V033
p176
sg31
VNidorino
p177
sg33
g145
sg35
V36
p178
sg37
(lp179
Vpeck
p180
aVfocus-energy
p181
aVflatter
p182
aVhelping-hand
p183
asg43
g44
sg45
Vrivalry
p184
sbag1
(g25
g3
Ntp185
Rp186
(dp187
g29
V020
p188
sg31
VRaticate
p189
sg33
g145
sg35
V36
p190
sg37
(lp191
Vsuper-fang
p192
aVscary-face
p193
aVpursuit
p194
aVendeavor
p195
asg43
g44
sg45
Vrun-away
p196
sbag1
(g25
g3
Ntp197
Rp198
(dp199
g29
V028
p200
sg31
VSandslash
p201
sg33
g145
sg35
V36
p202
sg37
(lp203
Vfury-swipes
p204
aVslash
p205
aVsandstorm
p206
aVsand-tomb
p207
asg43
g44
sg45
Vsand-veil
p208
sbasg71
I00
sg72
g73
sbag1
(g2
g3
Ntp209
Rp210
(dp211
g7
VSpr FRLG Swimmer M.png
p212
sg9
VSwimmer\u2642
p213
sg11
VGarrett
p214
sg13
V152
p215
sg15
g16
sg17
g18
sg19
g20
sg21
g22
sg23
(lp216
g1
(g25
g3
Ntp217
Rp218
(dp219
g29
V090
p220
sg31
VShellder
p221
sg33
g145
sg35
V35
p222
sg37
(lp223
Vwithdraw
p224
aVclamp
p225
aVprotect
p226
aVicicle-spear
p227
asg43
g44
sg45
Vskill-link
p228
sbag1
(g25
g3
Ntp229
Rp230
(dp231
g29
V091
p232
sg31
VCloyster
p233
sg33
g145
sg35
V35
p234
sg37
(lp235
Vwithdraw
p236
aVspike-cannon
p237
aVprotect
p238
aVspikes
p239
asg43
g44
sg45
Vshell-armor
p240
sbag1
(g25
g3
Ntp241
Rp242
(dp243
g29
V008
p244
sg31
VWartortle
p245
sg33
g145
sg35
V38
p246
sg37
(lp247
Vbubble
p248
aVprotect
p249
aVrapid-spin
p250
aVrain-dance
p251
asg43
g44
sg45
Vtorrent
p252
sbasg71
I00
sg72
g73
sbag1
(g2
g3
Ntp253
Rp254
(dp255
g7
VSpr FRLG Crush Kin.png
p256
sg9
VCrush Kin
p257
sg11
VMik & Kia
p258
sg13
V1872
p259
sg15
g138
sg17
g18
sg19
g20
sg21
g22
sg23
(lp260
g1
(g25
g3
Ntp261
Rp262
(dp263
g29
V067
p264
sg31
VMachoke
p265
sg33
g145
sg35
V39
p266
sg37
(lp267
Vdynamic-punch
p268
aVvital-throw
p269
aVcross-chop
p270
aVrevenge
p271
asg43
g44
sg45
Vno-guard
p272
sbag1
(g25
g3
Ntp273
Rp274
(dp275
g29
V057
p276
sg31
VPrimeape
p277
sg33
g145
sg35
V39
p278
sg37
(lp279
Vfocus-energy
p280
aVfury-swipes
p281
aVswagger
p282
aVcross-chop
p283
asg43
g44
sg45
Vanger-point
p284
sbasg71
I00
sg72
g73
sbag1
(g2
g3
Ntp285
Rp286
(dp287
g7
VSpr FRLG Black Belt.png
p288
sg9
VBlack Belt
p289
sg11
VHugh
p290
sg13
V888
p291
sg15
g138
sg17
g18
sg19
g20
sg21
g22
sg23
(lp292
g1
(g25
g3
Ntp293
Rp294
(dp295
g29
V066
p296
sg31
VMachop
p297
sg33
g145
sg35
V37
p298
sg37
(lp299
Vdynamic-punch
p300
aVvital-throw
p301
aVcross-chop
p302
aVrevenge
p303
asg43
g44
sg45
Vguts
p304
sbag1
(g25
g3
Ntp305
Rp306
(dp307
g29
V067
p308
sg31
VMachoke
p309
sg33
g145
sg35
V37
p310
sg37
(lp311
Vdynamic-punch
p312
aVvital-throw
p313
aVcross-chop
p314
aVrevenge
p315
asg43
g44
sg45
Vno-guard
p316
sbasg71
I00
sg72
g73
sbag1
(g2
g3
Ntp317
Rp318
(dp319
g7
VSpr FRLG Black Belt.png
p320
sg9
VBlack Belt
p321
sg11
VShea
p322
sg13
V912
p323
sg15
g138
sg17
g18
sg19
g20
sg21
g22
sg23
(lp324
g1
(g25
g3
Ntp325
Rp326
(dp327
g29
V066
p328
sg31
VMachop
p329
sg33
g145
sg35
V38
p330
sg37
(lp331
Vdynamic-punch
p332
aVvital-throw
p333
aVcross-chop
p334
aVrevenge
p335
asg43
g44
sg45
Vguts
p336
sbag1
(g25
g3
Ntp337
Rp338
(dp339
g29
V067
p340
sg31
VMachoke
p341
sg33
g145
sg35
V38
p342
sg37
(lp343
Vdynamic-punch
p344
aVvital-throw
p345
aVcross-chop
p346
aVrevenge
p347
asg43
g44
sg45
Vno-guard
p348
sbasg71
I00
sg72
g73
sbag1
(g2
g3
Ntp349
Rp350
(dp351
g7
VSpr FRLG Crush Girl.png
p352
sg9
VCrush Girl
p353
sg11
VSharon
p354
sg13
V888
p355
sg15
g138
sg17
g18
sg19
g20
sg21
g22
sg23
(lp356
g1
(g25
g3
Ntp357
Rp358
(dp359
g29
V056
p360
sg31
VMankey
p361
sg33
g145
sg35
V37
p362
sg37
(lp363
Vfocus-energy
p364
aVfury-swipes
p365
aVswagger
p366
aVcross-chop
p367
asg43
g44
sg45
Vanger-point
p368
sbag1
(g25
g3
Ntp369
Rp370
(dp371
g29
V057
p372
sg31
VPrimeape
p373
sg33
g145
sg35
V37
p374
sg37
(lp375
Vfocus-energy
p376
aVfury-swipes
p377
aVswagger
p378
aVcross-chop
p379
asg43
g44
sg45
Vanger-point
p380
sbasg71
I00
sg72
g73
sbag1
(g2
g3
Ntp381
Rp382
(dp383
g7
VSpr FRLG Swimmer M.png
p384
sg9
VSwimmer\u2642
p385
sg11
VFinn
p386
sg13
V152
p387
sg15
V1
p388
sg17
g18
sg19
g20
sg21
g22
sg23
(lp389
g1
(g25
g3
Ntp390
Rp391
(dp392
g29
V121
p393
sg31
VStarmie
p394
sg33
VU
p395
sg35
V38
p396
sg37
(lp397
Vrecover
p398
aVconfuse-ray
p399
aVswift
p400
aVrapid-spin
p401
asg43
g44
sg45
Vnatural-cure
p402
sbasg71
I00
sg72
g73
sbag1
(g2
g3
Ntp403
Rp404
(dp405
g7
VSpr FRLG Swimmer F.png
p406
sg9
VSwimmer\u2640
p407
sg11
VMaria
p408
sg13
V148
p409
sg15
g138
sg17
g18
sg19
g20
sg21
g22
sg23
(lp410
g1
(g25
g3
Ntp411
Rp412
(dp413
g29
V117
p414
sg31
VSeadra
p415
sg33
g34
sg35
V37
p416
sg37
(lp417
Vsmokescreen
p418
aVbubble
p419
aVtwister
p420
aVdragon-dance
p421
asg43
g44
sg45
Vpoison-point
p422
sbag1
(g25
g3
Ntp423
Rp424
(dp425
g29
V117
p426
sg31
VSeadra
p427
sg33
g34
sg35
V37
p428
sg37
(lp429
Vsmokescreen
p430
aVbubble
p431
aVtwister
p432
aVdragon-dance
p433
asg43
g44
sg45
Vpoison-point
p434
sbasg71
I00
sg72
g73
sbag1
(g2
g3
Ntp435
Rp436
(dp437
g7
VSpr FRLG Fisherman.png
p438
sg9
VFisherman
p439
sg11
VTommy
p440
sg13
V1260
p441
sg15
V5
p442
sg17
g18
sg19
g20
sg21
g22
sg23
(lp443
g1
(g25
g3
Ntp444
Rp445
(dp446
g29
V118
p447
sg31
VGoldeen
p448
sg33
g145
sg35
V33
p449
sg37
(lp450
Vwaterfall
p451
aVflail
p452
aVmegahorn
p453
aVwater-sport
p454
asg43
g44
sg45
Vswift-swim
p455
sbag1
(g25
g3
Ntp456
Rp457
(dp458
g29
V118
p459
sg31
VGoldeen
p460
sg33
g145
sg35
V33
p461
sg37
(lp462
Vwaterfall
p463
aVflail
p464
aVmegahorn
p465
aVwater-sport
p466
asg43
g44
sg45
Vwater-veil
p467
sbag1
(g25
g3
Ntp468
Rp469
(dp470
g29
V119
p471
sg31
VSeaking
p472
sg33
g145
sg35
V35
p473
sg37
(lp474
Vwaterfall
p475
aVflail
p476
aVmegahorn
p477
aVwater-sport
p478
asg43
g44
sg45
Vswift-swim
p479
sbag1
(g25
g3
Ntp480
Rp481
(dp482
g29
V119
p483
sg31
VSeaking
p484
sg33
g145
sg35
V35
p485
sg37
(lp486
Vwaterfall
p487
aVflail
p488
aVmegahorn
p489
aVwater-sport
p490
asg43
g44
sg45
Vwater-veil
p491
sbag1
(g25
g3
Ntp492
Rp493
(dp494
g29
V119
p495
sg31
VSeaking
p496
sg33
g145
sg35
V35
p497
sg37
(lp498
Vwaterfall
p499
aVflail
p500
aVmegahorn
p501
aVwater-sport
p502
asg43
g44
sg45
Vswift-swim
p503
sbasg71
I00
sg72
g73
sbag1
(g2
g3
Ntp504
Rp505
(dp506
g7
VSpr FRLG Crush Girl.png
p507
sg9
VCrush Girl
p508
sg11
VTanya{{tt|*|First rematch}}
p509
sg13
V1200
p510
sg15
g138
sg17
g18
sg19
g20
sg21
g22
sg23
(lp511
g1
(g25
g3
Ntp512
Rp513
(dp514
g29
V106
p515
sg31
VHitmonlee
p516
sg33
g145
sg35
V50
p517
sg37
(lp518
Vforesight
p519
aVendure
p520
aVrevenge
p521
aVbrick-break
p522
asg43
g44
sg45
Vreckless
p523
sbag1
(g25
g3
Ntp524
Rp525
(dp526
g29
V107
p527
sg31
VHitmonchan
p528
sg33
g145
sg35
V50
p529
sg37
(lp530
Vdetect
p531
aVpursuit
p532
aVrevenge
p533
aVsky-uppercut
p534
asg43
g44
sg45
Vkeen-eye
p535
sbasg71
I00
sg72
g73
sbag1
(g2
g3
Ntp536
Rp537
(dp538
g7
VSpr FRLG Crush Girl.png
p539
sg9
VCrush Girl
p540
sg11
VTanya{{tt|*|Second rematch onwards}}
p541
sg13
V1320
p542
sg15
g138
sg17
g18
sg19
g20
sg21
g22
sg23
(lp543
g1
(g25
g3
Ntp544
Rp545
(dp546
g29
V106
p547
sg31
VHitmonlee
p548
sg33
g145
sg35
V55
p549
sg37
(lp550
Vforesight
p551
aVendure
p552
aVrevenge
p553
aVbrick-break
p554
asg43
g44
sg45
Vlimber
p555
sbag1
(g25
g3
Ntp556
Rp557
(dp558
g29
V107
p559
sg31
VHitmonchan
p560
sg33
g145
sg35
V55
p561
sg37
(lp562
Vdetect
p563
aVpursuit
p564
aVrevenge
p565
aVsky-uppercut
p566
asg43
g44
sg45
Viron-fist
p567
sbasg71
I00
sg72
g73
sbag1
(g2
g3
Ntp568
Rp569
(dp570
g7
VSpr FRLG Crush Kin.png
p571
sg9
VCrush Kin
p572
sg11
VMik & Kia{{tt|*|First rematch}}
p573
sg13
V2448
p574
sg15
g138
sg17
g18
sg19
g20
sg21
g22
sg23
(lp575
g1
(g25
g3
Ntp576
Rp577
(dp578
g29
V067
p579
sg31
VMachoke
p580
sg33
g145
sg35
V51
p581
sg37
(lp582
Vdynamic-punch
p583
aVvital-throw
p584
aVcross-chop
p585
aVrevenge
p586
asg43
g44
sg45
Vno-guard
p587
sbag1
(g25
g3
Ntp588
Rp589
(dp590
g29
V057
p591
sg31
VPrimeape
p592
sg33
g145
sg35
V51
p593
sg37
(lp594
Vfocus-energy
p595
aVfury-swipes
p596
aVswagger
p597
aVcross-chop
p598
asg43
g44
sg45
Vanger-point
p599
sbasg71
I00
sg72
g73
sbag1
(g2
g3
Ntp600
Rp601
(dp602
g7
VSpr FRLG Crush Kin.png
p603
sg9
VCrush Kin
p604
sg11
VMik & Kia{{tt|*|Second rematch onwards}}
p605
sg13
V2688
p606
sg15
g138
sg17
g18
sg19
g20
sg21
g22
sg23
(lp607
g1
(g25
g3
Ntp608
Rp609
(dp610
g29
V068
p611
sg31
VMachamp
p612
sg33
g145
sg35
V56
p613
sg37
(lp614
Vdynamic-punch
p615
aVvital-throw
p616
aVcross-chop
p617
aVrevenge
p618
asg43
g44
sg45
Vno-guard
p619
sbag1
(g25
g3
Ntp620
Rp621
(dp622
g29
V057
p623
sg31
VPrimeape
p624
sg33
g145
sg35
V56
p625
sg37
(lp626
Vfocus-energy
p627
aVfury-swipes
p628
aVswagger
p629
aVcross-chop
p630
asg43
g44
sg45
Vanger-point
p631
sbasg71
I00
sg72
g73
sbag1
(g2
g3
Ntp632
Rp633
(dp634
g7
VSpr FRLG Black Belt.png
p635
sg9
VBlack Belt
p636
sg11
VHugh{{tt|*|First rematch}}
p637
sg13
V1200
p638
sg15
g138
sg17
g18
sg19
g20
sg21
g22
sg23
(lp639
g1
(g25
g3
Ntp640
Rp641
(dp642
g29
V067
p643
sg31
VMachoke
p644
sg33
g145
sg35
V50
p645
sg37
(lp646
Vdynamic-punch
p647
aVvital-throw
p648
aVcross-chop
p649
aVrevenge
p650
asg43
g44
sg45
Vguts
p651
sbag1
(g25
g3
Ntp652
Rp653
(dp654
g29
V067
p655
sg31
VMachoke
p656
sg33
g145
sg35
V50
p657
sg37
(lp658
Vdynamic-punch
p659
aVvital-throw
p660
aVcross-chop
p661
aVrevenge
p662
asg43
g44
sg45
Vguts
p663
sbasg71
I00
sg72
g73
sbag1
(g2
g3
Ntp664
Rp665
(dp666
g7
VSpr FRLG Black Belt.png
p667
sg9
VBlack Belt
p668
sg11
VHugh{{tt|*|Second rematch onwards}}
p669
sg13
V1320
p670
sg15
g138
sg17
g18
sg19
g20
sg21
g22
sg23
(lp671
g1
(g25
g3
Ntp672
Rp673
(dp674
g29
V067
p675
sg31
VMachoke
p676
sg33
g145
sg35
V55
p677
sg37
(lp678
Vdynamic-punch
p679
aVvital-throw
p680
aVcross-chop
p681
aVrevenge
p682
asg43
g44
sg45
Vno-guard
p683
sbag1
(g25
g3
Ntp684
Rp685
(dp686
g29
V068
p687
sg31
VMachamp
p688
sg33
g145
sg35
V55
p689
sg37
(lp690
Vdynamic-punch
p691
aVvital-throw
p692
aVcross-chop
p693
aVrevenge
p694
asg43
g44
sg45
Vno-guard
p695
sbasg71
I00
sg72
g73
sbag1
(g2
g3
Ntp696
Rp697
(dp698
g7
VSpr FRLG Black Belt.png
p699
sg9
VBlack Belt
p700
sg11
VShea{{tt|*|First rematch}}
p701
sg13
V1200
p702
sg15
g138
sg17
g18
sg19
g20
sg21
g22
sg23
(lp703
g1
(g25
g3
Ntp704
Rp705
(dp706
g29
V067
p707
sg31
VMachoke
p708
sg33
g145
sg35
V50
p709
sg37
(lp710
Vdynamic-punch
p711
aVvital-throw
p712
aVcross-chop
p713
aVrevenge
p714
asg43
g44
sg45
Vguts
p715
sbag1
(g25
g3
Ntp716
Rp717
(dp718
g29
V067
p719
sg31
VMachoke
p720
sg33
g145
sg35
V50
p721
sg37
(lp722
Vdynamic-punch
p723
aVvital-throw
p724
aVcross-chop
p725
aVrevenge
p726
asg43
g44
sg45
Vno-guard
p727
sbasg71
I00
sg72
g73
sbag1
(g2
g3
Ntp728
Rp729
(dp730
g7
VSpr FRLG Black Belt.png
p731
sg9
VBlack Belt
p732
sg11
VShea{{tt|*|Second rematch onwards}}
p733
sg13
V1320
p734
sg15
g138
sg17
g18
sg19
g20
sg21
g22
sg23
(lp735
g1
(g25
g3
Ntp736
Rp737
(dp738
g29
V067
p739
sg31
VMachoke
p740
sg33
g145
sg35
V55
p741
sg37
(lp742
Vdynamic-punch
p743
aVvital-throw
p744
aVcross-chop
p745
aVrevenge
p746
asg43
g44
sg45
Vguts
p747
sbag1
(g25
g3
Ntp748
Rp749
(dp750
g29
V068
p751
sg31
VMachamp
p752
sg33
g145
sg35
V55
p753
sg37
(lp754
Vdynamic-punch
p755
aVvital-throw
p756
aVcross-chop
p757
aVrevenge
p758
asg43
g44
sg45
Vno-guard
p759
sbasg71
I00
sg72
g73
sbag1
(g2
g3
Ntp760
Rp761
(dp762
g7
VSpr FRLG Crush Girl.png
p763
sg9
VCrush Girl
p764
sg11
VSharon{{tt|*|First rematch}}
p765
sg13
V1200
p766
sg15
g138
sg17
g18
sg19
g20
sg21
g22
sg23
(lp767
g1
(g25
g3
Ntp768
Rp769
(dp770
g29
V056
p771
sg31
VMankey
p772
sg33
g145
sg35
V50
p773
sg37
(lp774
Vfocus-energy
p775
aVfury-swipes
p776
aVswagger
p777
aVcross-chop
p778
asg43
g44
sg45
Vvital-spirit
p779
sbag1
(g25
g3
Ntp780
Rp781
(dp782
g29
V057
p783
sg31
VPrimeape
p784
sg33
g145
sg35
V50
p785
sg37
(lp786
Vfocus-energy
p787
aVfury-swipes
p788
aVswagger
p789
aVcross-chop
p790
asg43
g44
sg45
Vvital-spirit
p791
sbasg71
I00
sg72
g73
sbag1
(g2
g3
Ntp792
Rp793
(dp794
g7
VSpr FRLG Crush Girl.png
p795
sg9
VCrush Girl
p796
sg11
VSharon{{tt|*|Second rematch onwards}}
p797
sg13
V1320
p798
sg15
g138
sg17
g18
sg19
g20
sg21
g22
sg23
(lp799
g1
(g25
g3
Ntp800
Rp801
(dp802
g29
V057
p803
sg31
VPrimeape
p804
sg33
g145
sg35
V55
p805
sg37
(lp806
Vfocus-energy
p807
aVfury-swipes
p808
aVswagger
p809
aVcross-chop
p810
asg43
g44
sg45
Vvital-spirit
p811
sbag1
(g25
g3
Ntp812
Rp813
(dp814
g29
V057
p815
sg31
VPrimeape
p816
sg33
g145
sg35
V55
p817
sg37
(lp818
Vfocus-energy
p819
aVfury-swipes
p820
aVswagger
p821
aVcross-chop
p822
asg43
g44
sg45
Vvital-spirit
p823
sbasg71
I00
sg72
g73
sbag1
(g2
g3
Ntp824
Rp825
(dp826
g7
VSpr FRLG Swimmer M.png
p827
sg9
VSwimmer\u2642
p828
sg11
VFinn
p829
sg13
V200
p830
sg15
g388
sg17
g18
sg19
g20
sg21
g22
sg23
(lp831
g1
(g25
g3
Ntp832
Rp833
(dp834
g29
V121
p835
sg31
VStarmie
p836
sg33
g395
sg35
V50
p837
sg37
(lp838
Vrecover
p839
aVconfuse-ray
p840
aVswift
p841
aVrapid-spin
p842
asg43
g44
sg45
Villuminate
p843
sbasg71
I00
sg72
g73
sba.