(lp0
ccopy_reg
_reconstructor
p1
(c__main__
Trainer
p2
c__builtin__
object
p3
Ntp4
Rp5
(dp6
VtSprite
p7
VB2W2 Hugh Back.png
p8
sVtClass
p9
VPokemon Trainer
p10
sVtName
p11
VHugh
p12
sVtMoney
p13
Vn/a
p14
sVtPokeCount
p15
I3
sVtLocation
p16
Vwiki/Lacunosa_Town
p17
sVtRegion
p18
VUnova
p19
sVtGame
p20
VSM
p21
sVtPokes
p22
(lp23
g1
(c__main__
FinishedPokemon
p24
g3
Ntp25
Rp26
(dp27
VpDexNo
p28
I500
sVpSpecies
p29
VEmboar
p30
sVpGender
p31
VM
p32
sVpLevel
p33
V43
p34
sVpMoves
p35
(lp36
VTake Down
p37
aVAssurance
p38
aVHeat Crash
p39
aVFlamethrower
p40
asVpHold
p41
VCharcoal
p42
sVpAbility
p43
VBlaze
p44
sbag1
(g24
g3
Ntp45
Rp46
(dp47
g28
I516
sg29
VSimipour
p48
sg31
g32
sg33
V41
p49
sg35
(lp50
VScald
p51
aVLeer
p52
aVLick
p53
aVFury Swipes
p54
asg41
VMystic Water
p55
sg43
VGluttony
p56
sbag1
(g24
g3
Ntp57
Rp58
(dp59
g28
I521
sg29
VUnfezant
p60
sg31
g32
sg33
V41
p61
sg35
(lp62
VTaunt
p63
aVAir Slash
p64
aVRazor Wind
p65
aVDetect
p66
asg41
VScope Lens
p67
sg43
VSuper Luck
p68
sbasVbossFlag
p69
I01
sVtLongGame
p70
Vsun-moon
p71
sbag1
(g2
g3
Ntp72
Rp73
(dp74
g7
VB2W2 Hugh Back.png
p75
sg9
VPokemon Trainer
p76
sg11
VHugh
p77
sg13
Vn/a
p78
sg15
I3
sg16
g17
sg18
g19
sg20
g21
sg22
(lp79
g1
(g24
g3
Ntp80
Rp81
(dp82
g28
I503
sg29
VSamurott
p83
sg31
g32
sg33
V43
p84
sg35
(lp85
VAqua Jet
p86
aVEncore
p87
aVRevenge
p88
aVSlash
p89
asg41
VMystic Water
p90
sg43
VTorrent
p91
sbag1
(g24
g3
Ntp92
Rp93
(dp94
g28
I512
sg29
VSimisage
p95
sg31
g32
sg33
V41
p96
sg35
(lp97
VSeed Bomb
p98
aVLeer
p99
aVLick
p100
aVFury Swipes
p101
asg41
VMiracle Seed
p102
sg43
VGluttony
p103
sbag1
(g24
g3
Ntp104
Rp105
(dp106
g28
I521
sg29
VUnfezant
p107
sg31
g32
sg33
V41
p108
sg35
(lp109
VTaunt
p110
aVAir Slash
p111
aVRazor Wind
p112
aVDetect
p113
asg41
VScope Lens
p114
sg43
VSuper Luck
p115
sbasg69
I01
sg70
g71
sbag1
(g2
g3
Ntp116
Rp117
(dp118
g7
VB2W2 Hugh Back.png
p119
sg9
VPokemon Trainer
p120
sg11
VHugh
p121
sg13
Vn/a
p122
sg15
I3
sg16
g17
sg18
g19
sg20
g21
sg22
(lp123
g1
(g24
g3
Ntp124
Rp125
(dp126
g28
I497
sg29
VSerperior
p127
sg31
g32
sg33
V43
p128
sg35
(lp129
VCoil
p130
aVLeaf Blade
p131
aVSlam
p132
aVMega Drain
p133
asg41
VMiracle Seed
p134
sg43
VOvergrow
p135
sbag1
(g24
g3
Ntp136
Rp137
(dp138
g28
I514
sg29
VSimisear
p139
sg31
g32
sg33
V41
p140
sg35
(lp141
VFlame Burst
p142
aVLeer
p143
aVLick
p144
aVFury Swipes
p145
asg41
VCharcoal
p146
sg43
VGluttony
p147
sbag1
(g24
g3
Ntp148
Rp149
(dp150
g28
I521
sg29
VUnfezant
p151
sg31
g32
sg33
V41
p152
sg35
(lp153
VTaunt
p154
aVAir Slash
p155
aVRazor Wind
p156
aVDetect
p157
asg41
VScope Lens
p158
sg43
VSuper Luck
p159
sbasg69
I01
sg70
g71
sba.