(lp0
ccopy_reg
_reconstructor
p1
(c__main__
Trainer
p2
c__builtin__
object
p3
Ntp4
Rp5
(dp6
VtSprite
p7
VSpr DP Galactic Grunt F.png
p8
sVtClass
p9
VGalactic Grunt
p10
sVtName
p11
V
p12
sVtMoney
p13
V1320
p14
sVtPokeCount
p15
V2
p16
sVtLocation
p17
Vwiki/Lake_Valor
p18
sVtRegion
p19
VSinnoh
p20
sVtGame
p21
VDP
p22
sVtPokes
p23
(lp24
g1
(c__main__
FinishedPokemon
p25
g3
Ntp26
Rp27
(dp28
VpDexNo
p29
V431
p30
sVpSpecies
p31
VGlameow
p32
sVpGender
p33
VF
p34
sVpLevel
p35
V33
p36
sVpMoves
p37
(lp38
Vfake-out
p39
aVassist
p40
aVsucker-punch
p41
aVcaptivate
p42
asVpHold
p43
g12
sVpAbility
p44
Vown-tempo
p45
sbag1
(g25
g3
Ntp46
Rp47
(dp48
g29
V453
p49
sg31
VCroagunk
p50
sg33
g34
sg35
V33
p51
sg37
(lp52
Vsucker-punch
p53
aVpoison-jab
p54
aVnasty-plot
p55
aVmud-bomb
p56
asg43
g12
sg44
Vanticipation
p57
sbasVbossFlag
p58
I00
sVtLongGame
p59
Vdiamond-pearl
p60
sbag1
(g2
g3
Ntp61
Rp62
(dp63
g7
VSpr DP Galactic Grunt M.png
p64
sg9
VGalactic Grunt
p65
sg11
g12
sg13
V1440
p66
sg15
g16
sg17
g18
sg19
g20
sg21
g22
sg23
(lp67
g1
(g25
g3
Ntp68
Rp69
(dp70
g29
V042
p71
sg31
VGolbat
p72
sg33
VM
p73
sg35
V32
p74
sg37
(lp75
Vastonish
p76
ag76
aVair-cutter
p77
aVair-slash
p78
asg43
g12
sg44
Vinner-focus
p79
sbag1
(g25
g3
Ntp80
Rp81
(dp82
g29
V453
p83
sg31
VCroagunk
p84
sg33
g73
sg35
V36
p85
sg37
(lp86
Vsucker-punch
p87
aVpoison-jab
p88
aVnasty-plot
p89
aVmud-bomb
p90
asg43
g12
sg44
Vanticipation
p91
sbasg58
I00
sg59
g60
sbag1
(g2
g3
Ntp92
Rp93
(dp94
g7
VSpr DP Galactic Grunt M.png
p95
sg9
VGalactic Grunt
p96
sg11
g12
sg13
V1240
p97
sg15
V3
p98
sg17
g18
sg19
g20
sg21
g22
sg23
(lp99
g1
(g25
g3
Ntp100
Rp101
(dp102
g29
V453
p103
sg31
VCroagunk
p104
sg33
g73
sg35
V34
p105
sg37
(lp106
Vsucker-punch
p107
aVpoison-jab
p108
aVnasty-plot
p109
aVmud-bomb
p110
asg43
g12
sg44
Vanticipation
p111
sbag1
(g25
g3
Ntp112
Rp113
(dp114
g29
V269
p115
sg31
VDustox
p116
sg33
g73
sg35
V31
p117
sg37
(lp118
Vprotect
p119
aVmoonlight
p120
aVsilver-wind
p121
aVbug-buzz
p122
asg43
g12
sg44
Vshield-dust
p123
sbag1
(g25
g3
Ntp124
Rp125
(dp126
g29
V267
p127
sg31
VBeautifly
p128
sg33
g73
sg35
V31
p129
sg37
(lp130
Vattract
p131
aVmorning-sun
p132
aVsilver-wind
p133
aVbug-buzz
p134
asg43
g12
sg44
Vswarm
p135
sbasg58
I00
sg59
g60
sbag1
(g2
g3
Ntp136
Rp137
(dp138
g7
VSpr DP Galactic Grunt F.png
p139
sg9
VGalactic Grunt
p140
sg11
g12
sg13
V1400
p141
sg15
g16
sg17
g18
sg19
g20
sg21
g22
sg23
(lp142
g1
(g25
g3
Ntp143
Rp144
(dp145
g29
V431
p146
sg31
VGlameow
p147
sg33
g34
sg35
V35
p148
sg37
(lp149
Vfake-out
p150
aVassist
p151
aVsucker-punch
p152
aVcaptivate
p153
asg43
g12
sg44
Vown-tempo
p154
sbag1
(g25
g3
Ntp155
Rp156
(dp157
g29
V198
p158
sg31
VMurkrow
p159
sg33
g34
sg35
V35
p160
sg37
(lp161
Vtaunt
p162
aVastonish
p163
aVassurance
p164
aVsucker-punch
p165
asg43
g12
sg44
Vinsomnia
p166
sbasg58
I00
sg59
g60
sbag1
(g2
g3
Ntp167
Rp168
(dp169
g7
VSpr DP Galactic Grunt M.png
p170
sg9
VGalactic Grunt
p171
sg11
g12
sg13
V1480
p172
sg15
V1
p173
sg17
g18
sg19
g20
sg21
g22
sg23
(lp174
g1
(g25
g3
Ntp175
Rp176
(dp177
g29
V042
p178
sg31
VGolbat
p179
sg33
g73
sg35
V37
p180
sg37
(lp181
Vastonish
p182
ag182
aVair-cutter
p183
aVair-slash
p184
asg43
g12
sg44
Vinner-focus
p185
sbasg58
I00
sg59
g60
sbag1
(g2
g3
Ntp186
Rp187
(dp188
g7
VSpr DP Galactic Grunt M.png
p189
sg9
VGalactic Grunt
p190
sg11
g12
sg13
V1320
p191
sg15
V4
p192
sg17
g18
sg19
g20
sg21
g22
sg23
(lp193
g1
(g25
g3
Ntp194
Rp195
(dp196
g29
V453
p197
sg31
VCroagunk
p198
sg33
g73
sg35
V33
p199
sg37
(lp200
Vsucker-punch
p201
aVpoison-jab
p202
aVnasty-plot
p203
aVmud-bomb
p204
asg43
g12
sg44
Vdry-skin
p205
sbag1
(g25
g3
Ntp206
Rp207
(dp208
g29
V228
p209
sg31
VHoundour
p210
sg33
g73
sg35
V33
p211
sg37
(lp212
Vhowl
p213
aVembargo
p214
aVnasty-plot
p215
aVfire-fang
p216
asg43
g12
sg44
Vearly-bird
p217
sbag1
(g25
g3
Ntp218
Rp219
(dp220
g29
V434
p221
sg31
VStunky
p222
sg33
g73
sg35
V33
p223
sg37
(lp224
Vfury-swipes
p225
aVslash
p226
aVmemento
p227
aVnight-slash
p228
asg43
g12
sg44
Vstench
p229
sbag1
(g25
g3
Ntp230
Rp231
(dp232
g29
V431
p233
sg31
VGlameow
p234
sg33
g34
sg35
V33
p235
sg37
(lp236
Vfake-out
p237
aVassist
p238
aVsucker-punch
p239
aVcaptivate
p240
asg43
g12
sg44
Vown-tempo
p241
sbasg58
I00
sg59
g60
sbag1
(g2
g3
Ntp242
Rp243
(dp244
g7
VSpr DP Saturn.png
p245
sg9
VCommander
p246
sg11
VSaturn
p247
sg13
V2960
p248
sg15
I3
sg17
g18
sg19
g20
sg21
g22
sg23
(lp249
g1
(g25
g3
Ntp250
Rp251
(dp252
g29
I64
sg31
VKadabra
p253
sg33
g73
sg35
V35
p254
sg37
(lp255
VShock Wave
p256
aVEmbargo
p257
aVRecover
p258
aVPsychic
p259
asg43
g12
sg44
VSynchronize
p260
sbag1
(g25
g3
Ntp261
Rp262
(dp263
g29
I436
sg31
VBronzor
p264
sg33
VU
p265
sg35
V35
p266
sg37
(lp267
VIron Defense
p268
aVGyro Ball
p269
aVRock Tomb
p270
aVShadow Ball
p271
asg43
g12
sg44
VLevitate
p272
sbag1
(g25
g3
Ntp273
Rp274
(dp275
g29
I454
sg31
VToxicroak
p276
sg33
g34
sg35
V37
p277
sg37
(lp278
VRevenge
p279
aVFaint Attack
p280
aVMud Bomb
p281
aVPoison Jab
p282
asg43
VSitrus Berry
p283
sg44
VAnticipation
p284
sbasg58
I01
sg59
g60
sbag1
(g2
g3
Ntp285
Rp286
(dp287
g7
VSpr DP Saturn.png
p288
sg9
VCommander
p289
sg11
VSaturn
p290
sg13
V3200
p291
sg15
I3
sg17
g18
sg19
g20
sg21
g22
sg23
(lp292
g1
(g25
g3
Ntp293
Rp294
(dp295
g29
I42
sg31
VGolbat
p296
sg33
g34
sg35
V38
p297
sg37
(lp298
VToxic
p299
aVAir Cutter
p300
aVBite
p301
aVSupersonic
p302
asg43
g12
sg44
VInner Focus
p303
sbag1
(g25
g3
Ntp304
Rp305
(dp306
g29
I436
sg31
VBronzor
p307
sg33
g265
sg35
V38
p308
sg37
(lp309
VIron Defense
p310
aVGyro Ball
p311
aVRock Tomb
p312
aVShadow Ball
p313
asg43
g12
sg44
VLevitate
p314
sbag1
(g25
g3
Ntp315
Rp316
(dp317
g29
I454
sg31
VToxicroak
p318
sg33
g34
sg35
V40
p319
sg37
(lp320
VRevenge
p321
aVFaint Attack
p322
aVMud Bomb
p323
aVPoison Jab
p324
asg43
VSitrus Berry
p325
sg44
VAnticipation
p326
sbasg58
I01
sg59
g60
sba.