(lp0
ccopy_reg
_reconstructor
p1
(c__main__
Trainer
p2
c__builtin__
object
p3
Ntp4
Rp5
(dp6
VtSprite
p7
VSpr GS Cooltrainer M.png
p8
sVtClass
p9
VCooltrainer
p10
sVtName
p11
VAaron
p12
sVtMoney
p13
V1152<br><small>Requires {{m|Cut}}</small>
p14
sVtPokeCount
p15
V3
p16
sVtLocation
p17
Vwiki/Lake_of_Rage
p18
sVtRegion
p19
VJohto
p20
sVtGame
p21
VGS
p22
sVtPokes
p23
(lp24
g1
(c__main__
FinishedPokemon
p25
g3
Ntp26
Rp27
(dp28
VpDexNo
p29
V002
p30
sVpSpecies
p31
VIvysaur
p32
sVpGender
p33
VM
p34
sVpLevel
p35
V24
p36
sVpMoves
p37
(lp38
Vpoison-powder
p39
aVsleep-powder
p40
aVsweet-scent
p41
aVsynthesis
p42
asVpHold
p43
V
p44
sVpAbility
p45
Vovergrow
p46
sbag1
(g25
g3
Ntp47
Rp48
(dp49
g29
V005
p50
sg31
VCharmeleon
p51
sg33
g34
sg35
V24
p52
sg37
(lp53
Vrage
p54
aVsmokescreen
p55
aVslash
p56
aVscary-face
p57
asg43
g44
sg45
Vblaze
p58
sbag1
(g25
g3
Ntp59
Rp60
(dp61
g29
V008
p62
sg31
VWartortle
p63
sg33
g34
sg35
V24
p64
sg37
(lp65
Vbubble
p66
aVprotect
p67
aVrapid-spin
p68
aVrain-dance
p69
asg43
g44
sg45
Vtorrent
p70
sbasVbossFlag
p71
I00
sVtLongGame
p72
Vgold-silver
p73
sbag1
(g2
g3
Ntp74
Rp75
(dp76
g7
VSpr GS Fisher.png
p77
sg9
VFisher
p78
sg11
VRaymond
p79
sg13
V880
p80
sg15
V4
p81
sg17
g18
sg19
g20
sg21
g22
sg23
(lp82
g1
(g25
g3
Ntp83
Rp84
(dp85
g29
V129
p86
sg31
VMagikarp
p87
sg33
g34
sg35
V22
p88
sg37
(lp89
Vtackle
p90
aVsplash
p91
aVflail
p92
asg43
g44
sg45
Vswift-swim
p93
sbag1
(g25
g3
Ntp94
Rp95
(dp96
g29
V129
p97
sg31
VMagikarp
p98
sg33
g34
sg35
V22
p99
sg37
(lp100
Vtackle
p101
aVsplash
p102
aVflail
p103
asg43
g44
sg45
Vswift-swim
p104
sbag1
(g25
g3
Ntp105
Rp106
(dp107
g29
V129
p108
sg31
VMagikarp
p109
sg33
g34
sg35
V22
p110
sg37
(lp111
Vtackle
p112
aVsplash
p113
aVflail
p114
asg43
g44
sg45
Vswift-swim
p115
sbag1
(g25
g3
Ntp116
Rp117
(dp118
g29
V129
p119
sg31
VMagikarp
p120
sg33
g34
sg35
V22
p121
sg37
(lp122
Vtackle
p123
aVsplash
p124
aVflail
p125
asg43
g44
sg45
Vswift-swim
p126
sbasg71
I00
sg72
g73
sbag1
(g2
g3
Ntp127
Rp128
(dp129
g7
VSpr GS Fisher.png
p130
sg9
VFisher
p131
sg11
VAndre
p132
sg13
V1080
p133
sg15
V1
p134
sg17
g18
sg19
g20
sg21
g22
sg23
(lp135
g1
(g25
g3
Ntp136
Rp137
(dp138
g29
V130
p139
sg31
VGyarados
p140
sg33
g34
sg35
V27
p141
sg37
(lp142
Vhyper-beam
p143
aVdragon-rage
p144
aVtwister
p145
aVrain-dance
p146
asg43
g44
sg45
Vintimidate
p147
sbasg71
I00
sg72
g73
sbag1
(g2
g3
Ntp148
Rp149
(dp150
g7
VSpr GS Cooltrainer F.png
p151
sg9
VCooltrainer
p152
sg11
VLois
p153
sg13
V1200
p154
sg15
V2
p155
sg17
g18
sg19
g20
sg21
g22
sg23
(lp156
g1
(g25
g3
Ntp157
Rp158
(dp159
g29
V188
p160
sg31
VSkiploom
p161
sg33
VF
p162
sg35
V25
p163
sg37
(lp164
Vsleep-powder
p165
aVsplash
p166
aVcotton-spore
p167
aVsynthesis
p168
asg43
g44
sg45
Vchlorophyll
p169
sbag1
(g25
g3
Ntp170
Rp171
(dp172
g29
V038
p173
sg31
VNinetales
p174
sg33
g162
sg35
V25
p175
sg37
(lp176
Vfire-spin
p177
aVquick-attack
p178
aVconfuse-ray
p179
aVsafeguard
p180
asg43
g44
sg45
Vflash-fire
p181
sbasg71
I00
sg72
g73
sbag1
(g2
g3
Ntp182
Rp183
(dp184
g7
VSpr DP Fisherman.png
p185
sg9
VFisherman
p186
sg11
VAndre<br>{{dotw|Mo}}{{dotw|Tu}}{{dotw|Thu}}{{dotw|Fri}}{{dotw|Sa}}{{dotw|Su}}
p187
sg13
V864
p188
sg15
g134
sg17
g18
sg19
g20
sg21
VDP
p189
sg23
(lp190
g1
(g25
g3
Ntp191
Rp192
(dp193
g29
V130
p194
sg31
VGyarados
p195
sg33
g34
sg35
V27
p196
sg37
(lp197
Vrain-dance
p198
aVdragon-dance
p199
aVaqua-tail
p200
aVice-fang
p201
asg43
g44
sg45
Vintimidate
p202
sbasg71
I00
sg72
Vdiamond-pearl
p203
sbag1
(g2
g3
Ntp204
Rp205
(dp206
g7
VSpr DP Fisherman.png
p207
sg9
VFisherman
p208
sg11
VRaymond<br>{{dotw|Mo}}{{dotw|Tu}}{{dotw|Thu}}{{dotw|Fri}}{{dotw|Sa}}{{dotw|Su}}
p209
sg13
V704
p210
sg15
g81
sg17
g18
sg19
g20
sg21
g189
sg23
(lp211
g1
(g25
g3
Ntp212
Rp213
(dp214
g29
V129
p215
sg31
VMagikarp
p216
sg33
g34
sg35
V22
p217
sg37
(lp218
Vtackle
p219
aVsplash
p220
aVflail
p221
asg43
g44
sg45
Vswift-swim
p222
sbag1
(g25
g3
Ntp223
Rp224
(dp225
g29
V129
p226
sg31
VMagikarp
p227
sg33
g34
sg35
V22
p228
sg37
(lp229
Vtackle
p230
aVsplash
p231
aVflail
p232
asg43
g44
sg45
Vswift-swim
p233
sbag1
(g25
g3
Ntp234
Rp235
(dp236
g29
V129
p237
sg31
VMagikarp
p238
sg33
g34
sg35
V22
p239
sg37
(lp240
Vtackle
p241
aVsplash
p242
aVflail
p243
asg43
g44
sg45
Vswift-swim
p244
sbag1
(g25
g3
Ntp245
Rp246
(dp247
g29
V129
p248
sg31
VMagikarp
p249
sg33
g34
sg35
V22
p250
sg37
(lp251
Vtackle
p252
aVsplash
p253
aVflail
p254
asg43
g44
sg45
Vswift-swim
p255
sbasg71
I00
sg72
g203
sbag1
(g2
g3
Ntp256
Rp257
(dp258
g7
VSpr HGSS Ace Trainer F.png
p259
sg9
VAce Trainer
p260
sg11
VLois
p261
sg13
V1500
p262
sg15
g155
sg17
g18
sg19
g20
sg21
VHGSS
p263
sg23
(lp264
g1
(g25
g3
Ntp265
Rp266
(dp267
g29
V179
p268
sg31
VMareep
p269
sg33
g162
sg35
V25
p270
sg37
(lp271
Vcharge
p272
aVsignal-beam
p273
aVpower-gem
p274
aVdischarge
p275
asg43
g44
sg45
Vstatic
p276
sbag1
(g25
g3
Ntp277
Rp278
(dp279
g29
V038
p280
sg31
VNinetales
p281
sg33
g162
sg35
V25
p282
sg37
(lp283
Vquick-attack
p284
aVconfuse-ray
p285
aVsafeguard
p286
aVnasty-plot
p287
asg43
g44
sg45
Vflash-fire
p288
sbasg71
I00
sg72
Vheartgold-soulsilver
p289
sbag1
(g2
g3
Ntp290
Rp291
(dp292
g7
VSpr HGSS Ace Trainer M.png
p293
sg9
VAce Trainer
p294
sg11
VAlton{{dotw|We}}
p295
sg13
V1440
p296
sg15
g16
sg17
g18
sg19
g20
sg21
g263
sg23
(lp297
g1
(g25
g3
Ntp298
Rp299
(dp300
g29
V002
p301
sg31
VIvysaur
p302
sg33
g34
sg35
V24
p303
sg37
(lp304
Vsleep-powder
p305
aVsweet-scent
p306
aVsynthesis
p307
aVworry-seed
p308
asg43
g44
sg45
Vovergrow
p309
sbag1
(g25
g3
Ntp310
Rp311
(dp312
g29
V005
p313
sg31
VCharmeleon
p314
sg33
g34
sg35
V24
p315
sg37
(lp316
Vsmokescreen
p317
aVslash
p318
aVscary-face
p319
aVfire-fang
p320
asg43
g44
sg45
Vblaze
p321
sbag1
(g25
g3
Ntp322
Rp323
(dp324
g29
V008
p325
sg31
VWartortle
p326
sg33
g34
sg35
V24
p327
sg37
(lp328
Vrain-dance
p329
aViron-defense
p330
aVwater-pulse
p331
aVaqua-tail
p332
asg43
g44
sg45
Vtorrent
p333
sbasg71
I00
sg72
g289
sba.