(lp0
ccopy_reg
_reconstructor
p1
(c__main__
Trainer
p2
c__builtin__
object
p3
Ntp4
Rp5
(dp6
VtSprite
p7
VSpr RS Kindler.png
p8
sVtClass
p9
VKindler
p10
sVtName
p11
VCole
p12
sVtMoney
p13
V704
p14
sVtPokeCount
p15
V3
p16
sVtLocation
p17
Vwiki/Lavaridge_Gym
p18
sVtRegion
p19
VHoenn
p20
sVtGame
p21
VRS
p22
sVtPokes
p23
(lp24
g1
(c__main__
FinishedPokemon
p25
g3
Ntp26
Rp27
(dp28
VpDexNo
p29
V218
p30
sVpSpecies
p31
VSlugma
p32
sVpGender
p33
VM
p34
sVpLevel
p35
V22
p36
sVpMoves
p37
(lp38
Vsmog
p39
aVamnesia
p40
aVrock-slide
p41
aVyawn
p42
asVpHold
p43
V
p44
sVpAbility
p45
Vflame-body
p46
sbag1
(g25
g3
Ntp47
Rp48
(dp49
g29
V218
p50
sg31
VSlugma
p51
sg33
g34
sg35
V22
p52
sg37
(lp53
Vsmog
p54
aVamnesia
p55
aVrock-slide
p56
aVyawn
p57
asg43
g44
sg45
Vflame-body
p58
sbag1
(g25
g3
Ntp59
Rp60
(dp61
g29
V322
p62
sg31
VNumel
p63
sg33
g34
sg35
V22
p64
sg37
(lp65
Vearthquake
p66
aVfocus-energy
p67
aVamnesia
p68
aVmagnitude
p69
asg43
g44
sg45
Voblivious
p70
sbasVbossFlag
p71
I00
sVtLongGame
p72
Vruby-sapphire
p73
sbag1
(g2
g3
Ntp74
Rp75
(dp76
g7
VSpr RS Cooltrainer M.png\u200e
p77
sg9
VCooltrainer
p78
sg11
VZane
p79
sg13
V1152
p80
sg15
V1
p81
sg17
g18
sg19
g20
sg21
g22
sg23
(lp82
g1
(g25
g3
Ntp83
Rp84
(dp85
g29
V352
p86
sg31
VKecleon
p87
sg33
g34
sg35
V24
p88
sg37
(lp89
Vthief
p90
aVfeint-attack
p91
aVancient-power
p92
aVastonish
p93
asg43
g44
sg45
Vcolor-change
p94
sbasg71
I00
sg72
g73
sbag1
(g2
g3
Ntp95
Rp96
(dp97
g7
VSpr RS Kindler.png
p98
sg9
VKindler
p99
sg11
VAxle
p100
sg13
V736
p101
sg15
V2
p102
sg17
g18
sg19
g20
sg21
g22
sg23
(lp103
g1
(g25
g3
Ntp104
Rp105
(dp106
g29
V322
p107
sg31
VNumel
p108
sg33
g34
sg35
V23
p109
sg37
(lp110
Vearthquake
p111
aVfocus-energy
p112
aVamnesia
p113
aVmagnitude
p114
asg43
g44
sg45
Voblivious
p115
sbag1
(g25
g3
Ntp116
Rp117
(dp118
g29
V218
p119
sg31
VSlugma
p120
sg33
g34
sg35
V23
p121
sg37
(lp122
Vsmog
p123
aVamnesia
p124
aVrock-slide
p125
aVyawn
p126
asg43
g44
sg45
Vflame-body
p127
sbasg71
I00
sg72
g73
sbag1
(g2
g3
Ntp128
Rp129
(dp130
g7
VSpr RS Battle Girl.png
p131
sg9
VBattle Girl
p132
sg11
VSadie
p133
sg13
V576
p134
sg15
g81
sg17
g18
sg19
g20
sg21
g22
sg23
(lp135
g1
(g25
g3
Ntp136
Rp137
(dp138
g29
V307
p139
sg31
VMeditite
p140
sg33
VF
p141
sg35
V24
p142
sg37
(lp143
Vdetect
p144
aVhidden-power
p145
aVpsych-up
p146
aVcalm-mind
p147
asg43
g44
sg45
Vpure-power
p148
sbasg71
I00
sg72
g73
sbag1
(g2
g3
Ntp149
Rp150
(dp151
g7
VSpr RS Kindler.png\u200e
p152
sg9
VKindler
p153
sg11
VAndy
p154
sg13
V736
p155
sg15
g102
sg17
g18
sg19
g20
sg21
g22
sg23
(lp156
g1
(g25
g3
Ntp157
Rp158
(dp159
g29
V218
p160
sg31
VSlugma
p161
sg33
g34
sg35
V23
p162
sg37
(lp163
Vsmog
p164
aVamnesia
p165
aVrock-slide
p166
aVyawn
p167
asg43
g44
sg45
Vflame-body
p168
sbag1
(g25
g3
Ntp169
Rp170
(dp171
g29
V322
p172
sg31
VNumel
p173
sg33
g34
sg35
V23
p174
sg37
(lp175
Vearthquake
p176
aVfocus-energy
p177
aVamnesia
p178
aVmagnitude
p179
asg43
g44
sg45
Voblivious
p180
sbasg71
I00
sg72
g73
sbag1
(g2
g3
Ntp181
Rp182
(dp183
g7
VSpr RS Kindler.png
p184
sg9
VKindler
p185
sg11
VJeff
p186
sg13
V704
p187
sg15
g102
sg17
g18
sg19
g20
sg21
g22
sg23
(lp188
g1
(g25
g3
Ntp189
Rp190
(dp191
g29
V218
p192
sg31
VSlugma
p193
sg33
g34
sg35
V22
p194
sg37
(lp195
Vsmog
p196
aVamnesia
p197
aVrock-slide
p198
aVyawn
p199
asg43
g44
sg45
Vmagma-armor
p200
sbag1
(g25
g3
Ntp201
Rp202
(dp203
g29
V218
p204
sg31
VSlugma
p205
sg33
g34
sg35
V22
p206
sg37
(lp207
Vsmog
p208
aVamnesia
p209
aVrock-slide
p210
aVyawn
p211
asg43
g44
sg45
Vmagma-armor
p212
sbasg71
I00
sg72
g73
sbag1
(g2
g3
Ntp213
Rp214
(dp215
g7
VSpr RS Kindler.png
p216
sg9
VKindler
p217
sg11
VJace
p218
sg13
V736<br/><small>Potential [[Double Battle]] with Eli</small>
p219
sg15
g81
sg17
g18
sg19
g20
sg21
g22
sg23
(lp220
g1
(g25
g3
Ntp221
Rp222
(dp223
g29
V218
p224
sg31
VSlugma
p225
sg33
g34
sg35
V23
p226
sg37
(lp227
Vsmog
p228
aVamnesia
p229
aVrock-slide
p230
aVyawn
p231
asg43
g44
sg45
Vmagma-armor
p232
sbasg71
I00
sg72
g73
sbag1
(g2
g3
Ntp233
Rp234
(dp235
g7
VSpr RS Hiker.png\u200e
p236
sg9
VHiker
p237
sg11
VEli
p238
sg13
V920<br/><small>Potential [[Double Battle]] with Jace</small>
p239
sg15
g81
sg17
g18
sg19
g20
sg21
g22
sg23
(lp240
g1
(g25
g3
Ntp241
Rp242
(dp243
g29
V322
p244
sg31
VNumel
p245
sg33
g34
sg35
V23
p246
sg37
(lp247
Vearthquake
p248
aVfocus-energy
p249
aVamnesia
p250
aVmagnitude
p251
asg43
g44
sg45
Vsimple
p252
sbasg71
I00
sg72
g73
sbag1
(g2
g3
Ntp253
Rp254
(dp255
g7
VSpr RS Kindler.png
p256
sg9
VKindler
p257
sg11
VCole
p258
sg13
V736<br/><small>Potential [[Double Battle]] with Gerald</small>
p259
sg15
g81
sg17
g18
sg19
g20
sg21
g22
sg23
(lp260
g1
(g25
g3
Ntp261
Rp262
(dp263
g29
V322
p264
sg31
VNumel
p265
sg33
g34
sg35
V23
p266
sg37
(lp267
Vearthquake
p268
aVfocus-energy
p269
aVamnesia
p270
aVmagnitude
p271
asg43
g44
sg45
Vsimple
p272
sbasg71
I00
sg72
g73
sbag1
(g2
g3
Ntp273
Rp274
(dp275
g7
VSpr RS Cooltrainer M.png
p276
sg9
VCooltrainer
p277
sg11
VGerald
p278
sg13
V1104<br/><small>Potential [[Double Battle]] with Cole</small>
p279
sg15
g81
sg17
g18
sg19
g20
sg21
g22
sg23
(lp280
g1
(g25
g3
Ntp281
Rp282
(dp283
g29
V352
p284
sg31
VKecleon
p285
sg33
g34
sg35
V23
p286
sg37
(lp287
Vthief
p288
aVfeint-attack
p289
aVancient-power
p290
aVastonish
p291
asg43
g44
sg45
Vcolor-change
p292
sbasg71
I00
sg72
g73
sbag1
(g2
g3
Ntp293
Rp294
(dp295
g7
VSpr RS Kindler.png
p296
sg9
VKindler
p297
sg11
VAxle
p298
sg13
V736
p299
sg15
g81
sg17
g18
sg19
g20
sg21
g22
sg23
(lp300
g1
(g25
g3
Ntp301
Rp302
(dp303
g29
V322
p304
sg31
VNumel
p305
sg33
g34
sg35
V23
p306
sg37
(lp307
Vearthquake
p308
aVfocus-energy
p309
aVamnesia
p310
aVmagnitude
p311
asg43
g44
sg45
Voblivious
p312
sbasg71
I00
sg72
g73
sbag1
(g2
g3
Ntp313
Rp314
(dp315
g7
VSpr RS Kindler.png
p316
sg9
VKindler
p317
sg11
VKeegan
p318
sg13
V736
p319
sg15
g81
sg17
g18
sg19
g20
sg21
g22
sg23
(lp320
g1
(g25
g3
Ntp321
Rp322
(dp323
g29
V218
p324
sg31
VSlugma
p325
sg33
g34
sg35
V23
p326
sg37
(lp327
Vsmog
p328
aVamnesia
p329
aVrock-slide
p330
aVyawn
p331
asg43
g44
sg45
Vflame-body
p332
sbasg71
I00
sg72
g73
sbag1
(g2
g3
Ntp333
Rp334
(dp335
g7
VSpr RS Battle Girl.png
p336
sg9
VBattle Girl
p337
sg11
VDanielle
p338
sg13
V552
p339
sg15
g81
sg17
g18
sg19
g20
sg21
g22
sg23
(lp340
g1
(g25
g3
Ntp341
Rp342
(dp343
g29
V307
p344
sg31
VMeditite
p345
sg33
g141
sg35
V23
p346
sg37
(lp347
Vdetect
p348
aVhidden-power
p349
aVpsych-up
p350
aVcalm-mind
p351
asg43
g44
sg45
Vpure-power
p352
sbasg71
I00
sg72
g73
sbag1
(g2
g3
Ntp353
Rp354
(dp355
g7
VVSKindler.png
p356
sg9
VKindler
p357
sg11
VCole
p358
sg13
V736
p359
sg15
g102
sg17
g18
sg19
g20
sg21
VSM
p360
sg23
(lp361
g1
(g25
g3
Ntp362
Rp363
(dp364
g29
V322
p365
sg31
VNumel
p366
sg33
g34
sg35
V23
p367
sg37
(lp368
Vyawn
p369
aVearth-power
p370
aVlava-plume
p371
aVflame-burst
p372
asg43
g44
sg45
Voblivious
p373
sbag1
(g25
g3
Ntp374
Rp375
(dp376
g29
V218
p377
sg31
VSlugma
p378
sg33
g34
sg35
V23
p379
sg37
(lp380
Vlava-plume
p381
aVflame-burst
p382
aVclear-smog
p383
aVincinerate
p384
asg43
g44
sg45
Vmagma-armor
p385
sbasg71
I00
sg72
Vsun-moon
p386
sbag1
(g2
g3
Ntp387
Rp388
(dp389
g7
VVSNinja Boy.png
p390
sg9
VNinja Boy
p391
sg11
VHiromichi
p392
sg13
V384
p393
sg15
g81
sg17
g18
sg19
g20
sg21
VSM
p394
sg23
(lp395
g1
(g25
g3
Ntp396
Rp397
(dp398
g29
V109
p399
sg31
VKoffing
p400
sg33
g34
sg35
V24
p401
sg37
(lp402
Vgyro-ball
p403
aVassurance
p404
aVclear-smog
p405
aVbelch
p406
asg43
g44
sg45
Vlevitate
p407
sbasg71
I00
sg72
g386
sbag1
(g2
g3
Ntp408
Rp409
(dp410
g7
VVSKindler.png
p411
sg9
VKindler
p412
sg11
VAxle
p413
sg13
V800
p414
sg15
g81
sg17
g18
sg19
g20
sg21
g360
sg23
(lp415
g1
(g25
g3
Ntp416
Rp417
(dp418
g29
V218
p419
sg31
VSlugma
p420
sg33
g34
sg35
V25
p421
sg37
(lp422
Vlava-plume
p423
aVflame-burst
p424
aVclear-smog
p425
aVincinerate
p426
asg43
g44
sg45
Vflame-body
p427
sbasg71
I00
sg72
g386
sbag1
(g2
g3
Ntp428
Rp429
(dp430
g7
VVSBattle Girl ORAS.png
p431
sg9
VBattle Girl
p432
sg11
VSadie
p433
sg13
V832
p434
sg15
g81
sg17
g18
sg19
g20
sg21
VSM
p435
sg23
(lp436
g1
(g25
g3
Ntp437
Rp438
(dp439
g29
V307
p440
sg31
VMeditite
p441
sg33
g141
sg35
V26
p442
sg37
(lp443
Vfeint
p444
aVacupressure
p445
aVpower-trick
p446
aVforce-palm
p447
asg43
g44
sg45
Vpure-power
p448
sbasg71
I00
sg72
g386
sbag1
(g2
g3
Ntp449
Rp450
(dp451
g7
VVSNinja Boy.png
p452
sg9
VNinja Boy
p453
sg11
VShoji
p454
sg13
V384
p455
sg15
g81
sg17
g18
sg19
g20
sg21
g394
sg23
(lp456
g1
(g25
g3
Ntp457
Rp458
(dp459
g29
V109
p460
sg31
VKoffing
p461
sg33
g34
sg35
V24
p462
sg37
(lp463
Vgyro-ball
p464
aVassurance
p465
aVclear-smog
p466
aVbelch
p467
asg43
g44
sg45
Vlevitate
p468
sbasg71
I00
sg72
g386
sbag1
(g2
g3
Ntp469
Rp470
(dp471
g7
VVSAce Trainer M ORAS.png\u200e
p472
sg9
VAce Trainer
p473
sg11
VZane
p474
sg13
V1,560
p475
sg15
g102
sg17
g18
sg19
g20
sg21
VSM
p476
sg23
(lp477
g1
(g25
g3
Ntp478
Rp479
(dp480
g29
V218
p481
sg31
VSlugma
p482
sg33
g34
sg35
V24
p483
sg37
(lp484
Vlava-plume
p485
aVflame-burst
p486
aVclear-smog
p487
aVincinerate
p488
asg43
g44
sg45
Vmagma-armor
p489
sbag1
(g25
g3
Ntp490
Rp491
(dp492
g29
V352
p493
sg31
VKecleon
p494
sg33
g34
sg35
V26
p495
sg37
(lp496
Vsucker-punch
p497
aVshadow-claw
p498
aVshadow-sneak
p499
aVsynchronoise
p500
asg43
g44
sg45
Vcolor-change
p501
sbasg71
I00
sg72
g386
sbag1
(g2
g3
Ntp502
Rp503
(dp504
g7
VVSKindler.png
p505
sg9
VKindler
p506
sg11
VAndy
p507
sg13
V800
p508
sg15
g81
sg17
g18
sg19
g20
sg21
g360
sg23
(lp509
g1
(g25
g3
Ntp510
Rp511
(dp512
g29
V322
p513
sg31
VNumel
p514
sg33
g34
sg35
V25
p515
sg37
(lp516
Vyawn
p517
aVearth-power
p518
aVlava-plume
p519
aVflame-burst
p520
asg43
g44
sg45
Voblivious
p521
sbasg71
I00
sg72
g386
sbag1
(g2
g3
Ntp522
Rp523
(dp524
g7
VSpr RS Flannery.png
p525
sg9
VLeader
p526
sg11
VFlannery
p527
sg13
V2800
p528
sg15
I3
sg17
g18
sg19
g20
sg21
g22
sg23
(lp529
g1
(g25
g3
Ntp530
Rp531
(dp532
g29
I218
sg31
VSlugma
p533
sg33
g141
sg35
V26
p534
sg37
(lp535
VOverheat
p536
aVSmog
p537
aVLight Screen
p538
aVSunny Day
p539
asg43
g44
sg45
VMagma Armor
p540
sbag1
(g25
g3
Ntp541
Rp542
(dp543
g29
I218
sg31
VSlugma
p544
sg33
g141
sg35
V26
p545
sg37
(lp546
VFlamethrower
p547
aVRock Slide
p548
aVLight Screen
p549
aVSunny Day
p550
asg43
g44
sg45
VMagma Armor
p551
sbag1
(g25
g3
Ntp552
Rp553
(dp554
g29
I324
sg31
VTorkoal
p555
sg33
g141
sg35
V28
p556
sg37
(lp557
VOverheat
p558
aVBody Slam
p559
aVFlail
p560
aVAttract
p561
asg43
g44
sg45
VWhite Smoke
p562
sbasg71
I01
sg72
g73
sbag1
(g2
g3
Ntp563
Rp564
(dp565
g7
VSpr RS Flannery.png
p566
sg9
VLeader
p567
sg11
VFlannery
p568
sg13
V2900
p569
sg15
I4
sg17
g18
sg19
g20
sg21
g22
sg23
(lp570
g1
(g25
g3
Ntp571
Rp572
(dp573
g29
I322
sg31
VNumel
p574
sg33
g141
sg35
V24
p575
sg37
(lp576
VOverheat
p577
aVTake Down
p578
aVMagnitude
p579
aVSunny Day
p580
asg43
g44
sg45
VOblivious
p581
sbag1
(g25
g3
Ntp582
Rp583
(dp584
g29
I218
sg31
VSlugma
p585
sg33
g141
sg35
V24
p586
sg37
(lp587
VOverheat
p588
aVSmog
p589
aVLight Screen
p590
aVSunny Day
p591
asg43
g44
sg45
VMagma Armor
p592
sbag1
(g25
g3
Ntp593
Rp594
(dp595
g29
I323
sg31
VCamerupt
p596
sg33
g141
sg35
V26
p597
sg37
(lp598
VOverheat
p599
aVTackle
p600
aVSunny Day
p601
aVAttract
p602
asg43
g44
sg45
VMagma Armor
p603
sbag1
(g25
g3
Ntp604
Rp605
(dp606
g29
I324
sg31
VTorkoal
p607
sg33
g141
sg35
V29
p608
sg37
(lp609
VOverheat
p610
aVSunny Day
p611
aVBody Slam
p612
aVAttract
p613
asg43
VWhite Herb
p614
sg45
VWhite Smoke
p615
sbasg71
I01
sg72
g73
sbag1
(g2
g3
Ntp616
Rp617
(dp618
g7
VSpr RS Flannery.png
p619
sg9
VLeader
p620
sg11
VFlannery
p621
sg13
V8000
p622
sg15
I4
sg17
g18
sg19
g20
sg21
g22
sg23
(lp623
g1
(g25
g3
Ntp624
Rp625
(dp626
g29
I219
sg31
VMagcargo
p627
sg33
g34
sg35
V38
p628
sg37
(lp629
VOverheat
p630
aVAttract
p631
aVLight Screen
p632
aVRock Slide
p633
asg43
VWhite Herb
p634
sg45
VMagma Armor
p635
sbag1
(g25
g3
Ntp636
Rp637
(dp638
g29
I77
sg31
VPonyta
p639
sg33
g34
sg35
V36
p640
sg37
(lp641
VFlamethrower
p642
aVAttract
p643
aVSolarBeam
p644
aVBounce
p645
asg43
g44
sg45
VFlash Fire
p646
sbag1
(g25
g3
Ntp647
Rp648
(dp649
g29
I323
sg31
VCamerupt
p650
sg33
g34
sg35
V38
p651
sg37
(lp652
VOverheat
p653
aVSunny Day
p654
aVEarthquake
p655
aVAttract
p656
asg43
VWhite Herb
p657
sg45
VMagma Armor
p658
sbag1
(g25
g3
Ntp659
Rp660
(dp661
g29
I324
sg31
VTorkoal
p662
sg33
g34
sg35
V40
p663
sg37
(lp664
VOverheat
p665
aVSunny Day
p666
aVExplosion
p667
aVAttract
p668
asg43
VWhite Herb
p669
sg45
VWhite Smoke
p670
sbasg71
I01
sg72
g73
sbag1
(g2
g3
Ntp671
Rp672
(dp673
g7
VSpr RS Flannery.png
p674
sg9
VLeader
p675
sg11
VFlannery
p676
sg13
V9000
p677
sg15
I5
sg17
g18
sg19
g20
sg21
g22
sg23
(lp678
g1
(g25
g3
Ntp679
Rp680
(dp681
g29
I58
sg31
VGrowlithe
p682
sg33
g34
sg35
V41
p683
sg37
(lp684
VHelping Hand
p685
aVFlamethrower
p686
aVRoar
p687
aVSunny Day
p688
asg43
g44
sg45
VIntimidate
p689
sbag1
(g25
g3
Ntp690
Rp691
(dp692
g29
I219
sg31
VMagcargo
p693
sg33
g34
sg35
V43
p694
sg37
(lp695
VOverheat
p696
aVAttract
p697
aVLight Screen
p698
aVRock Slide
p699
asg43
VWhite Herb
p700
sg45
VMagma Armor
p701
sbag1
(g25
g3
Ntp702
Rp703
(dp704
g29
I77
sg31
VPonyta
p705
sg33
g34
sg35
V41
p706
sg37
(lp707
VFlamethrower
p708
aVAttract
p709
aVSolarBeam
p710
aVBounce
p711
asg43
g44
sg45
VFlash Fire
p712
sbag1
(g25
g3
Ntp713
Rp714
(dp715
g29
I323
sg31
VCamerupt
p716
sg33
g34
sg35
V43
p717
sg37
(lp718
VOverheat
p719
aVSunny Day
p720
aVEarthquake
p721
aVAttract
p722
asg43
VWhite Herb
p723
sg45
VMagma Armor
p724
sbag1
(g25
g3
Ntp725
Rp726
(dp727
g29
I324
sg31
VTorkoal
p728
sg33
g34
sg35
V45
p729
sg37
(lp730
VOverheat
p731
aVSunny Day
p732
aVExplosion
p733
aVAttract
p734
asg43
VWhite Herb
p735
sg45
VWhite Smoke
p736
sbasg71
I01
sg72
g73
sbag1
(g2
g3
Ntp737
Rp738
(dp739
g7
VSpr RS Flannery.png
p740
sg9
VLeader
p741
sg11
VFlannery
p742
sg13
V10000
p743
sg15
I6
sg17
g18
sg19
g20
sg21
g22
sg23
(lp744
g1
(g25
g3
Ntp745
Rp746
(dp747
g29
I228
sg31
VHoundour
p748
sg33
g34
sg35
V46
p749
sg37
(lp750
VRoar
p751
aVSolarBeam
p752
aVTaunt
p753
aVSunny Day
p754
asg43
g44
sg45
VFlash Fire
p755
sbag1
(g25
g3
Ntp756
Rp757
(dp758
g29
I58
sg31
VGrowlithe
p759
sg33
g34
sg35
V46
p760
sg37
(lp761
VHelping Hand
p762
aVFlamethrower
p763
aVSunny Day
p764
aVRoar
p765
asg43
g44
sg45
VIntimidate
p766
sbag1
(g25
g3
Ntp767
Rp768
(dp769
g29
I219
sg31
VMagcargo
p770
sg33
g34
sg35
V48
p771
sg37
(lp772
VOverheat
p773
aVAttract
p774
aVLight Screen
p775
aVRock Slide
p776
asg43
VWhite Herb
p777
sg45
VMagma Armor
p778
sbag1
(g25
g3
Ntp779
Rp780
(dp781
g29
I78
sg31
VRapidash
p782
sg33
g34
sg35
V46
p783
sg37
(lp784
VFlamethrower
p785
aVAttract
p786
aVSolarBeam
p787
aVBounce
p788
asg43
g44
sg45
VFlash Fire
p789
sbag1
(g25
g3
Ntp790
Rp791
(dp792
g29
I323
sg31
VCamerupt
p793
sg33
g34
sg35
V48
p794
sg37
(lp795
VOverheat
p796
aVSunny Day
p797
aVEarthquake
p798
aVAttract
p799
asg43
VWhite Herb
p800
sg45
VMagma Armor
p801
sbag1
(g25
g3
Ntp802
Rp803
(dp804
g29
I324
sg31
VTorkoal
p805
sg33
g34
sg35
V50
p806
sg37
(lp807
VOverheat
p808
aVSunny Day
p809
aVExplosion
p810
aVAttract
p811
asg43
VWhite Herb
p812
sg45
VWhite Smoke
p813
sbasg71
I01
sg72
g73
sbag1
(g2
g3
Ntp814
Rp815
(dp816
g7
VSpr RS Flannery.png
p817
sg9
VLeader
p818
sg11
VFlannery
p819
sg13
V11000
p820
sg15
I6
sg17
g18
sg19
g20
sg21
g22
sg23
(lp821
g1
(g25
g3
Ntp822
Rp823
(dp824
g29
I59
sg31
VArcanine
p825
sg33
g34
sg35
V51
p826
sg37
(lp827
VHelping Hand
p828
aVFlamethrower
p829
aVSunny Day
p830
aVRoar
p831
asg43
g44
sg45
VIntimidate
p832
sbag1
(g25
g3
Ntp833
Rp834
(dp835
g29
I219
sg31
VMagcargo
p836
sg33
g34
sg35
V53
p837
sg37
(lp838
VOverheat
p839
aVAttract
p840
aVLight Screen
p841
aVRock Slide
p842
asg43
VWhite Herb
p843
sg45
VMagma Armor
p844
sbag1
(g25
g3
Ntp845
Rp846
(dp847
g29
I229
sg31
VHoundoom
p848
sg33
g34
sg35
V51
p849
sg37
(lp850
VRoar
p851
aVSolarBeam
p852
aVTaunt
p853
aVSunny Day
p854
asg43
g44
sg45
VFlash Fire
p855
sbag1
(g25
g3
Ntp856
Rp857
(dp858
g29
I78
sg31
VRapidash
p859
sg33
g34
sg35
V51
p860
sg37
(lp861
VFlamethrower
p862
aVAttract
p863
aVSolarBeam
p864
aVBounce
p865
asg43
g44
sg45
VFlash Fire
p866
sbag1
(g25
g3
Ntp867
Rp868
(dp869
g29
I323
sg31
VCamerupt
p870
sg33
g34
sg35
V53
p871
sg37
(lp872
VOverheat
p873
aVSunny Day
p874
aVEarthquake
p875
aVAttract
p876
asg43
VWhite Herb
p877
sg45
VMagma Armor
p878
sbag1
(g25
g3
Ntp879
Rp880
(dp881
g29
I324
sg31
VTorkoal
p882
sg33
g34
sg35
V55
p883
sg37
(lp884
VOverheat
p885
aVSunny Day
p886
aVExplosion
p887
aVAttract
p888
asg43
VWhite Herb
p889
sg45
VWhite Smoke
p890
sbasg71
I01
sg72
g73
sbag1
(g2
g3
Ntp891
Rp892
(dp893
g7
VVSFlannery.png
p894
sg9
VLeader
p895
sg11
VFlannery
p896
sg13
V3360
p897
sg15
I3
sg17
g18
sg19
g20
sg21
g476
sg23
(lp898
g1
(g25
g3
Ntp899
Rp900
(dp901
g29
I218
sg31
VSlugma
p902
sg33
g141
sg35
V26
p903
sg37
(lp904
VOverheat
p905
aVRock Throw
p906
aVLight Screen
p907
aVSunny Day
p908
asg43
g44
sg45
VFlame Body
p909
sbag1
(g25
g3
Ntp910
Rp911
(dp912
g29
I322
sg31
VNumel
p913
sg33
g141
sg35
V26
p914
sg37
(lp915
VEarth Power
p916
aVLava Plume
p917
aVAmnesia
p918
aVSunny Day
p919
asg43
g44
sg45
VSimple
p920
sbag1
(g25
g3
Ntp921
Rp922
(dp923
g29
I324
sg31
VTorkoal
p924
sg33
g141
sg35
V28
p925
sg37
(lp926
VOverheat
p927
aVBody Slam
p928
aVCurse
p929
aVSunny Day
p930
asg43
g44
sg45
VWhite Smoke
p931
sbasg71
I01
sg72
g386
sba.