(lp0
ccopy_reg
_reconstructor
p1
(c__main__
Trainer
p2
c__builtin__
object
p3
Ntp4
Rp5
(dp6
VtSprite
p7
VVSFurisode Girl 1.png
p8
sVtClass
p9
VFurisode Girl
p10
sVtName
p11
V[[Kali]]
p12
sVtMoney
p13
V2,736
p14
sVtPokeCount
p15
V2
p16
sVtLocation
p17
Vwiki/Laverre_Gym
p18
sVtRegion
p19
VKalos
p20
sVtGame
p21
VSM
p22
sVtPokes
p23
(lp24
g1
(c__main__
FinishedPokemon
p25
g3
Ntp26
Rp27
(dp28
VpDexNo
p29
V702
p30
sVpSpecies
p31
VDedenne
p32
sVpGender
p33
VF
p34
sVpLevel
p35
V38
p36
sVpMoves
p37
(lp38
Vvolt-switch
p39
aVparabolic-charge
p40
aVplay-rough
p41
aVnuzzle
p42
asVpHold
p43
V
p44
sVpAbility
p45
Vpickup
p46
sbag1
(g25
g3
Ntp47
Rp48
(dp49
g29
V184
p50
sg31
VAzumarill
p51
sg33
g34
sg35
V38
p52
sg37
(lp53
Vwater-sport
p54
aVaqua-ring
p55
aVaqua-tail
p56
aVplay-rough
p57
asg43
g44
sg45
Vhuge-power
p58
sbasVbossFlag
p59
I00
sVtLongGame
p60
Vsun-moon
p61
sbag1
(g2
g3
Ntp62
Rp63
(dp64
g7
VVSFurisode Girl 2.png
p65
sg9
VFurisode Girl
p66
sg11
V[[Linnea]]
p67
sg13
V2,880
p68
sg15
V1
p69
sg17
g18
sg19
g20
sg21
g22
sg23
(lp70
g1
(g25
g3
Ntp71
Rp72
(dp73
g29
V683
p74
sg31
VAromatisse
p75
sg33
g34
sg35
V40
p76
sg37
(lp77
Vmisty-terrain
p78
aVfairy-wind
p79
aVmoonblast
p80
aVaromatic-mist
p81
asg43
g44
sg45
Vhealer
p82
sbasg59
I00
sg60
g61
sbag1
(g2
g3
Ntp83
Rp84
(dp85
g7
VVSFurisode Girl 3.png
p86
sg9
VFurisode Girl
p87
sg11
V[[Blossom]]
p88
sg13
V2,664
p89
sg15
V3
p90
sg17
g18
sg19
g20
sg21
g22
sg23
(lp91
g1
(g25
g3
Ntp92
Rp93
(dp94
g29
V707
p95
sg31
VKlefki
p96
sg33
g34
sg35
V37
p97
sg37
(lp98
Vcrafty-shield
p99
aVplay-rough
p100
aVfairy-wind
p101
aVfairy-lock
p102
asg43
g44
sg45
Vprankster
p103
sbag1
(g25
g3
Ntp104
Rp105
(dp106
g29
V281
p107
sg31
VKirlia
p108
sg33
g34
sg35
V37
p109
sg37
(lp110
Vstored-power
p111
aVheal-pulse
p112
aVdisarming-voice
p113
aVdraining-kiss
p114
asg43
g44
sg45
Vsynchronize
p115
sbag1
(g25
g3
Ntp116
Rp117
(dp118
g29
V210
p119
sg31
VGranbull
p120
sg33
g34
sg35
V37
p121
sg37
(lp122
Vthunder-fang
p123
aVice-fang
p124
aVfire-fang
p125
aVplay-rough
p126
asg43
g44
sg45
Vquick-feet
p127
sbasg59
I00
sg60
g61
sbag1
(g2
g3
Ntp128
Rp129
(dp130
g7
VVSFurisode Girl 4.png
p131
sg9
VFurisode Girl
p132
sg11
V{{kal|Katherine}}
p133
sg13
V2,880
p134
sg15
g69
sg17
g18
sg19
g20
sg21
g22
sg23
(lp135
g1
(g25
g3
Ntp136
Rp137
(dp138
g29
V685
p139
sg31
VSlurpuff
p140
sg33
g34
sg35
V40
p141
sg37
(lp142
Vfairy-wind
p143
ag143
aVplay-nice
p144
ag144
asg43
g44
sg45
Vsweet-veil
p145
sbasg59
I00
sg60
g61
sbag1
(g2
g3
Ntp146
Rp147
(dp148
g7
VVSValerie.png
p149
sg9
VLeader
p150
sg11
VValerie
p151
sg13
V6,720
p152
sg15
I3
sg17
g18
sg19
g20
sg21
g22
sg23
(lp153
g1
(g25
g3
Ntp154
Rp155
(dp156
g29
I303
sg31
VMawile
p157
sg33
g34
sg35
V38
p158
sg37
(lp159
VFeint Attack
p160
aVCrunch
p161
aVIron Defense
p162
asg43
g44
sg45
VHyper Cutter
p163
sbag1
(g25
g3
Ntp164
Rp165
(dp166
g29
I122
sg31
VMr. Mime
p167
sg33
g34
sg35
V39
p168
sg37
(lp169
VLight Screen
p170
aVReflect
p171
aVPsychic
p172
aVDazzling Gleam
p173
asg43
g44
sg45
VSoundproof
p174
sbag1
(g25
g3
Ntp175
Rp176
(dp177
g29
I700
sg31
VSylveon
p178
sg33
VM
p179
sg35
V42
p180
sg37
(lp181
VDazzling Gleam
p182
aVQuick Attack
p183
aVSwift
p184
aVCharm
p185
asg43
g44
sg45
VCute Charm
p186
sbasg59
I01
sg60
g61
sba.