(lp0
ccopy_reg
_reconstructor
p1
(c__main__
Trainer
p2
c__builtin__
object
p3
Ntp4
Rp5
(dp6
VtSprite
p7
VSpr BW Plasma Grunt M.png
p8
sVtClass
p9
VTeam Plasma Grunt
p10
sVtName
p11
V
p12
sVtMoney
p13
V720
p14
sVtPokeCount
p15
V1
p16
sVtLocation
p17
Vwiki/Liberty_Garden
p18
sVtRegion
p19
VUnova
p20
sVtGame
p21
VBW
p22
sVtPokes
p23
(lp24
g1
(c__main__
FinishedPokemon
p25
g3
Ntp26
Rp27
(dp28
VpDexNo
p29
V504
p30
sVpSpecies
p31
VPatrat
p32
sVpGender
p33
VM
p34
sVpLevel
p35
V18
p36
sVpMoves
p37
(lp38
Vbaton-pass
p39
aVcrunch
p40
aVafter-you
p41
aVwork-up
p42
asVpHold
p43
g12
sVpAbility
p44
Vrun-away
p45
sbasVbossFlag
p46
I00
sVtLongGame
p47
Vblack-white
p48
sbag1
(g2
g3
Ntp49
Rp50
(dp51
g7
VSpr BW Plasma Grunt M.png
p52
sg9
VTeam Plasma Grunt
p53
sg11
g12
sg13
V680
p54
sg15
V2
p55
sg17
g18
sg19
g20
sg21
g22
sg23
(lp56
g1
(g25
g3
Ntp57
Rp58
(dp59
g29
V551
p60
sg31
VSandile
p61
sg33
g34
sg35
V17
p62
sg37
(lp63
Vsand-tomb
p64
aVassurance
p65
aVembargo
p66
aVfoul-play
p67
asg43
g12
sg44
Vintimidate
p68
sbag1
(g25
g3
Ntp69
Rp70
(dp71
g29
V504
p72
sg31
VPatrat
p73
sg33
g34
sg35
V17
p74
sg37
(lp75
Vbaton-pass
p76
aVcrunch
p77
aVafter-you
p78
aVwork-up
p79
asg43
g12
sg44
Vrun-away
p80
sbasg46
I00
sg47
g48
sbag1
(g2
g3
Ntp81
Rp82
(dp83
g7
VSpr BW Plasma Grunt M.png
p84
sg9
VTeam Plasma Grunt
p85
sg11
g12
sg13
V720
p86
sg15
g16
sg17
g18
sg19
g20
sg21
g22
sg23
(lp87
g1
(g25
g3
Ntp88
Rp89
(dp90
g29
V551
p91
sg31
VSandile
p92
sg33
g34
sg35
V18
p93
sg37
(lp94
Vsand-tomb
p95
aVassurance
p96
aVembargo
p97
aVfoul-play
p98
asg43
g12
sg44
Vmoxie
p99
sbasg46
I00
sg47
g48
sbag1
(g2
g3
Ntp100
Rp101
(dp102
g7
VSpr BW Plasma Grunt M.png
p103
sg9
VTeam Plasma Grunt
p104
sg11
g12
sg13
V680
p105
sg15
g55
sg17
g18
sg19
g20
sg21
g22
sg23
(lp106
g1
(g25
g3
Ntp107
Rp108
(dp109
g29
V504
p110
sg31
VPatrat
p111
sg33
g34
sg35
V17
p112
sg37
(lp113
Vbaton-pass
p114
aVcrunch
p115
aVafter-you
p116
aVwork-up
p117
asg43
g12
sg44
Vrun-away
p118
sbag1
(g25
g3
Ntp119
Rp120
(dp121
g29
V559
p122
sg31
VScraggy
p123
sg33
g34
sg35
V17
p124
sg37
(lp125
Vpayback
p126
aVrock-climb
p127
aVhead-smash
p128
aVchip-away
p129
asg43
g12
sg44
Vshed-skin
p130
sbasg46
I00
sg47
g48
sbag1
(g2
g3
Ntp131
Rp132
(dp133
g7
VSpr BW Plasma Grunt M.png
p134
sg9
VTeam Plasma Grunt
p135
sg11
g12
sg13
V800
p136
sg15
g16
sg17
g18
sg19
g20
sg21
g22
sg23
(lp137
g1
(g25
g3
Ntp138
Rp139
(dp140
g29
V505
p141
sg31
VWatchog
p142
sg33
g34
sg35
V20
p143
sg37
(lp144
Vbaton-pass
p145
aVcrunch
p146
aVpsych-up
p147
aVafter-you
p148
asg43
g12
sg44
Vkeen-eye
p149
sbasg46
I00
sg47
g48
sba.