(lp0
ccopy_reg
_reconstructor
p1
(c__main__
Trainer
p2
c__builtin__
object
p3
Ntp4
Rp5
(dp6
VtSprite
p7
VSpr FRLG Ruin Maniac.png
p8
sVtClass
p9
VRuin Maniac
p10
sVtName
p11
VLawson
p12
sVtMoney
p13
V2352
p14
sVtPokeCount
p15
V3
p16
sVtLocation
p17
Vwiki/Lost_Cave
p18
sVtRegion
p19
Vlands
p20
sVtGame
p21
VFRLG
p22
sVtPokes
p23
(lp24
g1
(c__main__
FinishedPokemon
p25
g3
Ntp26
Rp27
(dp28
VpDexNo
p29
V095
p30
sVpSpecies
p31
VOnix
p32
sVpGender
p33
VM
p34
sVpLevel
p35
V47
p36
sVpMoves
p37
(lp38
Vsandstorm
p39
aVdragon-breath
p40
aViron-tail
p41
aVsand-tomb
p42
asVpHold
p43
V
p44
sVpAbility
p45
Vsturdy
p46
sbag1
(g25
g3
Ntp47
Rp48
(dp49
g29
V075
p50
sg31
VGraveler
p51
sg33
g34
sg35
V48
p52
sg37
(lp53
Vmagnitude
p54
aVmud-sport
p55
ag55
aVrock-blast
p56
asg43
g44
sg45
Vsturdy
p57
sbag1
(g25
g3
Ntp58
Rp59
(dp60
g29
V105
p61
sg31
VMarowak
p62
sg33
g34
sg35
V49
p63
sg37
(lp64
Vbone-club
p65
aVbonemerang
p66
aVbone-rush
p67
aVfalse-swipe
p68
asg43
g44
sg45
Vrock-head
p69
sbasVbossFlag
p70
I00
sVtLongGame
p71
Vfirered-leafgreen
p72
sbag1
(g2
g3
Ntp73
Rp74
(dp75
g7
VSpr FRLG Psychic F.png
p76
sg9
VPsychic
p77
sg11
VLaura
p78
sg13
V980
p79
sg15
g16
sg17
g18
sg19
g20
sg21
g22
sg23
(lp80
g1
(g25
g3
Ntp81
Rp82
(dp83
g29
V177
p84
sg31
VNatu
p85
sg33
VF
p86
sg35
V48
p87
sg37
(lp88
Vnight-shade
p89
aVconfuse-ray
p90
aVfuture-sight
p91
aVwish
p92
asg43
g44
sg45
Vsynchronize
p93
sbag1
(g25
g3
Ntp94
Rp95
(dp96
g29
V177
p97
sg31
VNatu
p98
sg33
g86
sg35
V48
p99
sg37
(lp100
Vnight-shade
p101
aVconfuse-ray
p102
aVfuture-sight
p103
aVwish
p104
asg43
g44
sg45
Vsynchronize
p105
sbag1
(g25
g3
Ntp106
Rp107
(dp108
g29
V178
p109
sg31
VXatu
p110
sg33
g86
sg35
V49
p111
sg37
(lp112
Vnight-shade
p113
aVconfuse-ray
p114
aVfuture-sight
p115
aVwish
p116
asg43
g44
sg45
Vsynchronize
p117
sbasg70
I00
sg71
g72
sbag1
(g2
g3
Ntp118
Rp119
(dp120
g7
VSpr FRLG Lady.png
p121
sg9
VLady
p122
sg11
VSelphy
p123
sg13
V9800
p124
sg15
I2
sg17
g18
sg19
g20
sg21
g22
sg23
(lp125
g1
(g25
g3
Ntp126
Rp127
(dp128
g29
I53
sg31
VPersian
p129
sg33
g34
sg35
V49
p130
sg37
(lp131
VTaunt
p132
aVBite
p133
aVTorment
p134
aVPay Day
p135
asg43
VNugget
p136
sg45
VLimber
p137
sbag1
(g25
g3
Ntp138
Rp139
(dp140
g29
I53
sg31
VPersian
p141
sg33
g34
sg35
V49
p142
sg37
(lp143
VTaunt
p144
aVScratch
p145
aVTorment
p146
aVPay Day
p147
asg43
VNugget
p148
sg45
VLimber
p149
sbasg70
I01
sg71
g72
sba.