(lp0
ccopy_reg
_reconstructor
p1
(c__main__
Trainer
p2
c__builtin__
object
p3
Ntp4
Rp5
(dp6
VtSprite
p7
VVSPunk Guy.png
p8
sVtClass
p9
VPunk Guy
p10
sVtName
p11
VSid
p12
sVtMoney
p13
V1,872
p14
sVtPokeCount
p15
V3
p16
sVtLocation
p17
Vwiki/Lost_Hotel
p18
sVtRegion
p19
VKalos
p20
sVtGame
p21
VSM
p22
sVtPokes
p23
(lp24
g1
(c__main__
FinishedPokemon
p25
g3
Ntp26
Rp27
(dp28
VpDexNo
p29
V560
p30
sVpSpecies
p31
VScrafty
p32
sVpGender
p33
VM
p34
sVpLevel
p35
V39
p36
sVpMoves
p37
(lp38
Vpayback
p39
aVrock-climb
p40
aVhead-smash
p41
aVchip-away
p42
asVpHold
p43
V
p44
sVpAbility
p45
Vmoxie
p46
sbag1
(g25
g3
Ntp47
Rp48
(dp49
g29
V319
p50
sg31
VSharpedo
p51
sg33
g34
sg35
V39
p52
sg37
(lp53
Vnight-slash
p54
ag54
aVice-fang
p55
aVaqua-jet
p56
asg43
g44
sg45
Vrough-skin
p57
sbag1
(g25
g3
Ntp58
Rp59
(dp60
g29
V624
p61
sg31
VPawniard
p62
sg33
g34
sg35
V39
p63
sg37
(lp64
Vassurance
p65
aVembargo
p66
aVnight-slash
p67
aViron-head
p68
asg43
g44
sg45
Vdefiant
p69
sbasVbossFlag
p70
I00
sVtLongGame
p71
Vsun-moon
p72
sbag1
(g2
g3
Ntp73
Rp74
(dp75
g7
VVSPunk Girl.png
p76
sg9
VPunk Girl
p77
sg11
VJeanne
p78
sg13
V1,920
p79
sg15
V2
p80
sg17
g18
sg19
g20
sg21
g22
sg23
(lp81
g1
(g25
g3
Ntp82
Rp83
(dp84
g29
V336
p85
sg31
VSeviper
p86
sg33
VF
p87
sg35
V40
p88
sg37
(lp89
Vvenoshock
p90
aVcoil
p91
aVbelch
p92
aVvenom-drench
p93
asg43
g44
sg45
Vshed-skin
p94
sbag1
(g25
g3
Ntp95
Rp96
(dp97
g29
V024
p98
sg31
VArbok
p99
sg33
g87
sg35
V40
p100
sg37
(lp101
Vgunk-shot
p102
aVcoil
p103
aVacid-spray
p104
aVbelch
p105
asg43
g44
sg45
Vintimidate
p106
sbasg70
I00
sg71
g72
sbag1
(g2
g3
Ntp107
Rp108
(dp109
g7
VVSPunk Couple.png
p110
sg9
VPunk Couple
p111
sg11
VZoya & Asa
p112
sg13
V4,032
p113
sg15
g80
sg17
g18
sg19
g20
sg21
g22
sg23
(lp114
g1
(g25
g3
Ntp115
Rp116
(dp117
g29
V569
p118
sg31
VGarbodor
p119
sg33
g34
sg35
V42
p120
sg37
(lp121
Vgunk-shot
p122
aVacid-spray
p123
aVclear-smog
p124
aVbelch
p125
asg43
g44
sg45
Vweak-armor
p126
sbag1
(g25
g3
Ntp127
Rp128
(dp129
g29
V675
p130
sg31
VPangoro
p131
sg33
g34
sg35
V42
p132
sg37
(lp133
Vcircle-throw
p134
aVwork-up
p135
ag135
aVparting-shot
p136
asg43
g44
sg45
Viron-fist
p137
sbasg70
I00
sg71
g72
sbag1
(g2
g3
Ntp138
Rp139
(dp140
g7
VVSPunk Guy.png
p141
sg9
VPunk Guy
p142
sg11
VSlater
p143
sg13
V2,016
p144
sg15
V1
p145
sg17
g18
sg19
g20
sg21
g22
sg23
(lp146
g1
(g25
g3
Ntp147
Rp148
(dp149
g29
V206
p150
sg31
VDunsparce
p151
sg33
g34
sg35
V42
p152
sg37
(lp153
Vair-slash
p154
aVdragon-rush
p155
aVcoil
p156
aVdrill-run
p157
asg43
g44
sg45
Vserene-grace
p158
sbasg70
I00
sg71
g72
sbag1
(g2
g3
Ntp159
Rp160
(dp161
g7
VVSPunk Guy.png
p162
sg9
VPunk Guy
p163
sg11
VJacques
p164
sg13
V1,920
p165
sg15
g80
sg17
g18
sg19
g20
sg21
g22
sg23
(lp166
g1
(g25
g3
Ntp167
Rp168
(dp169
g29
V435
p170
sg31
VSkuntank
p171
sg33
g34
sg35
V40
p172
sg37
(lp173
Vnight-slash
p174
aVacid-spray
p175
aVbelch
p176
aVvenom-drench
p177
asg43
g44
sg45
Vstench
p178
sbag1
(g25
g3
Ntp179
Rp180
(dp181
g29
V342
p182
sg31
VCrawdaunt
p183
sg33
g34
sg35
V40
p184
sg37
(lp185
Vknock-off
p186
aVnight-slash
p187
aVdouble-hit
p188
aVrazor-shell
p189
asg43
g44
sg45
Vhyper-cutter
p190
sbasg70
I00
sg71
g72
sbag1
(g2
g3
Ntp191
Rp192
(dp193
g7
VVSPunk Girl.png
p194
sg9
VPunk Girl
p195
sg11
VCecile
p196
sg13
V1,920
p197
sg15
g80
sg17
g18
sg19
g20
sg21
g22
sg23
(lp198
g1
(g25
g3
Ntp199
Rp200
(dp201
g29
V510
p202
sg31
VLiepard
p203
sg33
g87
sg35
V40
p204
sg37
(lp205
Vnight-slash
p206
aVnasty-plot
p207
aVhone-claws
p208
aVplay-rough
p209
asg43
g44
sg45
Vunburden
p210
sbag1
(g25
g3
Ntp211
Rp212
(dp213
g29
V510
p214
sg31
VLiepard
p215
sg33
g87
sg35
V40
p216
sg37
(lp217
Vnight-slash
p218
aVnasty-plot
p219
aVhone-claws
p220
aVplay-rough
p221
asg43
g44
sg45
Vunburden
p222
sbasg70
I00
sg71
g72
sba.