(lp0
ccopy_reg
_reconstructor
p1
(c__main__
Trainer
p2
c__builtin__
object
p3
Ntp4
Rp5
(dp6
VtSprite
p7
VSpr GS Skier.png
p8
sVtClass
p9
VSkier
p10
sVtName
p11
VRoxanne
p12
sVtMoney
p13
V2016
p14
sVtPokeCount
p15
V1
p16
sVtLocation
p17
Vwiki/Mahogany_Gym
p18
sVtRegion
p19
VJohto
p20
sVtGame
p21
VGS
p22
sVtPokes
p23
(lp24
g1
(c__main__
FinishedPokemon
p25
g3
Ntp26
Rp27
(dp28
VpDexNo
p29
V124
p30
sVpSpecies
p31
VJynx
p32
sVpGender
p33
VF
p34
sVpLevel
p35
V28
p36
sVpMoves
p37
(lp38
Vpowder-snow
p39
ag39
aVperish-song
p40
aVmean-look
p41
asVpHold
p42
V
p43
sVpAbility
p44
Voblivious
p45
sbasVbossFlag
p46
I00
sVtLongGame
p47
Vgold-silver
p48
sbag1
(g2
g3
Ntp49
Rp50
(dp51
g7
VSpr GS Boarder.png
p52
sg9
VBoarder
p53
sg11
VRonald
p54
sg13
V1728
p55
sg15
V3
p56
sg17
g18
sg19
g20
sg21
g22
sg23
(lp57
g1
(g25
g3
Ntp58
Rp59
(dp60
g29
V086
p61
sg31
VSeel
p62
sg33
VM
p63
sg35
V24
p64
sg37
(lp65
Vice-beam
p66
aVaurora-beam
p67
aVrest
p68
aVsafeguard
p69
asg42
g43
sg44
Vhydration
p70
sbag1
(g25
g3
Ntp71
Rp72
(dp73
g29
V086
p74
sg31
VSeel
p75
sg33
g63
sg35
V24
p76
sg37
(lp77
Vice-beam
p78
aVaurora-beam
p79
aVrest
p80
aVsafeguard
p81
asg42
g43
sg44
Vhydration
p82
sbag1
(g25
g3
Ntp83
Rp84
(dp85
g29
V087
p86
sg31
VDewgong
p87
sg33
g63
sg35
V25
p88
sg37
(lp89
Vaurora-beam
p90
ag90
aVrest
p91
aVsafeguard
p92
asg42
g43
sg44
Vhydration
p93
sbasg46
I00
sg47
g48
sbag1
(g2
g3
Ntp94
Rp95
(dp96
g7
VSpr GS Skier.png
p97
sg9
VSkier
p98
sg11
VClarissa
p99
sg13
V2016
p100
sg15
g16
sg17
g18
sg19
g20
sg21
g22
sg23
(lp101
g1
(g25
g3
Ntp102
Rp103
(dp104
g29
V087
p105
sg31
VDewgong
p106
sg33
g63
sg35
V28
p107
sg37
(lp108
Vaurora-beam
p109
ag109
aVrest
p110
aVsafeguard
p111
asg42
g43
sg44
Vhydration
p112
sbasg46
I00
sg47
g48
sbag1
(g2
g3
Ntp113
Rp114
(dp115
g7
VSpr GS Boarder.png
p116
sg9
VBoarder
p117
sg11
VBrad
p118
sg13
V1872
p119
sg15
V2
p120
sg17
g18
sg19
g20
sg21
g22
sg23
(lp121
g1
(g25
g3
Ntp122
Rp123
(dp124
g29
V220
p125
sg31
VSwinub
p126
sg33
g63
sg35
V26
p127
sg37
(lp128
Vmist
p129
aVblizzard
p130
aVpowder-snow
p131
aVendure
p132
asg42
g43
sg44
Voblivious
p133
sbag1
(g25
g3
Ntp134
Rp135
(dp136
g29
V220
p137
sg31
VSwinub
p138
sg33
g63
sg35
V26
p139
sg37
(lp140
Vmist
p141
aVblizzard
p142
aVpowder-snow
p143
aVendure
p144
asg42
g43
sg44
Vsnow-cloak
p145
sbasg46
I00
sg47
g48
sbag1
(g2
g3
Ntp146
Rp147
(dp148
g7
VSpr GS Boarder.png
p149
sg9
VBoarder
p150
sg11
VDouglas
p151
sg13
V1728
p152
sg15
g56
sg17
g18
sg19
g20
sg21
g22
sg23
(lp153
g1
(g25
g3
Ntp154
Rp155
(dp156
g29
V090
p157
sg31
VShellder
p158
sg33
g63
sg35
V24
p159
sg37
(lp160
Vaurora-beam
p161
aVwithdraw
p162
aVclamp
p163
aVprotect
p164
asg42
g43
sg44
Vshell-armor
p165
sbag1
(g25
g3
Ntp166
Rp167
(dp168
g29
V090
p169
sg31
VShellder
p170
sg33
g63
sg35
V24
p171
sg37
(lp172
Vaurora-beam
p173
aVwithdraw
p174
aVclamp
p175
aVprotect
p176
asg42
g43
sg44
Vskill-link
p177
sbag1
(g25
g3
Ntp178
Rp179
(dp180
g29
V091
p181
sg31
VCloyster
p182
sg33
g63
sg35
V25
p183
sg37
(lp184
Vaurora-beam
p185
aVwithdraw
p186
aVspike-cannon
p187
aVprotect
p188
asg42
g43
sg44
Vshell-armor
p189
sbasg46
I00
sg47
g48
sbag1
(g2
g3
Ntp190
Rp191
(dp192
g7
VSpr HGSS Skier.png
p193
sg9
VSkier
p194
sg11
VDiana
p195
sg13
V928
p196
sg15
g16
sg17
g18
sg19
g20
sg21
VHGSS
p197
sg23
(lp198
g1
(g25
g3
Ntp199
Rp200
(dp201
g29
V124
p202
sg31
VJynx
p203
sg33
g34
sg35
V29
p204
sg37
(lp205
Vfake-tears
p206
aVwake-up-slap
p207
aVwring-out
p208
aVavalanche
p209
asg42
g43
sg44
Vforewarn
p210
sbasg46
I00
sg47
Vheartgold-soulsilver
p211
sbag1
(g2
g3
Ntp212
Rp213
(dp214
g7
VSpr HGSS Boarder.png
p215
sg9
VBoarder
p216
sg11
VPatton
p217
sg13
V864
p218
sg15
g120
sg17
g18
sg19
g20
sg21
g197
sg23
(lp219
g1
(g25
g3
Ntp220
Rp221
(dp222
g29
V220
p223
sg31
VSwinub
p224
sg33
g63
sg35
V27
p225
sg37
(lp226
Vmud-sport
p227
aVodor-sleuth
p228
aVice-shard
p229
aVmud-bomb
p230
asg42
g43
sg44
Vsnow-cloak
p231
sbag1
(g25
g3
Ntp232
Rp233
(dp234
g29
V220
p235
sg31
VSwinub
p236
sg33
g63
sg35
V27
p237
sg37
(lp238
Vmud-sport
p239
aVodor-sleuth
p240
aVice-shard
p241
aVmud-bomb
p242
asg42
g43
sg44
Vsnow-cloak
p243
sbasg46
I00
sg47
g211
sbag1
(g2
g3
Ntp244
Rp245
(dp246
g7
VSpr HGSS Boarder.png
p247
sg9
VBoarder
p248
sg11
VDeandre
p249
sg13
V800
p250
sg15
g56
sg17
g18
sg19
g20
sg21
g197
sg23
(lp251
g1
(g25
g3
Ntp252
Rp253
(dp254
g29
V086
p255
sg31
VSeel
p256
sg33
g63
sg35
V25
p257
sg37
(lp258
Vaqua-ring
p259
aVaqua-tail
p260
aVice-shard
p261
aVaqua-jet
p262
asg42
g43
sg44
Vthick-fat
p263
sbag1
(g25
g3
Ntp264
Rp265
(dp266
g29
V087
p267
sg31
VDewgong
p268
sg33
g63
sg35
V26
p269
sg37
(lp270
Vaqua-ring
p271
aVaqua-tail
p272
aVice-shard
p273
aVaqua-jet
p274
asg42
g43
sg44
Vhydration
p275
sbag1
(g25
g3
Ntp276
Rp277
(dp278
g29
V086
p279
sg31
VSeel
p280
sg33
g63
sg35
V25
p281
sg37
(lp282
Vaqua-ring
p283
aVaqua-tail
p284
aVice-shard
p285
aVaqua-jet
p286
asg42
g43
sg44
Vthick-fat
p287
sbasg46
I00
sg47
g211
sbag1
(g2
g3
Ntp288
Rp289
(dp290
g7
VSpr HGSS Skier.png
p291
sg9
VSkier
p292
sg11
VJill
p293
sg13
V928
p294
sg15
g16
sg17
g18
sg19
g20
sg21
g197
sg23
(lp295
g1
(g25
g3
Ntp296
Rp297
(dp298
g29
V087
p299
sg31
VDewgong
p300
sg33
g34
sg35
V29
p301
sg37
(lp302
Vaqua-ring
p303
aVaqua-tail
p304
aVice-shard
p305
aVaqua-jet
p306
asg42
g43
sg44
Vthick-fat
p307
sbasg46
I00
sg47
g211
sbag1
(g2
g3
Ntp308
Rp309
(dp310
g7
VSpr HGSS Boarder.png
p311
sg9
VBoarder
p312
sg11
VGerardo
p313
sg13
V800
p314
sg15
g56
sg17
g18
sg19
g20
sg21
g197
sg23
(lp315
g1
(g25
g3
Ntp316
Rp317
(dp318
g29
V090
p319
sg31
VShellder
p320
sg33
g63
sg35
V25
p321
sg37
(lp322
Vicicle-spear
p323
aViron-defense
p324
aVbrine
p325
aVice-shard
p326
asg42
g43
sg44
Vshell-armor
p327
sbag1
(g25
g3
Ntp328
Rp329
(dp330
g29
V091
p331
sg31
VCloyster
p332
sg33
g63
sg35
V26
p333
sg37
(lp334
Vspike-cannon
p335
aVprotect
p336
aVspikes
p337
aVtoxic-spikes
p338
asg42
g43
sg44
Vshell-armor
p339
sbag1
(g25
g3
Ntp340
Rp341
(dp342
g29
V086
p343
sg31
VSeel
p344
sg33
g63
sg35
V25
p345
sg37
(lp346
Vaqua-ring
p347
aVaqua-tail
p348
aVice-shard
p349
aVaqua-jet
p350
asg42
g43
sg44
Vhydration
p351
sbasg46
I00
sg47
g211
sbag1
(g2
g3
Ntp352
Rp353
(dp354
g7
VSpr GS Pryce.png
p355
sg9
VLeader
p356
sg11
VPryce
p357
sg13
V3100
p358
sg15
I3
sg17
g18
sg19
g20
sg21
g22
sg23
(lp359
g1
(g25
g3
Ntp360
Rp361
(dp362
g29
I86
sg31
VSeel
p363
sg33
g63
sg35
V27
p364
sg37
(lp365
VHeadbutt
p366
aVIcy Wind
p367
aVAurora Beam
p368
aVRest
p369
asg42
g43
sg44
Vthick-fat
p370
sbag1
(g25
g3
Ntp371
Rp372
(dp373
g29
I87
sg31
VDewgong
p374
sg33
g63
sg35
V29
p375
sg37
(lp376
VHeadbutt
p377
aVIcy Wind
p378
aVAurora Beam
p379
aVRest
p380
asg42
g43
sg44
Vthick-fat
p381
sbag1
(g25
g3
Ntp382
Rp383
(dp384
g29
I221
sg31
VPiloswine
p385
sg33
g63
sg35
V31
p386
sg37
(lp387
VIcy Wind
p388
aVFury Attack
p389
aVMist
p390
aVBlizzard
p391
asg42
g43
sg44
Vsnow-cloak
p392
sbasg46
I01
sg47
g48
sbag1
(g2
g3
Ntp393
Rp394
(dp395
g7
VSpr HGSS Pryce.png
p396
sg9
VLeader
p397
sg11
VPryce
p398
sg13
V4080
p399
sg15
I3
sg17
g18
sg19
g20
sg21
g197
sg23
(lp400
g1
(g25
g3
Ntp401
Rp402
(dp403
g29
I86
sg31
VSeel
p404
sg33
g63
sg35
V30
p405
sg37
(lp406
VIcy Wind
p407
aVRest
p408
aVSnore
p409
aVHail
p410
asg42
g43
sg44
VThick Fat
p411
sbag1
(g25
g3
Ntp412
Rp413
(dp414
g29
I87
sg31
VDewgong
p415
sg33
g63
sg35
V32
p416
sg37
(lp417
VAurora Beam
p418
aVRest
p419
aVSleep Talk
p420
aVIce Shard
p421
asg42
g43
sg44
VThick Fat
p422
sbag1
(g25
g3
Ntp423
Rp424
(dp425
g29
I221
sg31
VPiloswine
p426
sg33
g63
sg35
V34
p427
sg37
(lp428
VBlizzard
p429
aVIce Fang
p430
aVMud Bomb
p431
aVHail
p432
asg42
VSitrus Berry
p433
sg44
VSnow Cloak
p434
sbasg46
I01
sg47
g211
sba.