(lp0
ccopy_reg
_reconstructor
p1
(c__main__
Trainer
p2
c__builtin__
object
p3
Ntp4
Rp5
(dp6
VtSprite
p7
VSpr BW Ace Trainer F.png
p8
sVtClass
p9
VAce Trainer
p10
sVtName
p11
VGlinda
p12
sVtMoney
p13
V3900<br><small>[[Triple Battle]]{{sup/5|Bl}}/[[Rotation Battle]]{{sup/5|W}}</small>
p14
sVtPokeCount
p15
V3
p16
sVtLocation
p17
Vwiki/Marvelous_Bridge
p18
sVtRegion
p19
VUnova
p20
sVtGame
p21
VBW
p22
sVtPokes
p23
(lp24
g1
(c__main__
FinishedPokemon
p25
g3
Ntp26
Rp27
(dp28
VpDexNo
p29
V606
p30
sVpSpecies
p31
VBeheeyem
p32
sVpGender
p33
VF
p34
sVpLevel
p35
V65
p36
sVpMoves
p37
(lp38
Vpower-split
p39
aVwonder-room
p40
aVsynchronoise
p41
aVsimple-beam
p42
asVpHold
p43
V
p44
sVpAbility
p45
Vtelepathy
p46
sbag1
(g25
g3
Ntp47
Rp48
(dp49
g29
V601
p50
sg31
VKlinklang
p51
sg33
VU
p52
sg35
V65
p53
sg37
(lp54
Vautotomize
p55
aVshift-gear
p56
aVgear-grind
p57
ag57
asg43
g44
sg45
Vminus
p58
sbag1
(g25
g3
Ntp59
Rp60
(dp61
g29
V594
p62
sg31
VAlomomola
p63
sg33
g34
sg35
V65
p64
sg37
(lp65
Vaqua-jet
p66
aVwide-guard
p67
aVsoak
p68
aVheal-pulse
p69
asg43
g44
sg45
Vhealer
p70
sbasVbossFlag
p71
I00
sVtLongGame
p72
Vblack-white
p73
sba.