(lp0
ccopy_reg
_reconstructor
p1
(c__main__
Trainer
p2
c__builtin__
object
p3
Ntp4
Rp5
(dp6
VtSprite
p7
VSpr RS Guitarist.png
p8
sVtClass
p9
VGuitarist
p10
sVtName
p11
VKirk
p12
sVtMoney
p13
V576
p14
sVtPokeCount
p15
V2
p16
sVtLocation
p17
Vwiki/Mauville_Gym
p18
sVtRegion
p19
VHoenn
p20
sVtGame
p21
VRS
p22
sVtPokes
p23
(lp24
g1
(c__main__
FinishedPokemon
p25
g3
Ntp26
Rp27
(dp28
VpDexNo
p29
V309
p30
sVpSpecies
p31
VElectrike
p32
sVpGender
p33
VM
p34
sVpLevel
p35
V18
p36
sVpMoves
p37
(lp38
Vspark
p39
aVcharge
p40
aVodor-sleuth
p41
aVhowl
p42
asVpHold
p43
V
p44
sVpAbility
p45
Vlightning-rod
p46
sbag1
(g25
g3
Ntp47
Rp48
(dp49
g29
V081
p50
sg31
VMagnemite
p51
sg33
VU
p52
sg35
V18
p53
sg37
(lp54
Vzap-cannon
p55
aVlock-on
p56
aVspark
p57
aVmetal-sound
p58
asg43
g44
sg45
Vmagnet-pull
p59
sbasVbossFlag
p60
I00
sVtLongGame
p61
Vruby-sapphire
p62
sbag1
(g2
g3
Ntp63
Rp64
(dp65
g7
VSpr RS Youngster.png
p66
sg9
VYoungster
p67
sg11
VBen
p68
sg13
V304
p69
sg15
V1
p70
sg17
g18
sg19
g20
sg21
g22
sg23
(lp71
g1
(g25
g3
Ntp72
Rp73
(dp74
g29
V263
p75
sg31
VZigzagoon
p76
sg33
g34
sg35
V19
p77
sg37
(lp78
Vbelly-drum
p79
aVmud-sport
p80
aVodor-sleuth
p81
aVcovet
p82
asg43
g44
sg45
Vgluttony
p83
sbasg60
I00
sg61
g62
sbag1
(g2
g3
Ntp84
Rp85
(dp86
g7
VSpr RS Guitarist.png
p87
sg9
VGuitarist
p88
sg11
VShawn
p89
sg13
V544
p90
sg15
V3
p91
sg17
g18
sg19
g20
sg21
g22
sg23
(lp92
g1
(g25
g3
Ntp93
Rp94
(dp95
g29
V100
p96
sg31
VVoltorb
p97
sg33
g52
sg35
V17
p98
sg37
(lp99
Vrollout
p100
aVspark
p101
aVmirror-coat
p102
aVcharge
p103
asg43
g44
sg45
Vstatic
p104
sbag1
(g25
g3
Ntp105
Rp106
(dp107
g29
V100
p108
sg31
VVoltorb
p109
sg33
g52
sg35
V17
p110
sg37
(lp111
Vrollout
p112
aVspark
p113
aVmirror-coat
p114
aVcharge
p115
asg43
g44
sg45
Vsoundproof
p116
sbag1
(g25
g3
Ntp117
Rp118
(dp119
g29
V100
p120
sg31
VVoltorb
p121
sg33
g52
sg35
V17
p122
sg37
(lp123
Vrollout
p124
aVspark
p125
aVmirror-coat
p126
aVcharge
p127
asg43
g44
sg45
Vstatic
p128
sbasg60
I00
sg61
g62
sbag1
(g2
g3
Ntp129
Rp130
(dp131
g7
VSpr RS Battle Girl.png
p132
sg9
VBattle Girl
p133
sg11
VVivian
p134
sg13
V456
p135
sg15
g70
sg17
g18
sg19
g20
sg21
g22
sg23
(lp136
g1
(g25
g3
Ntp137
Rp138
(dp139
g29
V307
p140
sg31
VMeditite
p141
sg33
VF
p142
sg35
V19
p143
sg37
(lp144
Vdetect
p145
aVhidden-power
p146
aVpsych-up
p147
aVcalm-mind
p148
asg43
g44
sg45
Vpure-power
p149
sbasg60
I00
sg61
g62
sbag1
(g2
g3
Ntp150
Rp151
(dp152
g7
VSpr RS Battle Girl.png
p153
sg9
VBattle Girl
p154
sg11
VVivian
p155
sg13
V408<br/><small>Potential [[Double Battle]] with Kirk</small>
p156
sg15
g16
sg17
g18
sg19
g20
sg21
g22
sg23
(lp157
g1
(g25
g3
Ntp158
Rp159
(dp160
g29
V307
p161
sg31
VMeditite
p162
sg33
g142
sg35
V17
p163
sg37
(lp164
Vdetect
p165
aVhidden-power
p166
aVpsych-up
p167
aVcalm-mind
p168
asg43
g44
sg45
Vpure-power
p169
sbag1
(g25
g3
Ntp170
Rp171
(dp172
g29
V307
p173
sg31
VMeditite
p174
sg33
g142
sg35
V17
p175
sg37
(lp176
Vdetect
p177
aVhidden-power
p178
aVpsych-up
p179
aVcalm-mind
p180
asg43
g44
sg45
Vpure-power
p181
sbasg60
I00
sg61
g62
sbag1
(g2
g3
Ntp182
Rp183
(dp184
g7
VSpr RS Guitarist.png
p185
sg9
VGuitarist
p186
sg11
VKirk
p187
sg13
V544<br/><small>Potential [[Double Battle]] with Vivian</small>
p188
sg15
g16
sg17
g18
sg19
g20
sg21
g22
sg23
(lp189
g1
(g25
g3
Ntp190
Rp191
(dp192
g29
V309
p193
sg31
VElectrike
p194
sg33
g34
sg35
V17
p195
sg37
(lp196
Vspark
p197
aVcharge
p198
aVodor-sleuth
p199
aVhowl
p200
asg43
g44
sg45
Vstatic
p201
sbag1
(g25
g3
Ntp202
Rp203
(dp204
g29
V100
p205
sg31
VVoltorb
p206
sg33
g52
sg35
V17
p207
sg37
(lp208
Vrollout
p209
aVspark
p210
aVmirror-coat
p211
aVcharge
p212
asg43
g44
sg45
Vsoundproof
p213
sbasg60
I00
sg61
g62
sbag1
(g2
g3
Ntp214
Rp215
(dp216
g7
VSpr RS Youngster.png
p217
sg9
VYoungster
p218
sg11
VBen
p219
sg13
V272
p220
sg15
g16
sg17
g18
sg19
g20
sg21
g22
sg23
(lp221
g1
(g25
g3
Ntp222
Rp223
(dp224
g29
V263
p225
sg31
VZigzagoon
p226
sg33
g34
sg35
V17
p227
sg37
(lp228
Vbelly-drum
p229
aVmud-sport
p230
aVodor-sleuth
p231
aVcovet
p232
asg43
g44
sg45
Vgluttony
p233
sbag1
(g25
g3
Ntp234
Rp235
(dp236
g29
V316
p237
sg31
VGulpin
p238
sg33
g34
sg35
V17
p239
sg37
(lp240
Vstockpile
p241
aVspit-up
p242
aVswallow
p243
aVyawn
p244
asg43
g44
sg45
Vliquid-ooze
p245
sbasg60
I00
sg61
g62
sbag1
(g2
g3
Ntp246
Rp247
(dp248
g7
VSpr RS Bug Maniac.png
p249
sg9
VBug Maniac
p250
sg11
VAngelo
p251
sg13
V1020<br/><small>Potential [[Double Battle]] with Shawn</small>
p252
sg15
g16
sg17
g18
sg19
g20
sg21
g22
sg23
(lp253
g1
(g25
g3
Ntp254
Rp255
(dp256
g29
V314
p257
sg31
VIllumise
p258
sg33
g142
sg35
V17
p259
sg37
(lp260
Vflatter
p261
aVhelping-hand
p262
aVwish
p263
aVcovet
p264
asg43
g44
sg45
Vtinted-lens
p265
sbag1
(g25
g3
Ntp266
Rp267
(dp268
g29
V313
p269
sg31
VVolbeat
p270
sg33
g34
sg35
V17
p271
sg37
(lp272
Vmoonlight
p273
aVhelping-hand
p274
aVtail-glow
p275
aVsignal-beam
p276
asg43
g44
sg45
Vswarm
p277
sbasg60
I00
sg61
g62
sbag1
(g2
g3
Ntp278
Rp279
(dp280
g7
VSpr RS Guitarist.png
p281
sg9
VGuitarist
p282
sg11
VShawn
p283
sg13
V544<br/><small>Potential [[Double Battle]] with Angelo</small>
p284
sg15
g16
sg17
g18
sg19
g20
sg21
g22
sg23
(lp285
g1
(g25
g3
Ntp286
Rp287
(dp288
g29
V100
p289
sg31
VVoltorb
p290
sg33
g52
sg35
V17
p291
sg37
(lp292
Vrollout
p293
aVspark
p294
aVmirror-coat
p295
aVcharge
p296
asg43
g44
sg45
Vsoundproof
p297
sbag1
(g25
g3
Ntp298
Rp299
(dp300
g29
V081
p301
sg31
VMagnemite
p302
sg33
g52
sg35
V17
p303
sg37
(lp304
Vzap-cannon
p305
aVlock-on
p306
aVspark
p307
aVmetal-sound
p308
asg43
g44
sg45
Vmagnet-pull
p309
sbasg60
I00
sg61
g62
sbag1
(g2
g3
Ntp310
Rp311
(dp312
g7
VVSGuitarist.png
p313
sg9
VGuitarist
p314
sg11
VKirk
p315
sg13
V448
p316
sg15
g16
sg17
g18
sg19
g20
sg21
VSM
p317
sg23
(lp318
g1
(g25
g3
Ntp319
Rp320
(dp321
g29
V081
p322
sg31
VMagnemite
p323
sg33
g52
sg35
V16
p324
sg37
(lp325
Vflash-cannon
p326
aVdischarge
p327
aVmagnet-bomb
p328
aVelectro-ball
p329
asg43
g44
sg45
Vsturdy
p330
sbag1
(g25
g3
Ntp331
Rp332
(dp333
g29
V309
p334
sg31
VElectrike
p335
sg33
g34
sg35
V16
p336
sg37
(lp337
Vhowl
p338
aVthunder-fang
p339
aVdischarge
p340
aVwild-charge
p341
asg43
g44
sg45
Vstatic
p342
sbasg60
I00
sg61
Vsun-moon
p343
sbag1
(g2
g3
Ntp344
Rp345
(dp346
g7
VVSYoungster ORAS.png
p347
sg9
VYoungster
p348
sg11
VBen
p349
sg13
V272
p350
sg15
g70
sg17
g18
sg19
g20
sg21
VSM
p351
sg23
(lp352
g1
(g25
g3
Ntp353
Rp354
(dp355
g29
V309
p356
sg31
VElectrike
p357
sg33
g34
sg35
V17
p358
sg37
(lp359
Vhowl
p360
aVthunder-fang
p361
aVdischarge
p362
aVwild-charge
p363
asg43
g44
sg45
Vlightning-rod
p364
sbasg60
I00
sg61
g343
sbag1
(g2
g3
Ntp365
Rp366
(dp367
g7
VVSBattle Girl ORAS.png
p368
sg9
VBattle Girl
p369
sg11
VVivian
p370
sg13
V608
p371
sg15
g70
sg17
g18
sg19
g20
sg21
VSM
p372
sg23
(lp373
g1
(g25
g3
Ntp374
Rp375
(dp376
g29
V307
p377
sg31
VMeditite
p378
sg33
g142
sg35
V19
p379
sg37
(lp380
Vfeint
p381
aVacupressure
p382
aVpower-trick
p383
aVforce-palm
p384
asg43
g44
sg45
Vpure-power
p385
sbasg60
I00
sg61
g343
sbag1
(g2
g3
Ntp386
Rp387
(dp388
g7
VVSGuitarist.png
p389
sg9
VGuitarist
p390
sg11
VShawn
p391
sg13
V476
p392
sg15
g16
sg17
g18
sg19
g20
sg21
g317
sg23
(lp393
g1
(g25
g3
Ntp394
Rp395
(dp396
g29
V100
p397
sg31
VVoltorb
p398
sg33
g52
sg35
V15
p399
sg37
(lp400
Vdischarge
p401
aVcharge-beam
p402
aVelectro-ball
p403
aVeerie-impulse
p404
asg43
g44
sg45
Vstatic
p405
sbag1
(g25
g3
Ntp406
Rp407
(dp408
g29
V100
p409
sg31
VVoltorb
p410
sg33
g52
sg35
V17
p411
sg37
(lp412
Vdischarge
p413
aVcharge-beam
p414
aVelectro-ball
p415
aVeerie-impulse
p416
asg43
g44
sg45
Vstatic
p417
sbasg60
I00
sg61
g343
sbag1
(g2
g3
Ntp418
Rp419
(dp420
g7
VSpr RS Wattson.png
p421
sg9
VLeader
p422
sg11
VWattson
p423
sg13
V2300
p424
sg15
I3
sg17
g18
sg19
g20
sg21
g22
sg23
(lp425
g1
(g25
g3
Ntp426
Rp427
(dp428
g29
I81
sg31
VMagnemite
p429
sg33
g52
sg35
V22
p430
sg37
(lp431
VThunderShock
p432
aVSupersonic
p433
aVSonicBoom
p434
aVThunder Wave
p435
asg43
g44
sg45
VMagnet Pull
p436
sbag1
(g25
g3
Ntp437
Rp438
(dp439
g29
I100
sg31
VVoltorb
p440
sg33
g52
sg35
V20
p441
sg37
(lp442
VRollout
p443
aVSpark
p444
aVSonicBoom
p445
aVSelfdestruct
p446
asg43
g44
sg45
VSoundproof
p447
sbag1
(g25
g3
Ntp448
Rp449
(dp450
g29
I82
sg31
VMagneton
p451
sg33
g52
sg35
V23
p452
sg37
(lp453
VShock Wave
p454
aVSupersonic
p455
aVSonicBoom
p456
aVThunder Wave
p457
asg43
g44
sg45
VMagnet Pull
p458
sbasg60
I01
sg61
g62
sbag1
(g2
g3
Ntp459
Rp460
(dp461
g7
VSpr RS Wattson.png
p462
sg9
VLeader
p463
sg11
VWattson
p464
sg13
V2400
p465
sg15
I4
sg17
g18
sg19
g20
sg21
g22
sg23
(lp466
g1
(g25
g3
Ntp467
Rp468
(dp469
g29
I100
sg31
VVoltorb
p470
sg33
g52
sg35
V20
p471
sg37
(lp472
VRollout
p473
aVSpark
p474
aVSelfdestruct
p475
aVShock Wave
p476
asg43
g44
sg45
VSoundproof
p477
sbag1
(g25
g3
Ntp478
Rp479
(dp480
g29
I309
sg31
VElectrike
p481
sg33
g34
sg35
V20
p482
sg37
(lp483
VShock Wave
p484
aVLeer
p485
aVQuick Attack
p486
aVHowl
p487
asg43
g44
sg45
VStatic
p488
sbag1
(g25
g3
Ntp489
Rp490
(dp491
g29
I82
sg31
VMagneton
p492
sg33
g52
sg35
V22
p493
sg37
(lp494
VSupersonic
p495
aVShock Wave
p496
aVThunder Wave
p497
aVSonicBoom
p498
asg43
g44
sg45
VMagnet Pull
p499
sbag1
(g25
g3
Ntp500
Rp501
(dp502
g29
I310
sg31
VManectric
p503
sg33
g34
sg35
V24
p504
sg37
(lp505
VQuick Attack
p506
aVThunder Wave
p507
aVShock Wave
p508
aVHowl
p509
asg43
VSitrus Berry
p510
sg45
VStatic
p511
sbasg60
I01
sg61
g62
sbag1
(g2
g3
Ntp512
Rp513
(dp514
g7
VSpr RS Wattson.png
p515
sg9
VLeader
p516
sg11
VWattson
p517
sg13
V8000
p518
sg15
I4
sg17
g18
sg19
g20
sg21
g22
sg23
(lp519
g1
(g25
g3
Ntp520
Rp521
(dp522
g29
I179
sg31
VMareep
p523
sg33
g34
sg35
V36
p524
sg37
(lp525
VThunder
p526
aVProtect
p527
aVThunder Wave
p528
aVLight Screen
p529
asg43
g44
sg45
VStatic
p530
sbag1
(g25
g3
Ntp531
Rp532
(dp533
g29
I101
sg31
VElectrode
p534
sg33
g52
sg35
V36
p535
sg37
(lp536
VRollout
p537
aVThunder
p538
aVExplosion
p539
aVRain Dance
p540
asg43
g44
sg45
VSoundproof
p541
sbag1
(g25
g3
Ntp542
Rp543
(dp544
g29
I82
sg31
VMagneton
p545
sg33
g52
sg35
V38
p546
sg37
(lp547
VSupersonic
p548
aVProtect
p549
aVThunder
p550
aVRain Dance
p551
asg43
VSitrus Berry
p552
sg45
VMagnet Pull
p553
sbag1
(g25
g3
Ntp554
Rp555
(dp556
g29
I310
sg31
VManectric
p557
sg33
g34
sg35
V40
p558
sg37
(lp559
VBite
p560
aVThunder Wave
p561
aVThunder
p562
aVProtect
p563
asg43
VSitrus Berry
p564
sg45
VStatic
p565
sbasg60
I01
sg61
g62
sbag1
(g2
g3
Ntp566
Rp567
(dp568
g7
VSpr RS Wattson.png
p569
sg9
VLeader
p570
sg11
VWattson
p571
sg13
V9000
p572
sg15
I5
sg17
g18
sg19
g20
sg21
g22
sg23
(lp573
g1
(g25
g3
Ntp574
Rp575
(dp576
g29
I25
sg31
VPikachu
p577
sg33
g34
sg35
V39
p578
sg37
(lp579
VThunder
p580
aVSlam
p581
aVRain Dance
p582
aVShock Wave
p583
asg43
g44
sg45
VStatic
p584
sbag1
(g25
g3
Ntp585
Rp586
(dp587
g29
I180
sg31
VFlaaffy
p588
sg33
g34
sg35
V41
p589
sg37
(lp590
VThunder
p591
aVProtect
p592
aVThunder Wave
p593
aVLight Screen
p594
asg43
g44
sg45
VStatic
p595
sbag1
(g25
g3
Ntp596
Rp597
(dp598
g29
I101
sg31
VElectrode
p599
sg33
g52
sg35
V41
p600
sg37
(lp601
VRollout
p602
aVThunder
p603
aVExplosion
p604
aVRain Dance
p605
asg43
g44
sg45
VSoundproof
p606
sbag1
(g25
g3
Ntp607
Rp608
(dp609
g29
I82
sg31
VMagneton
p610
sg33
g52
sg35
V43
p611
sg37
(lp612
VSupersonic
p613
aVProtect
p614
aVThunder
p615
aVRain Dance
p616
asg43
VSitrus Berry
p617
sg45
VMagnet Pull
p618
sbag1
(g25
g3
Ntp619
Rp620
(dp621
g29
I310
sg31
VManectric
p622
sg33
g34
sg35
V45
p623
sg37
(lp624
VBite
p625
aVThunder Wave
p626
aVThunder
p627
aVProtect
p628
asg43
VSitrus Berry
p629
sg45
VStatic
p630
sbasg60
I01
sg61
g62
sbag1
(g2
g3
Ntp631
Rp632
(dp633
g7
VSpr RS Wattson.png
p634
sg9
VLeader
p635
sg11
VWattson
p636
sg13
V10000
p637
sg15
I5
sg17
g18
sg19
g20
sg21
g22
sg23
(lp638
g1
(g25
g3
Ntp639
Rp640
(dp641
g29
I26
sg31
VRaichu
p642
sg33
g34
sg35
V44
p643
sg37
(lp644
VThunder
p645
aVSlam
p646
aVRain Dance
p647
aVProtect
p648
asg43
g44
sg45
VStatic
p649
sbag1
(g25
g3
Ntp650
Rp651
(dp652
g29
I181
sg31
VAmpharos
p653
sg33
g34
sg35
V46
p654
sg37
(lp655
VThunder
p656
aVProtect
p657
aVThunder Wave
p658
aVLight Screen
p659
asg43
g44
sg45
VStatic
p660
sbag1
(g25
g3
Ntp661
Rp662
(dp663
g29
I101
sg31
VElectrode
p664
sg33
g52
sg35
V46
p665
sg37
(lp666
VRollout
p667
aVThunder
p668
aVExplosion
p669
aVRain Dance
p670
asg43
g44
sg45
VSoundproof
p671
sbag1
(g25
g3
Ntp672
Rp673
(dp674
g29
I82
sg31
VMagneton
p675
sg33
g52
sg35
V48
p676
sg37
(lp677
VSupersonic
p678
aVProtect
p679
aVThunder
p680
aVRain Dance
p681
asg43
VSitrus Berry
p682
sg45
VMagnet Pull
p683
sbag1
(g25
g3
Ntp684
Rp685
(dp686
g29
I310
sg31
VManectric
p687
sg33
g34
sg35
V50
p688
sg37
(lp689
VBite
p690
aVThunder Wave
p691
aVThunder
p692
aVProtect
p693
asg43
VSitrus Berry
p694
sg45
VStatic
p695
sbasg60
I01
sg61
g62
sbag1
(g2
g3
Ntp696
Rp697
(dp698
g7
VSpr RS Wattson.png
p699
sg9
VLeader
p700
sg11
VWattson
p701
sg13
V11000
p702
sg15
I6
sg17
g18
sg19
g20
sg21
g22
sg23
(lp703
g1
(g25
g3
Ntp704
Rp705
(dp706
g29
I125
sg31
VElectabuzz
p707
sg33
g34
sg35
V50
p708
sg37
(lp709
VSwift
p710
aVFocus Punch
p711
aVThunderPunch
p712
aVLight Screen
p713
asg43
g44
sg45
VStatic
p714
sbag1
(g25
g3
Ntp715
Rp716
(dp717
g29
I26
sg31
VRaichu
p718
sg33
g34
sg35
V51
p719
sg37
(lp720
VThunder
p721
aVSlam
p722
aVRain Dance
p723
aVProtect
p724
asg43
g44
sg45
VStatic
p725
sbag1
(g25
g3
Ntp726
Rp727
(dp728
g29
I181
sg31
VAmpharos
p729
sg33
g34
sg35
V51
p730
sg37
(lp731
VThunder
p732
aVProtect
p733
aVThunder Wave
p734
aVLight Screen
p735
asg43
g44
sg45
VStatic
p736
sbag1
(g25
g3
Ntp737
Rp738
(dp739
g29
I101
sg31
VElectrode
p740
sg33
g52
sg35
V53
p741
sg37
(lp742
VRollout
p743
aVThunder
p744
aVExplosion
p745
aVRain Dance
p746
asg43
g44
sg45
VSoundproof
p747
sbag1
(g25
g3
Ntp748
Rp749
(dp750
g29
I82
sg31
VMagneton
p751
sg33
g52
sg35
V53
p752
sg37
(lp753
VSupersonic
p754
aVProtect
p755
aVThunder
p756
aVRain Dance
p757
asg43
VSitrus Berry
p758
sg45
VMagnet Pull
p759
sbag1
(g25
g3
Ntp760
Rp761
(dp762
g29
I310
sg31
VManectric
p763
sg33
g34
sg35
V55
p764
sg37
(lp765
VBite
p766
aVThunder Wave
p767
aVThunder
p768
aVProtect
p769
asg43
VSitrus Berry
p770
sg45
VStatic
p771
sbasg60
I01
sg61
g62
sbag1
(g2
g3
Ntp772
Rp773
(dp774
g7
VVSWattson.png
p775
sg9
VLeader
p776
sg11
VWattson
p777
sg13
V2,520
p778
sg15
I3
sg17
g18
sg19
g20
sg21
g317
sg23
(lp779
g1
(g25
g3
Ntp780
Rp781
(dp782
g29
I81
sg31
VMagnemite
p783
sg33
g52
sg35
V19
p784
sg37
(lp785
VThunder Wave
p786
aVTackle
p787
aVVolt Switch
p788
asg43
g44
sg45
VSturdy
p789
sbag1
(g25
g3
Ntp790
Rp791
(dp792
g29
I100
sg31
VVoltorb
p793
sg33
g52
sg35
V19
p794
sg37
(lp795
VRollout
p796
aVCharge
p797
aVVolt Switch
p798
asg43
g44
sg45
VSoundproof
p799
sbag1
(g25
g3
Ntp800
Rp801
(dp802
g29
I82
sg31
VMagneton
p803
sg33
g52
sg35
V21
p804
sg37
(lp805
VSupersonic
p806
aVMagnet Bomb
p807
aVVolt Switch
p808
asg43
g44
sg45
VMagnet Pull
p809
sbasg60
I01
sg61
g343
sba.