(lp0
ccopy_reg
_reconstructor
p1
(c__main__
Trainer
p2
c__builtin__
object
p3
Ntp4
Rp5
(dp6
VtSprite
p7
VVSYoungster ORAS.png
p8
sVtClass
p9
VYoungster
p10
sVtName
p11
VCutler
p12
sVtMoney
p13
V272
p14
sVtPokeCount
p15
V1
p16
sVtLocation
p17
Vwiki/Mauville_Food_Court
p18
sVtRegion
p19
VHoenn
p20
sVtGame
p21
VSM
p22
sVtPokes
p23
(lp24
g1
(c__main__
FinishedPokemon
p25
g3
Ntp26
Rp27
(dp28
VpDexNo
p29
V218
p30
sVpSpecies
p31
VSlugma
p32
sVpGender
p33
VM
p34
sVpLevel
p35
V17
p36
sVpMoves
p37
(lp38
Vlava-plume
p39
aVflame-burst
p40
aVclear-smog
p41
aVincinerate
p42
asVpHold
p43
V
p44
sVpAbility
p45
Vmagma-armor
p46
sbasVbossFlag
p47
I00
sVtLongGame
p48
Vsun-moon
p49
sbag1
(g2
g3
Ntp50
Rp51
(dp52
g7
VVSSchoolkid F.png
p53
sg9
VSchoolkid
p54
sg11
VNitzel
p55
sg13
V340
p56
sg15
g16
sg17
g18
sg19
g20
sg21
g22
sg23
(lp57
g1
(g25
g3
Ntp58
Rp59
(dp60
g29
V043
p61
sg31
VOddish
p62
sg33
VF
p63
sg35
V17
p64
sg37
(lp65
Vnatural-gift
p66
aVlucky-chant
p67
aVgrassy-terrain
p68
aVmoonblast
p69
asg43
g44
sg45
Vchlorophyll
p70
sbasg47
I00
sg48
g49
sbag1
(g2
g3
Ntp71
Rp72
(dp73
g7
VVSYoungster ORAS.png
p74
sg9
VYoungster
p75
sg11
VHam
p76
sg13
V272
p77
sg15
g16
sg17
g18
sg19
g20
sg21
g22
sg23
(lp78
g1
(g25
g3
Ntp79
Rp80
(dp81
g29
V276
p82
sg31
VTaillow
p83
sg33
g34
sg35
V17
p84
sg37
(lp85
Vaerial-ace
p86
aVair-slash
p87
aVbrave-bird
p88
aVquick-guard
p89
asg43
g44
sg45
Vguts
p90
sbasg47
I00
sg48
g49
sbag1
(g2
g3
Ntp91
Rp92
(dp93
g7
VVSSchoolkid F.png
p94
sg9
VSchoolkid
p95
sg11
VMeena
p96
sg13
V340
p97
sg15
g16
sg17
g18
sg19
g20
sg21
g22
sg23
(lp98
g1
(g25
g3
Ntp99
Rp100
(dp101
g29
V118
p102
sg31
VGoldeen
p103
sg33
g63
sg35
V17
p104
sg37
(lp105
Vwater-sport
p106
aVwater-pulse
p107
aVaqua-ring
p108
aVsoak
p109
asg43
g44
sg45
Vwater-veil
p110
sbasg47
I00
sg48
g49
sbag1
(g2
g3
Ntp111
Rp112
(dp113
g7
VVSFairy Tale Girl.png
p114
sg9
VFairy Tale Girl
p115
sg11
VMeggi
p116
sg13
V272
p117
sg15
g16
sg17
g18
sg19
g20
sg21
VSM
p118
sg23
(lp119
g1
(g25
g3
Ntp120
Rp121
(dp122
g29
V039
p123
sg31
VJigglypuff
p124
sg33
g63
sg35
V17
p125
sg37
(lp126
Vgyro-ball
p127
aVround
p128
aVdisarming-voice
p129
aVplay-nice
p130
asg43
g44
sg45
Vcompetitive
p131
sbasg47
I00
sg48
g49
sbag1
(g2
g3
Ntp132
Rp133
(dp134
g7
VVSLass ORAS.png
p135
sg9
VLass
p136
sg11
VSuzette
p137
sg13
V880
p138
sg15
V2
p139
sg17
g18
sg19
g20
sg21
g22
sg23
(lp140
g1
(g25
g3
Ntp141
Rp142
(dp143
g29
V556
p144
sg31
VMaractus
p145
sg33
g63
sg35
V55
p146
sg37
(lp147
Vcotton-guard
p148
ag148
aVpetal-blizzard
p149
aVspiky-shield
p150
asg43
g44
sg45
Vwater-absorb
p151
sbag1
(g25
g3
Ntp152
Rp153
(dp154
g29
V134
p155
sg31
VVaporeon
p156
sg33
g63
sg35
V55
p157
sg37
(lp158
Vwater-pulse
p159
aVlast-resort
p160
aVaqua-ring
p161
aVbaby-doll-eyes
p162
asg43
g44
sg45
Vwater-absorb
p163
sbasg47
I00
sg48
g49
sbag1
(g2
g3
Ntp164
Rp165
(dp166
g7
VVSRich Boy ORAS.png
p167
sg9
VRich Boy
p168
sg11
VFilbert
p169
sg13
V6,600
p170
sg15
g139
sg17
g18
sg19
g20
sg21
g22
sg23
(lp171
g1
(g25
g3
Ntp172
Rp173
(dp174
g29
V171
p175
sg31
VLanturn
p176
sg33
g34
sg35
V55
p177
sg37
(lp178
Velectro-ball
p179
ag179
aVion-deluge
p180
aVeerie-impulse
p181
asg43
g44
sg45
Vvolt-absorb
p182
sbag1
(g25
g3
Ntp183
Rp184
(dp185
g29
V135
p186
sg31
VJolteon
p187
sg33
g34
sg35
V55
p188
sg37
(lp189
Vlast-resort
p190
aVthunder-fang
p191
aVdischarge
p192
aVbaby-doll-eyes
p193
asg43
g44
sg45
Vvolt-absorb
p194
sbasg47
I00
sg48
g49
sbag1
(g2
g3
Ntp195
Rp196
(dp197
g7
VVSAroma Lady.png
p198
sg9
VAroma Lady
p199
sg11
VThyme
p200
sg13
V1,760
p201
sg15
g139
sg17
g18
sg19
g20
sg21
g22
sg23
(lp202
g1
(g25
g3
Ntp203
Rp204
(dp205
g29
V673
p206
sg31
VGogoat
p207
sg33
g63
sg35
V55
p208
sg37
(lp209
Vworry-seed
p210
aVseed-bomb
p211
aVbulldoze
p212
aVhorn-leech
p213
asg43
g44
sg45
Vsap-sipper
p214
sbag1
(g25
g3
Ntp215
Rp216
(dp217
g29
V706
p218
sg31
VGoodra
p219
sg33
g63
sg35
V55
p220
sg37
(lp221
Vfeint
p222
aVaqua-tail
p223
aVdragon-pulse
p224
aVpower-whip
p225
asg43
g44
sg45
Vsap-sipper
p226
sbasg47
I00
sg48
g49
sbag1
(g2
g3
Ntp227
Rp228
(dp229
g7
VVSLady ORAS.png
p230
sg9
VLady
p231
sg11
VDulcie
p232
sg13
V6,600
p233
sg15
g139
sg17
g18
sg19
g20
sg21
g22
sg23
(lp234
g1
(g25
g3
Ntp235
Rp236
(dp237
g29
V455
p238
sg31
VCarnivine
p239
sg33
g63
sg35
V55
p240
sg37
(lp241
Vingrain
p242
aVwring-out
p243
aVpower-whip
p244
aVleaf-tornado
p245
asg43
g44
sg45
Vlevitate
p246
sbag1
(g25
g3
Ntp247
Rp248
(dp249
g29
V429
p250
sg31
VMismagius
p251
sg33
g63
sg35
V55
p252
sg37
(lp253
Vlucky-chant
p254
aVpower-gem
p255
aVphantom-force
p256
aVmystical-fire
p257
asg43
g44
sg45
Vlevitate
p258
sbasg47
I00
sg48
g49
sbag1
(g2
g3
Ntp259
Rp260
(dp261
g7
VVSAce Trainer M ORAS.png
p262
sg9
VAce Trainer
p263
sg11
VBenedict
p264
sg13
V3,300
p265
sg15
g139
sg17
g18
sg19
g20
sg21
g22
sg23
(lp266
g1
(g25
g3
Ntp267
Rp268
(dp269
g29
V136
p270
sg31
VFlareon
p271
sg33
g34
sg35
V55
p272
sg37
(lp273
Vflare-blitz
p274
aVfire-fang
p275
aVlava-plume
p276
aVbaby-doll-eyes
p277
asg43
g44
sg45
Vflash-fire
p278
sbag1
(g25
g3
Ntp279
Rp280
(dp281
g29
V631
p282
sg31
VHeatmor
p283
sg33
g34
sg35
V55
p284
sg37
(lp285
Vflame-burst
p286
aVincinerate
p287
aVinferno
p288
aVfire-lash
p289
asg43
g44
sg45
Vgluttony
p290
sbasg47
I00
sg48
g49
sbag1
(g2
g3
Ntp291
Rp292
(dp293
g7
VVSAce Trainer F ORAS.png
p294
sg9
VAce Trainer
p295
sg11
VMelba
p296
sg13
V3,300
p297
sg15
g139
sg17
g18
sg19
g20
sg21
g22
sg23
(lp298
g1
(g25
g3
Ntp299
Rp300
(dp301
g29
V292
p302
sg31
VShedinja
p303
sg33
VU
p304
sg35
V55
p305
sg37
(lp306
Vgrudge
p307
aVheal-block
p308
aVshadow-sneak
p309
aVphantom-force
p310
asg43
g44
sg45
Vwonder-guard
p311
sbag1
(g25
g3
Ntp312
Rp313
(dp314
g29
V292
p315
sg31
VShedinja
p316
sg33
g304
sg35
V55
p317
sg37
(lp318
Vgrudge
p319
aVheal-block
p320
aVshadow-sneak
p321
aVphantom-force
p322
asg43
g44
sg45
Vwonder-guard
p323
sbasg47
I00
sg48
g49
sbag1
(g2
g3
Ntp324
Rp325
(dp326
g7
VVSStreet Thug.png
p327
sg9
VStreet Thug
p328
sg11
VAlfredo
p329
sg13
V2,080
p330
sg15
V3
p331
sg17
g18
sg19
g20
sg21
g22
sg23
(lp332
g1
(g25
g3
Ntp333
Rp334
(dp335
g29
V463
p336
sg31
VLickilicky
p337
sg33
g34
sg35
V65
p338
sg37
(lp339
Vme-first
p340
aVpower-whip
p341
ag341
aVchip-away
p342
asg43
g44
sg45
Vown-tempo
p343
sbag1
(g25
g3
Ntp344
Rp345
(dp346
g29
V549
p347
sg31
VLilligant
p348
sg33
g63
sg35
V65
p349
sg37
(lp350
Vsynthesis
p351
aVteeter-dance
p352
aVquiver-dance
p353
aVpetal-blizzard
p354
asg43
g44
sg45
Vown-tempo
p355
sbag1
(g25
g3
Ntp356
Rp357
(dp358
g29
V463
p359
sg31
VLickilicky
p360
sg33
g34
sg35
V65
p361
sg37
(lp362
Vme-first
p363
aVpower-whip
p364
ag364
aVchip-away
p365
asg43
g44
sg45
Voblivious
p366
sbasg47
I00
sg48
g49
sbag1
(g2
g3
Ntp367
Rp368
(dp369
g7
VVSStreet Thug.png
p370
sg9
VStreet Thug
p371
sg11
VBarley
p372
sg13
V2,080
p373
sg15
g331
sg17
g18
sg19
g20
sg21
g22
sg23
(lp374
g1
(g25
g3
Ntp375
Rp376
(dp377
g29
V528
p378
sg31
VSwoobat
p379
sg33
g34
sg35
V65
p380
sg37
(lp381
Vassurance
p382
ag382
aVair-slash
p383
aVheart-stamp
p384
asg43
g44
sg45
Vklutz
p385
sbag1
(g25
g3
Ntp386
Rp387
(dp388
g29
V528
p389
sg31
VSwoobat
p390
sg33
g34
sg35
V65
p391
sg37
(lp392
Vassurance
p393
ag393
aVair-slash
p394
aVheart-stamp
p395
asg43
g44
sg45
Vklutz
p396
sbag1
(g25
g3
Ntp397
Rp398
(dp399
g29
V528
p400
sg31
VSwoobat
p401
sg33
g34
sg35
V65
p402
sg37
(lp403
Vassurance
p404
ag404
aVair-slash
p405
aVheart-stamp
p406
asg43
g44
sg45
Vklutz
p407
sbasg47
I00
sg48
g49
sbag1
(g2
g3
Ntp408
Rp409
(dp410
g7
VVSStreet Thug.png
p411
sg9
VStreet Thug
p412
sg11
VWellington
p413
sg13
V2,080
p414
sg15
g331
sg17
g18
sg19
g20
sg21
g22
sg23
(lp415
g1
(g25
g3
Ntp416
Rp417
(dp418
g29
V553
p419
sg31
VKrookodile
p420
sg33
g34
sg35
V65
p421
sg37
(lp422
Vassurance
p423
aVembargo
p424
aVfoul-play
p425
aVpower-trip
p426
asg43
g44
sg45
Vintimidate
p427
sbag1
(g25
g3
Ntp428
Rp429
(dp430
g29
V059
p431
sg31
VArcanine
p432
sg33
g34
sg35
V65
p433
sg37
(lp434
Vextreme-speed
p435
aVodor-sleuth
p436
aVthunder-fang
p437
aVfire-fang
p438
asg43
g44
sg45
Vflash-fire
p439
sbag1
(g25
g3
Ntp440
Rp441
(dp442
g29
V560
p443
sg31
VScrafty
p444
sg33
g34
sg35
V65
p445
sg37
(lp446
Vpayback
p447
aVrock-climb
p448
aVhead-smash
p449
aVchip-away
p450
asg43
g44
sg45
Vmoxie
p451
sbasg47
I00
sg48
g49
sbag1
(g2
g3
Ntp452
Rp453
(dp454
g7
VVSStreet Thug.png
p455
sg9
VStreet Thug
p456
sg11
VBass
p457
sg13
V2,080
p458
sg15
g331
sg17
g18
sg19
g20
sg21
g22
sg23
(lp459
g1
(g25
g3
Ntp460
Rp461
(dp462
g29
V036
p463
sg31
VClefable
p464
sg33
g63
sg35
V65
p465
sg37
(lp466
Vminimize
p467
aVmetronome
p468
aVdisarming-voice
p469
aVspotlight
p470
asg43
g44
sg45
Vmagic-guard
p471
sbag1
(g25
g3
Ntp472
Rp473
(dp474
g29
V036
p475
sg31
VClefable
p476
sg33
g63
sg35
V65
p477
sg37
(lp478
Vminimize
p479
aVmetronome
p480
aVdisarming-voice
p481
aVspotlight
p482
asg43
g44
sg45
Vcute-charm
p483
sbag1
(g25
g3
Ntp484
Rp485
(dp486
g29
V036
p487
sg31
VClefable
p488
sg33
g63
sg35
V65
p489
sg37
(lp490
Vminimize
p491
aVmetronome
p492
aVdisarming-voice
p493
aVspotlight
p494
asg43
g44
sg45
Vmagic-guard
p495
sbasg47
I00
sg48
g49
sbag1
(g2
g3
Ntp496
Rp497
(dp498
g7
VVSStreet Thug.png
p499
sg9
VStreet Thug
p500
sg11
VSoyer
p501
sg13
V2,080
p502
sg15
g331
sg17
g18
sg19
g20
sg21
g22
sg23
(lp503
g1
(g25
g3
Ntp504
Rp505
(dp506
g29
V334
p507
sg31
VAltaria
p508
sg33
g34
sg35
V65
p509
sg37
(lp510
Vround
p511
aVcotton-guard
p512
aVdisarming-voice
p513
aVmoonblast
p514
asg43
g44
sg45
Vnatural-cure
p515
sbag1
(g25
g3
Ntp516
Rp517
(dp518
g29
V357
p519
sg31
VTropius
p520
sg33
g34
sg35
V65
p521
sg37
(lp522
Vleaf-storm
p523
ag523
aVbestow
p524
aVleaf-tornado
p525
asg43
g44
sg45
Vchlorophyll
p526
sbag1
(g25
g3
Ntp527
Rp528
(dp529
g29
V142
p530
sg31
VAerodactyl
p531
sg33
g34
sg35
V65
p532
sg37
(lp533
Vfire-fang
p534
aViron-head
p535
ag535
aVsky-drop
p536
asg43
g44
sg45
Vrock-head
p537
sbasg47
I00
sg48
g49
sbag1
(g2
g3
Ntp538
Rp539
(dp540
g7
VVSStreet Thug.png
p541
sg9
VStreet Thug
p542
sg11
VPitaha
p543
sg13
V2,080
p544
sg15
g331
sg17
g18
sg19
g20
sg21
g22
sg23
(lp545
g1
(g25
g3
Ntp546
Rp547
(dp548
g29
V547
p549
sg31
VWhimsicott
p550
sg33
g34
sg35
V65
p551
sg37
(lp552
Vcotton-spore
p553
aVtailwind
p554
aVhurricane
p555
aVmoonblast
p556
asg43
g44
sg45
Vprankster
p557
sbag1
(g25
g3
Ntp558
Rp559
(dp560
g29
V547
p561
sg31
VWhimsicott
p562
sg33
g34
sg35
V65
p563
sg37
(lp564
Vcotton-spore
p565
aVtailwind
p566
aVhurricane
p567
aVmoonblast
p568
asg43
g44
sg45
Vprankster
p569
sbag1
(g25
g3
Ntp570
Rp571
(dp572
g29
V547
p573
sg31
VWhimsicott
p574
sg33
g34
sg35
V65
p575
sg37
(lp576
Vcotton-spore
p577
aVtailwind
p578
aVhurricane
p579
aVmoonblast
p580
asg43
g44
sg45
Vprankster
p581
sbasg47
I00
sg48
g49
sbag1
(g2
g3
Ntp582
Rp583
(dp584
g7
VVSStreet Thug.png
p585
sg9
VStreet Thug
p586
sg11
VRice
p587
sg13
V2,080
p588
sg15
g331
sg17
g18
sg19
g20
sg21
g22
sg23
(lp589
g1
(g25
g3
Ntp590
Rp591
(dp592
g29
V132
p593
sg31
VDitto
p594
sg33
g304
sg35
V65
p595
sg37
(lp596
Vtransform
p597
asg43
g44
sg45
Vlimber
p598
sbag1
(g25
g3
Ntp599
Rp600
(dp601
g29
V132
p602
sg31
VDitto
p603
sg33
g304
sg35
V65
p604
sg37
(lp605
Vtransform
p606
asg43
g44
sg45
Vlimber
p607
sbag1
(g25
g3
Ntp608
Rp609
(dp610
g29
V132
p611
sg31
VDitto
p612
sg33
g304
sg35
V65
p613
sg37
(lp614
Vtransform
p615
asg43
g44
sg45
Vlimber
p616
sbasg47
I00
sg48
g49
sbag1
(g2
g3
Ntp617
Rp618
(dp619
g7
VVSSchoolkid M.png
p620
sg9
VFare Prince
p621
sg11
VTrencherman
p622
sg13
V6,000
p623
sg15
g331
sg17
g18
sg19
g20
sg21
g22
sg23
(lp624
g1
(g25
g3
Ntp625
Rp626
(dp627
g29
V448
p628
sg31
VLucario
p629
sg33
g34
sg35
V75
p630
sg37
(lp631
Vheal-pulse
p632
aVwork-up
p633
aVpower-up-punch
p634
aVlaser-focus
p635
asg43
g44
sg45
Vsteadfast
p636
sbag1
(g25
g3
Ntp637
Rp638
(dp639
g29
V468
p640
sg31
VTogekiss
p641
sg33
g34
sg35
V75
p642
sg37
(lp643
Vextreme-speed
p644
aVaura-sphere
p645
aVair-slash
p646
aVafter-you
p647
asg43
g44
sg45
Vserene-grace
p648
sbag1
(g25
g3
Ntp649
Rp650
(dp651
g29
V448
p652
sg31
VLucario
p653
sg33
g34
sg35
V75
p654
sg37
(lp655
Vheal-pulse
p656
aVwork-up
p657
aVpower-up-punch
p658
aVlaser-focus
p659
asg43
g44
sg45
Vinner-focus
p660
sbasg47
I00
sg48
g49
sbag1
(g2
g3
Ntp661
Rp662
(dp663
g7
VVSBlack Belt.png
p664
sg9
VBlack Belt
p665
sg11
VBanting
p666
sg13
V2,080
p667
sg15
g331
sg17
g18
sg19
g20
sg21
VSM
p668
sg23
(lp669
g1
(g25
g3
Ntp670
Rp671
(dp672
g29
V034
p673
sg31
VNidoking
p674
sg33
g34
sg35
V65
p675
sg37
(lp676
Vmegahorn
p677
ag677
aVearth-power
p678
aVchip-away
p679
asg43
g44
sg45
Vpoison-point
p680
sbag1
(g25
g3
Ntp681
Rp682
(dp683
g29
V306
p684
sg31
VAggron
p685
sg33
g34
sg35
V65
p686
sg37
(lp687
Vmetal-burst
p688
aViron-head
p689
aVautotomize
p690
aVheavy-slam
p691
asg43
g44
sg45
Vrock-head
p692
sbag1
(g25
g3
Ntp693
Rp694
(dp695
g29
V409
p696
sg31
VRampardos
p697
sg33
g34
sg35
V65
p698
sg37
(lp699
Vassurance
p700
aVzen-headbutt
p701
aVhead-smash
p702
aVchip-away
p703
asg43
g44
sg45
Vmold-breaker
p704
sbasg47
I00
sg48
g49
sba.