(lp0
ccopy_reg
_reconstructor
p1
(c__main__
Trainer
p2
c__builtin__
object
p3
Ntp4
Rp5
(dp6
VtSprite
p7
VVSGentleman SM.png
p8
sVtClass
p9
VGentleman
p10
sVtName
p11
VSmith
p12
sVtMoney
p13
V4,600
p14
sVtPokeCount
p15
V1
p16
sVtLocation
p17
Vwiki/Memorial_Hill
p18
sVtRegion
p19
VAlola
p20
sVtGame
p21
VSM
p22
sVtPokes
p23
(lp24
g1
(c__main__
FinishedPokemon
p25
g3
Ntp26
Rp27
(dp28
VpDexNo
p29
V197
p30
sVpSpecies
p31
VUmbreon
p32
sVpGender
p33
VM
p34
sVpLevel
p35
V23
p36
sVpMoves
p37
(lp38
Vassurance
p39
aVguard-swap
p40
aVlast-resort
p41
aVbaby-doll-eyes
p42
asVpHold
p43
V
p44
sVpAbility
p45
Vsynchronize
p46
sbasVbossFlag
p47
I00
sVtLongGame
p48
Vsun-moon
p49
sbag1
(g2
g3
Ntp50
Rp51
(dp52
g7
VVSPreschooler M SM.png
p53
sg9
VPreschooler
p54
sg11
VLiam
p55
sg13
V264
p56
sg15
V2
p57
sg17
g18
sg19
g20
sg21
g22
sg23
(lp58
g1
(g25
g3
Ntp59
Rp60
(dp61
g29
V039
p62
sg31
VJigglypuff
p63
sg33
VF
p64
sg35
V21
p65
sg37
(lp66
Vgyro-ball
p67
aVround
p68
aVdisarming-voice
p69
aVplay-nice
p70
asg43
g44
sg45
Vcute-charm
p71
sbag1
(g25
g3
Ntp72
Rp73
(dp74
g29
V166
p75
sg31
VLedian
p76
sg33
g34
sg35
V22
p77
sg37
(lp78
Vbaton-pass
p79
aVsilver-wind
p80
aVair-slash
p81
aVbug-buzz
p82
asg43
g44
sg45
Vswarm
p83
sbasg47
I00
sg48
g49
sbag1
(g2
g3
Ntp84
Rp85
(dp86
g7
VVSMadame SM.png
p87
sg9
VMadame
p88
sg11
VSayuri
p89
sg13
V4,600
p90
sg15
g16
sg17
g18
sg19
g20
sg21
VSM
p91
sg23
(lp92
g1
(g25
g3
Ntp93
Rp94
(dp95
g29
V764
p96
sg31
VComfey
p97
sg33
g64
sg35
V23
p98
sg37
(lp99
Vflower-shield
p100
aVgrassy-terrain
p101
aVplay-rough
p102
aVfloral-healing
p103
asg43
g44
sg45
Vflower-veil
p104
sbasg47
I00
sg48
g49
sbag1
(g2
g3
Ntp105
Rp106
(dp107
g7
VVSPunk Girl SM.png
p108
sg9
VPunk Girl
p109
sg11
VMelissa
p110
sg13
V736
p111
sg15
g16
sg17
g18
sg19
g20
sg21
g22
sg23
(lp112
g1
(g25
g3
Ntp113
Rp114
(dp115
g29
V168
p116
sg31
VAriados
p117
sg33
g64
sg35
V23
p118
sg37
(lp119
Vfell-stinger
p120
aVvenom-drench
p121
aVinfestation
p122
aVtoxic-thread
p123
asg43
g44
sg45
Vinsomnia
p124
sbasg47
I00
sg48
g49
sbag1
(g2
g3
Ntp125
Rp126
(dp127
g7
VVSTeam Skull Grunt M.png
p128
sg9
VTeam Skull Grunt
p129
sg11
g44
sg13
V736
p130
sg15
g16
sg17
g18
sg19
g20
sg21
g22
sg23
(lp131
g1
(g25
g3
Ntp132
Rp133
(dp134
g29
V020A
p135
sg31
VRaticate
p136
sg33
g34
sg35
V23
p137
sg37
(lp138
Vcrunch
p139
aVendeavor
p140
aVassurance
p141
aVsucker-punch
p142
asg43
g44
sg45
Vguts
p143
sbasg47
I00
sg48
g49
sbag1
(g2
g3
Ntp144
Rp145
(dp146
g7
VVSPreschooler M SM.png
p147
sg9
VPreschooler
p148
sg11
VLiam
p149
sg13
V276
p150
sg15
g57
sg17
g18
sg19
g20
sg21
g22
sg23
(lp151
g1
(g25
g3
Ntp152
Rp153
(dp154
g29
V240
p155
sg31
VMagby
p156
sg33
g34
sg35
V23
p157
sg37
(lp158
Vsunny-day
p159
aVlava-plume
p160
aVflame-burst
p161
aVclear-smog
p162
asg43
g44
sg45
Vflame-body
p163
sbag1
(g25
g3
Ntp164
Rp165
(dp166
g29
V166
p167
sg31
VLedian
p168
sg33
g34
sg35
V23
p169
sg37
(lp170
Vbaton-pass
p171
aVsilver-wind
p172
aVair-slash
p173
aVbug-buzz
p174
asg43
g44
sg45
Vearly-bird
p175
sbasg47
I00
sg48
g49
sbag1
(g2
g3
Ntp176
Rp177
(dp178
g7
VVSGentleman SM.png
p179
sg9
VGentleman
p180
sg11
VSmith
p181
sg13
V4,800
p182
sg15
g16
sg17
g18
sg19
g20
sg21
g22
sg23
(lp183
g1
(g25
g3
Ntp184
Rp185
(dp186
g29
V135
p187
sg31
VJolteon
p188
sg33
g34
sg35
V24
p189
sg37
(lp190
Vlast-resort
p191
aVthunder-fang
p192
aVdischarge
p193
aVbaby-doll-eyes
p194
asg43
g44
sg45
Vvolt-absorb
p195
sbasg47
I00
sg48
g49
sbag1
(g2
g3
Ntp196
Rp197
(dp198
g7
VVSMadame SM.png
p199
sg9
VMadame
p200
sg11
VSayuri
p201
sg13
V4,800
p202
sg15
g57
sg17
g18
sg19
g20
sg21
g91
sg23
(lp203
g1
(g25
g3
Ntp204
Rp205
(dp206
g29
V676Ma
p207
sg31
VFurfrou
p208
sg33
g64
sg35
V24
p209
sg37
(lp210
Vsucker-punch
p211
aVretaliate
p212
aVcotton-guard
p213
aVbaby-doll-eyes
p214
asg43
g44
sg45
Vfur-coat
p215
sbag1
(g25
g3
Ntp216
Rp217
(dp218
g29
V764
p219
sg31
VComfey
p220
sg33
g64
sg35
V24
p221
sg37
(lp222
Vflower-shield
p223
aVgrassy-terrain
p224
aVplay-rough
p225
aVfloral-healing
p226
asg43
g44
sg45
Vtriage
p227
sbasg47
I00
sg48
g49
sbag1
(g2
g3
Ntp228
Rp229
(dp230
g7
VVSPunk Girl SM.png
p231
sg9
VPunk Girl
p232
sg11
VMelissa
p233
sg13
V768
p234
sg15
g16
sg17
g18
sg19
g20
sg21
g22
sg23
(lp235
g1
(g25
g3
Ntp236
Rp237
(dp238
g29
V168
p239
sg31
VAriados
p240
sg33
g64
sg35
V24
p241
sg37
(lp242
Vfell-stinger
p243
aVvenom-drench
p244
aVinfestation
p245
aVtoxic-thread
p246
asg43
g44
sg45
Vswarm
p247
sbasg47
I00
sg48
g49
sbag1
(g2
g3
Ntp248
Rp249
(dp250
g7
VVSTeam Skull Grunt M.png
p251
sg9
VTeam Skull Grunt
p252
sg11
g44
sg13
V768
p253
sg15
g16
sg17
g18
sg19
g20
sg21
g22
sg23
(lp254
g1
(g25
g3
Ntp255
Rp256
(dp257
g29
V020A
p258
sg31
VRaticate
p259
sg33
g34
sg35
V24
p260
sg37
(lp261
Vcrunch
p262
aVendeavor
p263
aVassurance
p264
aVsucker-punch
p265
asg43
g44
sg45
Vrun-away
p266
sbasg47
I00
sg48
g49
sba.