(lp0
ccopy_reg
_reconstructor
p1
(c__main__
Trainer
p2
c__builtin__
object
p3
Ntp4
Rp5
(dp6
VtSprite
p7
VSpr FRLG Bird Keeper.png
p8
sVtClass
p9
VBird Keeper
p10
sVtName
p11
VMilo
p12
sVtMoney
p13
V1176
p14
sVtPokeCount
p15
V2
p16
sVtLocation
p17
Vwiki/Memorial_Pillar
p18
sVtRegion
p19
Vlands
p20
sVtGame
p21
VFRLG
p22
sVtPokes
p23
(lp24
g1
(c__main__
FinishedPokemon
p25
g3
Ntp26
Rp27
(dp28
VpDexNo
p29
V016
p30
sVpSpecies
p31
VPidgey
p32
sVpGender
p33
VM
p34
sVpLevel
p35
V47
p36
sVpMoves
p37
(lp38
Vagility
p39
aVquick-attack
p40
aVmirror-move
p41
aVfeather-dance
p42
asVpHold
p43
V
p44
sVpAbility
p45
Vtangled-feet
p46
sbag1
(g25
g3
Ntp47
Rp48
(dp49
g29
V017
p50
sg31
VPidgeotto
p51
sg33
g34
sg35
V49
p52
sg37
(lp53
Vagility
p54
aVquick-attack
p55
aVmirror-move
p56
aVfeather-dance
p57
asg43
g44
sg45
Vtangled-feet
p58
sbasVbossFlag
p59
I00
sVtLongGame
p60
Vfirered-leafgreen
p61
sbag1
(g2
g3
Ntp62
Rp63
(dp64
g7
VSpr FRLG Bird Keeper.png
p65
sg9
VBird Keeper
p66
sg11
VChaz
p67
sg13
V1176
p68
sg15
g16
sg17
g18
sg19
g20
sg21
g22
sg23
(lp69
g1
(g25
g3
Ntp70
Rp71
(dp72
g29
V021
p73
sg31
VSpearow
p74
sg33
g34
sg35
V47
p75
sg37
(lp76
Vagility
p77
aVmirror-move
p78
aVpursuit
p79
aVaerial-ace
p80
asg43
g44
sg45
Vkeen-eye
p81
sbag1
(g25
g3
Ntp82
Rp83
(dp84
g29
V022
p85
sg31
VFearow
p86
sg33
g34
sg35
V49
p87
sg37
(lp88
Vdrill-peck
p89
aVagility
p90
aVmirror-move
p91
aVpursuit
p92
asg43
g44
sg45
Vkeen-eye
p93
sbasg59
I00
sg60
g61
sbag1
(g2
g3
Ntp94
Rp95
(dp96
g7
VSpr FRLG Bird Keeper.png
p97
sg9
VBird Keeper
p98
sg11
VHarold
p99
sg13
V1176
p100
sg15
g16
sg17
g18
sg19
g20
sg21
g22
sg23
(lp101
g1
(g25
g3
Ntp102
Rp103
(dp104
g29
V163
p105
sg31
VHoothoot
p106
sg33
g34
sg35
V47
p107
sg37
(lp108
Vhypnosis
p109
aVreflect
p110
aVdream-eater
p111
aVforesight
p112
asg43
g44
sg45
Vkeen-eye
p113
sbag1
(g25
g3
Ntp114
Rp115
(dp116
g29
V164
p117
sg31
VNoctowl
p118
sg33
g34
sg35
V49
p119
sg37
(lp120
Vreflect
p121
aVdream-eater
p122
aVforesight
p123
ag123
asg43
g44
sg45
Vinsomnia
p124
sbasg59
I00
sg60
g61
sbag1
(g2
g3
Ntp125
Rp126
(dp127
g7
VSpr FRLG Bird Keeper.png
p128
sg9
VBird Keeper
p129
sg11
VMilo
p130
sg13
V1320
p131
sg15
g16
sg17
g18
sg19
g20
sg21
g22
sg23
(lp132
g1
(g25
g3
Ntp133
Rp134
(dp135
g29
V017
p136
sg31
VPidgeotto
p137
sg33
g34
sg35
V53
p138
sg37
(lp139
Vagility
p140
aVquick-attack
p141
aVmirror-move
p142
aVfeather-dance
p143
asg43
g44
sg45
Vtangled-feet
p144
sbag1
(g25
g3
Ntp145
Rp146
(dp147
g29
V018
p148
sg31
VPidgeot
p149
sg33
g34
sg35
V55
p150
sg37
(lp151
Vquick-attack
p152
ag152
aVmirror-move
p153
aVfeather-dance
p154
asg43
g44
sg45
Vtangled-feet
p155
sbasg59
I00
sg60
g61
sbag1
(g2
g3
Ntp156
Rp157
(dp158
g7
VSpr FRLG Bird Keeper.png
p159
sg9
VBird Keeper
p160
sg11
VChaz
p161
sg13
V1320
p162
sg15
g16
sg17
g18
sg19
g20
sg21
g22
sg23
(lp163
g1
(g25
g3
Ntp164
Rp165
(dp166
g29
V022
p167
sg31
VFearow
p168
sg33
g34
sg35
V53
p169
sg37
(lp170
Vdrill-peck
p171
aVagility
p172
aVmirror-move
p173
aVpursuit
p174
asg43
g44
sg45
Vkeen-eye
p175
sbag1
(g25
g3
Ntp176
Rp177
(dp178
g29
V022
p179
sg31
VFearow
p180
sg33
g34
sg35
V55
p181
sg37
(lp182
Vdrill-peck
p183
aVagility
p184
aVmirror-move
p185
aVpursuit
p186
asg43
g44
sg45
Vkeen-eye
p187
sbasg59
I00
sg60
g61
sbag1
(g2
g3
Ntp188
Rp189
(dp190
g7
VSpr FRLG Bird Keeper.png
p191
sg9
VBird Keeper
p192
sg11
VHarold
p193
sg13
V1320
p194
sg15
g16
sg17
g18
sg19
g20
sg21
g22
sg23
(lp195
g1
(g25
g3
Ntp196
Rp197
(dp198
g29
V164
p199
sg31
VNoctowl
p200
sg33
g34
sg35
V53
p201
sg37
(lp202
Vreflect
p203
aVdream-eater
p204
aVforesight
p205
ag205
asg43
g44
sg45
Vkeen-eye
p206
sbag1
(g25
g3
Ntp207
Rp208
(dp209
g29
V164
p210
sg31
VNoctowl
p211
sg33
g34
sg35
V55
p212
sg37
(lp213
Vreflect
p214
aVdream-eater
p215
aVforesight
p216
ag216
asg43
g44
sg45
Vkeen-eye
p217
sbasg59
I00
sg60
g61
sba.