(lp0
ccopy_reg
_reconstructor
p1
(c__main__
Trainer
p2
c__builtin__
object
p3
Ntp4
Rp5
(dp6
VtSprite
p7
VSpr RS Old Couple.png
p8
sVtClass
p9
VOld Couple
p10
sVtName
p11
VJohn and Jay
p12
sVtMoney
p13
V3200
p14
sVtPokeCount
p15
V2
p16
sVtLocation
p17
Vwiki/Meteor_Falls
p18
sVtRegion
p19
VHoenn
p20
sVtGame
p21
VRS
p22
sVtPokes
p23
(lp24
g1
(c__main__
FinishedPokemon
p25
g3
Ntp26
Rp27
(dp28
VpDexNo
p29
V308
p30
sVpSpecies
p31
VMedicham
p32
sVpGender
p33
VM
p34
sVpLevel
p35
V40
p36
sVpMoves
p37
(lp38
Vdetect
p39
aVhidden-power
p40
aVpsych-up
p41
aVcalm-mind
p42
asVpHold
p43
V
p44
sVpAbility
p45
Vpure-power
p46
sbag1
(g25
g3
Ntp47
Rp48
(dp49
g29
V297
p50
sg31
VHariyama
p51
sg33
g34
sg35
V40
p52
sg37
(lp53
Vsmelling-salts
p54
aVknock-off
p55
aVarm-thrust
p56
ag56
asg43
g44
sg45
Vthick-fat
p57
sbasVbossFlag
p58
I00
sVtLongGame
p59
Vruby-sapphire
p60
sbag1
(g2
g3
Ntp61
Rp62
(dp63
g7
VSpr RS Dragon Tamer.png
p64
sg9
VDragon Tamer
p65
sg11
VNicolas
p66
sg13
V1824
p67
sg15
g16
sg17
g18
sg19
g20
sg21
g22
sg23
(lp68
g1
(g25
g3
Ntp69
Rp70
(dp71
g29
V334
p72
sg31
VAltaria
p73
sg33
g34
sg35
V38
p74
sg37
(lp75
Vrefresh
p76
aVastonish
p77
ag77
aVdragon-dance
p78
asg43
g44
sg45
Vnatural-cure
p79
sbag1
(g25
g3
Ntp80
Rp81
(dp82
g29
V334
p83
sg31
VAltaria
p84
sg33
g34
sg35
V38
p85
sg37
(lp86
Vrefresh
p87
aVastonish
p88
ag88
aVdragon-dance
p89
asg43
g44
sg45
Vnatural-cure
p90
sbasg58
I00
sg59
g60
sbag1
(g2
g3
Ntp91
Rp92
(dp93
g7
VSpr RS Old Couple.png
p94
sg9
VOld Couple
p95
sg11
VJohn and Jay
p96
sg13
g1
(cmwparserfromhell.wikicode
Wikicode
p97
g3
Ntp98
Rp99
(dp100
V_nodes
p101
g1
(cmwparserfromhell.smart_list.smart_list
SmartList
p102
c__builtin__
list
p103
(lp104
g1
(cmwparserfromhell.nodes.text
Text
p105
g3
Ntp106
Rp107
(dp108
V_value
p109
V3440
p110
sbatp111
Rp112
(dp113
V_children
p114
(dp115
sbsbsg15
g16
sg17
g18
sg19
g20
sg21
g22
sg23
(lp116
g1
(g25
g3
Ntp117
Rp118
(dp119
g29
V308
p120
sg31
VMedicham
p121
sg33
g34
sg35
V43
p122
sg37
(lp123
Vdetect
p124
aVhidden-power
p125
aVpsych-up
p126
aVcalm-mind
p127
asg43
g44
sg45
Vpure-power
p128
sbag1
(g25
g3
Ntp129
Rp130
(dp131
g29
V297
p132
sg31
VHariyama
p133
sg33
g34
sg35
V43
p134
sg37
(lp135
Vsmelling-salts
p136
aVknock-off
p137
aVarm-thrust
p138
ag138
asg43
g44
sg45
Vguts
p139
sbasg58
I00
sg59
g60
sbag1
(g2
g3
Ntp140
Rp141
(dp142
g7
VSpr RS Dragon Tamer.png
p143
sg9
VDragon Tamer
p144
sg11
VNicolas{{tt|*|First and second rematch}}
p145
sg13
g1
(g97
g3
Ntp146
Rp147
(dp148
g101
g1
(g102
g103
(lp149
g1
(g105
g3
Ntp150
Rp151
(dp152
g109
V1968
p153
sbatp154
Rp155
(dp156
g114
(dp157
sbsbsg15
g16
sg17
g18
sg19
g20
sg21
g22
sg23
(lp158
g1
(g25
g3
Ntp159
Rp160
(dp161
g29
V334
p162
sg31
VAltaria
p163
sg33
g34
sg35
V41
p164
sg37
(lp165
Vrefresh
p166
aVastonish
p167
ag167
aVdragon-dance
p168
asg43
g44
sg45
Vnatural-cure
p169
sbag1
(g25
g3
Ntp170
Rp171
(dp172
g29
V334
p173
sg31
VAltaria
p174
sg33
g34
sg35
V41
p175
sg37
(lp176
Vrefresh
p177
aVastonish
p178
ag178
aVdragon-dance
p179
asg43
g44
sg45
Vnatural-cure
p180
sbasg58
I00
sg59
g60
sbag1
(g2
g3
Ntp181
Rp182
(dp183
g7
VSpr RS Dragon Tamer.png
p184
sg9
VDragon Tamer
p185
sg11
VNicolas{{tt|*|Third rematch}}
p186
sg13
V2208
p187
sg15
V3
p188
sg17
g18
sg19
g20
sg21
g22
sg23
(lp189
g1
(g25
g3
Ntp190
Rp191
(dp192
g29
V371
p193
sg31
VBagon
p194
sg33
g34
sg35
V46
p195
sg37
(lp196
Vscary-face
p197
aVdragon-breath
p198
aVcrunch
p199
aVdragon-claw
p200
asg43
g44
sg45
Vrock-head
p201
sbag1
(g25
g3
Ntp202
Rp203
(dp204
g29
V334
p205
sg31
VAltaria
p206
sg33
g34
sg35
V46
p207
sg37
(lp208
Vrefresh
p209
aVastonish
p210
ag210
aVdragon-dance
p211
asg43
g44
sg45
Vnatural-cure
p212
sbag1
(g25
g3
Ntp213
Rp214
(dp215
g29
V334
p216
sg31
VAltaria
p217
sg33
g34
sg35
V46
p218
sg37
(lp219
Vrefresh
p220
aVastonish
p221
ag221
aVdragon-dance
p222
asg43
g44
sg45
Vnatural-cure
p223
sbasg58
I00
sg59
g60
sbag1
(g2
g3
Ntp224
Rp225
(dp226
g7
VSpr RS Dragon Tamer.png
p227
sg9
VDragon Tamer
p228
sg11
VNicolas{{tt|*|Fourth rematch onwards}}
p229
sg13
V2352
p230
sg15
g188
sg17
g18
sg19
g20
sg21
g22
sg23
(lp231
g1
(g25
g3
Ntp232
Rp233
(dp234
g29
V334
p235
sg31
VAltaria
p236
sg33
g34
sg35
V49
p237
sg37
(lp238
Vrefresh
p239
aVastonish
p240
ag240
aVdragon-dance
p241
asg43
g44
sg45
Vnatural-cure
p242
sbag1
(g25
g3
Ntp243
Rp244
(dp245
g29
V334
p246
sg31
VAltaria
p247
sg33
g34
sg35
V49
p248
sg37
(lp249
Vrefresh
p250
aVastonish
p251
ag251
aVdragon-dance
p252
asg43
g44
sg45
Vnatural-cure
p253
sbag1
(g25
g3
Ntp254
Rp255
(dp256
g29
V372
p257
sg31
VShelgon
p258
sg33
g34
sg35
V49
p259
sg37
(lp260
Vscary-face
p261
aVdragon-breath
p262
aVcrunch
p263
aVdragon-claw
p264
asg43
g44
sg45
Vrock-head
p265
sbasg58
I00
sg59
g60
sbag1
(g2
g3
Ntp266
Rp267
(dp268
g7
VSpr RS Old Couple.png
p269
sg9
VOld Couple
p270
sg11
VJohn and Jay
p271
sg13
V3120
p272
sg15
g16
sg17
g18
sg19
g20
sg21
g22
sg23
(lp273
g1
(g25
g3
Ntp274
Rp275
(dp276
g29
V308
p277
sg31
VMedicham
p278
sg33
g34
sg35
V39
p279
sg37
(lp280
Vdetect
p281
aVhidden-power
p282
aVpsych-up
p283
aVcalm-mind
p284
asg43
g44
sg45
Vpure-power
p285
sbag1
(g25
g3
Ntp286
Rp287
(dp288
g29
V297
p289
sg31
VHariyama
p290
sg33
g34
sg35
V39
p291
sg37
(lp292
Vsmelling-salts
p293
aVknock-off
p294
aVarm-thrust
p295
ag295
asg43
g44
sg45
Vguts
p296
sbasg58
I00
sg59
g60
sbag1
(g2
g3
Ntp297
Rp298
(dp299
g7
VSpr RS Dragon Tamer.png
p300
sg9
VDragon Tamer
p301
sg11
VNicolas
p302
sg13
V1776
p303
sg15
g16
sg17
g18
sg19
g20
sg21
g22
sg23
(lp304
g1
(g25
g3
Ntp305
Rp306
(dp307
g29
V334
p308
sg31
VAltaria
p309
sg33
g34
sg35
V37
p310
sg37
(lp311
Vrefresh
p312
aVastonish
p313
ag313
aVdragon-dance
p314
asg43
g44
sg45
Vnatural-cure
p315
sbag1
(g25
g3
Ntp316
Rp317
(dp318
g29
V334
p319
sg31
VAltaria
p320
sg33
g34
sg35
V37
p321
sg37
(lp322
Vrefresh
p323
aVastonish
p324
ag324
aVdragon-dance
p325
asg43
g44
sg45
Vnatural-cure
p326
sbasg58
I00
sg59
g60
sbag1
(g2
g3
Ntp327
Rp328
(dp329
g7
VSpr RS Old Couple.png
p330
sg9
VOld Couple
p331
sg11
VJohn and Jay
p332
sg13
g1
(g97
g3
Ntp333
Rp334
(dp335
g101
g1
(g102
g103
(lp336
g1
(g105
g3
Ntp337
Rp338
(dp339
g109
V3440
p340
sbatp341
Rp342
(dp343
g114
(dp344
sbsbsg15
g16
sg17
g18
sg19
g20
sg21
g22
sg23
(lp345
g1
(g25
g3
Ntp346
Rp347
(dp348
g29
V308
p349
sg31
VMedicham
p350
sg33
g34
sg35
V43
p351
sg37
(lp352
Vdetect
p353
aVhidden-power
p354
aVpsych-up
p355
aVcalm-mind
p356
asg43
g44
sg45
Vpure-power
p357
sbag1
(g25
g3
Ntp358
Rp359
(dp360
g29
V297
p361
sg31
VHariyama
p362
sg33
g34
sg35
V43
p363
sg37
(lp364
Vsmelling-salts
p365
aVknock-off
p366
aVarm-thrust
p367
ag367
asg43
g44
sg45
Vguts
p368
sbasg58
I00
sg59
g60
sbag1
(g2
g3
Ntp369
Rp370
(dp371
g7
VSpr RS Dragon Tamer.png
p372
sg9
VDragon Tamer
p373
sg11
VNicolas{{tt|*|First and second rematch}}
p374
sg13
g1
(g97
g3
Ntp375
Rp376
(dp377
g101
g1
(g102
g103
(lp378
g1
(g105
g3
Ntp379
Rp380
(dp381
g109
V1968
p382
sbatp383
Rp384
(dp385
g114
(dp386
sbsbsg15
g16
sg17
g18
sg19
g20
sg21
g22
sg23
(lp387
g1
(g25
g3
Ntp388
Rp389
(dp390
g29
V334
p391
sg31
VAltaria
p392
sg33
g34
sg35
V41
p393
sg37
(lp394
Vrefresh
p395
aVastonish
p396
ag396
aVdragon-dance
p397
asg43
g44
sg45
Vnatural-cure
p398
sbag1
(g25
g3
Ntp399
Rp400
(dp401
g29
V334
p402
sg31
VAltaria
p403
sg33
g34
sg35
V41
p404
sg37
(lp405
Vrefresh
p406
aVastonish
p407
ag407
aVdragon-dance
p408
asg43
g44
sg45
Vnatural-cure
p409
sbasg58
I00
sg59
g60
sbag1
(g2
g3
Ntp410
Rp411
(dp412
g7
VSpr RS Dragon Tamer.png
p413
sg9
VDragon Tamer
p414
sg11
VNicolas{{tt|*|Third rematch}}
p415
sg13
V2208
p416
sg15
g188
sg17
g18
sg19
g20
sg21
g22
sg23
(lp417
g1
(g25
g3
Ntp418
Rp419
(dp420
g29
V371
p421
sg31
VBagon
p422
sg33
g34
sg35
V46
p423
sg37
(lp424
Vscary-face
p425
aVdragon-breath
p426
aVcrunch
p427
aVdragon-claw
p428
asg43
g44
sg45
Vrock-head
p429
sbag1
(g25
g3
Ntp430
Rp431
(dp432
g29
V334
p433
sg31
VAltaria
p434
sg33
g34
sg35
V46
p435
sg37
(lp436
Vrefresh
p437
aVastonish
p438
ag438
aVdragon-dance
p439
asg43
g44
sg45
Vnatural-cure
p440
sbag1
(g25
g3
Ntp441
Rp442
(dp443
g29
V334
p444
sg31
VAltaria
p445
sg33
g34
sg35
V46
p446
sg37
(lp447
Vrefresh
p448
aVastonish
p449
ag449
aVdragon-dance
p450
asg43
g44
sg45
Vnatural-cure
p451
sbasg58
I00
sg59
g60
sbag1
(g2
g3
Ntp452
Rp453
(dp454
g7
VSpr RS Dragon Tamer.png
p455
sg9
VDragon Tamer
p456
sg11
VNicolas{{tt|*|Fourth rematch onwards}}
p457
sg13
V2352
p458
sg15
g188
sg17
g18
sg19
g20
sg21
g22
sg23
(lp459
g1
(g25
g3
Ntp460
Rp461
(dp462
g29
V334
p463
sg31
VAltaria
p464
sg33
g34
sg35
V49
p465
sg37
(lp466
Vrefresh
p467
aVastonish
p468
ag468
aVdragon-dance
p469
asg43
g44
sg45
Vnatural-cure
p470
sbag1
(g25
g3
Ntp471
Rp472
(dp473
g29
V334
p474
sg31
VAltaria
p475
sg33
g34
sg35
V49
p476
sg37
(lp477
Vrefresh
p478
aVastonish
p479
ag479
aVdragon-dance
p480
asg43
g44
sg45
Vnatural-cure
p481
sbag1
(g25
g3
Ntp482
Rp483
(dp484
g29
V372
p485
sg31
VShelgon
p486
sg33
g34
sg35
V49
p487
sg37
(lp488
Vscary-face
p489
aVdragon-breath
p490
aVcrunch
p491
aVdragon-claw
p492
asg43
g44
sg45
Vrock-head
p493
sbasg58
I00
sg59
g60
sbag1
(g2
g3
Ntp494
Rp495
(dp496
g7
VVSDragon Tamer.png
p497
sg9
VDragon Tamer
p498
sg11
VNicolas
p499
sg13
V2,820
p500
sg15
V1
p501
sg17
g18
sg19
g20
sg21
VSM
p502
sg23
(lp503
g1
(g25
g3
Ntp504
Rp505
(dp506
g29
V330
p507
sg31
VFlygon
p508
sg33
g34
sg35
V47
p509
sg37
(lp510
Vdragon-rush
p511
aVearth-power
p512
aVbulldoze
p513
aVdragon-tail
p514
asg43
g44
sg45
Vlevitate
p515
sbasg58
I00
sg59
Vsun-moon
p516
sbag1
(g2
g3
Ntp517
Rp518
(dp519
g7
VVSOld Couple.png
p520
sg9
VOld Couple
p521
sg11
VJohn & Jay
p522
sg13
V7,520
p523
sg15
g16
sg17
g18
sg19
g20
sg21
g502
sg23
(lp524
g1
(g25
g3
Ntp525
Rp526
(dp527
g29
V308
p528
sg31
VMedicham
p529
sg33
g34
sg35
V47
p530
sg37
(lp531
Vacupressure
p532
aVpower-trick
p533
aVforce-palm
p534
aVzen-headbutt
p535
asg43
g44
sg45
Vpure-power
p536
sbag1
(g25
g3
Ntp537
Rp538
(dp539
g29
V297
p540
sg31
VHariyama
p541
sg33
g34
sg35
V47
p542
sg37
(lp543
Vbrine
p544
aVclose-combat
p545
aVforce-palm
p546
aVheavy-slam
p547
asg43
g44
sg45
Vguts
p548
sbasg58
I00
sg59
g516
sbag1
(g2
g3
Ntp549
Rp550
(dp551
g7
VVSBattle Girl ORAS.png
p552
sg9
VBattle Girl
p553
sg11
VTess
p554
sg13
V2,944
p555
sg15
g501
sg17
g18
sg19
g20
sg21
VSM
p556
sg23
(lp557
g1
(g25
g3
Ntp558
Rp559
(dp560
g29
V620
p561
sg31
VMienshao
p562
sg33
VF
p563
sg35
V46
p564
sg37
(lp565
Vaura-sphere
p566
ag566
aVdrain-punch
p567
aVwide-guard
p568
asg43
g44
sg45
Vregenerator
p569
sbasg58
I00
sg59
g516
sbag1
(g2
g3
Ntp570
Rp571
(dp572
g7
VVSDragon Tamer.png
p573
sg9
VDragon Tamer
p574
sg11
VDray
p575
sg13
V2,820
p576
sg15
g501
sg17
g18
sg19
g20
sg21
g502
sg23
(lp577
g1
(g25
g3
Ntp578
Rp579
(dp580
g29
V334
p581
sg31
VAltaria
p582
sg33
g34
sg35
V47
p583
sg37
(lp584
Vround
p585
aVcotton-guard
p586
aVdisarming-voice
p587
aVmoonblast
p588
asg43
g44
sg45
Vnatural-cure
p589
sbasg58
I00
sg59
g516
sbag1
(g2
g3
Ntp590
Rp591
(dp592
g7
VVSDragon Tamer.png
p593
sg9
VDragon Tamer
p594
sg11
VNicolas
p595
sg13
V3,000<br><small>After entering the [[Hall of Fame]]</small>
p596
sg15
g188
sg17
g18
sg19
g20
sg21
g502
sg23
(lp597
g1
(g25
g3
Ntp598
Rp599
(dp600
g29
V715
p601
sg31
VNoivern
p602
sg33
g34
sg35
V50
p603
sg37
(lp604
Vhurricane
p605
ag605
aVboomburst
p606
ag606
asg43
g44
sg45
Vfrisk
p607
sbag1
(g25
g3
Ntp608
Rp609
(dp610
g29
V621
p611
sg31
VDruddigon
p612
sg33
g34
sg35
V50
p613
sg37
(lp614
Vrock-climb
p615
aVhone-claws
p616
aVchip-away
p617
aVdragon-tail
p618
asg43
g44
sg45
Vsheer-force
p619
sbag1
(g25
g3
Ntp620
Rp621
(dp622
g29
V330
p623
sg31
VFlygon
p624
sg33
g34
sg35
V50
p625
sg37
(lp626
Vdragon-rush
p627
aVearth-power
p628
aVbulldoze
p629
aVdragon-tail
p630
asg43
g44
sg45
Vlevitate
p631
sbasg58
I00
sg59
g516
sbag1
(g2
g3
Ntp632
Rp633
(dp634
g7
VVSOld Couple.png
p635
sg9
VOld Couple
p636
sg11
VJohn & Jay
p637
sg13
V9,280<br><small>After entering the [[Hall of Fame]]</small>
p638
sg15
g16
sg17
g18
sg19
g20
sg21
g502
sg23
(lp639
g1
(g25
g3
Ntp640
Rp641
(dp642
g29
V308
p643
sg31
VMedicham
p644
sg33
g34
sg35
V58
p645
sg37
(lp646
Vacupressure
p647
aVpower-trick
p648
aVforce-palm
p649
aVzen-headbutt
p650
asg43
g44
sg45
Vpure-power
p651
sbag1
(g25
g3
Ntp652
Rp653
(dp654
g29
V297
p655
sg31
VHariyama
p656
sg33
g34
sg35
V58
p657
sg37
(lp658
Vbrine
p659
aVclose-combat
p660
aVforce-palm
p661
aVheavy-slam
p662
asg43
g44
sg45
Vguts
p663
sbasg58
I00
sg59
g516
sbag1
(g2
g3
Ntp664
Rp665
(dp666
g7
VSpr RS Steven.png
p667
sg9
VPokemon Trainer
p668
sg11
VSteven Stone
p669
sg13
V4680
p670
sg15
I6
sg17
g18
sg19
g20
sg21
g22
sg23
(lp671
g1
(g25
g3
Ntp672
Rp673
(dp674
g29
I227
sg31
VSkarmory
p675
sg33
g34
sg35
V77
p676
sg37
(lp677
VToxic
p678
aVAerial Ace
p679
aVSpikes
p680
aVSteel Wing
p681
asg43
g44
sg45
VKeen Eye
p682
sbag1
(g25
g3
Ntp683
Rp684
(dp685
g29
I344
sg31
VClaydol
p686
sg33
VU
p687
sg35
V75
p688
sg37
(lp689
VReflect
p690
aVLight Screen
p691
aVAncientPower
p692
aVEarthquake
p693
asg43
g44
sg45
VLevitate
p694
sbag1
(g25
g3
Ntp695
Rp696
(dp697
g29
I306
sg31
VAggron
p698
sg33
g34
sg35
V76
p699
sg37
(lp700
VThunder
p701
aVEarthquake
p702
aVSolarBeam
p703
aVDragon Claw
p704
asg43
g44
sg45
VSturdy
p705
sbag1
(g25
g3
Ntp706
Rp707
(dp708
g29
I346
sg31
VCradily
p709
sg33
g34
sg35
V76
p710
sg37
(lp711
VGiga Drain
p712
aVAncientPower
p713
aVIngrain
p714
aVConfuse Ray
p715
asg43
g44
sg45
VSuction Cups
p716
sbag1
(g25
g3
Ntp717
Rp718
(dp719
g29
I348
sg31
VArmaldo
p720
sg33
g34
sg35
V76
p721
sg37
(lp722
VWater Pulse
p723
aVAncientPower
p724
aVAerial Ace
p725
aVSlash
p726
asg43
g44
sg45
VBattle Armor
p727
sbag1
(g25
g3
Ntp728
Rp729
(dp730
g29
I376
sg31
VMetagross
p731
sg33
g687
sg35
V78
p732
sg37
(lp733
VEarthquake
p734
aVPsychic
p735
aVMeteor Mash
p736
aVShadow Ball
p737
asg43
VSitrus Berry
p738
sg45
VClear Body
p739
sbasg58
I01
sg59
g60
sbag1
(g2
g3
Ntp740
Rp741
(dp742
g7
VVSBrendan.png
p743
sg9
VLeader
p744
sg11
VBrendan (game)
p745
sg13
Vn/a
p746
sg15
I3
sg17
g18
sg19
g20
sg21
VSM
p747
sg23
(lp748
g1
(g25
g3
Ntp749
Rp750
(dp751
g29
I320
sg31
VWailmer
p752
sg33
g34
sg35
V24
p753
sg37
(lp754
VWhirlpool
p755
aVAstonish
p756
aVWater Pulse
p757
aVMist
p758
asg43
g44
sg45
VWater Veil
p759
sbag1
(g25
g3
Ntp760
Rp761
(dp762
g29
I285
sg31
VShroomish
p763
sg33
g34
sg35
V24
p764
sg37
(lp765
VMega Drain
p766
aVHeadbutt
p767
aVPoison Powder
p768
aVWorry Seed
p769
asg43
g44
sg45
VEffect Spore
p770
sbag1
(g25
g3
Ntp771
Rp772
(dp773
g29
I256
sg31
VCombusken
p774
sg33
g34
sg35
V26
p775
sg37
(lp776
VPeck
p777
aVDouble Kick
p778
aVFlame Charge
p779
aVQuick Attack
p780
asg43
g44
sg45
VBlaze
p781
sbasg58
I01
sg59
g516
sbag1
(g2
g3
Ntp782
Rp783
(dp784
g7
VVSMay.png
p785
sg9
g744
sg11
VMay (game)
p786
sg13
Vn/a
p787
sg15
I3
sg17
g18
sg19
g20
sg21
VSM
p788
sg23
(lp789
g1
(g25
g3
Ntp790
Rp791
(dp792
g29
I320
sg31
VWailmer
p793
sg33
g563
sg35
V24
p794
sg37
(lp795
VWhirlpool
p796
aVAstonish
p797
aVWater Pulse
p798
aVMist
p799
asg43
g44
sg45
VWater Veil
p800
sbag1
(g25
g3
Ntp801
Rp802
(dp803
g29
I285
sg31
VShroomish
p804
sg33
g563
sg35
V24
p805
sg37
(lp806
VMega Drain
p807
aVHeadbutt
p808
aVPoison Powder
p809
aVWorry Seed
p810
asg43
g44
sg45
VEffect Spore
p811
sbag1
(g25
g3
Ntp812
Rp813
(dp814
g29
I256
sg31
VCombusken
p815
sg33
g563
sg35
V26
p816
sg37
(lp817
VPeck
p818
aVDouble Kick
p819
aVFlame Charge
p820
aVQuick Attack
p821
asg43
g44
sg45
VBlaze
p822
sbasg58
I01
sg59
g516
sbag1
(g2
g3
Ntp823
Rp824
(dp825
g7
VVSBrendan.png
p826
sg9
g744
sg11
VBrendan (game)
p827
sg13
Vn/a
p828
sg15
I3
sg17
g18
sg19
g20
sg21
g747
sg23
(lp829
g1
(g25
g3
Ntp830
Rp831
(dp832
g29
I285
sg31
VShroomish
p833
sg33
g34
sg35
V24
p834
sg37
(lp835
VMega Drain
p836
aVHeadbutt
p837
aVPoison Powder
p838
aVWorry Seed
p839
asg43
g44
sg45
VEffect Spore
p840
sbag1
(g25
g3
Ntp841
Rp842
(dp843
g29
I218
sg31
VSlugma
p844
sg33
g34
sg35
V24
p845
sg37
(lp846
VHarden
p847
aVIncinerate
p848
aVClear Smog
p849
aVAncient Power
p850
asg43
g44
sg45
VMagma Armor
p851
sbag1
(g25
g3
Ntp852
Rp853
(dp854
g29
I259
sg31
VMarshtomp
p855
sg33
g34
sg35
V26
p856
sg37
(lp857
VForesight
p858
aVMud Shot
p859
aVBide
p860
aVMud Bomb
p861
asg43
g44
sg45
VTorrent
p862
sbasg58
I01
sg59
g516
sbag1
(g2
g3
Ntp863
Rp864
(dp865
g7
VVSMay.png
p866
sg9
g744
sg11
VMay (game)
p867
sg13
Vn/a
p868
sg15
I3
sg17
g18
sg19
g20
sg21
g788
sg23
(lp869
g1
(g25
g3
Ntp870
Rp871
(dp872
g29
I285
sg31
VShroomish
p873
sg33
g563
sg35
V24
p874
sg37
(lp875
VMega Drain
p876
aVHeadbutt
p877
aVPoison Powder
p878
aVWorry Seed
p879
asg43
g44
sg45
VEffect Spore
p880
sbag1
(g25
g3
Ntp881
Rp882
(dp883
g29
I218
sg31
VSlugma
p884
sg33
g563
sg35
V24
p885
sg37
(lp886
VHarden
p887
aVIncinerate
p888
aVClear Smog
p889
aVAncient Power
p890
asg43
g44
sg45
VMagma Armor
p891
sbag1
(g25
g3
Ntp892
Rp893
(dp894
g29
I259
sg31
VMarshtomp
p895
sg33
g563
sg35
V26
p896
sg37
(lp897
VForesight
p898
aVMud Shot
p899
aVBide
p900
aVMud Bomb
p901
asg43
g44
sg45
VTorrent
p902
sbasg58
I01
sg59
g516
sbag1
(g2
g3
Ntp903
Rp904
(dp905
g7
VVSBrendan.png
p906
sg9
g744
sg11
VBrendan (game)
p907
sg13
Vn/a
p908
sg15
I3
sg17
g18
sg19
g20
sg21
g747
sg23
(lp909
g1
(g25
g3
Ntp910
Rp911
(dp912
g29
I218
sg31
VSlugma
p913
sg33
g34
sg35
V24
p914
sg37
(lp915
VHarden
p916
aVIncinerate
p917
aVClear Smog
p918
aVAncient Power
p919
asg43
g44
sg45
VMagma Armor
p920
sbag1
(g25
g3
Ntp921
Rp922
(dp923
g29
I320
sg31
VWailmer
p924
sg33
g34
sg35
V24
p925
sg37
(lp926
VWhirlpool
p927
aVAstonish
p928
aVWater Pulse
p929
aVMist
p930
asg43
g44
sg45
VWater Veil
p931
sbag1
(g25
g3
Ntp932
Rp933
(dp934
g29
I253
sg31
VGrovyle
p935
sg33
g34
sg35
V26
p936
sg37
(lp937
VMega Drain
p938
aVFury Cutter
p939
aVPursuit
p940
aVLeaf Blade
p941
asg43
g44
sg45
VOvergrow
p942
sbasg58
I01
sg59
g516
sbag1
(g2
g3
Ntp943
Rp944
(dp945
g7
VVSMay.png
p946
sg9
g744
sg11
VMay (game)
p947
sg13
Vn/a
p948
sg15
I3
sg17
g18
sg19
g20
sg21
g788
sg23
(lp949
g1
(g25
g3
Ntp950
Rp951
(dp952
g29
I218
sg31
VSlugma
p953
sg33
g563
sg35
V24
p954
sg37
(lp955
VHarden
p956
aVIncinerate
p957
aVClear Smog
p958
aVAncient Power
p959
asg43
g44
sg45
VMagma Armor
p960
sbag1
(g25
g3
Ntp961
Rp962
(dp963
g29
I320
sg31
VWailmer
p964
sg33
g563
sg35
V24
p965
sg37
(lp966
VWhirlpool
p967
aVAstonish
p968
aVWater Pulse
p969
aVMist
p970
asg43
g44
sg45
VWater Veil
p971
sbag1
(g25
g3
Ntp972
Rp973
(dp974
g29
I253
sg31
VGrovyle
p975
sg33
g563
sg35
V26
p976
sg37
(lp977
VMega Drain
p978
aVFury Cutter
p979
aVPursuit
p980
aVLeaf Blade
p981
asg43
g44
sg45
VOvergrow
p982
sbasg58
I01
sg59
g516
sba.