(lp0
ccopy_reg
_reconstructor
p1
(c__main__
Trainer
p2
c__builtin__
object
p3
Ntp4
Rp5
(dp6
VtSprite
p7
VSpr BW Hiker.png
p8
sVtClass
p9
VHiker
p10
sVtName
p11
VHugh
p12
sVtMoney
p13
V1056
p14
sVtPokeCount
p15
V2
p16
sVtLocation
p17
Vwiki/Mistralton_Cave
p18
sVtRegion
p19
VUnova
p20
sVtGame
p21
VBW
p22
sVtPokes
p23
(lp24
g1
(c__main__
FinishedPokemon
p25
g3
Ntp26
Rp27
(dp28
VpDexNo
p29
V529
p30
sVpSpecies
p31
VDrilbur
p32
sVpGender
p33
VM
p34
sVpLevel
p35
V33
p36
sVpMoves
p37
(lp38
Vmetal-claw
p39
aVmud-sport
p40
aVhone-claws
p41
aVdrill-run
p42
asVpHold
p43
V
p44
sVpAbility
p45
Vsand-rush
p46
sbag1
(g25
g3
Ntp47
Rp48
(dp49
g29
V533
p50
sg31
VGurdurr
p51
sg33
g34
sg35
V33
p52
sg37
(lp53
Vwake-up-slap
p54
aVhammer-arm
p55
aVstone-edge
p56
aVchip-away
p57
asg43
g44
sg45
Vsheer-force
p58
sbasVbossFlag
p59
I00
sVtLongGame
p60
Vblack-white
p61
sbag1
(g2
g3
Ntp62
Rp63
(dp64
g7
VSpr BW Hiker.png
p65
sg9
VHiker
p66
sg11
VClarke
p67
sg13
V1088
p68
sg15
V1
p69
sg17
g18
sg19
g20
sg21
g22
sg23
(lp70
g1
(g25
g3
Ntp71
Rp72
(dp73
g29
V525
p74
sg31
VBoldore
p75
sg33
g34
sg35
V34
p76
sg37
(lp77
Vpower-gem
p78
aVstone-edge
p79
aVstealth-rock
p80
aVsmack-down
p81
asg43
g44
sg45
Vweak-armor
p82
sbasg59
I00
sg60
g61
sbag1
(g2
g3
Ntp83
Rp84
(dp85
g7
VSpr B2W2 Hiker.png
p86
sg9
VHiker
p87
sg11
VShelby
p88
sg13
g1
(cmwparserfromhell.wikicode
Wikicode
p89
g3
Ntp90
Rp91
(dp92
V_nodes
p93
g1
(cmwparserfromhell.smart_list.smart_list
SmartList
p94
c__builtin__
list
p95
(lp96
g1
(cmwparserfromhell.nodes.text
Text
p97
g3
Ntp98
Rp99
(dp100
V_value
p101
V1024
p102
sbatp103
Rp104
(dp105
V_children
p106
(dp107
sbsbsg15
g69
sg17
g18
sg19
g20
sg21
VB2W2
p108
sg23
(lp109
g1
(g25
g3
Ntp110
Rp111
(dp112
g29
V525
p113
sg31
VBoldore
p114
sg33
g34
sg35
V32
p115
sg37
(lp116
Vpower-gem
p117
aVstone-edge
p118
aVstealth-rock
p119
aVsmack-down
p120
asg43
g44
sg45
Vweak-armor
p121
sbasg59
I00
sg60
Vblack-2-white-2
p122
sbag1
(g2
g3
Ntp123
Rp124
(dp125
g7
VSpr B2W2 Hiker.png
p126
sg9
VHiker
p127
sg11
VJebediah
p128
sg13
g1
(g89
g3
Ntp129
Rp130
(dp131
g93
g1
(g94
g95
(lp132
g1
(g97
g3
Ntp133
Rp134
(dp135
g101
V1024
p136
sbatp137
Rp138
(dp139
g106
(dp140
sbsbsg15
g69
sg17
g18
sg19
g20
sg21
g108
sg23
(lp141
g1
(g25
g3
Ntp142
Rp143
(dp144
g29
V095
p145
sg31
VOnix
p146
sg33
g34
sg35
V32
p147
sg37
(lp148
Vrock-polish
p149
aVstone-edge
p150
aVstealth-rock
p151
aVsmack-down
p152
asg43
g44
sg45
Vrock-head
p153
sbasg59
I00
sg60
g122
sbag1
(g2
g3
Ntp154
Rp155
(dp156
g7
VSpr B2W2 Ace Trainer M.png
p157
sg9
VAce Trainer
p158
sg11
VGeoff
p159
sg13
g1
(g89
g3
Ntp160
Rp161
(dp162
g93
g1
(g94
g95
(lp163
g1
(g97
g3
Ntp164
Rp165
(dp166
g101
V1980
p167
sbatp168
Rp169
(dp170
g106
(dp171
sbsbsg15
g16
sg17
g18
sg19
g20
sg21
g108
sg23
(lp172
g1
(g25
g3
Ntp173
Rp174
(dp175
g29
V564
p176
sg31
VTirtouga
p177
sg33
g34
sg35
V33
p178
sg37
(lp179
Vaqua-jet
p180
aVwide-guard
p181
aVsmack-down
p182
aVshell-smash
p183
asg43
g44
sg45
Vsturdy
p184
sbag1
(g25
g3
Ntp185
Rp186
(dp187
g29
V610
p188
sg31
VAxew
p189
sg33
g34
sg35
V33
p190
sg37
(lp191
Vassurance
p192
aVdragon-pulse
p193
aVgiga-impact
p194
aVdual-chop
p195
asg43
g44
sg45
Vmold-breaker
p196
sbasg59
I00
sg60
g122
sbag1
(g2
g3
Ntp197
Rp198
(dp199
g7
VSpr B2W2 Ace Trainer F.png
p200
sg9
VAce Trainer
p201
sg11
VBelle
p202
sg13
g1
(g89
g3
Ntp203
Rp204
(dp205
g93
g1
(g94
g95
(lp206
g1
(g97
g3
Ntp207
Rp208
(dp209
g101
V1980
p210
sbatp211
Rp212
(dp213
g106
(dp214
sbsbsg15
g16
sg17
g18
sg19
g20
sg21
g108
sg23
(lp215
g1
(g25
g3
Ntp216
Rp217
(dp218
g29
V566
p219
sg31
VArchen
p220
sg33
g34
sg35
V33
p221
sg37
(lp222
Vpluck
p223
aVu-turn
p224
aVquick-guard
p225
aVacrobatics
p226
asg43
g44
sg45
Vdefeatist
p227
sbag1
(g25
g3
Ntp228
Rp229
(dp230
g29
V610
p231
sg31
VAxew
p232
sg33
VF
p233
sg35
V33
p234
sg37
(lp235
Vassurance
p236
aVdragon-pulse
p237
aVgiga-impact
p238
aVdual-chop
p239
asg43
g44
sg45
Vmold-breaker
p240
sbasg59
I00
sg60
g122
sba.