(lp0
ccopy_reg
_reconstructor
p1
(c__main__
Trainer
p2
c__builtin__
object
p3
Ntp4
Rp5
(dp6
VtSprite
p7
VSpr BW Worker.png
p8
sVtClass
p9
VWorker
p10
sVtName
p11
VCliff
p12
sVtMoney
p13
V1280
p14
sVtPokeCount
p15
V2
p16
sVtLocation
p17
Vwiki/Mistralton_Gym
p18
sVtRegion
p19
VUnova
p20
sVtGame
p21
VBW
p22
sVtPokes
p23
(lp24
g1
(c__main__
FinishedPokemon
p25
g3
Ntp26
Rp27
(dp28
VpDexNo
p29
V520
p30
sVpSpecies
p31
VTranquill
p32
sVpGender
p33
VM
p34
sVpLevel
p35
V32
p36
sVpMoves
p37
(lp38
Vair-cutter
p39
aVroost
p40
aVtailwind
p41
aVair-slash
p42
asVpHold
p43
V
p44
sVpAbility
p45
Vbig-pecks
p46
sbag1
(g25
g3
Ntp47
Rp48
(dp49
g29
V520
p50
sg31
VTranquill
p51
sg33
g34
sg35
V32
p52
sg37
(lp53
Vair-cutter
p54
aVroost
p55
aVtailwind
p56
aVair-slash
p57
asg43
g44
sg45
Vsuper-luck
p58
sbasVbossFlag
p59
I00
sVtLongGame
p60
Vblack-white
p61
sbag1
(g2
g3
Ntp62
Rp63
(dp64
g7
VSpr BW Worker.png
p65
sg9
VWorker
p66
sg11
VBrady
p67
sg13
V1280
p68
sg15
g16
sg17
g18
sg19
g20
sg21
g22
sg23
(lp69
g1
(g25
g3
Ntp70
Rp71
(dp72
g29
V580
p73
sg31
VDucklett
p74
sg33
g34
sg35
V32
p75
sg37
(lp76
Vair-slash
p77
aVbrave-bird
p78
aVdefog
p79
aVhurricane
p80
asg43
g44
sg45
Vbig-pecks
p81
sbag1
(g25
g3
Ntp82
Rp83
(dp84
g29
V527
p85
sg31
VWoobat
p86
sg33
g34
sg35
V32
p87
sg37
(lp88
Vcalm-mind
p89
aVassurance
p90
aVair-slash
p91
aVheart-stamp
p92
asg43
g44
sg45
Vklutz
p93
sbasg59
I00
sg60
g61
sbag1
(g2
g3
Ntp94
Rp95
(dp96
g7
VSpr BW Pilot.png
p97
sg9
VPilot
p98
sg11
VTed
p99
sg13
V1920
p100
sg15
g16
sg17
g18
sg19
g20
sg21
g22
sg23
(lp101
g1
(g25
g3
Ntp102
Rp103
(dp104
g29
V580
p105
sg31
VDucklett
p106
sg33
g34
sg35
V32
p107
sg37
(lp108
Vair-slash
p109
aVbrave-bird
p110
aVdefog
p111
aVhurricane
p112
asg43
g44
sg45
Vkeen-eye
p113
sbag1
(g25
g3
Ntp114
Rp115
(dp116
g29
V561
p117
sg31
VSigilyph
p118
sg33
g34
sg35
V32
p119
sg37
(lp120
Vmiracle-eye
p121
aVtailwind
p122
aVair-slash
p123
aVsynchronoise
p124
asg43
g44
sg45
Vwonder-skin
p125
sbasg59
I00
sg60
g61
sbag1
(g2
g3
Ntp126
Rp127
(dp128
g7
VSpr BW Pilot.png
p129
sg9
VPilot
p130
sg11
VChase
p131
sg13
V1980
p132
sg15
V1
p133
sg17
g18
sg19
g20
sg21
g22
sg23
(lp134
g1
(g25
g3
Ntp135
Rp136
(dp137
g29
V521
p138
sg31
VUnfezant
p139
sg33
g34
sg35
V33
p140
sg37
(lp141
Vair-cutter
p142
aVroost
p143
aVtailwind
p144
aVair-slash
p145
asg43
g44
sg45
Vbig-pecks
p146
sbasg59
I00
sg60
g61
sbag1
(g2
g3
Ntp147
Rp148
(dp149
g7
VSpr BW Worker.png
p150
sg9
VWorker
p151
sg11
VArnold
p152
sg13
V1320
p153
sg15
g133
sg17
g18
sg19
g20
sg21
g22
sg23
(lp154
g1
(g25
g3
Ntp155
Rp156
(dp157
g29
V528
p158
sg31
VSwoobat
p159
sg33
g34
sg35
V33
p160
sg37
(lp161
Vassurance
p162
ag162
aVair-slash
p163
aVheart-stamp
p164
asg43
g44
sg45
Vunaware
p165
sbasg59
I00
sg60
g61
sbag1
(g2
g3
Ntp166
Rp167
(dp168
g7
VSpr B2W2 Pilot.png
p169
sg9
VPilot
p170
sg11
VFlynn
p171
sg13
g1
(cmwparserfromhell.wikicode
Wikicode
p172
g3
Ntp173
Rp174
(dp175
V_nodes
p176
g1
(cmwparserfromhell.smart_list.smart_list
SmartList
p177
c__builtin__
list
p178
(lp179
g1
(cmwparserfromhell.nodes.text
Text
p180
g3
Ntp181
Rp182
(dp183
V_value
p184
V2220
p185
sbatp186
Rp187
(dp188
V_children
p189
(dp190
sbsbsg15
g133
sg17
g18
sg19
g20
sg21
VB2W2
p191
sg23
(lp192
g1
(g25
g3
Ntp193
Rp194
(dp195
g29
V528
p196
sg31
VSwoobat
p197
sg33
g34
sg35
V37
p198
sg37
(lp199
Vassurance
p200
ag200
aVair-slash
p201
aVheart-stamp
p202
asg43
g44
sg45
Vunaware
p203
sbasg59
I00
sg60
Vblack-2-white-2
p204
sbag1
(g2
g3
Ntp205
Rp206
(dp207
g7
VSpr B2W2 Pilot.png
p208
sg9
VPilot
p209
sg11
VWinslow
p210
sg13
g1
(g172
g3
Ntp211
Rp212
(dp213
g176
g1
(g177
g178
(lp214
g1
(g180
g3
Ntp215
Rp216
(dp217
g184
V2220
p218
sbatp219
Rp220
(dp221
g189
(dp222
sbsbsg15
g133
sg17
g18
sg19
g20
sg21
g191
sg23
(lp223
g1
(g25
g3
Ntp224
Rp225
(dp226
g29
V561
p227
sg31
VSigilyph
p228
sg33
g34
sg35
V37
p229
sg37
(lp230
Vmiracle-eye
p231
aVtailwind
p232
aVair-slash
p233
aVsynchronoise
p234
asg43
g44
sg45
Vmagic-guard
p235
sbasg59
I00
sg60
g204
sbag1
(g2
g3
Ntp236
Rp237
(dp238
g7
VSpr B2W2 Pilot.png
p239
sg9
VPilot
p240
sg11
VElron
p241
sg13
g1
(g172
g3
Ntp242
Rp243
(dp244
g176
g1
(g177
g178
(lp245
g1
(g180
g3
Ntp246
Rp247
(dp248
g184
V2160
p249
sbatp250
Rp251
(dp252
g189
(dp253
sbsbsg15
g16
sg17
g18
sg19
g20
sg21
g191
sg23
(lp254
g1
(g25
g3
Ntp255
Rp256
(dp257
g29
V566
p258
sg31
VArchen
p259
sg33
g34
sg35
V36
p260
sg37
(lp261
Vpluck
p262
aVu-turn
p263
aVquick-guard
p264
aVacrobatics
p265
asg43
g44
sg45
Vdefeatist
p266
sbag1
(g25
g3
Ntp267
Rp268
(dp269
g29
V521
p270
sg31
VUnfezant
p271
sg33
g34
sg35
V36
p272
sg37
(lp273
Vair-cutter
p274
aVroost
p275
aVtailwind
p276
aVair-slash
p277
asg43
g44
sg45
Vsuper-luck
p278
sbasg59
I00
sg60
g204
sbag1
(g2
g3
Ntp279
Rp280
(dp281
g7
VSpr B2W2 Pilot.png
p282
sg9
VPilot
p283
sg11
VEwing
p284
sg13
g1
(g172
g3
Ntp285
Rp286
(dp287
g176
g1
(g177
g178
(lp288
g1
(g180
g3
Ntp289
Rp290
(dp291
g184
V2220
p292
sbatp293
Rp294
(dp295
g189
(dp296
sbsbsg15
g133
sg17
g18
sg19
g20
sg21
g191
sg23
(lp297
g1
(g25
g3
Ntp298
Rp299
(dp300
g29
V521
p301
sg31
VUnfezant
p302
sg33
g34
sg35
V37
p303
sg37
(lp304
Vair-cutter
p305
aVroost
p306
aVtailwind
p307
aVair-slash
p308
asg43
g44
sg45
Vbig-pecks
p309
sbasg59
I00
sg60
g204
sbag1
(g2
g3
Ntp310
Rp311
(dp312
g7
VSpr B2W2 Pilot.png
p313
sg9
VPilot
p314
sg11
VChase
p315
sg13
g1
(g172
g3
Ntp316
Rp317
(dp318
g176
g1
(g177
g178
(lp319
g1
(g180
g3
Ntp320
Rp321
(dp322
g184
V2160
p323
sbatp324
Rp325
(dp326
g189
(dp327
sbsbsg15
g16
sg17
g18
sg19
g20
sg21
g191
sg23
(lp328
g1
(g25
g3
Ntp329
Rp330
(dp331
g29
V580
p332
sg31
VDucklett
p333
sg33
g34
sg35
V36
p334
sg37
(lp335
Vair-slash
p336
aVbrave-bird
p337
aVdefog
p338
aVhurricane
p339
asg43
g44
sg45
Vbig-pecks
p340
sbag1
(g25
g3
Ntp341
Rp342
(dp343
g29
V528
p344
sg31
VSwoobat
p345
sg33
g34
sg35
V36
p346
sg37
(lp347
Vassurance
p348
ag348
aVair-slash
p349
aVheart-stamp
p350
asg43
g44
sg45
Vklutz
p351
sbasg59
I00
sg60
g204
sbag1
(g2
g3
Ntp352
Rp353
(dp354
g7
VSpr BW Skyla.png
p355
sg9
VLeader
p356
sg11
VSkyla
p357
sg13
V4200
p358
sg15
I3
sg17
g18
sg19
g20
sg21
g22
sg23
(lp359
g1
(g25
g3
Ntp360
Rp361
(dp362
g29
I528
sg31
VSwoobat
p363
sg33
VF
p364
sg35
V33
p365
sg37
(lp366
VAmnesia
p367
aVHeart Stamp
p368
aVAcrobatics
p369
aVAssurance
p370
asg43
g44
sg45
VUnaware
p371
sbag1
(g25
g3
Ntp372
Rp373
(dp374
g29
I521
sg31
VUnfezant
p375
sg33
g364
sg35
V33
p376
sg37
(lp377
VQuick Attack
p378
aVRazor Wind
p379
aVAir Slash
p380
aVLeer
p381
asg43
g44
sg45
VBig Pecks
p382
sbag1
(g25
g3
Ntp383
Rp384
(dp385
g29
I581
sg31
VSwanna
p386
sg33
g364
sg35
V35
p387
sg37
(lp388
VAqua Ring
p389
aVAerial Ace
p390
aVAir Slash
p391
aVBubbleBeam
p392
asg43
g44
sg45
VKeen Eye
p393
sbasg59
I01
sg60
g61
sbag1
(g2
g3
Ntp394
Rp395
(dp396
g7
VSpr B2W2 Skyla.png
p397
sg9
VLeader
p398
sg11
VSkyla
p399
sg13
g1
(g172
g3
Ntp400
Rp401
(dp402
g176
g1
(g177
g178
(lp403
g1
(g180
g3
Ntp404
Rp405
(dp406
g184
V4320
p407
sbatp408
Rp409
(dp410
g189
(dp411
sbsbsg15
I3
sg17
g18
sg19
g20
sg21
g191
sg23
(lp412
g1
(g25
g3
Ntp413
Rp414
(dp415
g29
I528
sg31
VSwoobat
p416
sg33
g364
sg35
g1
(g172
g3
Ntp417
Rp418
(dp419
g176
g1
(g177
g178
(lp420
g1
(g180
g3
Ntp421
Rp422
(dp423
g184
V34
p424
sbatp425
Rp426
(dp427
g189
(dp428
sbsbsg37
(lp429
VHeart Stamp
p430
aVAttract
p431
aVAcrobatics
p432
aVAssurance
p433
asg43
g44
sg45
VUnaware
p434
sbag1
(g25
g3
Ntp435
Rp436
(dp437
g29
I227
sg31
VSkarmory
p438
sg33
g364
sg35
g1
(g172
g3
Ntp439
Rp440
(dp441
g176
g1
(g177
g178
(lp442
g1
(g180
g3
Ntp443
Rp444
(dp445
g184
V34
p446
sbatp447
Rp448
(dp449
g189
(dp450
sbsbsg37
(lp451
VAir Cutter
p452
aVAgility
p453
aVSteel Wing
p454
aVFury Attack
p455
asg43
g44
sg45
VSturdy
p456
sbag1
(g25
g3
Ntp457
Rp458
(dp459
g29
I581
sg31
VSwanna
p460
sg33
g364
sg35
g1
(g172
g3
Ntp461
Rp462
(dp463
g176
g1
(g177
g178
(lp464
g1
(g180
g3
Ntp465
Rp466
(dp467
g184
V36
p468
sbatp469
Rp470
(dp471
g189
(dp472
sbsbsg37
(lp473
VFeatherDance
p474
aVRoost
p475
aVBubbleBeam
p476
aVAir Slash
p477
asg43
VSitrus Berry
p478
sg45
VBig Pecks
p479
sbasg59
I01
sg60
g204
sbag1
(g2
g3
Ntp480
Rp481
(dp482
g7
VSpr B2W2 Skyla.png
p483
sg9
VLeader
p484
sg11
VSkyla
p485
sg13
V5040
p486
sg15
I4
sg17
g18
sg19
g20
sg21
g191
sg23
(lp487
g1
(g25
g3
Ntp488
Rp489
(dp490
g29
I528
sg31
VSwoobat
p491
sg33
g364
sg35
V40
p492
sg37
(lp493
VPsychic
p494
aVAcrobatics
p495
aVEnergy Ball
p496
aVAttract
p497
asg43
g44
sg45
VUnaware
p498
sbag1
(g25
g3
Ntp499
Rp500
(dp501
g29
I227
sg31
VSkarmory
p502
sg33
g364
sg35
V40
p503
sg37
(lp504
VAerial Ace
p505
aVSteel Wing
p506
aVX-Scissor
p507
aVAgility
p508
asg43
VSitrus Berry
p509
sg45
VSturdy
p510
sbag1
(g25
g3
Ntp511
Rp512
(dp513
g29
I561
sg31
VSigilyph
p514
sg33
g364
sg35
V40
p515
sg37
(lp516
VPsychic
p517
aVHypnosis
p518
aVAir Cutter
p519
aVFlash Cannon
p520
asg43
g44
sg45
VMagic Guard
p521
sbag1
(g25
g3
Ntp522
Rp523
(dp524
g29
I581
sg31
VSwanna
p525
sg33
g364
sg35
V42
p526
sg37
(lp527
VRoost
p528
aVFeatherDance
p529
aVSurf
p530
aVAir Slash
p531
asg43
VSitrus Berry
p532
sg45
VBig Pecks
p533
sbasg59
I01
sg60
g204
sba.