(lp0
ccopy_reg
_reconstructor
p1
(c__main__
Trainer
p2
c__builtin__
object
p3
Ntp4
Rp5
(dp6
VtSprite
p7
VVSMadame SwSh.png
p8
sVtClass
p9
VMadame
p10
sVtName
p11
VCaroline
p12
sVtMoney
p13
V4,800
p14
sVtPokeCount
p15
V2
p16
sVtLocation
p17
Vwiki/Motostoke_Outskirts
p18
sVtRegion
p19
VGalar
p20
sVtGame
p21
VSM
p22
sVtPokes
p23
(lp24
g1
(c__main__
FinishedPokemon
p25
g3
Ntp26
Rp27
(dp28
VpDexNo
p29
V835
p30
sVpSpecies
p31
VYamper
p32
sVpGender
p33
VM
p34
sVpLevel
p35
V22
p36
sVpMoves
p37
(lp38
sVpHold
p39
V
p40
sVpAbility
p41
Vball-fetch
p42
sbag1
(g25
g3
Ntp43
Rp44
(dp45
g29
V528
p46
sg31
VSwoobat
p47
sg33
VF
p48
sg35
V24
p49
sg37
(lp50
Vassurance
p51
ag51
aVair-slash
p52
aVheart-stamp
p53
asg39
g40
sg41
Vklutz
p54
sbasVbossFlag
p55
I00
sVtLongGame
p56
Vsun-moon
p57
sbag1
(g2
g3
Ntp58
Rp59
(dp60
g7
VVSPolice Officer SwSh.png
p61
sg9
VPolice Officer
p62
sg11
VRaymond
p63
sg13
V2,760
p64
sg15
V1
p65
sg17
g18
sg19
g20
sg21
g22
sg23
(lp66
g1
(g25
g3
Ntp67
Rp68
(dp69
g29
V058
p70
sg31
VGrowlithe
p71
sg33
g34
sg35
V23
p72
sg37
(lp73
Vflare-blitz
p74
aVfire-fang
p75
aVflame-burst
p76
aVretaliate
p77
asg39
g40
sg41
Vflash-fire
p78
sbasg55
I00
sg56
g57
sba.