(lp0
ccopy_reg
_reconstructor
p1
(c__main__
Trainer
p2
c__builtin__
object
p3
Ntp4
Rp5
(dp6
VtSprite
p7
VSpr RS Team Magma Grunt M.png
p8
sVtClass
p9
VTeam Magma Grunt
p10
sVtName
p11
V
p12
sVtMoney
p13
V400
p14
sVtPokeCount
p15
V2
p16
sVtLocation
p17
Vwiki/Mt._Chimney
p18
sVtRegion
p19
VHoenn
p20
sVtGame
p21
VRS
p22
sVtPokes
p23
(lp24
g1
(c__main__
FinishedPokemon
p25
g3
Ntp26
Rp27
(dp28
VpDexNo
p29
V041
p30
sVpSpecies
p31
VZubat
p32
sVpGender
p33
VM
p34
sVpLevel
p35
V20
p36
sVpMoves
p37
(lp38
Vmean-look
p39
aVpoison-fang
p40
aVastonish
p41
aVair-cutter
p42
asVpHold
p43
g12
sVpAbility
p44
Vinner-focus
p45
sbag1
(g25
g3
Ntp46
Rp47
(dp48
g29
V261
p49
sg31
VPoochyena
p50
sg33
g34
sg35
V20
p51
sg37
(lp52
Vcrunch
p53
aVtaunt
p54
aVodor-sleuth
p55
aVhowl
p56
asg43
g12
sg44
Vrun-away
p57
sbasVbossFlag
p58
I00
sVtLongGame
p59
Vruby-sapphire
p60
sbag1
(g2
g3
Ntp61
Rp62
(dp63
g7
VSpr RS Team Aqua Grunt M.png
p64
sg9
VTeam Aqua Grunt
p65
sg11
g12
sg13
V400
p66
sg15
g16
sg17
g18
sg19
g20
sg21
g22
sg23
(lp67
g1
(g25
g3
Ntp68
Rp69
(dp70
g29
V041
p71
sg31
VZubat
p72
sg33
g34
sg35
V20
p73
sg37
(lp74
Vmean-look
p75
aVpoison-fang
p76
aVastonish
p77
aVair-cutter
p78
asg43
g12
sg44
Vinner-focus
p79
sbag1
(g25
g3
Ntp80
Rp81
(dp82
g29
V261
p83
sg31
VPoochyena
p84
sg33
g34
sg35
V20
p85
sg37
(lp86
Vcrunch
p87
aVtaunt
p88
aVodor-sleuth
p89
aVhowl
p90
asg43
g12
sg44
Vrun-away
p91
sbasg58
I00
sg59
g60
sbag1
(g2
g3
Ntp92
Rp93
(dp94
g7
VSpr RS Beauty.png
p95
sg9
VBeauty
p96
sg11
VShirley
p97
sg13
V1760
p98
sg15
V1
p99
sg17
g18
sg19
g20
sg21
g22
sg23
(lp100
g1
(g25
g3
Ntp101
Rp102
(dp103
g29
V322
p104
sg31
VNumel
p105
sg33
VF
p106
sg35
V22
p107
sg37
(lp108
Vearthquake
p109
aVfocus-energy
p110
aVamnesia
p111
aVmagnitude
p112
asg43
g12
sg44
Vsimple
p113
sbasg58
I00
sg59
g60
sbag1
(g2
g3
Ntp114
Rp115
(dp116
g7
VSpr RS Beauty.png
p117
sg9
VBeauty
p118
sg11
VSheila
p119
sg13
V1760
p120
sg15
g99
sg17
g18
sg19
g20
sg21
g22
sg23
(lp121
g1
(g25
g3
Ntp122
Rp123
(dp124
g29
V285
p125
sg31
VShroomish
p126
sg33
g106
sg35
V22
p127
sg37
(lp128
Vpoison-powder
p129
aVstun-spore
p130
aVspore
p131
aVgiga-drain
p132
asg43
g12
sg44
Veffect-spore
p133
sbasg58
I00
sg59
g60
sbag1
(g2
g3
Ntp134
Rp135
(dp136
g7
VSpr RS Expert F.png
p137
sg9
VExpert
p138
sg11
VShelby
p139
sg13
V880
p140
sg15
g16
sg17
g18
sg19
g20
sg21
g22
sg23
(lp141
g1
(g25
g3
Ntp142
Rp143
(dp144
g29
V307
p145
sg31
VMeditite
p146
sg33
g106
sg35
V22
p147
sg37
(lp148
Vdetect
p149
aVhidden-power
p150
aVpsych-up
p151
aVcalm-mind
p152
asg43
g12
sg44
Vpure-power
p153
sbag1
(g25
g3
Ntp154
Rp155
(dp156
g29
V296
p157
sg31
VMakuhita
p158
sg33
g34
sg35
V22
p159
sg37
(lp160
Vfake-out
p161
aVsmelling-salts
p162
aVknock-off
p163
aVarm-thrust
p164
asg43
g12
sg44
Vguts
p165
sbasg58
I00
sg59
g60
sbag1
(g2
g3
Ntp166
Rp167
(dp168
g7
VSpr RS Beauty.png
p169
sg9
VBeauty
p170
sg11
VMelissa
p171
sg13
V1760
p172
sg15
g99
sg17
g18
sg19
g20
sg21
g22
sg23
(lp173
g1
(g25
g3
Ntp174
Rp175
(dp176
g29
V183
p177
sg31
VMarill
p178
sg33
g106
sg35
V22
p179
sg37
(lp180
Vbubble-beam
p181
aVdefense-curl
p182
aVrollout
p183
aVrain-dance
p184
asg43
g12
sg44
Vthick-fat
p185
sbasg58
I00
sg59
g60
sbag1
(g2
g3
Ntp186
Rp187
(dp188
g7
VSpr RS Expert F.png
p189
sg9
VExpert
p190
sg11
VShelby{{tt|*|First rematch}}
p191
sg13
V1200
p192
sg15
g16
sg17
g18
sg19
g20
sg21
g22
sg23
(lp193
g1
(g25
g3
Ntp194
Rp195
(dp196
g29
V307
p197
sg31
VMeditite
p198
sg33
g106
sg35
V30
p199
sg37
(lp200
Vdetect
p201
aVhidden-power
p202
aVpsych-up
p203
aVcalm-mind
p204
asg43
g12
sg44
Vpure-power
p205
sbag1
(g25
g3
Ntp206
Rp207
(dp208
g29
V296
p209
sg31
VMakuhita
p210
sg33
g34
sg35
V30
p211
sg37
(lp212
Vfake-out
p213
aVsmelling-salts
p214
aVknock-off
p215
aVarm-thrust
p216
asg43
g12
sg44
Vthick-fat
p217
sbasg58
I00
sg59
g60
sbag1
(g2
g3
Ntp218
Rp219
(dp220
g7
VSpr RS Expert F.png
p221
sg9
VExpert
p222
sg11
VShelby{{tt|*|Second, third and fourth rematch onwards}} 
p223
sg13
g1
(cmwparserfromhell.wikicode
Wikicode
p224
g3
Ntp225
Rp226
(dp227
V_nodes
p228
g1
(cmwparserfromhell.smart_list.smart_list
SmartList
p229
c__builtin__
list
p230
(lp231
g1
(cmwparserfromhell.nodes.text
Text
p232
g3
Ntp233
Rp234
(dp235
V_value
p236
V1320
p237
sbatp238
Rp239
(dp240
V_children
p241
(dp242
sbsbsg15
g16
sg17
g18
sg19
g20
sg21
g22
sg23
(lp243
g1
(g25
g3
Ntp244
Rp245
(dp246
g29
V308
p247
sg31
VMedicham
p248
sg33
g106
sg35
V33
p249
sg37
(lp250
Vdetect
p251
aVhidden-power
p252
aVpsych-up
p253
aVcalm-mind
p254
asg43
g12
sg44
Vpure-power
p255
sbag1
(g25
g3
Ntp256
Rp257
(dp258
g29
V297
p259
sg31
VHariyama
p260
sg33
g34
sg35
V33
p261
sg37
(lp262
Vsmelling-salts
p263
aVknock-off
p264
aVarm-thrust
p265
ag265
asg43
g12
sg44
Vguts
p266
sbasg58
I00
sg59
g60
sbag1
(g2
g3
Ntp267
Rp268
(dp269
g7
VSpr RS Team Magma Grunt F.png
p270
sg9
VTeam Magma Grunt
p271
sg11
g12
sg13
V400<br/><small>Potential [[Double Battle]] with the following Grunt</small>
p272
sg15
g99
sg17
g18
sg19
g20
sg21
g22
sg23
(lp273
g1
(g25
g3
Ntp274
Rp275
(dp276
g29
V322
p277
sg31
VNumel
p278
sg33
g106
sg35
V20
p279
sg37
(lp280
Vearthquake
p281
aVfocus-energy
p282
aVamnesia
p283
aVmagnitude
p284
asg43
g12
sg44
Voblivious
p285
sbasg58
I00
sg59
g60
sbag1
(g2
g3
Ntp286
Rp287
(dp288
g7
VSpr RS Team Magma Grunt M.png
p289
sg9
VTeam Magma Grunt
p290
sg11
g12
sg13
V400<br/><small>Potential [[Double Battle]] with the previous Grunt</small>
p291
sg15
g99
sg17
g18
sg19
g20
sg21
g22
sg23
(lp292
g1
(g25
g3
Ntp293
Rp294
(dp295
g29
V041
p296
sg31
VZubat
p297
sg33
g34
sg35
V20
p298
sg37
(lp299
Vmean-look
p300
aVpoison-fang
p301
aVastonish
p302
aVair-cutter
p303
asg43
g12
sg44
Vinner-focus
p304
sbasg58
I00
sg59
g60
sbag1
(g2
g3
Ntp305
Rp306
(dp307
g7
VSpr RS Beauty.png
p308
sg9
VBeauty
p309
sg11
VShirley
p310
sg13
V1680
p311
sg15
g99
sg17
g18
sg19
g20
sg21
g22
sg23
(lp312
g1
(g25
g3
Ntp313
Rp314
(dp315
g29
V322
p316
sg31
VNumel
p317
sg33
g106
sg35
V21
p318
sg37
(lp319
Vearthquake
p320
aVfocus-energy
p321
aVamnesia
p322
aVmagnitude
p323
asg43
g12
sg44
Voblivious
p324
sbasg58
I00
sg59
g60
sbag1
(g2
g3
Ntp325
Rp326
(dp327
g7
VSpr RS Beauty.png
p328
sg9
VBeauty
p329
sg11
VSheila
p330
sg13
V1680
p331
sg15
g99
sg17
g18
sg19
g20
sg21
g22
sg23
(lp332
g1
(g25
g3
Ntp333
Rp334
(dp335
g29
V285
p336
sg31
VShroomish
p337
sg33
g106
sg35
V21
p338
sg37
(lp339
Vpoison-powder
p340
aVstun-spore
p341
aVspore
p342
aVgiga-drain
p343
asg43
g12
sg44
Vpoison-heal
p344
sbasg58
I00
sg59
g60
sbag1
(g2
g3
Ntp345
Rp346
(dp347
g7
VSpr RS Expert F.png
p348
sg9
VExpert
p349
sg11
VShelby
p350
sg13
V840
p351
sg15
g16
sg17
g18
sg19
g20
sg21
g22
sg23
(lp352
g1
(g25
g3
Ntp353
Rp354
(dp355
g29
V307
p356
sg31
VMeditite
p357
sg33
g106
sg35
V21
p358
sg37
(lp359
Vdetect
p360
aVhidden-power
p361
aVpsych-up
p362
aVcalm-mind
p363
asg43
g12
sg44
Vpure-power
p364
sbag1
(g25
g3
Ntp365
Rp366
(dp367
g29
V296
p368
sg31
VMakuhita
p369
sg33
g34
sg35
V21
p370
sg37
(lp371
Vfake-out
p372
aVsmelling-salts
p373
aVknock-off
p374
aVarm-thrust
p375
asg43
g12
sg44
Vguts
p376
sbasg58
I00
sg59
g60
sbag1
(g2
g3
Ntp377
Rp378
(dp379
g7
VSpr RS Hiker.png
p380
sg9
VHiker
p381
sg11
VSawyer
p382
sg13
V840<br/><small>Potential [[Double Battle]] with Melissa</small>
p383
sg15
g99
sg17
g18
sg19
g20
sg21
g22
sg23
(lp384
g1
(g25
g3
Ntp385
Rp386
(dp387
g29
V074
p388
sg31
VGeodude
p389
sg33
g34
sg35
V21
p390
sg37
(lp391
Vrollout
p392
aVmagnitude
p393
aVmud-sport
p394
aVrock-blast
p395
asg43
g12
sg44
Vrock-head
p396
sbasg58
I00
sg59
g60
sbag1
(g2
g3
Ntp397
Rp398
(dp399
g7
VSpr RS Beauty.png
p400
sg9
VBeauty
p401
sg11
VMelissa
p402
sg13
V1680<br/><small>Potential [[Double Battle]] with Sawyer</small>
p403
sg15
g99
sg17
g18
sg19
g20
sg21
g22
sg23
(lp404
g1
(g25
g3
Ntp405
Rp406
(dp407
g29
V183
p408
sg31
VMarill
p409
sg33
g106
sg35
V21
p410
sg37
(lp411
Vbubble-beam
p412
aVdefense-curl
p413
aVrollout
p414
aVrain-dance
p415
asg43
g12
sg44
Vthick-fat
p416
sbasg58
I00
sg59
g60
sbag1
(g2
g3
Ntp417
Rp418
(dp419
g7
VSpr RS Expert F.png
p420
sg9
VExpert
p421
sg11
VShelby{{tt|*|First rematch}}
p422
sg13
V1200
p423
sg15
g16
sg17
g18
sg19
g20
sg21
g22
sg23
(lp424
g1
(g25
g3
Ntp425
Rp426
(dp427
g29
V307
p428
sg31
VMeditite
p429
sg33
g106
sg35
V30
p430
sg37
(lp431
Vdetect
p432
aVhidden-power
p433
aVpsych-up
p434
aVcalm-mind
p435
asg43
g12
sg44
Vpure-power
p436
sbag1
(g25
g3
Ntp437
Rp438
(dp439
g29
V296
p440
sg31
VMakuhita
p441
sg33
g34
sg35
V30
p442
sg37
(lp443
Vfake-out
p444
aVsmelling-salts
p445
aVknock-off
p446
aVarm-thrust
p447
asg43
g12
sg44
Vthick-fat
p448
sbasg58
I00
sg59
g60
sbag1
(g2
g3
Ntp449
Rp450
(dp451
g7
VSpr RS Expert F.png
p452
sg9
VExpert
p453
sg11
VShelby{{tt|*|Second, third and fourth rematch onwards}} 
p454
sg13
g1
(g224
g3
Ntp455
Rp456
(dp457
g228
g1
(g229
g230
(lp458
g1
(g232
g3
Ntp459
Rp460
(dp461
g236
V1320
p462
sbatp463
Rp464
(dp465
g241
(dp466
sbsbsg15
g16
sg17
g18
sg19
g20
sg21
g22
sg23
(lp467
g1
(g25
g3
Ntp468
Rp469
(dp470
g29
V308
p471
sg31
VMedicham
p472
sg33
g106
sg35
V33
p473
sg37
(lp474
Vdetect
p475
aVhidden-power
p476
aVpsych-up
p477
aVcalm-mind
p478
asg43
g12
sg44
Vpure-power
p479
sbag1
(g25
g3
Ntp480
Rp481
(dp482
g29
V297
p483
sg31
VHariyama
p484
sg33
g34
sg35
V33
p485
sg37
(lp486
Vsmelling-salts
p487
aVknock-off
p488
aVarm-thrust
p489
ag489
asg43
g12
sg44
Vguts
p490
sbasg58
I00
sg59
g60
sbag1
(g2
g3
Ntp491
Rp492
(dp493
g7
VSpr RS Hiker.png
p494
sg9
VHiker
p495
sg11
VSawyer{{tt|*|First rematch}}
p496
sg13
V1040
p497
sg15
g16
sg17
g18
sg19
g20
sg21
g22
sg23
(lp498
g1
(g25
g3
Ntp499
Rp500
(dp501
g29
V074
p502
sg31
VGeodude
p503
sg33
g34
sg35
V26
p504
sg37
(lp505
Vrollout
p506
aVmagnitude
p507
aVmud-sport
p508
aVrock-blast
p509
asg43
g12
sg44
Vrock-head
p510
sbag1
(g25
g3
Ntp511
Rp512
(dp513
g29
V322
p514
sg31
VNumel
p515
sg33
g34
sg35
V26
p516
sg37
(lp517
Vearthquake
p518
aVfocus-energy
p519
aVamnesia
p520
aVmagnitude
p521
asg43
g12
sg44
Voblivious
p522
sbasg58
I00
sg59
g60
sbag1
(g2
g3
Ntp523
Rp524
(dp525
g7
VSpr RS Hiker.png
p526
sg9
VHiker
p527
sg11
VSawyer{{tt|*|Second and third rematch}}
p528
sg13
g1
(g224
g3
Ntp529
Rp530
(dp531
g228
g1
(g229
g230
(lp532
g1
(g232
g3
Ntp533
Rp534
(dp535
g236
V1120
p536
sbatp537
Rp538
(dp539
g241
(dp540
sbsbsg15
V3
p541
sg17
g18
sg19
g20
sg21
g22
sg23
(lp542
g1
(g25
g3
Ntp543
Rp544
(dp545
g29
V066
p546
sg31
VMachop
p547
sg33
g34
sg35
V28
p548
sg37
(lp549
Vdynamic-punch
p550
aVvital-throw
p551
aVcross-chop
p552
aVrevenge
p553
asg43
g12
sg44
Vno-guard
p554
sbag1
(g25
g3
Ntp555
Rp556
(dp557
g29
V322
p558
sg31
VNumel
p559
sg33
g34
sg35
V28
p560
sg37
(lp561
Vearthquake
p562
aVfocus-energy
p563
aVamnesia
p564
aVmagnitude
p565
asg43
g12
sg44
Vsimple
p566
sbag1
(g25
g3
Ntp567
Rp568
(dp569
g29
V075
p570
sg31
VGraveler
p571
sg33
g34
sg35
V28
p572
sg37
(lp573
Vmagnitude
p574
aVmud-sport
p575
ag575
aVrock-blast
p576
asg43
g12
sg44
Vsturdy
p577
sbasg58
I00
sg59
g60
sbag1
(g2
g3
Ntp578
Rp579
(dp580
g7
VSpr RS Hiker.png
p581
sg9
VHiker
p582
sg11
VSawyer{{tt|*|Fourth rematch onwards}}
p583
sg13
V1320
p584
sg15
g541
sg17
g18
sg19
g20
sg21
g22
sg23
(lp585
g1
(g25
g3
Ntp586
Rp587
(dp588
g29
V067
p589
sg31
VMachoke
p590
sg33
g34
sg35
V33
p591
sg37
(lp592
Vdynamic-punch
p593
aVvital-throw
p594
aVcross-chop
p595
aVrevenge
p596
asg43
g12
sg44
Vguts
p597
sbag1
(g25
g3
Ntp598
Rp599
(dp600
g29
V323
p601
sg31
VCamerupt
p602
sg33
g34
sg35
V33
p603
sg37
(lp604
Vrock-slide
p605
aVmagnitude
p606
ag606
aVeruption
p607
asg43
g12
sg44
Vmagma-armor
p608
sbag1
(g25
g3
Ntp609
Rp610
(dp611
g29
V076
p612
sg31
VGolem
p613
sg33
g34
sg35
V33
p614
sg37
(lp615
Vmagnitude
p616
aVmud-sport
p617
ag617
aVrock-blast
p618
asg43
g12
sg44
Vsturdy
p619
sbasg58
I00
sg59
g60
sbag1
(g2
g3
Ntp620
Rp621
(dp622
g7
VVSTeam Magma Grunt M.png
p623
sg9
VTeam Magma Grunt
p624
sg11
g12
sg13
V880
p625
sg15
g16
sg17
g18
sg19
g20
sg21
VSM
p626
sg23
(lp627
g1
(g25
g3
Ntp628
Rp629
(dp630
g29
V261
p631
sg31
VPoochyena
p632
sg33
g34
sg35
V22
p633
sg37
(lp634
Vassurance
p635
aVembargo
p636
aVsucker-punch
p637
aVplay-rough
p638
asg43
g12
sg44
Vquick-feet
p639
sbag1
(g25
g3
Ntp640
Rp641
(dp642
g29
V109
p643
sg31
VKoffing
p644
sg33
g34
sg35
V22
p645
sg37
(lp646
Vgyro-ball
p647
aVassurance
p648
aVclear-smog
p649
aVbelch
p650
asg43
g12
sg44
Vlevitate
p651
sbasg58
I00
sg59
Vsun-moon
p652
sbag1
(g2
g3
Ntp653
Rp654
(dp655
g7
VVSTeam Aqua Grunt M.png
p656
sg9
VTeam Aqua Grunt
p657
sg11
g12
sg13
V880
p658
sg15
g16
sg17
g18
sg19
g20
sg21
VSM
p659
sg23
(lp660
g1
(g25
g3
Ntp661
Rp662
(dp663
g29
V261
p664
sg31
VPoochyena
p665
sg33
g34
sg35
V22
p666
sg37
(lp667
Vassurance
p668
aVembargo
p669
aVsucker-punch
p670
aVplay-rough
p671
asg43
g12
sg44
Vquick-feet
p672
sbag1
(g25
g3
Ntp673
Rp674
(dp675
g29
V088
p676
sg31
VGrimer
p677
sg33
g34
sg35
V22
p678
sg37
(lp679
Vmud-bomb
p680
aVgunk-shot
p681
aVsludge-wave
p682
aVbelch
p683
asg43
g12
sg44
Vstench
p684
sbasg58
I00
sg59
g652
sbag1
(g2
g3
Ntp685
Rp686
(dp687
g7
VSpr RS Tabitha.png
p688
sg9
VMagma Admin
p689
sg11
VTabitha
p690
sg13
V800
p691
sg15
I3
sg17
g18
sg19
g20
sg21
g22
sg23
(lp692
g1
(g25
g3
Ntp693
Rp694
(dp695
g29
I322
sg31
VNumel 
p696
sg33
g34
sg35
V20
p697
sg37
(lp698
VTackle
p699
aVGrowl
p700
aVEmber
p701
aVMagnitude
p702
asg43
g12
sg44
VOblivious
p703
sbag1
(g25
g3
Ntp704
Rp705
(dp706
g29
I261
sg31
VPoochyena
p707
sg33
g34
sg35
V20
p708
sg37
(lp709
VTackle
p710
aVHowl
p711
aVBite
p712
aVOdor Sleuth
p713
asg43
g12
sg44
VRun Away
p714
sbag1
(g25
g3
Ntp715
Rp716
(dp717
g29
I322
sg31
VNumel 
p718
sg33
g34
sg35
V20
p719
sg37
(lp720
VTackle
p721
aVGrowl
p722
aVEmber
p723
aVMagnitude
p724
asg43
g12
sg44
VOblivious
p725
sbasg58
I01
sg59
g60
sbag1
(g2
g3
Ntp726
Rp727
(dp728
g7
VSpr RS Maxie.png
p729
sg9
VMagma Leader
p730
sg11
VMaxie
p731
sg13
V2000
p732
sg15
I3
sg17
g18
sg19
g20
sg21
g22
sg23
(lp733
g1
(g25
g3
Ntp734
Rp735
(dp736
g29
I262
sg31
VMightyena
p737
sg33
g34
sg35
V24
p738
sg37
(lp739
VSand-Attack
p740
aVBite
p741
aVOdor Sleuth
p742
aVRoar
p743
asg43
g12
sg44
VIntimidate
p744
sbag1
(g25
g3
Ntp745
Rp746
(dp747
g29
I42
sg31
VGolbat
p748
sg33
g34
sg35
V24
p749
sg37
(lp750
VSupersonic
p751
aVAstonish
p752
aVBite
p753
aVWing Attack
p754
asg43
g12
sg44
VInner Focus
p755
sbag1
(g25
g3
Ntp756
Rp757
(dp758
g29
I323
sg31
VCamerupt
p759
sg33
g34
sg35
V25
p760
sg37
(lp761
VTackle
p762
aVFocus Energy
p763
aVEmber
p764
aVMagnitude
p765
asg43
g12
sg44
VMagma Armor
p766
sbasg58
I01
sg59
g60
sbag1
(g2
g3
Ntp767
Rp768
(dp769
g7
VSpr RS Matt.png
p770
sg9
VAqua Admin
p771
sg11
VMatt
p772
sg13
V800
p773
sg15
I3
sg17
g18
sg19
g20
sg21
g22
sg23
(lp774
g1
(g25
g3
Ntp775
Rp776
(dp777
g29
I318
sg31
VCarvanha
p778
sg33
g34
sg35
V20
p779
sg37
(lp780
VBite
p781
aVFocus Energy
p782
aVRage
p783
aVScary Face
p784
asg43
g12
sg44
VRough Skin
p785
sbag1
(g25
g3
Ntp786
Rp787
(dp788
g29
I261
sg31
VPoochyena
p789
sg33
g34
sg35
V20
p790
sg37
(lp791
VTackle
p792
aVHowl
p793
aVBite
p794
aVOdor Sleuth
p795
asg43
g12
sg44
VRun Away
p796
sbag1
(g25
g3
Ntp797
Rp798
(dp799
g29
I318
sg31
VCarvanha
p800
sg33
g34
sg35
V20
p801
sg37
(lp802
VBite
p803
aVFocus Energy
p804
aVRage
p805
aVScary Face
p806
asg43
g12
sg44
VRough Skin
p807
sbasg58
I01
sg59
g60
sbag1
(g2
g3
Ntp808
Rp809
(dp810
g7
VSpr RS Archie.png
p811
sg9
VAqua Leader
p812
sg11
VArchie
p813
sg13
V2000
p814
sg15
I3
sg17
g18
sg19
g20
sg21
g22
sg23
(lp815
g1
(g25
g3
Ntp816
Rp817
(dp818
g29
I262
sg31
VMightyena
p819
sg33
g34
sg35
V24
p820
sg37
(lp821
VTackle
p822
aVHowl
p823
aVSand-Attack
p824
aVBite
p825
asg43
g12
sg44
VIntimidate
p826
sbag1
(g25
g3
Ntp827
Rp828
(dp829
g29
I42
sg31
VGolbat
p830
sg33
g34
sg35
V24
p831
sg37
(lp832
VSupersonic
p833
aVAstonish
p834
aVBite
p835
aVWing Attack
p836
asg43
g12
sg44
VInner Focus
p837
sbag1
(g25
g3
Ntp838
Rp839
(dp840
g29
I319
sg31
VSharpedo
p841
sg33
g34
sg35
V25
p842
sg37
(lp843
VCrunch
p844
aVFocus Energy
p845
aVRage
p846
aVScary Face
p847
asg43
g12
sg44
VRough Skin
p848
sbasg58
I01
sg59
g60
sbag1
(g2
g3
Ntp849
Rp850
(dp851
g7
VSpr RS Tabitha.png
p852
sg9
VMagma Admin
p853
sg11
VTabitha
p854
sg13
V880
p855
sg15
I4
sg17
g18
sg19
g20
sg21
g22
sg23
(lp856
g1
(g25
g3
Ntp857
Rp858
(dp859
g29
I322
sg31
VNumel
p860
sg33
g34
sg35
V18
p861
sg37
(lp862
VGrowl
p863
aVTackle
p864
aVEmber
p865
asg43
g12
sg44
VOblivious
p866
sbag1
(g25
g3
Ntp867
Rp868
(dp869
g29
I261
sg31
VPoochyena
p870
sg33
g34
sg35
V20
p871
sg37
(lp872
VHowl
p873
aVSand-Attack
p874
aVBite
p875
aVOdor Sleuth
p876
asg43
g12
sg44
VRun Away
p877
sbag1
(g25
g3
Ntp878
Rp879
(dp880
g29
I322
sg31
VNumel
p881
sg33
g34
sg35
V22
p882
sg37
(lp883
VGrowl
p884
aVTackle
p885
aVEmber
p886
aVMagnitude
p887
asg43
g12
sg44
VOblivious
p888
sbag1
(g25
g3
Ntp889
Rp890
(dp891
g29
I41
sg31
VZubat
p892
sg33
g34
sg35
V22
p893
sg37
(lp894
VSupersonic
p895
aVAstonish
p896
aVBite
p897
aVWing Attack
p898
asg43
g12
sg44
VInner Focus
p899
sbasg58
I01
sg59
g60
sbag1
(g2
g3
Ntp900
Rp901
(dp902
g7
VSpr RS Maxie.png
p903
sg9
VMagma Leader
p904
sg11
VMaxie
p905
sg13
V2000
p906
sg15
I3
sg17
g18
sg19
g20
sg21
g22
sg23
(lp907
g1
(g25
g3
Ntp908
Rp909
(dp910
g29
I262
sg31
VMightyena
p911
sg33
g34
sg35
V24
p912
sg37
(lp913
VSand-Attack
p914
aVBite
p915
aVOdor Sleuth
p916
aVRoar
p917
asg43
g12
sg44
VIntimidate
p918
sbag1
(g25
g3
Ntp919
Rp920
(dp921
g29
I41
sg31
VZubat
p922
sg33
g34
sg35
V24
p923
sg37
(lp924
VSupersonic
p925
aVAstonish
p926
aVBite
p927
aVWing Attack
p928
asg43
g12
sg44
VInner Focus
p929
sbag1
(g25
g3
Ntp930
Rp931
(dp932
g29
I323
sg31
VCamerupt
p933
sg33
g34
sg35
V25
p934
sg37
(lp935
VTackle
p936
aVEmber
p937
aVMagnitude
p938
aVFocus Energy
p939
asg43
g12
sg44
VMagma Armor
p940
sbasg58
I01
sg59
g60
sbag1
(g2
g3
Ntp941
Rp942
(dp943
g7
VVSTabitha.png
p944
sg9
VMagma Admin
p945
sg11
VTabitha
p946
sg13
V2,400
p947
sg15
I2
sg17
g18
sg19
g20
sg21
VSM
p948
sg23
(lp949
g1
(g25
g3
Ntp950
Rp951
(dp952
g29
I109
sg31
VKoffing
p953
sg33
g34
sg35
V24
p954
sg37
(lp955
VAssurance
p956
aVClear Smog
p957
aVSludge
p958
aVSelf-Destruct
p959
asg43
g12
sg44
VLevitate
p960
sbag1
(g25
g3
Ntp961
Rp962
(dp963
g29
I322
sg31
VNumel
p964
sg33
g34
sg35
V24
p965
sg37
(lp966
VMagnitude
p967
aVFlame Burst
p968
aVAmnesia
p969
aVLava Plume
p970
asg43
g12
sg44
VOblivious
p971
sbasg58
I01
sg59
g652
sbag1
(g2
g3
Ntp972
Rp973
(dp974
g7
VVSMaxie.png
p975
sg9
VMagma Leader
p976
sg11
VMaxie
p977
sg13
V4,320
p978
sg15
I3
sg17
g18
sg19
g20
sg21
g948
sg23
(lp979
g1
(g25
g3
Ntp980
Rp981
(dp982
g29
I262
sg31
VMightyena
p983
sg33
g34
sg35
V25
p984
sg37
(lp985
VRoar
p986
aVSnarl
p987
aVSwagger
p988
aVAssurance
p989
asg43
g12
sg44
VIntimidate
p990
sbag1
(g25
g3
Ntp991
Rp992
(dp993
g29
I42
sg31
VGolbat
p994
sg33
g34
sg35
V25
p995
sg37
(lp996
VWing Attack
p997
aVConfuse Ray
p998
aVAir Cutter
p999
aVSwift
p1000
asg43
g12
sg44
VInner Focus
p1001
sbag1
(g25
g3
Ntp1002
Rp1003
(dp1004
g29
I323
sg31
VCamerupt
p1005
sg33
g34
sg35
V27
p1006
sg37
(lp1007
VFlame Burst
p1008
aVAmnesia
p1009
aVLava Plume
p1010
aVEarth Power
p1011
asg43
g12
sg44
VSolid Rock
p1012
sbasg58
I01
sg59
g652
sbag1
(g2
g3
Ntp1013
Rp1014
(dp1015
g7
VVSShelly.png
p1016
sg9
VAqua Admin
p1017
sg11
VShelly
p1018
sg13
V2,400
p1019
sg15
I2
sg17
g18
sg19
g20
sg21
g948
sg23
(lp1020
g1
(g25
g3
Ntp1021
Rp1022
(dp1023
g29
I88
sg31
VGrimer
p1024
sg33
g106
sg35
V24
p1025
sg37
(lp1026
VDisable
p1027
aVSludge
p1028
aVMud Bomb
p1029
aVMinimize
p1030
asg43
g12
sg44
VSticky Hold
p1031
sbag1
(g25
g3
Ntp1032
Rp1033
(dp1034
g29
I318
sg31
VCarvanha
p1035
sg33
g106
sg35
V24
p1036
sg37
(lp1037
VAqua Jet
p1038
aVAssurance
p1039
aVScreech
p1040
aVSwagger
p1041
asg43
g12
sg44
VRough Skin
p1042
sbasg58
I01
sg59
g652
sbag1
(g2
g3
Ntp1043
Rp1044
(dp1045
g7
VVSArchie.png
p1046
sg9
VAqua Leader
p1047
sg11
VArchie
p1048
sg13
V4,320
p1049
sg15
I3
sg17
g18
sg19
g20
sg21
g948
sg23
(lp1050
g1
(g25
g3
Ntp1051
Rp1052
(dp1053
g29
I262
sg31
VMightyena
p1054
sg33
g34
sg35
V25
p1055
sg37
(lp1056
VRoar
p1057
aVSnarl
p1058
aVSwagger
p1059
aVAssurance
p1060
asg43
g12
sg44
VQuick Feet
p1061
sbag1
(g25
g3
Ntp1062
Rp1063
(dp1064
g29
I42
sg31
VGolbat
p1065
sg33
g34
sg35
V25
p1066
sg37
(lp1067
VWing Attack
p1068
aVConfuse Ray
p1069
aVAir Cutter
p1070
aVSwift
p1071
asg43
g12
sg44
VInner Focus
p1072
sbag1
(g25
g3
Ntp1073
Rp1074
(dp1075
g29
I319
sg31
VSharpedo
p1076
sg33
g34
sg35
V27
p1077
sg37
(lp1078
VAssurance
p1079
aVScreech
p1080
aVSwagger
p1081
aVIce Fang
p1082
asg43
g12
sg44
VRough Skin
p1083
sbasg58
I01
sg59
g652
sba.