(lp0
ccopy_reg
_reconstructor
p1
(c__main__
Trainer
p2
c__builtin__
object
p3
Ntp4
Rp5
(dp6
VtSprite
p7
VSpr GS Red.png\u200e
p8
sVtClass
p9
VPokemon Trainer
p10
sVtName
p11
VRed (game)
p12
sVtMoney
p13
V7700
p14
sVtPokeCount
p15
I6
sVtLocation
p16
Vwiki/Mt._Silver
p17
sVtRegion
p18
VJohto
p19
sVtGame
p20
VGS
p21
sVtPokes
p22
(lp23
g1
(c__main__
FinishedPokemon
p24
g3
Ntp25
Rp26
(dp27
VpDexNo
p28
I25
sVpSpecies
p29
VPikachu
p30
sVpGender
p31
VM
p32
sVpLevel
p33
V81
p34
sVpMoves
p35
(lp36
VCharm
p37
aVQuick Attack
p38
aVThunderbolt
p39
aVThunder
p40
asVpHold
p41
V
p42
sVpAbility
p43
Vstatic
p44
sbag1
(g24
g3
Ntp45
Rp46
(dp47
g28
I196
sg29
VEspeon
p48
sg31
g32
sg33
V73
p49
sg35
(lp50
VMud-Slap
p51
aVSwift
p52
aVReflect
p53
aVPsychic
p54
asg41
g42
sg43
Vsynchronize
p55
sbag1
(g24
g3
Ntp56
Rp57
(dp58
g28
I143
sg29
VSnorlax
p59
sg31
g32
sg33
V75
p60
sg35
(lp61
VAmnesia
p62
aVSnore
p63
aVRest
p64
aVBody Slam
p65
asg41
g42
sg43
Vthick-fat
p66
sbag1
(g24
g3
Ntp67
Rp68
(dp69
g28
I3
sg29
VVenusaur
p70
sg31
g32
sg33
V77
p71
sg35
(lp72
VSunny Day
p73
aVGiga Drain
p74
aVSynthesis
p75
aVSolarBeam
p76
asg41
g42
sg43
Vovergrow
p77
sbag1
(g24
g3
Ntp78
Rp79
(dp80
g28
I6
sg29
VCharizard
p81
sg31
g32
sg33
V77
p82
sg35
(lp83
VFlamethrower
p84
aVWing Attack
p85
aVSlash
p86
aVFire Spin
p87
asg41
g42
sg43
Vblaze
p88
sbag1
(g24
g3
Ntp89
Rp90
(dp91
g28
I9
sg29
VBlastoise
p92
sg31
g32
sg33
V77
p93
sg35
(lp94
VRain Dance
p95
aVBlizzard
p96
aVSurf
p97
aVWhirlpool
p98
asg41
g42
sg43
Vtorrent
p99
sbasVbossFlag
p100
I01
sVtLongGame
p101
Vgold-silver
p102
sbag1
(g2
g3
Ntp103
Rp104
(dp105
g7
VSpr HGSS Red.png
p106
sg9
VPokemon Trainer
p107
sg11
VRed (game)
p108
sg13
V16800
p109
sg15
I6
sg16
g17
sg18
g19
sg20
VHGSS
p110
sg22
(lp111
g1
(g24
g3
Ntp112
Rp113
(dp114
g28
I25
sg29
VPikachu
p115
sg31
g32
sg33
V88
p116
sg35
(lp117
VVolt Tackle
p118
aVIron Tail
p119
aVQuick Attack
p120
aVThunderbolt
p121
asg41
VLight Ball
p122
sg43
VStatic
p123
sbag1
(g24
g3
Ntp124
Rp125
(dp126
g28
I131
sg29
VLapras
p127
sg31
g32
sg33
V80
p128
sg35
(lp129
VBlizzard
p130
aVBrine
p131
aVPsychic
p132
aVBody Slam
p133
asg41
g42
sg43
VShell Armor
p134
sbag1
(g24
g3
Ntp135
Rp136
(dp137
g28
I143
sg29
VSnorlax
p138
sg31
g32
sg33
V82
p139
sg35
(lp140
VShadow Ball
p141
aVCrunch
p142
aVBlizzard
p143
aVGiga Impact
p144
asg41
g42
sg43
VThick Fat
p145
sbag1
(g24
g3
Ntp146
Rp147
(dp148
g28
I3
sg29
VVenusaur
p149
sg31
g32
sg33
V84
p150
sg35
(lp151
VSludge Bomb
p152
aVGiga Drain
p153
aVSleep Powder
p154
aVFrenzy Plant
p155
asg41
g42
sg43
VOvergrow
p156
sbag1
(g24
g3
Ntp157
Rp158
(dp159
g28
I6
sg29
VCharizard
p160
sg31
g32
sg33
V84
p161
sg35
(lp162
VFlare Blitz
p163
aVAir Slash
p164
aVBlast Burn
p165
aVDragon Pulse
p166
asg41
g42
sg43
VBlaze
p167
sbag1
(g24
g3
Ntp168
Rp169
(dp170
g28
I9
sg29
VBlastoise
p171
sg31
g32
sg33
V84
p172
sg35
(lp173
VFocus Blast
p174
aVHydro Cannon
p175
aVBlizzard
p176
aVFlash Cannon
p177
asg41
g42
sg43
VTorrent
p178
sbasg100
I01
sg101
Vheartgold-soulsilver
p179
sba.