(lp0
ccopy_reg
_reconstructor
p1
(c__main__
Trainer
p2
c__builtin__
object
p3
Ntp4
Rp5
(dp6
VtSprite
p7
VSpr DP Galactic Grunt F.png
p8
sVtClass
p9
VGalactic Grunt
p10
sVtName
p11
V
p12
sVtMoney
p13
V1600
p14
sVtPokeCount
p15
V1
p16
sVtLocation
p17
Vwiki/Mt._Coronet
p18
sVtRegion
p19
VSinnoh
p20
sVtGame
p21
VDP
p22
sVtPokes
p23
(lp24
g1
(c__main__
FinishedPokemon
p25
g3
Ntp26
Rp27
(dp28
VpDexNo
p29
V267
p30
sVpSpecies
p31
VBeautifly
p32
sVpGender
p33
VF
p34
sVpLevel
p35
V40
p36
sVpMoves
p37
(lp38
Vattract
p39
aVmorning-sun
p40
aVsilver-wind
p41
aVbug-buzz
p42
asVpHold
p43
g12
sVpAbility
p44
Vswarm
p45
sbasVbossFlag
p46
I00
sVtLongGame
p47
Vdiamond-pearl
p48
sbag1
(g2
g3
Ntp49
Rp50
(dp51
g7
VSpr DP Galactic Grunt M.png
p52
sg9
VGalactic Grunt
p53
sg11
g12
sg13
V1560
p54
sg15
g16
sg17
g18
sg19
g20
sg21
g22
sg23
(lp55
g1
(g25
g3
Ntp56
Rp57
(dp58
g29
V436
p59
sg31
VBronzor
p60
sg33
VU
p61
sg35
V39
p62
sg37
(lp63
Viron-defense
p64
aVgyro-ball
p65
aVpayback
p66
aVheal-block
p67
asg43
g12
sg44
Vlevitate
p68
sbasg46
I00
sg47
g48
sbag1
(g2
g3
Ntp69
Rp70
(dp71
g7
VSpr DP Galactic Grunt M.png
p72
sg9
VGalactic Grunt
p73
sg11
g12
sg13
V1400
p74
sg15
V3
p75
sg17
g18
sg19
g20
sg21
g22
sg23
(lp76
g1
(g25
g3
Ntp77
Rp78
(dp79
g29
V269
p80
sg31
VDustox
p81
sg33
VM
p82
sg35
V35
p83
sg37
(lp84
Vprotect
p85
aVmoonlight
p86
aVsilver-wind
p87
aVbug-buzz
p88
asg43
g12
sg44
Vshield-dust
p89
sbag1
(g25
g3
Ntp90
Rp91
(dp92
g29
V042
p93
sg31
VGolbat
p94
sg33
g82
sg35
V38
p95
sg37
(lp96
Vastonish
p97
ag97
aVair-cutter
p98
aVair-slash
p99
asg43
g12
sg44
Vinner-focus
p100
sbag1
(g25
g3
Ntp101
Rp102
(dp103
g29
V269
p104
sg31
VDustox
p105
sg33
g82
sg35
V35
p106
sg37
(lp107
Vprotect
p108
aVmoonlight
p109
aVsilver-wind
p110
aVbug-buzz
p111
asg43
g12
sg44
Vshield-dust
p112
sbasg46
I00
sg47
g48
sbag1
(g2
g3
Ntp113
Rp114
(dp115
g7
VSpr DP Galactic Grunt M.png
p116
sg9
VGalactic Grunt
p117
sg11
g12
sg13
V1520
p118
sg15
V2
p119
sg17
g18
sg19
g20
sg21
g22
sg23
(lp120
g1
(g25
g3
Ntp121
Rp122
(dp123
g29
V434
p124
sg31
VStunky
p125
sg33
g82
sg35
V38
p126
sg37
(lp127
Vfury-swipes
p128
aVslash
p129
aVmemento
p130
aVnight-slash
p131
asg43
g12
sg44
Vaftermath
p132
sbag1
(g25
g3
Ntp133
Rp134
(dp135
g29
V042
p136
sg31
VGolbat
p137
sg33
g82
sg35
V38
p138
sg37
(lp139
Vastonish
p140
ag140
aVair-cutter
p141
aVair-slash
p142
asg43
g12
sg44
Vinner-focus
p143
sbasg46
I00
sg47
g48
sbag1
(g2
g3
Ntp144
Rp145
(dp146
g7
VSpr DP Galactic Grunt M.png
p147
sg9
VGalactic Grunt
p148
sg11
g12
sg13
V1600
p149
sg15
g16
sg17
g18
sg19
g20
sg21
g22
sg23
(lp150
g1
(g25
g3
Ntp151
Rp152
(dp153
g29
V042
p154
sg31
VGolbat
p155
sg33
g82
sg35
V40
p156
sg37
(lp157
Vastonish
p158
ag158
aVair-cutter
p159
aVair-slash
p160
asg43
g12
sg44
Vinner-focus
p161
sbasg46
I00
sg47
g48
sbag1
(g2
g3
Ntp162
Rp163
(dp164
g7
VSpr DP Galactic Grunt F.png
p165
sg9
VGalactic Grunt
p166
sg11
g12
sg13
V1520
p167
sg15
g75
sg17
g18
sg19
g20
sg21
g22
sg23
(lp168
g1
(g25
g3
Ntp169
Rp170
(dp171
g29
V265
p172
sg31
VWurmple
p173
sg33
g34
sg35
V34
p174
sg37
(lp175
Vtackle
p176
aVpoison-sting
p177
aVstring-shot
p178
asg43
g12
sg44
Vshield-dust
p179
sbag1
(g25
g3
Ntp180
Rp181
(dp182
g29
V266
p183
sg31
VSilcoon
p184
sg33
g34
sg35
V36
p185
sg37
(lp186
Vharden
p187
ag187
asg43
g12
sg44
Vshed-skin
p188
sbag1
(g25
g3
Ntp189
Rp190
(dp191
g29
V267
p192
sg31
VBeautifly
p193
sg33
g34
sg35
V38
p194
sg37
(lp195
Vattract
p196
aVmorning-sun
p197
aVsilver-wind
p198
aVbug-buzz
p199
asg43
g12
sg44
Vswarm
p200
sbasg46
I00
sg47
g48
sbag1
(g2
g3
Ntp201
Rp202
(dp203
g7
VSpr DP Galactic Grunt M.png
p204
sg9
VGalactic Grunt
p205
sg11
g12
sg13
V1520
p206
sg15
g75
sg17
g18
sg19
g20
sg21
g22
sg23
(lp207
g1
(g25
g3
Ntp208
Rp209
(dp210
g29
V453
p211
sg31
VCroagunk
p212
sg33
g82
sg35
V35
p213
sg37
(lp214
Vsucker-punch
p215
aVpoison-jab
p216
aVnasty-plot
p217
aVmud-bomb
p218
asg43
g12
sg44
Vdry-skin
p219
sbag1
(g25
g3
Ntp220
Rp221
(dp222
g29
V434
p223
sg31
VStunky
p224
sg33
g82
sg35
V38
p225
sg37
(lp226
Vfury-swipes
p227
aVslash
p228
aVmemento
p229
aVnight-slash
p230
asg43
g12
sg44
Vaftermath
p231
sbag1
(g25
g3
Ntp232
Rp233
(dp234
g29
V453
p235
sg31
VCroagunk
p236
sg33
g82
sg35
V38
p237
sg37
(lp238
Vsucker-punch
p239
aVpoison-jab
p240
aVnasty-plot
p241
aVmud-bomb
p242
asg43
g12
sg44
Vanticipation
p243
sbasg46
I00
sg47
g48
sbag1
(g2
g3
Ntp244
Rp245
(dp246
g7
VSpr DP Galactic Grunt F.png
p247
sg9
VGalactic Grunt
p248
sg11
g12
sg13
V1520
p249
sg15
g119
sg17
g18
sg19
g20
sg21
g22
sg23
(lp250
g1
(g25
g3
Ntp251
Rp252
(dp253
g29
V436
p254
sg31
VBronzor
p255
sg33
g61
sg35
V38
p256
sg37
(lp257
Viron-defense
p258
aVgyro-ball
p259
aVpayback
p260
aVheal-block
p261
asg43
g12
sg44
Vheatproof
p262
sbag1
(g25
g3
Ntp263
Rp264
(dp265
g29
V431
p266
sg31
VGlameow
p267
sg33
g34
sg35
V38
p268
sg37
(lp269
Vfake-out
p270
aVassist
p271
aVsucker-punch
p272
aVcaptivate
p273
asg43
g12
sg44
Vlimber
p274
sbasg46
I00
sg47
g48
sbag1
(g2
g3
Ntp275
Rp276
(dp277
g7
VSpr DP Galactic Grunt M.png
p278
sg9
VGalactic Grunt
p279
sg11
g12
sg13
V1480
p280
sg15
g119
sg17
g18
sg19
g20
sg21
g22
sg23
(lp281
g1
(g25
g3
Ntp282
Rp283
(dp284
g29
V436
p285
sg31
VBronzor
p286
sg33
g61
sg35
V37
p287
sg37
(lp288
Viron-defense
p289
aVgyro-ball
p290
aVpayback
p291
aVheal-block
p292
asg43
g12
sg44
Vheatproof
p293
sbag1
(g25
g3
Ntp294
Rp295
(dp296
g29
V042
p297
sg31
VGolbat
p298
sg33
g82
sg35
V37
p299
sg37
(lp300
Vastonish
p301
ag301
aVair-cutter
p302
aVair-slash
p303
asg43
g12
sg44
Vinner-focus
p304
sbasg46
I00
sg47
g48
sbag1
(g2
g3
Ntp305
Rp306
(dp307
g7
VSpr DP Galactic Grunt F.png
p308
sg9
VGalactic Grunt
p309
sg11
g12
sg13
V1480
p310
sg15
g75
sg17
g18
sg19
g20
sg21
g22
sg23
(lp311
g1
(g25
g3
Ntp312
Rp313
(dp314
g29
V042
p315
sg31
VGolbat
p316
sg33
g34
sg35
V37
p317
sg37
(lp318
Vastonish
p319
ag319
aVair-cutter
p320
aVair-slash
p321
asg43
g12
sg44
Vinner-focus
p322
sbag1
(g25
g3
Ntp323
Rp324
(dp325
g29
V431
p326
sg31
VGlameow
p327
sg33
g34
sg35
V37
p328
sg37
(lp329
Vfake-out
p330
aVassist
p331
aVsucker-punch
p332
aVcaptivate
p333
asg43
g12
sg44
Vown-tempo
p334
sbag1
(g25
g3
Ntp335
Rp336
(dp337
g29
V436
p338
sg31
VBronzor
p339
sg33
g61
sg35
V37
p340
sg37
(lp341
Viron-defense
p342
aVgyro-ball
p343
aVpayback
p344
aVheal-block
p345
asg43
g12
sg44
Vheatproof
p346
sbasg46
I00
sg47
g48
sbag1
(g2
g3
Ntp347
Rp348
(dp349
g7
VSpr DP Galactic Grunt F.png
p350
sg9
VGalactic Grunt
p351
sg11
g12
sg13
V1720
p352
sg15
g16
sg17
g18
sg19
g20
sg21
g22
sg23
(lp353
g1
(g25
g3
Ntp354
Rp355
(dp356
g29
V434
p357
sg31
VStunky
p358
sg33
g34
sg35
V43
p359
sg37
(lp360
Vfury-swipes
p361
aVslash
p362
aVmemento
p363
aVnight-slash
p364
asg43
g12
sg44
Vstench
p365
sbasg46
I00
sg47
g48
sbag1
(g2
g3
Ntp366
Rp367
(dp368
g7
VSpr DP Galactic Grunt M.png
p369
sg9
VGalactic Grunt
p370
sg11
g12
sg13
V1720
p371
sg15
g16
sg17
g18
sg19
g20
sg21
g22
sg23
(lp372
g1
(g25
g3
Ntp373
Rp374
(dp375
g29
V198
p376
sg31
VMurkrow
p377
sg33
g82
sg35
V43
p378
sg37
(lp379
Vtaunt
p380
aVastonish
p381
aVassurance
p382
aVsucker-punch
p383
asg43
g12
sg44
Vinsomnia
p384
sbasg46
I00
sg47
g48
sbag1
(g2
g3
Ntp385
Rp386
(dp387
g7
VSpr DP Galactic Grunt M.png
p388
sg9
VGalactic Grunt
p389
sg11
g12
sg13
V1600
p390
sg15
g75
sg17
g18
sg19
g20
sg21
g22
sg23
(lp391
g1
(g25
g3
Ntp392
Rp393
(dp394
g29
V228
p395
sg31
VHoundour
p396
sg33
g82
sg35
V40
p397
sg37
(lp398
Vhowl
p399
aVembargo
p400
aVnasty-plot
p401
aVfire-fang
p402
asg43
g12
sg44
Vflash-fire
p403
sbag1
(g25
g3
Ntp404
Rp405
(dp406
g29
V042
p407
sg31
VGolbat
p408
sg33
g82
sg35
V40
p409
sg37
(lp410
Vastonish
p411
ag411
aVair-cutter
p412
aVair-slash
p413
asg43
g12
sg44
Vinner-focus
p414
sbag1
(g25
g3
Ntp415
Rp416
(dp417
g29
V228
p418
sg31
VHoundour
p419
sg33
g82
sg35
V40
p420
sg37
(lp421
Vhowl
p422
aVembargo
p423
aVnasty-plot
p424
aVfire-fang
p425
asg43
g12
sg44
Vflash-fire
p426
sbasg46
I00
sg47
g48
sbag1
(g2
g3
Ntp427
Rp428
(dp429
g7
VSpr DP Galactic Grunt M.png
p430
sg9
VGalactic Grunt
p431
sg11
g12
sg13
V1600
p432
sg15
g119
sg17
g18
sg19
g20
sg21
g22
sg23
(lp433
g1
(g25
g3
Ntp434
Rp435
(dp436
g29
V434
p437
sg31
VStunky
p438
sg33
g82
sg35
V42
p439
sg37
(lp440
Vfury-swipes
p441
aVslash
p442
aVmemento
p443
aVnight-slash
p444
asg43
g12
sg44
Vaftermath
p445
sbag1
(g25
g3
Ntp446
Rp447
(dp448
g29
V042
p449
sg31
VGolbat
p450
sg33
g82
sg35
V40
p451
sg37
(lp452
Vastonish
p453
ag453
aVair-cutter
p454
aVair-slash
p455
asg43
g12
sg44
Vinner-focus
p456
sbasg46
I00
sg47
g48
sbag1
(g2
g3
Ntp457
Rp458
(dp459
g7
VSpr DP Galactic Grunt M.png
p460
sg9
VGalactic Grunt
p461
sg11
g12
sg13
V1720
p462
sg15
g16
sg17
g18
sg19
g20
sg21
g22
sg23
(lp463
g1
(g25
g3
Ntp464
Rp465
(dp466
g29
V042
p467
sg31
VGolbat
p468
sg33
g82
sg35
V43
p469
sg37
(lp470
Vastonish
p471
ag471
aVair-cutter
p472
aVair-slash
p473
asg43
g12
sg44
Vinner-focus
p474
sbasg46
I00
sg47
g48
sbag1
(g2
g3
Ntp475
Rp476
(dp477
g7
VSpr DP Galactic Grunt F.png
p478
sg9
VGalactic Grunt
p479
sg11
g12
sg13
V1560
p480
sg15
g75
sg17
g18
sg19
g20
sg21
g22
sg23
(lp481
g1
(g25
g3
Ntp482
Rp483
(dp484
g29
V198
p485
sg31
VMurkrow
p486
sg33
g34
sg35
V39
p487
sg37
(lp488
Vtaunt
p489
aVastonish
p490
aVassurance
p491
aVsucker-punch
p492
asg43
g12
sg44
Vsuper-luck
p493
sbag1
(g25
g3
Ntp494
Rp495
(dp496
g29
V431
p497
sg31
VGlameow
p498
sg33
g34
sg35
V42
p499
sg37
(lp500
Vfake-out
p501
aVassist
p502
aVsucker-punch
p503
aVcaptivate
p504
asg43
g12
sg44
Vown-tempo
p505
sbag1
(g25
g3
Ntp506
Rp507
(dp508
g29
V198
p509
sg31
VMurkrow
p510
sg33
g34
sg35
V39
p511
sg37
(lp512
Vtaunt
p513
aVastonish
p514
aVassurance
p515
aVsucker-punch
p516
asg43
g12
sg44
Vinsomnia
p517
sbasg46
I00
sg47
g48
sbag1
(g2
g3
Ntp518
Rp519
(dp520
g7
VSpr DP Galactic Grunt M.png
p521
sg9
VGalactic Grunt
p522
sg11
g12
sg13
V1680
p523
sg15
g75
sg17
g18
sg19
g20
sg21
g22
sg23
(lp524
g1
(g25
g3
Ntp525
Rp526
(dp527
g29
V453
p528
sg31
VCroagunk
p529
sg33
g82
sg35
V38
p530
sg37
(lp531
Vsucker-punch
p532
aVpoison-jab
p533
aVnasty-plot
p534
aVmud-bomb
p535
asg43
g12
sg44
Vanticipation
p536
sbag1
(g25
g3
Ntp537
Rp538
(dp539
g29
V453
p540
sg31
VCroagunk
p541
sg33
g82
sg35
V42
p542
sg37
(lp543
Vsucker-punch
p544
aVpoison-jab
p545
aVnasty-plot
p546
aVmud-bomb
p547
asg43
g12
sg44
Vdry-skin
p548
sbag1
(g25
g3
Ntp549
Rp550
(dp551
g29
V434
p552
sg31
VStunky
p553
sg33
g82
sg35
V40
p554
sg37
(lp555
Vfury-swipes
p556
aVslash
p557
aVmemento
p558
aVnight-slash
p559
asg43
g12
sg44
Vstench
p560
sbasg46
I00
sg47
g48
sbag1
(g2
g3
Ntp561
Rp562
(dp563
g7
VSpr DP Galactic Grunt F.png
p564
sg9
VGalactic Grunt
p565
sg11
g12
sg13
V1680
p566
sg15
g119
sg17
g18
sg19
g20
sg21
g22
sg23
(lp567
g1
(g25
g3
Ntp568
Rp569
(dp570
g29
V228
p571
sg31
VHoundour
p572
sg33
g34
sg35
V40
p573
sg37
(lp574
Vhowl
p575
aVembargo
p576
aVnasty-plot
p577
aVfire-fang
p578
asg43
g12
sg44
Vearly-bird
p579
sbag1
(g25
g3
Ntp580
Rp581
(dp582
g29
V431
p583
sg31
VGlameow
p584
sg33
g34
sg35
V42
p585
sg37
(lp586
Vfake-out
p587
aVassist
p588
aVsucker-punch
p589
aVcaptivate
p590
asg43
g12
sg44
Vlimber
p591
sbasg46
I00
sg47
g48
sbag1
(g2
g3
Ntp592
Rp593
(dp594
g7
VSpr DP Galactic Grunt M.png
p595
sg9
VGalactic Grunt
p596
sg11
g12
sg13
V1640
p597
sg15
g119
sg17
g18
sg19
g20
sg21
g22
sg23
(lp598
g1
(g25
g3
Ntp599
Rp600
(dp601
g29
V431
p602
sg31
VGlameow
p603
sg33
g34
sg35
V41
p604
sg37
(lp605
Vfake-out
p606
aVassist
p607
aVsucker-punch
p608
aVcaptivate
p609
asg43
g12
sg44
Vown-tempo
p610
sbag1
(g25
g3
Ntp611
Rp612
(dp613
g29
V042
p614
sg31
VGolbat
p615
sg33
g82
sg35
V41
p616
sg37
(lp617
Vastonish
p618
ag618
aVair-cutter
p619
aVair-slash
p620
asg43
g12
sg44
Vinner-focus
p621
sbasg46
I00
sg47
g48
sbag1
(g2
g3
Ntp622
Rp623
(dp624
g7
VSpr DP Galactic Grunt F.png
p625
sg9
VGalactic Grunt
p626
sg11
g12
sg13
V1640
p627
sg15
g75
sg17
g18
sg19
g20
sg21
g22
sg23
(lp628
g1
(g25
g3
Ntp629
Rp630
(dp631
g29
V042
p632
sg31
VGolbat
p633
sg33
g34
sg35
V39
p634
sg37
(lp635
Vastonish
p636
ag636
aVair-cutter
p637
aVair-slash
p638
asg43
g12
sg44
Vinner-focus
p639
sbag1
(g25
g3
Ntp640
Rp641
(dp642
g29
V453
p643
sg31
VCroagunk
p644
sg33
g34
sg35
V40
p645
sg37
(lp646
Vsucker-punch
p647
aVpoison-jab
p648
aVnasty-plot
p649
aVmud-bomb
p650
asg43
g12
sg44
Vanticipation
p651
sbag1
(g25
g3
Ntp652
Rp653
(dp654
g29
V198
p655
sg31
VMurkrow
p656
sg33
g34
sg35
V41
p657
sg37
(lp658
Vtaunt
p659
aVastonish
p660
aVassurance
p661
aVsucker-punch
p662
asg43
g12
sg44
Vinsomnia
p663
sbasg46
I00
sg47
g48
sba.