(lp0
ccopy_reg
_reconstructor
p1
(c__main__
Trainer
p2
c__builtin__
object
p3
Ntp4
Rp5
(dp6
VtSprite
p7
VSpr BW N.png
p8
sVtClass
p9
VTeam Plasma
p10
sVtName
p11
VN
p12
sVtMoney
p13
V10000
p14
sVtPokeCount
p15
I6
sVtLocation
p16
Vwiki/N%27s_Castle
p17
sVtRegion
p18
VUnova
p19
sVtGame
p20
VBW
p21
sVtPokes
p22
(lp23
g1
(c__main__
FinishedPokemon
p24
g3
Ntp25
Rp26
(dp27
VpDexNo
p28
I644
sVpSpecies
p29
VZekrom
p30
sVpGender
p31
VU
p32
sVpLevel
p33
V52
p34
sVpMoves
p35
(lp36
VFusion Bolt
p37
aVZen Headbutt
p38
aVGiga Impact
p39
aVLight Screen
p40
asVpHold
p41
V
p42
sVpAbility
p43
VTeravolt
p44
sbag1
(g24
g3
Ntp45
Rp46
(dp47
g28
I565
sg29
VCarracosta
p48
sg31
VM
p49
sg33
V50
p50
sg35
(lp51
VStone Edge
p52
aVAqua Jet
p53
aVCrunch
p54
aVWaterfall
p55
asg41
g42
sg43
VSturdy
p56
sbag1
(g24
g3
Ntp57
Rp58
(dp59
g28
I584
sg29
VVanilluxe
p60
sg31
g49
sg33
V50
p61
sg35
(lp62
VBlizzard
p63
aVHail
p64
aVFlash Cannon
p65
aVFrost Breath
p66
asg41
g42
sg43
VIce Body
p67
sbag1
(g24
g3
Ntp68
Rp69
(dp70
g28
I567
sg29
VArcheops
p71
sg31
g49
sg33
V50
p72
sg35
(lp73
VStone Edge
p74
aVAcrobatics
p75
aVDragon Claw
p76
aVCrunch
p77
asg41
g42
sg43
VDefeatist
p78
sbag1
(g24
g3
Ntp79
Rp80
(dp81
g28
I571
sg29
VZoroark
p82
sg31
g49
sg33
V50
p83
sg35
(lp84
VFlamethrower
p85
aVFocus Blast
p86
aVNight Slash
p87
aVRetaliate
p88
asg41
g42
sg43
VIllusion
p89
sbag1
(g24
g3
Ntp90
Rp91
(dp92
g28
I601
sg29
VKlinklang
p93
sg31
g32
sg33
V50
p94
sg35
(lp95
VFlash Cannon
p96
aVMetal Sound
p97
aVHyper Beam
p98
aVThunderbolt
p99
asg41
g42
sg43
VPlus
p100
sbasVbossFlag
p101
I01
sVtLongGame
p102
Vblack-white
p103
sbag1
(g2
g3
Ntp104
Rp105
(dp106
g7
VSpr BW N.png
p107
sg9
VTeam Plasma
p108
sg11
g12
sg13
V10000
p109
sg15
I6
sg16
g17
sg18
g19
sg20
g21
sg22
(lp110
g1
(g24
g3
Ntp111
Rp112
(dp113
g28
I643
sg29
VReshiram
p114
sg31
g32
sg33
V52
p115
sg35
(lp116
VHyper Beam
p117
aVFusion Flare
p118
aVExtrasensory
p119
aVReflect
p120
asg41
g42
sg43
VTurboblaze
p121
sbag1
(g24
g3
Ntp122
Rp123
(dp124
g28
I565
sg29
VCarracosta
p125
sg31
g49
sg33
V50
p126
sg35
(lp127
VStone Edge
p128
aVAqua Jet
p129
aVCrunch
p130
aVWaterfall
p131
asg41
g42
sg43
VSturdy
p132
sbag1
(g24
g3
Ntp133
Rp134
(dp135
g28
I584
sg29
VVanilluxe
p136
sg31
g49
sg33
V50
p137
sg35
(lp138
VBlizzard
p139
aVHail
p140
aVFlash Cannon
p141
aVFrost Breath
p142
asg41
g42
sg43
VIce Body
p143
sbag1
(g24
g3
Ntp144
Rp145
(dp146
g28
I567
sg29
VArcheops
p147
sg31
g49
sg33
V50
p148
sg35
(lp149
VStone Edge
p150
aVAcrobatics
p151
aVDragon Claw
p152
aVCrunch
p153
asg41
g42
sg43
VDefeatist
p154
sbag1
(g24
g3
Ntp155
Rp156
(dp157
g28
I571
sg29
VZoroark
p158
sg31
g49
sg33
V50
p159
sg35
(lp160
VFlamethrower
p161
aVFocus Blast
p162
aVNight Slash
p163
aVRetaliate
p164
asg41
g42
sg43
VIllusion
p165
sbag1
(g24
g3
Ntp166
Rp167
(dp168
g28
I601
sg29
VKlinklang
p169
sg31
g32
sg33
V50
p170
sg35
(lp171
VFlash Cannon
p172
aVMetal Sound
p173
aVHyper Beam
p174
aVThunderbolt
p175
asg41
g42
sg43
VPlus
p176
sbasg101
I01
sg102
g103
sbag1
(g2
g3
Ntp177
Rp178
(dp179
g7
VSpr BW Ghetsis.png
p180
sg9
VTeam Plasma
p181
sg11
VGhetsis
p182
sg13
V9720
p183
sg15
I6
sg16
g17
sg18
g19
sg20
g21
sg22
(lp184
g1
(g24
g3
Ntp185
Rp186
(dp187
g28
I563
sg29
VCofagrigus
p188
sg31
g49
sg33
V52
p189
sg35
(lp190
VToxic
p191
aVShadow Ball
p192
aVProtect
p193
aVPsychic
p194
asg41
g42
sg43
VMummy
p195
sbag1
(g24
g3
Ntp196
Rp197
(dp198
g28
I626
sg29
VBouffalant
p199
sg31
g49
sg33
V52
p200
sg35
(lp201
VHead Charge
p202
aVWild Charge
p203
aVEarthquake
p204
aVPoison Jab
p205
asg41
g42
sg43
VReckless
p206
sbag1
(g24
g3
Ntp207
Rp208
(dp209
g28
I625
sg29
VBisharp
p210
sg31
g49
sg33
V52
p211
sg35
(lp212
VNight Slash
p213
aVStone Edge
p214
aVX-Scissor
p215
aVMetal Burst
p216
asg41
g42
sg43
VDefiant
p217
sbag1
(g24
g3
Ntp218
Rp219
(dp220
g28
I537
sg29
VSeismitoad
p221
sg31
g49
sg33
V52
p222
sg35
(lp223
VMuddy Water
p224
aVRain Dance
p225
aVEarthquake
p226
aVSludge Wave
p227
asg41
g42
sg43
VSwift Swim
p228
sbag1
(g24
g3
Ntp229
Rp230
(dp231
g28
I604
sg29
VEelektross
p232
sg31
g49
sg33
V52
p233
sg35
(lp234
VCrunch
p235
aVFlamethrower
p236
aVAcrobatics
p237
aVWild Charge
p238
asg41
g42
sg43
VLevitate
p239
sbag1
(g24
g3
Ntp240
Rp241
(dp242
g28
I635
sg29
VHydreigon
p243
sg31
g49
sg33
V54
p244
sg35
(lp245
VDragon Pulse
p246
aVFire Blast
p247
aVSurf
p248
aVFocus Blast
p249
asg41
g42
sg43
VLevitate
p250
sbasg101
I01
sg102
g103
sbag1
(g2
g3
Ntp251
Rp252
(dp253
g7
VSpr B2W2 N.png
p254
sg9
VPokemon Trainer
p255
sg11
g12
sg13
g1
(cmwparserfromhell.wikicode
Wikicode
p256
g3
Ntp257
Rp258
(dp259
V_nodes
p260
g1
(cmwparserfromhell.smart_list.smart_list
SmartList
p261
c__builtin__
list
p262
(lp263
g1
(cmwparserfromhell.nodes.text
Text
p264
g3
Ntp265
Rp266
(dp267
V_value
p268
V14000
p269
sbatp270
Rp271
(dp272
V_children
p273
(dp274
sbsbsg15
I1
sg16
g17
sg18
g19
sg20
VB2W2
p275
sg22
(lp276
g1
(g24
g3
Ntp277
Rp278
(dp279
g28
I644
sg29
VZekrom
p280
sg31
g32
sg33
g1
(g256
g3
Ntp281
Rp282
(dp283
g260
g1
(g261
g262
(lp284
g1
(g264
g3
Ntp285
Rp286
(dp287
g268
V70
p288
sbatp289
Rp290
(dp291
g273
(dp292
sbsbsg35
(lp293
VFusion Bolt
p294
aVImprison
p295
aVDragon Claw
p296
aVZen Headbutt
p297
asg41
g42
sg43
VTeravolt
p298
sbasg101
I01
sg102
Vblack-2-white-2
p299
sbag1
(g2
g3
Ntp300
Rp301
(dp302
g7
VSpr B2W2 N.png
p303
sg9
VPokemon Trainer
p304
sg11
g12
sg13
g1
(g256
g3
Ntp305
Rp306
(dp307
g260
g1
(g261
g262
(lp308
g1
(g264
g3
Ntp309
Rp310
(dp311
g268
V14000
p312
sbatp313
Rp314
(dp315
g273
(dp316
sbsbsg15
I1
sg16
g17
sg18
g19
sg20
g275
sg22
(lp317
g1
(g24
g3
Ntp318
Rp319
(dp320
g28
I643
sg29
VReshiram
p321
sg31
g32
sg33
g1
(g256
g3
Ntp322
Rp323
(dp324
g260
g1
(g261
g262
(lp325
g1
(g264
g3
Ntp326
Rp327
(dp328
g268
V70
p329
sbatp330
Rp331
(dp332
g273
(dp333
sbsbsg35
(lp334
VFusion Flare
p335
aVImprison
p336
aVDragon Pulse
p337
aVExtrasensory
p338
asg41
g42
sg43
VTurboblaze
p339
sbasg101
I01
sg102
g299
sbag1
(g2
g3
Ntp340
Rp341
(dp342
g7
VSpr B2W2 N.png
p343
sg9
VPokemon Trainer
p344
sg11
g12
sg13
g1
(g256
g3
Ntp345
Rp346
(dp347
g260
g1
(g261
g262
(lp348
g1
(g264
g3
Ntp349
Rp350
(dp351
g268
V15000
p352
sbatp353
Rp354
(dp355
g273
(dp356
sbsbsg15
I6
sg16
g17
sg18
g19
sg20
g275
sg22
(lp357
g1
(g24
g3
Ntp358
Rp359
(dp360
g28
I186
sg29
VPolitoed
p361
sg31
g49
sg33
g1
(g256
g3
Ntp362
Rp363
(dp364
g260
g1
(g261
g262
(lp365
g1
(g264
g3
Ntp366
Rp367
(dp368
g268
V77
p369
sbatp370
Rp371
(dp372
g273
(dp373
sbsbsg35
(lp374
VHypnosis
p375
aVPsychic
p376
aVFocus Blast
p377
aVHydro Pump
p378
asg41
VLife Orb
p379
sg43
VDrizzle
p380
sbag1
(g24
g3
Ntp381
Rp382
(dp383
g28
I171
sg29
VLanturn
p384
sg31
g49
sg33
g1
(g256
g3
Ntp385
Rp386
(dp387
g260
g1
(g261
g262
(lp388
g1
(g264
g3
Ntp389
Rp390
(dp391
g268
V75
p392
sbatp393
Rp394
(dp395
g273
(dp396
sbsbsg35
(lp397
VStockpile
p398
aVSignal Beam
p399
aVThunder
p400
aVHydro Pump
p401
asg41
g42
sg43
VVolt Absorb
p402
sbag1
(g24
g3
Ntp403
Rp404
(dp405
g28
I73
sg29
VTentacruel
p406
sg31
g49
sg33
g1
(g256
g3
Ntp407
Rp408
(dp409
g260
g1
(g261
g262
(lp410
g1
(g264
g3
Ntp411
Rp412
(dp413
g268
V75
p414
sbatp415
Rp416
(dp417
g273
(dp418
sbsbsg35
(lp419
VRain Dance
p420
aVGiga Drain
p421
aVBarrier
p422
aVScald
p423
asg41
VDamp Rock
p424
sg43
VClear Body
p425
sbag1
(g24
g3
Ntp426
Rp427
(dp428
g28
I139
sg29
VOmastar
p429
sg31
g49
sg33
g1
(g256
g3
Ntp430
Rp431
(dp432
g260
g1
(g261
g262
(lp433
g1
(g264
g3
Ntp434
Rp435
(dp436
g268
V75
p437
sbatp438
Rp439
(dp440
g273
(dp441
sbsbsg35
(lp442
VRain Dance
p443
aVIce Beam
p444
aVEarth Power
p445
aVHydro Pump
p446
asg41
VDamp Rock
p447
sg43
VSwift Swim
p448
sbag1
(g24
g3
Ntp449
Rp450
(dp451
g28
I141
sg29
VKabutops
p452
sg31
g49
sg33
g1
(g256
g3
Ntp453
Rp454
(dp455
g260
g1
(g261
g262
(lp456
g1
(g264
g3
Ntp457
Rp458
(dp459
g268
V75
p460
sbatp461
Rp462
(dp463
g273
(dp464
sbsbsg35
(lp465
VStone Edge
p466
aVLow Kick
p467
aVX-Scissor
p468
aVAqua Jet
p469
asg41
g42
sg43
VSwift Swim
p470
sbag1
(g24
g3
Ntp471
Rp472
(dp473
g28
I121
sg29
VStarmie
p474
sg31
g32
sg33
g1
(g256
g3
Ntp475
Rp476
(dp477
g260
g1
(g261
g262
(lp478
g1
(g264
g3
Ntp479
Rp480
(dp481
g268
V75
p482
sbatp483
Rp484
(dp485
g273
(dp486
sbsbsg35
(lp487
VThunder
p488
aVIce Beam
p489
aVPsychic
p490
aVHydro Pump
p491
asg41
g42
sg43
VNatural Cure
p492
sbasg101
I01
sg102
g299
sbag1
(g2
g3
Ntp493
Rp494
(dp495
g7
VSpr B2W2 N.png
p496
sg9
VPokemon Trainer
p497
sg11
g12
sg13
g1
(g256
g3
Ntp498
Rp499
(dp500
g260
g1
(g261
g262
(lp501
g1
(g264
g3
Ntp502
Rp503
(dp504
g268
V15000
p505
sbatp506
Rp507
(dp508
g273
(dp509
sbsbsg15
I6
sg16
g17
sg18
g19
sg20
g275
sg22
(lp510
g1
(g24
g3
Ntp511
Rp512
(dp513
g28
I38
sg29
VNinetales
p514
sg31
VF
p515
sg33
g1
(g256
g3
Ntp516
Rp517
(dp518
g260
g1
(g261
g262
(lp519
g1
(g264
g3
Ntp520
Rp521
(dp522
g268
V77
p523
sbatp524
Rp525
(dp526
g273
(dp527
sbsbsg35
(lp528
VConfuse Ray
p529
aVSolarBeam
p530
aVFoul Play
p531
aVFire Blast
p532
asg41
VLife Orb
p533
sg43
VDrought
p534
sbag1
(g24
g3
Ntp535
Rp536
(dp537
g28
I59
sg29
VArcanine
p538
sg31
g49
sg33
g1
(g256
g3
Ntp539
Rp540
(dp541
g260
g1
(g261
g262
(lp542
g1
(g264
g3
Ntp543
Rp544
(dp545
g268
V75
p546
sbatp547
Rp548
(dp549
g273
(dp550
sbsbsg35
(lp551
VExtremeSpeed
p552
aVWild Charge
p553
aVOutrage
p554
aVOverheat
p555
asg41
g42
sg43
VIntimidate
p556
sbag1
(g24
g3
Ntp557
Rp558
(dp559
g28
I78
sg29
VRapidash
p560
sg31
g49
sg33
g1
(g256
g3
Ntp561
Rp562
(dp563
g260
g1
(g261
g262
(lp564
g1
(g264
g3
Ntp565
Rp566
(dp567
g268
V75
p568
sbatp569
Rp570
(dp571
g273
(dp572
sbsbsg35
(lp573
VDrill Run
p574
aVSolarBeam
p575
aVMegahorn
p576
aVFlare Blitz
p577
asg41
g42
sg43
VFlash Fire
p578
sbag1
(g24
g3
Ntp579
Rp580
(dp581
g28
I275
sg29
VShiftry
p582
sg31
g49
sg33
g1
(g256
g3
Ntp583
Rp584
(dp585
g260
g1
(g261
g262
(lp586
g1
(g264
g3
Ntp587
Rp588
(dp589
g268
V75
p590
sbatp591
Rp592
(dp593
g273
(dp594
sbsbsg35
(lp595
VFocus Blast
p596
aVSolarBeam
p597
aVSunny Day
p598
aVDark Pulse
p599
asg41
VHeat Rock
p600
sg43
VChlorophyll
p601
sbag1
(g24
g3
Ntp602
Rp603
(dp604
g28
I291
sg29
VNinjask
p605
sg31
g49
sg33
g1
(g256
g3
Ntp606
Rp607
(dp608
g260
g1
(g261
g262
(lp609
g1
(g264
g3
Ntp610
Rp611
(dp612
g268
V75
p613
sbatp614
Rp615
(dp616
g273
(dp617
sbsbsg35
(lp618
VProtect
p619
aVSolarBeam
p620
aVSunny Day
p621
aVX-Scissor
p622
asg41
VHeat Rock
p623
sg43
VSpeed Boost
p624
sbag1
(g24
g3
Ntp625
Rp626
(dp627
g28
I470
sg29
VLeafeon
p628
sg31
g515
sg33
g1
(g256
g3
Ntp629
Rp630
(dp631
g260
g1
(g261
g262
(lp632
g1
(g264
g3
Ntp633
Rp634
(dp635
g268
V75
p636
sbatp637
Rp638
(dp639
g273
(dp640
sbsbsg35
(lp641
VAttract
p642
aVIron Tail
p643
aVLeaf Blade
p644
aVX-Scissor
p645
asg41
g42
sg43
VLeaf Guard
p646
sbasg101
I01
sg102
g299
sbag1
(g2
g3
Ntp647
Rp648
(dp649
g7
VSpr B2W2 N.png
p650
sg9
VPokemon Trainer
p651
sg11
g12
sg13
g1
(g256
g3
Ntp652
Rp653
(dp654
g260
g1
(g261
g262
(lp655
g1
(g264
g3
Ntp656
Rp657
(dp658
g268
V15000
p659
sbatp660
Rp661
(dp662
g273
(dp663
sbsbsg15
I6
sg16
g17
sg18
g19
sg20
g275
sg22
(lp664
g1
(g24
g3
Ntp665
Rp666
(dp667
g28
I450
sg29
VHippowdon
p668
sg31
g49
sg33
g1
(g256
g3
Ntp669
Rp670
(dp671
g260
g1
(g261
g262
(lp672
g1
(g264
g3
Ntp673
Rp674
(dp675
g268
V77
p676
sbatp677
Rp678
(dp679
g273
(dp680
sbsbsg35
(lp681
VCrunch
p682
aVSuperpower
p683
aVStone Edge
p684
aVStealth Rock
p685
asg41
VLife Orb
p686
sg43
VSand Stream
p687
sbag1
(g24
g3
Ntp688
Rp689
(dp690
g28
I423
sg29
VGastrodon
p691
sg31
g49
sg33
g1
(g256
g3
Ntp692
Rp693
(dp694
g260
g1
(g261
g262
(lp695
g1
(g264
g3
Ntp696
Rp697
(dp698
g268
V75
p699
sbatp700
Rp701
(dp702
g273
(dp703
sbsbsg35
(lp704
VSandstorm
p705
aVIce Beam
p706
aVMuddy Water
p707
aVEarth Power
p708
asg41
VSmooth Rock
p709
sg43
VStorm Drain
p710
sbag1
(g24
g3
Ntp711
Rp712
(dp713
g28
I346
sg29
VCradily
p714
sg31
g49
sg33
g1
(g256
g3
Ntp715
Rp716
(dp717
g260
g1
(g261
g262
(lp718
g1
(g264
g3
Ntp719
Rp720
(dp721
g268
V75
p722
sbatp723
Rp724
(dp725
g273
(dp726
sbsbsg35
(lp727
VSandstorm
p728
aVGiga Drain
p729
aVConfuse Ray
p730
aVStockpile
p731
asg41
VSmooth Rock
p732
sg43
VSuction Cups
p733
sbag1
(g24
g3
Ntp734
Rp735
(dp736
g28
I348
sg29
VArmaldo
p737
sg31
g49
sg33
g1
(g256
g3
Ntp738
Rp739
(dp740
g260
g1
(g261
g262
(lp741
g1
(g264
g3
Ntp742
Rp743
(dp744
g268
V75
p745
sbatp746
Rp747
(dp748
g273
(dp749
sbsbsg35
(lp750
VAqua Tail
p751
aVX-Scissor
p752
aVRock Slide
p753
aVRock Polish
p754
asg41
g42
sg43
VBattle Armor
p755
sbag1
(g24
g3
Ntp756
Rp757
(dp758
g28
I212
sg29
VScizor
p759
sg31
g49
sg33
g1
(g256
g3
Ntp760
Rp761
(dp762
g260
g1
(g261
g262
(lp763
g1
(g264
g3
Ntp764
Rp765
(dp766
g268
V75
p767
sbatp768
Rp769
(dp770
g273
(dp771
sbsbsg35
(lp772
VBullet Punch
p773
aVDouble Hit
p774
aVBug Bite
p775
aVAerial Ace
p776
asg41
g42
sg43
VTechnician
p777
sbag1
(g24
g3
Ntp778
Rp779
(dp780
g28
I464
sg29
VRhyperior
p781
sg31
g49
sg33
g1
(g256
g3
Ntp782
Rp783
(dp784
g260
g1
(g261
g262
(lp785
g1
(g264
g3
Ntp786
Rp787
(dp788
g268
V75
p789
sbatp790
Rp791
(dp792
g273
(dp793
sbsbsg35
(lp794
VFire Punch
p795
aVIce Punch
p796
aVEarthquake
p797
aVStone Edge
p798
asg41
g42
sg43
VSolid Rock
p799
sbasg101
I01
sg102
g299
sbag1
(g2
g3
Ntp800
Rp801
(dp802
g7
VSpr B2W2 N.png
p803
sg9
VPokemon Trainer
p804
sg11
g12
sg13
g1
(g256
g3
Ntp805
Rp806
(dp807
g260
g1
(g261
g262
(lp808
g1
(g264
g3
Ntp809
Rp810
(dp811
g268
V15000
p812
sbatp813
Rp814
(dp815
g273
(dp816
sbsbsg15
I6
sg16
g17
sg18
g19
sg20
g275
sg22
(lp817
g1
(g24
g3
Ntp818
Rp819
(dp820
g28
I460
sg29
VAbomasnow
p821
sg31
g49
sg33
g1
(g256
g3
Ntp822
Rp823
(dp824
g260
g1
(g261
g262
(lp825
g1
(g264
g3
Ntp826
Rp827
(dp828
g268
V77
p829
sbatp830
Rp831
(dp832
g273
(dp833
sbsbsg35
(lp834
VEarthquake
p835
aVWood Hammer
p836
aVBlizzard
p837
aVGrassWhistle
p838
asg41
VLife Orb
p839
sg43
VSnow Warning
p840
sbag1
(g24
g3
Ntp841
Rp842
(dp843
g28
I584
sg29
VVanilluxe
p844
sg31
g49
sg33
g1
(g256
g3
Ntp845
Rp846
(dp847
g260
g1
(g261
g262
(lp848
g1
(g264
g3
Ntp849
Rp850
(dp851
g268
V75
p852
sbatp853
Rp854
(dp855
g273
(dp856
sbsbsg35
(lp857
VFlash Cannon
p858
aVSignal Beam
p859
aVBlizzard
p860
aVHail
p861
asg41
VIcy Rock
p862
sg43
VIce Body
p863
sbag1
(g24
g3
Ntp864
Rp865
(dp866
g28
I91
sg29
VCloyster
p867
sg31
g49
sg33
g1
(g256
g3
Ntp868
Rp869
(dp870
g260
g1
(g261
g262
(lp871
g1
(g264
g3
Ntp872
Rp873
(dp874
g268
V75
p875
sbatp876
Rp877
(dp878
g273
(dp879
sbsbsg35
(lp880
VShell Smash
p881
aVHydro Pump
p882
aVIcicle Spear
p883
aVIce Shard
p884
asg41
g42
sg43
VSkill Link
p885
sbag1
(g24
g3
Ntp886
Rp887
(dp888
g28
I473
sg29
VMamoswine
p889
sg31
g49
sg33
g1
(g256
g3
Ntp890
Rp891
(dp892
g260
g1
(g261
g262
(lp893
g1
(g264
g3
Ntp894
Rp895
(dp896
g268
V75
p897
sbatp898
Rp899
(dp900
g273
(dp901
sbsbsg35
(lp902
VEarthquake
p903
aVStone Edge
p904
aVBlizzard
p905
aVIce Shard
p906
asg41
g42
sg43
VSnow Cloak
p907
sbag1
(g24
g3
Ntp908
Rp909
(dp910
g28
I478
sg29
VFroslass
p911
sg31
g515
sg33
g1
(g256
g3
Ntp912
Rp913
(dp914
g260
g1
(g261
g262
(lp915
g1
(g264
g3
Ntp916
Rp917
(dp918
g268
V75
p919
sbatp920
Rp921
(dp922
g273
(dp923
sbsbsg35
(lp924
VPsychic
p925
aVShadow Ball
p926
aVBlizzard
p927
aVHail
p928
asg41
VIcy Rock
p929
sg43
VSnow Cloak
p930
sbag1
(g24
g3
Ntp931
Rp932
(dp933
g28
I471
sg29
VGlaceon
p934
sg31
g515
sg33
g1
(g256
g3
Ntp935
Rp936
(dp937
g260
g1
(g261
g262
(lp938
g1
(g264
g3
Ntp939
Rp940
(dp941
g268
V75
p942
sbatp943
Rp944
(dp945
g273
(dp946
sbsbsg35
(lp947
VAttract
p948
aVShadow Ball
p949
aVBlizzard
p950
aVSignal Beam
p951
asg41
g42
sg43
VSnow Cloak
p952
sbasg101
I01
sg102
g299
sba.