(lp0
ccopy_reg
_reconstructor
p1
(c__main__
Trainer
p2
c__builtin__
object
p3
Ntp4
Rp5
(dp6
VtSprite
p7
VSpr BW School Kid M.png
p8
sVtClass
p9
VSchool Kid
p10
sVtName
p11
VCarter
p12
sVtMoney
p13
V340
p14
sVtPokeCount
p15
V1
p16
sVtLocation
p17
Vwiki/Nacrene_Gym
p18
sVtRegion
p19
VUnova
p20
sVtGame
p21
VBW
p22
sVtPokes
p23
(lp24
g1
(c__main__
FinishedPokemon
p25
g3
Ntp26
Rp27
(dp28
VpDexNo
p29
V504
p30
sVpSpecies
p31
VPatrat
p32
sVpGender
p33
VM
p34
sVpLevel
p35
V17
p36
sVpMoves
p37
(lp38
Vbaton-pass
p39
aVcrunch
p40
aVafter-you
p41
aVwork-up
p42
asVpHold
p43
V
p44
sVpAbility
p45
Vkeen-eye
p46
sbasVbossFlag
p47
I00
sVtLongGame
p48
Vblack-white
p49
sbag1
(g2
g3
Ntp50
Rp51
(dp52
g7
VSpr BW Scientist F.png
p53
sg9
VScientist
p54
sg11
VSatomi<!--Kept name-->
p55
sg13
V816
p56
sg15
g16
sg17
g18
sg19
g20
sg21
g22
sg23
(lp57
g1
(g25
g3
Ntp58
Rp59
(dp60
g29
V507
p61
sg31
VHerdier
p62
sg33
VF
p63
sg35
V17
p64
sg37
(lp65
Vlast-resort
p66
aVgiga-impact
p67
aVretaliate
p68
aVwork-up
p69
asg43
g44
sg45
Vsand-rush
p70
sbasg47
I00
sg48
g49
sbag1
(g2
g3
Ntp71
Rp72
(dp73
g7
VSpr BW School Kid F.png
p74
sg9
VSchool Kid
p75
sg11
VLydia
p76
sg13
V300
p77
sg15
V3
p78
sg17
g18
sg19
g20
sg21
g22
sg23
(lp79
g1
(g25
g3
Ntp80
Rp81
(dp82
g29
V506
p83
sg31
VLillipup
p84
sg33
g63
sg35
V15
p85
sg37
(lp86
Vlast-resort
p87
aVgiga-impact
p88
aVretaliate
p89
aVwork-up
p90
asg43
g44
sg45
Vvital-spirit
p91
sbag1
(g25
g3
Ntp92
Rp93
(dp94
g29
V506
p95
sg31
VLillipup
p96
sg33
g63
sg35
V15
p97
sg37
(lp98
Vlast-resort
p99
aVgiga-impact
p100
aVretaliate
p101
aVwork-up
p102
asg43
g44
sg45
Vvital-spirit
p103
sbag1
(g25
g3
Ntp104
Rp105
(dp106
g29
V506
p107
sg31
VLillipup
p108
sg33
g63
sg35
V15
p109
sg37
(lp110
Vlast-resort
p111
aVgiga-impact
p112
aVretaliate
p113
aVwork-up
p114
asg43
g44
sg45
Vvital-spirit
p115
sbasg47
I00
sg48
g49
sbag1
(g2
g3
Ntp116
Rp117
(dp118
g7
VSpr BW Lenora.png
p119
sg9
VLeader
p120
sg11
VLenora
p121
sg13
V2400
p122
sg15
I2
sg17
g18
sg19
g20
sg21
g22
sg23
(lp123
g1
(g25
g3
Ntp124
Rp125
(dp126
g29
I507
sg31
VHerdier
p127
sg33
g63
sg35
V18
p128
sg37
(lp129
VTake Down
p130
aVBite
p131
aVRetaliate
p132
aVLeer
p133
asg43
g44
sg45
VIntimidate
p134
sbag1
(g25
g3
Ntp135
Rp136
(dp137
g29
I505
sg31
VWatchog
p138
sg33
g63
sg35
V20
p139
sg37
(lp140
VLeer
p141
aVCrunch
p142
aVRetaliate
p143
aVHypnosis
p144
asg43
g44
sg45
VIlluminate
p145
sbasg47
I01
sg48
g49
sba.