(lp0
ccopy_reg
_reconstructor
p1
(c__main__
Trainer
p2
c__builtin__
object
p3
Ntp4
Rp5
(dp6
VtSprite
p7
VSpr BW Lass.png
p8
sVtClass
p9
VLass
p10
sVtName
p11
VDye{{sup/5|B}}
p12
sVtMoney
p13
g1
(cmwparserfromhell.wikicode
Wikicode
p14
g3
Ntp15
Rp16
(dp17
V_nodes
p18
g1
(cmwparserfromhell.smart_list.smart_list
SmartList
p19
c__builtin__
list
p20
(lp21
g1
(cmwparserfromhell.nodes.text
Text
p22
g3
Ntp23
Rp24
(dp25
V_value
p26
V1040
p27
sbatp28
Rp29
(dp30
V_children
p31
(dp32
sbsbsVtPokeCount
p33
V1
p34
sVtLocation
p35
Vwiki/Nacrene_City
p36
sVtRegion
p37
VUnova
p38
sVtGame
p39
VBW
p40
sVtPokes
p41
(lp42
g1
(c__main__
FinishedPokemon
p43
g3
Ntp44
Rp45
(dp46
VpDexNo
p47
V547
p48
sVpSpecies
p49
VWhimsicott
p50
sVpGender
p51
VU
p52
sVpLevel
p53
V65
p54
sVpMoves
p55
(lp56
Vgrowth
p57
aVcotton-spore
p58
aVtailwind
p59
aVhurricane
p60
asVpHold
p61
V
p62
sVpAbility
p63
Vinfiltrator
p64
sbasVbossFlag
p65
I00
sVtLongGame
p66
Vblack-white
p67
sbag1
(g2
g3
Ntp68
Rp69
(dp70
g7
VSpr BW Lass.png
p71
sg9
VLass
p72
sg11
VDye{{sup/5|W}}
p73
sg13
g1
(g14
g3
Ntp74
Rp75
(dp76
g18
g1
(g19
g20
(lp77
g1
(g22
g3
Ntp78
Rp79
(dp80
g26
V1040
p81
sbatp82
Rp83
(dp84
g31
(dp85
sbsbsg33
g34
sg35
g36
sg37
g38
sg39
g40
sg41
(lp86
g1
(g43
g3
Ntp87
Rp88
(dp89
g47
V549
p90
sg49
VLilligant
p91
sg51
VF
p92
sg53
V65
p93
sg55
(lp94
Vpetal-dance
p95
aVsynthesis
p96
aVteeter-dance
p97
aVquiver-dance
p98
asg61
g62
sg63
Vown-tempo
p99
sbasg65
I00
sg66
g67
sbag1
(g2
g3
Ntp100
Rp101
(dp102
g7
VSpr BW N.png
p103
sg9
VPokemon Trainer
p104
sg11
VN
p105
sg13
V1300
p106
sg33
I3
sg35
g36
sg37
g38
sg39
g40
sg41
(lp107
g1
(g43
g3
Ntp108
Rp109
(dp110
g47
I519
sg49
VPidove
p111
sg51
VM
p112
sg53
V13
p113
sg55
(lp114
VGust
p115
aVQuick Attack
p116
aVLeer
p117
aVGrowl
p118
asg61
g62
sg63
VSuper Luck
p119
sbag1
(g43
g3
Ntp120
Rp121
(dp122
g47
I532
sg49
VTimburr
p123
sg51
g112
sg53
V13
p124
sg55
(lp125
VLow Kick
p126
aVFocus Energy
p127
aVBide
p128
aVLeer
p129
asg61
g62
sg63
VGuts
p130
sbag1
(g43
g3
Ntp131
Rp132
(dp133
g47
I535
sg49
VTympole
p134
sg51
g112
sg53
V13
p135
sg55
(lp136
VSupersonic
p137
aVBubbleBeam
p138
aVGrowl
p139
aVRound
p140
asg61
g62
sg63
VSwift Swim
p141
sbasg65
I01
sg66
g67
sba.