(lp0
ccopy_reg
_reconstructor
p1
(c__main__
Trainer
p2
c__builtin__
object
p3
Ntp4
Rp5
(dp6
VtSprite
p7
VSpr BW Lass.png
p8
sVtClass
p9
VLass
p10
sVtName
p11
VMaya
p12
sVtMoney
p13
V400<br>{{color|{{spring color dark}}|<small>Spring only</small>}}
p14
sVtPokeCount
p15
V1
p16
sVtLocation
p17
Vwiki/Nimbasa_City
p18
sVtRegion
p19
VUnova
p20
sVtGame
p21
VBW
p22
sVtPokes
p23
(lp24
g1
(c__main__
FinishedPokemon
p25
g3
Ntp26
Rp27
(dp28
VpDexNo
p29
V574
p30
sVpSpecies
p31
VGothita
p32
sVpGender
p33
VF
p34
sVpLevel
p35
V25
p36
sVpMoves
p37
(lp38
Vheal-block
p39
aVpsyshock
p40
aVtelekinesis
p41
aVmagic-room
p42
asVpHold
p43
V
p44
sVpAbility
p45
Vfrisk
p46
sbasVbossFlag
p47
I00
sVtLongGame
p48
Vblack-white
p49
sbag1
(g2
g3
Ntp50
Rp51
(dp52
g7
VSpr BW Hiker.png
p53
sg9
VHiker
p54
sg11
VAndy
p55
sg13
V800<br>{{color|{{summer color dark}}|<small>Summer only</small>}}
p56
sg15
g16
sg17
g18
sg19
g20
sg21
g22
sg23
(lp57
g1
(g25
g3
Ntp58
Rp59
(dp60
g29
V525
p61
sg31
VBoldore
p62
sg33
VM
p63
sg35
V25
p64
sg37
(lp65
Vpower-gem
p66
aVstone-edge
p67
aVstealth-rock
p68
aVsmack-down
p69
asg43
g44
sg45
Vsturdy
p70
sbasg47
I00
sg48
g49
sbag1
(g2
g3
Ntp71
Rp72
(dp73
g7
VSpr BW Clerk F.png
p74
sg9
VClerk \u2640
p75
sg11
VTrisha
p76
sg13
V1000<br>{{color|{{autumn color dark}}|<small>Autumn only</small>}}
p77
sg15
g16
sg17
g18
sg19
g20
sg21
g22
sg23
(lp78
g1
(g25
g3
Ntp79
Rp80
(dp81
g29
V572
p82
sg31
VMinccino
p83
sg33
g34
sg35
V25
p84
sg37
(lp85
Vcaptivate
p86
aVafter-you
p87
aVechoed-voice
p88
aVtail-slap
p89
asg43
g44
sg45
Vtechnician
p90
sbasg47
I00
sg48
g49
sbag1
(g2
g3
Ntp91
Rp92
(dp93
g7
VSpr BW Preschooler F.png
p94
sg9
VPreschooler
p95
sg11
VWinter
p96
sg13
V96<br>{{color|{{winter color dark}}|<small>Winter only</small>}}
p97
sg15
g16
sg17
g18
sg19
g20
sg21
g22
sg23
(lp98
g1
(g25
g3
Ntp99
Rp100
(dp101
g29
V577
p102
sg31
VSolosis
p103
sg33
g34
sg35
V24
p104
sg37
(lp105
Vsnatch
p106
aVheal-block
p107
aVwonder-room
p108
aVpsyshock
p109
asg43
g44
sg45
Vmagic-guard
p110
sbasg47
I00
sg48
g49
sbag1
(g2
g3
Ntp111
Rp112
(dp113
g7
VSpr BW Dancer.png
p114
sg9
VDancer
p115
sg11
VDirk
p116
sg13
V800<br>{{color|{{spring color dark}}|<small>Spring only</small>}}
p117
sg15
g16
sg17
g18
sg19
g20
sg21
g22
sg23
(lp118
g1
(g25
g3
Ntp119
Rp120
(dp121
g29
V554
p122
sg31
VDarumaka
p123
sg33
g63
sg35
V25
p124
sg37
(lp125
Vflare-blitz
p126
aVfire-fang
p127
aVincinerate
p128
aVwork-up
p129
asg43
g44
sg45
Vhustle
p130
sbasg47
I00
sg48
g49
sbag1
(g2
g3
Ntp131
Rp132
(dp133
g7
VSpr BW Ace Trainer M.png
p134
sg9
VAce Trainer
p135
sg11
VAustin
p136
sg13
V1620<br>{{color|{{summer color dark}}|<small>Summer only</small>}}
p137
sg15
g16
sg17
g18
sg19
g20
sg21
g22
sg23
(lp138
g1
(g25
g3
Ntp139
Rp140
(dp141
g29
V528
p142
sg31
VSwoobat
p143
sg33
g63
sg35
V27
p144
sg37
(lp145
Vassurance
p146
ag146
aVair-slash
p147
aVheart-stamp
p148
asg43
g44
sg45
Vunaware
p149
sbasg47
I00
sg48
g49
sbag1
(g2
g3
Ntp150
Rp151
(dp152
g7
VSpr BW Waitress.png
p153
sg9
VWaitress
p154
sg11
VAurora
p155
sg13
V1000<br>{{color|{{autumn color dark}}|<small>Autumn only</small>}}
p156
sg15
g16
sg17
g18
sg19
g20
sg21
g22
sg23
(lp157
g1
(g25
g3
Ntp158
Rp159
(dp160
g29
V541
p161
sg31
VSwadloon
p162
sg33
g34
sg35
V25
p163
sg37
(lp164
Vstring-shot
p165
aVprotect
p166
aVgrass-whistle
p167
aVbug-bite
p168
asg43
g44
sg45
Vchlorophyll
p169
sbasg47
I00
sg48
g49
sbag1
(g2
g3
Ntp170
Rp171
(dp172
g7
VSpr BW Rich Boy.png
p173
sg9
VRich Boy
p174
sg11
VMartin
p175
sg13
V3840<br>{{color|{{winter color dark}}|<small>Winter only</small>}}
p176
sg15
g16
sg17
g18
sg19
g20
sg21
g22
sg23
(lp177
g1
(g25
g3
Ntp178
Rp179
(dp180
g29
V520
p181
sg31
VTranquill
p182
sg33
g63
sg35
V24
p183
sg37
(lp184
Vair-cutter
p185
aVroost
p186
aVtailwind
p187
aVair-slash
p188
asg43
g44
sg45
Vsuper-luck
p189
sbasg47
I00
sg48
g49
sbag1
(g2
g3
Ntp190
Rp191
(dp192
g7
VSpr B2W2 Lass.png
p193
sg9
VLass
p194
sg11
VPersephone
p195
sg13
g1
(cmwparserfromhell.wikicode
Wikicode
p196
g3
Ntp197
Rp198
(dp199
V_nodes
p200
g1
(cmwparserfromhell.smart_list.smart_list
SmartList
p201
c__builtin__
list
p202
(lp203
g1
(cmwparserfromhell.nodes.text
Text
p204
g3
Ntp205
Rp206
(dp207
V_value
p208
V384
p209
sbatp210
Rp211
(dp212
V_children
p213
(dp214
sbsbsg15
g16
sg17
g18
sg19
g20
sg21
VB2W2
p215
sg23
(lp216
g1
(g25
g3
Ntp217
Rp218
(dp219
g29
V510
p220
sg31
VLiepard
p221
sg33
g34
sg35
V24
p222
sg37
(lp223
Vsucker-punch
p224
aVnight-slash
p225
aVnasty-plot
p226
aVhone-claws
p227
asg43
g44
sg45
Vlimber
p228
sbasg47
I00
sg48
Vblack-2-white-2
p229
sbag1
(g2
g3
Ntp230
Rp231
(dp232
g7
VSpr B2W2 Nursery Aide.png
p233
sg9
VNursery Aide
p234
sg11
VJune
p235
sg13
g1
(g196
g3
Ntp236
Rp237
(dp238
g200
g1
(g201
g202
(lp239
g1
(g204
g3
Ntp240
Rp241
(dp242
g208
V960
p243
sbatp244
Rp245
(dp246
g213
(dp247
sbsbsg15
g16
sg17
g18
sg19
g20
sg21
g215
sg23
(lp248
g1
(g25
g3
Ntp249
Rp250
(dp251
g29
V541
p252
sg31
VSwadloon
p253
sg33
g34
sg35
V24
p254
sg37
(lp255
Vstring-shot
p256
aVprotect
p257
aVgrass-whistle
p258
aVbug-bite
p259
asg43
g44
sg45
Vleaf-guard
p260
sbasg47
I00
sg48
g229
sbag1
(g2
g3
Ntp261
Rp262
(dp263
g7
VSpr B2W2 Clerk F.png
p264
sg9
VClerk \u2640
p265
sg11
VTrisha
p266
sg13
g1
(g196
g3
Ntp267
Rp268
(dp269
g200
g1
(g201
g202
(lp270
g1
(g204
g3
Ntp271
Rp272
(dp273
g208
V960
p274
sbatp275
Rp276
(dp277
g213
(dp278
sbsbsg15
g16
sg17
g18
sg19
g20
sg21
g215
sg23
(lp279
g1
(g25
g3
Ntp280
Rp281
(dp282
g29
V572
p283
sg31
VMinccino
p284
sg33
g34
sg35
V24
p285
sg37
(lp286
Vcaptivate
p287
aVafter-you
p288
aVechoed-voice
p289
aVtail-slap
p290
asg43
g44
sg45
Vcute-charm
p291
sbasg47
I00
sg48
g229
sbag1
(g2
g3
Ntp292
Rp293
(dp294
g7
VSpr B2W2 Beauty.png
p295
sg9
VBeauty
p296
sg11
VDecember
p297
sg13
g1
(g196
g3
Ntp298
Rp299
(dp300
g200
g1
(g201
g202
(lp301
g1
(g204
g3
Ntp302
Rp303
(dp304
g208
V1344
p305
sbatp306
Rp307
(dp308
g213
(dp309
sbsbsg15
g16
sg17
g18
sg19
g20
sg21
g215
sg23
(lp310
g1
(g25
g3
Ntp311
Rp312
(dp313
g29
V180
p314
sg31
VFlaaffy
p315
sg33
g34
sg35
V24
p316
sg37
(lp317
Vpower-gem
p318
aVdischarge
p319
aVelectro-ball
p320
aVcotton-guard
p321
asg43
g44
sg45
Vstatic
p322
sbasg47
I00
sg48
g229
sbag1
(g2
g3
Ntp323
Rp324
(dp325
g7
VSpr B2W2 Dancer.png
p326
sg9
VDancer
p327
sg11
VDirk
p328
sg13
g1
(g196
g3
Ntp329
Rp330
(dp331
g200
g1
(g201
g202
(lp332
g1
(g204
g3
Ntp333
Rp334
(dp335
g208
V768
p336
sbatp337
Rp338
(dp339
g213
(dp340
sbsbsg15
g16
sg17
g18
sg19
g20
sg21
g215
sg23
(lp341
g1
(g25
g3
Ntp342
Rp343
(dp344
g29
V554
p345
sg31
VDarumaka
p346
sg33
g63
sg35
V24
p347
sg37
(lp348
Vflare-blitz
p349
aVfire-fang
p350
aVincinerate
p351
aVwork-up
p352
asg43
g44
sg45
Vhustle
p353
sbasg47
I00
sg48
g229
sbag1
(g2
g3
Ntp354
Rp355
(dp356
g7
VSpr B2W2 Clerk M.png
p357
sg9
VClerk \u2642
p358
sg11
VAugustin
p359
sg13
g1
(g196
g3
Ntp360
Rp361
(dp362
g200
g1
(g201
g202
(lp363
g1
(g204
g3
Ntp364
Rp365
(dp366
g208
V960
p367
sbatp368
Rp369
(dp370
g213
(dp371
sbsbsg15
g16
sg17
g18
sg19
g20
sg21
g215
sg23
(lp372
g1
(g25
g3
Ntp373
Rp374
(dp375
g29
V520
p376
sg31
VTranquill
p377
sg33
g63
sg35
V24
p378
sg37
(lp379
Vair-cutter
p380
aVroost
p381
aVtailwind
p382
aVair-slash
p383
asg43
g44
sg45
Vbig-pecks
p384
sbasg47
I00
sg48
g229
sbag1
(g2
g3
Ntp385
Rp386
(dp387
g7
VSpr B2W2 Hiker.png
p388
sg9
VHiker
p389
sg11
VAndy
p390
sg13
g1
(g196
g3
Ntp391
Rp392
(dp393
g200
g1
(g201
g202
(lp394
g1
(g204
g3
Ntp395
Rp396
(dp397
g208
V768
p398
sbatp399
Rp400
(dp401
g213
(dp402
sbsbsg15
g16
sg17
g18
sg19
g20
sg21
g215
sg23
(lp403
g1
(g25
g3
Ntp404
Rp405
(dp406
g29
V525
p407
sg31
VBoldore
p408
sg33
g63
sg35
V24
p409
sg37
(lp410
Vpower-gem
p411
aVstone-edge
p412
aVstealth-rock
p413
aVsmack-down
p414
asg43
g44
sg45
Vweak-armor
p415
sbasg47
I00
sg48
g229
sbag1
(g2
g3
Ntp416
Rp417
(dp418
g7
VSpr B2W2 Guitarist.png
p419
sg9
VGuitarist
p420
sg11
VJanuary
p421
sg13
g1
(g196
g3
Ntp422
Rp423
(dp424
g200
g1
(g201
g202
(lp425
g1
(g204
g3
Ntp426
Rp427
(dp428
g208
V768
p429
sbatp430
Rp431
(dp432
g213
(dp433
sbsbsg15
g16
sg17
g18
sg19
g20
sg21
g215
sg23
(lp434
g1
(g25
g3
Ntp435
Rp436
(dp437
g29
V544
p438
sg31
VWhirlipede
p439
sg33
g34
sg35
V24
p440
sg37
(lp441
Vrock-climb
p442
aVbug-bite
p443
aVvenoshock
p444
aVsteamroller
p445
asg43
g44
sg45
Vpoison-point
p446
sbasg47
I00
sg48
g229
sbag1
(g2
g3
Ntp447
Rp448
(dp449
g7
VSpr BW Plasma Grunt M.png
p450
sg9
VTeam Plasma Grunt
p451
sg11
g44
sg13
V720
p452
sg15
V2
p453
sg17
g18
sg19
g20
sg21
g22
sg23
(lp454
g1
(g25
g3
Ntp455
Rp456
(dp457
g29
V505
p458
sg31
VWatchog
p459
sg33
g63
sg35
V18
p460
sg37
(lp461
Vbaton-pass
p462
aVcrunch
p463
aVpsych-up
p464
aVafter-you
p465
asg43
g44
sg45
Vkeen-eye
p466
sbag1
(g25
g3
Ntp467
Rp468
(dp469
g29
V568
p470
sg31
VTrubbish
p471
sg33
g63
sg35
V18
p472
sg37
(lp473
Vtoxic-spikes
p474
aVgunk-shot
p475
aVacid-spray
p476
aVclear-smog
p477
asg43
g44
sg45
Vstench
p478
sbasg47
I00
sg48
g49
sbag1
(g2
g3
Ntp479
Rp480
(dp481
g7
VSpr B2W2 Plasma Grunt M.png
p482
sg9
VTeam Plasma Grunt
p483
sg11
g44
sg13
g1
(g196
g3
Ntp484
Rp485
(dp486
g200
g1
(g201
g202
(lp487
g1
(g204
g3
Ntp488
Rp489
(dp490
g208
V1080
p491
sbatp492
Rp493
(dp494
g213
(dp495
sbsbsg15
g16
sg17
g18
sg19
g20
sg21
g215
sg23
(lp496
g1
(g25
g3
Ntp497
Rp498
(dp499
g29
V568
p500
sg31
VTrubbish
p501
sg33
g63
sg35
V27
p502
sg37
(lp503
Vtoxic-spikes
p504
aVgunk-shot
p505
aVacid-spray
p506
aVclear-smog
p507
asg43
g44
sg45
Vstench
p508
sbasg47
I00
sg48
g229
sbag1
(g2
g3
Ntp509
Rp510
(dp511
g7
VSpr B2W2 Plasma Grunt F.png
p512
sg9
VTeam Plasma Grunt
p513
sg11
g44
sg13
g1
(g196
g3
Ntp514
Rp515
(dp516
g200
g1
(g201
g202
(lp517
g1
(g204
g3
Ntp518
Rp519
(dp520
g208
V1080
p521
sbatp522
Rp523
(dp524
g213
(dp525
sbsbsg15
g16
sg17
g18
sg19
g20
sg21
g215
sg23
(lp526
g1
(g25
g3
Ntp527
Rp528
(dp529
g29
V505
p530
sg31
VWatchog
p531
sg33
g34
sg35
V27
p532
sg37
(lp533
Vbaton-pass
p534
aVcrunch
p535
aVpsych-up
p536
aVafter-you
p537
asg43
g44
sg45
Villuminate
p538
sbasg47
I00
sg48
g229
sbag1
(g2
g3
Ntp539
Rp540
(dp541
g7
VSpr BW N.png
p542
sg9
VTeam Plasma
p543
sg11
VN
p544
sg13
V2200
p545
sg15
I4
sg17
g18
sg19
g20
sg21
g22
sg23
(lp546
g1
(g25
g3
Ntp547
Rp548
(dp549
g29
I551
sg31
VSandile
p550
sg33
g63
sg35
V22
p551
sg37
(lp552
VAssurance
p553
aVEmbargo
p554
aVSand Tomb
p555
aVMud-Slap
p556
asg43
g44
sg45
VMoxie
p557
sbag1
(g25
g3
Ntp558
Rp559
(dp560
g29
I559
sg31
VScraggy
p561
sg33
g63
sg35
V22
p562
sg37
(lp563
VSwagger
p564
aVBrick Break
p565
aVHeadbutt
p566
aVFaint Attack
p567
asg43
g44
sg45
VShed Skin
p568
sbag1
(g25
g3
Ntp569
Rp570
(dp571
g29
I554
sg31
VDarumaka
p572
sg33
g63
sg35
V22
p573
sg37
(lp574
VFire Punch
p575
aVHeadbutt
p576
aVFacade
p577
aVUproar
p578
asg43
g44
sg45
VHustle
p579
sbag1
(g25
g3
Ntp580
Rp581
(dp582
g29
I561
sg31
VSigilyph
p583
sg33
g63
sg35
V22
p584
sg37
(lp585
VWhirlwind
p586
aVPsybeam
p587
aVTailwind
p588
aVAir Cutter
p589
asg43
g44
sg45
VMagic Guard
p590
sbasg47
I01
sg48
g49
sbag1
(g2
g3
Ntp591
Rp592
(dp593
g7
VB2W2 Nate Back.png
p594
sg9
VPokemon Trainer
p595
sg11
VNate (game)
p596
sg13
Vn/a
p597
sg15
I2
sg17
g18
sg19
g20
sg21
VSM
p598
sg23
(lp599
g1
(g25
g3
Ntp600
Rp601
(dp602
g29
I502
sg31
VDewott
p603
sg33
g63
sg35
V25
p604
sg37
(lp605
VWater Pulse
p606
aVRazor Shell
p607
aVFury Cutter
p608
aVFocus Energy
p609
asg43
g44
sg45
VTorrent
p610
sbag1
(g25
g3
Ntp611
Rp612
(dp613
g29
I513
sg31
VPansear
p614
sg33
g63
sg35
V23
p615
sg37
(lp616
VFlame Burst
p617
aVBite
p618
aVFury Swipes
p619
aVYawn
p620
asg43
g44
sg45
VGluttony
p621
sbasg47
I01
sg48
Vsun-moon
p622
sbag1
(g2
g3
Ntp623
Rp624
(dp625
g7
VB2W2 Rosa Back.png
p626
sg9
VPokemon Trainer
p627
sg11
VRosa (game)
p628
sg13
Vn/a
p629
sg15
I2
sg17
g18
sg19
g20
sg21
g598
sg23
(lp630
g1
(g25
g3
Ntp631
Rp632
(dp633
g29
I502
sg31
VDewott
p634
sg33
g63
sg35
V25
p635
sg37
(lp636
VWater Pulse
p637
aVRazor Shell
p638
aVFury Cutter
p639
aVFocus Energy
p640
asg43
g44
sg45
VTorrent
p641
sbag1
(g25
g3
Ntp642
Rp643
(dp644
g29
I513
sg31
VPansear
p645
sg33
g63
sg35
V23
p646
sg37
(lp647
VFlame Burst
p648
aVBite
p649
aVFury Swipes
p650
aVYawn
p651
asg43
g44
sg45
VGluttony
p652
sbasg47
I01
sg48
g622
sbag1
(g2
g3
Ntp653
Rp654
(dp655
g7
VB2W2 Nate Back.png
p656
sg9
VPokemon Trainer
p657
sg11
VNate (game)
p658
sg13
Vn/a
p659
sg15
I2
sg17
g18
sg19
g20
sg21
g598
sg23
(lp660
g1
(g25
g3
Ntp661
Rp662
(dp663
g29
I496
sg31
VServine
p664
sg33
g63
sg35
V25
p665
sg37
(lp666
VLeaf Tornado
p667
aVMega Drain
p668
aVLeech Seed
p669
aVGrowth
p670
asg43
g44
sg45
VOvergrow
p671
sbag1
(g25
g3
Ntp672
Rp673
(dp674
g29
I515
sg31
VPanpour
p675
sg33
g63
sg35
V23
p676
sg37
(lp677
VScald
p678
aVBite
p679
aVFury Swipes
p680
aVWater Sport
p681
asg43
g44
sg45
VGluttony
p682
sbasg47
I01
sg48
g622
sbag1
(g2
g3
Ntp683
Rp684
(dp685
g7
VB2W2 Rosa Back.png
p686
sg9
VPokemon Trainer
p687
sg11
VRosa (game)
p688
sg13
Vn/a
p689
sg15
I2
sg17
g18
sg19
g20
sg21
g598
sg23
(lp690
g1
(g25
g3
Ntp691
Rp692
(dp693
g29
I496
sg31
VServine
p694
sg33
g63
sg35
V25
p695
sg37
(lp696
VLeaf Tornado
p697
aVMega Drain
p698
aVLeech Seed
p699
aVGrowth
p700
asg43
g44
sg45
VOvergrow
p701
sbag1
(g25
g3
Ntp702
Rp703
(dp704
g29
I515
sg31
VPanpour
p705
sg33
g63
sg35
V23
p706
sg37
(lp707
VScald
p708
aVBite
p709
aVFury Swipes
p710
aVWater Sport
p711
asg43
g44
sg45
VGluttony
p712
sbasg47
I01
sg48
g622
sbag1
(g2
g3
Ntp713
Rp714
(dp715
g7
VB2W2 Nate Back.png
p716
sg9
VPokemon Trainer
p717
sg11
VNate (game)
p718
sg13
Vn/a
p719
sg15
I2
sg17
g18
sg19
g20
sg21
g598
sg23
(lp720
g1
(g25
g3
Ntp721
Rp722
(dp723
g29
I499
sg31
VPignite
p724
sg33
g63
sg35
V25
p725
sg37
(lp726
VArm Thrust
p727
aVFlame Charge
p728
aVRollout
p729
aVSmog
p730
asg43
g44
sg45
VBlaze
p731
sbag1
(g25
g3
Ntp732
Rp733
(dp734
g29
I511
sg31
VPansage
p735
sg33
g63
sg35
V23
p736
sg37
(lp737
VSeed Bomb
p738
aVBite
p739
aVFury Swipes
p740
aVLeech Seed
p741
asg43
g44
sg45
VGluttony
p742
sbasg47
I01
sg48
g622
sbag1
(g2
g3
Ntp743
Rp744
(dp745
g7
VB2W2 Rosa Back.png
p746
sg9
VPokemon Trainer
p747
sg11
VRosa (game)
p748
sg13
Vn/a
p749
sg15
I2
sg17
g18
sg19
g20
sg21
g598
sg23
(lp750
g1
(g25
g3
Ntp751
Rp752
(dp753
g29
I499
sg31
VPignite
p754
sg33
g63
sg35
V25
p755
sg37
(lp756
VArm Thrust
p757
aVFlame Charge
p758
aVRollout
p759
aVSmog
p760
asg43
g44
sg45
VBlaze
p761
sbag1
(g25
g3
Ntp762
Rp763
(dp764
g29
I511
sg31
VPansage
p765
sg33
g63
sg35
V23
p766
sg37
(lp767
VSeed Bomb
p768
aVBite
p769
aVFury Swipes
p770
aVLeech Seed
p771
asg43
g44
sg45
VGluttony
p772
sbasg47
I01
sg48
g622
sba.