(lp0
ccopy_reg
_reconstructor
p1
(c__main__
Trainer
p2
c__builtin__
object
p3
Ntp4
Rp5
(dp6
VtSprite
p7
VSpr BW Bianca.png
p8
sVtClass
p9
VPokemon Trainer
p10
sVtName
p11
VBianca
p12
sVtMoney
p13
V500
p14
sVtPokeCount
p15
I1
sVtLocation
p16
Vwiki/Nuvema_Town
p17
sVtRegion
p18
VUnova
p19
sVtGame
p20
VBW
p21
sVtPokes
p22
(lp23
g1
(c__main__
FinishedPokemon
p24
g3
Ntp25
Rp26
(dp27
VpDexNo
p28
I501
sVpSpecies
p29
VOshawott
p30
sVpGender
p31
VM
p32
sVpLevel
p33
V5
p34
sVpMoves
p35
(lp36
VTackle
p37
aVTail Whip
p38
asVpHold
p39
V
p40
sVpAbility
p41
VTorrent
p42
sbasVbossFlag
p43
I01
sVtLongGame
p44
Vblack-white
p45
sbag1
(g2
g3
Ntp46
Rp47
(dp48
g7
VSpr BW Cheren.png
p49
sg9
VPokemon Trainer
p50
sg11
VCheren
p51
sg13
V500
p52
sg15
I1
sg16
g17
sg18
g19
sg20
g21
sg22
(lp53
g1
(g24
g3
Ntp54
Rp55
(dp56
g28
I498
sg29
VTepig
p57
sg31
g32
sg33
g34
sg35
(lp58
VTackle
p59
aVTail Whip
p60
asg39
g40
sg41
VBlaze
p61
sbasg43
I01
sg44
g45
sbag1
(g2
g3
Ntp62
Rp63
(dp64
g7
VSpr BW Bianca.png
p65
sg9
VPokemon Trainer
p66
sg11
VBianca
p67
sg13
V500
p68
sg15
I1
sg16
g17
sg18
g19
sg20
g21
sg22
(lp69
g1
(g24
g3
Ntp70
Rp71
(dp72
g28
I495
sg29
VSnivy
p73
sg31
g32
sg33
g34
sg35
(lp74
VTackle
p75
aVLeer
p76
asg39
g40
sg41
VOvergrow
p77
sbasg43
I01
sg44
g45
sbag1
(g2
g3
Ntp78
Rp79
(dp80
g7
VSpr BW Cheren.png
p81
sg9
VPokemon Trainer
p82
sg11
VCheren
p83
sg13
V500
p84
sg15
I1
sg16
g17
sg18
g19
sg20
g21
sg22
(lp85
g1
(g24
g3
Ntp86
Rp87
(dp88
g28
I501
sg29
VOshawott
p89
sg31
g32
sg33
g34
sg35
(lp90
VTackle
p91
aVTail Whip
p92
asg39
g40
sg41
VTorrent
p93
sbasg43
I01
sg44
g45
sbag1
(g2
g3
Ntp94
Rp95
(dp96
g7
VSpr BW Bianca.png
p97
sg9
VPokemon Trainer
p98
sg11
VBianca
p99
sg13
V500
p100
sg15
I1
sg16
g17
sg18
g19
sg20
g21
sg22
(lp101
g1
(g24
g3
Ntp102
Rp103
(dp104
g28
I498
sg29
VTepig
p105
sg31
g32
sg33
g34
sg35
(lp106
VTackle
p107
aVTail Whip
p108
asg39
g40
sg41
VBlaze
p109
sbasg43
I01
sg44
g45
sbag1
(g2
g3
Ntp110
Rp111
(dp112
g7
VSpr BW Cheren.png
p113
sg9
VPokemon Trainer
p114
sg11
VCheren
p115
sg13
V500
p116
sg15
I1
sg16
g17
sg18
g19
sg20
g21
sg22
(lp117
g1
(g24
g3
Ntp118
Rp119
(dp120
g28
I495
sg29
VSnivy
p121
sg31
g32
sg33
g34
sg35
(lp122
VTackle
p123
aVLeer
p124
asg39
g40
sg41
VOvergrow
p125
sbasg43
I01
sg44
g45
sbag1
(g2
g3
Ntp126
Rp127
(dp128
g7
VSpr BW Bianca.png
p129
sg9
VPokemon Trainer
p130
sg11
VBianca
p131
sg13
V6500
p132
sg15
I6
sg16
g17
sg18
g19
sg20
g21
sg22
(lp133
g1
(g24
g3
Ntp134
Rp135
(dp136
g28
I508
sg29
VStoutland
p137
sg31
VF
p138
sg33
V63
p139
sg35
(lp140
VReturn
p141
aVIce Fang
p142
aVSurf
p143
aVWild Charge
p144
asg39
g40
sg41
VIntimidate
p145
sbag1
(g24
g3
Ntp146
Rp147
(dp148
g28
I514
sg29
VSimisear
p149
sg31
g32
sg33
V63
p150
sg35
(lp151
VReturn
p152
aVFlamethrower
p153
aVRock Slide
p154
aVBrick Break
p155
asg39
g40
sg41
VGluttony
p156
sbag1
(g24
g3
Ntp157
Rp158
(dp159
g28
I518
sg29
VMusharna
p160
sg31
g138
sg33
V63
p161
sg35
(lp162
VReturn
p163
aVYawn
p164
aVDream Eater
p165
aVPsychic
p166
asg39
g40
sg41
VSynchronize
p167
sbag1
(g24
g3
Ntp168
Rp169
(dp170
g28
I620
sg29
VMienshao
p171
sg31
g138
sg33
V63
p172
sg35
(lp173
VReturn
p174
aVDrain Punch
p175
aVU-turn
p176
aVFake Out
p177
asg39
g40
sg41
VInner Focus
p178
sbag1
(g24
g3
Ntp179
Rp180
(dp181
g28
I609
sg29
VChandelure
p182
sg31
g138
sg33
V63
p183
sg35
(lp184
VReturn
p185
aVShadow Ball
p186
aVOverheat
p187
aVPsychic
p188
asg39
g40
sg41
VFlash Fire
p189
sbag1
(g24
g3
Ntp190
Rp191
(dp192
g28
I503
sg29
VSamurott
p193
sg31
g32
sg33
V65
p194
sg35
(lp195
VReturn
p196
aVAerial Ace
p197
aVX-Scissor
p198
aVAqua Tail
p199
asg39
g40
sg41
VTorrent
p200
sbasg43
I01
sg44
g45
sbag1
(g2
g3
Ntp201
Rp202
(dp203
g7
VSpr BW Bianca.png
p204
sg9
VPokemon Trainer
p205
sg11
VBianca
p206
sg13
V6500
p207
sg15
I6
sg16
g17
sg18
g19
sg20
g21
sg22
(lp208
g1
(g24
g3
Ntp209
Rp210
(dp211
g28
I508
sg29
VStoutland
p212
sg31
g138
sg33
V63
p213
sg35
(lp214
VReturn
p215
aVIce Fang
p216
aVSurf
p217
aVWild Charge
p218
asg39
g40
sg41
VIntimidate
p219
sbag1
(g24
g3
Ntp220
Rp221
(dp222
g28
I516
sg29
VSimipour
p223
sg31
g32
sg33
V63
p224
sg35
(lp225
VReturn
p226
aVSurf
p227
aVRock Slide
p228
aVBrick Break
p229
asg39
g40
sg41
VGluttony
p230
sbag1
(g24
g3
Ntp231
Rp232
(dp233
g28
I518
sg29
VMusharna
p234
sg31
g138
sg33
V63
p235
sg35
(lp236
VReturn
p237
aVYawn
p238
aVDream Eater
p239
aVPsychic
p240
asg39
g40
sg41
VSynchronize
p241
sbag1
(g24
g3
Ntp242
Rp243
(dp244
g28
I620
sg29
VMienshao
p245
sg31
g138
sg33
V63
p246
sg35
(lp247
VReturn
p248
aVDrain Punch
p249
aVU-turn
p250
aVFake Out
p251
asg39
g40
sg41
VInner Focus
p252
sbag1
(g24
g3
Ntp253
Rp254
(dp255
g28
I609
sg29
VChandelure
p256
sg31
g138
sg33
V63
p257
sg35
(lp258
VReturn
p259
aVShadow Ball
p260
aVOverheat
p261
aVPsychic
p262
asg39
g40
sg41
VFlash Fire
p263
sbag1
(g24
g3
Ntp264
Rp265
(dp266
g28
I497
sg29
VSerperior
p267
sg31
g32
sg33
V65
p268
sg35
(lp269
VReturn
p270
aVLeaf Storm
p271
aVDragon Tail
p272
aVCoil
p273
asg39
g40
sg41
VOvergrow
p274
sbasg43
I01
sg44
g45
sbag1
(g2
g3
Ntp275
Rp276
(dp277
g7
VSpr BW Bianca.png
p278
sg9
VPokemon Trainer
p279
sg11
VBianca
p280
sg13
V6500
p281
sg15
I6
sg16
g17
sg18
g19
sg20
g21
sg22
(lp282
g1
(g24
g3
Ntp283
Rp284
(dp285
g28
I508
sg29
VStoutland
p286
sg31
g138
sg33
V63
p287
sg35
(lp288
VReturn
p289
aVIce Fang
p290
aVSurf
p291
aVWild Charge
p292
asg39
g40
sg41
VIntimidate
p293
sbag1
(g24
g3
Ntp294
Rp295
(dp296
g28
I512
sg29
VSimisage
p297
sg31
g32
sg33
V63
p298
sg35
(lp299
VReturn
p300
aVEnergy Ball
p301
aVRock Slide
p302
aVBrick Break
p303
asg39
g40
sg41
VGluttony
p304
sbag1
(g24
g3
Ntp305
Rp306
(dp307
g28
I518
sg29
VMusharna
p308
sg31
g138
sg33
V63
p309
sg35
(lp310
VReturn
p311
aVYawn
p312
aVDream Eater
p313
aVPsychic
p314
asg39
g40
sg41
VSynchronize
p315
sbag1
(g24
g3
Ntp316
Rp317
(dp318
g28
I620
sg29
VMienshao
p319
sg31
g138
sg33
V63
p320
sg35
(lp321
VReturn
p322
aVDrain Punch
p323
aVU-turn
p324
aVFake Out
p325
asg39
g40
sg41
VInner Focus
p326
sbag1
(g24
g3
Ntp327
Rp328
(dp329
g28
I609
sg29
VChandelure
p330
sg31
g138
sg33
V63
p331
sg35
(lp332
VReturn
p333
aVShadow Ball
p334
aVOverheat
p335
aVPsychic
p336
asg39
g40
sg41
VFlash Fire
p337
sbag1
(g24
g3
Ntp338
Rp339
(dp340
g28
I500
sg29
VEmboar
p341
sg31
g32
sg33
V65
p342
sg35
(lp343
VReturn
p344
aVFlare Blitz
p345
aVBrick Break
p346
aVWild Charge
p347
asg39
g40
sg41
VBlaze
p348
sbasg43
I01
sg44
g45
sba.