(lp0
ccopy_reg
_reconstructor
p1
(c__main__
Trainer
p2
c__builtin__
object
p3
Ntp4
Rp5
(dp6
VtSprite
p7
VSpr RS Team Magma Grunt M.png
p8
sVtClass
p9
VTeam Magma Grunt
p10
sVtName
p11
V
p12
sVtMoney
p13
V300
p14
sVtPokeCount
p15
V1
p16
sVtLocation
p17
Vwiki/Oceanic_Museum
p18
sVtRegion
p19
VHoenn
p20
sVtGame
p21
VRS
p22
sVtPokes
p23
(lp24
g1
(c__main__
FinishedPokemon
p25
g3
Ntp26
Rp27
(dp28
VpDexNo
p29
V322
p30
sVpSpecies
p31
VNumel
p32
sVpGender
p33
VM
p34
sVpLevel
p35
V15
p36
sVpMoves
p37
(lp38
Vearthquake
p39
aVfocus-energy
p40
aVamnesia
p41
aVmagnitude
p42
asVpHold
p43
g12
sVpAbility
p44
Vsimple
p45
sbasVbossFlag
p46
I00
sVtLongGame
p47
Vruby-sapphire
p48
sbag1
(g2
g3
Ntp49
Rp50
(dp51
g7
VSpr RS Team Magma Grunt M.png
p52
sg9
VTeam Magma Grunt
p53
sg11
g12
sg13
V280
p54
sg15
V2
p55
sg17
g18
sg19
g20
sg21
g22
sg23
(lp56
g1
(g25
g3
Ntp57
Rp58
(dp59
g29
V041
p60
sg31
VZubat
p61
sg33
g34
sg35
V14
p62
sg37
(lp63
Vmean-look
p64
aVpoison-fang
p65
aVastonish
p66
aVair-cutter
p67
asg43
g12
sg44
Vinner-focus
p68
sbag1
(g25
g3
Ntp69
Rp70
(dp71
g29
V322
p72
sg31
VNumel
p73
sg33
g34
sg35
V14
p74
sg37
(lp75
Vearthquake
p76
aVfocus-energy
p77
aVamnesia
p78
aVmagnitude
p79
asg43
g12
sg44
Voblivious
p80
sbasg46
I00
sg47
g48
sbag1
(g2
g3
Ntp81
Rp82
(dp83
g7
VSpr RS Team Aqua Grunt M.png
p84
sg9
VTeam Aqua Grunt
p85
sg11
g12
sg13
V300
p86
sg15
g16
sg17
g18
sg19
g20
sg21
g22
sg23
(lp87
g1
(g25
g3
Ntp88
Rp89
(dp90
g29
V318
p91
sg31
VCarvanha
p92
sg33
g34
sg35
V15
p93
sg37
(lp94
Vfocus-energy
p95
aVscary-face
p96
aVswagger
p97
aVcrunch
p98
asg43
g12
sg44
Vrough-skin
p99
sbasg46
I00
sg47
g48
sbag1
(g2
g3
Ntp100
Rp101
(dp102
g7
VSpr RS Team Aqua Grunt M.png
p103
sg9
VTeam Aqua Grunt
p104
sg11
g12
sg13
V280
p105
sg15
g55
sg17
g18
sg19
g20
sg21
g22
sg23
(lp106
g1
(g25
g3
Ntp107
Rp108
(dp109
g29
V041
p110
sg31
VZubat
p111
sg33
g34
sg35
V14
p112
sg37
(lp113
Vmean-look
p114
aVpoison-fang
p115
aVastonish
p116
aVair-cutter
p117
asg43
g12
sg44
Vinner-focus
p118
sbag1
(g25
g3
Ntp119
Rp120
(dp121
g29
V318
p122
sg31
VCarvanha
p123
sg33
g34
sg35
V14
p124
sg37
(lp125
Vfocus-energy
p126
aVscary-face
p127
aVswagger
p128
aVcrunch
p129
asg43
g12
sg44
Vrough-skin
p130
sbasg46
I00
sg47
g48
sbag1
(g2
g3
Ntp131
Rp132
(dp133
g7
VVSTeam Magma Grunt M.png
p134
sg9
VTeam Magma Grunt
p135
sg11
g12
sg13
V640
p136
sg15
g16
sg17
g18
sg19
g20
sg21
VSM
p137
sg23
(lp138
g1
(g25
g3
Ntp139
Rp140
(dp141
g29
V322
p142
sg31
VNumel
p143
sg33
g34
sg35
V16
p144
sg37
(lp145
Vyawn
p146
aVearth-power
p147
aVlava-plume
p148
aVflame-burst
p149
asg43
g12
sg44
Vsimple
p150
sbasg46
I00
sg47
Vsun-moon
p151
sbag1
(g2
g3
Ntp152
Rp153
(dp154
g7
VVSTeam Magma Grunt M.png
p155
sg9
VTeam Magma Grunt
p156
sg11
g12
sg13
V560
p157
sg15
g55
sg17
g18
sg19
g20
sg21
g137
sg23
(lp158
g1
(g25
g3
Ntp159
Rp160
(dp161
g29
V041
p162
sg31
VZubat
p163
sg33
g34
sg35
V14
p164
sg37
(lp165
Vair-cutter
p166
aVair-slash
p167
aVvenoshock
p168
aVquick-guard
p169
asg43
g12
sg44
Vinner-focus
p170
sbag1
(g25
g3
Ntp171
Rp172
(dp173
g29
V322
p174
sg31
VNumel
p175
sg33
g34
sg35
V14
p176
sg37
(lp177
Vyawn
p178
aVearth-power
p179
aVlava-plume
p180
aVflame-burst
p181
asg43
g12
sg44
Voblivious
p182
sbasg46
I00
sg47
g151
sbag1
(g2
g3
Ntp183
Rp184
(dp185
g7
VVSTeam Aqua Grunt M.png
p186
sg9
VTeam Aqua Grunt
p187
sg11
g12
sg13
V640
p188
sg15
g16
sg17
g18
sg19
g20
sg21
VSM
p189
sg23
(lp190
g1
(g25
g3
Ntp191
Rp192
(dp193
g29
V318
p194
sg31
VCarvanha
p195
sg33
g34
sg35
V16
p196
sg37
(lp197
Vpoison-fang
p198
aVassurance
p199
aVice-fang
p200
aVaqua-jet
p201
asg43
g12
sg44
Vrough-skin
p202
sbasg46
I00
sg47
g151
sbag1
(g2
g3
Ntp203
Rp204
(dp205
g7
VVSTeam Aqua Grunt M.png
p206
sg9
VTeam Aqua Grunt
p207
sg11
g12
sg13
V560
p208
sg15
g55
sg17
g18
sg19
g20
sg21
g189
sg23
(lp209
g1
(g25
g3
Ntp210
Rp211
(dp212
g29
V041
p213
sg31
VZubat
p214
sg33
g34
sg35
V14
p215
sg37
(lp216
Vair-cutter
p217
aVair-slash
p218
aVvenoshock
p219
aVquick-guard
p220
asg43
g12
sg44
Vinner-focus
p221
sbag1
(g25
g3
Ntp222
Rp223
(dp224
g29
V318
p225
sg31
VCarvanha
p226
sg33
g34
sg35
V14
p227
sg37
(lp228
Vpoison-fang
p229
aVassurance
p230
aVice-fang
p231
aVaqua-jet
p232
asg43
g12
sg44
Vrough-skin
p233
sbasg46
I00
sg47
g151
sba.