(lp0
ccopy_reg
_reconstructor
p1
(c__main__
Trainer
p2
c__builtin__
object
p3
Ntp4
Rp5
(dp6
VtSprite
p7
VSpr HGSS Beauty.png
p8
sVtClass
p9
VBeauty
p10
sVtName
p11
VCharlotte
p12
sVtMoney
p13
V896
p14
sVtPokeCount
p15
V1
p16
sVtLocation
p17
Vwiki/Olivine_City
p18
sVtRegion
p19
VJohto
p20
sVtGame
p21
VHGSS
p22
sVtPokes
p23
(lp24
g1
(c__main__
FinishedPokemon
p25
g3
Ntp26
Rp27
(dp28
VpDexNo
p29
V182
p30
sVpSpecies
p31
VBellossom
p32
sVpGender
p33
VF
p34
sVpLevel
p35
V16
p36
sVpMoves
p37
(lp38
Vsunny-day
p39
aVmagical-leaf
p40
aVleaf-blade
p41
aVleaf-storm
p42
asVpHold
p43
V
p44
sVpAbility
p45
Vchlorophyll
p46
sbasVbossFlag
p47
I00
sVtLongGame
p48
Vheartgold-soulsilver
p49
sba.