(lp0
ccopy_reg
_reconstructor
p1
(c__main__
Trainer
p2
c__builtin__
object
p3
Ntp4
Rp5
(dp6
VtSprite
p7
VSpr GS Jasmine.png
p8
sVtClass
p9
VLeader
p10
sVtName
p11
VJasmine
p12
sVtMoney
p13
V3500
p14
sVtPokeCount
p15
I3
sVtLocation
p16
Vwiki/Olivine_Gym
p17
sVtRegion
p18
VJohto
p19
sVtGame
p20
VGS
p21
sVtPokes
p22
(lp23
g1
(c__main__
FinishedPokemon
p24
g3
Ntp25
Rp26
(dp27
VpDexNo
p28
I81
sVpSpecies
p29
VMagnemite
p30
sVpGender
p31
VU
p32
sVpLevel
p33
V30
p34
sVpMoves
p35
(lp36
VThunderbolt
p37
aVSupersonic
p38
aVSonicBoom
p39
aVThunder Wave
p40
asVpHold
p41
V
p42
sVpAbility
p43
Vmagnet-pull
p44
sbag1
(g24
g3
Ntp45
Rp46
(dp47
g28
I81
sg29
VMagnemite
p48
sg31
g32
sg33
V30
p49
sg35
(lp50
VThunderbolt
p51
aVSupersonic
p52
aVSonicBoom
p53
aVThunder Wave
p54
asg41
g42
sg43
Vmagnet-pull
p55
sbag1
(g24
g3
Ntp56
Rp57
(dp58
g28
I208
sg29
VSteelix
p59
sg31
VM
p60
sg33
V35
p61
sg35
(lp62
VIron Tail
p63
aVRock Throw
p64
aVSunny Day
p65
aVScreech
p66
asg41
g42
sg43
Vrock-head
p67
sbasVbossFlag
p68
I01
sVtLongGame
p69
Vgold-silver
p70
sbag1
(g2
g3
Ntp71
Rp72
(dp73
g7
VSpr HGSS Jasmine.png
p74
sg9
VLeader
p75
sg11
VJasmine
p76
sg13
V4200
p77
sg15
I3
sg16
g17
sg18
g19
sg20
VHGSS
p78
sg22
(lp79
g1
(g24
g3
Ntp80
Rp81
(dp82
g28
I81
sg29
VMagnemite
p83
sg31
g32
sg33
V30
p84
sg35
(lp85
VThunderbolt
p86
aVSonicBoom
p87
aVSupersonic
p88
aVThunder Wave
p89
asg41
g42
sg43
VMagnet Pull
p90
sbag1
(g24
g3
Ntp91
Rp92
(dp93
g28
I81
sg29
VMagnemite
p94
sg31
g32
sg33
V30
p95
sg35
(lp96
VThunderbolt
p97
aVSonicBoom
p98
aVSupersonic
p99
aVThunder Wave
p100
asg41
g42
sg43
VMagnet Pull
p101
sbag1
(g24
g3
Ntp102
Rp103
(dp104
g28
I208
sg29
VSteelix
p105
sg31
VF
p106
sg33
V35
p107
sg35
(lp108
VIron Tail
p109
aVRock Throw
p110
aVSandstorm
p111
aVScreech
p112
asg41
VSitrus Berry
p113
sg43
VSturdy
p114
sbasg68
I01
sg69
Vheartgold-soulsilver
p115
sba.