(lp0
ccopy_reg
_reconstructor
p1
(c__main__
Trainer
p2
c__builtin__
object
p3
Ntp4
Rp5
(dp6
VtSprite
p7
VSpr BW Ace Trainer M.png
p8
sVtClass
p9
VAce Trainer
p10
sVtName
p11
VWebster
p12
sVtMoney
p13
V2460
p14
sVtPokeCount
p15
V1
p16
sVtLocation
p17
Vwiki/Opelucid_Gym
p18
sVtRegion
p19
VUnova
p20
sVtGame
p21
VBW
p22
sVtPokes
p23
(lp24
g1
(c__main__
FinishedPokemon
p25
g3
Ntp26
Rp27
(dp28
VpDexNo
p29
V611
p30
sVpSpecies
p31
VFraxure
p32
sVpGender
p33
VM
p34
sVpLevel
p35
V41
p36
sVpMoves
p37
(lp38
Vassurance
p39
aVdragon-pulse
p40
aVgiga-impact
p41
aVdual-chop
p42
asVpHold
p43
V
p44
sVpAbility
p45
Vmold-breaker
p46
sbasVbossFlag
p47
I00
sVtLongGame
p48
Vblack-white
p49
sbag1
(g2
g3
Ntp50
Rp51
(dp52
g7
VSpr BW Ace Trainer F.png
p53
sg9
VAce Trainer
p54
sg11
VOlwen
p55
sg13
V2460
p56
sg15
g16
sg17
g18
sg19
g20
sg21
g22
sg23
(lp57
g1
(g25
g3
Ntp58
Rp59
(dp60
g29
V633
p61
sg31
VDeino
p62
sg33
VF
p63
sg35
V41
p64
sg37
(lp65
Vhyper-voice
p66
aVdragon-pulse
p67
aVdragon-rush
p68
aVwork-up
p69
asg43
g44
sg45
Vhustle
p70
sbasg47
I00
sg48
g49
sbag1
(g2
g3
Ntp71
Rp72
(dp73
g7
VSpr BW Ace Trainer M.png
p74
sg9
VAce Trainer
p75
sg11
VJose
p76
sg13
V2400
p77
sg15
V2
p78
sg17
g18
sg19
g20
sg21
g22
sg23
(lp79
g1
(g25
g3
Ntp80
Rp81
(dp82
g29
V611
p83
sg31
VFraxure
p84
sg33
g34
sg35
V40
p85
sg37
(lp86
Vassurance
p87
aVdragon-pulse
p88
aVgiga-impact
p89
aVdual-chop
p90
asg43
g44
sg45
Vmold-breaker
p91
sbag1
(g25
g3
Ntp92
Rp93
(dp94
g29
V611
p95
sg31
VFraxure
p96
sg33
g34
sg35
V40
p97
sg37
(lp98
Vassurance
p99
aVdragon-pulse
p100
aVgiga-impact
p101
aVdual-chop
p102
asg43
g44
sg45
Vrivalry
p103
sbasg47
I00
sg48
g49
sbag1
(g2
g3
Ntp104
Rp105
(dp106
g7
VSpr BW Ace Trainer F.png
p107
sg9
VAce Trainer
p108
sg11
VClara
p109
sg13
V2460
p110
sg15
g16
sg17
g18
sg19
g20
sg21
g22
sg23
(lp111
g1
(g25
g3
Ntp112
Rp113
(dp114
g29
V611
p115
sg31
VFraxure
p116
sg33
g63
sg35
V41
p117
sg37
(lp118
Vassurance
p119
aVdragon-pulse
p120
aVgiga-impact
p121
aVdual-chop
p122
asg43
g44
sg45
Vrivalry
p123
sbasg47
I00
sg48
g49
sbag1
(g2
g3
Ntp124
Rp125
(dp126
g7
VSpr BW Veteran M.png
p127
sg9
VVeteran
p128
sg11
VHugo
p129
sg13
V3360
p130
sg15
g16
sg17
g18
sg19
g20
sg21
g22
sg23
(lp131
g1
(g25
g3
Ntp132
Rp133
(dp134
g29
V621
p135
sg31
VDruddigon
p136
sg33
g34
sg35
V42
p137
sg37
(lp138
Vrock-climb
p139
aVhone-claws
p140
aVchip-away
p141
aVdragon-tail
p142
asg43
g44
sg45
Vrough-skin
p143
sbasg47
I00
sg48
g49
sbag1
(g2
g3
Ntp144
Rp145
(dp146
g7
VSpr BW Ace Trainer M.png
p147
sg9
VAce Trainer
p148
sg11
VTom
p149
sg13
V2340
p150
sg15
V3
p151
sg17
g18
sg19
g20
sg21
g22
sg23
(lp152
g1
(g25
g3
Ntp153
Rp154
(dp155
g29
V633
p156
sg31
VDeino
p157
sg33
g34
sg35
V39
p158
sg37
(lp159
Vhyper-voice
p160
aVdragon-pulse
p161
aVdragon-rush
p162
aVwork-up
p163
asg43
g44
sg45
Vhustle
p164
sbag1
(g25
g3
Ntp165
Rp166
(dp167
g29
V611
p168
sg31
VFraxure
p169
sg33
g34
sg35
V39
p170
sg37
(lp171
Vassurance
p172
aVdragon-pulse
p173
aVgiga-impact
p174
aVdual-chop
p175
asg43
g44
sg45
Vrivalry
p176
sbag1
(g25
g3
Ntp177
Rp178
(dp179
g29
V621
p180
sg31
VDruddigon
p181
sg33
g34
sg35
V39
p182
sg37
(lp183
Vrock-climb
p184
aVhone-claws
p185
aVchip-away
p186
aVdragon-tail
p187
asg43
g44
sg45
Vsheer-force
p188
sbasg47
I00
sg48
g49
sbag1
(g2
g3
Ntp189
Rp190
(dp191
g7
VSpr BW Ace Trainer F.png
p192
sg9
VAce Trainer
p193
sg11
VDara
p194
sg13
V2400
p195
sg15
g78
sg17
g18
sg19
g20
sg21
g22
sg23
(lp196
g1
(g25
g3
Ntp197
Rp198
(dp199
g29
V633
p200
sg31
VDeino
p201
sg33
g63
sg35
V40
p202
sg37
(lp203
Vhyper-voice
p204
aVdragon-pulse
p205
aVdragon-rush
p206
aVwork-up
p207
asg43
g44
sg45
Vhustle
p208
sbag1
(g25
g3
Ntp209
Rp210
(dp211
g29
V621
p212
sg31
VDruddigon
p213
sg33
g63
sg35
V40
p214
sg37
(lp215
Vrock-climb
p216
aVhone-claws
p217
aVchip-away
p218
aVdragon-tail
p219
asg43
g44
sg45
Vsheer-force
p220
sbasg47
I00
sg48
g49
sbag1
(g2
g3
Ntp221
Rp222
(dp223
g7
VSpr BW Veteran F.png
p224
sg9
VVeteran
p225
sg11
VKim
p226
sg13
V3280
p227
sg15
g78
sg17
g18
sg19
g20
sg21
g22
sg23
(lp228
g1
(g25
g3
Ntp229
Rp230
(dp231
g29
V611
p232
sg31
VFraxure
p233
sg33
g63
sg35
V40
p234
sg37
(lp235
Vassurance
p236
aVdragon-pulse
p237
aVgiga-impact
p238
aVdual-chop
p239
asg43
g44
sg45
Vrivalry
p240
sbag1
(g25
g3
Ntp241
Rp242
(dp243
g29
V611
p244
sg31
VFraxure
p245
sg33
g63
sg35
V41
p246
sg37
(lp247
Vassurance
p248
aVdragon-pulse
p249
aVgiga-impact
p250
aVdual-chop
p251
asg43
g44
sg45
Vrivalry
p252
sbasg47
I00
sg48
g49
sbag1
(g2
g3
Ntp253
Rp254
(dp255
g7
VSpr B2W2 Veteran M.png
p256
sg9
VVeteran
p257
sg11
VLucius
p258
sg13
g1
(cmwparserfromhell.wikicode
Wikicode
p259
g3
Ntp260
Rp261
(dp262
V_nodes
p263
g1
(cmwparserfromhell.smart_list.smart_list
SmartList
p264
c__builtin__
list
p265
(lp266
g1
(cmwparserfromhell.nodes.text
Text
p267
g3
Ntp268
Rp269
(dp270
V_value
p271
V3680
p272
sbatp273
Rp274
(dp275
V_children
p276
(dp277
sbsbsg15
g16
sg17
g18
sg19
g20
sg21
VB2W2
p278
sg23
(lp279
g1
(g25
g3
Ntp280
Rp281
(dp282
g29
V611
p283
sg31
VFraxure
p284
sg33
g34
sg35
V46
p285
sg37
(lp286
Vassurance
p287
aVdragon-pulse
p288
aVgiga-impact
p289
aVdual-chop
p290
asg43
g44
sg45
Vrivalry
p291
sbasg47
I00
sg48
Vblack-2-white-2
p292
sbag1
(g2
g3
Ntp293
Rp294
(dp295
g7
VSpr B2W2 Veteran F.png
p296
sg9
VVeteran
p297
sg11
VRhona
p298
sg13
g1
(g259
g3
Ntp299
Rp300
(dp301
g263
g1
(g264
g265
(lp302
g1
(g267
g3
Ntp303
Rp304
(dp305
g271
V3600
p306
sbatp307
Rp308
(dp309
g276
(dp310
sbsbsg15
g78
sg17
g18
sg19
g20
sg21
g278
sg23
(lp311
g1
(g25
g3
Ntp312
Rp313
(dp314
g29
V611
p315
sg31
VFraxure
p316
sg33
g63
sg35
V45
p317
sg37
(lp318
Vassurance
p319
aVdragon-pulse
p320
aVgiga-impact
p321
aVdual-chop
p322
asg43
g44
sg45
Vmold-breaker
p323
sbag1
(g25
g3
Ntp324
Rp325
(dp326
g29
V621
p327
sg31
VDruddigon
p328
sg33
g63
sg35
V45
p329
sg37
(lp330
Vrock-climb
p331
aVhone-claws
p332
aVchip-away
p333
aVdragon-tail
p334
asg43
g44
sg45
Vsheer-force
p335
sbasg47
I00
sg48
g292
sbag1
(g2
g3
Ntp336
Rp337
(dp338
g7
VSpr B2W2 Veteran M.png
p339
sg9
VVeteran
p340
sg11
VJerry
p341
sg13
g1
(g259
g3
Ntp342
Rp343
(dp344
g263
g1
(g264
g265
(lp345
g1
(g267
g3
Ntp346
Rp347
(dp348
g271
V3600
p349
sbatp350
Rp351
(dp352
g276
(dp353
sbsbsg15
g78
sg17
g18
sg19
g20
sg21
g278
sg23
(lp354
g1
(g25
g3
Ntp355
Rp356
(dp357
g29
V611
p358
sg31
VFraxure
p359
sg33
g34
sg35
V45
p360
sg37
(lp361
Vassurance
p362
aVdragon-pulse
p363
aVgiga-impact
p364
aVdual-chop
p365
asg43
g44
sg45
Vrivalry
p366
sbag1
(g25
g3
Ntp367
Rp368
(dp369
g29
V621
p370
sg31
VDruddigon
p371
sg33
g34
sg35
V45
p372
sg37
(lp373
Vrock-climb
p374
aVhone-claws
p375
aVchip-away
p376
aVdragon-tail
p377
asg43
g44
sg45
Vrough-skin
p378
sbasg47
I00
sg48
g292
sbag1
(g2
g3
Ntp379
Rp380
(dp381
g7
VSpr B2W2 Veteran F.png
p382
sg9
VVeteran
p383
sg11
VDenae
p384
sg13
g1
(g259
g3
Ntp385
Rp386
(dp387
g263
g1
(g264
g265
(lp388
g1
(g267
g3
Ntp389
Rp390
(dp391
g271
V3520
p392
sbatp393
Rp394
(dp395
g276
(dp396
sbsbsg15
g151
sg17
g18
sg19
g20
sg21
g278
sg23
(lp397
g1
(g25
g3
Ntp398
Rp399
(dp400
g29
V611
p401
sg31
VFraxure
p402
sg33
g63
sg35
V44
p403
sg37
(lp404
Vassurance
p405
aVdragon-pulse
p406
aVgiga-impact
p407
aVdual-chop
p408
asg43
g44
sg45
Vrivalry
p409
sbag1
(g25
g3
Ntp410
Rp411
(dp412
g29
V621
p413
sg31
VDruddigon
p414
sg33
g63
sg35
V44
p415
sg37
(lp416
Vrock-climb
p417
aVhone-claws
p418
aVchip-away
p419
aVdragon-tail
p420
asg43
g44
sg45
Vsheer-force
p421
sbag1
(g25
g3
Ntp422
Rp423
(dp424
g29
V610
p425
sg31
VAxew
p426
sg33
g63
sg35
V44
p427
sg37
(lp428
Vassurance
p429
aVdragon-pulse
p430
aVgiga-impact
p431
aVdual-chop
p432
asg43
g44
sg45
Vrivalry
p433
sbasg47
I00
sg48
g292
sbag1
(g2
g3
Ntp434
Rp435
(dp436
g7
VSpr B2W2 Veteran M.png
p437
sg9
VVeteran
p438
sg11
VRon
p439
sg13
g1
(g259
g3
Ntp440
Rp441
(dp442
g263
g1
(g264
g265
(lp443
g1
(g267
g3
Ntp444
Rp445
(dp446
g271
V3520
p447
sbatp448
Rp449
(dp450
g276
(dp451
sbsbsg15
g151
sg17
g18
sg19
g20
sg21
g278
sg23
(lp452
g1
(g25
g3
Ntp453
Rp454
(dp455
g29
V611
p456
sg31
VFraxure
p457
sg33
g34
sg35
V44
p458
sg37
(lp459
Vassurance
p460
aVdragon-pulse
p461
aVgiga-impact
p462
aVdual-chop
p463
asg43
g44
sg45
Vmold-breaker
p464
sbag1
(g25
g3
Ntp465
Rp466
(dp467
g29
V621
p468
sg31
VDruddigon
p469
sg33
g34
sg35
V44
p470
sg37
(lp471
Vrock-climb
p472
aVhone-claws
p473
aVchip-away
p474
aVdragon-tail
p475
asg43
g44
sg45
Vrough-skin
p476
sbag1
(g25
g3
Ntp477
Rp478
(dp479
g29
V610
p480
sg31
VAxew
p481
sg33
g34
sg35
V44
p482
sg37
(lp483
Vassurance
p484
aVdragon-pulse
p485
aVgiga-impact
p486
aVdual-chop
p487
asg43
g44
sg45
Vrivalry
p488
sbasg47
I00
sg48
g292
sbag1
(g2
g3
Ntp489
Rp490
(dp491
g7
VSpr BW Drayden.png
p492
sg9
VLeader
p493
sg11
VDrayden
p494
sg13
V5160
p495
sg15
I3
sg17
g18
sg19
g20
sg21
g22
sg23
(lp496
g1
(g25
g3
Ntp497
Rp498
(dp499
g29
I611
sg31
VFraxure
p500
sg33
g34
sg35
V41
p501
sg37
(lp502
VDragon Tail
p503
aVDragon Dance
p504
aVAssurance
p505
aVDragon Rage
p506
asg43
g44
sg45
VRivalry
p507
sbag1
(g25
g3
Ntp508
Rp509
(dp510
g29
I621
sg31
VDruddigon
p511
sg33
g34
sg35
V41
p512
sg37
(lp513
VNight Slash
p514
aVRevenge
p515
aVDragon Tail
p516
aVChip Away
p517
asg43
g44
sg45
VRough Skin
p518
sbag1
(g25
g3
Ntp519
Rp520
(dp521
g29
I612
sg31
VHaxorus
p522
sg33
g34
sg35
V43
p523
sg37
(lp524
VDragon Tail
p525
aVDragon Dance
p526
aVSlash
p527
aVAssurance
p528
asg43
g44
sg45
VRivalry
p529
sbasg47
I01
sg48
g49
sbag1
(g2
g3
Ntp530
Rp531
(dp532
g7
VSpr BW Iris.png
p533
sg9
VLeader
p534
sg11
VIris
p535
sg13
V5160
p536
sg15
I3
sg17
g18
sg19
g20
sg21
g22
sg23
(lp537
g1
(g25
g3
Ntp538
Rp539
(dp540
g29
I611
sg31
VFraxure
p541
sg33
g63
sg35
V41
p542
sg37
(lp543
VDragon Tail
p544
aVDragon Dance
p545
aVAssurance
p546
aVDragon Rage
p547
asg43
g44
sg45
VRivalry
p548
sbag1
(g25
g3
Ntp549
Rp550
(dp551
g29
I621
sg31
VDruddigon
p552
sg33
g63
sg35
V41
p553
sg37
(lp554
VDragon Tail
p555
aVRevenge
p556
aVNight Slash
p557
aVChip Away
p558
asg43
g44
sg45
VSheer Force
p559
sbag1
(g25
g3
Ntp560
Rp561
(dp562
g29
I612
sg31
VHaxorus
p563
sg33
g63
sg35
V43
p564
sg37
(lp565
VDragon Tail
p566
aVDragon Dance
p567
aVSlash
p568
aVAssurance
p569
asg43
g44
sg45
VMold Breaker
p570
sbasg47
I01
sg48
g49
sbag1
(g2
g3
Ntp571
Rp572
(dp573
g7
VSpr B2W2 Drayden.png
p574
sg9
VLeader
p575
sg11
VDrayden
p576
sg13
g1
(g259
g3
Ntp577
Rp578
(dp579
g263
g1
(g264
g265
(lp580
g1
(g267
g3
Ntp581
Rp582
(dp583
g271
V4320
p584
sbatp585
Rp586
(dp587
g276
(dp588
sbsbsg15
I3
sg17
g18
sg19
g20
sg21
g278
sg23
(lp589
g1
(g25
g3
Ntp590
Rp591
(dp592
g29
I621
sg31
VDruddigon
p593
sg33
g34
sg35
g1
(g259
g3
Ntp594
Rp595
(dp596
g263
g1
(g264
g265
(lp597
g1
(g267
g3
Ntp598
Rp599
(dp600
g271
V42
p601
sbatp602
Rp603
(dp604
g276
(dp605
sbsbsg37
(lp606
VRevenge
p607
aVCrunch
p608
aVSlash
p609
aVDragon Tail
p610
asg43
g44
sg45
VSheer Force
p611
sbag1
(g25
g3
Ntp612
Rp613
(dp614
g29
I330
sg31
VFlygon 
p615
sg33
g34
sg35
g1
(g259
g3
Ntp616
Rp617
(dp618
g263
g1
(g264
g265
(lp619
g1
(g267
g3
Ntp620
Rp621
(dp622
g271
V42
p623
sbatp624
Rp625
(dp626
g276
(dp627
sbsbsg37
(lp628
VRock Slide
p629
aVEarth Power
p630
aVCrunch
p631
aVDragon Tail
p632
asg43
g44
sg45
VLevitate
p633
sbag1
(g25
g3
Ntp634
Rp635
(dp636
g29
I612
sg31
VHaxorus
p637
sg33
g34
sg35
g1
(g259
g3
Ntp638
Rp639
(dp640
g263
g1
(g264
g265
(lp641
g1
(g267
g3
Ntp642
Rp643
(dp644
g271
V44
p645
sbatp646
Rp647
(dp648
g276
(dp649
sbsbsg37
(lp650
VDragon Dance
p651
aVDragon Tail
p652
aVSlash
p653
aVAssurance
p654
asg43
VSitrus Berry
p655
sg45
VMold Breaker
p656
sbasg47
I01
sg48
g292
sbag1
(g2
g3
Ntp657
Rp658
(dp659
g7
VSpr B2W2 Drayden.png
p660
sg9
VLeader
p661
sg11
VDrayden
p662
sg13
V6240
p663
sg15
I4
sg17
g18
sg19
g20
sg21
g278
sg23
(lp664
g1
(g25
g3
Ntp665
Rp666
(dp667
g29
I621
sg31
VDruddigon
p668
sg33
g34
sg35
V50
p669
sg37
(lp670
VRevenge
p671
aVCrunch
p672
aVDragon Tail
p673
aVRock Slide
p674
asg43
VSitrus Berry
p675
sg45
VSheer Force
p676
sbag1
(g25
g3
Ntp677
Rp678
(dp679
g29
I330
sg31
VFlygon 
p680
sg33
g34
sg35
V50
p681
sg37
(lp682
VRock Slide
p683
aVDragon Tail
p684
aVCrunch
p685
aVEarth Power
p686
asg43
g44
sg45
VLevitate
p687
sbag1
(g25
g3
Ntp688
Rp689
(dp690
g29
I334
sg31
VAltaria
p691
sg33
g34
sg35
V50
p692
sg37
(lp693
VCotton Guard
p694
aVFire Blast
p695
aVSing
p696
aVDragon Pulse
p697
asg43
g44
sg45
VNatural Cure
p698
sbag1
(g25
g3
Ntp699
Rp700
(dp701
g29
I612
sg31
VHaxorus
p702
sg33
g34
sg35
V52
p703
sg37
(lp704
VDragon Dance
p705
aVDragon Tail
p706
aVX-Scissor
p707
aVShadow Claw
p708
asg43
VSitrus Berry
p709
sg45
VMold Breaker
p710
sbasg47
I01
sg48
g292
sba.