(lp0
ccopy_reg
_reconstructor
p1
(c__main__
Trainer
p2
c__builtin__
object
p3
Ntp4
Rp5
(dp6
VtSprite
p7
VSpr BW Ace Trainer F.png
p8
sVtClass
p9
VAce Trainer
p10
sVtName
p11
VEileen
p12
sVtMoney
p13
V2340<br><small>[[Rotation Battle]]</small>
p14
sVtPokeCount
p15
V3
p16
sVtLocation
p17
Vwiki/Opelucid_City
p18
sVtRegion
p19
VUnova
p20
sVtGame
p21
VBW
p22
sVtPokes
p23
(lp24
g1
(c__main__
FinishedPokemon
p25
g3
Ntp26
Rp27
(dp28
VpDexNo
p29
V512
p30
sVpSpecies
p31
VSimisage
p32
sVpGender
p33
VM
p34
sVpLevel
p35
V39
p36
sVpMoves
p37
(lp38
Vleer
p39
aVlick
p40
aVfury-swipes
p41
aVseed-bomb
p42
asVpHold
p43
V
p44
sVpAbility
p45
Vgluttony
p46
sbag1
(g25
g3
Ntp47
Rp48
(dp49
g29
V514
p50
sg31
VSimisear
p51
sg33
g34
sg35
V39
p52
sg37
(lp53
Vleer
p54
aVlick
p55
aVfury-swipes
p56
aVflame-burst
p57
asg43
g44
sg45
Vgluttony
p58
sbag1
(g25
g3
Ntp59
Rp60
(dp61
g29
V516
p62
sg31
VSimipour
p63
sg33
g34
sg35
V39
p64
sg37
(lp65
Vleer
p66
aVlick
p67
aVfury-swipes
p68
aVscald
p69
asg43
g44
sg45
Vgluttony
p70
sbasVbossFlag
p71
I00
sVtLongGame
p72
Vblack-white
p73
sbag1
(g2
g3
Ntp74
Rp75
(dp76
g7
VSpr BW Ace Trainer M.png
p77
sg9
VAce Trainer
p78
sg11
VLou
p79
sg13
V2340<br><small>[[Rotation Battle]]</small>
p80
sg15
g16
sg17
g18
sg19
g20
sg21
g22
sg23
(lp81
g1
(g25
g3
Ntp82
Rp83
(dp84
g29
V619
p85
sg31
VMienfoo
p86
sg33
g34
sg35
V39
p87
sg37
(lp88
Vforce-palm
p89
aVaura-sphere
p90
aVdrain-punch
p91
aVquick-guard
p92
asg43
g44
sg45
Vinner-focus
p93
sbag1
(g25
g3
Ntp94
Rp95
(dp96
g29
V605
p97
sg31
VElgyem
p98
sg33
g34
sg35
V39
p99
sg37
(lp100
Vpower-split
p101
aVwonder-room
p102
aVsynchronoise
p103
aVsimple-beam
p104
asg43
g44
sg45
Vsynchronize
p105
sbag1
(g25
g3
Ntp106
Rp107
(dp108
g29
V624
p109
sg31
VPawniard
p110
sg33
g34
sg35
V39
p111
sg37
(lp112
Vassurance
p113
aVembargo
p114
aVnight-slash
p115
aViron-head
p116
asg43
g44
sg45
Vdefiant
p117
sbasg71
I00
sg72
g73
sbag1
(g2
g3
Ntp118
Rp119
(dp120
g7
VSpr BW Ace Trainer M.png
p121
sg9
VAce Trainer
p122
sg11
VLou
p123
sg13
V2340<br><small>[[Triple Battle]]</small>
p124
sg15
g16
sg17
g18
sg19
g20
sg21
g22
sg23
(lp125
g1
(g25
g3
Ntp126
Rp127
(dp128
g29
V512
p129
sg31
VSimisage
p130
sg33
g34
sg35
V39
p131
sg37
(lp132
Vleer
p133
aVlick
p134
aVfury-swipes
p135
aVseed-bomb
p136
asg43
g44
sg45
Vgluttony
p137
sbag1
(g25
g3
Ntp138
Rp139
(dp140
g29
V516
p141
sg31
VSimipour
p142
sg33
g34
sg35
V39
p143
sg37
(lp144
Vleer
p145
aVlick
p146
aVfury-swipes
p147
aVscald
p148
asg43
g44
sg45
Vgluttony
p149
sbag1
(g25
g3
Ntp150
Rp151
(dp152
g29
V514
p153
sg31
VSimisear
p154
sg33
g34
sg35
V39
p155
sg37
(lp156
Vleer
p157
aVlick
p158
aVfury-swipes
p159
aVflame-burst
p160
asg43
g44
sg45
Vgluttony
p161
sbasg71
I00
sg72
g73
sbag1
(g2
g3
Ntp162
Rp163
(dp164
g7
VSpr BW Ace Trainer F.png
p165
sg9
VAce Trainer
p166
sg11
VEileen
p167
sg13
V2340<br><small>[[Triple Battle]]</small>
p168
sg15
g16
sg17
g18
sg19
g20
sg21
g22
sg23
(lp169
g1
(g25
g3
Ntp170
Rp171
(dp172
g29
V624
p173
sg31
VPawniard
p174
sg33
VF
p175
sg35
V39
p176
sg37
(lp177
Vassurance
p178
aVembargo
p179
aVnight-slash
p180
aViron-head
p181
asg43
g44
sg45
Vinner-focus
p182
sbag1
(g25
g3
Ntp183
Rp184
(dp185
g29
V605
p186
sg31
VElgyem
p187
sg33
g175
sg35
V39
p188
sg37
(lp189
Vpower-split
p190
aVwonder-room
p191
aVsynchronoise
p192
aVsimple-beam
p193
asg43
g44
sg45
Vtelepathy
p194
sbag1
(g25
g3
Ntp195
Rp196
(dp197
g29
V619
p198
sg31
VMienfoo
p199
sg33
g175
sg35
V39
p200
sg37
(lp201
Vforce-palm
p202
aVaura-sphere
p203
aVdrain-punch
p204
aVquick-guard
p205
asg43
g44
sg45
Vregenerator
p206
sbasg71
I00
sg72
g73
sbag1
(g2
g3
Ntp207
Rp208
(dp209
g7
VSpr B2W2 Plasma Grunt M.png
p210
sg9
VTeam Plasma Grunt
p211
sg11
g44
sg13
g1
(cmwparserfromhell.wikicode
Wikicode
p212
g3
Ntp213
Rp214
(dp215
V_nodes
p216
g1
(cmwparserfromhell.smart_list.smart_list
SmartList
p217
c__builtin__
list
p218
(lp219
g1
(cmwparserfromhell.nodes.text
Text
p220
g3
Ntp221
Rp222
(dp223
V_value
p224
V1760
p225
sbatp226
Rp227
(dp228
V_children
p229
(dp230
sbsbsg15
V2
p231
sg17
g18
sg19
g20
sg21
VB2W2
p232
sg23
(lp233
g1
(g25
g3
Ntp234
Rp235
(dp236
g29
V505
p237
sg31
VWatchog
p238
sg33
g34
sg35
V44
p239
sg37
(lp240
Vbaton-pass
p241
aVcrunch
p242
aVpsych-up
p243
aVafter-you
p244
asg43
g44
sg45
Vkeen-eye
p245
sbag1
(g25
g3
Ntp246
Rp247
(dp248
g29
V089
p249
sg31
VMuk
p250
sg33
g34
sg35
V44
p251
sg37
(lp252
Vfling
p253
aVmud-bomb
p254
aVgunk-shot
p255
aVsludge-wave
p256
asg43
g44
sg45
Vstench
p257
sbasg71
I00
sg72
Vblack-2-white-2
p258
sbag1
(g2
g3
Ntp259
Rp260
(dp261
g7
VSpr B2W2 Plasma Grunt F.png
p262
sg9
VTeam Plasma Grunt
p263
sg11
g44
sg13
g1
(g212
g3
Ntp264
Rp265
(dp266
g216
g1
(g217
g218
(lp267
g1
(g220
g3
Ntp268
Rp269
(dp270
g224
V1760
p271
sbatp272
Rp273
(dp274
g229
(dp275
sbsbsg15
g231
sg17
g18
sg19
g20
sg21
g232
sg23
(lp276
g1
(g25
g3
Ntp277
Rp278
(dp279
g29
V042
p280
sg31
VGolbat
p281
sg33
g175
sg35
V44
p282
sg37
(lp283
Vastonish
p284
aVair-cutter
p285
aVair-slash
p286
aVacrobatics
p287
asg43
g44
sg45
Vinner-focus
p288
sbag1
(g25
g3
Ntp289
Rp290
(dp291
g29
V569
p292
sg31
VGarbodor
p293
sg33
g175
sg35
V44
p294
sg37
(lp295
Vtoxic-spikes
p296
aVgunk-shot
p297
aVacid-spray
p298
aVclear-smog
p299
asg43
g44
sg45
Vweak-armor
p300
sbasg71
I00
sg72
g258
sbag1
(g2
g3
Ntp301
Rp302
(dp303
g7
VSpr B2W2 Plasma Grunt M.png
p304
sg9
VTeam Plasma Grunt
p305
sg11
g44
sg13
g1
(g212
g3
Ntp306
Rp307
(dp308
g216
g1
(g217
g218
(lp309
g1
(g220
g3
Ntp310
Rp311
(dp312
g224
V1760
p313
sbatp314
Rp315
(dp316
g229
(dp317
sbsbsg15
g231
sg17
g18
sg19
g20
sg21
g232
sg23
(lp318
g1
(g25
g3
Ntp319
Rp320
(dp321
g29
V336
p322
sg31
VSeviper
p323
sg33
g34
sg35
V44
p324
sg37
(lp325
Vpoison-jab
p326
aVnight-slash
p327
aVvenoshock
p328
aVcoil
p329
asg43
g44
sg45
Vshed-skin
p330
sbag1
(g25
g3
Ntp331
Rp332
(dp333
g29
V110
p334
sg31
VWeezing
p335
sg33
g34
sg35
V44
p336
sg37
(lp337
Vmemento
p338
aVassurance
p339
aVdouble-hit
p340
aVclear-smog
p341
asg43
g44
sg45
Vlevitate
p342
sbasg71
I00
sg72
g258
sbag1
(g2
g3
Ntp343
Rp344
(dp345
g7
VSpr B2W2 Zinzolin.png
p346
sg9
VTeam Plasma
p347
sg11
VZinzolin
p348
sg13
g1
(g212
g3
Ntp349
Rp350
(dp351
g216
g1
(g217
g218
(lp352
g1
(g220
g3
Ntp353
Rp354
(dp355
g224
V8640
p356
sbatp357
Rp358
(dp359
g229
(dp360
sbsbsg15
I3
sg17
g18
sg19
g20
sg21
g232
sg23
(lp361
g1
(g25
g3
Ntp362
Rp363
(dp364
g29
I615
sg31
VCryogonal
p365
sg33
VU
p366
sg35
g1
(g212
g3
Ntp367
Rp368
(dp369
g216
g1
(g217
g218
(lp370
g1
(g220
g3
Ntp371
Rp372
(dp373
g224
V46
p374
sbatp375
Rp376
(dp377
g229
(dp378
sbsbsg37
(lp379
VSlash
p380
aVIce Beam
p381
aVConfuse Ray
p382
aVReflect
p383
asg43
g44
sg45
VLevitate
p384
sbag1
(g25
g3
Ntp385
Rp386
(dp387
g29
I615
sg31
VCryogonal
p388
sg33
g366
sg35
g1
(g212
g3
Ntp389
Rp390
(dp391
g216
g1
(g217
g218
(lp392
g1
(g220
g3
Ntp393
Rp394
(dp395
g224
V46
p396
sbatp397
Rp398
(dp399
g229
(dp400
sbsbsg37
(lp401
VSlash
p402
aVIce Beam
p403
aVConfuse Ray
p404
aVLight Screen
p405
asg43
g44
sg45
VLevitate
p406
sbag1
(g25
g3
Ntp407
Rp408
(dp409
g29
I461
sg31
VWeavile
p410
sg33
g34
sg35
g1
(g212
g3
Ntp411
Rp412
(dp413
g216
g1
(g217
g218
(lp414
g1
(g220
g3
Ntp415
Rp416
(dp417
g224
V48
p418
sbatp419
Rp420
(dp421
g229
(dp422
sbsbsg37
(lp423
VSlash
p424
aVMetal Claw
p425
aVNight Slash
p426
aVIce Shard
p427
asg43
g44
sg45
VPressure
p428
sbasg71
I01
sg72
g258
sbag1
(g2
g3
Ntp429
Rp430
(dp431
g7
VSpr B2W2 Shadow Triad.png
p432
sg9
VTeam Plasma
p433
sg11
VShadow Triad
p434
sg13
g1
(g212
g3
Ntp435
Rp436
(dp437
g216
g1
(g217
g218
(lp438
g1
(g220
g3
Ntp439
Rp440
(dp441
g224
V8640
p442
sbatp443
Rp444
(dp445
g229
(dp446
sbsbsg15
I3
sg17
g18
sg19
g20
sg21
g232
sg23
(lp447
g1
(g25
g3
Ntp448
Rp449
(dp450
g29
I624
sg31
VPawniard
p451
sg33
g34
sg35
g1
(g212
g3
Ntp452
Rp453
(dp454
g216
g1
(g217
g218
(lp455
g1
(g220
g3
Ntp456
Rp457
(dp458
g224
V46
p459
sbatp460
Rp461
(dp462
g229
(dp463
sbsbsg37
(lp464
VFaint Attack
p465
aVSlash
p466
aVScary Face
p467
aVMetal Claw
p468
asg43
g44
sg45
VDefiant
p469
sbag1
(g25
g3
Ntp470
Rp471
(dp472
g29
I624
sg31
VPawniard
p473
sg33
g34
sg35
g1
(g212
g3
Ntp474
Rp475
(dp476
g216
g1
(g217
g218
(lp477
g1
(g220
g3
Ntp478
Rp479
(dp480
g224
V46
p481
sbatp482
Rp483
(dp484
g229
(dp485
sbsbsg37
(lp486
VFaint Attack
p487
aVSlash
p488
aVScary Face
p489
aVMetal Claw
p490
asg43
g44
sg45
VInner Focus
p491
sbag1
(g25
g3
Ntp492
Rp493
(dp494
g29
I359
sg31
VAbsol
p495
sg33
g34
sg35
g1
(g212
g3
Ntp496
Rp497
(dp498
g216
g1
(g217
g218
(lp499
g1
(g220
g3
Ntp500
Rp501
(dp502
g224
V48
p503
sbatp504
Rp505
(dp506
g229
(dp507
sbsbsg37
(lp508
VSwords Dance
p509
aVNight Slash
p510
aVSlash
p511
aVFuture Sight
p512
asg43
g44
sg45
VSuper Luck
p513
sbasg71
I01
sg72
g258
sba.