(lp0
ccopy_reg
_reconstructor
p1
(c__main__
Trainer
p2
c__builtin__
object
p3
Ntp4
Rp5
(dp6
VtSprite
p7
VSpr DP Worker.png
p8
sVtClass
p9
VWorker
p10
sVtName
p11
VMason
p12
sVtMoney
p13
V360
p14
sVtPokeCount
p15
V1
p16
sVtLocation
p17
Vwiki/Oreburgh_Mine
p18
sVtRegion
p19
VSinnoh
p20
sVtGame
p21
VDP
p22
sVtPokes
p23
(lp24
g1
(c__main__
FinishedPokemon
p25
g3
Ntp26
Rp27
(dp28
VpDexNo
p29
V066
p30
sVpSpecies
p31
VMachop
p32
sVpGender
p33
VM
p34
sVpLevel
p35
V9
p36
sVpMoves
p37
(lp38
Vvital-throw
p39
aVcross-chop
p40
aVrevenge
p41
aVwake-up-slap
p42
asVpHold
p43
V
p44
sVpAbility
p45
Vno-guard
p46
sbasVbossFlag
p47
I00
sVtLongGame
p48
Vdiamond-pearl
p49
sbag1
(g2
g3
Ntp50
Rp51
(dp52
g7
VSpr DP Worker.png
p53
sg9
VWorker
p54
sg11
VColin
p55
sg13
V280
p56
sg15
V2
p57
sg17
g18
sg19
g20
sg21
g22
sg23
(lp58
g1
(g25
g3
Ntp59
Rp60
(dp61
g29
V074
p62
sg31
VGeodude
p63
sg33
g34
sg35
V7
p64
sg37
(lp65
Vmud-sport
p66
aVrock-blast
p67
aVrock-polish
p68
aVstone-edge
p69
asg43
g44
sg45
Vsturdy
p70
sbag1
(g25
g3
Ntp71
Rp72
(dp73
g29
V095
p74
sg31
VOnix
p75
sg33
g34
sg35
g64
sg37
(lp76
Vrock-tomb
p77
aVsand-tomb
p78
aVrock-polish
p79
aVstone-edge
p80
asg43
g44
sg45
Vrock-head
p81
sbasg47
I00
sg48
g49
sbag1
(g2
g3
Ntp82
Rp83
(dp84
g7
VSpr DP Worker.png
p85
sg9
VWorker
p86
sg11
VMason
p87
sg13
V360
p88
sg15
g16
sg17
g18
sg19
g20
sg21
g22
sg23
(lp89
g1
(g25
g3
Ntp90
Rp91
(dp92
g29
V074
p93
sg31
VGeodude
p94
sg33
g34
sg35
g36
sg37
(lp95
Vmud-sport
p96
aVrock-blast
p97
aVrock-polish
p98
aVstone-edge
p99
asg43
g44
sg45
Vrock-head
p100
sbasg47
I00
sg48
g49
sbag1
(g2
g3
Ntp101
Rp102
(dp103
g7
VSpr DP Worker.png
p104
sg9
VWorker
p105
sg11
VColin
p106
sg13
V320
p107
sg15
g57
sg17
g18
sg19
g20
sg21
g22
sg23
(lp108
g1
(g25
g3
Ntp109
Rp110
(dp111
g29
V074
p112
sg31
VGeodude
p113
sg33
g34
sg35
V6
p114
sg37
(lp115
Vmud-sport
p116
aVrock-blast
p117
aVrock-polish
p118
aVstone-edge
p119
asg43
g44
sg45
Vsturdy
p120
sbag1
(g25
g3
Ntp121
Rp122
(dp123
g29
V066
p124
sg31
VMachop
p125
sg33
g34
sg35
V8
p126
sg37
(lp127
Vvital-throw
p128
aVcross-chop
p129
aVrevenge
p130
aVwake-up-slap
p131
asg43
g44
sg45
Vno-guard
p132
sbasg47
I00
sg48
g49
sba.