(lp0
ccopy_reg
_reconstructor
p1
(c__main__
Trainer
p2
c__builtin__
object
p3
Ntp4
Rp5
(dp6
VtSprite
p7
VSpr DP Youngster.png
p8
sVtClass
p9
VYoungster
p10
sVtName
p11
VJonathon
p12
sVtMoney
p13
V160
p14
sVtPokeCount
p15
V1
p16
sVtLocation
p17
Vwiki/Oreburgh_Gym
p18
sVtRegion
p19
VSinnoh
p20
sVtGame
p21
VDP
p22
sVtPokes
p23
(lp24
g1
(c__main__
FinishedPokemon
p25
g3
Ntp26
Rp27
(dp28
VpDexNo
p29
V074
p30
sVpSpecies
p31
VGeodude
p32
sVpGender
p33
VM
p34
sVpLevel
p35
V10
p36
sVpMoves
p37
(lp38
Vmud-sport
p39
aVrock-blast
p40
aVrock-polish
p41
aVstone-edge
p42
asVpHold
p43
V
p44
sVpAbility
p45
Vsturdy
p46
sbasVbossFlag
p47
I00
sVtLongGame
p48
Vdiamond-pearl
p49
sbag1
(g2
g3
Ntp50
Rp51
(dp52
g7
VSpr DP Youngster.png
p53
sg9
VYoungster
p54
sg11
VDarius
p55
sg13
V128
p56
sg15
V2
p57
sg17
g18
sg19
g20
sg21
g22
sg23
(lp58
g1
(g25
g3
Ntp59
Rp60
(dp61
g29
V074
p62
sg31
VGeodude
p63
sg33
g34
sg35
V8
p64
sg37
(lp65
Vmud-sport
p66
aVrock-blast
p67
aVrock-polish
p68
aVstone-edge
p69
asg43
g44
sg45
Vsturdy
p70
sbag1
(g25
g3
Ntp71
Rp72
(dp73
g29
V095
p74
sg31
VOnix
p75
sg33
g34
sg35
g64
sg37
(lp76
Vrock-tomb
p77
aVsand-tomb
p78
aVrock-polish
p79
aVstone-edge
p80
asg43
g44
sg45
Vsturdy
p81
sbasg47
I00
sg48
g49
sbag1
(g2
g3
Ntp82
Rp83
(dp84
g7
VSpr DP Youngster.png
p85
sg9
VYoungster
p86
sg11
VJonathon
p87
sg13
V176
p88
sg15
g16
sg17
g18
sg19
g20
sg21
g22
sg23
(lp89
g1
(g25
g3
Ntp90
Rp91
(dp92
g29
V074
p93
sg31
VGeodude
p94
sg33
g34
sg35
V11
p95
sg37
(lp96
Vmud-sport
p97
aVrock-blast
p98
aVrock-polish
p99
aVstone-edge
p100
asg43
g44
sg45
Vsturdy
p101
sbasg47
I00
sg48
g49
sbag1
(g2
g3
Ntp102
Rp103
(dp104
g7
VSpr DP Youngster.png
p105
sg9
VYoungster
p106
sg11
VDarius
p107
sg13
V144
p108
sg15
g57
sg17
g18
sg19
g20
sg21
g22
sg23
(lp109
g1
(g25
g3
Ntp110
Rp111
(dp112
g29
V074
p113
sg31
VGeodude
p114
sg33
g34
sg35
V9
p115
sg37
(lp116
Vmud-sport
p117
aVrock-blast
p118
aVrock-polish
p119
aVstone-edge
p120
asg43
g44
sg45
Vrock-head
p121
sbag1
(g25
g3
Ntp122
Rp123
(dp124
g29
V095
p125
sg31
VOnix
p126
sg33
g34
sg35
g115
sg37
(lp127
Vrock-tomb
p128
aVsand-tomb
p129
aVrock-polish
p130
aVstone-edge
p131
asg43
g44
sg45
Vsturdy
p132
sbasg47
I00
sg48
g49
sbag1
(g2
g3
Ntp133
Rp134
(dp135
g7
VSpr DP Roark.png
p136
sg9
VLeader
p137
sg11
VRoark
p138
sg13
V1680
p139
sg15
I3
sg17
g18
sg19
g20
sg21
g22
sg23
(lp140
g1
(g25
g3
Ntp141
Rp142
(dp143
g29
I74
sg31
VGeodude
p144
sg33
g34
sg35
V12
p145
sg37
(lp146
VRock Throw
p147
aVStealth Rock
p148
asg43
g44
sg45
VRock Head
p149
sbag1
(g25
g3
Ntp150
Rp151
(dp152
g29
I95
sg31
VOnix
p153
sg33
g34
sg35
V12
p154
sg37
(lp155
VRock Throw
p156
aVScreech
p157
aVStealth Rock
p158
asg43
g44
sg45
VRock Head
p159
sbag1
(g25
g3
Ntp160
Rp161
(dp162
g29
I408
sg31
VCranidos
p163
sg33
g34
sg35
V14
p164
sg37
(lp165
VHeadbutt
p166
aVLeer
p167
aVPursuit
p168
asg43
g44
sg45
VMold Breaker
p169
sbasg47
I01
sg48
g49
sbag1
(g2
g3
Ntp170
Rp171
(dp172
g7
VSpr Pt Roark.png
p173
sg9
VLeader
p174
sg11
VRoark
p175
sg13
V1680
p176
sg15
I3
sg17
g18
sg19
g20
sg21
VPt
p177
sg23
(lp178
g1
(g25
g3
Ntp179
Rp180
(dp181
g29
I74
sg31
VGeodude
p182
sg33
g34
sg35
V12
p183
sg37
(lp184
VRock Throw
p185
aVStealth Rock
p186
asg43
g44
sg45
VRock Head
p187
sbag1
(g25
g3
Ntp188
Rp189
(dp190
g29
I95
sg31
VOnix
p191
sg33
g34
sg35
V12
p192
sg37
(lp193
VRock Throw
p194
aVScreech
p195
aVStealth Rock
p196
asg43
g44
sg45
VRock Head
p197
sbag1
(g25
g3
Ntp198
Rp199
(dp200
g29
I408
sg31
VCranidos
p201
sg33
g34
sg35
V14
p202
sg37
(lp203
VHeadbutt
p204
aVLeer
p205
aVPursuit
p206
asg43
g44
sg45
VMold Breaker
p207
sbasg47
I01
sg48
Vplatinum
p208
sba.