(lp0
ccopy_reg
_reconstructor
p1
(c__main__
Trainer
p2
c__builtin__
object
p3
Ntp4
Rp5
(dp6
VtSprite
p7
VSpr DP Camper.png
p8
sVtClass
p9
VCamper
p10
sVtName
p11
VCurtis
p12
sVtMoney
p13
V112
p14
sVtPokeCount
p15
V1
p16
sVtLocation
p17
Vwiki/Oreburgh_Gate
p18
sVtRegion
p19
VSinnoh
p20
sVtGame
p21
VDP
p22
sVtPokes
p23
(lp24
g1
(c__main__
FinishedPokemon
p25
g3
Ntp26
Rp27
(dp28
VpDexNo
p29
V403
p30
sVpSpecies
p31
VShinx
p32
sVpGender
p33
VM
p34
sVpLevel
p35
V7
p36
sVpMoves
p37
(lp38
Vcrunch
p39
aVcharge
p40
aVthunder-fang
p41
aVdischarge
p42
asVpHold
p43
V
p44
sVpAbility
p45
Vintimidate
p46
sbasVbossFlag
p47
I00
sVtLongGame
p48
Vdiamond-pearl
p49
sbag1
(g2
g3
Ntp50
Rp51
(dp52
g7
VSpr DP Picnicker.png
p53
sg9
VPicnicker
p54
sg11
VDiana
p55
sg13
V80
p56
sg15
V2
p57
sg17
g18
sg19
g20
sg21
g22
sg23
(lp58
g1
(g25
g3
Ntp59
Rp60
(dp61
g29
V406
p62
sg31
VBudew
p63
sg33
VF
p64
sg35
V5
p65
sg37
(lp66
Vgrowth
p67
aVstun-spore
p68
aVwater-sport
p69
aVworry-seed
p70
asg43
g44
sg45
Vpoison-point
p71
sbag1
(g25
g3
Ntp72
Rp73
(dp74
g29
V054
p75
sg31
VPsyduck
p76
sg33
g64
sg35
g65
sg37
(lp77
Vpsych-up
p78
aVwater-sport
p79
aVwater-pulse
p80
aVzen-headbutt
p81
asg43
g44
sg45
Vcloud-nine
p82
sbasg47
I00
sg48
g49
sbag1
(g2
g3
Ntp83
Rp84
(dp85
g7
VSpr DP Veteran.png
p86
sg9
VVeteran
p87
sg11
VGrant
p88
sg13
V2800<br><small>Requires {{m|Rock Smash}} and {{m|Surf}}</small>
p89
sg15
V3
p90
sg17
g18
sg19
g20
sg21
g22
sg23
(lp91
g1
(g25
g3
Ntp92
Rp93
(dp94
g29
V447
p95
sg31
VRiolu
p96
sg33
g34
sg35
V33
p97
sg37
(lp98
Vendure
p99
aVfeint
p100
aVcopycat
p101
aVforce-palm
p102
asg43
g44
sg45
Vsteadfast
p103
sbag1
(g25
g3
Ntp104
Rp105
(dp106
g29
V075
p107
sg31
VGraveler
p108
sg33
g34
sg35
V35
p109
sg37
(lp110
Vrock-blast
p111
aVrock-polish
p112
ag112
aVstone-edge
p113
asg43
g44
sg45
Vrock-head
p114
sbag1
(g25
g3
Ntp115
Rp116
(dp117
g29
V398
p118
sg31
VStaraptor
p119
sg33
g34
sg35
V34
p120
sg37
(lp121
Vendeavor
p122
aVaerial-ace
p123
aVclose-combat
p124
aVbrave-bird
p125
asg43
g44
sg45
Vintimidate
p126
sbasg47
I00
sg48
g49
sbag1
(g2
g3
Ntp127
Rp128
(dp129
g7
VSpr DP Camper.png
p130
sg9
VCamper
p131
sg11
VCurtis
p132
sg13
V112
p133
sg15
g57
sg17
g18
sg19
g20
sg21
g22
sg23
(lp134
g1
(g25
g3
Ntp135
Rp136
(dp137
g29
V396
p138
sg31
VStarly
p139
sg33
g34
sg35
g36
sg37
(lp140
Vdouble-team
p141
aVendeavor
p142
aVaerial-ace
p143
aVbrave-bird
p144
asg43
g44
sg45
Vkeen-eye
p145
sbag1
(g25
g3
Ntp146
Rp147
(dp148
g29
V403
p149
sg31
VShinx
p150
sg33
g34
sg35
g36
sg37
(lp151
Vcrunch
p152
aVcharge
p153
aVthunder-fang
p154
aVdischarge
p155
asg43
g44
sg45
Vrivalry
p156
sbasg47
I00
sg48
g49
sbag1
(g2
g3
Ntp157
Rp158
(dp159
g7
VSpr DP Picnicker.png
p160
sg9
VPicnicker
p161
sg11
VDiana
p162
sg13
V144
p163
sg15
g16
sg17
g18
sg19
g20
sg21
g22
sg23
(lp164
g1
(g25
g3
Ntp165
Rp166
(dp167
g29
V399
p168
sg31
VBidoof
p169
sg33
g64
sg35
V9
p170
sg37
(lp171
Vsuper-fang
p172
aVrollout
p173
aVsuperpower
p174
aVyawn
p175
asg43
g44
sg45
Vunaware
p176
sbasg47
I00
sg48
g49
sbag1
(g2
g3
Ntp177
Rp178
(dp179
g7
VSpr DP Veteran.png
p180
sg9
VVeteran
p181
sg11
VGrant
p182
sg13
V2720<br><small>Requires {{m|Rock Smash}} and {{m|Surf}}</small>
p183
sg15
g90
sg17
g18
sg19
g20
sg21
g22
sg23
(lp184
g1
(g25
g3
Ntp185
Rp186
(dp187
g29
V447
p188
sg31
VRiolu
p189
sg33
g34
sg35
V34
p190
sg37
(lp191
Vendure
p192
aVfeint
p193
aVcopycat
p194
aVforce-palm
p195
asg43
g44
sg45
Vinner-focus
p196
sbag1
(g25
g3
Ntp197
Rp198
(dp199
g29
V398
p200
sg31
VStaraptor
p201
sg33
g34
sg35
V34
p202
sg37
(lp203
Vendeavor
p204
aVaerial-ace
p205
aVclose-combat
p206
aVbrave-bird
p207
asg43
g44
sg45
Vintimidate
p208
sbag1
(g25
g3
Ntp209
Rp210
(dp211
g29
V075
p212
sg31
VGraveler
p213
sg33
g34
sg35
V34
p214
sg37
(lp215
Vrock-blast
p216
aVrock-polish
p217
ag217
aVstone-edge
p218
asg43
g44
sg45
Vrock-head
p219
sbasg47
I00
sg48
g49
sba.