(lp0
ccopy_reg
_reconstructor
p1
(c__main__
Trainer
p2
c__builtin__
object
p3
Ntp4
Rp5
(dp6
VtSprite
p7
VSpr DP Idol.png
p8
sVtClass
p9
VIdol
p10
sVtName
p11
VGrace{{tt|*|Initial battle}}
p12
sVtMoney
p13
V1512
p14
sVtPokeCount
p15
V2
p16
sVtLocation
p17
Vwiki/Oreburgh_City
p18
sVtRegion
p19
VSinnoh
p20
sVtGame
p21
VDP
p22
sVtPokes
p23
(lp24
g1
(c__main__
FinishedPokemon
p25
g3
Ntp26
Rp27
(dp28
VpDexNo
p29
V035
p30
sVpSpecies
p31
VClefairy
p32
sVpGender
p33
VF
p34
sVpLevel
p35
V21
p36
sVpMoves
p37
(lp38
Vgravity
p39
aVwake-up-slap
p40
aVhealing-wish
p41
aVlucky-chant
p42
asVpHold
p43
V
p44
sVpAbility
p45
Vmagic-guard
p46
sbag1
(g25
g3
Ntp47
Rp48
(dp49
g29
V035
p50
sg31
VClefairy
p51
sg33
g34
sg35
V21
p52
sg37
(lp53
Vgravity
p54
aVwake-up-slap
p55
aVhealing-wish
p56
aVlucky-chant
p57
asg43
g44
sg45
Vcute-charm
p58
sbasVbossFlag
p59
I00
sVtLongGame
p60
Vdiamond-pearl
p61
sbag1
(g2
g3
Ntp62
Rp63
(dp64
g7
VSpr DP Idol.png
p65
sg9
VIdol
p66
sg11
VGrace{{tt|*|First rematch}}
p67
sg13
V2434
p68
sg15
V3
p69
sg17
g18
sg19
g20
sg21
g22
sg23
(lp70
g1
(g25
g3
Ntp71
Rp72
(dp73
g29
V035
p74
sg31
VClefairy
p75
sg33
g34
sg35
V33
p76
sg37
(lp77
Vgravity
p78
aVwake-up-slap
p79
aVhealing-wish
p80
aVlucky-chant
p81
asg43
g44
sg45
Vcute-charm
p82
sbag1
(g25
g3
Ntp83
Rp84
(dp85
g29
V035
p86
sg31
VClefairy
p87
sg33
g34
sg35
V33
p88
sg37
(lp89
Vgravity
p90
aVwake-up-slap
p91
aVhealing-wish
p92
aVlucky-chant
p93
asg43
g44
sg45
Vcute-charm
p94
sbag1
(g25
g3
Ntp95
Rp96
(dp97
g29
V035
p98
sg31
VClefairy
p99
sg33
g34
sg35
V33
p100
sg37
(lp101
Vgravity
p102
aVwake-up-slap
p103
aVhealing-wish
p104
aVlucky-chant
p105
asg43
g44
sg45
Vmagic-guard
p106
sbasg59
I00
sg60
g61
sbag1
(g2
g3
Ntp107
Rp108
(dp109
g7
VSpr DP Idol.png
p110
sg9
VIdol
p111
sg11
VGrace{{tt|*|Second rematch}}
p112
sg13
V3096
p113
sg15
V4
p114
sg17
g18
sg19
g20
sg21
g22
sg23
(lp115
g1
(g25
g3
Ntp116
Rp117
(dp118
g29
V035
p119
sg31
VClefairy
p120
sg33
g34
sg35
V43
p121
sg37
(lp122
Vgravity
p123
aVwake-up-slap
p124
aVhealing-wish
p125
aVlucky-chant
p126
asg43
g44
sg45
Vmagic-guard
p127
sbag1
(g25
g3
Ntp128
Rp129
(dp130
g29
V035
p131
sg31
VClefairy
p132
sg33
g34
sg35
V43
p133
sg37
(lp134
Vgravity
p135
aVwake-up-slap
p136
aVhealing-wish
p137
aVlucky-chant
p138
asg43
g44
sg45
Vcute-charm
p139
sbag1
(g25
g3
Ntp140
Rp141
(dp142
g29
V035
p143
sg31
VClefairy
p144
sg33
g34
sg35
V43
p145
sg37
(lp146
Vgravity
p147
aVwake-up-slap
p148
aVhealing-wish
p149
aVlucky-chant
p150
asg43
g44
sg45
Vmagic-guard
p151
sbag1
(g25
g3
Ntp152
Rp153
(dp154
g29
V035
p155
sg31
VClefairy
p156
sg33
g34
sg35
V43
p157
sg37
(lp158
Vgravity
p159
aVwake-up-slap
p160
aVhealing-wish
p161
aVlucky-chant
p162
asg43
g44
sg45
Vmagic-guard
p163
sbasg59
I00
sg60
g61
sbag1
(g2
g3
Ntp164
Rp165
(dp166
g7
VSpr DP Idol.png
p167
sg9
VIdol
p168
sg11
VGrace{{tt|*|Third rematch}}
p169
sg13
V3456
p170
sg15
V5
p171
sg17
g18
sg19
g20
sg21
g22
sg23
(lp172
g1
(g25
g3
Ntp173
Rp174
(dp175
g29
V035
p176
sg31
VClefairy
p177
sg33
g34
sg35
V48
p178
sg37
(lp179
Vgravity
p180
aVwake-up-slap
p181
aVhealing-wish
p182
aVlucky-chant
p183
asg43
g44
sg45
Vcute-charm
p184
sbag1
(g25
g3
Ntp185
Rp186
(dp187
g29
V035
p188
sg31
VClefairy
p189
sg33
g34
sg35
V48
p190
sg37
(lp191
Vgravity
p192
aVwake-up-slap
p193
aVhealing-wish
p194
aVlucky-chant
p195
asg43
g44
sg45
Vcute-charm
p196
sbag1
(g25
g3
Ntp197
Rp198
(dp199
g29
V035
p200
sg31
VClefairy
p201
sg33
g34
sg35
V48
p202
sg37
(lp203
Vgravity
p204
aVwake-up-slap
p205
aVhealing-wish
p206
aVlucky-chant
p207
asg43
g44
sg45
Vcute-charm
p208
sbag1
(g25
g3
Ntp209
Rp210
(dp211
g29
V035
p212
sg31
VClefairy
p213
sg33
g34
sg35
V48
p214
sg37
(lp215
Vgravity
p216
aVwake-up-slap
p217
aVhealing-wish
p218
aVlucky-chant
p219
asg43
g44
sg45
Vcute-charm
p220
sbag1
(g25
g3
Ntp221
Rp222
(dp223
g29
V035
p224
sg31
VClefairy
p225
sg33
g34
sg35
V48
p226
sg37
(lp227
Vgravity
p228
aVwake-up-slap
p229
aVhealing-wish
p230
aVlucky-chant
p231
asg43
g44
sg45
Vcute-charm
p232
sbasg59
I00
sg60
g61
sbag1
(g2
g3
Ntp233
Rp234
(dp235
g7
VSpr DP Idol.png
p236
sg9
VIdol
p237
sg11
VGrace{{tt|*|Fourth rematch}}
p238
sg13
V3816
p239
sg15
V6
p240
sg17
g18
sg19
g20
sg21
g22
sg23
(lp241
g1
(g25
g3
Ntp242
Rp243
(dp244
g29
V035
p245
sg31
VClefairy
p246
sg33
g34
sg35
V53
p247
sg37
(lp248
Vgravity
p249
aVwake-up-slap
p250
aVhealing-wish
p251
aVlucky-chant
p252
asg43
g44
sg45
Vcute-charm
p253
sbag1
(g25
g3
Ntp254
Rp255
(dp256
g29
V035
p257
sg31
VClefairy
p258
sg33
g34
sg35
V53
p259
sg37
(lp260
Vgravity
p261
aVwake-up-slap
p262
aVhealing-wish
p263
aVlucky-chant
p264
asg43
g44
sg45
Vcute-charm
p265
sbag1
(g25
g3
Ntp266
Rp267
(dp268
g29
V035
p269
sg31
VClefairy
p270
sg33
g34
sg35
V53
p271
sg37
(lp272
Vgravity
p273
aVwake-up-slap
p274
aVhealing-wish
p275
aVlucky-chant
p276
asg43
g44
sg45
Vcute-charm
p277
sbag1
(g25
g3
Ntp278
Rp279
(dp280
g29
V035
p281
sg31
VClefairy
p282
sg33
g34
sg35
V53
p283
sg37
(lp284
Vgravity
p285
aVwake-up-slap
p286
aVhealing-wish
p287
aVlucky-chant
p288
asg43
g44
sg45
Vmagic-guard
p289
sbag1
(g25
g3
Ntp290
Rp291
(dp292
g29
V035
p293
sg31
VClefairy
p294
sg33
g34
sg35
V53
p295
sg37
(lp296
Vgravity
p297
aVwake-up-slap
p298
aVhealing-wish
p299
aVlucky-chant
p300
asg43
g44
sg45
Vmagic-guard
p301
sbag1
(g25
g3
Ntp302
Rp303
(dp304
g29
V035
p305
sg31
VClefairy
p306
sg33
g34
sg35
V53
p307
sg37
(lp308
Vgravity
p309
aVwake-up-slap
p310
aVhealing-wish
p311
aVlucky-chant
p312
asg43
g44
sg45
Vcute-charm
p313
sbasg59
I00
sg60
g61
sba.