(lp0
ccopy_reg
_reconstructor
p1
(c__main__
Trainer
p2
c__builtin__
object
p3
Ntp4
Rp5
(dp6
VtSprite
p7
VSpr FRLG Swimmer F.png
p8
sVtClass
p9
VSwimmer
p10
sVtName
p11
VNicole
p12
sVtMoney
p13
V200
p14
sVtPokeCount
p15
V1
p16
sVtLocation
p17
Vwiki/Outcast_Island
p18
sVtRegion
p19
Vlands
p20
sVtGame
p21
VFRLG
p22
sVtPokes
p23
(lp24
g1
(c__main__
FinishedPokemon
p25
g3
Ntp26
Rp27
(dp28
VpDexNo
p29
V183
p30
sVpSpecies
p31
VMarill
p32
sVpGender
p33
VF
p34
sVpLevel
p35
V50
p36
sVpMoves
p37
(lp38
Vbubble-beam
p39
aVdefense-curl
p40
aVrollout
p41
aVrain-dance
p42
asVpHold
p43
V
p44
sVpAbility
p45
Vhuge-power
p46
sbasVbossFlag
p47
I00
sVtLongGame
p48
Vfirered-leafgreen
p49
sbag1
(g2
g3
Ntp50
Rp51
(dp52
g7
VSpr FRLG Sis and Bro.png
p53
sg9
VSis and Bro
p54
sg11
VAva & Geb
p55
sg13
V400
p56
sg15
V2
p57
sg17
g18
sg19
g20
sg21
g22
sg23
(lp58
g1
(g25
g3
Ntp59
Rp60
(dp61
g29
V121
p62
sg31
VStarmie
p63
sg33
VU
p64
sg35
V50
p65
sg37
(lp66
Vrecover
p67
aVconfuse-ray
p68
aVswift
p69
aVrapid-spin
p70
asg43
g44
sg45
Vnatural-cure
p71
sbag1
(g25
g3
Ntp72
Rp73
(dp74
g29
V061
p75
sg31
VPoliwhirl
p76
sg33
VM
p77
sg35
V50
p78
sg37
(lp79
Vhypnosis
p80
aVbubble
p81
aVbelly-drum
p82
aVrain-dance
p83
asg43
g44
sg45
Vwater-absorb
p84
sbasg47
I00
sg48
g49
sbag1
(g2
g3
Ntp85
Rp86
(dp87
g7
VSpr FRLG Swimmer M.png
p88
sg9
VSwimmer
p89
sg11
VMymo
p90
sg13
V196
p91
sg15
g57
sg17
g18
sg19
g20
sg21
g22
sg23
(lp92
g1
(g25
g3
Ntp93
Rp94
(dp95
g29
V099
p96
sg31
VKingler
p97
sg33
g77
sg35
V49
p98
sg37
(lp99
Vflail
p100
aVprotect
p101
aVmetal-claw
p102
aVmud-shot
p103
asg43
g44
sg45
Vshell-armor
p104
sbag1
(g25
g3
Ntp105
Rp106
(dp107
g29
V008
p108
sg31
VWartortle
p109
sg33
g77
sg35
V49
p110
sg37
(lp111
Vbubble
p112
aVprotect
p113
aVrapid-spin
p114
aVrain-dance
p115
asg43
g44
sg45
Vtorrent
p116
sbasg47
I00
sg48
g49
sbag1
(g2
g3
Ntp117
Rp118
(dp119
g7
VSpr FRLG Fisherman.png
p120
sg9
VFisherman
p121
sg11
VTylor
p122
sg13
V1764
p123
sg15
g57
sg17
g18
sg19
g20
sg21
g22
sg23
(lp124
g1
(g25
g3
Ntp125
Rp126
(dp127
g29
V211
p128
sg31
VQwilfish
p129
sg33
g77
sg35
V49
p130
sg37
(lp131
Vminimize
p132
aVspikes
p133
aVdestiny-bond
p134
aVrevenge
p135
asg43
g44
sg45
Vpoison-point
p136
sbag1
(g25
g3
Ntp137
Rp138
(dp139
g29
V211
p140
sg31
VQwilfish
p141
sg33
g77
sg35
V49
p142
sg37
(lp143
Vminimize
p144
aVspikes
p145
aVdestiny-bond
p146
aVrevenge
p147
asg43
g44
sg45
Vswift-swim
p148
sbasg47
I00
sg48
g49
sbag1
(g2
g3
Ntp149
Rp150
(dp151
g7
VSpr FRLG Team Rocket Grunt M.png
p152
sg9
VTeam Rocket Grunt
p153
sg11
g44
sg13
V1536<br><small>Only before defeating the Team Rocket<br>Admins at the [[Rocket Warehouse]]</small>
p154
sg15
V3
p155
sg17
g18
sg19
g20
sg21
g22
sg23
(lp156
g1
(g25
g3
Ntp157
Rp158
(dp159
g29
V089
p160
sg31
VMuk
p161
sg33
g77
sg35
V48
p162
sg37
(lp163
Vpoison-gas
p164
aVacid-armor
p165
aVsludge-bomb
p166
aVmemento
p167
asg43
g44
sg45
Vsticky-hold
p168
sbag1
(g25
g3
Ntp169
Rp170
(dp171
g29
V042
p172
sg31
VGolbat
p173
sg33
g77
sg35
V48
p174
sg37
(lp175
Vpoison-fang
p176
aVastonish
p177
ag177
aVair-cutter
p178
asg43
g44
sg45
Vinner-focus
p179
sbag1
(g25
g3
Ntp180
Rp181
(dp182
g29
V020
p183
sg31
VRaticate
p184
sg33
g77
sg35
V48
p185
sg37
(lp186
Vsuper-fang
p187
aVscary-face
p188
aVpursuit
p189
aVendeavor
p190
asg43
g44
sg45
Vguts
p191
sbasg47
I00
sg48
g49
sbag1
(g2
g3
Ntp192
Rp193
(dp194
g7
VSpr FRLG Swimmer F.png
p195
sg9
VSwimmer
p196
sg11
VNicole
p197
sg13
V216
p198
sg15
g16
sg17
g18
sg19
g20
sg21
g22
sg23
(lp199
g1
(g25
g3
Ntp200
Rp201
(dp202
g29
V183
p203
sg31
VMarill
p204
sg33
g34
sg35
V54
p205
sg37
(lp206
Vbubble-beam
p207
aVdefense-curl
p208
aVrollout
p209
aVrain-dance
p210
asg43
g44
sg45
Vhuge-power
p211
sbasg47
I00
sg48
g49
sba.