(lp0
ccopy_reg
_reconstructor
p1
(c__main__
Trainer
p2
c__builtin__
object
p3
Ntp4
Rp5
(dp6
VtSprite
p7
VSpr BW Scientist M.png
p8
sVtClass
p9
VScientist
p10
sVtName
p11
VNathan
p12
sVtMoney
p13
V1680
p14
sVtPokeCount
p15
V1
p16
sVtLocation
p17
Vwiki/P2_Laboratory
p18
sVtRegion
p19
VUnova
p20
sVtGame
p21
VBW
p22
sVtPokes
p23
(lp24
g1
(c__main__
FinishedPokemon
p25
g3
Ntp26
Rp27
(dp28
VpDexNo
p29
V569
p30
sVpSpecies
p31
VGarbodor
p32
sVpGender
p33
VM
p34
sVpLevel
p35
V35
p36
sVpMoves
p37
(lp38
Vtoxic-spikes
p39
aVgunk-shot
p40
aVacid-spray
p41
aVclear-smog
p42
asVpHold
p43
V
p44
sVpAbility
p45
Vweak-armor
p46
sbasVbossFlag
p47
I00
sVtLongGame
p48
Vblack-white
p49
sbag1
(g2
g3
Ntp50
Rp51
(dp52
g7
VSpr B2W2 Scientist M.png
p53
sg9
VScientist
p54
sg11
VDudley
p55
sg13
g1
(cmwparserfromhell.wikicode
Wikicode
p56
g3
Ntp57
Rp58
(dp59
V_nodes
p60
g1
(cmwparserfromhell.smart_list.smart_list
SmartList
p61
c__builtin__
list
p62
(lp63
g1
(cmwparserfromhell.nodes.text
Text
p64
g3
Ntp65
Rp66
(dp67
V_value
p68
V1632
p69
sbatp70
Rp71
(dp72
V_children
p73
(dp74
sbsbsg15
V2
p75
sg17
g18
sg19
g20
sg21
VB2W2
p76
sg23
(lp77
g1
(g25
g3
Ntp78
Rp79
(dp80
g29
V599
p81
sg31
VKlink
p82
sg33
VU
p83
sg35
V34
p84
sg37
(lp85
Vcharge-beam
p86
aVautotomize
p87
aVshift-gear
p88
aVgear-grind
p89
asg43
g44
sg45
Vminus
p90
sbag1
(g25
g3
Ntp91
Rp92
(dp93
g29
V600
p94
sg31
VKlang
p95
sg33
g83
sg35
V34
p96
sg37
(lp97
Vautotomize
p98
aVshift-gear
p99
aVgear-grind
p100
ag100
asg43
g44
sg45
Vplus
p101
sbasg47
I00
sg48
Vblack-2-white-2
p102
sba.