(lp0
ccopy_reg
_reconstructor
p1
(c__main__
Trainer
p2
c__builtin__
object
p3
Ntp4
Rp5
(dp6
VtSprite
p7
VSpr DP Tuber M.png
p8
sVtClass
p9
VTuber
p10
sVtName
p11
VJacky
p12
sVtMoney
p13
V104
p14
sVtPokeCount
p15
V1
p16
sVtLocation
p17
Vwiki/Pastoria_Gym
p18
sVtRegion
p19
VSinnoh
p20
sVtGame
p21
VDP
p22
sVtPokes
p23
(lp24
g1
(c__main__
FinishedPokemon
p25
g3
Ntp26
Rp27
(dp28
VpDexNo
p29
V418
p30
sVpSpecies
p31
VBuizel
p32
sVpGender
p33
VM
p34
sVpLevel
p35
V26
p36
sVpMoves
p37
(lp38
Vpursuit
p39
aVwhirlpool
p40
aVwater-sport
p41
aVaqua-jet
p42
asVpHold
p43
V
p44
sVpAbility
p45
Vswift-swim
p46
sbasVbossFlag
p47
I00
sVtLongGame
p48
Vdiamond-pearl
p49
sbag1
(g2
g3
Ntp50
Rp51
(dp52
g7
VSpr DP Fisherman.png
p53
sg9
VFisherman
p54
sg11
VWalter
p55
sg13
V832
p56
sg15
g16
sg17
g18
sg19
g20
sg21
g22
sg23
(lp57
g1
(g25
g3
Ntp58
Rp59
(dp60
g29
V339
p61
sg31
VBarboach
p62
sg33
g34
sg35
V26
p63
sg37
(lp64
Vwater-sport
p65
aVwater-pulse
p66
aVaqua-tail
p67
aVmud-bomb
p68
asg43
g44
sg45
Voblivious
p69
sbasg47
I00
sg48
g49
sbag1
(g2
g3
Ntp70
Rp71
(dp72
g7
VSpr DP Sailor.png
p73
sg9
VSailor
p74
sg11
VDamian
p75
sg13
V768
p76
sg15
V2
p77
sg17
g18
sg19
g20
sg21
g22
sg23
(lp78
g1
(g25
g3
Ntp79
Rp80
(dp81
g29
V278
p82
sg31
VWingull
p83
sg33
g34
sg35
V24
p84
sg37
(lp85
Vaerial-ace
p86
aVwater-pulse
p87
aVroost
p88
aVair-slash
p89
asg43
g44
sg45
Vhydration
p90
sbag1
(g25
g3
Ntp91
Rp92
(dp93
g29
V278
p94
sg31
VWingull
p95
sg33
g34
sg35
V24
p96
sg37
(lp97
Vaerial-ace
p98
aVwater-pulse
p99
aVroost
p100
aVair-slash
p101
asg43
g44
sg45
Vhydration
p102
sbasg47
I00
sg48
g49
sbag1
(g2
g3
Ntp103
Rp104
(dp105
g7
VSpr DP Tuber F.png
p106
sg9
VTuber
p107
sg11
VCaitlyn
p108
sg13
V96
p109
sg15
g77
sg17
g18
sg19
g20
sg21
g22
sg23
(lp110
g1
(g25
g3
Ntp111
Rp112
(dp113
g29
V298
p114
sg31
VAzurill
p115
sg33
VF
p116
sg35
V24
p117
sg37
(lp118
Vwater-gun
p119
aVbubble
p120
aVsplash
p121
aVcharm
p122
asg43
g44
sg45
Vthick-fat
p123
sbag1
(g25
g3
Ntp124
Rp125
(dp126
g29
V183
p127
sg31
VMarill
p128
sg33
g116
sg35
V24
p129
sg37
(lp130
Vrollout
p131
aVrain-dance
p132
aVaqua-ring
p133
aVaqua-tail
p134
asg43
g44
sg45
Vhuge-power
p135
sbasg47
I00
sg48
g49
sbag1
(g2
g3
Ntp136
Rp137
(dp138
g7
VSpr DP Fisherman.png
p139
sg9
VFisherman
p140
sg11
VErick
p141
sg13
V768
p142
sg15
V3
p143
sg17
g18
sg19
g20
sg21
g22
sg23
(lp144
g1
(g25
g3
Ntp145
Rp146
(dp147
g29
V118
p148
sg31
VGoldeen
p149
sg33
g34
sg35
V22
p150
sg37
(lp151
Vmegahorn
p152
aVwater-sport
p153
aVwater-pulse
p154
aVaqua-ring
p155
asg43
g44
sg45
Vwater-veil
p156
sbag1
(g25
g3
Ntp157
Rp158
(dp159
g29
V339
p160
sg31
VBarboach
p161
sg33
g34
sg35
V23
p162
sg37
(lp163
Vwater-sport
p164
aVwater-pulse
p165
aVaqua-tail
p166
aVmud-bomb
p167
asg43
g44
sg45
Vanticipation
p168
sbag1
(g25
g3
Ntp169
Rp170
(dp171
g29
V130
p172
sg31
VGyarados
p173
sg33
g34
sg35
V24
p174
sg37
(lp175
Vrain-dance
p176
aVdragon-dance
p177
aVaqua-tail
p178
aVice-fang
p179
asg43
g44
sg45
Vintimidate
p180
sbasg47
I00
sg48
g49
sbag1
(g2
g3
Ntp181
Rp182
(dp183
g7
VSpr DP Sailor.png
p184
sg9
VSailor
p185
sg11
VSamson
p186
sg13
V768
p187
sg15
g143
sg17
g18
sg19
g20
sg21
g22
sg23
(lp188
g1
(g25
g3
Ntp189
Rp190
(dp191
g29
V422
p192
sg31
VShellos
p193
sg33
g34
sg35
V24
p194
sg37
(lp195
Vmud-sport
p196
aVmuddy-water
p197
aVwater-pulse
p198
aVmud-bomb
p199
asg43
g44
sg45
Vstorm-drain
p200
sbag1
(g25
g3
Ntp201
Rp202
(dp203
g29
V422
p204
sg31
VShellos
p205
sg33
g34
sg35
V24
p206
sg37
(lp207
Vmud-sport
p208
aVmuddy-water
p209
aVwater-pulse
p210
aVmud-bomb
p211
asg43
g44
sg45
Vsticky-hold
p212
sbag1
(g25
g3
Ntp213
Rp214
(dp215
g29
V278
p216
sg31
VWingull
p217
sg33
g34
sg35
V24
p218
sg37
(lp219
Vaerial-ace
p220
aVwater-pulse
p221
aVroost
p222
aVair-slash
p223
asg43
g44
sg45
Vkeen-eye
p224
sbasg47
I00
sg48
g49
sbag1
(g2
g3
Ntp225
Rp226
(dp227
g7
VSpr DP Tuber M.png
p228
sg9
VTuber
p229
sg11
VJacky
p230
sg13
V128
p231
sg15
g16
sg17
g18
sg19
g20
sg21
g22
sg23
(lp232
g1
(g25
g3
Ntp233
Rp234
(dp235
g29
V400
p236
sg31
VBibarel
p237
sg33
g34
sg35
V32
p238
sg37
(lp239
Vsuper-fang
p240
aVrollout
p241
aVsuperpower
p242
aVyawn
p243
asg43
g44
sg45
Vsimple
p244
sbasg47
I00
sg48
g49
sbag1
(g2
g3
Ntp245
Rp246
(dp247
g7
VSpr DP Fisherman.png
p248
sg9
VFisherman
p249
sg11
VWalter
p250
sg13
V1056
p251
sg15
g16
sg17
g18
sg19
g20
sg21
g22
sg23
(lp252
g1
(g25
g3
Ntp253
Rp254
(dp255
g29
V340
p256
sg31
VWhiscash
p257
sg33
g34
sg35
V33
p258
sg37
(lp259
Vwater-pulse
p260
aVaqua-tail
p261
aVmud-bomb
p262
aVzen-headbutt
p263
asg43
g44
sg45
Voblivious
p264
sbasg47
I00
sg48
g49
sbag1
(g2
g3
Ntp265
Rp266
(dp267
g7
VSpr DP Sailor.png
p268
sg9
VSailor
p269
sg11
VDamian
p270
sg13
V992
p271
sg15
g77
sg17
g18
sg19
g20
sg21
g22
sg23
(lp272
g1
(g25
g3
Ntp273
Rp274
(dp275
g29
V278
p276
sg31
VWingull
p277
sg33
g34
sg35
V31
p278
sg37
(lp279
Vaerial-ace
p280
aVwater-pulse
p281
aVroost
p282
aVair-slash
p283
asg43
g44
sg45
Vkeen-eye
p284
sbag1
(g25
g3
Ntp285
Rp286
(dp287
g29
V279
p288
sg31
VPelipper
p289
sg33
g34
sg35
V31
p290
sg37
(lp291
Vroost
p292
aVtailwind
p293
aVpayback
p294
aVfling
p295
asg43
g44
sg45
Vdrizzle
p296
sbasg47
I00
sg48
g49
sbag1
(g2
g3
Ntp297
Rp298
(dp299
g7
VSpr DP Tuber F.png
p300
sg9
VTuber
p301
sg11
VCaitlyn
p302
sg13
V124
p303
sg15
g143
sg17
g18
sg19
g20
sg21
g22
sg23
(lp304
g1
(g25
g3
Ntp305
Rp306
(dp307
g29
V298
p308
sg31
VAzurill
p309
sg33
g116
sg35
V27
p310
sg37
(lp311
Vwater-gun
p312
aVbubble
p313
aVsplash
p314
aVcharm
p315
asg43
g44
sg45
Vthick-fat
p316
sbag1
(g25
g3
Ntp317
Rp318
(dp319
g29
V184
p320
sg31
VAzumarill
p321
sg33
g116
sg35
V31
p322
sg37
(lp323
Vrollout
p324
aVrain-dance
p325
aVaqua-ring
p326
aVaqua-tail
p327
asg43
g44
sg45
Vhuge-power
p328
sbag1
(g25
g3
Ntp329
Rp330
(dp331
g29
V183
p332
sg31
VMarill
p333
sg33
g116
sg35
V29
p334
sg37
(lp335
Vrollout
p336
aVrain-dance
p337
aVaqua-ring
p338
aVaqua-tail
p339
asg43
g44
sg45
Vhuge-power
p340
sbasg47
I00
sg48
g49
sbag1
(g2
g3
Ntp341
Rp342
(dp343
g7
VSpr DP Fisherman.png
p344
sg9
VFisherman
p345
sg11
VErick
p346
sg13
V992
p347
sg15
g143
sg17
g18
sg19
g20
sg21
g22
sg23
(lp348
g1
(g25
g3
Ntp349
Rp350
(dp351
g29
V118
p352
sg31
VGoldeen
p353
sg33
g34
sg35
V28
p354
sg37
(lp355
Vmegahorn
p356
aVwater-sport
p357
aVwater-pulse
p358
aVaqua-ring
p359
asg43
g44
sg45
Vswift-swim
p360
sbag1
(g25
g3
Ntp361
Rp362
(dp363
g29
V130
p364
sg31
VGyarados
p365
sg33
g34
sg35
V31
p366
sg37
(lp367
Vrain-dance
p368
aVdragon-dance
p369
aVaqua-tail
p370
aVice-fang
p371
asg43
g44
sg45
Vintimidate
p372
sbag1
(g25
g3
Ntp373
Rp374
(dp375
g29
V119
p376
sg31
VSeaking
p377
sg33
g34
sg35
V31
p378
sg37
(lp379
Vwater-sport
p380
aVwater-pulse
p381
aVaqua-ring
p382
aVpoison-jab
p383
asg43
g44
sg45
Vwater-veil
p384
sbasg47
I00
sg48
g49
sbag1
(g2
g3
Ntp385
Rp386
(dp387
g7
VSpr DP Sailor.png
p388
sg9
VSailor
p389
sg11
VSamson
p390
sg13
V992
p391
sg15
g143
sg17
g18
sg19
g20
sg21
g22
sg23
(lp392
g1
(g25
g3
Ntp393
Rp394
(dp395
g29
V278
p396
sg31
VWingull
p397
sg33
g34
sg35
V29
p398
sg37
(lp399
Vaerial-ace
p400
aVwater-pulse
p401
aVroost
p402
aVair-slash
p403
asg43
g44
sg45
Vkeen-eye
p404
sbag1
(g25
g3
Ntp405
Rp406
(dp407
g29
V422
p408
sg31
VShellos
p409
sg33
g34
sg35
V30
p410
sg37
(lp411
Vmud-sport
p412
aVmuddy-water
p413
aVwater-pulse
p414
aVmud-bomb
p415
asg43
g44
sg45
Vstorm-drain
p416
sbag1
(g25
g3
Ntp417
Rp418
(dp419
g29
V055
p420
sg31
VGolduck
p421
sg33
g34
sg35
V31
p422
sg37
(lp423
Vpsych-up
p424
aVwater-sport
p425
aVwater-pulse
p426
aVzen-headbutt
p427
asg43
g44
sg45
Vcloud-nine
p428
sbasg47
I00
sg48
g49
sbag1
(g2
g3
Ntp429
Rp430
(dp431
g7
VSpr DP Crasher Wake.png
p432
sg9
VLeader
p433
sg11
VCrasher Wake
p434
sg13
V3600
p435
sg15
I3
sg17
g18
sg19
g20
sg21
g22
sg23
(lp436
g1
(g25
g3
Ntp437
Rp438
(dp439
g29
I130
sg31
VGyarados
p440
sg33
g34
sg35
V27
p441
sg37
(lp442
VBrine
p443
aVDragon Rage
p444
aVBite
p445
aVSwagger
p446
asg43
g44
sg45
VIntimidate
p447
sbag1
(g25
g3
Ntp448
Rp449
(dp450
g29
I195
sg31
VQuagsire
p451
sg33
g34
sg35
V27
p452
sg37
(lp453
VSlam
p454
aVMud Bomb
p455
aVMud Sport
p456
aVTail Whip
p457
asg43
g44
sg45
VDamp
p458
sbag1
(g25
g3
Ntp459
Rp460
(dp461
g29
I419
sg31
VFloatzel
p462
sg33
g34
sg35
V30
p463
sg37
(lp464
VBrine
p465
aVIce Fang
p466
aVPursuit
p467
aVSwift
p468
asg43
VSitrus Berry
p469
sg45
VSwift Swim
p470
sbasg47
I01
sg48
g49
sbag1
(g2
g3
Ntp471
Rp472
(dp473
g7
VSpr Pt Crasher Wake.png
p474
sg9
VLeader
p475
sg11
VCrasher Wake
p476
sg13
V4440
p477
sg15
I3
sg17
g18
sg19
g20
sg21
VPt
p478
sg23
(lp479
g1
(g25
g3
Ntp480
Rp481
(dp482
g29
I130
sg31
VGyarados
p483
sg33
g34
sg35
V33
p484
sg37
(lp485
VBrine
p486
aVWaterfall
p487
aVBite
p488
aVTwister
p489
asg43
g44
sg45
VIntimidate
p490
sbag1
(g25
g3
Ntp491
Rp492
(dp493
g29
I195
sg31
VQuagsire
p494
sg33
g34
sg35
V34
p495
sg37
(lp496
VRock Tomb
p497
aVWater Pulse
p498
aVMud Shot
p499
aVYawn
p500
asg43
g44
sg45
VDamp
p501
sbag1
(g25
g3
Ntp502
Rp503
(dp504
g29
I419
sg31
VFloatzel
p505
sg33
g34
sg35
V37
p506
sg37
(lp507
VBrine
p508
aVIce Fang
p509
aVCrunch
p510
aVAqua Jet
p511
asg43
VSitrus Berry
p512
sg45
VSwift Swim
p513
sbasg47
I01
sg48
Vplatinum
p514
sba.