(lp0
ccopy_reg
_reconstructor
p1
(c__main__
Trainer
p2
c__builtin__
object
p3
Ntp4
Rp5
(dp6
VtSprite
p7
VSpr RS Bug Catcher.png
p8
sVtClass
p9
VBug Catcher
p10
sVtName
p11
VLyle
p12
sVtMoney
p13
V48
p14
sVtPokeCount
p15
V6
p16
sVtLocation
p17
Vwiki/Petalburg_Woods
p18
sVtRegion
p19
VHoenn
p20
sVtGame
p21
VRS
p22
sVtPokes
p23
(lp24
g1
(c__main__
FinishedPokemon
p25
g3
Ntp26
Rp27
(dp28
VpDexNo
p29
V265
p30
sVpSpecies
p31
VWurmple
p32
sVpGender
p33
VM
p34
sVpLevel
p35
V3
p36
sVpMoves
p37
(lp38
Vtackle
p39
aVpoison-sting
p40
aVstring-shot
p41
asVpHold
p42
V
p43
sVpAbility
p44
Vshield-dust
p45
sbag1
(g25
g3
Ntp46
Rp47
(dp48
g29
V265
p49
sg31
VWurmple
p50
sg33
g34
sg35
g36
sg37
(lp51
Vtackle
p52
aVpoison-sting
p53
aVstring-shot
p54
asg42
g43
sg44
Vshield-dust
p55
sbag1
(g25
g3
Ntp56
Rp57
(dp58
g29
V265
p59
sg31
VWurmple
p60
sg33
g34
sg35
g36
sg37
(lp61
Vtackle
p62
aVpoison-sting
p63
aVstring-shot
p64
asg42
g43
sg44
Vshield-dust
p65
sbag1
(g25
g3
Ntp66
Rp67
(dp68
g29
V265
p69
sg31
VWurmple
p70
sg33
g34
sg35
g36
sg37
(lp71
Vtackle
p72
aVpoison-sting
p73
aVstring-shot
p74
asg42
g43
sg44
Vshield-dust
p75
sbag1
(g25
g3
Ntp76
Rp77
(dp78
g29
V265
p79
sg31
VWurmple
p80
sg33
g34
sg35
g36
sg37
(lp81
Vtackle
p82
aVpoison-sting
p83
aVstring-shot
p84
asg42
g43
sg44
Vshield-dust
p85
sbag1
(g25
g3
Ntp86
Rp87
(dp88
g29
V265
p89
sg31
VWurmple
p90
sg33
g34
sg35
g36
sg37
(lp91
Vtackle
p92
aVpoison-sting
p93
aVstring-shot
p94
asg42
g43
sg44
Vshield-dust
p95
sbasVbossFlag
p96
I00
sVtLongGame
p97
Vruby-sapphire
p98
sbag1
(g2
g3
Ntp99
Rp100
(dp101
g7
VSpr RS Team Magma Grunt M.png
p102
sg9
VTeam Magma Grunt
p103
sg11
V{{sup/3|R}}
p104
sg13
V180
p105
sg15
V1
p106
sg17
g18
sg19
g20
sg21
g22
sg23
(lp107
g1
(g25
g3
Ntp108
Rp109
(dp110
g29
V261
p111
sg31
VPoochyena
p112
sg33
g34
sg35
V9
p113
sg37
(lp114
Vcrunch
p115
aVtaunt
p116
aVodor-sleuth
p117
aVhowl
p118
asg42
g43
sg44
Vquick-feet
p119
sbasg96
I00
sg97
g98
sbag1
(g2
g3
Ntp120
Rp121
(dp122
g7
VSpr RS Team Aqua Grunt M.png\u200e
p123
sg9
VTeam Aqua Grunt
p124
sg11
V{{sup/3|S}}
p125
sg13
V180
p126
sg15
g106
sg17
g18
sg19
g20
sg21
g22
sg23
(lp127
g1
(g25
g3
Ntp128
Rp129
(dp130
g29
V261
p131
sg31
VPoochyena
p132
sg33
g34
sg35
g113
sg37
(lp133
Vcrunch
p134
aVtaunt
p135
aVodor-sleuth
p136
aVhowl
p137
asg42
g43
sg44
Vquick-feet
p138
sbasg96
I00
sg97
g98
sbag1
(g2
g3
Ntp139
Rp140
(dp141
g7
VSpr RS Bug Catcher.png
p142
sg9
VBug Catcher
p143
sg11
VJames
p144
sg13
V128
p145
sg15
g106
sg17
g18
sg19
g20
sg21
g22
sg23
(lp146
g1
(g25
g3
Ntp147
Rp148
(dp149
g29
V290
p150
sg31
VNincada
p151
sg33
g34
sg35
V8
p152
sg37
(lp153
Vmind-reader
p154
aVmud-slap
p155
aVfalse-swipe
p156
aVmetal-claw
p157
asg42
g43
sg44
Vcompound-eyes
p158
sbasg96
I00
sg97
g98
sbag1
(g2
g3
Ntp159
Rp160
(dp161
g7
VSpr RS Bug Catcher.png
p162
sg9
VBug Catcher
p163
sg11
VJames{{tt|*|First rematch}}
p164
sg13
V432
p165
sg15
g106
sg17
g18
sg19
g20
sg21
g22
sg23
(lp166
g1
(g25
g3
Ntp167
Rp168
(dp169
g29
V291
p170
sg31
VNinjask
p171
sg33
g34
sg35
V27
p172
sg37
(lp173
Vslash
p174
aVmind-reader
p175
aVfury-cutter
p176
aVbaton-pass
p177
asg42
g43
sg44
Vspeed-boost
p178
sbasg96
I00
sg97
g98
sbag1
(g2
g3
Ntp179
Rp180
(dp181
g7
VSpr RS Bug Catcher.png
p182
sg9
VBug Catcher
p183
sg11
VJames{{tt|*|Second rematch}}
p184
sg13
V464
p185
sg15
V2
p186
sg17
g18
sg19
g20
sg21
g22
sg23
(lp187
g1
(g25
g3
Ntp188
Rp189
(dp190
g29
V269
p191
sg31
VDustox
p192
sg33
g34
sg35
V29
p193
sg37
(lp194
Vlight-screen
p195
aVprotect
p196
aVmoonlight
p197
aVsilver-wind
p198
asg42
g43
sg44
Vshield-dust
p199
sbag1
(g25
g3
Ntp200
Rp201
(dp202
g29
V291
p203
sg31
VNinjask
p204
sg33
g34
sg35
V29
p205
sg37
(lp206
Vslash
p207
aVmind-reader
p208
aVfury-cutter
p209
aVbaton-pass
p210
asg42
g43
sg44
Vspeed-boost
p211
sbasg96
I00
sg97
g98
sbag1
(g2
g3
Ntp212
Rp213
(dp214
g7
VSpr RS Bug Catcher.png
p215
sg9
VBug Catcher
p216
sg11
VJames{{tt|*|Third rematch}}
p217
sg13
V496
p218
sg15
g36
sg17
g18
sg19
g20
sg21
g22
sg23
(lp219
g1
(g25
g3
Ntp220
Rp221
(dp222
g29
V283
p223
sg31
VSurskit
p224
sg33
g34
sg35
V31
p225
sg37
(lp226
Vhaze
p227
aVbubble
p228
aVsweet-scent
p229
aVwater-sport
p230
asg42
g43
sg44
Vswift-swim
p231
sbag1
(g25
g3
Ntp232
Rp233
(dp234
g29
V269
p235
sg31
VDustox
p236
sg33
g34
sg35
V31
p237
sg37
(lp238
Vlight-screen
p239
aVprotect
p240
aVmoonlight
p241
aVsilver-wind
p242
asg42
g43
sg44
Vshield-dust
p243
sbag1
(g25
g3
Ntp244
Rp245
(dp246
g29
V291
p247
sg31
VNinjask
p248
sg33
g34
sg35
V31
p249
sg37
(lp250
Vslash
p251
aVmind-reader
p252
aVfury-cutter
p253
aVbaton-pass
p254
asg42
g43
sg44
Vspeed-boost
p255
sbasg96
I00
sg97
g98
sbag1
(g2
g3
Ntp256
Rp257
(dp258
g7
VSpr RS Bug Catcher.png
p259
sg9
VBug Catcher
p260
sg11
VJames{{tt|*|Fourth rematch onwards}}
p261
sg13
V528
p262
sg15
V4
p263
sg17
g18
sg19
g20
sg21
g22
sg23
(lp264
g1
(g25
g3
Ntp265
Rp266
(dp267
g29
V283
p268
sg31
VSurskit
p269
sg33
g34
sg35
V33
p270
sg37
(lp271
Vhaze
p272
aVbubble
p273
aVsweet-scent
p274
aVwater-sport
p275
asg42
g43
sg44
Vswift-swim
p276
sbag1
(g25
g3
Ntp277
Rp278
(dp279
g29
V291
p280
sg31
VNinjask
p281
sg33
g34
sg35
V33
p282
sg37
(lp283
Vslash
p284
aVmind-reader
p285
aVfury-cutter
p286
aVbaton-pass
p287
asg42
g43
sg44
Vspeed-boost
p288
sbag1
(g25
g3
Ntp289
Rp290
(dp291
g29
V269
p292
sg31
VDustox
p293
sg33
g34
sg35
V33
p294
sg37
(lp295
Vlight-screen
p296
aVprotect
p297
aVmoonlight
p298
aVsilver-wind
p299
asg42
g43
sg44
Vshield-dust
p300
sbag1
(g25
g3
Ntp301
Rp302
(dp303
g29
V291
p304
sg31
VNinjask
p305
sg33
g34
sg35
V33
p306
sg37
(lp307
Vslash
p308
aVmind-reader
p309
aVfury-cutter
p310
aVbaton-pass
p311
asg42
g43
sg44
Vspeed-boost
p312
sbasg96
I00
sg97
g98
sbag1
(g2
g3
Ntp313
Rp314
(dp315
g7
VSpr RS Bug Catcher.png
p316
sg9
VBug Catcher
p317
sg11
VLyle
p318
sg13
V48
p319
sg15
g263
sg17
g18
sg19
g20
sg21
g22
sg23
(lp320
g1
(g25
g3
Ntp321
Rp322
(dp323
g29
V265
p324
sg31
VWurmple
p325
sg33
g34
sg35
g36
sg37
(lp326
Vtackle
p327
aVpoison-sting
p328
aVstring-shot
p329
asg42
g43
sg44
Vshield-dust
p330
sbag1
(g25
g3
Ntp331
Rp332
(dp333
g29
V265
p334
sg31
VWurmple
p335
sg33
g34
sg35
g36
sg37
(lp336
Vtackle
p337
aVpoison-sting
p338
aVstring-shot
p339
asg42
g43
sg44
Vshield-dust
p340
sbag1
(g25
g3
Ntp341
Rp342
(dp343
g29
V265
p344
sg31
VWurmple
p345
sg33
g34
sg35
g36
sg37
(lp346
Vtackle
p347
aVpoison-sting
p348
aVstring-shot
p349
asg42
g43
sg44
Vshield-dust
p350
sbag1
(g25
g3
Ntp351
Rp352
(dp353
g29
V265
p354
sg31
VWurmple
p355
sg33
g34
sg35
g36
sg37
(lp356
Vtackle
p357
aVpoison-sting
p358
aVstring-shot
p359
asg42
g43
sg44
Vshield-dust
p360
sbasg96
I00
sg97
g98
sbag1
(g2
g3
Ntp361
Rp362
(dp363
g7
VSpr RS Team Aqua Grunt M.png\u200e
p364
sg9
VTeam Aqua Grunt
p365
sg11
g43
sg13
V180
p366
sg15
g106
sg17
g18
sg19
g20
sg21
g22
sg23
(lp367
g1
(g25
g3
Ntp368
Rp369
(dp370
g29
V261
p371
sg31
VPoochyena
p372
sg33
g34
sg35
g113
sg37
(lp373
Vcrunch
p374
aVtaunt
p375
aVodor-sleuth
p376
aVhowl
p377
asg42
g43
sg44
Vquick-feet
p378
sbasg96
I00
sg97
g98
sbag1
(g2
g3
Ntp379
Rp380
(dp381
g7
VSpr RS Bug Catcher.png
p382
sg9
VBug Catcher
p383
sg11
VJames
p384
sg13
V96
p385
sg15
g186
sg17
g18
sg19
g20
sg21
g22
sg23
(lp386
g1
(g25
g3
Ntp387
Rp388
(dp389
g29
V290
p390
sg31
VNincada
p391
sg33
g34
sg35
g16
sg37
(lp392
Vmind-reader
p393
aVmud-slap
p394
aVfalse-swipe
p395
aVmetal-claw
p396
asg42
g43
sg44
Vcompound-eyes
p397
sbag1
(g25
g3
Ntp398
Rp399
(dp400
g29
V290
p401
sg31
VNincada
p402
sg33
g34
sg35
g16
sg37
(lp403
Vmind-reader
p404
aVmud-slap
p405
aVfalse-swipe
p406
aVmetal-claw
p407
asg42
g43
sg44
Vcompound-eyes
p408
sbasg96
I00
sg97
g98
sbag1
(g2
g3
Ntp409
Rp410
(dp411
g7
VSpr RS Bug Catcher.png
p412
sg9
VBug Catcher
p413
sg11
VJames{{tt|*|First rematch}}
p414
sg13
V432
p415
sg15
g106
sg17
g18
sg19
g20
sg21
g22
sg23
(lp416
g1
(g25
g3
Ntp417
Rp418
(dp419
g29
V291
p420
sg31
VNinjask
p421
sg33
g34
sg35
V27
p422
sg37
(lp423
Vslash
p424
aVmind-reader
p425
aVfury-cutter
p426
aVbaton-pass
p427
asg42
g43
sg44
Vspeed-boost
p428
sbasg96
I00
sg97
g98
sbag1
(g2
g3
Ntp429
Rp430
(dp431
g7
VSpr RS Bug Catcher.png
p432
sg9
VBug Catcher
p433
sg11
VJames{{tt|*|Second rematch}}
p434
sg13
V464
p435
sg15
g186
sg17
g18
sg19
g20
sg21
g22
sg23
(lp436
g1
(g25
g3
Ntp437
Rp438
(dp439
g29
V269
p440
sg31
VDustox
p441
sg33
g34
sg35
V29
p442
sg37
(lp443
Vlight-screen
p444
aVprotect
p445
aVmoonlight
p446
aVsilver-wind
p447
asg42
g43
sg44
Vshield-dust
p448
sbag1
(g25
g3
Ntp449
Rp450
(dp451
g29
V291
p452
sg31
VNinjask
p453
sg33
g34
sg35
V29
p454
sg37
(lp455
Vslash
p456
aVmind-reader
p457
aVfury-cutter
p458
aVbaton-pass
p459
asg42
g43
sg44
Vspeed-boost
p460
sbasg96
I00
sg97
g98
sbag1
(g2
g3
Ntp461
Rp462
(dp463
g7
VSpr RS Bug Catcher.png
p464
sg9
VBug Catcher
p465
sg11
VJames{{tt|*|Third rematch}}
p466
sg13
V496
p467
sg15
g36
sg17
g18
sg19
g20
sg21
g22
sg23
(lp468
g1
(g25
g3
Ntp469
Rp470
(dp471
g29
V283
p472
sg31
VSurskit
p473
sg33
g34
sg35
V31
p474
sg37
(lp475
Vhaze
p476
aVbubble
p477
aVsweet-scent
p478
aVwater-sport
p479
asg42
g43
sg44
Vswift-swim
p480
sbag1
(g25
g3
Ntp481
Rp482
(dp483
g29
V269
p484
sg31
VDustox
p485
sg33
g34
sg35
V31
p486
sg37
(lp487
Vlight-screen
p488
aVprotect
p489
aVmoonlight
p490
aVsilver-wind
p491
asg42
g43
sg44
Vshield-dust
p492
sbag1
(g25
g3
Ntp493
Rp494
(dp495
g29
V291
p496
sg31
VNinjask
p497
sg33
g34
sg35
V31
p498
sg37
(lp499
Vslash
p500
aVmind-reader
p501
aVfury-cutter
p502
aVbaton-pass
p503
asg42
g43
sg44
Vspeed-boost
p504
sbasg96
I00
sg97
g98
sbag1
(g2
g3
Ntp505
Rp506
(dp507
g7
VSpr RS Bug Catcher.png
p508
sg9
VBug Catcher
p509
sg11
VJames{{tt|*|Fourth rematch onwards}}
p510
sg13
V528
p511
sg15
g263
sg17
g18
sg19
g20
sg21
g22
sg23
(lp512
g1
(g25
g3
Ntp513
Rp514
(dp515
g29
V283
p516
sg31
VSurskit
p517
sg33
g34
sg35
V33
p518
sg37
(lp519
Vhaze
p520
aVbubble
p521
aVsweet-scent
p522
aVwater-sport
p523
asg42
g43
sg44
Vswift-swim
p524
sbag1
(g25
g3
Ntp525
Rp526
(dp527
g29
V291
p528
sg31
VNinjask
p529
sg33
g34
sg35
V33
p530
sg37
(lp531
Vslash
p532
aVmind-reader
p533
aVfury-cutter
p534
aVbaton-pass
p535
asg42
g43
sg44
Vspeed-boost
p536
sbag1
(g25
g3
Ntp537
Rp538
(dp539
g29
V269
p540
sg31
VDustox
p541
sg33
g34
sg35
V33
p542
sg37
(lp543
Vlight-screen
p544
aVprotect
p545
aVmoonlight
p546
aVsilver-wind
p547
asg42
g43
sg44
Vshield-dust
p548
sbag1
(g25
g3
Ntp549
Rp550
(dp551
g29
V291
p552
sg31
VNinjask
p553
sg33
g34
sg35
V33
p554
sg37
(lp555
Vslash
p556
aVmind-reader
p557
aVfury-cutter
p558
aVbaton-pass
p559
asg42
g43
sg44
Vspeed-boost
p560
sbasg96
I00
sg97
g98
sbag1
(g2
g3
Ntp561
Rp562
(dp563
g7
VVSBug Catcher.png
p564
sg9
VBug Catcher
p565
sg11
VLyle
p566
sg13
V80
p567
sg15
g36
sg17
g18
sg19
g20
sg21
VSM
p568
sg23
(lp569
g1
(g25
g3
Ntp570
Rp571
(dp572
g29
V265
p573
sg31
VWurmple
p574
sg33
g34
sg35
V5
p575
sg37
(lp576
Vtackle
p577
aVpoison-sting
p578
aVstring-shot
p579
aVbug-bite
p580
asg42
g43
sg44
Vshield-dust
p581
sbag1
(g25
g3
Ntp582
Rp583
(dp584
g29
V265
p585
sg31
VWurmple
p586
sg33
g34
sg35
g575
sg37
(lp587
Vtackle
p588
aVpoison-sting
p589
aVstring-shot
p590
aVbug-bite
p591
asg42
g43
sg44
Vshield-dust
p592
sbag1
(g25
g3
Ntp593
Rp594
(dp595
g29
V265
p596
sg31
VWurmple
p597
sg33
g34
sg35
g575
sg37
(lp598
Vtackle
p599
aVpoison-sting
p600
aVstring-shot
p601
aVbug-bite
p602
asg42
g43
sg44
Vshield-dust
p603
sbasg96
I00
sg97
Vsun-moon
p604
sbag1
(g2
g3
Ntp605
Rp606
(dp607
g7
VVSTeam Magma Grunt M.png
p608
sg9
VTeam Magma Grunt
p609
sg11
V{{sup/6|OR}}
p610
sg13
V360
p611
sg15
g106
sg17
g18
sg19
g20
sg21
g568
sg23
(lp612
g1
(g25
g3
Ntp613
Rp614
(dp615
g29
V261
p616
sg31
VPoochyena
p617
sg33
g34
sg35
g113
sg37
(lp618
Vassurance
p619
aVembargo
p620
aVsucker-punch
p621
aVplay-rough
p622
asg42
g43
sg44
Vquick-feet
p623
sbasg96
I00
sg97
g604
sbag1
(g2
g3
Ntp624
Rp625
(dp626
g7
VVSTeam Aqua Grunt M.png\u200e
p627
sg9
VTeam Aqua Grunt
p628
sg11
V{{sup/6|AS}}
p629
sg13
V360
p630
sg15
g106
sg17
g18
sg19
g20
sg21
g568
sg23
(lp631
g1
(g25
g3
Ntp632
Rp633
(dp634
g29
V261
p635
sg31
VPoochyena
p636
sg33
g34
sg35
g113
sg37
(lp637
Vassurance
p638
aVembargo
p639
aVsucker-punch
p640
aVplay-rough
p641
asg42
g43
sg44
Vquick-feet
p642
sbasg96
I00
sg97
g604
sbag1
(g2
g3
Ntp643
Rp644
(dp645
g7
VVSBug Catcher.png
p646
sg9
VBug Catcher
p647
sg11
VJames
p648
sg13
V128
p649
sg15
g106
sg17
g18
sg19
g20
sg21
g568
sg23
(lp650
g1
(g25
g3
Ntp651
Rp652
(dp653
g29
V290
p654
sg31
VNincada
p655
sg33
g34
sg35
g152
sg37
(lp656
Vmind-reader
p657
aVmud-slap
p658
aVfalse-swipe
p659
aVmetal-claw
p660
asg42
g43
sg44
Vcompound-eyes
p661
sbasg96
I00
sg97
g604
sbag1
(g2
g3
Ntp662
Rp663
(dp664
g7
VVSBug Catcher.png
p665
sg9
VBug Catcher
p666
sg11
VJames
p667
sg13
V160<br><small>After earning the {{badge|Stone}}</small>
p668
sg15
g186
sg17
g18
sg19
g20
sg21
g568
sg23
(lp669
g1
(g25
g3
Ntp670
Rp671
(dp672
g29
V283
p673
sg31
VSurskit
p674
sg33
g34
sg35
V10
p675
sg37
(lp676
Vsweet-scent
p677
aVwater-sport
p678
aVaqua-jet
p679
aVsticky-web
p680
asg42
g43
sg44
Vswift-swim
p681
sbag1
(g25
g3
Ntp682
Rp683
(dp684
g29
V290
p685
sg31
VNincada
p686
sg33
g34
sg35
V10
p687
sg37
(lp688
Vmind-reader
p689
aVmud-slap
p690
aVfalse-swipe
p691
aVmetal-claw
p692
asg42
g43
sg44
Vcompound-eyes
p693
sbasg96
I00
sg97
g604
sbag1
(g2
g3
Ntp694
Rp695
(dp696
g7
VVSBug Catcher.png
p697
sg9
VBug Catcher
p698
sg11
VJames
p699
sg13
V192<br><small>After earning the {{badge|Knuckle}}</small>
p700
sg15
g186
sg17
g18
sg19
g20
sg21
g568
sg23
(lp701
g1
(g25
g3
Ntp702
Rp703
(dp704
g29
V283
p705
sg31
VSurskit
p706
sg33
g34
sg35
V12
p707
sg37
(lp708
Vsweet-scent
p709
aVwater-sport
p710
aVaqua-jet
p711
aVsticky-web
p712
asg42
g43
sg44
Vswift-swim
p713
sbag1
(g25
g3
Ntp714
Rp715
(dp716
g29
V290
p717
sg31
VNincada
p718
sg33
g34
sg35
V12
p719
sg37
(lp720
Vmind-reader
p721
aVmud-slap
p722
aVfalse-swipe
p723
aVmetal-claw
p724
asg42
g43
sg44
Vcompound-eyes
p725
sbasg96
I00
sg97
g604
sbag1
(g2
g3
Ntp726
Rp727
(dp728
g7
VVSBug Catcher.png
p729
sg9
VBug Catcher
p730
sg11
VJames
p731
sg13
V384<br><small>After earning the {{badge|Heat}}</small>
p732
sg15
g186
sg17
g18
sg19
g20
sg21
g568
sg23
(lp733
g1
(g25
g3
Ntp734
Rp735
(dp736
g29
V283
p737
sg31
VSurskit
p738
sg33
g34
sg35
V24
p739
sg37
(lp740
Vsweet-scent
p741
aVwater-sport
p742
aVaqua-jet
p743
aVsticky-web
p744
asg42
g43
sg44
Vswift-swim
p745
sbag1
(g25
g3
Ntp746
Rp747
(dp748
g29
V291
p749
sg31
VNinjask
p750
sg33
g34
sg35
V24
p751
sg37
(lp752
Vfury-cutter
p753
aVbaton-pass
p754
aVx-scissor
p755
aVbug-bite
p756
asg42
g43
sg44
Vspeed-boost
p757
sbasg96
I00
sg97
g604
sbag1
(g2
g3
Ntp758
Rp759
(dp760
g7
VVSBug Catcher.png
p761
sg9
VBug Catcher
p762
sg11
VJames
p763
sg13
V736<br><small>After entering the [[Hall of Fame]]</small>
p764
sg15
g263
sg17
g18
sg19
g20
sg21
g568
sg23
(lp765
g1
(g25
g3
Ntp766
Rp767
(dp768
g29
V284
p769
sg31
VMasquerain
p770
sg33
g34
sg35
V46
p771
sg37
(lp772
Vbug-buzz
p773
aVominous-wind
p774
aVquiver-dance
p775
ag775
asg42
g43
sg44
Vintimidate
p776
sbag1
(g25
g3
Ntp777
Rp778
(dp779
g29
V168
p780
sg31
VAriados
p781
sg33
g34
sg35
V46
p782
sg37
(lp783
Vfell-stinger
p784
aVvenom-drench
p785
aVinfestation
p786
aVtoxic-thread
p787
asg42
g43
sg44
Vinsomnia
p788
sbag1
(g25
g3
Ntp789
Rp790
(dp791
g29
V291
p792
sg31
VNinjask
p793
sg33
g34
sg35
V46
p794
sg37
(lp795
Vfury-cutter
p796
aVbaton-pass
p797
aVx-scissor
p798
aVbug-bite
p799
asg42
g43
sg44
Vspeed-boost
p800
sbag1
(g25
g3
Ntp801
Rp802
(dp803
g29
V166
p804
sg31
VLedian
p805
sg33
g34
sg35
V46
p806
sg37
(lp807
Vbaton-pass
p808
aVsilver-wind
p809
aVair-slash
p810
aVbug-buzz
p811
asg42
g43
sg44
Vswarm
p812
sbasg96
I00
sg97
g604
sba.