(lp0
ccopy_reg
_reconstructor
p1
(c__main__
Trainer
p2
c__builtin__
object
p3
Ntp4
Rp5
(dp6
VtSprite
p7
VSpr RS Cooltrainer M.png
p8
sVtClass
p9
VCooltrainer
p10
sVtName
p11
VRandall
p12
sVtMoney
p13
V1296
p14
sVtPokeCount
p15
V1
p16
sVtLocation
p17
Vwiki/Petalburg_Gym
p18
sVtRegion
p19
VHoenn
p20
sVtGame
p21
VRS
p22
sVtPokes
p23
(lp24
g1
(c__main__
FinishedPokemon
p25
g3
Ntp26
Rp27
(dp28
VpDexNo
p29
V301
p30
sVpSpecies
p31
VDelcatty
p32
sVpGender
p33
VF
p34
sVpLevel
p35
V27
p36
sVpMoves
p37
(lp38
Vdouble-slap
p39
aVgrowl
p40
aVsing
p41
aVattract
p42
asVpHold
p43
V
p44
sVpAbility
p45
Vnormalize
p46
sbasVbossFlag
p47
I00
sVtLongGame
p48
Vruby-sapphire
p49
sbag1
(g2
g3
Ntp50
Rp51
(dp52
g7
VSpr RS Cooltrainer F.png
p53
sg9
VCooltrainer
p54
sg11
VMary
p55
sg13
V1296
p56
sg15
g16
sg17
g18
sg19
g20
sg21
g22
sg23
(lp57
g1
(g25
g3
Ntp58
Rp59
(dp60
g29
V301
p61
sg31
VDelcatty
p62
sg33
g34
sg35
V27
p63
sg37
(lp64
Vdouble-slap
p65
aVgrowl
p66
aVsing
p67
aVattract
p68
asg43
g44
sg45
Vnormalize
p69
sbasg47
I00
sg48
g49
sbag1
(g2
g3
Ntp70
Rp71
(dp72
g7
VSpr RS Cooltrainer M.png
p73
sg9
VCooltrainer
p74
sg11
VParker
p75
sg13
V1296
p76
sg15
g16
sg17
g18
sg19
g20
sg21
g22
sg23
(lp77
g1
(g25
g3
Ntp78
Rp79
(dp80
g29
V264
p81
sg31
VLinoone
p82
sg33
VM
p83
sg35
V27
p84
sg37
(lp85
Vbelly-drum
p86
aVmud-sport
p87
aVodor-sleuth
p88
aVcovet
p89
asg43
g44
sg45
Vpickup
p90
sbasg47
I00
sg48
g49
sbag1
(g2
g3
Ntp91
Rp92
(dp93
g7
VSpr RS Cooltrainer F.png
p94
sg9
VCooltrainer
p95
sg11
VLori
p96
sg13
V1296
p97
sg15
g16
sg17
g18
sg19
g20
sg21
g22
sg23
(lp98
g1
(g25
g3
Ntp99
Rp100
(dp101
g29
V264
p102
sg31
VLinoone
p103
sg33
g34
sg35
V27
p104
sg37
(lp105
Vbelly-drum
p106
aVmud-sport
p107
aVodor-sleuth
p108
aVcovet
p109
asg43
g44
sg45
Vpickup
p110
sbasg47
I00
sg48
g49
sbag1
(g2
g3
Ntp111
Rp112
(dp113
g7
VSpr RS Cooltrainer M.png
p114
sg9
VCooltrainer
p115
sg11
VGeorge
p116
sg13
V1296
p117
sg15
g16
sg17
g18
sg19
g20
sg21
g22
sg23
(lp118
g1
(g25
g3
Ntp119
Rp120
(dp121
g29
V264
p122
sg31
VLinoone
p123
sg33
g83
sg35
V27
p124
sg37
(lp125
Vbelly-drum
p126
aVmud-sport
p127
aVodor-sleuth
p128
aVcovet
p129
asg43
g44
sg45
Vpickup
p130
sbasg47
I00
sg48
g49
sbag1
(g2
g3
Ntp131
Rp132
(dp133
g7
VSpr RS Cooltrainer F.png
p134
sg9
VCooltrainer
p135
sg11
VJody
p136
sg13
V1296
p137
sg15
g16
sg17
g18
sg19
g20
sg21
g22
sg23
(lp138
g1
(g25
g3
Ntp139
Rp140
(dp141
g29
V335
p142
sg31
VZangoose
p143
sg33
g34
sg35
V27
p144
sg37
(lp145
Vfury-cutter
p146
aVpursuit
p147
aVtaunt
p148
aVcrush-claw
p149
asg43
g44
sg45
Vimmunity
p150
sbasg47
I00
sg48
g49
sbag1
(g2
g3
Ntp151
Rp152
(dp153
g7
VSpr RS Cooltrainer M.png
p154
sg9
VCooltrainer
p155
sg11
VBerke
p156
sg13
V1296
p157
sg15
g16
sg17
g18
sg19
g20
sg21
g22
sg23
(lp158
g1
(g25
g3
Ntp159
Rp160
(dp161
g29
V335
p162
sg31
VZangoose
p163
sg33
g83
sg35
V27
p164
sg37
(lp165
Vfury-cutter
p166
aVpursuit
p167
aVtaunt
p168
aVcrush-claw
p169
asg43
g44
sg45
Vimmunity
p170
sbasg47
I00
sg48
g49
sbag1
(g2
g3
Ntp171
Rp172
(dp173
g7
VSpr RS Cooltrainer M.png
p174
sg9
VCooltrainer
p175
sg11
VRandall
p176
sg13
V1248
p177
sg15
g16
sg17
g18
sg19
g20
sg21
g22
sg23
(lp178
g1
(g25
g3
Ntp179
Rp180
(dp181
g29
V277
p182
sg31
VSwellow
p183
sg33
g83
sg35
V26
p184
sg37
(lp185
Vfocus-energy
p186
ag186
aVendeavor
p187
aVaerial-ace
p188
asg43
g44
sg45
Vguts
p189
sbasg47
I00
sg48
g49
sbag1
(g2
g3
Ntp190
Rp191
(dp192
g7
VSpr RS Cooltrainer F.png
p193
sg9
VCooltrainer
p194
sg11
VMary
p195
sg13
V1248
p196
sg15
g16
sg17
g18
sg19
g20
sg21
g22
sg23
(lp197
g1
(g25
g3
Ntp198
Rp199
(dp200
g29
V301
p201
sg31
VDelcatty
p202
sg33
g34
sg35
V26
p203
sg37
(lp204
Vdouble-slap
p205
aVgrowl
p206
aVsing
p207
aVattract
p208
asg43
g44
sg45
Vnormalize
p209
sbasg47
I00
sg48
g49
sbag1
(g2
g3
Ntp210
Rp211
(dp212
g7
VSpr RS Cooltrainer M.png
p213
sg9
VCooltrainer
p214
sg11
VParker
p215
sg13
V1248
p216
sg15
g16
sg17
g18
sg19
g20
sg21
g22
sg23
(lp217
g1
(g25
g3
Ntp218
Rp219
(dp220
g29
V327
p221
sg31
VSpinda
p222
sg33
g83
sg35
V26
p223
sg37
(lp224
Vfeint-attack
p225
aVpsych-up
p226
aVuproar
p227
aVteeter-dance
p228
asg43
g44
sg45
Vown-tempo
p229
sbasg47
I00
sg48
g49
sbag1
(g2
g3
Ntp230
Rp231
(dp232
g7
VSpr RS Cooltrainer F.png
p233
sg9
VCooltrainer
p234
sg11
VAlexia
p235
sg13
V1248
p236
sg15
g16
sg17
g18
sg19
g20
sg21
g22
sg23
(lp237
g1
(g25
g3
Ntp238
Rp239
(dp240
g29
V040
p241
sg31
VWigglytuff
p242
sg33
g34
sg35
V26
p243
sg37
(lp244
Vdouble-slap
p245
aVsing
p246
aVdisable
p247
aVdefense-curl
p248
asg43
g44
sg45
Vcute-charm
p249
sbasg47
I00
sg48
g49
sbag1
(g2
g3
Ntp250
Rp251
(dp252
g7
VSpr RS Cooltrainer M.png
p253
sg9
VCooltrainer
p254
sg11
VGeorge
p255
sg13
V1248
p256
sg15
g16
sg17
g18
sg19
g20
sg21
g22
sg23
(lp257
g1
(g25
g3
Ntp258
Rp259
(dp260
g29
V287
p261
sg31
VSlakoth
p262
sg33
g83
sg35
V26
p263
sg37
(lp264
Vencore
p265
aVyawn
p266
aVslack-off
p267
aVcovet
p268
asg43
g44
sg45
Vtruant
p269
sbasg47
I00
sg48
g49
sbag1
(g2
g3
Ntp270
Rp271
(dp272
g7
VSpr RS Cooltrainer F.png
p273
sg9
VCooltrainer
p274
sg11
VJody
p275
sg13
V1248
p276
sg15
g16
sg17
g18
sg19
g20
sg21
g22
sg23
(lp277
g1
(g25
g3
Ntp278
Rp279
(dp280
g29
V335
p281
sg31
VZangoose
p282
sg33
g34
sg35
V26
p283
sg37
(lp284
Vfury-cutter
p285
aVpursuit
p286
aVtaunt
p287
aVcrush-claw
p288
asg43
g44
sg45
Vimmunity
p289
sbasg47
I00
sg48
g49
sbag1
(g2
g3
Ntp290
Rp291
(dp292
g7
VSpr RS Cooltrainer M.png
p293
sg9
VCooltrainer
p294
sg11
VBerke
p295
sg13
V1248
p296
sg15
g16
sg17
g18
sg19
g20
sg21
g22
sg23
(lp297
g1
(g25
g3
Ntp298
Rp299
(dp300
g29
V288
p301
sg31
VVigoroth
p302
sg33
g83
sg35
V26
p303
sg37
(lp304
Vencore
p305
aVuproar
p306
ag306
aVfocus-punch
p307
asg43
g44
sg45
Vvital-spirit
p308
sbasg47
I00
sg48
g49
sbag1
(g2
g3
Ntp309
Rp310
(dp311
g7
VVSAce Trainer M ORAS.png
p312
sg9
VAce Trainer
p313
sg11
VRandall
p314
sg13
V1,680
p315
sg15
g16
sg17
g18
sg19
g20
sg21
VSM
p316
sg23
(lp317
g1
(g25
g3
Ntp318
Rp319
(dp320
g29
V301
p321
sg31
VDelcatty
p322
sg33
g34
sg35
V28
p323
sg37
(lp324
Vdouble-slap
p325
aVsing
p326
aVattract
p327
aVfake-out
p328
asg43
g44
sg45
Vnormalize
p329
sbasg47
I00
sg48
Vsun-moon
p330
sbag1
(g2
g3
Ntp331
Rp332
(dp333
g7
VVSAce Trainer F ORAS.png
p334
sg9
VAce Trainer
p335
sg11
VMary
p336
sg13
V1,680
p337
sg15
g16
sg17
g18
sg19
g20
sg21
g316
sg23
(lp338
g1
(g25
g3
Ntp339
Rp340
(dp341
g29
V301
p342
sg31
VDelcatty
p343
sg33
g34
sg35
V28
p344
sg37
(lp345
Vdouble-slap
p346
aVsing
p347
aVattract
p348
aVfake-out
p349
asg43
g44
sg45
Vnormalize
p350
sbasg47
I00
sg48
g330
sbag1
(g2
g3
Ntp351
Rp352
(dp353
g7
VVSAce Trainer M ORAS.png
p354
sg9
VAce Trainer
p355
sg11
VParker
p356
sg13
V1,680
p357
sg15
g16
sg17
g18
sg19
g20
sg21
g316
sg23
(lp358
g1
(g25
g3
Ntp359
Rp360
(dp361
g29
V264
p362
sg31
VLinoone
p363
sg33
g83
sg35
V28
p364
sg37
(lp365
Vswitcheroo
p366
aVbestow
p367
aVrototiller
p368
aVplay-rough
p369
asg43
g44
sg45
Vpickup
p370
sbasg47
I00
sg48
g330
sbag1
(g2
g3
Ntp371
Rp372
(dp373
g7
VVSAce Trainer F ORAS.png
p374
sg9
VAce Trainer
p375
sg11
VLori
p376
sg13
V1,680
p377
sg15
g16
sg17
g18
sg19
g20
sg21
g316
sg23
(lp378
g1
(g25
g3
Ntp379
Rp380
(dp381
g29
V264
p382
sg31
VLinoone
p383
sg33
g34
sg35
V28
p384
sg37
(lp385
Vswitcheroo
p386
aVbestow
p387
aVrototiller
p388
aVplay-rough
p389
asg43
g44
sg45
Vpickup
p390
sbasg47
I00
sg48
g330
sbag1
(g2
g3
Ntp391
Rp392
(dp393
g7
VVSAce Trainer M ORAS.png
p394
sg9
VAce Trainer
p395
sg11
VGeorge
p396
sg13
V1,680
p397
sg15
g16
sg17
g18
sg19
g20
sg21
g316
sg23
(lp398
g1
(g25
g3
Ntp399
Rp400
(dp401
g29
V264
p402
sg31
VLinoone
p403
sg33
g83
sg35
V28
p404
sg37
(lp405
Vswitcheroo
p406
aVbestow
p407
aVrototiller
p408
aVplay-rough
p409
asg43
g44
sg45
Vgluttony
p410
sbasg47
I00
sg48
g330
sbag1
(g2
g3
Ntp411
Rp412
(dp413
g7
VVSAce Trainer F ORAS.png
p414
sg9
VAce Trainer
p415
sg11
VJody
p416
sg13
V1,680
p417
sg15
g16
sg17
g18
sg19
g20
sg21
g316
sg23
(lp418
g1
(g25
g3
Ntp419
Rp420
(dp421
g29
V335
p422
sg31
VZangoose
p423
sg33
g34
sg35
V28
p424
sg37
(lp425
Vclose-combat
p426
aVembargo
p427
aVx-scissor
p428
aVhone-claws
p429
asg43
g44
sg45
Vimmunity
p430
sbasg47
I00
sg48
g330
sbag1
(g2
g3
Ntp431
Rp432
(dp433
g7
VVSAce Trainer M ORAS.png
p434
sg9
VAce Trainer
p435
sg11
VBerke
p436
sg13
V1,680
p437
sg15
g16
sg17
g18
sg19
g20
sg21
g316
sg23
(lp438
g1
(g25
g3
Ntp439
Rp440
(dp441
g29
V335
p442
sg31
VZangoose
p443
sg33
g83
sg35
V28
p444
sg37
(lp445
Vclose-combat
p446
aVembargo
p447
aVx-scissor
p448
aVhone-claws
p449
asg43
g44
sg45
Vimmunity
p450
sbasg47
I00
sg48
g330
sbag1
(g2
g3
Ntp451
Rp452
(dp453
g7
VSpr RS Norman.png
p454
sg9
VLeader
p455
sg11
VNorman
p456
sg13
V3100
p457
sg15
I3
sg17
g18
sg19
g20
sg21
g22
sg23
(lp458
g1
(g25
g3
Ntp459
Rp460
(dp461
g29
I289
sg31
VSlaking
p462
sg33
g83
sg35
V28
p463
sg37
(lp464
VEncore
p465
aVFacade
p466
aVYawn
p467
aVFaint Attack
p468
asg43
g44
sg45
VTruant
p469
sbag1
(g25
g3
Ntp470
Rp471
(dp472
g29
I288
sg31
VVigoroth
p473
sg33
g83
sg35
V30
p474
sg37
(lp475
VSlash
p476
aVFaint Attack
p477
aVFacade
p478
aVEncore
p479
asg43
g44
sg45
VVital Spirit
p480
sbag1
(g25
g3
Ntp481
Rp482
(dp483
g29
I289
sg31
VSlaking
p484
sg33
g83
sg35
V31
p485
sg37
(lp486
VFocus Punch
p487
aVSlack Off
p488
aVFacade
p489
aVFaint Attack
p490
asg43
g44
sg45
VTruant
p491
sbasg47
I01
sg48
g49
sbag1
(g2
g3
Ntp492
Rp493
(dp494
g7
VSpr RS Norman.png
p495
sg9
VLeader
p496
sg11
VNorman
p497
sg13
V3100
p498
sg15
I4
sg17
g18
sg19
g20
sg21
g22
sg23
(lp499
g1
(g25
g3
Ntp500
Rp501
(dp502
g29
I0
sg31
VSpinda
p503
sg33
g83
sg35
V27
p504
sg37
(lp505
VTeeter Dance
p506
aVPsybeam
p507
aVFacade
p508
aVEncore
p509
asg43
g44
sg45
VOwn Tempo
p510
sbag1
(g25
g3
Ntp511
Rp512
(dp513
g29
I288
sg31
VVigoroth
p514
sg33
g83
sg35
V27
p515
sg37
(lp516
VSlash
p517
aVFacade
p518
aVEncore
p519
aVFaint Attack
p520
asg43
g44
sg45
VVital Spirit
p521
sbag1
(g25
g3
Ntp522
Rp523
(dp524
g29
I264
sg31
VLinoone
p525
sg33
g83
sg35
V29
p526
sg37
(lp527
VSlash
p528
aVBelly Drum
p529
aVFacade
p530
aVHeadbutt
p531
asg43
g44
sg45
VPickup
p532
sbag1
(g25
g3
Ntp533
Rp534
(dp535
g29
I289
sg31
VSlaking
p536
sg33
g83
sg35
V31
p537
sg37
(lp538
VCounter
p539
aVYawn
p540
aVFacade
p541
aVFaint Attack
p542
asg43
VSitrus Berry
p543
sg45
VTruant
p544
sbasg47
I01
sg48
g49
sbag1
(g2
g3
Ntp545
Rp546
(dp547
g7
VSpr RS Norman.png
p548
sg9
VLeader
p549
sg11
VNorman
p550
sg13
V9000
p551
sg15
I4
sg17
g18
sg19
g20
sg21
g22
sg23
(lp552
g1
(g25
g3
Ntp553
Rp554
(dp555
g29
I113
sg31
VChansey
p556
sg33
g34
sg35
V42
p557
sg37
(lp558
VLight Screen
p559
aVSing
p560
aVSkill Swap
p561
aVFocus Punch
p562
asg43
g44
sg45
VNatural Cure
p563
sbag1
(g25
g3
Ntp564
Rp565
(dp566
g29
I289
sg31
VSlaking
p567
sg33
g83
sg35
V42
p568
sg37
(lp569
VBlizzard
p570
aVShadow Ball
p571
aVDouble-Edge
p572
aVFire Blast
p573
asg43
VSitrus Berry
p574
sg45
VTruant
p575
sbag1
(g25
g3
Ntp576
Rp577
(dp578
g29
I0
sg31
VSpinda
p579
sg33
g83
sg35
V43
p580
sg37
(lp581
VTeeter Dance
p582
aVSkill Swap
p583
aVFacade
p584
aVHypnosis
p585
asg43
g44
sg45
VOwn Tempo
p586
sbag1
(g25
g3
Ntp587
Rp588
(dp589
g29
I289
sg31
VSlaking
p590
sg33
g83
sg35
V45
p591
sg37
(lp592
VHyper Beam
p593
aVFlamethrower
p594
aVThunderbolt
p595
aVShadow Ball
p596
asg43
VSitrus Berry
p597
sg45
VTruant
p598
sbasg47
I01
sg48
g49
sbag1
(g2
g3
Ntp599
Rp600
(dp601
g7
VSpr RS Norman.png
p602
sg9
VLeader
p603
sg11
VNorman
p604
sg13
V10000
p605
sg15
I5
sg17
g18
sg19
g20
sg21
g22
sg23
(lp606
g1
(g25
g3
Ntp607
Rp608
(dp609
g29
I289
sg31
VSlaking
p610
sg33
g83
sg35
V47
p611
sg37
(lp612
VBlizzard
p613
aVShadow Ball
p614
aVDouble-Edge
p615
aVFire Blast
p616
asg43
VSitrus Berry
p617
sg45
VTruant
p618
sbag1
(g25
g3
Ntp619
Rp620
(dp621
g29
I113
sg31
VChansey
p622
sg33
g34
sg35
V47
p623
sg37
(lp624
VLight Screen
p625
aVSing
p626
aVSkill Swap
p627
aVFocus Punch
p628
asg43
g44
sg45
VNatural Cure
p629
sbag1
(g25
g3
Ntp630
Rp631
(dp632
g29
I115
sg31
VKangaskhan
p633
sg33
g34
sg35
V45
p634
sg37
(lp635
VFake Out
p636
aVDizzy Punch
p637
aVEndure
p638
aVReversal
p639
asg43
g44
sg45
VEarly Bird
p640
sbag1
(g25
g3
Ntp641
Rp642
(dp643
g29
I0
sg31
VSpinda
p644
sg33
g83
sg35
V48
p645
sg37
(lp646
VTeeter Dance
p647
aVSkill Swap
p648
aVFacade
p649
aVHypnosis
p650
asg43
g44
sg45
VOwn Tempo
p651
sbag1
(g25
g3
Ntp652
Rp653
(dp654
g29
I289
sg31
VSlaking
p655
sg33
g83
sg35
V50
p656
sg37
(lp657
VHyper Beam
p658
aVFlamethrower
p659
aVThunderbolt
p660
aVShadow Ball
p661
asg43
VSitrus Berry
p662
sg45
VTruant
p663
sbasg47
I01
sg48
g49
sbag1
(g2
g3
Ntp664
Rp665
(dp666
g7
VSpr RS Norman.png
p667
sg9
VLeader
p668
sg11
VNorman
p669
sg13
V11000
p670
sg15
I5
sg17
g18
sg19
g20
sg21
g22
sg23
(lp671
g1
(g25
g3
Ntp672
Rp673
(dp674
g29
I289
sg31
VSlaking
p675
sg33
g83
sg35
V52
p676
sg37
(lp677
VBlizzard
p678
aVShadow Ball
p679
aVDouble-Edge
p680
aVFire Blast
p681
asg43
VSitrus Berry
p682
sg45
VTruant
p683
sbag1
(g25
g3
Ntp684
Rp685
(dp686
g29
I242
sg31
VBlissey
p687
sg33
g34
sg35
V52
p688
sg37
(lp689
VLight Screen
p690
aVSing
p691
aVSkill Swap
p692
aVFocus Punch
p693
asg43
g44
sg45
VNatural Cure
p694
sbag1
(g25
g3
Ntp695
Rp696
(dp697
g29
I115
sg31
VKangaskhan
p698
sg33
g34
sg35
V50
p699
sg37
(lp700
VFake Out
p701
aVDizzy Punch
p702
aVEndure
p703
aVReversal
p704
asg43
g44
sg45
VEarly Bird
p705
sbag1
(g25
g3
Ntp706
Rp707
(dp708
g29
I0
sg31
VSpinda
p709
sg33
g83
sg35
V53
p710
sg37
(lp711
VTeeter Dance
p712
aVSkill Swap
p713
aVFacade
p714
aVHypnosis
p715
asg43
g44
sg45
VOwn Tempo
p716
sbag1
(g25
g3
Ntp717
Rp718
(dp719
g29
I289
sg31
VSlaking
p720
sg33
g83
sg35
V55
p721
sg37
(lp722
VHyper Beam
p723
aVFlamethrower
p724
aVThunderbolt
p725
aVShadow Ball
p726
asg43
VSitrus Berry
p727
sg45
VTruant
p728
sbasg47
I01
sg48
g49
sbag1
(g2
g3
Ntp729
Rp730
(dp731
g7
VSpr RS Norman.png
p732
sg9
VLeader
p733
sg11
VNorman
p734
sg13
V12000
p735
sg15
I6
sg17
g18
sg19
g20
sg21
g22
sg23
(lp736
g1
(g25
g3
Ntp737
Rp738
(dp739
g29
I289
sg31
VSlaking
p740
sg33
g83
sg35
V57
p741
sg37
(lp742
VBlizzard
p743
aVShadow Ball
p744
aVDouble-Edge
p745
aVFire Blast
p746
asg43
VSitrus Berry
p747
sg45
VTruant
p748
sbag1
(g25
g3
Ntp749
Rp750
(dp751
g29
I242
sg31
VBlissey
p752
sg33
g34
sg35
V57
p753
sg37
(lp754
VProtect
p755
aVSing
p756
aVSkill Swap
p757
aVFocus Punch
p758
asg43
g44
sg45
VNatural Cure
p759
sbag1
(g25
g3
Ntp760
Rp761
(dp762
g29
I115
sg31
VKangaskhan
p763
sg33
g34
sg35
V55
p764
sg37
(lp765
VFake Out
p766
aVDizzy Punch
p767
aVEndure
p768
aVReversal
p769
asg43
g44
sg45
VEarly Bird
p770
sbag1
(g25
g3
Ntp771
Rp772
(dp773
g29
I128
sg31
VTauros
p774
sg33
g83
sg35
V57
p775
sg37
(lp776
VTake Down
p777
aVProtect
p778
aVFire Blast
p779
aVEarthquake
p780
asg43
g44
sg45
VIntimidate
p781
sbag1
(g25
g3
Ntp782
Rp783
(dp784
g29
I0
sg31
VSpinda
p785
sg33
g83
sg35
V58
p786
sg37
(lp787
VTeeter Dance
p788
aVSkill Swap
p789
aVFacade
p790
aVHypnosis
p791
asg43
g44
sg45
VOwn Tempo
p792
sbag1
(g25
g3
Ntp793
Rp794
(dp795
g29
I289
sg31
VSlaking
p796
sg33
g83
sg35
V60
p797
sg37
(lp798
VHyper Beam
p799
aVFlamethrower
p800
aVThunderbolt
p801
aVShadow Ball
p802
asg43
VSitrus Berry
p803
sg45
VTruant
p804
sbasg47
I01
sg48
g49
sbag1
(g2
g3
Ntp805
Rp806
(dp807
g7
VVSNorman.png
p808
sg9
VLeader
p809
sg11
VNorman
p810
sg13
V3,600
p811
sg15
I3
sg17
g18
sg19
g20
sg21
g316
sg23
(lp812
g1
(g25
g3
Ntp813
Rp814
(dp815
g29
I289
sg31
VSlaking
p816
sg33
g83
sg35
V28
p817
sg37
(lp818
VRetaliate
p819
aVYawn
p820
aVFeint Attack
p821
aVEncore
p822
asg43
g44
sg45
VTruant
p823
sbag1
(g25
g3
Ntp824
Rp825
(dp826
g29
I288
sg31
VVigoroth
p827
sg33
g83
sg35
V28
p828
sg37
(lp829
VEncore
p830
aVFeint Attack
p831
aVRetaliate
p832
aVFury Swipes
p833
asg43
g44
sg45
VVital Spirit
p834
sbag1
(g25
g3
Ntp835
Rp836
(dp837
g29
I289
sg31
VSlaking
p838
sg33
g83
sg35
V30
p839
sg37
(lp840
VRetaliate
p841
aVFeint Attack
p842
aVSwagger
p843
aVChip Away
p844
asg43
g44
sg45
VTruant
p845
sbasg47
I01
sg48
g330
sba.