(lp0
ccopy_reg
_reconstructor
p1
(c__main__
Trainer
p2
c__builtin__
object
p3
Ntp4
Rp5
(dp6
VtSprite
p7
VSpr RG Jr Trainer M.png
p8
sVtClass
p9
VJr. Trainer\u2642
p10
sVtName
p11
V
p12
sVtMoney
p13
V220
p14
sVtPokeCount
p15
V2
p16
sVtLocation
p17
Vwiki/Pewter_Gym
p18
sVtRegion
p19
VKanto
p20
sVtGame
p21
VRGB
p22
sVtPokes
p23
(lp24
g1
(c__main__
FinishedPokemon
p25
g3
Ntp26
Rp27
(dp28
VpDexNo
p29
V050
p30
sVpSpecies
p31
VDiglett
p32
sVpGender
p33
VU
p34
sVpLevel
p35
V11
p36
sVpMoves
p37
(lp38
Vgrowl
p39
aVearthquake
p40
aVdig
p41
aVslash
p42
asVpHold
p43
g12
sVpAbility
p44
Varena-trap
p45
sbag1
(g25
g3
Ntp46
Rp47
(dp48
g29
V027
p49
sg31
VSandshrew
p50
sg33
g34
sg35
V11
p51
sg37
(lp52
Vpoison-sting
p53
aVswift
p54
aVfury-swipes
p55
aVslash
p56
asg43
g12
sg44
Vsand-veil
p57
sbasVbossFlag
p58
I00
sVtLongGame
p59
Vred-blue
p60
sbag1
(g2
g3
Ntp61
Rp62
(dp63
g7
VSpr Y Jr Trainer M.png
p64
sg9
VJr. Trainer\u2642
p65
sg11
g12
sg13
V180
p66
sg15
g16
sg17
g18
sg19
g20
sg21
VY
p67
sg23
(lp68
g1
(g25
g3
Ntp69
Rp70
(dp71
g29
V050
p72
sg31
VDiglett
p73
sg33
g34
sg35
V9
p74
sg37
(lp75
Vgrowl
p76
aVearthquake
p77
aVdig
p78
aVslash
p79
asg43
g12
sg44
Vsand-veil
p80
sbag1
(g25
g3
Ntp81
Rp82
(dp83
g29
V027
p84
sg31
VSandshrew
p85
sg33
g34
sg35
g74
sg37
(lp86
Vpoison-sting
p87
aVswift
p88
aVfury-swipes
p89
aVslash
p90
asg43
g12
sg44
Vsand-veil
p91
sbasg58
I00
sg59
Vyellow
p92
sbag1
(g2
g3
Ntp93
Rp94
(dp95
g7
VSpr GS Camper.png
p96
sg9
VCamper
p97
sg11
VJerry
p98
sg13
V740
p99
sg15
V1
p100
sg17
g18
sg19
g20
sg21
VGS
p101
sg23
(lp102
g1
(g25
g3
Ntp103
Rp104
(dp105
g29
V028
p106
sg31
VSandslash
p107
sg33
VM
p108
sg35
V37
p109
sg37
(lp110
Vswift
p111
aVfury-swipes
p112
aVslash
p113
aVsandstorm
p114
asg43
g12
sg44
Vsand-veil
p115
sbasg58
I00
sg59
Vgold-silver
p116
sbag1
(g2
g3
Ntp117
Rp118
(dp119
g7
VSpr FRLG Camper.png
p120
sg9
VCamper
p121
sg11
VLiam
p122
sg13
V220
p123
sg15
g16
sg17
g18
sg19
g20
sg21
VFRLG
p124
sg23
(lp125
g1
(g25
g3
Ntp126
Rp127
(dp128
g29
V074
p129
sg31
VGeodude
p130
sg33
g108
sg35
V10
p131
sg37
(lp132
Vrollout
p133
aVmagnitude
p134
aVmud-sport
p135
aVrock-blast
p136
asg43
g12
sg44
Vsturdy
p137
sbag1
(g25
g3
Ntp138
Rp139
(dp140
g29
V027
p141
sg31
VSandshrew
p142
sg33
g108
sg35
V11
p143
sg37
(lp144
Vfury-swipes
p145
aVslash
p146
aVsandstorm
p147
aVsand-tomb
p148
asg43
g12
sg44
Vsand-veil
p149
sbasg58
I00
sg59
Vfirered-leafgreen
p150
sbag1
(g2
g3
Ntp151
Rp152
(dp153
g7
VSpr DP Camper.png
p154
sg9
VCamper
p155
sg11
VJerry
p156
sg13
V800
p157
sg15
g100
sg17
g18
sg19
g20
sg21
VDP
p158
sg23
(lp159
g1
(g25
g3
Ntp160
Rp161
(dp162
g29
V112
p163
sg31
VRhydon
p164
sg33
g108
sg35
V50
p165
sg37
(lp166
Vmegahorn
p167
aVrock-blast
p168
aVhammer-arm
p169
aVstone-edge
p170
asg43
g12
sg44
Vrock-head
p171
sbasg58
I00
sg59
Vdiamond-pearl
p172
sbag1
(g2
g3
Ntp173
Rp174
(dp175
g7
VSpr DP Hiker.png
p176
sg9
VHiker
p177
sg11
VEdwin
p178
sg13
V1600
p179
sg15
g100
sg17
g18
sg19
g20
sg21
g158
sg23
(lp180
g1
(g25
g3
Ntp181
Rp182
(dp183
g29
V076
p184
sg31
VGolem
p185
sg33
g108
sg35
V50
p186
sg37
(lp187
Vrock-blast
p188
aVrock-polish
p189
ag189
aVstone-edge
p190
asg43
g12
sg44
Vsturdy
p191
sbasg58
I00
sg59
g172
sbag1
(g2
g3
Ntp192
Rp193
(dp194
g7
VVSPicnicker PE.png
p195
sg9
VPicnicker
p196
sg11
VAmara
p197
sg13
V140
p198
sg15
g100
sg17
g18
sg19
g20
sg21
VLGPE
p199
sg23
(lp200
g1
(g25
g3
Ntp201
Rp202
(dp203
g29
V074
p204
sg31
VGeodude
p205
sg33
VF
p206
sg35
V7
p207
sg37
(lp208
Vstone-edge
p209
aVstealth-rock
p210
aVsmack-down
p211
aVbulldoze
p212
asg43
g12
sg44
Vrock-head
p213
sbasg58
I00
sg59
Vsun-moon
p214
sbag1
(g2
g3
Ntp215
Rp216
(dp217
g7
VVSCamper PE.png
p218
sg9
VCamper
p219
sg11
VLiam
p220
sg13
V140
p221
sg15
g100
sg17
g18
sg19
g20
sg21
g199
sg23
(lp222
g1
(g25
g3
Ntp223
Rp224
(dp225
g29
V074
p226
sg31
VGeodude
p227
sg33
g108
sg35
g207
sg37
(lp228
Vstone-edge
p229
aVstealth-rock
p230
aVsmack-down
p231
aVbulldoze
p232
asg43
g12
sg44
Vrock-head
p233
sbasg58
I00
sg59
g214
sbag1
(g2
g3
Ntp234
Rp235
(dp236
g7
VSpr RG Brock.png
p237
sg9
VLeader
p238
sg11
VBrock
p239
sg13
V1386<!--gen i had no classes-->
p240
sg15
I2
sg17
g18
sg19
g20
sg21
g22
sg23
(lp241
g1
(g25
g3
Ntp242
Rp243
(dp244
g29
I74
sg31
VGeodude
p245
sg33
g34
sg35
V12
p246
sg37
(lp247
VTackle
p248
aVDefense Curl
p249
asg43
g12
sg44
Vsturdy
p250
sbag1
(g25
g3
Ntp251
Rp252
(dp253
g29
I95
sg31
VOnix
p254
sg33
g34
sg35
V14
p255
sg37
(lp256
VTackle
p257
aVScreech
p258
aVBide
p259
asg43
g12
sg44
Vsturdy
p260
sbasg58
I01
sg59
g60
sbag1
(g2
g3
Ntp261
Rp262
(dp263
g7
VSpr Y Brock.png
p264
sg9
g238
sg11
VBrock
p265
sg13
V1188
p266
sg15
I2
sg17
g18
sg19
g20
sg21
g67
sg23
(lp267
g1
(g25
g3
Ntp268
Rp269
(dp270
g29
I74
sg31
VGeodude
p271
sg33
g34
sg35
V10
p272
sg37
(lp273
VTackle
p274
asg43
g12
sg44
Vsturdy
p275
sbag1
(g25
g3
Ntp276
Rp277
(dp278
g29
I95
sg31
VOnix
p279
sg33
g34
sg35
V12
p280
sg37
(lp281
VTackle
p282
aVScreech
p283
aVBide
p284
aVBind
p285
asg43
g12
sg44
Vrock-head
p286
sbasg58
I01
sg59
g92
sbag1
(g2
g3
Ntp287
Rp288
(dp289
g7
VSpr GS Brock.png
p290
sg9
VLeader
p291
sg11
VBrock
p292
sg13
V4200
p293
sg15
I5
sg17
g18
sg19
g20
sg21
g101
sg23
(lp294
g1
(g25
g3
Ntp295
Rp296
(dp297
g29
I75
sg31
VGraveler
p298
sg33
g108
sg35
V41
p299
sg37
(lp300
VDefense Curl
p301
aVRock Slide
p302
aVRollout
p303
aVEarthquake
p304
asg43
g12
sg44
Vsturdy
p305
sbag1
(g25
g3
Ntp306
Rp307
(dp308
g29
I111
sg31
VRhyhorn
p309
sg33
g108
sg35
V41
p310
sg37
(lp311
VFury Attack
p312
aVScary Face
p313
aVEarthquake
p314
aVHorn Drill
p315
asg43
g12
sg44
Vrock-head
p316
sbag1
(g25
g3
Ntp317
Rp318
(dp319
g29
I139
sg31
VOmastar
p320
sg33
g108
sg35
V42
p321
sg37
(lp322
VBite
p323
aVSurf
p324
aVProtect
p325
aVSpike Cannon
p326
asg43
g12
sg44
Vswift-swim
p327
sbag1
(g25
g3
Ntp328
Rp329
(dp330
g29
I95
sg31
VOnix
p331
sg33
g108
sg35
V44
p332
sg37
(lp333
VBind
p334
aVRock Slide
p335
aVBide
p336
aVSandstorm
p337
asg43
g12
sg44
Vsturdy
p338
sbag1
(g25
g3
Ntp339
Rp340
(dp341
g29
I141
sg31
VKabutops
p342
sg33
g108
sg35
V42
p343
sg37
(lp344
VSlash
p345
aVSurf
p346
aVEndure
p347
aVGiga Drain
p348
asg43
g12
sg44
Vbattle-armor
p349
sbasg58
I01
sg59
g116
sbag1
(g2
g3
Ntp350
Rp351
(dp352
g7
VSpr FRLG Brock.png
p353
sg9
VLeader
p354
sg11
VBrock
p355
sg13
V1400
p356
sg15
I2
sg17
g18
sg19
g20
sg21
g124
sg23
(lp357
g1
(g25
g3
Ntp358
Rp359
(dp360
g29
I74
sg31
VGeodude
p361
sg33
g108
sg35
V12
p362
sg37
(lp363
VTackle
p364
aVDefense Curl
p365
asg43
g12
sg44
VRock Head
p366
sbag1
(g25
g3
Ntp367
Rp368
(dp369
g29
I95
sg31
VOnix
p370
sg33
g108
sg35
V14
p371
sg37
(lp372
VTackle
p373
aVBind
p374
aVRock Tomb
p375
asg43
g12
sg44
VRock Head
p376
sbasg58
I01
sg59
g150
sbag1
(g2
g3
Ntp377
Rp378
(dp379
g7
VSpr HGSS Brock.png
p380
sg9
VLeader
p381
sg11
VBrock
p382
sg13
V6240
p383
sg15
I5
sg17
g18
sg19
g20
sg21
VHGSS
p384
sg23
(lp385
g1
(g25
g3
Ntp386
Rp387
(dp388
g29
I75
sg31
VGraveler
p389
sg33
g108
sg35
V51
p390
sg37
(lp391
VEarthquake
p392
aVDefense Curl
p393
aVRock Slide
p394
aVRollout
p395
asg43
g12
sg44
VSturdy
p396
sbag1
(g25
g3
Ntp397
Rp398
(dp399
g29
I111
sg31
VRhyhorn
p400
sg33
g108
sg35
V51
p401
sg37
(lp402
VEarthquake
p403
aVScary Face
p404
aVSandstorm
p405
aVHorn Drill
p406
asg43
g12
sg44
VSturdy<!--DO NOT CHANGE! This is an error in the game-->
p407
sbag1
(g25
g3
Ntp408
Rp409
(dp410
g29
I139
sg31
VOmastar
p411
sg33
g108
sg35
V53
p412
sg37
(lp413
VSpike Cannon
p414
aVAncientPower
p415
aVBrine
p416
aVProtect
p417
asg43
g12
sg44
VSwift Swim
p418
sbag1
(g25
g3
Ntp419
Rp420
(dp421
g29
I95
sg31
VOnix
p422
sg33
g108
sg35
V54
p423
sg37
(lp424
VRock Slide
p425
aVIron Tail
p426
aVSandstorm
p427
aVScreech
p428
asg43
VSitrus Berry
p429
sg44
VSturdy
p430
sbag1
(g25
g3
Ntp431
Rp432
(dp433
g29
I141
sg31
VKabutops
p434
sg33
g108
sg35
V52
p435
sg37
(lp436
VRock Slide
p437
aVAqua Jet
p438
aVEndure
p439
aVGiga Drain
p440
asg43
g12
sg44
VSwift Swim
p441
sbasg58
I01
sg59
Vheartgold-soulsilver
p442
sbag1
(g2
g3
Ntp443
Rp444
(dp445
g7
VVSBrock PE.png
p446
sg9
VGym Leader
p447
sg11
VBrock
p448
sg13
V1,920
p449
sg15
I2
sg17
g18
sg19
g20
sg21
g199
sg23
(lp450
g1
(g25
g3
Ntp451
Rp452
(dp453
g29
I74
sg31
VGeodude
p454
sg33
g108
sg35
V11
p455
sg37
(lp456
VTackle
p457
asg43
g12
sg44
Vrock-head
p458
sbag1
(g25
g3
Ntp459
Rp460
(dp461
g29
I95
sg31
VOnix
p462
sg33
g108
sg35
V12
p463
sg37
(lp464
VHeadbutt
p465
aVBind
p466
aVRock Throw
p467
asg43
g12
sg44
Vrock-head
p468
sbasg58
I01
sg59
g214
sbag1
(g2
g3
Ntp469
Rp470
(dp471
g7
VVSBrock PE.png
p472
sg9
VGym Leader
p473
sg11
VBrock
p474
sg13
V13,680
p475
sg15
I5
sg17
g18
sg19
g20
sg21
g199
sg23
(lp476
g1
(g25
g3
Ntp477
Rp478
(dp479
g29
I95
sg31
VOnix
p480
sg33
g108
sg35
V56
p481
sg37
(lp482
VStealth Rock
p483
aVIron Tail
p484
aVRock Slide
p485
aVEarthquake
p486
asg43
g12
sg44
Vrock-head
p487
sbag1
(g25
g3
Ntp488
Rp489
(dp490
g29
I141
sg31
VKabutops
p491
sg33
g206
sg35
V56
p492
sg37
(lp493
VX-Scissor
p494
aVRock Slide
p495
aVAqua Jet
p496
aVBrick Break
p497
asg43
g12
sg44
Vswift-swim
p498
sbag1
(g25
g3
Ntp499
Rp500
(dp501
g29
I139
sg31
VOmastar
p502
sg33
g108
sg35
V56
p503
sg37
(lp504
VBlizzard
p505
aVHydro Pump
p506
aVSeismic Toss
p507
aVReflect
p508
asg43
g12
sg44
Vshell-armor
p509
sbag1
(g25
g3
Ntp510
Rp511
(dp512
g29
I142
sg31
VAerodactyl
p513
sg33
g108
sg35
V56
p514
sg37
(lp515
VCrunch
p516
aVRock Slide
p517
aVEarthquake
p518
aVIron Tail
p519
asg43
g12
sg44
Vrock-head
p520
sbag1
(g25
g3
Ntp521
Rp522
(dp523
g29
I76
sg31
VGolem
p524
sg33
g108
sg35
V57
p525
sg37
(lp526
VEarthquake
p527
aVRock Slide
p528
aVFire Punch
p529
aVThunder Punch
p530
asg43
g12
sg44
Vrock-head
p531
sbasg58
I01
sg59
g214
sba.