(lp0
ccopy_reg
_reconstructor
p1
(c__main__
Trainer
p2
c__builtin__
object
p3
Ntp4
Rp5
(dp6
VtSprite
p7
VSpr B2W2 Plasma Grunt M.png
p8
sVtClass
p9
VTeam Plasma Grunt
p10
sVtName
p11
V
p12
sVtMoney
p13
g1
(cmwparserfromhell.wikicode
Wikicode
p14
g3
Ntp15
Rp16
(dp17
V_nodes
p18
g1
(cmwparserfromhell.smart_list.smart_list
SmartList
p19
c__builtin__
list
p20
(lp21
g1
(cmwparserfromhell.nodes.text
Text
p22
g3
Ntp23
Rp24
(dp25
V_value
p26
V1840
p27
sbatp28
Rp29
(dp30
V_children
p31
(dp32
sbsbsVtPokeCount
p33
V2
p34
sVtLocation
p35
Vwiki/Plasma_Frigate
p36
sVtRegion
p37
VUnova
p38
sVtGame
p39
VB2W2
p40
sVtPokes
p41
(lp42
g1
(c__main__
FinishedPokemon
p43
g3
Ntp44
Rp45
(dp46
VpDexNo
p47
V505
p48
sVpSpecies
p49
VWatchog
p50
sVpGender
p51
VM
p52
sVpLevel
p53
V46
p54
sVpMoves
p55
(lp56
Vbaton-pass
p57
aVcrunch
p58
aVpsych-up
p59
aVafter-you
p60
asVpHold
p61
g12
sVpAbility
p62
Vkeen-eye
p63
sbag1
(g43
g3
Ntp64
Rp65
(dp66
g47
V569
p67
sg49
VGarbodor
p68
sg51
g52
sg53
V46
p69
sg55
(lp70
Vtoxic-spikes
p71
aVgunk-shot
p72
aVacid-spray
p73
aVclear-smog
p74
asg61
g12
sg62
Vstench
p75
sbasVbossFlag
p76
I00
sVtLongGame
p77
Vblack-2-white-2
p78
sbag1
(g2
g3
Ntp79
Rp80
(dp81
g7
VSpr B2W2 Plasma Grunt M.png
p82
sg9
VTeam Plasma Grunt
p83
sg11
g12
sg13
g1
(g14
g3
Ntp84
Rp85
(dp86
g18
g1
(g19
g20
(lp87
g1
(g22
g3
Ntp88
Rp89
(dp90
g26
V1840
p91
sbatp92
Rp93
(dp94
g31
(dp95
sbsbsg33
g34
sg35
g36
sg37
g38
sg39
g40
sg41
(lp96
g1
(g43
g3
Ntp97
Rp98
(dp99
g47
V042
p100
sg49
VGolbat
p101
sg51
g52
sg53
V46
p102
sg55
(lp103
Vastonish
p104
aVair-cutter
p105
aVair-slash
p106
aVacrobatics
p107
asg61
g12
sg62
Vinner-focus
p108
sbag1
(g43
g3
Ntp109
Rp110
(dp111
g47
V452
p112
sg49
VDrapion
p113
sg51
g52
sg53
V46
p114
sg55
(lp115
Vcross-poison
p116
aVbug-bite
p117
aVhone-claws
p118
aVvenoshock
p119
asg61
g12
sg62
Vbattle-armor
p120
sbasg76
I00
sg77
g78
sbag1
(g2
g3
Ntp121
Rp122
(dp123
g7
VSpr B2W2 Plasma Grunt F.png
p124
sg9
VTeam Plasma Grunt
p125
sg11
g12
sg13
g1
(g14
g3
Ntp126
Rp127
(dp128
g18
g1
(g19
g20
(lp129
g1
(g22
g3
Ntp130
Rp131
(dp132
g26
V1840
p133
sbatp134
Rp135
(dp136
g31
(dp137
sbsbsg33
g34
sg35
g36
sg37
g38
sg39
g40
sg41
(lp138
g1
(g43
g3
Ntp139
Rp140
(dp141
g47
V336
p142
sg49
VSeviper
p143
sg51
VF
p144
sg53
V46
p145
sg55
(lp146
Vpoison-jab
p147
aVnight-slash
p148
aVvenoshock
p149
aVcoil
p150
asg61
g12
sg62
Vshed-skin
p151
sbag1
(g43
g3
Ntp152
Rp153
(dp154
g47
V569
p155
sg49
VGarbodor
p156
sg51
g144
sg53
V46
p157
sg55
(lp158
Vtoxic-spikes
p159
aVgunk-shot
p160
aVacid-spray
p161
aVclear-smog
p162
asg61
g12
sg62
Vweak-armor
p163
sbasg76
I00
sg77
g78
sbag1
(g2
g3
Ntp164
Rp165
(dp166
g7
VSpr B2W2 Plasma Grunt M.png
p167
sg9
VTeam Plasma Grunt
p168
sg11
g12
sg13
g1
(g14
g3
Ntp169
Rp170
(dp171
g18
g1
(g19
g20
(lp172
g1
(g22
g3
Ntp173
Rp174
(dp175
g26
V1880
p176
sbatp177
Rp178
(dp179
g31
(dp180
sbsbsg33
V1
p181
sg35
g36
sg37
g38
sg39
g40
sg41
(lp182
g1
(g43
g3
Ntp183
Rp184
(dp185
g47
V553
p186
sg49
VKrookodile
p187
sg51
g52
sg53
V47
p188
sg55
(lp189
Vsand-tomb
p190
aVassurance
p191
aVembargo
p192
aVfoul-play
p193
asg61
g12
sg62
Vintimidate
p194
sbasg76
I00
sg77
g78
sbag1
(g2
g3
Ntp195
Rp196
(dp197
g7
VSpr B2W2 Plasma Grunt F.png
p198
sg9
VTeam Plasma Grunt
p199
sg11
g12
sg13
g1
(g14
g3
Ntp200
Rp201
(dp202
g18
g1
(g19
g20
(lp203
g1
(g22
g3
Ntp204
Rp205
(dp206
g26
V1880
p207
sbatp208
Rp209
(dp210
g31
(dp211
sbsbsg33
g181
sg35
g36
sg37
g38
sg39
g40
sg41
(lp212
g1
(g43
g3
Ntp213
Rp214
(dp215
g47
V452
p216
sg49
VDrapion
p217
sg51
g144
sg53
V47
p218
sg55
(lp219
Vcross-poison
p220
aVbug-bite
p221
aVhone-claws
p222
aVvenoshock
p223
asg61
g12
sg62
Vsniper
p224
sbasg76
I00
sg77
g78
sbag1
(g2
g3
Ntp225
Rp226
(dp227
g7
VSpr B2W2 Plasma Grunt M.png
p228
sg9
VTeam Plasma Grunt
p229
sg11
g12
sg13
g1
(g14
g3
Ntp230
Rp231
(dp232
g18
g1
(g19
g20
(lp233
g1
(g22
g3
Ntp234
Rp235
(dp236
g26
V1880
p237
sbatp238
Rp239
(dp240
g31
(dp241
sbsbsg33
g181
sg35
g36
sg37
g38
sg39
g40
sg41
(lp242
g1
(g43
g3
Ntp243
Rp244
(dp245
g47
V569
p246
sg49
VGarbodor
p247
sg51
g52
sg53
V47
p248
sg55
(lp249
Vtoxic-spikes
p250
aVgunk-shot
p251
aVacid-spray
p252
aVclear-smog
p253
asg61
g12
sg62
Vweak-armor
p254
sbasg76
I00
sg77
g78
sbag1
(g2
g3
Ntp255
Rp256
(dp257
g7
VSpr B2W2 Plasma Grunt M.png
p258
sg9
VTeam Plasma Grunt
p259
sg11
g12
sg13
g1
(g14
g3
Ntp260
Rp261
(dp262
g18
g1
(g19
g20
(lp263
g1
(g22
g3
Ntp264
Rp265
(dp266
g26
V1840
p267
sbatp268
Rp269
(dp270
g31
(dp271
sbsbsg33
g34
sg35
g36
sg37
g38
sg39
g40
sg41
(lp272
g1
(g43
g3
Ntp273
Rp274
(dp275
g47
V544
p276
sg49
VWhirlipede
p277
sg51
g52
sg53
V46
p278
sg55
(lp279
Vrock-climb
p280
aVbug-bite
p281
aVvenoshock
p282
aVsteamroller
p283
asg61
g12
sg62
Vpoison-point
p284
sbag1
(g43
g3
Ntp285
Rp286
(dp287
g47
V505
p288
sg49
VWatchog
p289
sg51
g52
sg53
V46
p290
sg55
(lp291
Vbaton-pass
p292
aVcrunch
p293
aVpsych-up
p294
aVafter-you
p295
asg61
g12
sg62
Vkeen-eye
p296
sbasg76
I00
sg77
g78
sbag1
(g2
g3
Ntp297
Rp298
(dp299
g7
VSpr B2W2 Plasma Grunt F.png
p300
sg9
VTeam Plasma Grunt
p301
sg11
g12
sg13
g1
(g14
g3
Ntp302
Rp303
(dp304
g18
g1
(g19
g20
(lp305
g1
(g22
g3
Ntp306
Rp307
(dp308
g26
V1800
p309
sbatp310
Rp311
(dp312
g31
(dp313
sbsbsg33
V3
p314
sg35
g36
sg37
g38
sg39
g40
sg41
(lp315
g1
(g43
g3
Ntp316
Rp317
(dp318
g47
V624
p319
sg49
VPawniard
p320
sg51
g144
sg53
V45
p321
sg55
(lp322
Vassurance
p323
aVembargo
p324
aVnight-slash
p325
aViron-head
p326
asg61
g12
sg62
Vdefiant
p327
sbag1
(g43
g3
Ntp328
Rp329
(dp330
g47
V624
p331
sg49
VPawniard
p332
sg51
g144
sg53
V45
p333
sg55
(lp334
Vassurance
p335
aVembargo
p336
aVnight-slash
p337
aViron-head
p338
asg61
g12
sg62
Vinner-focus
p339
sbag1
(g43
g3
Ntp340
Rp341
(dp342
g47
V624
p343
sg49
VPawniard
p344
sg51
g144
sg53
V45
p345
sg55
(lp346
Vassurance
p347
aVembargo
p348
aVnight-slash
p349
aViron-head
p350
asg61
g12
sg62
Vdefiant
p351
sbasg76
I00
sg77
g78
sbag1
(g2
g3
Ntp352
Rp353
(dp354
g7
VSpr B2W2 Plasma Grunt F.png
p355
sg9
VTeam Plasma Grunt
p356
sg11
g12
sg13
g1
(g14
g3
Ntp357
Rp358
(dp359
g18
g1
(g19
g20
(lp360
g1
(g22
g3
Ntp361
Rp362
(dp363
g26
V1840
p364
sbatp365
Rp366
(dp367
g31
(dp368
sbsbsg33
g34
sg35
g36
sg37
g38
sg39
g40
sg41
(lp369
g1
(g43
g3
Ntp370
Rp371
(dp372
g47
V559
p373
sg49
VScraggy
p374
sg51
g144
sg53
V46
p375
sg55
(lp376
Vpayback
p377
aVrock-climb
p378
aVhead-smash
p379
aVchip-away
p380
asg61
g12
sg62
Vmoxie
p381
sbag1
(g43
g3
Ntp382
Rp383
(dp384
g47
V510
p385
sg49
VLiepard
p386
sg51
g144
sg53
V46
p387
sg55
(lp388
Vsucker-punch
p389
aVnight-slash
p390
aVnasty-plot
p391
aVhone-claws
p392
asg61
g12
sg62
Vunburden
p393
sbasg76
I00
sg77
g78
sbag1
(g2
g3
Ntp394
Rp395
(dp396
g7
VSpr B2W2 Plasma Grunt M.png
p397
sg9
VTeam Plasma Grunt
p398
sg11
g12
sg13
g1
(g14
g3
Ntp399
Rp400
(dp401
g18
g1
(g19
g20
(lp402
g1
(g22
g3
Ntp403
Rp404
(dp405
g26
V1880
p406
sbatp407
Rp408
(dp409
g31
(dp410
sbsbsg33
g181
sg35
g36
sg37
g38
sg39
g40
sg41
(lp411
g1
(g43
g3
Ntp412
Rp413
(dp414
g47
V110
p415
sg49
VWeezing
p416
sg51
g52
sg53
V47
p417
sg55
(lp418
Vmemento
p419
aVassurance
p420
aVdouble-hit
p421
aVclear-smog
p422
asg61
g12
sg62
Vlevitate
p423
sbasg76
I00
sg77
g78
sbag1
(g2
g3
Ntp424
Rp425
(dp426
g7
VSpr B2W2 Plasma Grunt M.png
p427
sg9
VTeam Plasma Grunt
p428
sg11
g12
sg13
g1
(g14
g3
Ntp429
Rp430
(dp431
g18
g1
(g19
g20
(lp432
g1
(g22
g3
Ntp433
Rp434
(dp435
g26
V1840
p436
sbatp437
Rp438
(dp439
g31
(dp440
sbsbsg33
g34
sg35
g36
sg37
g38
sg39
g40
sg41
(lp441
g1
(g43
g3
Ntp442
Rp443
(dp444
g47
V552
p445
sg49
VKrokorok
p446
sg51
g52
sg53
V46
p447
sg55
(lp448
Vsand-tomb
p449
aVassurance
p450
aVembargo
p451
aVfoul-play
p452
asg61
g12
sg62
Vintimidate
p453
sbag1
(g43
g3
Ntp454
Rp455
(dp456
g47
V020
p457
sg49
VRaticate
p458
sg51
g52
sg53
V46
p459
sg55
(lp460
Vcrunch
p461
aVendeavor
p462
aVassurance
p463
aVsucker-punch
p464
asg61
g12
sg62
Vrun-away
p465
sbasg76
I00
sg77
g78
sbag1
(g2
g3
Ntp466
Rp467
(dp468
g7
VSpr B2W2 Plasma Grunt F.png
p469
sg9
VTeam Plasma Grunt
p470
sg11
g12
sg13
g1
(g14
g3
Ntp471
Rp472
(dp473
g18
g1
(g19
g20
(lp474
g1
(g22
g3
Ntp475
Rp476
(dp477
g26
V1800
p478
sbatp479
Rp480
(dp481
g31
(dp482
sbsbsg33
g314
sg35
g36
sg37
g38
sg39
g40
sg41
(lp483
g1
(g43
g3
Ntp484
Rp485
(dp486
g47
V633
p487
sg49
VDeino
p488
sg51
g144
sg53
V45
p489
sg55
(lp490
Vhyper-voice
p491
aVdragon-pulse
p492
aVdragon-rush
p493
aVwork-up
p494
asg61
g12
sg62
Vhustle
p495
sbag1
(g43
g3
Ntp496
Rp497
(dp498
g47
V633
p499
sg49
VDeino
p500
sg51
g144
sg53
V45
p501
sg55
(lp502
Vhyper-voice
p503
aVdragon-pulse
p504
aVdragon-rush
p505
aVwork-up
p506
asg61
g12
sg62
Vhustle
p507
sbag1
(g43
g3
Ntp508
Rp509
(dp510
g47
V215
p511
sg49
VSneasel
p512
sg51
g144
sg53
V45
p513
sg55
(lp514
Vsnatch
p515
aVpunishment
p516
aVice-shard
p517
aVhone-claws
p518
asg61
g12
sg62
Vinner-focus
p519
sbasg76
I00
sg77
g78
sbag1
(g2
g3
Ntp520
Rp521
(dp522
g7
VSpr B2W2 Plasma Grunt M.png
p523
sg9
VTeam Plasma Grunt
p524
sg11
g12
sg13
g1
(g14
g3
Ntp525
Rp526
(dp527
g18
g1
(g19
g20
(lp528
g1
(g22
g3
Ntp529
Rp530
(dp531
g26
V1800
p532
sbatp533
Rp534
(dp535
g31
(dp536
sbsbsg33
g314
sg35
g36
sg37
g38
sg39
g40
sg41
(lp537
g1
(g43
g3
Ntp538
Rp539
(dp540
g47
V559
p541
sg49
VScraggy
p542
sg51
g52
sg53
V45
p543
sg55
(lp544
Vpayback
p545
aVrock-climb
p546
aVhead-smash
p547
aVchip-away
p548
asg61
g12
sg62
Vmoxie
p549
sbag1
(g43
g3
Ntp550
Rp551
(dp552
g47
V552
p553
sg49
VKrokorok
p554
sg51
g52
sg53
V45
p555
sg55
(lp556
Vsand-tomb
p557
aVassurance
p558
aVembargo
p559
aVfoul-play
p560
asg61
g12
sg62
Vmoxie
p561
sbag1
(g43
g3
Ntp562
Rp563
(dp564
g47
V042
p565
sg49
VGolbat
p566
sg51
g52
sg53
V45
p567
sg55
(lp568
Vastonish
p569
aVair-cutter
p570
aVair-slash
p571
aVacrobatics
p572
asg61
g12
sg62
Vinner-focus
p573
sbasg76
I00
sg77
g78
sbag1
(g2
g3
Ntp574
Rp575
(dp576
g7
VSpr B2W2 Plasma Grunt F.png
p577
sg9
VTeam Plasma Grunt
p578
sg11
g12
sg13
g1
(g14
g3
Ntp579
Rp580
(dp581
g18
g1
(g19
g20
(lp582
g1
(g22
g3
Ntp583
Rp584
(dp585
g26
V1880
p586
sbatp587
Rp588
(dp589
g31
(dp590
sbsbsg33
g181
sg35
g36
sg37
g38
sg39
g40
sg41
(lp591
g1
(g43
g3
Ntp592
Rp593
(dp594
g47
V560
p595
sg49
VScrafty
p596
sg51
g144
sg53
V47
p597
sg55
(lp598
Vpayback
p599
aVrock-climb
p600
aVhead-smash
p601
aVchip-away
p602
asg61
g12
sg62
Vmoxie
p603
sbasg76
I00
sg77
g78
sbag1
(g2
g3
Ntp604
Rp605
(dp606
g7
VSpr B2W2 Plasma Grunt M.png
p607
sg9
VTeam Plasma Grunt
p608
sg11
g12
sg13
g1
(g14
g3
Ntp609
Rp610
(dp611
g18
g1
(g19
g20
(lp612
g1
(g22
g3
Ntp613
Rp614
(dp615
g26
V1880
p616
sbatp617
Rp618
(dp619
g31
(dp620
sbsbsg33
g181
sg35
g36
sg37
g38
sg39
g40
sg41
(lp621
g1
(g43
g3
Ntp622
Rp623
(dp624
g47
V110
p625
sg49
VWeezing
p626
sg51
g52
sg53
V47
p627
sg55
(lp628
Vmemento
p629
aVassurance
p630
aVdouble-hit
p631
aVclear-smog
p632
asg61
g12
sg62
Vlevitate
p633
sbasg76
I00
sg77
g78
sbag1
(g2
g3
Ntp634
Rp635
(dp636
g7
VSpr B2W2 Plasma Grunt F.png
p637
sg9
VTeam Plasma Grunt
p638
sg11
g12
sg13
g1
(g14
g3
Ntp639
Rp640
(dp641
g18
g1
(g19
g20
(lp642
g1
(g22
g3
Ntp643
Rp644
(dp645
g26
V1800
p646
sbatp647
Rp648
(dp649
g31
(dp650
sbsbsg33
g314
sg35
g36
sg37
g38
sg39
g40
sg41
(lp651
g1
(g43
g3
Ntp652
Rp653
(dp654
g47
V624
p655
sg49
VPawniard
p656
sg51
g144
sg53
V45
p657
sg55
(lp658
Vassurance
p659
aVembargo
p660
aVnight-slash
p661
aViron-head
p662
asg61
g12
sg62
Vdefiant
p663
sbag1
(g43
g3
Ntp664
Rp665
(dp666
g47
V624
p667
sg49
VPawniard
p668
sg51
g144
sg53
V45
p669
sg55
(lp670
Vassurance
p671
aVembargo
p672
aVnight-slash
p673
aViron-head
p674
asg61
g12
sg62
Vinner-focus
p675
sbag1
(g43
g3
Ntp676
Rp677
(dp678
g47
V624
p679
sg49
VPawniard
p680
sg51
g144
sg53
V45
p681
sg55
(lp682
Vassurance
p683
aVembargo
p684
aVnight-slash
p685
aViron-head
p686
asg61
g12
sg62
Vdefiant
p687
sbasg76
I00
sg77
g78
sbag1
(g2
g3
Ntp688
Rp689
(dp690
g7
VSpr B2W2 Plasma Grunt M.png
p691
sg9
VTeam Plasma Grunt
p692
sg11
g12
sg13
g1
(g14
g3
Ntp693
Rp694
(dp695
g18
g1
(g19
g20
(lp696
g1
(g22
g3
Ntp697
Rp698
(dp699
g26
V1880
p700
sbatp701
Rp702
(dp703
g31
(dp704
sbsbsg33
g181
sg35
g36
sg37
g38
sg39
g40
sg41
(lp705
g1
(g43
g3
Ntp706
Rp707
(dp708
g47
V569
p709
sg49
VGarbodor
p710
sg51
g52
sg53
V47
p711
sg55
(lp712
Vtoxic-spikes
p713
aVgunk-shot
p714
aVacid-spray
p715
aVclear-smog
p716
asg61
g12
sg62
Vweak-armor
p717
sbasg76
I00
sg77
g78
sbag1
(g2
g3
Ntp718
Rp719
(dp720
g7
VSpr B2W2 Plasma Grunt F.png
p721
sg9
VTeam Plasma Grunt
p722
sg11
g12
sg13
g1
(g14
g3
Ntp723
Rp724
(dp725
g18
g1
(g19
g20
(lp726
g1
(g22
g3
Ntp727
Rp728
(dp729
g26
V1880
p730
sbatp731
Rp732
(dp733
g31
(dp734
sbsbsg33
g181
sg35
g36
sg37
g38
sg39
g40
sg41
(lp735
g1
(g43
g3
Ntp736
Rp737
(dp738
g47
V452
p739
sg49
VDrapion
p740
sg51
g144
sg53
V47
p741
sg55
(lp742
Vcross-poison
p743
aVbug-bite
p744
aVhone-claws
p745
aVvenoshock
p746
asg61
g12
sg62
Vbattle-armor
p747
sbasg76
I00
sg77
g78
sbag1
(g2
g3
Ntp748
Rp749
(dp750
g7
VSpr B2W2 Plasma Grunt M.png
p751
sg9
VTeam Plasma Grunt
p752
sg11
g12
sg13
g1
(g14
g3
Ntp753
Rp754
(dp755
g18
g1
(g19
g20
(lp756
g1
(g22
g3
Ntp757
Rp758
(dp759
g26
V1840
p760
sbatp761
Rp762
(dp763
g31
(dp764
sbsbsg33
g34
sg35
g36
sg37
g38
sg39
g40
sg41
(lp765
g1
(g43
g3
Ntp766
Rp767
(dp768
g47
V544
p769
sg49
VWhirlipede
p770
sg51
g52
sg53
V46
p771
sg55
(lp772
Vrock-climb
p773
aVbug-bite
p774
aVvenoshock
p775
aVsteamroller
p776
asg61
g12
sg62
Vpoison-point
p777
sbag1
(g43
g3
Ntp778
Rp779
(dp780
g47
V505
p781
sg49
VWatchog
p782
sg51
g52
sg53
V46
p783
sg55
(lp784
Vbaton-pass
p785
aVcrunch
p786
aVpsych-up
p787
aVafter-you
p788
asg61
g12
sg62
Vkeen-eye
p789
sbasg76
I00
sg77
g78
sbag1
(g2
g3
Ntp790
Rp791
(dp792
g7
VSpr B2W2 Plasma Grunt M.png
p793
sg9
VTeam Plasma Grunt
p794
sg11
g12
sg13
g1
(g14
g3
Ntp795
Rp796
(dp797
g18
g1
(g19
g20
(lp798
g1
(g22
g3
Ntp799
Rp800
(dp801
g26
V1840
p802
sbatp803
Rp804
(dp805
g31
(dp806
sbsbsg33
g34
sg35
g36
sg37
g38
sg39
g40
sg41
(lp807
g1
(g43
g3
Ntp808
Rp809
(dp810
g47
V552
p811
sg49
VKrokorok
p812
sg51
g52
sg53
V46
p813
sg55
(lp814
Vsand-tomb
p815
aVassurance
p816
aVembargo
p817
aVfoul-play
p818
asg61
g12
sg62
Vintimidate
p819
sbag1
(g43
g3
Ntp820
Rp821
(dp822
g47
V020
p823
sg49
VRaticate
p824
sg51
g52
sg53
V46
p825
sg55
(lp826
Vcrunch
p827
aVendeavor
p828
aVassurance
p829
aVsucker-punch
p830
asg61
g12
sg62
Vguts
p831
sbasg76
I00
sg77
g78
sbag1
(g2
g3
Ntp832
Rp833
(dp834
g7
VSpr B2W2 Plasma Grunt F.png
p835
sg9
VTeam Plasma Grunt
p836
sg11
g12
sg13
g1
(g14
g3
Ntp837
Rp838
(dp839
g18
g1
(g19
g20
(lp840
g1
(g22
g3
Ntp841
Rp842
(dp843
g26
V1840
p844
sbatp845
Rp846
(dp847
g31
(dp848
sbsbsg33
g314
sg35
g36
sg37
g38
sg39
g40
sg41
(lp849
g1
(g43
g3
Ntp850
Rp851
(dp852
g47
V559
p853
sg49
VScraggy
p854
sg51
g144
sg53
V46
p855
sg55
(lp856
Vpayback
p857
aVrock-climb
p858
aVhead-smash
p859
aVchip-away
p860
asg61
g12
sg62
Vmoxie
p861
sbag1
(g43
g3
Ntp862
Rp863
(dp864
g47
V560
p865
sg49
VScrafty
p866
sg51
g144
sg53
V46
p867
sg55
(lp868
Vpayback
p869
aVrock-climb
p870
aVhead-smash
p871
aVchip-away
p872
asg61
g12
sg62
Vshed-skin
p873
sbag1
(g43
g3
Ntp874
Rp875
(dp876
g47
V544
p877
sg49
VWhirlipede
p878
sg51
g144
sg53
V46
p879
sg55
(lp880
Vrock-climb
p881
aVbug-bite
p882
aVvenoshock
p883
aVsteamroller
p884
asg61
g12
sg62
Vpoison-point
p885
sbasg76
I00
sg77
g78
sbag1
(g2
g3
Ntp886
Rp887
(dp888
g7
VSpr B2W2 Plasma Grunt M.png
p889
sg9
VTeam Plasma Grunt
p890
sg11
g12
sg13
g1
(g14
g3
Ntp891
Rp892
(dp893
g18
g1
(g19
g20
(lp894
g1
(g22
g3
Ntp895
Rp896
(dp897
g26
V1840
p898
sbatp899
Rp900
(dp901
g31
(dp902
sbsbsg33
g314
sg35
g36
sg37
g38
sg39
g40
sg41
(lp903
g1
(g43
g3
Ntp904
Rp905
(dp906
g47
V568
p907
sg49
VTrubbish
p908
sg51
g52
sg53
V46
p909
sg55
(lp910
Vtoxic-spikes
p911
aVgunk-shot
p912
aVacid-spray
p913
aVclear-smog
p914
asg61
g12
sg62
Vstench
p915
sbag1
(g43
g3
Ntp916
Rp917
(dp918
g47
V042
p919
sg49
VGolbat
p920
sg51
g52
sg53
V46
p921
sg55
(lp922
Vastonish
p923
aVair-cutter
p924
aVair-slash
p925
aVacrobatics
p926
asg61
g12
sg62
Vinner-focus
p927
sbag1
(g43
g3
Ntp928
Rp929
(dp930
g47
V569
p931
sg49
VGarbodor
p932
sg51
g52
sg53
V46
p933
sg55
(lp934
Vtoxic-spikes
p935
aVgunk-shot
p936
aVacid-spray
p937
aVclear-smog
p938
asg61
g12
sg62
Vstench
p939
sbasg76
I00
sg77
g78
sbag1
(g2
g3
Ntp940
Rp941
(dp942
g7
VSpr B2W2 Plasma Grunt M.png
p943
sg9
VTeam Plasma Grunt
p944
sg11
g12
sg13
g1
(g14
g3
Ntp945
Rp946
(dp947
g18
g1
(g19
g20
(lp948
g1
(g22
g3
Ntp949
Rp950
(dp951
g26
V1800
p952
sbatp953
Rp954
(dp955
g31
(dp956
sbsbsg33
g314
sg35
g36
sg37
g38
sg39
g40
sg41
(lp957
g1
(g43
g3
Ntp958
Rp959
(dp960
g47
V451
p961
sg49
VSkorupi
p962
sg51
g52
sg53
V45
p963
sg55
(lp964
Vcross-poison
p965
aVbug-bite
p966
aVhone-claws
p967
aVvenoshock
p968
asg61
g12
sg62
Vbattle-armor
p969
sbag1
(g43
g3
Ntp970
Rp971
(dp972
g47
V590
p973
sg49
VFoongus
p974
sg51
g52
sg53
V45
p975
sg55
(lp976
Vingrain
p977
aVastonish
p978
aVrage-powder
p979
aVclear-smog
p980
asg61
g12
sg62
Veffect-spore
p981
sbag1
(g43
g3
Ntp982
Rp983
(dp984
g47
V042
p985
sg49
VGolbat
p986
sg51
g52
sg53
V45
p987
sg55
(lp988
Vastonish
p989
aVair-cutter
p990
aVair-slash
p991
aVacrobatics
p992
asg61
g12
sg62
Vinner-focus
p993
sbasg76
I00
sg77
g78
sbag1
(g2
g3
Ntp994
Rp995
(dp996
g7
VSpr B2W2 Plasma Grunt M.png
p997
sg9
VTeam Plasma Grunt
p998
sg11
g12
sg13
g1
(g14
g3
Ntp999
Rp1000
(dp1001
g18
g1
(g19
g20
(lp1002
g1
(g22
g3
Ntp1003
Rp1004
(dp1005
g26
V1880
p1006
sbatp1007
Rp1008
(dp1009
g31
(dp1010
sbsbsg33
g181
sg35
g36
sg37
g38
sg39
g40
sg41
(lp1011
g1
(g43
g3
Ntp1012
Rp1013
(dp1014
g47
V553
p1015
sg49
VKrookodile
p1016
sg51
g52
sg53
V47
p1017
sg55
(lp1018
Vsand-tomb
p1019
aVassurance
p1020
aVembargo
p1021
aVfoul-play
p1022
asg61
g12
sg62
Vintimidate
p1023
sbasg76
I00
sg77
g78
sbag1
(g2
g3
Ntp1024
Rp1025
(dp1026
g7
VSpr B2W2 Doctor.png
p1027
sg9
VDoctor
p1028
sg11
VJulius
p1029
sg13
g1
(g14
g3
Ntp1030
Rp1031
(dp1032
g18
g1
(g19
g20
(lp1033
g1
(g22
g3
Ntp1034
Rp1035
(dp1036
g26
V2940
p1037
sbatp1038
Rp1039
(dp1040
g31
(dp1041
sbsbsg33
g181
sg35
g36
sg37
g38
sg39
g40
sg41
(lp1042
g1
(g43
g3
Ntp1043
Rp1044
(dp1045
g47
V542
p1046
sg49
VLeavanny
p1047
sg51
g52
sg53
V49
p1048
sg55
(lp1049
Vbug-bite
p1050
ag1050
aVentrainment
p1051
aVstruggle-bug
p1052
asg61
g12
sg62
Vchlorophyll
p1053
sbasg76
I00
sg77
g78
sbag1
(g2
g3
Ntp1054
Rp1055
(dp1056
g7
VSpr B2W2 Plasma Grunt M.png
p1057
sg9
VTeam Plasma Grunt
p1058
sg11
g12
sg13
g1
(g14
g3
Ntp1059
Rp1060
(dp1061
g18
g1
(g19
g20
(lp1062
g1
(g22
g3
Ntp1063
Rp1064
(dp1065
g26
V1880
p1066
sbatp1067
Rp1068
(dp1069
g31
(dp1070
sbsbsg33
g181
sg35
g36
sg37
g38
sg39
g40
sg41
(lp1071
g1
(g43
g3
Ntp1072
Rp1073
(dp1074
g47
V560
p1075
sg49
VScrafty
p1076
sg51
g52
sg53
V47
p1077
sg55
(lp1078
Vpayback
p1079
aVrock-climb
p1080
aVhead-smash
p1081
aVchip-away
p1082
asg61
g12
sg62
Vmoxie
p1083
sbasg76
I00
sg77
g78
sbag1
(g2
g3
Ntp1084
Rp1085
(dp1086
g7
VSpr B2W2 Plasma Grunt F.png
p1087
sg9
VTeam Plasma Grunt
p1088
sg11
g12
sg13
g1
(g14
g3
Ntp1089
Rp1090
(dp1091
g18
g1
(g19
g20
(lp1092
g1
(g22
g3
Ntp1093
Rp1094
(dp1095
g26
V1880
p1096
sbatp1097
Rp1098
(dp1099
g31
(dp1100
sbsbsg33
g181
sg35
g36
sg37
g38
sg39
g40
sg41
(lp1101
g1
(g43
g3
Ntp1102
Rp1103
(dp1104
g47
V545
p1105
sg49
VScolipede
p1106
sg51
g144
sg53
V47
p1107
sg55
(lp1108
Vrock-climb
p1109
aVbug-bite
p1110
aVvenoshock
p1111
aVsteamroller
p1112
asg61
g12
sg62
Vpoison-point
p1113
sbasg76
I00
sg77
g78
sbag1
(g2
g3
Ntp1114
Rp1115
(dp1116
g7
VSpr B2W2 Plasma Grunt F.png
p1117
sg9
VTeam Plasma Grunt
p1118
sg11
g12
sg13
g1
(g14
g3
Ntp1119
Rp1120
(dp1121
g18
g1
(g19
g20
(lp1122
g1
(g22
g3
Ntp1123
Rp1124
(dp1125
g26
V1840
p1126
sbatp1127
Rp1128
(dp1129
g31
(dp1130
sbsbsg33
g34
sg35
g36
sg37
g38
sg39
g40
sg41
(lp1131
g1
(g43
g3
Ntp1132
Rp1133
(dp1134
g47
V568
p1135
sg49
VTrubbish
p1136
sg51
g144
sg53
V46
p1137
sg55
(lp1138
Vtoxic-spikes
p1139
aVgunk-shot
p1140
aVacid-spray
p1141
aVclear-smog
p1142
asg61
g12
sg62
Vstench
p1143
sbag1
(g43
g3
Ntp1144
Rp1145
(dp1146
g47
V335
p1147
sg49
VZangoose
p1148
sg51
g144
sg53
V46
p1149
sg55
(lp1150
Vcrush-claw
p1151
aVclose-combat
p1152
aVembargo
p1153
aVx-scissor
p1154
asg61
g12
sg62
Vimmunity
p1155
sbasg76
I00
sg77
g78
sbag1
(g2
g3
Ntp1156
Rp1157
(dp1158
g7
VSpr B2W2 Plasma Grunt M.png
p1159
sg9
VTeam Plasma Grunt
p1160
sg11
g12
sg13
g1
(g14
g3
Ntp1161
Rp1162
(dp1163
g18
g1
(g19
g20
(lp1164
g1
(g22
g3
Ntp1165
Rp1166
(dp1167
g26
V1840
p1168
sbatp1169
Rp1170
(dp1171
g31
(dp1172
sbsbsg33
g34
sg35
g36
sg37
g38
sg39
g40
sg41
(lp1173
g1
(g43
g3
Ntp1174
Rp1175
(dp1176
g47
V088
p1177
sg49
VGrimer
p1178
sg51
g52
sg53
V46
p1179
sg55
(lp1180
Vfling
p1181
aVmud-bomb
p1182
aVgunk-shot
p1183
aVsludge-wave
p1184
asg61
g12
sg62
Vsticky-hold
p1185
sbag1
(g43
g3
Ntp1186
Rp1187
(dp1188
g47
V336
p1189
sg49
VSeviper
p1190
sg51
g52
sg53
V46
p1191
sg55
(lp1192
Vpoison-jab
p1193
aVnight-slash
p1194
aVvenoshock
p1195
aVcoil
p1196
asg61
g12
sg62
Vshed-skin
p1197
sbasg76
I00
sg77
g78
sbag1
(g2
g3
Ntp1198
Rp1199
(dp1200
g7
VSpr B2W2 Plasma Grunt F.png
p1201
sg9
VTeam Plasma Grunt
p1202
sg11
g12
sg13
g1
(g14
g3
Ntp1203
Rp1204
(dp1205
g18
g1
(g19
g20
(lp1206
g1
(g22
g3
Ntp1207
Rp1208
(dp1209
g26
V1880
p1210
sbatp1211
Rp1212
(dp1213
g31
(dp1214
sbsbsg33
g34
sg35
g36
sg37
g38
sg39
g40
sg41
(lp1215
g1
(g43
g3
Ntp1216
Rp1217
(dp1218
g47
V020
p1219
sg49
VRaticate
p1220
sg51
g144
sg53
V47
p1221
sg55
(lp1222
Vcrunch
p1223
aVendeavor
p1224
aVassurance
p1225
aVsucker-punch
p1226
asg61
g12
sg62
Vrun-away
p1227
sbag1
(g43
g3
Ntp1228
Rp1229
(dp1230
g47
V505
p1231
sg49
VWatchog
p1232
sg51
g144
sg53
V47
p1233
sg55
(lp1234
Vbaton-pass
p1235
aVcrunch
p1236
aVpsych-up
p1237
aVafter-you
p1238
asg61
g12
sg62
Vkeen-eye
p1239
sbasg76
I00
sg77
g78
sbag1
(g2
g3
Ntp1240
Rp1241
(dp1242
g7
VSpr B2W2 Plasma Grunt M.png
p1243
sg9
VTeam Plasma Grunt
p1244
sg11
g12
sg13
g1
(g14
g3
Ntp1245
Rp1246
(dp1247
g18
g1
(g19
g20
(lp1248
g1
(g22
g3
Ntp1249
Rp1250
(dp1251
g26
V1880
p1252
sbatp1253
Rp1254
(dp1255
g31
(dp1256
sbsbsg33
g34
sg35
g36
sg37
g38
sg39
g40
sg41
(lp1257
g1
(g43
g3
Ntp1258
Rp1259
(dp1260
g47
V552
p1261
sg49
VKrokorok
p1262
sg51
g52
sg53
V47
p1263
sg55
(lp1264
Vsand-tomb
p1265
aVassurance
p1266
aVembargo
p1267
aVfoul-play
p1268
asg61
g12
sg62
Vmoxie
p1269
sbag1
(g43
g3
Ntp1270
Rp1271
(dp1272
g47
V553
p1273
sg49
VKrookodile
p1274
sg51
g52
sg53
V47
p1275
sg55
(lp1276
Vsand-tomb
p1277
aVassurance
p1278
aVembargo
p1279
aVfoul-play
p1280
asg61
g12
sg62
Vintimidate
p1281
sbasg76
I00
sg77
g78
sbag1
(g2
g3
Ntp1282
Rp1283
(dp1284
g7
VSpr B2W2 Plasma Grunt M.png
p1285
sg9
VTeam Plasma Grunt
p1286
sg11
g12
sg13
g1
(g14
g3
Ntp1287
Rp1288
(dp1289
g18
g1
(g19
g20
(lp1290
g1
(g22
g3
Ntp1291
Rp1292
(dp1293
g26
V1880
p1294
sbatp1295
Rp1296
(dp1297
g31
(dp1298
sbsbsg33
g181
sg35
g36
sg37
g38
sg39
g40
sg41
(lp1299
g1
(g43
g3
Ntp1300
Rp1301
(dp1302
g47
V452
p1303
sg49
VDrapion
p1304
sg51
g52
sg53
V47
p1305
sg55
(lp1306
Vcross-poison
p1307
aVbug-bite
p1308
aVhone-claws
p1309
aVvenoshock
p1310
asg61
g12
sg62
Vbattle-armor
p1311
sbasg76
I00
sg77
g78
sbag1
(g2
g3
Ntp1312
Rp1313
(dp1314
g7
VSpr B2W2 Plasma Grunt F.png
p1315
sg9
VTeam Plasma Grunt
p1316
sg11
g12
sg13
g1
(g14
g3
Ntp1317
Rp1318
(dp1319
g18
g1
(g19
g20
(lp1320
g1
(g22
g3
Ntp1321
Rp1322
(dp1323
g26
V1800
p1324
sbatp1325
Rp1326
(dp1327
g31
(dp1328
sbsbsg33
g314
sg35
g36
sg37
g38
sg39
g40
sg41
(lp1329
g1
(g43
g3
Ntp1330
Rp1331
(dp1332
g47
V633
p1333
sg49
VDeino
p1334
sg51
g144
sg53
V45
p1335
sg55
(lp1336
Vhyper-voice
p1337
aVdragon-pulse
p1338
aVdragon-rush
p1339
aVwork-up
p1340
asg61
g12
sg62
Vhustle
p1341
sbag1
(g43
g3
Ntp1342
Rp1343
(dp1344
g47
V633
p1345
sg49
VDeino
p1346
sg51
g144
sg53
V45
p1347
sg55
(lp1348
Vhyper-voice
p1349
aVdragon-pulse
p1350
aVdragon-rush
p1351
aVwork-up
p1352
asg61
g12
sg62
Vhustle
p1353
sbag1
(g43
g3
Ntp1354
Rp1355
(dp1356
g47
V215
p1357
sg49
VSneasel
p1358
sg51
g144
sg53
V45
p1359
sg55
(lp1360
Vsnatch
p1361
aVpunishment
p1362
aVice-shard
p1363
aVhone-claws
p1364
asg61
g12
sg62
Vkeen-eye
p1365
sbasg76
I00
sg77
g78
sbag1
(g2
g3
Ntp1366
Rp1367
(dp1368
g7
VSpr B2W2 Plasma Grunt M.png
p1369
sg9
VTeam Plasma Grunt
p1370
sg11
g12
sg13
g1
(g14
g3
Ntp1371
Rp1372
(dp1373
g18
g1
(g19
g20
(lp1374
g1
(g22
g3
Ntp1375
Rp1376
(dp1377
g26
V1840
p1378
sbatp1379
Rp1380
(dp1381
g31
(dp1382
sbsbsg33
g34
sg35
g36
sg37
g38
sg39
g40
sg41
(lp1383
g1
(g43
g3
Ntp1384
Rp1385
(dp1386
g47
V109
p1387
sg49
VKoffing
p1388
sg51
g52
sg53
V46
p1389
sg55
(lp1390
Vmemento
p1391
aVgyro-ball
p1392
aVassurance
p1393
aVclear-smog
p1394
asg61
g12
sg62
Vlevitate
p1395
sbag1
(g43
g3
Ntp1396
Rp1397
(dp1398
g47
V591
p1399
sg49
VAmoonguss
p1400
sg51
g52
sg53
V46
p1401
sg55
(lp1402
Vastonish
p1403
ag1403
aVrage-powder
p1404
aVclear-smog
p1405
asg61
g12
sg62
Veffect-spore
p1406
sbasg76
I00
sg77
g78
sbag1
(g2
g3
Ntp1407
Rp1408
(dp1409
g7
VSpr B2W2 Zinzolin.png
p1410
sg9
VTeam Plasma
p1411
sg11
V000
p1412
sg13
g1
(g14
g3
Ntp1413
Rp1414
(dp1415
g18
g1
(g19
g20
(lp1416
g1
(g22
g3
Ntp1417
Rp1418
(dp1419
g26
V9180
p1420
sbatp1421
Rp1422
(dp1423
g31
(dp1424
sbsbsg33
I3
sg35
g36
sg37
g38
sg39
g40
sg41
(lp1425
g1
(g43
g3
Ntp1426
Rp1427
(dp1428
g47
I615
sg49
VCryogonal
p1429
sg51
VU
p1430
sg53
g1
(g14
g3
Ntp1431
Rp1432
(dp1433
g18
g1
(g19
g20
(lp1434
g1
(g22
g3
Ntp1435
Rp1436
(dp1437
g26
V49
p1438
sbatp1439
Rp1440
(dp1441
g31
(dp1442
sbsbsg55
(lp1443
VReflect
p1444
aVConfuse Ray
p1445
aVIce Beam
p1446
aVSlash
p1447
asg61
g12
sg62
VLevitate
p1448
sbag1
(g43
g3
Ntp1449
Rp1450
(dp1451
g47
I615
sg49
VCryogonal
p1452
sg51
g1430
sg53
g1
(g14
g3
Ntp1453
Rp1454
(dp1455
g18
g1
(g19
g20
(lp1456
g1
(g22
g3
Ntp1457
Rp1458
(dp1459
g26
V49
p1460
sbatp1461
Rp1462
(dp1463
g31
(dp1464
sbsbsg55
(lp1465
VLight Screen
p1466
aVConfuse Ray
p1467
aVIce Beam
p1468
aVSlash
p1469
asg61
g12
sg62
VLevitate
p1470
sbag1
(g43
g3
Ntp1471
Rp1472
(dp1473
g47
I461
sg49
VWeavile
p1474
sg51
g52
sg53
g1
(g14
g3
Ntp1475
Rp1476
(dp1477
g18
g1
(g19
g20
(lp1478
g1
(g22
g3
Ntp1479
Rp1480
(dp1481
g26
V51
p1482
sbatp1483
Rp1484
(dp1485
g31
(dp1486
sbsbsg55
(lp1487
VNight Slash
p1488
aVSlash
p1489
aVIce Shard
p1490
aVMetal Claw
p1491
asg61
g12
sg62
VPressure
p1492
sbasg76
I01
sg77
g78
sbag1
(g2
g3
Ntp1493
Rp1494
(dp1495
g7
VSpr B2W2 Colress.png
p1496
sg9
VTeam Plasma
p1497
sg11
VColress
p1498
sg13
g1
(g14
g3
Ntp1499
Rp1500
(dp1501
g18
g1
(g19
g20
(lp1502
g1
(g22
g3
Ntp1503
Rp1504
(dp1505
g26
V10400
p1506
sbatp1507
Rp1508
(dp1509
g31
(dp1510
sbsbsg33
I5
sg35
g36
sg37
g38
sg39
g40
sg41
(lp1511
g1
(g43
g3
Ntp1512
Rp1513
(dp1514
g47
I82
sg49
VMagneton
p1515
sg51
g1430
sg53
g1
(g14
g3
Ntp1516
Rp1517
(dp1518
g18
g1
(g19
g20
(lp1519
g1
(g22
g3
Ntp1520
Rp1521
(dp1522
g26
V50
p1523
sbatp1524
Rp1525
(dp1526
g31
(dp1527
sbsbsg55
(lp1528
VThunder Wave
p1529
aVVolt Switch
p1530
aVTri Attack
p1531
aVFlash Cannon
p1532
asg61
VEviolite
p1533
sg62
VSturdy
p1534
sbag1
(g43
g3
Ntp1535
Rp1536
(dp1537
g47
I606
sg49
VBeheeyem
p1538
sg51
g52
sg53
g1
(g14
g3
Ntp1539
Rp1540
(dp1541
g18
g1
(g19
g20
(lp1542
g1
(g22
g3
Ntp1543
Rp1544
(dp1545
g26
V50
p1546
sbatp1547
Rp1548
(dp1549
g31
(dp1550
sbsbsg55
(lp1551
VPsychic
p1552
aVEnergy Ball
p1553
aVCalm Mind
p1554
aVRecover
p1555
asg61
g12
sg62
VSynchronize
p1556
sbag1
(g43
g3
Ntp1557
Rp1558
(dp1559
g47
I375
sg49
VMetang
p1560
sg51
g1430
sg53
g1
(g14
g3
Ntp1561
Rp1562
(dp1563
g18
g1
(g19
g20
(lp1564
g1
(g22
g3
Ntp1565
Rp1566
(dp1567
g26
V50
p1568
sbatp1569
Rp1570
(dp1571
g31
(dp1572
sbsbsg55
(lp1573
VMeteor Mash
p1574
aVAgility
p1575
aVRock Slide
p1576
aVZen Headbutt
p1577
asg61
g12
sg62
VClear Body
p1578
sbag1
(g43
g3
Ntp1579
Rp1580
(dp1581
g47
I462
sg49
VMagnezone
p1582
sg51
g1430
sg53
g1
(g14
g3
Ntp1583
Rp1584
(dp1585
g18
g1
(g19
g20
(lp1586
g1
(g22
g3
Ntp1587
Rp1588
(dp1589
g26
V50
p1590
sbatp1591
Rp1592
(dp1593
g31
(dp1594
sbsbsg55
(lp1595
VFlash Cannon
p1596
aVDischarge
p1597
aVThunder Wave
p1598
aVExplosion
p1599
asg61
g12
sg62
VSturdy
p1600
sbag1
(g43
g3
Ntp1601
Rp1602
(dp1603
g47
I601
sg49
VKlinklang
p1604
sg51
g1430
sg53
g1
(g14
g3
Ntp1605
Rp1606
(dp1607
g18
g1
(g19
g20
(lp1608
g1
(g22
g3
Ntp1609
Rp1610
(dp1611
g26
V52
p1612
sbatp1613
Rp1614
(dp1615
g31
(dp1616
sbsbsg55
(lp1617
VShift Gear
p1618
aVGear Grind
p1619
aVThunderbolt
p1620
aVGiga Impact
p1621
asg61
VAir Balloon
p1622
sg62
VPlus
p1623
sbasg76
I01
sg77
g78
sbag1
(g2
g3
Ntp1624
Rp1625
(dp1626
g7
VSpr B2W2 Shadow Triad.png
p1627
sg9
VTeam Plasma
p1628
sg11
VShadow Triad
p1629
sg13
g1
(g14
g3
Ntp1630
Rp1631
(dp1632
g18
g1
(g19
g20
(lp1633
g1
(g22
g3
Ntp1634
Rp1635
(dp1636
g26
V5100
p1637
sbatp1638
Rp1639
(dp1640
g31
(dp1641
sbsbsg33
I3
sg35
g36
sg37
g38
sg39
g40
sg41
(lp1642
g1
(g43
g3
Ntp1643
Rp1644
(dp1645
g47
I624
sg49
VPawniard
p1646
sg51
g52
sg53
g1
(g14
g3
Ntp1647
Rp1648
(dp1649
g18
g1
(g19
g20
(lp1650
g1
(g22
g3
Ntp1651
Rp1652
(dp1653
g26
V49
p1654
sbatp1655
Rp1656
(dp1657
g31
(dp1658
sbsbsg55
(lp1659
VFaint Attack
p1660
aVSlash
p1661
aVScary Face
p1662
aVMetal Claw
p1663
asg61
g12
sg62
VDefiant
p1664
sbag1
(g43
g3
Ntp1665
Rp1666
(dp1667
g47
I624
sg49
VPawniard
p1668
sg51
g52
sg53
g1
(g14
g3
Ntp1669
Rp1670
(dp1671
g18
g1
(g19
g20
(lp1672
g1
(g22
g3
Ntp1673
Rp1674
(dp1675
g26
V49
p1676
sbatp1677
Rp1678
(dp1679
g31
(dp1680
sbsbsg55
(lp1681
VFaint Attack
p1682
aVSlash
p1683
aVHone Claws
p1684
aVMetal Claw
p1685
asg61
g12
sg62
VInner Focus
p1686
sbag1
(g43
g3
Ntp1687
Rp1688
(dp1689
g47
I359
sg49
VAbsol
p1690
sg51
g52
sg53
g1
(g14
g3
Ntp1691
Rp1692
(dp1693
g18
g1
(g19
g20
(lp1694
g1
(g22
g3
Ntp1695
Rp1696
(dp1697
g26
V51
p1698
sbatp1699
Rp1700
(dp1701
g31
(dp1702
sbsbsg55
(lp1703
VSwords Dance
p1704
aVNight Slash
p1705
aVSlash
p1706
aVFuture Sight
p1707
asg61
g12
sg62
VSuper Luck
p1708
sbasg76
I01
sg77
g78
sbag1
(g2
g3
Ntp1709
Rp1710
(dp1711
g7
V Spr B2W2 Shadow Triad.png
p1712
sg9
VTeam Plasma
p1713
sg11
VShadow Triad
p1714
sg13
g1
(g14
g3
Ntp1715
Rp1716
(dp1717
g18
g1
(g19
g20
(lp1718
g1
(g22
g3
Ntp1719
Rp1720
(dp1721
g26
V9180
p1722
sbatp1723
Rp1724
(dp1725
g31
(dp1726
sbsbsg33
I3
sg35
g36
sg37
g38
sg39
g40
sg41
(lp1727
g1
(g43
g3
Ntp1728
Rp1729
(dp1730
g47
I624
sg49
VPawniard
p1731
sg51
g52
sg53
g1
(g14
g3
Ntp1732
Rp1733
(dp1734
g18
g1
(g19
g20
(lp1735
g1
(g22
g3
Ntp1736
Rp1737
(dp1738
g26
V49
p1739
sbatp1740
Rp1741
(dp1742
g31
(dp1743
sbsbsg55
(lp1744
VFaint Attack
p1745
aVSlash
p1746
aVScary Face
p1747
aVMetal Claw
p1748
asg61
g12
sg62
VDefiant
p1749
sbag1
(g43
g3
Ntp1750
Rp1751
(dp1752
g47
I624
sg49
VPawniard
p1753
sg51
g52
sg53
g1
(g14
g3
Ntp1754
Rp1755
(dp1756
g18
g1
(g19
g20
(lp1757
g1
(g22
g3
Ntp1758
Rp1759
(dp1760
g26
V49
p1761
sbatp1762
Rp1763
(dp1764
g31
(dp1765
sbsbsg55
(lp1766
VFaint Attack
p1767
aVSlash
p1768
aVHone Claws
p1769
aVMetal Claw
p1770
asg61
g12
sg62
VInner Focus
p1771
sbag1
(g43
g3
Ntp1772
Rp1773
(dp1774
g47
I354
sg49
VBanette
p1775
sg51
g52
sg53
g1
(g14
g3
Ntp1776
Rp1777
(dp1778
g18
g1
(g19
g20
(lp1779
g1
(g22
g3
Ntp1780
Rp1781
(dp1782
g26
V51
p1783
sbatp1784
Rp1785
(dp1786
g31
(dp1787
sbsbsg55
(lp1788
VShadow Claw
p1789
aVWill-O-Wisp
p1790
aVPsychic
p1791
aVSucker Punch
p1792
asg61
g12
sg62
VInsomnia
p1793
sbasg76
I01
sg77
g78
sbag1
(g2
g3
Ntp1794
Rp1795
(dp1796
g7
V Spr B2W2 Shadow Triad.png
p1797
sg9
VTeam Plasma
p1798
sg11
VShadow Triad
p1799
sg13
g1
(g14
g3
Ntp1800
Rp1801
(dp1802
g18
g1
(g19
g20
(lp1803
g1
(g22
g3
Ntp1804
Rp1805
(dp1806
g26
V9180
p1807
sbatp1808
Rp1809
(dp1810
g31
(dp1811
sbsbsg33
I3
sg35
g36
sg37
g38
sg39
g40
sg41
(lp1812
g1
(g43
g3
Ntp1813
Rp1814
(dp1815
g47
I624
sg49
VPawniard
p1816
sg51
g52
sg53
g1
(g14
g3
Ntp1817
Rp1818
(dp1819
g18
g1
(g19
g20
(lp1820
g1
(g22
g3
Ntp1821
Rp1822
(dp1823
g26
V49
p1824
sbatp1825
Rp1826
(dp1827
g31
(dp1828
sbsbsg55
(lp1829
VFaint Attack
p1830
aVSlash
p1831
aVScary Face
p1832
aVMetal Claw
p1833
asg61
g12
sg62
VDefiant
p1834
sbag1
(g43
g3
Ntp1835
Rp1836
(dp1837
g47
I624
sg49
VPawniard
p1838
sg51
g52
sg53
g1
(g14
g3
Ntp1839
Rp1840
(dp1841
g18
g1
(g19
g20
(lp1842
g1
(g22
g3
Ntp1843
Rp1844
(dp1845
g26
V49
p1846
sbatp1847
Rp1848
(dp1849
g31
(dp1850
sbsbsg55
(lp1851
VFaint Attack
p1852
aVSlash
p1853
aVHone Claws
p1854
aVMetal Claw
p1855
asg61
g12
sg62
VInner Focus
p1856
sbag1
(g43
g3
Ntp1857
Rp1858
(dp1859
g47
I617
sg49
VAccelgor
p1860
sg51
g52
sg53
g1
(g14
g3
Ntp1861
Rp1862
(dp1863
g18
g1
(g19
g20
(lp1864
g1
(g22
g3
Ntp1865
Rp1866
(dp1867
g26
V51
p1868
sbatp1869
Rp1870
(dp1871
g31
(dp1872
sbsbsg55
(lp1873
VBug Buzz
p1874
aVMe First
p1875
aVSwift
p1876
aVGiga Drain
p1877
asg61
g12
sg62
VHydration
p1878
sbasg76
I01
sg77
g78
sbag1
(g2
g3
Ntp1879
Rp1880
(dp1881
g7
VSpr B2W2 Colress.png
p1882
sg9
VPokemon Trainer
p1883
sg11
VColress
p1884
sg13
g1
(g14
g3
Ntp1885
Rp1886
(dp1887
g18
g1
(g19
g20
(lp1888
g1
(g22
g3
Ntp1889
Rp1890
(dp1891
g26
V14800
p1892
sbatp1893
Rp1894
(dp1895
g31
(dp1896
sbsbsg33
I6
sg35
g36
sg37
g38
sg39
g40
sg41
(lp1897
g1
(g43
g3
Ntp1898
Rp1899
(dp1900
g47
I82
sg49
VMagneton
p1901
sg51
g1430
sg53
g1
(g14
g3
Ntp1902
Rp1903
(dp1904
g18
g1
(g19
g20
(lp1905
g1
(g22
g3
Ntp1906
Rp1907
(dp1908
g26
V72
p1909
sbatp1910
Rp1911
(dp1912
g31
(dp1913
sbsbsg55
(lp1914
VThunder Wave
p1915
aVVolt Switch
p1916
aVFlash Cannon
p1917
aVTri Attack
p1918
asg61
VEviolite
p1919
sg62
VSturdy
p1920
sbag1
(g43
g3
Ntp1921
Rp1922
(dp1923
g47
I47
sg49
VRotom
p1924
sg51
g1430
sg53
g1
(g14
g3
Ntp1925
Rp1926
(dp1927
g18
g1
(g19
g20
(lp1928
g1
(g22
g3
Ntp1929
Rp1930
(dp1931
g26
V72
p1932
sbatp1933
Rp1934
(dp1935
g31
(dp1936
sbsbsg55
(lp1937
VHydro Pump
p1938
aVDischarge
p1939
aVWill-O-Wisp
p1940
aVSubstitute
p1941
asg61
VLife Orb
p1942
sg62
VLevitate
p1943
sbag1
(g43
g3
Ntp1944
Rp1945
(dp1946
g47
I376
sg49
VMetagross
p1947
sg51
g1430
sg53
g1
(g14
g3
Ntp1948
Rp1949
(dp1950
g18
g1
(g19
g20
(lp1951
g1
(g22
g3
Ntp1952
Rp1953
(dp1954
g26
V72
p1955
sbatp1956
Rp1957
(dp1958
g31
(dp1959
sbsbsg55
(lp1960
VAgility
p1961
aVMeteor Mash
p1962
aVZen Headbutt
p1963
aVRock Slide
p1964
asg61
VMuscle Band
p1965
sg62
VClear Body
p1966
sbag1
(g43
g3
Ntp1967
Rp1968
(dp1969
g47
I606
sg49
VBeheeyem
p1970
sg51
g52
sg53
g1
(g14
g3
Ntp1971
Rp1972
(dp1973
g18
g1
(g19
g20
(lp1974
g1
(g22
g3
Ntp1975
Rp1976
(dp1977
g26
V72
p1978
sbatp1979
Rp1980
(dp1981
g31
(dp1982
sbsbsg55
(lp1983
VCalm Mind
p1984
aVPsychic
p1985
aVEnergy Ball
p1986
aVRecover
p1987
asg61
VLeftovers
p1988
sg62
VSynchronize
p1989
sbag1
(g43
g3
Ntp1990
Rp1991
(dp1992
g47
I462
sg49
VMagnezone
p1993
sg51
g1430
sg53
g1
(g14
g3
Ntp1994
Rp1995
(dp1996
g18
g1
(g19
g20
(lp1997
g1
(g22
g3
Ntp1998
Rp1999
(dp2000
g26
V72
p2001
sbatp2002
Rp2003
(dp2004
g31
(dp2005
sbsbsg55
(lp2006
VThunderbolt
p2007
aVFlash Cannon
p2008
aVThunder Wave
p2009
aVHyper Beam
p2010
asg61
VWise Glasses
p2011
sg62
VSturdy
p2012
sbag1
(g43
g3
Ntp2013
Rp2014
(dp2015
g47
I601
sg49
VKlinklang
p2016
sg51
g1430
sg53
g1
(g14
g3
Ntp2017
Rp2018
(dp2019
g18
g1
(g19
g20
(lp2020
g1
(g22
g3
Ntp2021
Rp2022
(dp2023
g26
V74
p2024
sbatp2025
Rp2026
(dp2027
g31
(dp2028
sbsbsg55
(lp2029
VShift Gear
p2030
aVGear Grind
p2031
aVWild Charge
p2032
aVGiga Impact
p2033
asg61
VAir Balloon
p2034
sg62
VPlus
p2035
sbasg76
I01
sg77
g78
sba.