(lp0
ccopy_reg
_reconstructor
p1
(c__main__
Trainer
p2
c__builtin__
object
p3
Ntp4
Rp5
(dp6
VtSprite
p7
VVSTeam Skull Grunt M.png
p8
sVtClass
p9
VTeam Skull Grunt
p10
sVtName
p11
V
p12
sVtMoney
p13
V1,088
p14
sVtPokeCount
p15
V1
p16
sVtLocation
p17
Vwiki/Po_Town
p18
sVtRegion
p19
VAlola
p20
sVtGame
p21
VSM
p22
sVtPokes
p23
(lp24
g1
(c__main__
FinishedPokemon
p25
g3
Ntp26
Rp27
(dp28
VpDexNo
p29
V167
p30
sVpSpecies
p31
VSpinarak
p32
sVpGender
p33
VM
p34
sVpLevel
p35
V34
p36
sVpMoves
p37
(lp38
Vcross-poison
p39
aVsticky-web
p40
aVinfestation
p41
aVtoxic-thread
p42
asVpHold
p43
g12
sVpAbility
p44
Vswarm
p45
sbasVbossFlag
p46
I00
sVtLongGame
p47
Vsun-moon
p48
sbag1
(g2
g3
Ntp49
Rp50
(dp51
g7
VVSTeam Skull Grunt M.png
p52
sg9
VTeam Skull Grunt
p53
sg11
g12
sg13
V1,088
p54
sg15
g16
sg17
g18
sg19
g20
sg21
g22
sg23
(lp55
g1
(g25
g3
Ntp56
Rp57
(dp58
g29
V088A
p59
sg31
VGrimer
p60
sg33
g34
sg35
V34
p61
sg37
(lp62
Vmud-bomb
p63
aVgunk-shot
p64
aVsludge-wave
p65
aVbelch
p66
asg43
g12
sg44
Vsticky-hold
p67
sbasg46
I00
sg47
g48
sbag1
(g2
g3
Ntp68
Rp69
(dp70
g7
VVSTeam Skull Grunt F.png
p71
sg9
VTeam Skull Grunt
p72
sg11
g12
sg13
V1,120<br><sup>[[Double Battle]] with the following Grunt</sup>
p73
sg15
g16
sg17
g18
sg19
g20
sg21
g22
sg23
(lp74
g1
(g25
g3
Ntp75
Rp76
(dp77
g29
V020A
p78
sg31
VRaticate
p79
sg33
VF
p80
sg35
V35
p81
sg37
(lp82
Vcrunch
p83
aVendeavor
p84
aVassurance
p85
aVsucker-punch
p86
asg43
g12
sg44
Vguts
p87
sbasg46
I00
sg47
g48
sbag1
(g2
g3
Ntp88
Rp89
(dp90
g7
VVSTeam Skull Grunt F.png
p91
sg9
VTeam Skull Grunt
p92
sg11
g12
sg13
V1,120<br><sup>[[Double Battle]] with the previous Grunt</sup>
p93
sg15
g16
sg17
g18
sg19
g20
sg21
g22
sg23
(lp94
g1
(g25
g3
Ntp95
Rp96
(dp97
g29
V042
p98
sg31
VGolbat
p99
sg33
g80
sg35
V35
p100
sg37
(lp101
Vair-cutter
p102
aVair-slash
p103
aVvenoshock
p104
aVquick-guard
p105
asg43
g12
sg44
Vinner-focus
p106
sbasg46
I00
sg47
g48
sbag1
(g2
g3
Ntp107
Rp108
(dp109
g7
VVSTeam Skull Grunt M.png
p110
sg9
VTeam Skull Grunt
p111
sg11
g12
sg13
V1,088
p112
sg15
V2
p113
sg17
g18
sg19
g20
sg21
g22
sg23
(lp114
g1
(g25
g3
Ntp115
Rp116
(dp117
g29
V753
p118
sg31
VFomantis
p119
sg33
g34
sg35
V34
p120
sg37
(lp121
Vsunny-day
p122
aVingrain
p123
aVleaf-blade
p124
aVleafage
p125
asg43
g12
sg44
Vleaf-guard
p126
sbag1
(g25
g3
Ntp127
Rp128
(dp129
g29
V757
p130
sg31
VSalandit
p131
sg33
g34
sg35
V34
p132
sg37
(lp133
Vnasty-plot
p134
aVvenoshock
p135
aVflame-burst
p136
aVvenom-drench
p137
asg43
g12
sg44
Vcorrosion
p138
sbasg46
I00
sg47
g48
sbag1
(g2
g3
Ntp139
Rp140
(dp141
g7
VVSTeam Skull Grunt F.png
p142
sg9
VTeam Skull Grunt
p143
sg11
g12
sg13
V1,120
p144
sg15
g16
sg17
g18
sg19
g20
sg21
g22
sg23
(lp145
g1
(g25
g3
Ntp146
Rp147
(dp148
g29
V767
p149
sg31
VWimpod
p150
sg33
g80
sg35
V35
p151
sg37
(lp152
Vsand-attack
p153
aVstruggle-bug
p154
asg43
g12
sg44
Vwimp-out
p155
sbasg46
I00
sg47
g48
sbag1
(g2
g3
Ntp156
Rp157
(dp158
g7
VVSTeam Skull Grunt M.png
p159
sg9
VTeam Skull Grunt
p160
sg11
g12
sg13
V1,152
p161
sg15
g16
sg17
g18
sg19
g20
sg21
g22
sg23
(lp162
g1
(g25
g3
Ntp163
Rp164
(dp165
g29
V167
p166
sg31
VSpinarak
p167
sg33
g34
sg35
V36
p168
sg37
(lp169
Vcross-poison
p170
aVsticky-web
p171
aVinfestation
p172
aVtoxic-thread
p173
asg43
g12
sg44
Vinsomnia
p174
sbasg46
I00
sg47
g48
sbag1
(g2
g3
Ntp175
Rp176
(dp177
g7
VVSTeam Skull Grunt M.png
p178
sg9
VTeam Skull Grunt
p179
sg11
g12
sg13
V1,152
p180
sg15
g16
sg17
g18
sg19
g20
sg21
g22
sg23
(lp181
g1
(g25
g3
Ntp182
Rp183
(dp184
g29
V568
p185
sg31
VTrubbish
p186
sg33
g34
sg35
V36
p187
sg37
(lp188
Vgunk-shot
p189
aVacid-spray
p190
aVclear-smog
p191
aVbelch
p192
asg43
g12
sg44
Vstench
p193
sbasg46
I00
sg47
g48
sbag1
(g2
g3
Ntp194
Rp195
(dp196
g7
VVSTeam Skull Grunt M.png
p197
sg9
VTeam Skull Grunt
p198
sg11
g12
sg13
V1,184
p199
sg15
g16
sg17
g18
sg19
g20
sg21
g22
sg23
(lp200
g1
(g25
g3
Ntp201
Rp202
(dp203
g29
V096
p204
sg31
VDrowzee
p205
sg33
g34
sg35
V37
p206
sg37
(lp207
Vnasty-plot
p208
aVzen-headbutt
p209
aVpsyshock
p210
aVsynchronoise
p211
asg43
g12
sg44
Vforewarn
p212
sbasg46
I00
sg47
g48
sbag1
(g2
g3
Ntp213
Rp214
(dp215
g7
VVSTeam Skull Grunt F.png
p216
sg9
VTeam Skull Grunt
p217
sg11
g12
sg13
V1,184<br><sup>[[Double Battle]] with the following Grunt</sup>
p218
sg15
g16
sg17
g18
sg19
g20
sg21
g22
sg23
(lp219
g1
(g25
g3
Ntp220
Rp221
(dp222
g29
V020A
p223
sg31
VRaticate
p224
sg33
g80
sg35
V37
p225
sg37
(lp226
Vcrunch
p227
aVendeavor
p228
aVassurance
p229
aVsucker-punch
p230
asg43
g12
sg44
Vrun-away
p231
sbasg46
I00
sg47
g48
sbag1
(g2
g3
Ntp232
Rp233
(dp234
g7
VVSTeam Skull Grunt F.png
p235
sg9
VTeam Skull Grunt
p236
sg11
g12
sg13
V1,184<br><sup>[[Double Battle]] with the previous Grunt</sup>
p237
sg15
g16
sg17
g18
sg19
g20
sg21
g22
sg23
(lp238
g1
(g25
g3
Ntp239
Rp240
(dp241
g29
V042
p242
sg31
VGolbat
p243
sg33
g80
sg35
V37
p244
sg37
(lp245
Vair-cutter
p246
aVair-slash
p247
aVvenoshock
p248
aVquick-guard
p249
asg43
g12
sg44
Vinner-focus
p250
sbasg46
I00
sg47
g48
sbag1
(g2
g3
Ntp251
Rp252
(dp253
g7
VVSTeam Skull Grunt M.png
p254
sg9
VTeam Skull Grunt
p255
sg11
g12
sg13
V1,184
p256
sg15
g113
sg17
g18
sg19
g20
sg21
g22
sg23
(lp257
g1
(g25
g3
Ntp258
Rp259
(dp260
g29
V023
p261
sg31
VEkans
p262
sg33
g34
sg35
V37
p263
sg37
(lp264
Vgunk-shot
p265
aVcoil
p266
aVacid-spray
p267
aVbelch
p268
asg43
g12
sg44
Vintimidate
p269
sbag1
(g25
g3
Ntp270
Rp271
(dp272
g29
V757
p273
sg31
VSalandit
p274
sg33
g34
sg35
V37
p275
sg37
(lp276
Vnasty-plot
p277
aVvenoshock
p278
aVflame-burst
p279
aVvenom-drench
p280
asg43
g12
sg44
Vcorrosion
p281
sbasg46
I00
sg47
g48
sbag1
(g2
g3
Ntp282
Rp283
(dp284
g7
VVSTeam Skull Grunt F.png
p285
sg9
VTeam Skull Grunt
p286
sg11
g12
sg13
V1,184
p287
sg15
g113
sg17
g18
sg19
g20
sg21
g22
sg23
(lp288
g1
(g25
g3
Ntp289
Rp290
(dp291
g29
V753
p292
sg31
VFomantis
p293
sg33
g80
sg35
V37
p294
sg37
(lp295
Vsunny-day
p296
aVingrain
p297
aVleaf-blade
p298
aVleafage
p299
asg43
g12
sg44
Vleaf-guard
p300
sbag1
(g25
g3
Ntp301
Rp302
(dp303
g29
V747
p304
sg31
VMareanie
p305
sg33
g80
sg35
V37
p306
sg37
(lp307
Vwide-guard
p308
aVvenoshock
p309
aVvenom-drench
p310
aVliquidation
p311
asg43
g12
sg44
Vmerciless
p312
sbasg46
I00
sg47
g48
sbag1
(g2
g3
Ntp313
Rp314
(dp315
g7
VVSTeam Skull Grunt M.png
p316
sg9
VTeam Skull Grunt
p317
sg11
g12
sg13
V1,280
p318
sg15
g16
sg17
g18
sg19
g20
sg21
g22
sg23
(lp319
g1
(g25
g3
Ntp320
Rp321
(dp322
g29
V559
p323
sg31
VScraggy
p324
sg33
g34
sg35
V40
p325
sg37
(lp326
Vpayback
p327
aVrock-climb
p328
aVhead-smash
p329
aVchip-away
p330
asg43
g12
sg44
Vmoxie
p331
sbasg46
I00
sg47
g48
sbag1
(g2
g3
Ntp332
Rp333
(dp334
g7
VVSOffice Worker M SM.png
p335
sg9
VOffice Worker
p336
sg11
VRoyce
p337
sg13
V1,600
p338
sg15
g113
sg17
g18
sg19
g20
sg21
g22
sg23
(lp339
g1
(g25
g3
Ntp340
Rp341
(dp342
g29
V605
p343
sg31
VElgyem
p344
sg33
g34
sg35
V40
p345
sg37
(lp346
Vpower-split
p347
aVwonder-room
p348
aVsynchronoise
p349
aVsimple-beam
p350
asg43
g12
sg44
Vtelepathy
p351
sbag1
(g25
g3
Ntp352
Rp353
(dp354
g29
V375
p355
sg31
VMetang
p356
sg33
VU
p357
sg35
V40
p358
sg37
(lp359
Vmiracle-eye
p360
aVmagnet-rise
p361
aVbullet-punch
p362
aVzen-headbutt
p363
asg43
g12
sg44
Vclear-body
p364
sbasg46
I00
sg47
g48
sba.