(lp0
ccopy_reg
_reconstructor
p1
(c__main__
Trainer
p2
c__builtin__
object
p3
Ntp4
Rp5
(dp6
VtSprite
p7
VVSMalva.png
p8
sVtClass
p9
VElite Four
p10
sVtName
p11
VMalva
p12
sVtMoney
p13
V13,000
p14
sVtPokeCount
p15
I4
sVtLocation
p16
Vwiki/Pok%C3%A9mon_League_(Kalos)
p17
sVtRegion
p18
VKalos
p19
sVtGame
p20
VSM
p21
sVtPokes
p22
(lp23
g1
(c__main__
FinishedPokemon
p24
g3
Ntp25
Rp26
(dp27
VpDexNo
p28
I668
sVpSpecies
p29
VPyroar
p30
sVpGender
p31
VF
p32
sVpLevel
p33
V63
p34
sVpMoves
p35
(lp36
VHyper Voice
p37
aVFlamethrower
p38
aVWild Charge
p39
aVNoble Roar
p40
asVpHold
p41
V
p42
sVpAbility
p43
VRivalry
p44
sbag1
(g24
g3
Ntp45
Rp46
(dp47
g28
I324
sg29
VTorkoal
p48
sg31
g32
sg33
V63
p49
sg35
(lp50
VCurse
p51
aVEarthquake
p52
aVStone Edge
p53
aVFlame Wheel
p54
asg41
g42
sg43
VWhite Smoke
p55
sbag1
(g24
g3
Ntp56
Rp57
(dp58
g28
I609
sg29
VChandelure
p59
sg31
g32
sg33
V63
p60
sg35
(lp61
VFlamethrower
p62
aVShadow Ball
p63
aVConfuse Ray
p64
aVConfide
p65
asg41
g42
sg43
VFlame Body
p66
sbag1
(g24
g3
Ntp67
Rp68
(dp69
g28
I663
sg29
VTalonflame
p70
sg31
g32
sg33
V65
p71
sg35
(lp72
VBrave Bird
p73
aVQuick Attack
p74
aVFlare Blitz
p75
aVFlail
p76
asg41
g42
sg43
VFlame Body
p77
sbasVbossFlag
p78
I01
sVtLongGame
p79
Vsun-moon
p80
sbag1
(g2
g3
Ntp81
Rp82
(dp83
g7
VVSSiebold.png
p84
sg9
VElite Four
p85
sg11
VSiebold
p86
sg13
V13,000
p87
sg15
I4
sg16
g17
sg18
g19
sg20
g21
sg22
(lp88
g1
(g24
g3
Ntp89
Rp90
(dp91
g28
I693
sg29
VClawitzer
p92
sg31
VM
p93
sg33
V63
p94
sg35
(lp95
VWater Pulse
p96
aVDark Pulse
p97
aVDragon Pulse
p98
aVAura Sphere
p99
asg41
g42
sg43
VMega Launcher
p100
sbag1
(g24
g3
Ntp101
Rp102
(dp103
g28
I130
sg29
VGyarados
p104
sg31
g93
sg33
V63
p105
sg35
(lp106
VWaterfall
p107
aVIce Fang
p108
aVEarthquake
p109
aVDragon Dance
p110
asg41
g42
sg43
VIntimidate
p111
sbag1
(g24
g3
Ntp112
Rp113
(dp114
g28
I121
sg29
VStarmie
p115
sg31
VU
p116
sg33
V63
p117
sg35
(lp118
VDazzling Gleam
p119
aVPsychic
p120
aVSurf
p121
aVLight Screen
p122
asg41
g42
sg43
VIlluminate
p123
sbag1
(g24
g3
Ntp124
Rp125
(dp126
g28
I689
sg29
VBarbaracle
p127
sg31
g93
sg33
V65
p128
sg35
(lp129
VCross Chop
p130
aVStone Edge
p131
aVRazor Shell
p132
aVX-Scissor
p133
asg41
g42
sg43
VTough Claws
p134
sbasg78
I01
sg79
g80
sbag1
(g2
g3
Ntp135
Rp136
(dp137
g7
VVSWikstrom.png
p138
sg9
VElite Four
p139
sg11
VWikstrom
p140
sg13
V13,000
p141
sg15
I4
sg16
g17
sg18
g19
sg20
g21
sg22
(lp142
g1
(g24
g3
Ntp143
Rp144
(dp145
g28
I707
sg29
VKlefki
p146
sg31
g93
sg33
V63
p147
sg35
(lp148
VDazzling Gleam
p149
aVFlash Cannon
p150
aVTorment
p151
aVSpikes
p152
asg41
g42
sg43
VPrankster
p153
sbag1
(g24
g3
Ntp154
Rp155
(dp156
g28
I476
sg29
VProbopass
p157
sg31
g93
sg33
V63
p158
sg35
(lp159
VEarth Power
p160
aVPower Gem
p161
aVDischarge
p162
aVFlash Cannon
p163
asg41
g42
sg43
VSturdy
p164
sbag1
(g24
g3
Ntp165
Rp166
(dp167
g28
I212
sg29
VScizor
p168
sg31
g93
sg33
V63
p169
sg35
(lp170
VBullet Punch
p171
aVX-Scissor
p172
aVIron Head
p173
aVNight Slash
p174
asg41
g42
sg43
VTechnician
p175
sbag1
(g24
g3
Ntp176
Rp177
(dp178
g28
I681
sg29
VAegislash
p179
sg31
g93
sg33
V65
p180
sg35
(lp181
VKing's Shield
p182
aVSacred Sword
p183
aVShadow Claw
p184
aVIron Head
p185
asg41
g42
sg43
VStance Change
p186
sbasg78
I01
sg79
g80
sbag1
(g2
g3
Ntp187
Rp188
(dp189
g7
VVSDrasna.png
p190
sg9
VElite Four
p191
sg11
VDrasna
p192
sg13
V13,000
p193
sg15
I4
sg16
g17
sg18
g19
sg20
g21
sg22
(lp194
g1
(g24
g3
Ntp195
Rp196
(dp197
g28
I691
sg29
VDragalge   
p198
sg31
g32
sg33
V63
p199
sg35
(lp200
VDragon Pulse
p201
aVSurf
p202
aVSludge Bomb
p203
aVThunderbolt
p204
asg41
g42
sg43
VPoison Point
p205
sbag1
(g24
g3
Ntp206
Rp207
(dp208
g28
I621
sg29
VDruddigon
p209
sg31
g32
sg33
V63
p210
sg35
(lp211
VDragon Tail
p212
aVRevenge
p213
aVRetaliate
p214
aVChip Away
p215
asg41
g42
sg43
VRough Skin
p216
sbag1
(g24
g3
Ntp217
Rp218
(dp219
g28
I334
sg29
VAltaria
p220
sg31
g32
sg33
V63
p221
sg35
(lp222
VMoonblast
p223
aVDragon Pulse
p224
aVCotton Guard
p225
aVSing
p226
asg41
g42
sg43
VNatural Cure
p227
sbag1
(g24
g3
Ntp228
Rp229
(dp230
g28
I715
sg29
VNoivern
p231
sg31
g32
sg33
V65
p232
sg35
(lp233
VAir Slash
p234
aVDragon Pulse
p235
aVFlamethrower
p236
aVSuper Fang
p237
asg41
g42
sg43
VFrisk
p238
sbasg78
I01
sg79
g80
sbag1
(g2
g3
Ntp239
Rp240
(dp241
g7
VVSDiantha.png
p242
sg9
VChampion
p243
sg11
VDiantha
p244
sg13
V16,320
p245
sg15
I6
sg16
g17
sg18
g19
sg20
g21
sg22
(lp246
g1
(g24
g3
Ntp247
Rp248
(dp249
g28
I701
sg29
VHawlucha
p250
sg31
g32
sg33
V64
p251
sg35
(lp252
VSwords Dance
p253
aVFlying Press
p254
aVX-Scissor
p255
aVPoison Jab
p256
asg41
g42
sg43
VLimber
p257
sbag1
(g24
g3
Ntp258
Rp259
(dp260
g28
I697
sg29
VTyrantrum
p261
sg31
g93
sg33
V65
p262
sg35
(lp263
VHead Smash
p264
aVEarthquake
p265
aVDragon Claw
p266
aVCrunch
p267
asg41
g42
sg43
VStrong Jaw
p268
sbag1
(g24
g3
Ntp269
Rp270
(dp271
g28
I699
sg29
VAurorus
p272
sg31
g93
sg33
V65
p273
sg35
(lp274
VThunder
p275
aVBlizzard
p276
aVLight Screen
p277
aVReflect
p278
asg41
g42
sg43
VRefrigerate
p279
sbag1
(g24
g3
Ntp280
Rp281
(dp282
g28
I711
sg29
VGourgeist
p283
sg31
g32
sg33
V65
p284
sg35
(lp285
VTrick-or-Treat
p286
aVPhantom Force
p287
aVSeed Bomb
p288
aVShadow Sneak
p289
asg41
g42
sg43
VPickup
p290
sbag1
(g24
g3
Ntp291
Rp292
(dp293
g28
I706
sg29
VGoodra
p294
sg31
g32
sg33
V66
p295
sg35
(lp296
VDragon Pulse
p297
aVMuddy Water
p298
aVFire Blast
p299
aVFocus Blast
p300
asg41
g42
sg43
VSap Sipper
p301
sbag1
(g24
g3
Ntp302
Rp303
(dp304
g28
I282
sg29
VGardevoir
p305
sg31
g32
sg33
V68
p306
sg35
(lp307
VMoonblast
p308
aVPsychic
p309
aVShadow Ball
p310
aVThunderbolt
p311
asg41
VGardevoirite
p312
sg43
VTrace
p313
sbasg78
I01
sg79
g80
sba.