(lp0
ccopy_reg
_reconstructor
p1
(c__main__
Trainer
p2
c__builtin__
object
p3
Ntp4
Rp5
(dp6
VtSprite
p7
VSpr Pt Maid.png
p8
sVtClass
p9
VMaid
p10
sVtName
p11
VBelinda
p12
sVtMoney
p13
V1000
p14
sVtPokeCount
p15
V1
p16
sVtLocation
p17
Vwiki/Pok%C3%A9mon_Mansion_(Sinnoh)
p18
sVtRegion
p19
VSinnoh
p20
sVtGame
p21
VPt
p22
sVtPokes
p23
(lp24
g1
(c__main__
FinishedPokemon
p25
g3
Ntp26
Rp27
(dp28
VpDexNo
p29
V035
p30
sVpSpecies
p31
VClefairy
p32
sVpGender
p33
VF
p34
sVpLevel
p35
V25
p36
sVpMoves
p37
(lp38
Vgravity
p39
aVwake-up-slap
p40
aVhealing-wish
p41
aVlucky-chant
p42
asVpHold
p43
V
p44
sVpAbility
p45
Vmagic-guard
p46
sbasVbossFlag
p47
I00
sVtLongGame
p48
Vplatinum
p49
sbag1
(g2
g3
Ntp50
Rp51
(dp52
g7
VSpr Pt Maid.png
p53
sg9
VMaid
p54
sg11
VSophie
p55
sg13
V1080
p56
sg15
g16
sg17
g18
sg19
g20
sg21
g22
sg23
(lp57
g1
(g25
g3
Ntp58
Rp59
(dp60
g29
V035
p61
sg31
VClefairy
p62
sg33
g34
sg35
V27
p63
sg37
(lp64
Vgravity
p65
aVwake-up-slap
p66
aVhealing-wish
p67
aVlucky-chant
p68
asg43
g44
sg45
Vcute-charm
p69
sbasg47
I00
sg48
g49
sbag1
(g2
g3
Ntp70
Rp71
(dp72
g7
VSpr Pt Maid.png
p73
sg9
VMaid
p74
sg11
VEmily
p75
sg13
V1160
p76
sg15
g16
sg17
g18
sg19
g20
sg21
g22
sg23
(lp77
g1
(g25
g3
Ntp78
Rp79
(dp80
g29
V035
p81
sg31
VClefairy
p82
sg33
g34
sg35
V29
p83
sg37
(lp84
Vgravity
p85
aVwake-up-slap
p86
aVhealing-wish
p87
aVlucky-chant
p88
asg43
g44
sg45
Vcute-charm
p89
sbasg47
I00
sg48
g49
sbag1
(g2
g3
Ntp90
Rp91
(dp92
g7
VSpr Pt Maid.png
p93
sg9
VMaid
p94
sg11
VElena
p95
sg13
V1240
p96
sg15
g16
sg17
g18
sg19
g20
sg21
g22
sg23
(lp97
g1
(g25
g3
Ntp98
Rp99
(dp100
g29
V035
p101
sg31
VClefairy
p102
sg33
g34
sg35
V31
p103
sg37
(lp104
Vgravity
p105
aVwake-up-slap
p106
aVhealing-wish
p107
aVlucky-chant
p108
asg43
g44
sg45
Vmagic-guard
p109
sbasg47
I00
sg48
g49
sbag1
(g2
g3
Ntp110
Rp111
(dp112
g7
VSpr Pt Maid.png
p113
sg9
VMaid
p114
sg11
VClare
p115
sg13
V1320
p116
sg15
g16
sg17
g18
sg19
g20
sg21
g22
sg23
(lp117
g1
(g25
g3
Ntp118
Rp119
(dp120
g29
V035
p121
sg31
VClefairy
p122
sg33
g34
sg35
V33
p123
sg37
(lp124
Vgravity
p125
aVwake-up-slap
p126
aVhealing-wish
p127
aVlucky-chant
p128
asg43
g44
sg45
Vmagic-guard
p129
sbasg47
I00
sg48
g49
sbag1
(g2
g3
Ntp130
Rp131
(dp132
g7
VSpr DP Rich Boy.png
p133
sg9
VRich Boy
p134
sg11
VLiam
p135
sg13
V5600
p136
sg15
g16
sg17
g18
sg19
g20
sg21
VDP
p137
sg23
(lp138
g1
(g25
g3
Ntp139
Rp140
(dp141
g29
V242
p142
sg31
VBlissey
p143
sg33
g34
sg35
V35
p144
sg37
(lp145
Vsoft-boiled
p146
aVrefresh
p147
aVhealing-wish
p148
aVfling
p149
asg43
g44
sg45
Vnatural-cure
p150
sbasg47
I00
sg48
Vdiamond-pearl
p151
sbag1
(g2
g3
Ntp152
Rp153
(dp154
g7
VSpr DP Lady.png
p155
sg9
VLady
p156
sg11
VCeleste
p157
sg13
V5600
p158
sg15
g16
sg17
g18
sg19
g20
sg21
g137
sg23
(lp159
g1
(g25
g3
Ntp160
Rp161
(dp162
g29
V242
p163
sg31
VBlissey
p164
sg33
g34
sg35
V35
p165
sg37
(lp166
Vsoft-boiled
p167
aVrefresh
p168
aVhealing-wish
p169
aVfling
p170
asg43
g44
sg45
Vserene-grace
p171
sbasg47
I00
sg48
g151
sba.