(lp0
ccopy_reg
_reconstructor
p1
(c__main__
Trainer
p2
c__builtin__
object
p3
Ntp4
Rp5
(dp6
VtSprite
p7
VVSOffice Worker F SM.png
p8
sVtClass
p9
VActor
p10
sVtName
p11
VMeredith
p12
sVtMoney
p13
V2,280
p14
sVtPokeCount
p15
V1
p16
sVtLocation
p17
Vwiki/Poni_Meadow
p18
sVtRegion
p19
VAlola
p20
sVtGame
p21
VSM
p22
sVtPokes
p23
(lp24
sVbossFlag
p25
I00
sVtLongGame
p26
Vsun-moon
p27
sba.