(lp0
ccopy_reg
_reconstructor
p1
(c__main__
Trainer
p2
c__builtin__
object
p3
Ntp4
Rp5
(dp6
VtSprite
p7
VVSHoneymooners SM.png
p8
sVtClass
p9
VHoneymooners
p10
sVtName
p11
VNoriko and Devin
p12
sVtMoney
p13
V7,080
p14
sVtPokeCount
p15
V4
p16
sVtLocation
p17
Vwiki/Poni_Coast
p18
sVtRegion
p19
VAlola
p20
sVtGame
p21
VSM
p22
sVtPokes
p23
(lp24
g1
(c__main__
FinishedPokemon
p25
g3
Ntp26
Rp27
(dp28
VpDexNo
p29
V038
p30
sVpSpecies
p31
VNinetales
p32
sVpGender
p33
VF
p34
sVpLevel
p35
V58
p36
sVpMoves
p37
(lp38
Vconfuse-ray
p39
aVsafeguard
p40
aVimprison
p41
aVnasty-plot
p42
asVpHold
p43
V
p44
sVpAbility
p45
Vflash-fire
p46
sbag1
(g25
g3
Ntp47
Rp48
(dp49
g29
V103
p50
sg31
VExeggutor
p51
sg33
g34
sg35
V59
p52
sg37
(lp53
Vseed-bomb
p54
aVleaf-storm
p55
aVwood-hammer
p56
aVpsyshock
p57
asg43
g44
sg45
Vchlorophyll
p58
sbag1
(g25
g3
Ntp59
Rp60
(dp61
g29
V028
p62
sg31
VSandslash
p63
sg33
VM
p64
sg35
V58
p65
sg37
(lp66
Vrapid-spin
p67
aVcrush-claw
p68
aVsand-tomb
p69
aVgyro-ball
p70
asg43
g44
sg45
Vsand-veil
p71
sbag1
(g25
g3
Ntp72
Rp73
(dp74
g29
V076
p75
sg31
VGolem
p76
sg33
g64
sg35
V59
p77
sg37
(lp78
Vheavy-slam
p79
ag79
aVbulldoze
p80
aVsteamroller
p81
asg43
g44
sg45
Vrock-head
p82
sbasVbossFlag
p83
I00
sVtLongGame
p84
Vsun-moon
p85
sbag1
(g2
g3
Ntp86
Rp87
(dp88
g7
VVSYouth Athlete M SM.png
p89
sg9
VYouth Athlete
p90
sg11
VAnton
p91
sg13
V1,624
p92
sg15
V1
p93
sg17
g18
sg19
g20
sg21
g22
sg23
(lp94
g1
(g25
g3
Ntp95
Rp96
(dp97
g29
V028A
p98
sg31
VSandslash
p99
sg33
g64
sg35
V58
p100
sg37
(lp101
Vrapid-spin
p102
aVcrush-claw
p103
aVsand-tomb
p104
aVgyro-ball
p105
asg43
g44
sg45
Vsand-veil
p106
sbasg83
I00
sg84
g85
sbag1
(g2
g3
Ntp107
Rp108
(dp109
g7
VVSTourist Couple 2.png
p110
sg9
VTourist Couple
p111
sg11
VSteve and Reika
p112
sg13
V5,428
p113
sg15
V2
p114
sg17
g18
sg19
g20
sg21
g22
sg23
(lp115
g1
(g25
g3
Ntp116
Rp117
(dp118
g29
V103
p119
sg31
VExeggutor
p120
sg33
g64
sg35
V59
p121
sg37
(lp122
Vseed-bomb
p123
aVleaf-storm
p124
aVwood-hammer
p125
aVpsyshock
p126
asg43
g44
sg45
Vchlorophyll
p127
sbag1
(g25
g3
Ntp128
Rp129
(dp130
g29
V103A
p131
sg31
VExeggutor
p132
sg33
g34
sg35
V59
p133
sg37
(lp134
Vseed-bomb
p135
aVleaf-storm
p136
aVwood-hammer
p137
aVpsyshock
p138
asg43
g44
sg45
Vchlorophyll
p139
sbasg83
I00
sg84
g85
sbag1
(g2
g3
Ntp140
Rp141
(dp142
g7
VVSHoneymooners SM.png
p143
sg9
VHoneymooners
p144
sg11
VNoriko and Devin
p145
sg13
V7,080
p146
sg15
V5
p147
sg17
g18
sg19
g20
sg21
g22
sg23
(lp148
g1
(g25
g3
Ntp149
Rp150
(dp151
g29
V038
p152
sg31
VNinetales
p153
sg33
g34
sg35
V59
p154
sg37
(lp155
Vconfuse-ray
p156
aVsafeguard
p157
aVimprison
p158
aVnasty-plot
p159
asg43
g44
sg45
Vflash-fire
p160
sbag1
(g25
g3
Ntp161
Rp162
(dp163
g29
V028
p164
sg31
VSandslash
p165
sg33
g34
sg35
V59
p166
sg37
(lp167
Vrapid-spin
p168
aVcrush-claw
p169
aVsand-tomb
p170
aVgyro-ball
p171
asg43
g44
sg45
Vsand-veil
p172
sbag1
(g25
g3
Ntp173
Rp174
(dp175
g29
V074
p176
sg31
VGeodude
p177
sg33
g64
sg35
V59
p178
sg37
(lp179
Vstone-edge
p180
aVstealth-rock
p181
aVsmack-down
p182
aVbulldoze
p183
asg43
g44
sg45
Vsturdy
p184
sbag1
(g25
g3
Ntp185
Rp186
(dp187
g29
V075
p188
sg31
VGraveler
p189
sg33
g64
sg35
V59
p190
sg37
(lp191
Vstone-edge
p192
aVstealth-rock
p193
aVsmack-down
p194
aVbulldoze
p195
asg43
g44
sg45
Vrock-head
p196
sbag1
(g25
g3
Ntp197
Rp198
(dp199
g29
V076
p200
sg31
VGolem
p201
sg33
g64
sg35
V59
p202
sg37
(lp203
Vheavy-slam
p204
ag204
aVbulldoze
p205
aVsteamroller
p206
asg43
g44
sg45
Vrock-head
p207
sbasg83
I00
sg84
g85
sbag1
(g2
g3
Ntp208
Rp209
(dp210
g7
VVSFirefighter.png
p211
sg9
VFirefighter
p212
sg11
VAiden
p213
sg13
V2,400
p214
sg15
g114
sg17
g18
sg19
g20
sg21
g22
sg23
(lp215
g1
(g25
g3
Ntp216
Rp217
(dp218
g29
V224
p219
sg31
VOctillery
p220
sg33
g64
sg35
V60
p221
sg37
(lp222
Vrock-blast
p223
aVwring-out
p224
aVgunk-shot
p225
aVsoak
p226
asg43
g44
sg45
Vsuction-cups
p227
sbag1
(g25
g3
Ntp228
Rp229
(dp230
g29
V693
p231
sg31
VClawitzer
p232
sg33
g64
sg35
V60
p233
sg37
(lp234
Vdragon-pulse
p235
aVaqua-jet
p236
aVsmack-down
p237
aVheal-pulse
p238
asg43
g44
sg45
Vmega-launcher
p239
sbasg83
I00
sg84
g85
sba.