(lp0
ccopy_reg
_reconstructor
p1
(c__main__
Trainer
p2
c__builtin__
object
p3
Ntp4
Rp5
(dp6
VtSprite
p7
VVSBlack Belt SM.png
p8
sVtClass
p9
VBlack Belt
p10
sVtName
p11
VRoy
p12
sVtMoney
p13
V1,792
p14
sVtPokeCount
p15
V1
p16
sVtLocation
p17
Vwiki/Poni_Grove
p18
sVtRegion
p19
VAlola
p20
sVtGame
p21
VSM
p22
sVtPokes
p23
(lp24
g1
(c__main__
FinishedPokemon
p25
g3
Ntp26
Rp27
(dp28
VpDexNo
p29
V740
p30
sVpSpecies
p31
VCrabominable
p32
sVpGender
p33
VM
p34
sVpLevel
p35
V56
p36
sVpMoves
p37
(lp38
Vclose-combat
p39
aVavalanche
p40
aVpower-up-punch
p41
aVice-hammer
p42
asVpHold
p43
V
p44
sVpAbility
p45
Vhyper-cutter
p46
sbasVbossFlag
p47
I00
sVtLongGame
p48
Vsun-moon
p49
sbag1
(g2
g3
Ntp50
Rp51
(dp52
g7
VVSAce Trainer M SM.png
p53
sg9
VAce Trainer
p54
sg11
VJackson
p55
sg13
V3,808
p56
sg15
V3
p57
sg17
g18
sg19
g20
sg21
VSM
p58
sg23
(lp59
g1
(g25
g3
Ntp60
Rp61
(dp62
g29
V779
p63
sg31
VBruxish
p64
sg33
g34
sg35
V55
p65
sg37
(lp66
Vaqua-tail
p67
aVaqua-jet
p68
aVsynchronoise
p69
aVpsychic-fangs
p70
asg43
g44
sg45
Vstrong-jaw
p71
sbag1
(g25
g3
Ntp72
Rp73
(dp74
g29
V105A
p75
sg31
VMarowak
p76
sg33
g34
sg35
V56
p77
sg37
(lp78
Vendeavor
p79
aVfling
p80
aVretaliate
p81
aVstomping-tantrum
p82
asg43
g44
sg45
Vlightning-rod
p83
sbag1
(g25
g3
Ntp84
Rp85
(dp86
g29
V628
p87
sg31
VBraviary
p88
sg33
g34
sg35
V56
p89
sg37
(lp90
Vbrave-bird
p91
aVdefog
p92
aVhone-claws
p93
aVsky-drop
p94
asg43
g44
sg45
Vkeen-eye
p95
sbasg47
I00
sg48
g49
sbag1
(g2
g3
Ntp96
Rp97
(dp98
g7
VVSBlack Belt SM.png
p99
sg9
VBlack Belt
p100
sg11
VRoy
p101
sg13
V1,792
p102
sg15
g16
sg17
g18
sg19
g20
sg21
g22
sg23
(lp103
g1
(g25
g3
Ntp104
Rp105
(dp106
g29
V620
p107
sg31
VMienshao
p108
sg33
g34
sg35
V56
p109
sg37
(lp110
Vaura-sphere
p111
ag111
aVdrain-punch
p112
aVwide-guard
p113
asg43
g44
sg45
Vinner-focus
p114
sbasg47
I00
sg48
g49
sbag1
(g2
g3
Ntp115
Rp116
(dp117
g7
VVSAce Trainer M SM.png
p118
sg9
VAce Trainer
p119
sg11
VJackson
p120
sg13
V3,876
p121
sg15
g57
sg17
g18
sg19
g20
sg21
g58
sg23
(lp122
g1
(g25
g3
Ntp123
Rp124
(dp125
g29
V367
p126
sg31
VHuntail
p127
sg33
g34
sg35
V56
p128
sg37
(lp129
Vsucker-punch
p130
aVaqua-tail
p131
aVice-fang
p132
aVcoil
p133
asg43
g44
sg45
Vswift-swim
p134
sbag1
(g25
g3
Ntp135
Rp136
(dp137
g29
V105A
p138
sg31
VMarowak
p139
sg33
g34
sg35
V56
p140
sg37
(lp141
Vendeavor
p142
aVfling
p143
aVretaliate
p144
aVstomping-tantrum
p145
asg43
g44
sg45
Vrock-head
p146
sbag1
(g25
g3
Ntp147
Rp148
(dp149
g29
V628
p150
sg31
VBraviary
p151
sg33
g34
sg35
V57
p152
sg37
(lp153
Vbrave-bird
p154
aVdefog
p155
aVhone-claws
p156
aVsky-drop
p157
asg43
g44
sg45
Vkeen-eye
p158
sbasg47
I00
sg48
g49
sba.