(lp0
ccopy_reg
_reconstructor
p1
(c__main__
Trainer
p2
c__builtin__
object
p3
Ntp4
Rp5
(dp6
VtSprite
p7
VVSSightseer F SM.png
p8
sVtClass
p9
VSightseer
p10
sVtName
p11
VJamie
p12
sVtMoney
p13
V2,580
p14
sVtPokeCount
p15
V4
p16
sVtLocation
p17
Vwiki/Poni_Breaker_Coast
p18
sVtRegion
p19
VAlola
p20
sVtGame
p21
VSM
p22
sVtPokes
p23
(lp24
g1
(c__main__
FinishedPokemon
p25
g3
Ntp26
Rp27
(dp28
VpDexNo
p29
V027
p30
sVpSpecies
p31
VSandshrew
p32
sVpGender
p33
VF
p34
sVpLevel
p35
V43
p36
sVpMoves
p37
(lp38
Vmagnitude
p39
aVrapid-spin
p40
aVsand-tomb
p41
aVgyro-ball
p42
asVpHold
p43
V
p44
sVpAbility
p45
Vsand-veil
p46
sbag1
(g25
g3
Ntp47
Rp48
(dp49
g29
V074
p50
sg31
VGeodude
p51
sg33
g34
sg35
V43
p52
sg37
(lp53
Vstone-edge
p54
aVstealth-rock
p55
aVsmack-down
p56
aVbulldoze
p57
asg43
g44
sg45
Vrock-head
p58
sbag1
(g25
g3
Ntp59
Rp60
(dp61
g29
V037
p62
sg31
VVulpix
p63
sg33
g34
sg35
V43
p64
sg37
(lp65
Vflame-burst
p66
aVhex
p67
aVinferno
p68
aVbaby-doll-eyes
p69
asg43
g44
sg45
Vflash-fire
p70
sbag1
(g25
g3
Ntp71
Rp72
(dp73
g29
V075
p74
sg31
VGraveler
p75
sg33
g34
sg35
V43
p76
sg37
(lp77
Vstone-edge
p78
aVstealth-rock
p79
aVsmack-down
p80
aVbulldoze
p81
asg43
g44
sg45
Vrock-head
p82
sbasVbossFlag
p83
I00
sVtLongGame
p84
Vsun-moon
p85
sbag1
(g2
g3
Ntp86
Rp87
(dp88
g7
VVSSwimmer Girls SM.png
p89
sg9
VSwimmer Girls
p90
sg11
VKylie and Ashlyn
p91
sg13
V2,160
p92
sg15
V2
p93
sg17
g18
sg19
g20
sg21
g22
sg23
(lp94
g1
(g25
g3
Ntp95
Rp96
(dp97
g29
V457
p98
sg31
VLumineon
p99
sg33
g34
sg35
V45
p100
sg37
(lp101
Vaqua-ring
p102
aVcaptivate
p103
aVsoak
p104
ag104
asg43
g44
sg45
Vstorm-drain
p105
sbag1
(g25
g3
Ntp106
Rp107
(dp108
g29
V171
p109
sg31
VLanturn
p110
sg33
g34
sg35
V45
p111
sg37
(lp112
Velectro-ball
p113
ag113
aVion-deluge
p114
aVeerie-impulse
p115
asg43
g44
sg45
Vvolt-absorb
p116
sbasg83
I00
sg84
g85
sbag1
(g2
g3
Ntp117
Rp118
(dp119
g7
VVSSightseer F SM.png
p120
sg9
VSightseer
p121
sg11
VJamie
p122
sg13
V2,640
p123
sg15
g93
sg17
g18
sg19
g20
sg21
g22
sg23
(lp124
g1
(g25
g3
Ntp125
Rp126
(dp127
g29
V027
p128
sg31
VSandshrew
p129
sg33
g34
sg35
V44
p130
sg37
(lp131
Vmagnitude
p132
aVrapid-spin
p133
aVsand-tomb
p134
aVgyro-ball
p135
asg43
g44
sg45
Vsand-veil
p136
sbag1
(g25
g3
Ntp137
Rp138
(dp139
g29
V053
p140
sg31
VPersian
p141
sg33
g34
sg35
V44
p142
sg37
(lp143
Vswitcheroo
p144
aVnasty-plot
p145
aVcaptivate
p146
aVplay-rough
p147
asg43
g44
sg45
Vlimber
p148
sbasg83
I00
sg84
g85
sbag1
(g2
g3
Ntp149
Rp150
(dp151
g7
VVSSwimmer M SM.png
p152
sg9
VSwimmer
p153
sg11
VDerek
p154
sg13
V1,056
p155
sg15
V1
p156
sg17
g18
sg19
g20
sg21
g22
sg23
(lp157
g1
(g25
g3
Ntp158
Rp159
(dp160
g29
V691
p161
sg31
VDragalge
p162
sg33
VM
p163
sg35
V44
p164
sg37
(lp165
Vaqua-tail
p166
aVdragon-pulse
p167
aVdragon-tail
p168
ag168
asg43
g44
sg45
Vpoison-touch
p169
sbasg83
I00
sg84
g85
sbag1
(g2
g3
Ntp170
Rp171
(dp172
g7
VVSSwimmer Girls SM.png
p173
sg9
VSwimmer Girls
p174
sg11
VKylie and Ashlyn
p175
sg13
V2,328
p176
sg15
g93
sg17
g18
sg19
g20
sg21
g22
sg23
(lp177
g1
(g25
g3
Ntp178
Rp179
(dp180
g29
V457
p181
sg31
VLumineon
p182
sg33
g34
sg35
V48
p183
sg37
(lp184
Vaqua-ring
p185
aVcaptivate
p186
aVsoak
p187
ag187
asg43
g44
sg45
Vstorm-drain
p188
sbag1
(g25
g3
Ntp189
Rp190
(dp191
g29
V171
p192
sg31
VLanturn
p193
sg33
g34
sg35
V49
p194
sg37
(lp195
Velectro-ball
p196
ag196
aVion-deluge
p197
aVeerie-impulse
p198
asg43
g44
sg45
Villuminate
p199
sbasg83
I00
sg84
g85
sba.