(lp0
ccopy_reg
_reconstructor
p1
(c__main__
Trainer
p2
c__builtin__
object
p3
Ntp4
Rp5
(dp6
VtSprite
p7
VVSAce Trainer F 2 SM.png
p8
sVtClass
p9
VAce Trainer
p10
sVtName
p11
VLindsey
p12
sVtMoney
p13
V3,060
p14
sVtPokeCount
p15
V2
p16
sVtLocation
p17
Vwiki/Poni_Wilds
p18
sVtRegion
p19
VAlola
p20
sVtGame
p21
VSM
p22
sVtPokes
p23
(lp24
g1
(c__main__
FinishedPokemon
p25
g3
Ntp26
Rp27
(dp28
VpDexNo
p29
V569
p30
sVpSpecies
p31
VGarbodor
p32
sVpGender
p33
VF
p34
sVpLevel
p35
V44
p36
sVpMoves
p37
(lp38
Vgunk-shot
p39
aVacid-spray
p40
aVclear-smog
p41
aVbelch
p42
asVpHold
p43
V
p44
sVpAbility
p45
Vstench
p46
sbag1
(g25
g3
Ntp47
Rp48
(dp49
g29
V748
p50
sg31
VToxapex
p51
sg33
g34
sg35
V45
p52
sg37
(lp53
Vvenoshock
p54
aVvenom-drench
p55
aVbaneful-bunker
p56
aVliquidation
p57
asg43
g44
sg45
Vmerciless
p58
sbasVbossFlag
p59
I00
sVtLongGame
p60
Vsun-moon
p61
sbag1
(g2
g3
Ntp62
Rp63
(dp64
g7
VVSAce Trainer M SM.png
p65
sg9
VAce Trainer
p66
sg11
VKekoa
p67
sg13
V3,060
p68
sg15
g16
sg17
g18
sg19
g20
sg21
VSM
p69
sg23
(lp70
g1
(g25
g3
Ntp71
Rp72
(dp73
g29
V227
p74
sg31
VSkarmory
p75
sg33
VM
p76
sg35
V44
p77
sg37
(lp78
Vfeint
p79
aVnight-slash
p80
aVair-slash
p81
aVautotomize
p82
asg43
g44
sg45
Vkeen-eye
p83
sbag1
(g25
g3
Ntp84
Rp85
(dp86
g29
V319
p87
sg31
VSharpedo
p88
sg33
g76
sg35
V45
p89
sg37
(lp90
Vnight-slash
p91
ag91
aVice-fang
p92
aVaqua-jet
p93
asg43
g44
sg45
Vrough-skin
p94
sbasg59
I00
sg60
g61
sbag1
(g2
g3
Ntp95
Rp96
(dp97
g7
VVSDancer SM.png
p98
sg9
VDancer
p99
sg11
VCara
p100
sg13
V1,720
p101
sg15
V1
p102
sg17
g18
sg19
g20
sg21
g22
sg23
(lp103
sg59
I00
sg60
g61
sbag1
(g2
g3
Ntp104
Rp105
(dp106
g7
VVSCook SM.png
p107
sg9
VCook
p108
sg11
VFil
p109
sg13
V1,720
p110
sg15
g16
sg17
g18
sg19
g20
sg21
g22
sg23
(lp111
g1
(g25
g3
Ntp112
Rp113
(dp114
g29
V047
p115
sg31
VParasect
p116
sg33
g76
sg35
V43
p117
sg37
(lp118
Varomatherapy
p119
aVx-scissor
p120
aVcross-poison
p121
aVrage-powder
p122
asg43
g44
sg45
Vdry-skin
p123
sbag1
(g25
g3
Ntp124
Rp125
(dp126
g29
V743
p127
sg31
VRibombee
p128
sg33
g76
sg35
V43
p129
sg37
(lp130
Vfairy-wind
p131
ag131
aVdazzling-gleam
p132
aVpollen-puff
p133
asg43
g44
sg45
Vhoney-gather
p134
sbasg59
I00
sg60
g61
sbag1
(g2
g3
Ntp135
Rp136
(dp137
g7
VVSDancer SM.png
p138
sg9
VDancer
p139
sg11
VJulia
p140
sg13
V1,720
p141
sg15
V4
p142
sg17
g18
sg19
g20
sg21
g22
sg23
(lp143
sg59
I00
sg60
g61
sbag1
(g2
g3
Ntp144
Rp145
(dp146
g7
VVSAce Trainer M SM.png
p147
sg9
VAce Trainer
p148
sg11
VElwood
p149
sg13
V3,128
p150
sg15
g16
sg17
g18
sg19
g20
sg21
g69
sg23
(lp151
g1
(g25
g3
Ntp152
Rp153
(dp154
g29
V357
p155
sg31
VTropius
p156
sg33
g76
sg35
V45
p157
sg37
(lp158
Vleaf-storm
p159
ag159
aVbestow
p160
aVleaf-tornado
p161
asg43
g44
sg45
Vchlorophyll
p162
sbag1
(g25
g3
Ntp163
Rp164
(dp165
g29
V549
p166
sg31
VLilligant
p167
sg33
g34
sg35
V46
p168
sg37
(lp169
Vsynthesis
p170
aVteeter-dance
p171
aVquiver-dance
p172
aVpetal-blizzard
p173
asg43
g44
sg45
Vchlorophyll
p174
sbasg59
I00
sg60
g61
sbag1
(g2
g3
Ntp175
Rp176
(dp177
g7
VVSCapoeira Couple USUM.png
p178
sg9
VCapoeira Couple
p179
sg11
VCara and Douglas
p180
sg13
V3,200
p181
sg15
g16
sg17
g18
sg19
g20
sg21
g22
sg23
(lp182
g1
(g25
g3
Ntp183
Rp184
(dp185
g29
V619
p186
sg31
VMienfoo
p187
sg33
g34
sg35
V44
p188
sg37
(lp189
Vforce-palm
p190
aVaura-sphere
p191
aVdrain-punch
p192
aVquick-guard
p193
asg43
g44
sg45
Vregenerator
p194
sbag1
(g25
g3
Ntp195
Rp196
(dp197
g29
V619
p198
sg31
VMienfoo
p199
sg33
g76
sg35
V45
p200
sg37
(lp201
Vforce-palm
p202
aVaura-sphere
p203
aVdrain-punch
p204
aVquick-guard
p205
asg43
g44
sg45
Vinner-focus
p206
sbasg59
I00
sg60
g61
sbag1
(g2
g3
Ntp207
Rp208
(dp209
g7
VVSAce Trainer F 2 USUM.png
p210
sg9
VAce Trainer
p211
sg11
VLindsey
p212
sg13
V3,128
p213
sg15
g16
sg17
g18
sg19
g20
sg21
g22
sg23
(lp214
g1
(g25
g3
Ntp215
Rp216
(dp217
g29
V569
p218
sg31
VGarbodor
p219
sg33
g34
sg35
V45
p220
sg37
(lp221
Vgunk-shot
p222
aVacid-spray
p223
aVclear-smog
p224
aVbelch
p225
asg43
g44
sg45
Vstench
p226
sbag1
(g25
g3
Ntp227
Rp228
(dp229
g29
V748
p230
sg31
VToxapex
p231
sg33
g34
sg35
V46
p232
sg37
(lp233
Vvenoshock
p234
aVvenom-drench
p235
aVbaneful-bunker
p236
aVliquidation
p237
asg43
g44
sg45
Vlimber
p238
sbasg59
I00
sg60
g61
sbag1
(g2
g3
Ntp239
Rp240
(dp241
g7
VVSAce Trainer M SM.png
p242
sg9
VAce Trainer
p243
sg11
VKekoa
p244
sg13
V3,128
p245
sg15
V3
p246
sg17
g18
sg19
g20
sg21
g69
sg23
(lp247
g1
(g25
g3
Ntp248
Rp249
(dp250
g29
V210
p251
sg31
VGranbull
p252
sg33
g76
sg35
V45
p253
sg37
(lp254
Vthunder-fang
p255
aVice-fang
p256
aVfire-fang
p257
aVplay-rough
p258
asg43
g44
sg45
Vquick-feet
p259
sbag1
(g25
g3
Ntp260
Rp261
(dp262
g29
V319
p263
sg31
VSharpedo
p264
sg33
g76
sg35
V45
p265
sg37
(lp266
Vnight-slash
p267
ag267
aVice-fang
p268
aVaqua-jet
p269
asg43
g44
sg45
Vrough-skin
p270
sbag1
(g25
g3
Ntp271
Rp272
(dp273
g29
V181
p274
sg31
VAmpharos
p275
sg33
g76
sg35
V46
p276
sg37
(lp277
Velectro-ball
p278
aVcotton-guard
p279
aVion-deluge
p280
aVmagnetic-flux
p281
asg43
g44
sg45
Vstatic
p282
sbasg59
I00
sg60
g61
sbag1
(g2
g3
Ntp283
Rp284
(dp285
g7
VVSCook SM.png
p286
sg9
VCook
p287
sg11
VFil
p288
sg13
V1,760
p289
sg15
g16
sg17
g18
sg19
g20
sg21
g22
sg23
(lp290
g1
(g25
g3
Ntp291
Rp292
(dp293
g29
V102
p294
sg31
VExeggcute
p295
sg33
g76
sg35
V44
p296
sg37
(lp297
Vbullet-seed
p298
aVnatural-gift
p299
aVworry-seed
p300
aVbestow
p301
asg43
g44
sg45
Vchlorophyll
p302
sbag1
(g25
g3
Ntp303
Rp304
(dp305
g29
V743
p306
sg31
VRibombee
p307
sg33
g76
sg35
V44
p308
sg37
(lp309
Vfairy-wind
p310
ag310
aVdazzling-gleam
p311
aVpollen-puff
p312
asg43
g44
sg45
Vshield-dust
p313
sbasg59
I00
sg60
g61
sbag1
(g2
g3
Ntp314
Rp315
(dp316
g7
VVSDancer SM.png
p317
sg9
VDancer
p318
sg11
VJulia
p319
sg13
V1,840
p320
sg15
g142
sg17
g18
sg19
g20
sg21
g22
sg23
(lp321
sg59
I00
sg60
g61
sba.