(lp0
ccopy_reg
_reconstructor
p1
(c__main__
Trainer
p2
c__builtin__
object
p3
Ntp4
Rp5
(dp6
VtSprite
p7
VVSBackpacker.png
p8
sVtClass
p9
VBackpacker
p10
sVtName
p11
VLane
p12
sVtMoney
p13
V1,040
p14
sVtPokeCount
p15
V1
p16
sVtLocation
p17
Vwiki/Reflection_Cave
p18
sVtRegion
p19
VKalos
p20
sVtGame
p21
VSM
p22
sVtPokes
p23
(lp24
g1
(c__main__
FinishedPokemon
p25
g3
Ntp26
Rp27
(dp28
VpDexNo
p29
V264
p30
sVpSpecies
p31
VLinoone
p32
sVpGender
p33
VM
p34
sVpLevel
p35
V26
p36
sVpMoves
p37
(lp38
Vswitcheroo
p39
aVbestow
p40
aVrototiller
p41
aVplay-rough
p42
asVpHold
p43
V
p44
sVpAbility
p45
Vpickup
p46
sbasVbossFlag
p47
I00
sVtLongGame
p48
Vsun-moon
p49
sbag1
(g2
g3
Ntp50
Rp51
(dp52
g7
VVSBattle Girl.png
p53
sg9
VBattle Girl
p54
sg11
VHedvig
p55
sg13
V1,248
p56
sg15
V2
p57
sg17
g18
sg19
g20
sg21
g22
sg23
(lp58
g1
(g25
g3
Ntp59
Rp60
(dp61
g29
V538
p62
sg31
VThroh
p63
sg33
g34
sg35
V25
p64
sg37
(lp65
Vwide-guard
p66
aVstorm-throw
p67
aVcircle-throw
p68
aVmat-block
p69
asg43
g44
sg45
Vinner-focus
p70
sbag1
(g25
g3
Ntp71
Rp72
(dp73
g29
V701
p74
sg31
VHawlucha
p75
sg33
VF
p76
sg35
V26
p77
sg37
(lp78
Vfling
p79
aVhone-claws
p80
aVsky-drop
p81
aVflying-press
p82
asg43
g44
sg45
Vunburden
p83
sbasg47
I00
sg48
g49
sbag1
(g2
g3
Ntp84
Rp85
(dp86
g7
VVSAce Trainer F.png
p87
sg9
VAce Trainer
p88
sg11
VMonique
p89
sg13
V2,500
p90
sg15
V3
p91
sg17
g18
sg19
g20
sg21
g22
sg23
(lp92
g1
(g25
g3
Ntp93
Rp94
(dp95
g29
V084
p96
sg31
VDoduo
p97
sg33
g76
sg35
V24
p98
sg37
(lp99
Vendeavor
p100
aVpluck
p101
aVacupressure
p102
aVdouble-hit
p103
asg43
g44
sg45
Vearly-bird
p104
sbag1
(g25
g3
Ntp105
Rp106
(dp107
g29
V210
p108
sg31
VGranbull
p109
sg33
g76
sg35
V24
p110
sg37
(lp111
Vthunder-fang
p112
aVice-fang
p113
aVfire-fang
p114
aVplay-rough
p115
asg43
g44
sg45
Vquick-feet
p116
sbag1
(g25
g3
Ntp117
Rp118
(dp119
g29
V694
p120
sg31
VHelioptile
p121
sg33
g76
sg35
V25
p122
sg37
(lp123
Vvolt-switch
p124
aVbulldoze
p125
aVparabolic-charge
p126
aVelectrify
p127
asg43
g44
sg45
Vdry-skin
p128
sbasg47
I00
sg48
g49
sbag1
(g2
g3
Ntp129
Rp130
(dp131
g7
VVSHiker.png
p132
sg9
VHiker
p133
sg11
VDunstan
p134
sg13
V1,344
p135
sg15
g91
sg17
g18
sg19
g20
sg21
g22
sg23
(lp136
g1
(g25
g3
Ntp137
Rp138
(dp139
g29
V551
p140
sg31
VSandile
p141
sg33
g34
sg35
V22
p142
sg37
(lp143
Vsand-tomb
p144
aVassurance
p145
aVembargo
p146
aVfoul-play
p147
asg43
g44
sg45
Vmoxie
p148
sbag1
(g25
g3
Ntp149
Rp150
(dp151
g29
V557
p152
sg31
VDwebble
p153
sg33
g34
sg35
V23
p154
sg37
(lp155
Vstealth-rock
p156
aVbug-bite
p157
aVsmack-down
p158
aVshell-smash
p159
asg43
g44
sg45
Vsturdy
p160
sbag1
(g25
g3
Ntp161
Rp162
(dp163
g29
V660
p164
sg31
VDiggersby
p165
sg33
g34
sg35
V24
p166
sg37
(lp167
Vhammer-arm
p168
ag168
aVbulldoze
p169
aVrototiller
p170
asg43
g44
sg45
Vcheek-pouch
p171
sbasg47
I00
sg48
g49
sbag1
(g2
g3
Ntp172
Rp173
(dp174
g7
VVSTourist F B.png
p175
sg9
VTourist
p176
sg11
VMonami
p177
sg13
V1,872
p178
sg15
g16
sg17
g18
sg19
g20
sg21
g22
sg23
(lp179
g1
(g25
g3
Ntp180
Rp181
(dp182
g29
V030
p183
sg31
VNidorina
p184
sg33
g76
sg35
V26
p185
sg37
(lp186
Vhelping-hand
p187
aVpoison-fang
p188
aVtoxic-spikes
p189
aVcaptivate
p190
asg43
g44
sg45
Vpoison-point
p191
sbasg47
I00
sg48
g49
sbag1
(g2
g3
Ntp192
Rp193
(dp194
g7
VVSBlack Belt.png
p195
sg9
VBlack Belt
p196
sg11
VIgor
p197
sg13
V1,344
p198
sg15
g16
sg17
g18
sg19
g20
sg21
g22
sg23
(lp199
g1
(g25
g3
Ntp200
Rp201
(dp202
g29
V539
p203
sg31
VSawk
p204
sg33
g34
sg35
V28
p205
sg37
(lp206
Vclose-combat
p207
aVlow-sweep
p208
aVquick-guard
p209
aVretaliate
p210
asg43
g44
sg45
Vsturdy
p211
sbasg47
I00
sg48
g49
sbag1
(g2
g3
Ntp212
Rp213
(dp214
g7
VVSPsychic.png
p215
sg9
VPsychic
p216
sg11
VFranz
p217
sg13
V1,344
p218
sg15
g57
sg17
g18
sg19
g20
sg21
g22
sg23
(lp219
g1
(g25
g3
Ntp220
Rp221
(dp222
g29
V358
p223
sg31
VChimecho
p224
sg33
g34
sg35
V24
p225
sg37
(lp226
Vhealing-wish
p227
aVsynchronoise
p228
ag228
aVheal-pulse
p229
asg43
g44
sg45
Vlevitate
p230
sbag1
(g25
g3
Ntp231
Rp232
(dp233
g29
V622
p234
sg31
VGolett
p235
sg33
VU
p236
sg35
V24
p237
sg37
(lp238
Vshadow-punch
p239
aViron-defense
p240
aVhammer-arm
p241
aVstomping-tantrum
p242
asg43
g44
sg45
Vklutz
p243
sbasg47
I00
sg48
g49
sbag1
(g2
g3
Ntp244
Rp245
(dp246
g7
VVSTourist M.png
p247
sg9
VTourist
p248
sg11
VHaruto
p249
sg13
V1,872
p250
sg15
g16
sg17
g18
sg19
g20
sg21
g22
sg23
(lp251
g1
(g25
g3
Ntp252
Rp253
(dp254
g29
V033
p255
sg31
VNidorino
p256
sg33
g34
sg35
V26
p257
sg37
(lp258
Vhelping-hand
p259
aVtoxic-spikes
p260
aVpoison-jab
p261
aVcaptivate
p262
asg43
g44
sg45
Vpoison-point
p263
sbasg47
I00
sg48
g49
sbag1
(g2
g3
Ntp264
Rp265
(dp266
g7
VVSHoneymooners.png
p267
sg9
VHoneymooners
p268
sg11
VYuu & Ami
p269
sg13
V3,744
p270
sg15
g57
sg17
g18
sg19
g20
sg21
g22
sg23
(lp271
g1
(g25
g3
Ntp272
Rp273
(dp274
g29
V415
p275
sg31
VCombee
p276
sg33
g34
sg35
V26
p277
sg37
(lp278
Vgust
p279
aVsweet-scent
p280
aVbug-buzz
p281
aVbug-bite
p282
asg43
g44
sg45
Vhoney-gather
p283
sbag1
(g25
g3
Ntp284
Rp285
(dp286
g29
V416
p287
sg31
VVespiquen
p288
sg33
g76
sg35
V26
p289
sg37
(lp290
Vdefend-order
p291
aVheal-order
p292
aVfell-stinger
p293
ag293
asg43
g44
sg45
Vpressure
p294
sbasg47
I00
sg48
g49
sbag1
(g2
g3
Ntp295
Rp296
(dp297
g7
VVSAce Trainer M.png
p298
sg9
VAce Trainer
p299
sg11
VEmil
p300
sg13
V2,500
p301
sg15
g57
sg17
g18
sg19
g20
sg21
g22
sg23
(lp302
g1
(g25
g3
Ntp303
Rp304
(dp305
g29
V359
p306
sg31
VAbsol
p307
sg33
g34
sg35
V26
p308
sg37
(lp309
Vme-first
p310
aVsucker-punch
p311
aVnight-slash
p312
aVpsycho-cut
p313
asg43
g44
sg45
Vpressure
p314
sbag1
(g25
g3
Ntp315
Rp316
(dp317
g29
V127
p318
sg31
VPinsir
p319
sg33
g34
sg35
V25
p320
sg37
(lp321
Vbrick-break
p322
aVx-scissor
p323
aVdouble-hit
p324
aVstorm-throw
p325
asg43
g44
sg45
Vhyper-cutter
p326
sbasg47
I00
sg48
g49
sba.