(lp0
ccopy_reg
_reconstructor
p1
(c__main__
Trainer
p2
c__builtin__
object
p3
Ntp4
Rp5
(dp6
VtSprite
p7
VSpr B2W2 Scientist M.png
p8
sVtClass
p9
VScientist
p10
sVtName
p11
VTerrance
p12
sVtMoney
p13
g1
(cmwparserfromhell.wikicode
Wikicode
p14
g3
Ntp15
Rp16
(dp17
V_nodes
p18
g1
(cmwparserfromhell.smart_list.smart_list
SmartList
p19
c__builtin__
list
p20
(lp21
g1
(cmwparserfromhell.nodes.text
Text
p22
g3
Ntp23
Rp24
(dp25
V_value
p26
V864
p27
sbatp28
Rp29
(dp30
V_children
p31
(dp32
sbsbsVtPokeCount
p33
V1
p34
sVtLocation
p35
Vwiki/Relic_Passage
p36
sVtRegion
p37
VUnova
p38
sVtGame
p39
VB2W2
p40
sVtPokes
p41
(lp42
g1
(c__main__
FinishedPokemon
p43
g3
Ntp44
Rp45
(dp46
VpDexNo
p47
V088
p48
sVpSpecies
p49
VGrimer
p50
sVpGender
p51
VM
p52
sVpLevel
p53
V18
p54
sVpMoves
p55
(lp56
Vfling
p57
aVmud-bomb
p58
aVgunk-shot
p59
aVsludge-wave
p60
asVpHold
p61
V
p62
sVpAbility
p63
Vsticky-hold
p64
sbasVbossFlag
p65
I00
sVtLongGame
p66
Vblack-2-white-2
p67
sbag1
(g2
g3
Ntp68
Rp69
(dp70
g7
VSpr B2W2 Scientist F.png
p71
sg9
VScientist
p72
sg11
VLumina
p73
sg13
g1
(g14
g3
Ntp74
Rp75
(dp76
g18
g1
(g19
g20
(lp77
g1
(g22
g3
Ntp78
Rp79
(dp80
g26
V816
p81
sbatp82
Rp83
(dp84
g31
(dp85
sbsbsg33
V2
p86
sg35
g36
sg37
g38
sg39
g40
sg41
(lp87
g1
(g43
g3
Ntp88
Rp89
(dp90
g47
V543
p91
sg49
VVenipede
p92
sg51
VF
p93
sg53
V17
p94
sg55
(lp95
Vrock-climb
p96
aVbug-bite
p97
aVvenoshock
p98
aVsteamroller
p99
asg61
g62
sg63
Vpoison-point
p100
sbag1
(g43
g3
Ntp101
Rp102
(dp103
g47
V109
p104
sg49
VKoffing
p105
sg51
g93
sg53
V17
p106
sg55
(lp107
Vmemento
p108
aVgyro-ball
p109
aVassurance
p110
aVclear-smog
p111
asg61
g62
sg63
Vlevitate
p112
sbasg65
I00
sg66
g67
sbag1
(g2
g3
Ntp113
Rp114
(dp115
g7
VSpr B2W2 Backpacker M.png
p116
sg9
VBackpacker
p117
sg11
VKendall
p118
sg13
g1
(g14
g3
Ntp119
Rp120
(dp121
g18
g1
(g19
g20
(lp122
g1
(g22
g3
Ntp123
Rp124
(dp125
g26
V432
p126
sbatp127
Rp128
(dp129
g31
(dp130
sbsbsg33
g34
sg35
g36
sg37
g38
sg39
g40
sg41
(lp131
g1
(g43
g3
Ntp132
Rp133
(dp134
g47
V507
p135
sg49
VHerdier
p136
sg51
g52
sg53
V18
p137
sg55
(lp138
Vlast-resort
p139
aVgiga-impact
p140
aVretaliate
p141
aVwork-up
p142
asg61
g62
sg63
Vsand-rush
p143
sbasg65
I00
sg66
g67
sbag1
(g2
g3
Ntp144
Rp145
(dp146
g7
VSpr B2W2 Backpacker F.png
p147
sg9
VBackpacker
p148
sg11
VEileen
p149
sg13
g1
(g14
g3
Ntp150
Rp151
(dp152
g18
g1
(g19
g20
(lp153
g1
(g22
g3
Ntp154
Rp155
(dp156
g26
V768
p157
sbatp158
Rp159
(dp160
g31
(dp161
sbsbsg33
g34
sg35
g36
sg37
g38
sg39
g40
sg41
(lp162
g1
(g43
g3
Ntp163
Rp164
(dp165
g47
V028
p166
sg49
VSandslash
p167
sg51
g93
sg53
V32
p168
sg55
(lp169
Vrapid-spin
p170
aVcrush-claw
p171
aVsand-tomb
p172
aVgyro-ball
p173
asg61
g62
sg63
Vsand-veil
p174
sbasg65
I00
sg66
g67
sbag1
(g2
g3
Ntp175
Rp176
(dp177
g7
VSpr B2W2 Hiker.png
p178
sg9
VHiker
p179
sg11
VKeith
p180
sg13
g1
(g14
g3
Ntp181
Rp182
(dp183
g18
g1
(g19
g20
(lp184
g1
(g22
g3
Ntp185
Rp186
(dp187
g26
V992
p188
sbatp189
Rp190
(dp191
g31
(dp192
sbsbsg33
g86
sg35
g36
sg37
g38
sg39
g40
sg41
(lp193
g1
(g43
g3
Ntp194
Rp195
(dp196
g47
V529
p197
sg49
VDrilbur
p198
sg51
g52
sg53
V31
p199
sg55
(lp200
Vmetal-claw
p201
aVmud-sport
p202
aVhone-claws
p203
aVdrill-run
p204
asg61
g62
sg63
Vsand-force
p205
sbag1
(g43
g3
Ntp206
Rp207
(dp208
g47
V524
p209
sg49
VRoggenrola
p210
sg51
g52
sg53
V31
p211
sg55
(lp212
Vrock-blast
p213
aVstone-edge
p214
aVstealth-rock
p215
aVsmack-down
p216
asg61
g62
sg63
Vweak-armor
p217
sbasg65
I00
sg66
g67
sbag1
(g2
g3
Ntp218
Rp219
(dp220
g7
VSpr B2W2 Backpacker M.png
p221
sg9
VBackpacker
p222
sg11
VRandall
p223
sg13
g1
(g14
g3
Ntp224
Rp225
(dp226
g18
g1
(g19
g20
(lp227
g1
(g22
g3
Ntp228
Rp229
(dp230
g26
V768
p231
sbatp232
Rp233
(dp234
g31
(dp235
sbsbsg33
g34
sg35
g36
sg37
g38
sg39
g40
sg41
(lp236
g1
(g43
g3
Ntp237
Rp238
(dp239
g47
V020
p240
sg49
VRaticate
p241
sg51
g52
sg53
V32
p242
sg55
(lp243
Vcrunch
p244
aVendeavor
p245
aVassurance
p246
aVsucker-punch
p247
asg61
g62
sg63
Vrun-away
p248
sbasg65
I00
sg66
g67
sbag1
(g2
g3
Ntp249
Rp250
(dp251
g7
VSpr B2W2 Hiker.png
p252
sg9
VHiker
p253
sg11
VTobias
p254
sg13
g1
(g14
g3
Ntp255
Rp256
(dp257
g18
g1
(g19
g20
(lp258
g1
(g22
g3
Ntp259
Rp260
(dp261
g26
V992
p262
sbatp263
Rp264
(dp265
g31
(dp266
sbsbsg33
g86
sg35
g36
sg37
g38
sg39
g40
sg41
(lp267
g1
(g43
g3
Ntp268
Rp269
(dp270
g47
V524
p271
sg49
VRoggenrola
p272
sg51
g52
sg53
V31
p273
sg55
(lp274
Vrock-blast
p275
aVstone-edge
p276
aVstealth-rock
p277
aVsmack-down
p278
asg61
g62
sg63
Vsturdy
p279
sbag1
(g43
g3
Ntp280
Rp281
(dp282
g47
V532
p283
sg49
VTimburr
p284
sg51
g52
sg53
V31
p285
sg55
(lp286
Vwake-up-slap
p287
aVhammer-arm
p288
aVstone-edge
p289
aVchip-away
p290
asg61
g62
sg63
Vguts
p291
sbasg65
I00
sg66
g67
sbag1
(g2
g3
Ntp292
Rp293
(dp294
g7
VSpr B2W2 Psychic M.png
p295
sg9
VPsychic
p296
sg11
VTully
p297
sg13
g1
(g14
g3
Ntp298
Rp299
(dp300
g18
g1
(g19
g20
(lp301
g1
(g22
g3
Ntp302
Rp303
(dp304
g26
V1056
p305
sbatp306
Rp307
(dp308
g31
(dp309
sbsbsg33
g34
sg35
g36
sg37
g38
sg39
g40
sg41
(lp310
g1
(g43
g3
Ntp311
Rp312
(dp313
g47
V528
p314
sg49
VSwoobat
p315
sg51
g52
sg53
V33
p316
sg55
(lp317
Vassurance
p318
ag318
aVair-slash
p319
aVheart-stamp
p320
asg61
g62
sg63
Vunaware
p321
sbasg65
I00
sg66
g67
sbag1
(g2
g3
Ntp322
Rp323
(dp324
g7
VSpr B2W2 Backpacker F.png
p325
sg9
VBackpacker
p326
sg11
VAnnie
p327
sg13
g1
(g14
g3
Ntp328
Rp329
(dp330
g18
g1
(g19
g20
(lp331
g1
(g22
g3
Ntp332
Rp333
(dp334
g26
V768
p335
sbatp336
Rp337
(dp338
g31
(dp339
sbsbsg33
g34
sg35
g36
sg37
g38
sg39
g40
sg41
(lp340
g1
(g43
g3
Ntp341
Rp342
(dp343
g47
V505
p344
sg49
VWatchog
p345
sg51
g93
sg53
V32
p346
sg55
(lp347
Vbaton-pass
p348
aVcrunch
p349
aVpsych-up
p350
aVafter-you
p351
asg61
g62
sg63
Vkeen-eye
p352
sbasg65
I00
sg66
g67
sbag1
(g2
g3
Ntp353
Rp354
(dp355
g7
VSpr B2W2 Psychic F.png
p356
sg9
VPsychic
p357
sg11
VEna
p358
sg13
g1
(g14
g3
Ntp359
Rp360
(dp361
g18
g1
(g19
g20
(lp362
g1
(g22
g3
Ntp363
Rp364
(dp365
g26
V1024
p366
sbatp367
Rp368
(dp369
g31
(dp370
sbsbsg33
g86
sg35
g36
sg37
g38
sg39
g40
sg41
(lp371
g1
(g43
g3
Ntp372
Rp373
(dp374
g47
V343
p375
sg49
VBaltoy
p376
sg51
VU
p377
sg53
V32
p378
sg55
(lp379
Vpower-trick
p380
aVearth-power
p381
aVguard-split
p382
aVpower-split
p383
asg61
g62
sg63
Vlevitate
p384
sbag1
(g43
g3
Ntp385
Rp386
(dp387
g47
V562
p388
sg49
VYamask
p389
sg51
g93
sg53
V32
p390
sg55
(lp391
Vominous-wind
p392
aVguard-split
p393
aVpower-split
p394
aVhex
p395
asg61
g62
sg63
Vmummy
p396
sbasg65
I00
sg66
g67
sba.