(lp0
ccopy_reg
_reconstructor
p1
(c__main__
Trainer
p2
c__builtin__
object
p3
Ntp4
Rp5
(dp6
VtSprite
p7
VSpr BW Psychic M.png
p8
sVtClass
p9
VPsychic
p10
sVtName
p11
VPerry
p12
sVtMoney
p13
V768
p14
sVtPokeCount
p15
V1
p16
sVtLocation
p17
Vwiki/Relic_Castle
p18
sVtRegion
p19
VUnova
p20
sVtGame
p21
VBW
p22
sVtPokes
p23
(lp24
g1
(c__main__
FinishedPokemon
p25
g3
Ntp26
Rp27
(dp28
VpDexNo
p29
V561
p30
sVpSpecies
p31
VSigilyph
p32
sVpGender
p33
VM
p34
sVpLevel
p35
V24
p36
sVpMoves
p37
(lp38
Vmiracle-eye
p39
aVtailwind
p40
aVair-slash
p41
aVsynchronoise
p42
asVpHold
p43
V
p44
sVpAbility
p45
Vmagic-guard
p46
sbasVbossFlag
p47
I00
sVtLongGame
p48
Vblack-white
p49
sbag1
(g2
g3
Ntp50
Rp51
(dp52
g7
VSpr BW Psychic F.png
p53
sg9
VPsychic
p54
sg11
VDua
p55
sg13
V736
p56
sg15
V2
p57
sg17
g18
sg19
g20
sg21
g22
sg23
(lp58
g1
(g25
g3
Ntp59
Rp60
(dp61
g29
V527
p62
sg31
VWoobat
p63
sg33
VF
p64
sg35
V23
p65
sg37
(lp66
Vcalm-mind
p67
aVassurance
p68
aVair-slash
p69
aVheart-stamp
p70
asg43
g44
sg45
Vklutz
p71
sbag1
(g25
g3
Ntp72
Rp73
(dp74
g29
V517
p75
sg31
VMunna
p76
sg33
g64
sg35
V23
p77
sg37
(lp78
Vzen-headbutt
p79
aVtelekinesis
p80
aVsynchronoise
p81
aVstored-power
p82
asg43
g44
sg45
Vforewarn
p83
sbasg47
I00
sg48
g49
sbag1
(g2
g3
Ntp84
Rp85
(dp86
g7
VSpr BW Plasma Grunt M.png
p87
sg9
VTeam Plasma Grunt
p88
sg11
g44
sg13
V1360
p89
sg15
V3
p90
sg17
g18
sg19
g20
sg21
g22
sg23
(lp91
g1
(g25
g3
Ntp92
Rp93
(dp94
g29
V505
p95
sg31
VWatchog
p96
sg33
g34
sg35
V34
p97
sg37
(lp98
Vbaton-pass
p99
aVcrunch
p100
aVpsych-up
p101
aVafter-you
p102
asg43
g44
sg45
Vkeen-eye
p103
sbag1
(g25
g3
Ntp104
Rp105
(dp106
g29
V552
p107
sg31
VKrokorok
p108
sg33
g34
sg35
V34
p109
sg37
(lp110
Vsand-tomb
p111
aVassurance
p112
aVembargo
p113
aVfoul-play
p114
asg43
g44
sg45
Vintimidate
p115
sbag1
(g25
g3
Ntp116
Rp117
(dp118
g29
V552
p119
sg31
VKrokorok
p120
sg33
g34
sg35
V34
p121
sg37
(lp122
Vsand-tomb
p123
aVassurance
p124
aVembargo
p125
aVfoul-play
p126
asg43
g44
sg45
Vintimidate
p127
sbasg47
I00
sg48
g49
sbag1
(g2
g3
Ntp128
Rp129
(dp130
g7
VSpr BW Plasma Grunt M.png
p131
sg9
VTeam Plasma Grunt
p132
sg11
g44
sg13
V1400
p133
sg15
g57
sg17
g18
sg19
g20
sg21
g22
sg23
(lp134
g1
(g25
g3
Ntp135
Rp136
(dp137
g29
V559
p138
sg31
VScraggy
p139
sg33
g34
sg35
V35
p140
sg37
(lp141
Vpayback
p142
aVrock-climb
p143
aVhead-smash
p144
aVchip-away
p145
asg43
g44
sg45
Vmoxie
p146
sbag1
(g25
g3
Ntp147
Rp148
(dp149
g29
V505
p150
sg31
VWatchog
p151
sg33
g34
sg35
V35
p152
sg37
(lp153
Vbaton-pass
p154
aVcrunch
p155
aVpsych-up
p156
aVafter-you
p157
asg43
g44
sg45
Villuminate
p158
sbasg47
I00
sg48
g49
sbag1
(g2
g3
Ntp159
Rp160
(dp161
g7
VSpr BW Plasma Grunt F.png
p162
sg9
VTeam Plasma Grunt
p163
sg11
g44
sg13
V1440
p164
sg15
g16
sg17
g18
sg19
g20
sg21
g22
sg23
(lp165
g1
(g25
g3
Ntp166
Rp167
(dp168
g29
V569
p169
sg31
VGarbodor
p170
sg33
g64
sg35
V36
p171
sg37
(lp172
Vtoxic-spikes
p173
aVgunk-shot
p174
aVacid-spray
p175
aVclear-smog
p176
asg43
g44
sg45
Vstench
p177
sbasg47
I00
sg48
g49
sbag1
(g2
g3
Ntp178
Rp179
(dp180
g7
VSpr BW Plasma Grunt M.png
p181
sg9
VTeam Plasma Grunt
p182
sg11
g44
sg13
V1440
p183
sg15
g16
sg17
g18
sg19
g20
sg21
g22
sg23
(lp184
g1
(g25
g3
Ntp185
Rp186
(dp187
g29
V552
p188
sg31
VKrokorok
p189
sg33
g34
sg35
V36
p190
sg37
(lp191
Vsand-tomb
p192
aVassurance
p193
aVembargo
p194
aVfoul-play
p195
asg43
g44
sg45
Vintimidate
p196
sbasg47
I00
sg48
g49
sbag1
(g2
g3
Ntp197
Rp198
(dp199
g7
VSpr BW Plasma Grunt F.png
p200
sg9
VTeam Plasma Grunt
p201
sg11
g44
sg13
V1360
p202
sg15
g90
sg17
g18
sg19
g20
sg21
g22
sg23
(lp203
g1
(g25
g3
Ntp204
Rp205
(dp206
g29
V510
p207
sg31
VLiepard
p208
sg33
g64
sg35
V34
p209
sg37
(lp210
Vsucker-punch
p211
aVnight-slash
p212
aVnasty-plot
p213
aVhone-claws
p214
asg43
g44
sg45
Vunburden
p215
sbag1
(g25
g3
Ntp216
Rp217
(dp218
g29
V568
p219
sg31
VTrubbish
p220
sg33
g64
sg35
V34
p221
sg37
(lp222
Vtoxic-spikes
p223
aVgunk-shot
p224
aVacid-spray
p225
aVclear-smog
p226
asg43
g44
sg45
Vstench
p227
sbag1
(g25
g3
Ntp228
Rp229
(dp230
g29
V568
p231
sg31
VTrubbish
p232
sg33
g64
sg35
V34
p233
sg37
(lp234
Vtoxic-spikes
p235
aVgunk-shot
p236
aVacid-spray
p237
aVclear-smog
p238
asg43
g44
sg45
Vsticky-hold
p239
sbasg47
I00
sg48
g49
sbag1
(g2
g3
Ntp240
Rp241
(dp242
g7
VSpr BW Plasma Grunt M.png
p243
sg9
VTeam Plasma Grunt
p244
sg11
g44
sg13
V1400
p245
sg15
g57
sg17
g18
sg19
g20
sg21
g22
sg23
(lp246
g1
(g25
g3
Ntp247
Rp248
(dp249
g29
V505
p250
sg31
VWatchog
p251
sg33
g34
sg35
V35
p252
sg37
(lp253
Vbaton-pass
p254
aVcrunch
p255
aVpsych-up
p256
aVafter-you
p257
asg43
g44
sg45
Villuminate
p258
sbag1
(g25
g3
Ntp259
Rp260
(dp261
g29
V559
p262
sg31
VScraggy
p263
sg33
g34
sg35
V35
p264
sg37
(lp265
Vpayback
p266
aVrock-climb
p267
aVhead-smash
p268
aVchip-away
p269
asg43
g44
sg45
Vmoxie
p270
sbasg47
I00
sg48
g49
sbag1
(g2
g3
Ntp271
Rp272
(dp273
g7
VSpr BW Plasma Grunt F.png
p274
sg9
VTeam Plasma Grunt
p275
sg11
g44
sg13
V1400
p276
sg15
g57
sg17
g18
sg19
g20
sg21
g22
sg23
(lp277
g1
(g25
g3
Ntp278
Rp279
(dp280
g29
V568
p281
sg31
VTrubbish
p282
sg33
g64
sg35
V35
p283
sg37
(lp284
Vtoxic-spikes
p285
aVgunk-shot
p286
aVacid-spray
p287
aVclear-smog
p288
asg43
g44
sg45
Vstench
p289
sbag1
(g25
g3
Ntp290
Rp291
(dp292
g29
V510
p293
sg31
VLiepard
p294
sg33
g64
sg35
V35
p295
sg37
(lp296
Vsucker-punch
p297
aVnight-slash
p298
aVnasty-plot
p299
aVhone-claws
p300
asg43
g44
sg45
Vlimber
p301
sbasg47
I00
sg48
g49
sbag1
(g2
g3
Ntp302
Rp303
(dp304
g7
VSpr BW Plasma Grunt M.png
p305
sg9
VTeam Plasma Grunt
p306
sg11
g44
sg13
V2560
p307
sg15
g16
sg17
g18
sg19
g20
sg21
g22
sg23
(lp308
g1
(g25
g3
Ntp309
Rp310
(dp311
g29
V553
p312
sg31
VKrookodile
p313
sg33
g34
sg35
V64
p314
sg37
(lp315
Vsand-tomb
p316
aVassurance
p317
aVembargo
p318
aVfoul-play
p319
asg43
g44
sg45
Vmoxie
p320
sbasg47
I00
sg48
g49
sbag1
(g2
g3
Ntp321
Rp322
(dp323
g7
VSpr B2W2 Psychic M.png
p324
sg9
VPsychic
p325
sg11
VPerry
p326
sg13
g1
(cmwparserfromhell.wikicode
Wikicode
p327
g3
Ntp328
Rp329
(dp330
V_nodes
p331
g1
(cmwparserfromhell.smart_list.smart_list
SmartList
p332
c__builtin__
list
p333
(lp334
g1
(cmwparserfromhell.nodes.text
Text
p335
g3
Ntp336
Rp337
(dp338
V_value
p339
V736
p340
sbatp341
Rp342
(dp343
V_children
p344
(dp345
sbsbsg15
g16
sg17
g18
sg19
g20
sg21
VB2W2
p346
sg23
(lp347
g1
(g25
g3
Ntp348
Rp349
(dp350
g29
V561
p351
sg31
VSigilyph
p352
sg33
g34
sg35
V23
p353
sg37
(lp354
Vmiracle-eye
p355
aVtailwind
p356
aVair-slash
p357
aVsynchronoise
p358
asg43
g44
sg45
Vmagic-guard
p359
sbasg47
I00
sg48
Vblack-2-white-2
p360
sbag1
(g2
g3
Ntp361
Rp362
(dp363
g7
VSpr B2W2 Psychic F.png
p364
sg9
VPsychic
p365
sg11
VDua
p366
sg13
g1
(g327
g3
Ntp367
Rp368
(dp369
g331
g1
(g332
g333
(lp370
g1
(g335
g3
Ntp371
Rp372
(dp373
g339
V736
p374
sbatp375
Rp376
(dp377
g344
(dp378
sbsbsg15
g16
sg17
g18
sg19
g20
sg21
g346
sg23
(lp379
g1
(g25
g3
Ntp380
Rp381
(dp382
g29
V574
p383
sg31
VGothita
p384
sg33
g64
sg35
V23
p385
sg37
(lp386
Vheal-block
p387
aVpsyshock
p388
aVtelekinesis
p389
aVmagic-room
p390
asg43
g44
sg45
Vfrisk
p391
sbasg47
I00
sg48
g360
sbag1
(g2
g3
Ntp392
Rp393
(dp394
g7
VSpr B2W2 Psychic M.png
p395
sg9
VPsychic
p396
sg11
VLow
p397
sg13
g1
(g327
g3
Ntp398
Rp399
(dp400
g331
g1
(g332
g333
(lp401
g1
(g335
g3
Ntp402
Rp403
(dp404
g339
V736
p405
sbatp406
Rp407
(dp408
g344
(dp409
sbsbsg15
g16
sg17
g18
sg19
g20
sg21
g346
sg23
(lp410
g1
(g25
g3
Ntp411
Rp412
(dp413
g29
V577
p414
sg31
VSolosis
p415
sg33
g34
sg35
V23
p416
sg37
(lp417
Vsnatch
p418
aVheal-block
p419
aVwonder-room
p420
aVpsyshock
p421
asg43
g44
sg45
Vovercoat
p422
sbasg47
I00
sg48
g360
sba.