(lp0
ccopy_reg
_reconstructor
p1
(c__main__
Trainer
p2
c__builtin__
object
p3
Ntp4
Rp5
(dp6
VtSprite
p7
VSpr FRLG Team Rocket Grunt F.png
p8
sVtClass
p9
VTeam Rocket Grunt
p10
sVtName
p11
V
p12
sVtMoney
p13
V1568
p14
sVtPokeCount
p15
V2
p16
sVtLocation
p17
Vwiki/Rocket_Warehouse
p18
sVtRegion
p19
Vlands
p20
sVtGame
p21
VFRLG
p22
sVtPokes
p23
(lp24
g1
(c__main__
FinishedPokemon
p25
g3
Ntp26
Rp27
(dp28
VpDexNo
p29
V228
p30
sVpSpecies
p31
VHoundour
p32
sVpGender
p33
VM
p34
sVpLevel
p35
V49
p36
sVpMoves
p37
(lp38
Vfeint-attack
p39
aVcrunch
p40
aVodor-sleuth
p41
aVhowl
p42
asVpHold
p43
g12
sVpAbility
p44
Vflash-fire
p45
sbag1
(g25
g3
Ntp46
Rp47
(dp48
g29
V228
p49
sg31
VHoundour
p50
sg33
g34
sg35
V49
p51
sg37
(lp52
Vfeint-attack
p53
aVcrunch
p54
aVodor-sleuth
p55
aVhowl
p56
asg43
g12
sg44
Vflash-fire
p57
sbasVbossFlag
p58
I00
sVtLongGame
p59
Vfirered-leafgreen
p60
sbag1
(g2
g3
Ntp61
Rp62
(dp63
g7
VSpr FRLG Team Rocket Grunt M.png
p64
sg9
VTeam Rocket Grunt
p65
sg11
g12
sg13
V1536
p66
sg15
V3
p67
sg17
g18
sg19
g20
sg21
g22
sg23
(lp68
g1
(g25
g3
Ntp69
Rp70
(dp71
g29
V066
p72
sg31
VMachop
p73
sg33
g34
sg35
V48
p74
sg37
(lp75
Vdynamic-punch
p76
aVvital-throw
p77
aVcross-chop
p78
aVrevenge
p79
asg43
g12
sg44
Vno-guard
p80
sbag1
(g25
g3
Ntp81
Rp82
(dp83
g29
V066
p84
sg31
VMachop
p85
sg33
g34
sg35
V48
p86
sg37
(lp87
Vdynamic-punch
p88
aVvital-throw
p89
aVcross-chop
p90
aVrevenge
p91
asg43
g12
sg44
Vno-guard
p92
sbag1
(g25
g3
Ntp93
Rp94
(dp95
g29
V067
p96
sg31
VMachoke
p97
sg33
g34
sg35
V48
p98
sg37
(lp99
Vdynamic-punch
p100
aVvital-throw
p101
aVcross-chop
p102
aVrevenge
p103
asg43
g12
sg44
Vguts
p104
sbasg58
I00
sg59
g60
sbag1
(g2
g3
Ntp105
Rp106
(dp107
g7
VSpr FRLG Team Rocket Grunt M.png
p108
sg9
VTeam Rocket Grunt
p109
sg11
g12
sg13
V1568
p110
sg15
g16
sg17
g18
sg19
g20
sg21
g22
sg23
(lp111
g1
(g25
g3
Ntp112
Rp113
(dp114
g29
V097
p115
sg31
VHypno
p116
sg33
g34
sg35
V49
p117
sg37
(lp118
Vnightmare
p119
aVswagger
p120
aVpsych-up
p121
aVfuture-sight
p122
asg43
g12
sg44
Vinsomnia
p123
sbag1
(g25
g3
Ntp124
Rp125
(dp126
g29
V097
p127
sg31
VHypno
p128
sg33
g34
sg35
V49
p129
sg37
(lp130
Vnightmare
p131
aVswagger
p132
aVpsych-up
p133
aVfuture-sight
p134
asg43
g12
sg44
Vforewarn
p135
sbasg58
I00
sg59
g60
sbag1
(g2
g3
Ntp136
Rp137
(dp138
g7
VSpr FRLG Team Rocket Grunt F.png
p139
sg9
VTeam Rocket
p140
sg11
VAriana
p141
sg13
V1728
p142
sg15
I3
sg17
g18
sg19
g20
sg21
g22
sg23
(lp143
g1
(g25
g3
Ntp144
Rp145
(dp146
g29
I89
sg31
VMuk
p147
sg33
g34
sg35
V52
p148
sg37
(lp149
VRock Tomb
p150
aVMinimize
p151
aVSludge Bomb
p152
aVScreech
p153
asg43
g12
sg44
VStench
p154
sbag1
(g25
g3
Ntp155
Rp156
(dp157
g29
I24
sg31
VArbok
p158
sg33
g34
sg35
V53
p159
sg37
(lp160
VSludge Bomb
p161
aVEarthquake
p162
aVIron Tail
p163
aVBite
p164
asg43
g12
sg44
VIntimidate
p165
sbag1
(g25
g3
Ntp166
Rp167
(dp168
g29
I45
sg31
VVileplume
p169
sg33
g34
sg35
V54
p170
sg37
(lp171
VStun Spore
p172
aVGiga Drain
p173
aVSludge Bomb
p174
aVSleep Powder
p175
asg43
g12
sg44
VChlorophyll
p176
sbasg58
I01
sg59
g60
sbag1
(g2
g3
Ntp177
Rp178
(dp179
g7
VSpr FRLG Team Rocket Grunt M.png
p180
sg9
VTeam Rocket
p181
sg11
VArcher
p182
sg13
V1760
p183
sg15
I3
sg17
g18
sg19
g20
sg21
g22
sg23
(lp184
g1
(g25
g3
Ntp185
Rp186
(dp187
g29
I42
sg31
VGolbat
p188
sg33
g34
sg35
V53
p189
sg37
(lp190
VShadow Ball
p191
aVSludge Bomb
p192
aVConfuse Ray
p193
aVAir Cutter
p194
asg43
g12
sg44
VInner Focus
p195
sbag1
(g25
g3
Ntp196
Rp197
(dp198
g29
I110
sg31
VWeezing
p199
sg33
g34
sg35
V54
p200
sg37
(lp201
VThunderbolt
p202
aVShadow Ball
p203
aVExplosion
p204
aVSludge Bomb
p205
asg43
g12
sg44
VLevitate
p206
sbag1
(g25
g3
Ntp207
Rp208
(dp209
g29
I229
sg31
VHoundoom
p210
sg33
g34
sg35
V55
p211
sg37
(lp212
VFlamethrower
p213
aVCrunch
p214
aVShadow Ball
p215
aVIron Tail
p216
asg43
g12
sg44
VEarly Bird
p217
sbasg58
I01
sg59
g60
sbag1
(g2
g3
Ntp218
Rp219
(dp220
g7
VSpr FRLG Scientist.png
p221
sg9
VScientist
p222
sg11
VGideon
p223
sg13
V2208
p224
sg15
I5
sg17
g18
sg19
g20
sg21
g22
sg23
(lp225
g1
(g25
g3
Ntp226
Rp227
(dp228
g29
I100
sg31
VVoltorb
p229
sg33
VU
p230
sg35
V46
p231
sg37
(lp232
VSwift
p233
aVScreech
p234
aVSpark
p235
aVSonicBoom
p236
asg43
g12
sg44
VStatic
p237
sbag1
(g25
g3
Ntp238
Rp239
(dp240
g29
I101
sg31
VElectrode
p241
sg33
g230
sg35
V46
p242
sg37
(lp243
VSpark
p244
aVSonicBoom
p245
aVScreech
p246
aVCharge
p247
asg43
g12
sg44
VStatic
p248
sbag1
(g25
g3
Ntp249
Rp250
(dp251
g29
I81
sg31
VMagnemite
p252
sg33
g230
sg35
V46
p253
sg37
(lp254
VScreech
p255
aVSwift
p256
aVSpark
p257
aVThunder Wave
p258
asg43
g12
sg44
VSturdy
p259
sbag1
(g25
g3
Ntp260
Rp261
(dp262
g29
I82
sg31
VMagneton
p263
sg33
g230
sg35
V46
p264
sg37
(lp265
VTri Attack
p266
aVSpark
p267
aVThunder Wave
p268
aVSonicBoom
p269
asg43
g12
sg44
VSturdy
p270
sbag1
(g25
g3
Ntp271
Rp272
(dp273
g29
I137
sg31
VPorygon
p274
sg33
g230
sg35
V46
p275
sg37
(lp276
VTri Attack
p277
aVConversion
p278
aVRecover
p279
aVPsybeam
p280
asg43
g12
sg44
VTrace
p281
sbasg58
I01
sg59
g60
sba.