(lp0
ccopy_reg
_reconstructor
p1
(c__main__
Trainer
p2
c__builtin__
object
p3
Ntp4
Rp5
(dp6
VtSprite
p7
VVSVeteran M SM.png
p8
sVtClass
p9
VEevee User
p10
sVtName
p11
VKagetora
p12
sVtMoney
p13
V5,016
p14
sVtPokeCount
p15
V1
p16
sVtLocation
p17
Vwiki/Royal_Avenue
p18
sVtRegion
p19
VAlola
p20
sVtGame
p21
VSM
p22
sVtPokes
p23
(lp24
g1
(c__main__
FinishedPokemon
p25
g3
Ntp26
Rp27
(dp28
VpDexNo
p29
V133
p30
sVpSpecies
p31
VEevee
p32
sVpGender
p33
VM
p34
sVpLevel
p35
V57
p36
sVpMoves
p37
(lp38
Vcovet
p39
aVtrump-card
p40
aVlast-resort
p41
aVbaby-doll-eyes
p42
asVpHold
p43
V
p44
sVpAbility
p45
Vrun-away
p46
sbasVbossFlag
p47
I00
sVtLongGame
p48
Vsun-moon
p49
sbag1
(g2
g3
Ntp50
Rp51
(dp52
g7
VVSOffice Worker F SM.png
p53
sg9
VActor
p54
sg11
VMeredith
p55
sg13
V720
p56
sg15
g16
sg17
g18
sg19
g20
sg21
g22
sg23
(lp57
sg47
I00
sg48
g49
sbag1
(g2
g3
Ntp58
Rp59
(dp60
g7
VVSYoungster SM.png
p61
sg9
VYoungster
p62
sg11
VKenway
p63
sg13
V960
p64
sg15
g16
sg17
g18
sg19
g20
sg21
g22
sg23
(lp65
sg47
I00
sg48
g49
sbag1
(g2
g3
Ntp66
Rp67
(dp68
g7
VVSVeteran M SM.png
p69
sg9
VEevee User
p70
sg11
VKagetora
p71
sg13
V5,016
p72
sg15
g16
sg17
g18
sg19
g20
sg21
g22
sg23
(lp73
g1
(g25
g3
Ntp74
Rp75
(dp76
g29
V133
p77
sg31
VEevee
p78
sg33
g34
sg35
V57
p79
sg37
(lp80
Vcovet
p81
aVtrump-card
p82
aVlast-resort
p83
aVbaby-doll-eyes
p84
asg43
g44
sg45
Vrun-away
p85
sbasg47
I00
sg48
g49
sbag1
(g2
g3
Ntp86
Rp87
(dp88
g7
VVSKiawe.png
p89
sg9
VCaptain
p90
sg11
VKiawe
p91
sg13
V3,240
p92
sg15
I3
sg17
g18
sg19
g20
sg21
g22
sg23
(lp93
g1
(g25
g3
Ntp94
Rp95
(dp96
g29
I58
sg31
VGrowlithe
p97
sg33
g34
sg35
V26
p98
sg37
(lp99
VBite
p100
aVFire Fang
p101
asg43
g44
sg45
VIntimidate
p102
sbag1
(g25
g3
Ntp103
Rp104
(dp105
g29
I662
sg31
VFletchinder
p106
sg33
g34
sg35
V26
p107
sg37
(lp108
VEmber
p109
aVQuick Attack
p110
aVPeck
p111
asg43
g44
sg45
VFlame Body
p112
sbag1
(g25
g3
Ntp113
Rp114
(dp115
g29
I105
sg31
VMarowak
p116
sg33
g34
sg35
V27
p117
sg37
(lp118
VFlame Wheel
p119
aVHex
p120
aVBonemerang
p121
aVWill-O-Wisp
p122
asg43
g44
sg45
VCursed Body
p123
sbasg47
I01
sg48
g49
sbag1
(g2
g3
Ntp124
Rp125
(dp126
g7
VVSKiawe.png
p127
sg9
VCaptain
p128
sg11
VKiawe
p129
sg13
V7,200
p130
sg15
I3
sg17
g18
sg19
g20
sg21
g22
sg23
(lp131
g1
(g25
g3
Ntp132
Rp133
(dp134
g29
I59
sg31
VArcanine
p135
sg33
g34
sg35
V60
p136
sg37
(lp137
VCrunch
p138
aVFlare Blitz
p139
aVExtremeSpeed
p140
asg43
g44
sg45
VIntimidate
p141
sbag1
(g25
g3
Ntp142
Rp143
(dp144
g29
I663
sg31
VTalonflame
p145
sg33
g34
sg35
V60
p146
sg37
(lp147
VQuick Attack
p148
aVFlare Blitz
p149
aVBrave Bird
p150
asg43
g44
sg45
VFlame Body
p151
sbag1
(g25
g3
Ntp152
Rp153
(dp154
g29
I105
sg31
VMarowak
p155
sg33
g34
sg35
V60
p156
sg37
(lp157
VFlare Blitz
p158
aVShadow Bone
p159
aVBone Rush
p160
asg43
VFirium Z
p161
sg45
VCursed Body
p162
sbasg47
I01
sg48
g49
sba.