(lp0
ccopy_reg
_reconstructor
p1
(c__main__
Trainer
p2
c__builtin__
object
p3
Ntp4
Rp5
(dp6
VtSprite
p7
VSpr BW Ace Trainer F.png
p8
sVtClass
p9
VAce Trainer
p10
sVtName
p11
VMariana
p12
sVtMoney
p13
V3900
p14
sVtPokeCount
p15
V3
p16
sVtLocation
p17
Vwiki/Royal_Unova
p18
sVtRegion
p19
VUnova
p20
sVtGame
p21
VBW
p22
sVtPokes
p23
(lp24
g1
(c__main__
FinishedPokemon
p25
g3
Ntp26
Rp27
(dp28
VpDexNo
p29
V479
p30
sVpSpecies
p31
VRotom
p32
sVpGender
p33
VU
p34
sVpLevel
p35
V65
p36
sVpMoves
p37
(lp38
Vdischarge
p39
aVominous-wind
p40
aVelectro-ball
p41
aVhex
p42
asVpHold
p43
V
p44
sVpAbility
p45
Vlevitate
p46
sbag1
(g25
g3
Ntp47
Rp48
(dp49
g29
V012
p50
sg31
VButterfree
p51
sg33
VF
p52
sg35
V65
p53
sg37
(lp54
Vbug-buzz
p55
aVcaptivate
p56
aVrage-powder
p57
aVquiver-dance
p58
asg43
g44
sg45
Vcompound-eyes
p59
sbag1
(g25
g3
Ntp60
Rp61
(dp62
g29
V594
p63
sg31
VAlomomola
p64
sg33
g52
sg35
V65
p65
sg37
(lp66
Vaqua-jet
p67
aVwide-guard
p68
aVsoak
p69
aVheal-pulse
p70
asg43
g44
sg45
Vhealer
p71
sbasVbossFlag
p72
I00
sVtLongGame
p73
Vblack-white
p74
sbag1
(g2
g3
Ntp75
Rp76
(dp77
g7
VSpr BW Ace Trainer M.png
p78
sg9
VAce Trainer
p79
sg11
VHenry
p80
sg13
V3960
p81
sg15
V2
p82
sg17
g18
sg19
g20
sg21
g22
sg23
(lp83
g1
(g25
g3
Ntp84
Rp85
(dp86
g29
V128
p87
sg31
VTauros
p88
sg33
VM
p89
sg35
V66
p90
sg37
(lp91
Vpayback
p92
aVgiga-impact
p93
aVzen-headbutt
p94
aVwork-up
p95
asg43
g44
sg45
Vanger-point
p96
sbag1
(g25
g3
Ntp97
Rp98
(dp99
g29
V321
p100
sg31
VWailord
p101
sg33
g89
sg35
V66
p102
sg37
(lp103
Vbounce
p104
aVwater-pulse
p105
aVbrine
p106
aVheavy-slam
p107
asg43
g44
sg45
Vwater-veil
p108
sbasg72
I00
sg73
g74
sbag1
(g2
g3
Ntp109
Rp110
(dp111
g7
VSpr BW Lass.png
p112
sg9
VLass
p113
sg11
VSibyl
p114
sg13
V1024
p115
sg15
g82
sg17
g18
sg19
g20
sg21
g22
sg23
(lp116
g1
(g25
g3
Ntp117
Rp118
(dp119
g29
V433
p120
sg31
VChingling
p121
sg33
g52
sg35
V64
p122
sg37
(lp123
Vuproar
p124
aVastonish
p125
aVlast-resort
p126
aVentrainment
p127
asg43
g44
sg45
Vlevitate
p128
sbasg72
I00
sg73
g74
sbag1
(g2
g3
Ntp129
Rp130
(dp131
g7
VSpr BW Rich Boy.png
p132
sg9
VRich Boy
p133
sg11
VBrad
p134
sg13
V10240
p135
sg15
g82
sg17
g18
sg19
g20
sg21
g22
sg23
(lp136
g1
(g25
g3
Ntp137
Rp138
(dp139
g29
V190
p140
sg31
VAipom
p141
sg33
g89
sg35
V64
p142
sg37
(lp143
Vfling
p144
aVlast-resort
p145
aVnasty-plot
p146
aVdouble-hit
p147
asg43
g44
sg45
Vrun-away
p148
sbag1
(g25
g3
Ntp149
Rp150
(dp151
g29
V198
p152
sg31
VMurkrow
p153
sg33
g89
sg35
V64
p154
sg37
(lp155
Vassurance
p156
aVsucker-punch
p157
aVfoul-play
p158
aVquash
p159
asg43
g44
sg45
Vsuper-luck
p160
sbasg72
I00
sg73
g74
sbag1
(g2
g3
Ntp161
Rp162
(dp163
g7
VSpr BW Lady.png
p164
sg9
VLady
p165
sg11
VElizandra
p166
sg13
V10080
p167
sg15
g16
sg17
g18
sg19
g20
sg21
g22
sg23
(lp168
g1
(g25
g3
Ntp169
Rp170
(dp171
g29
V052
p172
sg31
VMeowth
p173
sg33
g52
sg35
V63
p174
sg37
(lp175
Vassurance
p176
aVnight-slash
p177
aVnasty-plot
p178
aVcaptivate
p179
asg43
g44
sg45
Vpickup
p180
sbag1
(g25
g3
Ntp181
Rp182
(dp183
g29
V037
p184
sg31
VVulpix
p185
sg33
g52
sg35
V63
p186
sg37
(lp187
Vpayback
p188
aVcaptivate
p189
aVflame-burst
p190
aVinferno
p191
asg43
g44
sg45
Vflash-fire
p192
sbag1
(g25
g3
Ntp193
Rp194
(dp195
g29
V133
p196
sg31
VEevee
p197
sg33
g89
sg35
V63
p198
sg37
(lp199
Vbaton-pass
p200
aVhelping-hand
p201
aVtrump-card
p202
aVlast-resort
p203
asg43
g44
sg45
Vrun-away
p204
sbasg72
I00
sg73
g74
sbag1
(g2
g3
Ntp205
Rp206
(dp207
g7
VSpr BW Socialite.png
p208
sg9
VSocialite
p209
sg11
VCassandra
p210
sg13
V12800
p211
sg15
g82
sg17
g18
sg19
g20
sg21
g22
sg23
(lp212
g1
(g25
g3
Ntp213
Rp214
(dp215
g29
V510
p216
sg31
VLiepard
p217
sg33
g52
sg35
V64
p218
sg37
(lp219
Vsucker-punch
p220
aVnight-slash
p221
aVnasty-plot
p222
aVhone-claws
p223
asg43
g44
sg45
Vlimber
p224
sbag1
(g25
g3
Ntp225
Rp226
(dp227
g29
V024
p228
sg31
VArbok
p229
sg33
g52
sg35
V64
p230
sg37
(lp231
Vmud-bomb
p232
aVgunk-shot
p233
aVcoil
p234
aVacid-spray
p235
asg43
g44
sg45
Vshed-skin
p236
sbasg72
I00
sg73
g74
sbag1
(g2
g3
Ntp237
Rp238
(dp239
g7
VSpr BW Gentleman.png
p240
sg9
VGentleman
p241
sg11
VRobert
p242
sg13
V12600
p243
sg15
g16
sg17
g18
sg19
g20
sg21
g22
sg23
(lp244
g1
(g25
g3
Ntp245
Rp246
(dp247
g29
V228
p248
sg31
VHoundour
p249
sg33
g89
sg35
V63
p250
sg37
(lp251
Vnasty-plot
p252
aVfire-fang
p253
aVfoul-play
p254
aVinferno
p255
asg43
g44
sg45
Vflash-fire
p256
sbag1
(g25
g3
Ntp257
Rp258
(dp259
g29
V164
p260
sg31
VNoctowl
p261
sg33
g89
sg35
V63
p262
sg37
(lp263
Vair-slash
p264
aVzen-headbutt
p265
aVsynchronoise
p266
aVechoed-voice
p267
asg43
g44
sg45
Vkeen-eye
p268
sbag1
(g25
g3
Ntp269
Rp270
(dp271
g29
V229
p272
sg31
VHoundoom
p273
sg33
g89
sg35
V63
p274
sg37
(lp275
Vthunder-fang
p276
aVfire-fang
p277
aVfoul-play
p278
aVinferno
p279
asg43
g44
sg45
Vearly-bird
p280
sbasg72
I00
sg73
g74
sbag1
(g2
g3
Ntp281
Rp282
(dp283
g7
VSpr BW Maid.png
p284
sg9
VMaid
p285
sg11
VTanya
p286
sg13
V2600
p287
sg15
V1
p288
sg17
g18
sg19
g20
sg21
g22
sg23
(lp289
g1
(g25
g3
Ntp290
Rp291
(dp292
g29
V587
p293
sg31
VEmolga
p294
sg33
g52
sg35
V65
p295
sg37
(lp296
Vdischarge
p297
aVelectro-ball
p298
aVacrobatics
p299
aVvolt-switch
p300
asg43
g44
sg45
Vstatic
p301
sbasg72
I00
sg73
g74
sbag1
(g2
g3
Ntp302
Rp303
(dp304
g7
VSpr BW Clerk M A.png
p305
sg9
VClerk \u2642
p306
sg11
VChaz
p307
sg13
V2560
p308
sg15
g82
sg17
g18
sg19
g20
sg21
g22
sg23
(lp309
g1
(g25
g3
Ntp310
Rp311
(dp312
g29
V168
p313
sg31
VAriados
p314
sg33
g89
sg35
V64
p315
sg37
(lp316
Vpoison-jab
p317
aVshadow-sneak
p318
aVcross-poison
p319
aVbug-bite
p320
asg43
g44
sg45
Vinsomnia
p321
sbag1
(g25
g3
Ntp322
Rp323
(dp324
g29
V419
p325
sg31
VFloatzel
p326
sg33
g89
sg35
V64
p327
sg37
(lp328
Vwater-sport
p329
aVaqua-tail
p330
aVice-fang
p331
aVaqua-jet
p332
asg43
g44
sg45
Vswift-swim
p333
sbasg72
I00
sg73
g74
sbag1
(g2
g3
Ntp334
Rp335
(dp336
g7
VSpr BW Youngster.png
p337
sg9
VYoungster
p338
sg11
VAbe
p339
sg13
V1008
p340
sg15
g16
sg17
g18
sg19
g20
sg21
g22
sg23
(lp341
g1
(g25
g3
Ntp342
Rp343
(dp344
g29
V021
p345
sg31
VSpearow
p346
sg33
g89
sg35
V63
p347
sg37
(lp348
Vpursuit
p349
aVaerial-ace
p350
aVroost
p351
aVassurance
p352
asg43
g44
sg45
Vkeen-eye
p353
sbag1
(g25
g3
Ntp354
Rp355
(dp356
g29
V022
p357
sg31
VFearow
p358
sg33
g89
sg35
V63
p359
sg37
(lp360
Vroost
p361
aVpluck
p362
aVassurance
p363
aVdrill-run
p364
asg43
g44
sg45
Vkeen-eye
p365
sbag1
(g25
g3
Ntp366
Rp367
(dp368
g29
V264
p369
sg31
VLinoone
p370
sg33
g89
sg35
V63
p371
sg37
(lp372
Vcovet
p373
aVfling
p374
aVswitcheroo
p375
aVbestow
p376
asg43
g44
sg45
Vpickup
p377
sbasg72
I00
sg73
g74
sbag1
(g2
g3
Ntp378
Rp379
(dp380
g7
VSpr B2W2 Ace Trainer F.png
p381
sg9
VAce Trainer
p382
sg11
VMariana
p383
sg13
g1
(cmwparserfromhell.wikicode
Wikicode
p384
g3
Ntp385
Rp386
(dp387
V_nodes
p388
g1
(cmwparserfromhell.smart_list.smart_list
SmartList
p389
c__builtin__
list
p390
(lp391
g1
(cmwparserfromhell.nodes.text
Text
p392
g3
Ntp393
Rp394
(dp395
V_value
p396
V1080
p397
sbatp398
Rp399
(dp400
V_children
p401
(dp402
sbsbsg15
g82
sg17
g18
sg19
g20
sg21
VB2W2
p403
sg23
(lp404
g1
(g25
g3
Ntp405
Rp406
(dp407
g29
V081
p408
sg31
VMagnemite
p409
sg33
g34
sg35
V18
p410
sg37
(lp411
Vflash-cannon
p412
aVdischarge
p413
aVmagnet-bomb
p414
aVelectro-ball
p415
asg43
g44
sg45
Vsturdy
p416
sbasg72
I00
sg73
Vblack-2-white-2
p417
sbag1
(g2
g3
Ntp418
Rp419
(dp420
g7
VSpr B2W2 Ace Trainer M.png
p421
sg9
VAce Trainer
p422
sg11
VHenry
p423
sg13
g1
(g384
g3
Ntp424
Rp425
(dp426
g388
g1
(g389
g390
(lp427
g1
(g392
g3
Ntp428
Rp429
(dp430
g396
V1080
p431
sbatp432
Rp433
(dp434
g401
(dp435
sbsbsg15
g82
sg17
g18
sg19
g20
sg21
g403
sg23
(lp436
g1
(g25
g3
Ntp437
Rp438
(dp439
g29
V507
p440
sg31
VHerdier
p441
sg33
g89
sg35
V18
p442
sg37
(lp443
Vlast-resort
p444
aVgiga-impact
p445
aVretaliate
p446
aVwork-up
p447
asg43
g44
sg45
Vsand-rush
p448
sbag1
(g25
g3
Ntp449
Rp450
(dp451
g29
V183
p452
sg31
VMarill
p453
sg33
g89
sg35
V18
p454
sg37
(lp455
Vsuperpower
p456
aVwater-sport
p457
aVaqua-ring
p458
aVaqua-tail
p459
asg43
g44
sg45
Vhuge-power
p460
sbasg72
I00
sg73
g417
sbag1
(g2
g3
Ntp461
Rp462
(dp463
g7
VSpr B2W2 Lass.png
p464
sg9
VLass
p465
sg11
VSibyl
p466
sg13
g1
(g384
g3
Ntp467
Rp468
(dp469
g388
g1
(g389
g390
(lp470
g1
(g392
g3
Ntp471
Rp472
(dp473
g396
V256
p474
sbatp475
Rp476
(dp477
g401
(dp478
sbsbsg15
g82
sg17
g18
sg19
g20
sg21
g403
sg23
(lp479
g1
(g25
g3
Ntp480
Rp481
(dp482
g29
V406
p483
sg31
VBudew
p484
sg33
g52
sg35
V16
p485
sg37
(lp486
Vgrowth
p487
aVstun-spore
p488
aVwater-sport
p489
aVworry-seed
p490
asg43
g44
sg45
Vpoison-point
p491
sbag1
(g25
g3
Ntp492
Rp493
(dp494
g29
V540
p495
sg31
VSewaddle
p496
sg33
g52
sg35
V16
p497
sg37
(lp498
Vendure
p499
aVbug-buzz
p500
aVbug-bite
p501
aVstruggle-bug
p502
asg43
g44
sg45
Vchlorophyll
p503
sbasg72
I00
sg73
g417
sbag1
(g2
g3
Ntp504
Rp505
(dp506
g7
VSpr B2W2 Rich Boy.png
p507
sg9
VRich Boy
p508
sg11
VBrad
p509
sg13
g1
(g384
g3
Ntp510
Rp511
(dp512
g388
g1
(g389
g390
(lp513
g1
(g392
g3
Ntp514
Rp515
(dp516
g396
V2560
p517
sbatp518
Rp519
(dp520
g401
(dp521
sbsbsg15
g82
sg17
g18
sg19
g20
sg21
g403
sg23
(lp522
g1
(g25
g3
Ntp523
Rp524
(dp525
g29
V504
p526
sg31
VPatrat
p527
sg33
g89
sg35
V16
p528
sg37
(lp529
Vbaton-pass
p530
aVcrunch
p531
aVafter-you
p532
aVwork-up
p533
asg43
g44
sg45
Vrun-away
p534
sbag1
(g25
g3
Ntp535
Rp536
(dp537
g29
V041
p538
sg31
VZubat
p539
sg33
g89
sg35
V16
p540
sg37
(lp541
Vastonish
p542
aVair-cutter
p543
aVair-slash
p544
aVacrobatics
p545
asg43
g44
sg45
Vinner-focus
p546
sbasg72
I00
sg73
g417
sbag1
(g2
g3
Ntp547
Rp548
(dp549
g7
VSpr B2W2 Lady.png
p550
sg9
VLady
p551
sg11
VElizandra
p552
sg13
g1
(g384
g3
Ntp553
Rp554
(dp555
g388
g1
(g389
g390
(lp556
g1
(g392
g3
Ntp557
Rp558
(dp559
g396
V2560
p560
sbatp561
Rp562
(dp563
g401
(dp564
sbsbsg15
g82
sg17
g18
sg19
g20
sg21
g403
sg23
(lp565
g1
(g25
g3
Ntp566
Rp567
(dp568
g29
V509
p569
sg31
VPurrloin
p570
sg33
g52
sg35
V16
p571
sg37
(lp572
Vnight-slash
p573
aVnasty-plot
p574
aVcaptivate
p575
aVhone-claws
p576
asg43
g44
sg45
Vunburden
p577
sbag1
(g25
g3
Ntp578
Rp579
(dp580
g29
V133
p581
sg31
VEevee
p582
sg33
g89
sg35
V16
p583
sg37
(lp584
Vhelping-hand
p585
aVcovet
p586
aVtrump-card
p587
aVlast-resort
p588
asg43
g44
sg45
Vadaptability
p589
sbasg72
I00
sg73
g417
sbag1
(g2
g3
Ntp590
Rp591
(dp592
g7
VSpr B2W2 Socialite.png
p593
sg9
VSocialite
p594
sg11
VCassandra
p595
sg13
g1
(g384
g3
Ntp596
Rp597
(dp598
g388
g1
(g389
g390
(lp599
g1
(g392
g3
Ntp600
Rp601
(dp602
g396
V3400
p603
sbatp604
Rp605
(dp606
g401
(dp607
sbsbsg15
g288
sg17
g18
sg19
g20
sg21
g403
sg23
(lp608
g1
(g25
g3
Ntp609
Rp610
(dp611
g29
V509
p612
sg31
VPurrloin
p613
sg33
g52
sg35
V17
p614
sg37
(lp615
Vnight-slash
p616
aVnasty-plot
p617
aVcaptivate
p618
aVhone-claws
p619
asg43
g44
sg45
Vunburden
p620
sbasg72
I00
sg73
g417
sbag1
(g2
g3
Ntp621
Rp622
(dp623
g7
VSpr B2W2 Gentleman.png
p624
sg9
VGentleman
p625
sg11
VRobert
p626
sg13
g1
(g384
g3
Ntp627
Rp628
(dp629
g388
g1
(g389
g390
(lp630
g1
(g392
g3
Ntp631
Rp632
(dp633
g396
V3400
p634
sbatp635
Rp636
(dp637
g401
(dp638
sbsbsg15
g288
sg17
g18
sg19
g20
sg21
g403
sg23
(lp639
g1
(g25
g3
Ntp640
Rp641
(dp642
g29
V506
p643
sg31
VLillipup
p644
sg33
g89
sg35
V17
p645
sg37
(lp646
Vlast-resort
p647
aVgiga-impact
p648
aVretaliate
p649
aVwork-up
p650
asg43
g44
sg45
Vpickup
p651
sbasg72
I00
sg73
g417
sbag1
(g2
g3
Ntp652
Rp653
(dp654
g7
VSpr B2W2 Maid.png
p655
sg9
VMaid
p656
sg11
VTanya
p657
sg13
g1
(g384
g3
Ntp658
Rp659
(dp660
g388
g1
(g389
g390
(lp661
g1
(g392
g3
Ntp662
Rp663
(dp664
g396
V680
p665
sbatp666
Rp667
(dp668
g401
(dp669
sbsbsg15
g288
sg17
g18
sg19
g20
sg21
g403
sg23
(lp670
g1
(g25
g3
Ntp671
Rp672
(dp673
g29
V239
p674
sg31
VElekid
p675
sg33
g52
sg35
V17
p676
sg37
(lp677
Vswift
p678
aVshock-wave
p679
aVdischarge
p680
aVelectro-ball
p681
asg43
g44
sg45
Vstatic
p682
sbasg72
I00
sg73
g417
sbag1
(g2
g3
Ntp683
Rp684
(dp685
g7
VSpr B2W2 Clerk M.png
p686
sg9
VClerk \u2642
p687
sg11
VChaz
p688
sg13
g1
(g384
g3
Ntp689
Rp690
(dp691
g388
g1
(g389
g390
(lp692
g1
(g392
g3
Ntp693
Rp694
(dp695
g396
V640
p696
sbatp697
Rp698
(dp699
g401
(dp700
sbsbsg15
g82
sg17
g18
sg19
g20
sg21
g403
sg23
(lp701
g1
(g25
g3
Ntp702
Rp703
(dp704
g29
V543
p705
sg31
VVenipede
p706
sg33
g89
sg35
V16
p707
sg37
(lp708
Vrock-climb
p709
aVbug-bite
p710
aVvenoshock
p711
aVsteamroller
p712
asg43
g44
sg45
Vswarm
p713
sbag1
(g25
g3
Ntp714
Rp715
(dp716
g29
V054
p717
sg31
VPsyduck
p718
sg33
g89
sg35
V16
p719
sg37
(lp720
Vaqua-tail
p721
aVzen-headbutt
p722
aVwonder-room
p723
aVsoak
p724
asg43
g44
sg45
Vdamp
p725
sbasg72
I00
sg73
g417
sbag1
(g2
g3
Ntp726
Rp727
(dp728
g7
VSpr B2W2 Youngster.png
p729
sg9
VYoungster
p730
sg11
VAbe
p731
sg13
g1
(g384
g3
Ntp732
Rp733
(dp734
g388
g1
(g389
g390
(lp735
g1
(g392
g3
Ntp736
Rp737
(dp738
g396
V256
p739
sbatp740
Rp741
(dp742
g401
(dp743
sbsbsg15
g82
sg17
g18
sg19
g20
sg21
g403
sg23
(lp744
g1
(g25
g3
Ntp745
Rp746
(dp747
g29
V519
p748
sg31
VPidove
p749
sg33
g89
sg35
V16
p750
sg37
(lp751
Vair-cutter
p752
aVroost
p753
aVtailwind
p754
aVair-slash
p755
asg43
g44
sg45
Vbig-pecks
p756
sbag1
(g25
g3
Ntp757
Rp758
(dp759
g29
V504
p760
sg31
VPatrat
p761
sg33
g89
sg35
V16
p762
sg37
(lp763
Vbaton-pass
p764
aVcrunch
p765
aVafter-you
p766
aVwork-up
p767
asg43
g44
sg45
Vkeen-eye
p768
sbasg72
I00
sg73
g417
sbag1
(g2
g3
Ntp769
Rp770
(dp771
g7
VSpr B2W2 Ace Trainer F.png
p772
sg9
VAce Trainer
p773
sg11
VMariana
p774
sg13
g1
(g384
g3
Ntp775
Rp776
(dp777
g388
g1
(g389
g390
(lp778
g1
(g392
g3
Ntp779
Rp780
(dp781
g396
V3720
p782
sbatp783
Rp784
(dp785
g401
(dp786
sbsbsg15
g16
sg17
g18
sg19
g20
sg21
g403
sg23
(lp787
g1
(g25
g3
Ntp788
Rp789
(dp790
g29
V479
p791
sg31
VRotom
p792
sg33
g34
sg35
V62
p793
sg37
(lp794
Vdischarge
p795
aVominous-wind
p796
aVelectro-ball
p797
aVhex
p798
asg43
g44
sg45
Vlevitate
p799
sbag1
(g25
g3
Ntp800
Rp801
(dp802
g29
V012
p803
sg31
VButterfree
p804
sg33
g52
sg35
V62
p805
sg37
(lp806
Vbug-buzz
p807
aVcaptivate
p808
aVrage-powder
p809
aVquiver-dance
p810
asg43
g44
sg45
Vcompound-eyes
p811
sbag1
(g25
g3
Ntp812
Rp813
(dp814
g29
V594
p815
sg31
VAlomomola
p816
sg33
g52
sg35
V62
p817
sg37
(lp818
Vaqua-jet
p819
aVwide-guard
p820
aVsoak
p821
aVheal-pulse
p822
asg43
g44
sg45
Vhydration
p823
sbasg72
I00
sg73
g417
sbag1
(g2
g3
Ntp824
Rp825
(dp826
g7
VSpr B2W2 Ace Trainer M.png
p827
sg9
VAce Trainer
p828
sg11
VHenry
p829
sg13
g1
(g384
g3
Ntp830
Rp831
(dp832
g388
g1
(g389
g390
(lp833
g1
(g392
g3
Ntp834
Rp835
(dp836
g396
V3780
p837
sbatp838
Rp839
(dp840
g401
(dp841
sbsbsg15
g82
sg17
g18
sg19
g20
sg21
g403
sg23
(lp842
g1
(g25
g3
Ntp843
Rp844
(dp845
g29
V128
p846
sg31
VTauros
p847
sg33
g89
sg35
V63
p848
sg37
(lp849
Vpayback
p850
aVgiga-impact
p851
aVzen-headbutt
p852
aVwork-up
p853
asg43
g44
sg45
Vanger-point
p854
sbag1
(g25
g3
Ntp855
Rp856
(dp857
g29
V321
p858
sg31
VWailord
p859
sg33
g89
sg35
V63
p860
sg37
(lp861
Vbounce
p862
aVwater-pulse
p863
aVbrine
p864
aVheavy-slam
p865
asg43
g44
sg45
Voblivious
p866
sbasg72
I00
sg73
g417
sbag1
(g2
g3
Ntp867
Rp868
(dp869
g7
VSpr B2W2 Lass.png
p870
sg9
VLass
p871
sg11
VSibyl
p872
sg13
g1
(g384
g3
Ntp873
Rp874
(dp875
g388
g1
(g389
g390
(lp876
g1
(g392
g3
Ntp877
Rp878
(dp879
g396
V976
p880
sbatp881
Rp882
(dp883
g401
(dp884
sbsbsg15
g82
sg17
g18
sg19
g20
sg21
g403
sg23
(lp885
g1
(g25
g3
Ntp886
Rp887
(dp888
g29
V433
p889
sg31
VChingling
p890
sg33
g52
sg35
V61
p891
sg37
(lp892
Vuproar
p893
aVastonish
p894
aVlast-resort
p895
aVentrainment
p896
asg43
g44
sg45
Vlevitate
p897
sbasg72
I00
sg73
g417
sbag1
(g2
g3
Ntp898
Rp899
(dp900
g7
VSpr B2W2 Rich Boy.png
p901
sg9
VRich Boy
p902
sg11
VBrad
p903
sg13
g1
(g384
g3
Ntp904
Rp905
(dp906
g388
g1
(g389
g390
(lp907
g1
(g392
g3
Ntp908
Rp909
(dp910
g396
V9760
p911
sbatp912
Rp913
(dp914
g401
(dp915
sbsbsg15
g82
sg17
g18
sg19
g20
sg21
g403
sg23
(lp916
g1
(g25
g3
Ntp917
Rp918
(dp919
g29
V190
p920
sg31
VAipom
p921
sg33
g89
sg35
V61
p922
sg37
(lp923
Vfling
p924
aVlast-resort
p925
aVnasty-plot
p926
aVdouble-hit
p927
asg43
g44
sg45
Vrun-away
p928
sbag1
(g25
g3
Ntp929
Rp930
(dp931
g29
V198
p932
sg31
VMurkrow
p933
sg33
g89
sg35
V61
p934
sg37
(lp935
Vassurance
p936
aVsucker-punch
p937
aVfoul-play
p938
aVquash
p939
asg43
g44
sg45
Vinsomnia
p940
sbasg72
I00
sg73
g417
sbag1
(g2
g3
Ntp941
Rp942
(dp943
g7
VSpr B2W2 Lady.png
p944
sg9
VLady
p945
sg11
VElizandra
p946
sg13
g1
(g384
g3
Ntp947
Rp948
(dp949
g388
g1
(g389
g390
(lp950
g1
(g392
g3
Ntp951
Rp952
(dp953
g396
V9600
p954
sbatp955
Rp956
(dp957
g401
(dp958
sbsbsg15
g16
sg17
g18
sg19
g20
sg21
g403
sg23
(lp959
g1
(g25
g3
Ntp960
Rp961
(dp962
g29
V052
p963
sg31
VMeowth
p964
sg33
g52
sg35
V60
p965
sg37
(lp966
Vassurance
p967
aVnight-slash
p968
aVnasty-plot
p969
aVcaptivate
p970
asg43
g44
sg45
Vpickup
p971
sbag1
(g25
g3
Ntp972
Rp973
(dp974
g29
V037
p975
sg31
VVulpix
p976
sg33
g52
sg35
V60
p977
sg37
(lp978
Vcaptivate
p979
aVflame-burst
p980
aVhex
p981
aVinferno
p982
asg43
g44
sg45
Vflash-fire
p983
sbag1
(g25
g3
Ntp984
Rp985
(dp986
g29
V133
p987
sg31
VEevee
p988
sg33
g89
sg35
V60
p989
sg37
(lp990
Vhelping-hand
p991
aVcovet
p992
aVtrump-card
p993
aVlast-resort
p994
asg43
g44
sg45
Vrun-away
p995
sbasg72
I00
sg73
g417
sbag1
(g2
g3
Ntp996
Rp997
(dp998
g7
VSpr B2W2 Socialite.png
p999
sg9
VSocialite
p1000
sg11
VCassandra
p1001
sg13
g1
(g384
g3
Ntp1002
Rp1003
(dp1004
g388
g1
(g389
g390
(lp1005
g1
(g392
g3
Ntp1006
Rp1007
(dp1008
g396
V12200
p1009
sbatp1010
Rp1011
(dp1012
g401
(dp1013
sbsbsg15
g82
sg17
g18
sg19
g20
sg21
g403
sg23
(lp1014
g1
(g25
g3
Ntp1015
Rp1016
(dp1017
g29
V510
p1018
sg31
VLiepard
p1019
sg33
g52
sg35
V61
p1020
sg37
(lp1021
Vsucker-punch
p1022
aVnight-slash
p1023
aVnasty-plot
p1024
aVhone-claws
p1025
asg43
g44
sg45
Vunburden
p1026
sbag1
(g25
g3
Ntp1027
Rp1028
(dp1029
g29
V024
p1030
sg31
VArbok
p1031
sg33
g52
sg35
V61
p1032
sg37
(lp1033
Vmud-bomb
p1034
aVgunk-shot
p1035
aVcoil
p1036
aVacid-spray
p1037
asg43
g44
sg45
Vintimidate
p1038
sbasg72
I00
sg73
g417
sbag1
(g2
g3
Ntp1039
Rp1040
(dp1041
g7
VSpr B2W2 Gentleman.png
p1042
sg9
VGentleman
p1043
sg11
VRobert
p1044
sg13
g1
(g384
g3
Ntp1045
Rp1046
(dp1047
g388
g1
(g389
g390
(lp1048
g1
(g392
g3
Ntp1049
Rp1050
(dp1051
g396
V12000
p1052
sbatp1053
Rp1054
(dp1055
g401
(dp1056
sbsbsg15
g16
sg17
g18
sg19
g20
sg21
g403
sg23
(lp1057
g1
(g25
g3
Ntp1058
Rp1059
(dp1060
g29
V228
p1061
sg31
VHoundour
p1062
sg33
g89
sg35
V60
p1063
sg37
(lp1064
Vnasty-plot
p1065
aVfire-fang
p1066
aVfoul-play
p1067
aVinferno
p1068
asg43
g44
sg45
Vflash-fire
p1069
sbag1
(g25
g3
Ntp1070
Rp1071
(dp1072
g29
V164
p1073
sg31
VNoctowl
p1074
sg33
g89
sg35
V60
p1075
sg37
(lp1076
Vair-slash
p1077
aVzen-headbutt
p1078
aVsynchronoise
p1079
aVechoed-voice
p1080
asg43
g44
sg45
Vkeen-eye
p1081
sbag1
(g25
g3
Ntp1082
Rp1083
(dp1084
g29
V229
p1085
sg31
VHoundoom
p1086
sg33
g89
sg35
V60
p1087
sg37
(lp1088
Vthunder-fang
p1089
aVfire-fang
p1090
aVfoul-play
p1091
aVinferno
p1092
asg43
g44
sg45
Vearly-bird
p1093
sbasg72
I00
sg73
g417
sbag1
(g2
g3
Ntp1094
Rp1095
(dp1096
g7
VSpr B2W2 Maid.png
p1097
sg9
VMaid
p1098
sg11
VTanya
p1099
sg13
g1
(g384
g3
Ntp1100
Rp1101
(dp1102
g388
g1
(g389
g390
(lp1103
g1
(g392
g3
Ntp1104
Rp1105
(dp1106
g396
V2440
p1107
sbatp1108
Rp1109
(dp1110
g401
(dp1111
sbsbsg15
g82
sg17
g18
sg19
g20
sg21
g403
sg23
(lp1112
g1
(g25
g3
Ntp1113
Rp1114
(dp1115
g29
V587
p1116
sg31
VEmolga
p1117
sg33
g52
sg35
V61
p1118
sg37
(lp1119
Vdischarge
p1120
aVelectro-ball
p1121
aVacrobatics
p1122
aVvolt-switch
p1123
asg43
g44
sg45
Vstatic
p1124
sbag1
(g25
g3
Ntp1125
Rp1126
(dp1127
g29
V026
p1128
sg31
VRaichu
p1129
sg33
g52
sg35
V61
p1130
sg37
(lp1131
Vtail-whip
p1132
aVthunder-shock
p1133
aVthunderbolt
p1134
aVquick-attack
p1135
asg43
g44
sg45
Vstatic
p1136
sbasg72
I00
sg73
g417
sbag1
(g2
g3
Ntp1137
Rp1138
(dp1139
g7
VSpr B2W2 Clerk M.png
p1140
sg9
VClerk \u2642
p1141
sg11
VChaz
p1142
sg13
g1
(g384
g3
Ntp1143
Rp1144
(dp1145
g388
g1
(g389
g390
(lp1146
g1
(g392
g3
Ntp1147
Rp1148
(dp1149
g396
V2440
p1150
sbatp1151
Rp1152
(dp1153
g401
(dp1154
sbsbsg15
g82
sg17
g18
sg19
g20
sg21
g403
sg23
(lp1155
g1
(g25
g3
Ntp1156
Rp1157
(dp1158
g29
V168
p1159
sg31
VAriados
p1160
sg33
g89
sg35
V61
p1161
sg37
(lp1162
Vpoison-jab
p1163
aVshadow-sneak
p1164
aVcross-poison
p1165
aVbug-bite
p1166
asg43
g44
sg45
Vinsomnia
p1167
sbag1
(g25
g3
Ntp1168
Rp1169
(dp1170
g29
V419
p1171
sg31
VFloatzel
p1172
sg33
g89
sg35
V61
p1173
sg37
(lp1174
Vaqua-tail
p1175
aVice-fang
p1176
aVaqua-jet
p1177
aVdouble-hit
p1178
asg43
g44
sg45
Vswift-swim
p1179
sbasg72
I00
sg73
g417
sbag1
(g2
g3
Ntp1180
Rp1181
(dp1182
g7
VSpr B2W2 Youngster.png
p1183
sg9
VYoungster
p1184
sg11
VAbe
p1185
sg13
g1
(g384
g3
Ntp1186
Rp1187
(dp1188
g388
g1
(g389
g390
(lp1189
g1
(g392
g3
Ntp1190
Rp1191
(dp1192
g396
V960
p1193
sbatp1194
Rp1195
(dp1196
g401
(dp1197
sbsbsg15
g16
sg17
g18
sg19
g20
sg21
g403
sg23
(lp1198
g1
(g25
g3
Ntp1199
Rp1200
(dp1201
g29
V021
p1202
sg31
VSpearow
p1203
sg33
g89
sg35
V60
p1204
sg37
(lp1205
Vpursuit
p1206
aVaerial-ace
p1207
aVroost
p1208
aVassurance
p1209
asg43
g44
sg45
Vkeen-eye
p1210
sbag1
(g25
g3
Ntp1211
Rp1212
(dp1213
g29
V022
p1214
sg31
VFearow
p1215
sg33
g89
sg35
V60
p1216
sg37
(lp1217
Vroost
p1218
aVpluck
p1219
aVassurance
p1220
aVdrill-run
p1221
asg43
g44
sg45
Vkeen-eye
p1222
sbag1
(g25
g3
Ntp1223
Rp1224
(dp1225
g29
V264
p1226
sg31
VLinoone
p1227
sg33
g89
sg35
V60
p1228
sg37
(lp1229
Vcovet
p1230
aVfling
p1231
aVswitcheroo
p1232
aVbestow
p1233
asg43
g44
sg45
Vgluttony
p1234
sbasg72
I00
sg73
g417
sba.