(lp0
ccopy_reg
_reconstructor
p1
(c__main__
Trainer
p2
c__builtin__
object
p3
Ntp4
Rp5
(dp6
VtSprite
p7
VSpr GS Psychic.png
p8
sVtClass
p9
VPsychic
p10
sVtName
p11
VNathan
p12
sVtMoney
p13
V832
p14
sVtPokeCount
p15
V1
p16
sVtLocation
p17
Vwiki/Ruins_of_Alph
p18
sVtRegion
p19
VJohto
p20
sVtGame
p21
VGS
p22
sVtPokes
p23
(lp24
g1
(c__main__
FinishedPokemon
p25
g3
Ntp26
Rp27
(dp28
VpDexNo
p29
V203
p30
sVpSpecies
p31
VGirafarig
p32
sVpGender
p33
VM
p34
sVpLevel
p35
V26
p36
sVpMoves
p37
(lp38
Vconfusion
p39
aVagility
p40
aVbaton-pass
p41
aVcrunch
p42
asVpHold
p43
V
p44
sVpAbility
p45
Vearly-bird
p46
sbasVbossFlag
p47
I00
sVtLongGame
p48
Vgold-silver
p49
sbag1
(g2
g3
Ntp50
Rp51
(dp52
g7
VSpr DP Psychic M.png
p53
sg9
VPsychic
p54
sg11
VNathan
p55
sg13
V832
p56
sg15
g16
sg17
g18
sg19
g20
sg21
VDP
p57
sg23
(lp58
g1
(g25
g3
Ntp59
Rp60
(dp61
g29
V203
p62
sg31
VGirafarig
p63
sg33
g34
sg35
V26
p64
sg37
(lp65
Vpower-swap
p66
aVguard-swap
p67
aVzen-headbutt
p68
aVdouble-hit
p69
asg43
g44
sg45
Vinner-focus
p70
sbasg47
I00
sg48
Vdiamond-pearl
p71
sba.