(lp0
ccopy_reg
_reconstructor
p1
(c__main__
Trainer
p2
c__builtin__
object
p3
Ntp4
Rp5
(dp6
VtSprite
p7
VVSOlivia.png
p8
sVtClass
p9
VIsland Kahuna
p10
sVtName
p11
VOlivia
p12
sVtMoney
p13
V4,320
p14
sVtPokeCount
p15
I3
sVtLocation
p16
Vwiki/Ruins_of_Life
p17
sVtRegion
p18
VAlola
p19
sVtGame
p20
VSM
p21
sVtPokes
p22
(lp23
g1
(c__main__
FinishedPokemon
p24
g3
Ntp25
Rp26
(dp27
VpDexNo
p28
I299
sVpSpecies
p29
VNosepass
p30
sVpGender
p31
VF
p32
sVpLevel
p33
V26
p34
sVpMoves
p35
(lp36
VRock Slide
p37
aVSpark
p38
aVThunder Wave
p39
asVpHold
p40
V
p41
sVpAbility
p42
VSturdy
p43
sbag1
(g24
g3
Ntp44
Rp45
(dp46
g28
I525
sg29
VBoldore
p47
sg31
VM
p48
sg33
V26
p49
sg35
(lp50
VRock Blast
p51
aVMud-Slap
p52
aVHeadbutt
p53
asg40
g41
sg42
VSturdy
p54
sbag1
(g24
g3
Ntp55
Rp56
(dp57
g28
I745
sg29
VLycanroc
p58
sg31
g48
sg33
V27
p59
sg35
(lp60
VBite
p61
aVRock Throw
p62
asg40
VRockium Z
p63
sg42
VVital Spirit
p64
sbasVbossFlag
p65
I01
sVtLongGame
p66
Vsun-moon
p67
sbag1
(g2
g3
Ntp68
Rp69
(dp70
g7
VVSOlivia.png
p71
sg9
VIsland Kahuna
p72
sg11
VOlivia
p73
sg13
V4,480
p74
sg15
I3
sg16
g17
sg18
g19
sg20
g21
sg22
(lp75
g1
(g24
g3
Ntp76
Rp77
(dp78
g28
I347
sg29
VAnorith
p79
sg31
g48
sg33
V27
p80
sg35
(lp81
VBug Bite
p82
aVSmack Down
p83
aVMetal Claw
p84
asg40
g41
sg42
VBattle Armor
p85
sbag1
(g24
g3
Ntp86
Rp87
(dp88
g28
I345
sg29
VLileep
p89
sg31
g32
sg33
V27
p90
sg35
(lp91
VGiga Drain
p92
aVAncient Power
p93
aVBrine
p94
asg40
g41
sg42
VSuction Cups
p95
sbag1
(g24
g3
Ntp96
Rp97
(dp98
g28
I745
sg29
VLycanroc
p99
sg31
g48
sg33
V28
p100
sg35
(lp101
VBite
p102
aVRock Tomb
p103
asg40
VRockium Z
p104
sg42
VVital Spirit
p105
sbasg65
I01
sg66
g67
sba.