(lp0
ccopy_reg
_reconstructor
p1
(c__main__
Trainer
p2
c__builtin__
object
p3
Ntp4
Rp5
(dp6
VtSprite
p7
VSpr RS Youngster.png
p8
sVtClass
p9
VYoungster
p10
sVtName
p11
VJosh
p12
sVtMoney
p13
V96
p14
sVtPokeCount
p15
V3
p16
sVtLocation
p17
Vwiki/Rustboro_Gym
p18
sVtRegion
p19
VHoenn
p20
sVtGame
p21
VRS
p22
sVtPokes
p23
(lp24
g1
(c__main__
FinishedPokemon
p25
g3
Ntp26
Rp27
(dp28
VpDexNo
p29
V074
p30
sVpSpecies
p31
VGeodude
p32
sVpGender
p33
VM
p34
sVpLevel
p35
V10
p36
sVpMoves
p37
(lp38
Vrollout
p39
aVmagnitude
p40
aVmud-sport
p41
aVrock-blast
p42
asVpHold
p43
V
p44
sVpAbility
p45
Vsturdy
p46
sbag1
(g25
g3
Ntp47
Rp48
(dp49
g29
V074
p50
sg31
VGeodude
p51
sg33
g34
sg35
V8
p52
sg37
(lp53
Vrollout
p54
aVmagnitude
p55
aVmud-sport
p56
aVrock-blast
p57
asg43
g44
sg45
Vsturdy
p58
sbag1
(g25
g3
Ntp59
Rp60
(dp61
g29
V074
p62
sg31
VGeodude
p63
sg33
g34
sg35
V6
p64
sg37
(lp65
Vrollout
p66
aVmagnitude
p67
aVmud-sport
p68
aVrock-blast
p69
asg43
g44
sg45
Vrock-head
p70
sbasVbossFlag
p71
I00
sVtLongGame
p72
Vruby-sapphire
p73
sbag1
(g2
g3
Ntp74
Rp75
(dp76
g7
VSpr RS Youngster.png
p77
sg9
VYoungster
p78
sg11
VTommy
p79
sg13
V176
p80
sg15
V1
p81
sg17
g18
sg19
g20
sg21
g22
sg23
(lp82
g1
(g25
g3
Ntp83
Rp84
(dp85
g29
V074
p86
sg31
VGeodude
p87
sg33
g34
sg35
V11
p88
sg37
(lp89
Vrollout
p90
aVmagnitude
p91
aVmud-sport
p92
aVrock-blast
p93
asg43
g44
sg45
Vrock-head
p94
sbasg71
I00
sg72
g73
sbag1
(g2
g3
Ntp95
Rp96
(dp97
g7
VSpr RS Youngster.png
p98
sg9
VYoungster
p99
sg11
VJosh
p100
sg13
V160
p101
sg15
g81
sg17
g18
sg19
g20
sg21
g22
sg23
(lp102
g1
(g25
g3
Ntp103
Rp104
(dp105
g29
V074
p106
sg31
VGeodude
p107
sg33
g34
sg35
V10
p108
sg37
(lp109
Vrollout
p110
aVmagnitude
p111
aVmud-sport
p112
aVrock-blast
p113
asg43
g44
sg45
Vrock-head
p114
sbasg71
I00
sg72
g73
sbag1
(g2
g3
Ntp115
Rp116
(dp117
g7
VSpr RS Youngster.png
p118
sg9
VYoungster
p119
sg11
VTommy
p120
sg13
V128<br/><small>Potential [[Double Battle]] with Marc</small>
p121
sg15
V2
p122
sg17
g18
sg19
g20
sg21
g22
sg23
(lp123
g1
(g25
g3
Ntp124
Rp125
(dp126
g29
V074
p127
sg31
VGeodude
p128
sg33
g34
sg35
g52
sg37
(lp129
Vrollout
p130
aVmagnitude
p131
aVmud-sport
p132
aVrock-blast
p133
asg43
g44
sg45
Vsturdy
p134
sbag1
(g25
g3
Ntp135
Rp136
(dp137
g29
V074
p138
sg31
VGeodude
p139
sg33
g34
sg35
g52
sg37
(lp140
Vrollout
p141
aVmagnitude
p142
aVmud-sport
p143
aVrock-blast
p144
asg43
g44
sg45
Vrock-head
p145
sbasg71
I00
sg72
g73
sbag1
(g2
g3
Ntp146
Rp147
(dp148
g7
VSpr RS Hiker.png
p149
sg9
VHiker
p150
sg11
VMarc
p151
sg13
V320<br/><small>Potential [[Double Battle]] with Tommy</small>
p152
sg15
g122
sg17
g18
sg19
g20
sg21
g22
sg23
(lp153
g1
(g25
g3
Ntp154
Rp155
(dp156
g29
V074
p157
sg31
VGeodude
p158
sg33
g34
sg35
g52
sg37
(lp159
Vrollout
p160
aVmagnitude
p161
aVmud-sport
p162
aVrock-blast
p163
asg43
g44
sg45
Vsturdy
p164
sbag1
(g25
g3
Ntp165
Rp166
(dp167
g29
V074
p168
sg31
VGeodude
p169
sg33
g34
sg35
g52
sg37
(lp170
Vrollout
p171
aVmagnitude
p172
aVmud-sport
p173
aVrock-blast
p174
asg43
g44
sg45
Vrock-head
p175
sbasg71
I00
sg72
g73
sbag1
(g2
g3
Ntp176
Rp177
(dp178
g7
VVSYoungster ORAS.png
p179
sg9
VYoungster
p180
sg11
VJosh
p181
sg13
V144
p182
sg15
g122
sg17
g18
sg19
g20
sg21
VSM
p183
sg23
(lp184
g1
(g25
g3
Ntp185
Rp186
(dp187
g29
V074
p188
sg31
VGeodude
p189
sg33
g34
sg35
V7
p190
sg37
(lp191
Vstone-edge
p192
aVstealth-rock
p193
aVsmack-down
p194
aVbulldoze
p195
asg43
g44
sg45
Vsturdy
p196
sbag1
(g25
g3
Ntp197
Rp198
(dp199
g29
V074
p200
sg31
VGeodude
p201
sg33
g34
sg35
V9
p202
sg37
(lp203
Vstone-edge
p204
aVstealth-rock
p205
aVsmack-down
p206
aVbulldoze
p207
asg43
g44
sg45
Vsturdy
p208
sbasg71
I00
sg72
Vsun-moon
p209
sbag1
(g2
g3
Ntp210
Rp211
(dp212
g7
VVSYoungster ORAS.png
p213
sg9
VYoungster
p214
sg11
VTommy
p215
sg13
V160
p216
sg15
g81
sg17
g18
sg19
g20
sg21
g183
sg23
(lp217
g1
(g25
g3
Ntp218
Rp219
(dp220
g29
V074
p221
sg31
VGeodude
p222
sg33
g34
sg35
V10
p223
sg37
(lp224
Vstone-edge
p225
aVstealth-rock
p226
aVsmack-down
p227
aVbulldoze
p228
asg43
g44
sg45
Vsturdy
p229
sbasg71
I00
sg72
g209
sbag1
(g2
g3
Ntp230
Rp231
(dp232
g7
VVSSchoolkid F.png
p233
sg9
VSchoolkid
p234
sg11
VGeorgia
p235
sg13
V200
p236
sg15
g81
sg17
g18
sg19
g20
sg21
g183
sg23
(lp237
g1
(g25
g3
Ntp238
Rp239
(dp240
g29
V074
p241
sg31
VGeodude
p242
sg33
VF
p243
sg35
V10
p244
sg37
(lp245
Vstone-edge
p246
aVstealth-rock
p247
aVsmack-down
p248
aVbulldoze
p249
asg43
g44
sg45
Vrock-head
p250
sbasg71
I00
sg72
g209
sbag1
(g2
g3
Ntp251
Rp252
(dp253
g7
VSpr RS Roxanne.png
p254
sg9
VLeader
p255
sg11
VRoxanne
p256
sg13
V1500
p257
sg15
I2
sg17
g18
sg19
g20
sg21
g22
sg23
(lp258
g1
(g25
g3
Ntp259
Rp260
(dp261
g29
I74
sg31
VGeodude
p262
sg33
g243
sg35
V14
p263
sg37
(lp264
VTackle
p265
aVDefense Curl
p266
aVRock Throw
p267
aVRock Tomb
p268
asg43
g44
sg45
VRock Head
p269
sbag1
(g25
g3
Ntp270
Rp271
(dp272
g29
I299
sg31
VNosepass
p273
sg33
g243
sg35
V15
p274
sg37
(lp275
VTackle
p276
aVHarden
p277
aVRock Throw
p278
aVRock Tomb
p279
asg43
g44
sg45
VSturdy
p280
sbasg71
I01
sg72
g73
sbag1
(g2
g3
Ntp281
Rp282
(dp283
g7
VSpr RS Roxanne.png
p284
sg9
VLeader
p285
sg11
VRoxanne
p286
sg13
V1500
p287
sg15
I3
sg17
g18
sg19
g20
sg21
g22
sg23
(lp288
g1
(g25
g3
Ntp289
Rp290
(dp291
g29
I74
sg31
VGeodude
p292
sg33
g243
sg35
V12
p293
sg37
(lp294
VTackle
p295
aVDefense Curl
p296
aVRock Throw
p297
aVRock Tomb
p298
asg43
g44
sg45
VRock Head
p299
sbag1
(g25
g3
Ntp300
Rp301
(dp302
g29
I74
sg31
VGeodude
p303
sg33
g243
sg35
V12
p304
sg37
(lp305
VTackle
p306
aVDefense Curl
p307
aVRock Throw
p308
aVRock Tomb
p309
asg43
g44
sg45
VRock Head
p310
sbag1
(g25
g3
Ntp311
Rp312
(dp313
g29
I299
sg31
VNosepass
p314
sg33
g243
sg35
V15
p315
sg37
(lp316
VBlock
p317
aVHarden
p318
aVTackle
p319
aVRock Tomb
p320
asg43
VOran Berry
p321
sg45
VSturdy
p322
sbasg71
I01
sg72
g73
sbag1
(g2
g3
Ntp323
Rp324
(dp325
g7
VSpr RS Roxanne.png
p326
sg9
VLeader
p327
sg11
VRoxanne
p328
sg13
V7400
p329
sg15
I4
sg17
g18
sg19
g20
sg21
g22
sg23
(lp330
g1
(g25
g3
Ntp331
Rp332
(dp333
g29
I76
sg31
VGolem
p334
sg33
g34
sg35
V32
p335
sg37
(lp336
VProtect
p337
aVRollout
p338
aVMagnitude
p339
aVExplosion
p340
asg43
g44
sg45
VSturdy
p341
sbag1
(g25
g3
Ntp342
Rp343
(dp344
g29
I140
sg31
VKabuto
p345
sg33
g34
sg35
V35
p346
sg37
(lp347
VSwords Dance
p348
aVIce Beam
p349
aVSurf
p350
aVRock Slide
p351
asg43
VSitrus Berry
p352
sg45
VBattle Armor
p353
sbag1
(g25
g3
Ntp354
Rp355
(dp356
g29
I95
sg31
VOnix
p357
sg33
g34
sg35
V35
p358
sg37
(lp359
VIron Tail
p360
aVExplosion
p361
aVRoar
p362
aVRock Slide
p363
asg43
g44
sg45
VRock Head
p364
sbag1
(g25
g3
Ntp365
Rp366
(dp367
g29
I299
sg31
VNosepass
p368
sg33
g34
sg35
V37
p369
sg37
(lp370
VDouble Team
p371
aVExplosion
p372
aVProtect
p373
aVRock Slide
p374
asg43
VSitrus Berry
p375
sg45
VSturdy
p376
sbasg71
I01
sg72
g73
sbag1
(g2
g3
Ntp377
Rp378
(dp379
g7
VSpr RS Roxanne.png
p380
sg9
VLeader
p381
sg11
VRoxanne
p382
sg13
V8400
p383
sg15
I5
sg17
g18
sg19
g20
sg21
g22
sg23
(lp384
g1
(g25
g3
Ntp385
Rp386
(dp387
g29
I138
sg31
VOmanyte
p388
sg33
g34
sg35
V37
p389
sg37
(lp390
VProtect
p391
aVIce Beam
p392
aVRock Slide
p393
aVSurf
p394
asg43
g44
sg45
VShell Armor
p395
sbag1
(g25
g3
Ntp396
Rp397
(dp398
g29
I76
sg31
VGolem
p399
sg33
g34
sg35
V37
p400
sg37
(lp401
VProtect
p402
aVRollout
p403
aVMagnitude
p404
aVExplosion
p405
asg43
g44
sg45
VSturdy
p406
sbag1
(g25
g3
Ntp407
Rp408
(dp409
g29
I141
sg31
VKabutops
p410
sg33
g34
sg35
V40
p411
sg37
(lp412
VSwords Dance
p413
aVIce Beam
p414
aVSurf
p415
aVRock Slide
p416
asg43
VSitrus Berry
p417
sg45
VBattle Armor
p418
sbag1
(g25
g3
Ntp419
Rp420
(dp421
g29
I95
sg31
VOnix
p422
sg33
g34
sg35
V40
p423
sg37
(lp424
VIron Tail
p425
aVExplosion
p426
aVRoar
p427
aVRock Slide
p428
asg43
g44
sg45
VRock Head
p429
sbag1
(g25
g3
Ntp430
Rp431
(dp432
g29
I299
sg31
VNosepass
p433
sg33
g34
sg35
V42
p434
sg37
(lp435
VDouble Team
p436
aVExplosion
p437
aVProtect
p438
aVRock Slide
p439
asg43
VSitrus Berry
p440
sg45
VSturdy
p441
sbasg71
I01
sg72
g73
sbag1
(g2
g3
Ntp442
Rp443
(dp444
g7
VSpr RS Roxanne.png
p445
sg9
VLeader
p446
sg11
VRoxanne
p447
sg13
V9400
p448
sg15
I5
sg17
g18
sg19
g20
sg21
g22
sg23
(lp449
g1
(g25
g3
Ntp450
Rp451
(dp452
g29
I139
sg31
VOmastar
p453
sg33
g34
sg35
V42
p454
sg37
(lp455
VProtect
p456
aVIce Beam
p457
aVRock Slide
p458
aVSurf
p459
asg43
g44
sg45
VShell Armor
p460
sbag1
(g25
g3
Ntp461
Rp462
(dp463
g29
I76
sg31
VGolem
p464
sg33
g34
sg35
V42
p465
sg37
(lp466
VProtect
p467
aVRollout
p468
aVEarthquake
p469
aVExplosion
p470
asg43
g44
sg45
VSturdy
p471
sbag1
(g25
g3
Ntp472
Rp473
(dp474
g29
I141
sg31
VKabutops
p475
sg33
g34
sg35
V45
p476
sg37
(lp477
VSwords Dance
p478
aVIce Beam
p479
aVSurf
p480
aVRock Slide
p481
asg43
VSitrus Berry
p482
sg45
VBattle Armor
p483
sbag1
(g25
g3
Ntp484
Rp485
(dp486
g29
I95
sg31
VOnix
p487
sg33
g34
sg35
V45
p488
sg37
(lp489
VIron Tail
p490
aVExplosion
p491
aVRoar
p492
aVRock Slide
p493
asg43
g44
sg45
VRock Head
p494
sbag1
(g25
g3
Ntp495
Rp496
(dp497
g29
I299
sg31
VNosepass
p498
sg33
g34
sg35
V47
p499
sg37
(lp500
VDouble Team
p501
aVExplosion
p502
aVProtect
p503
aVRock Slide
p504
asg43
VSitrus Berry
p505
sg45
VSturdy
p506
sbasg71
I01
sg72
g73
sbag1
(g2
g3
Ntp507
Rp508
(dp509
g7
VSpr RS Roxanne.png
p510
sg9
VLeader
p511
sg11
VRoxanne
p512
sg13
V10400
p513
sg15
I6
sg17
g18
sg19
g20
sg21
g22
sg23
(lp514
g1
(g25
g3
Ntp515
Rp516
(dp517
g29
I142
sg31
VAerodactyl
p518
sg33
g34
sg35
V47
p519
sg37
(lp520
VRock Slide
p521
aVHyper Beam
p522
aVSupersonic
p523
aVProtect
p524
asg43
g44
sg45
VRock Head
p525
sbag1
(g25
g3
Ntp526
Rp527
(dp528
g29
I76
sg31
VGolem
p529
sg33
g34
sg35
V47
p530
sg37
(lp531
VFocus Punch
p532
aVRollout
p533
aVEarthquake
p534
aVExplosion
p535
asg43
g44
sg45
VSturdy
p536
sbag1
(g25
g3
Ntp537
Rp538
(dp539
g29
I139
sg31
VOmastar
p540
sg33
g34
sg35
V47
p541
sg37
(lp542
VProtect
p543
aVIce Beam
p544
aVRock Slide
p545
aVSurf
p546
asg43
g44
sg45
VShell Armor
p547
sbag1
(g25
g3
Ntp548
Rp549
(dp550
g29
I141
sg31
VKabutops
p551
sg33
g34
sg35
V50
p552
sg37
(lp553
VSwords Dance
p554
aVIce Beam
p555
aVSurf
p556
aVRock Slide
p557
asg43
VSitrus Berry
p558
sg45
VBattle Armor
p559
sbag1
(g25
g3
Ntp560
Rp561
(dp562
g29
I208
sg31
VSteelix
p563
sg33
g34
sg35
V50
p564
sg37
(lp565
VIron Tail
p566
aVExplosion
p567
aVRoar
p568
aVRock Slide
p569
asg43
g44
sg45
VRock Head
p570
sbag1
(g25
g3
Ntp571
Rp572
(dp573
g29
I299
sg31
VNosepass
p574
sg33
g34
sg35
V52
p575
sg37
(lp576
VDouble Team
p577
aVExplosion
p578
aVProtect
p579
aVRock Slide
p580
asg43
VSitrus Berry
p581
sg45
VSturdy
p582
sbasg71
I01
sg72
g73
sbag1
(g2
g3
Ntp583
Rp584
(dp585
g7
VVSRoxanne.png
p586
sg9
VLeader
p587
sg11
VRoxanne
p588
sg13
V1,680
p589
sg15
I2
sg17
g18
sg19
g20
sg21
g183
sg23
(lp590
g1
(g25
g3
Ntp591
Rp592
(dp593
g29
I74
sg31
VGeodude
p594
sg33
g243
sg35
V12
p595
sg37
(lp596
VTackle
p597
aVDefense Curl
p598
aVRock Tomb
p599
asg43
g44
sg45
VSturdy
p600
sbag1
(g25
g3
Ntp601
Rp602
(dp603
g29
I299
sg31
VNosepass
p604
sg33
g243
sg35
V14
p605
sg37
(lp606
VTackle
p607
aVHarden
p608
aVRock Tomb
p609
asg43
g44
sg45
VMagnet Pull
p610
sbasg71
I01
sg72
g209
sba.