(lp0
ccopy_reg
_reconstructor
p1
(c__main__
Trainer
p2
c__builtin__
object
p3
Ntp4
Rp5
(dp6
VtSprite
p7
VSpr RS Team Magma Grunt M.png
p8
sVtClass
p9
VTeam Magma Grunt
p10
sVtName
p11
V{{sup/3|R}}
p12
sVtMoney
p13
V220<br><small>After earning the {{badge|Stone}}</small>
p14
sVtPokeCount
p15
V1
p16
sVtLocation
p17
Vwiki/Rusturf_Tunnel
p18
sVtRegion
p19
VHoenn
p20
sVtGame
p21
VRS
p22
sVtPokes
p23
(lp24
g1
(c__main__
FinishedPokemon
p25
g3
Ntp26
Rp27
(dp28
VpDexNo
p29
V261
p30
sVpSpecies
p31
VPoochyena
p32
sVpGender
p33
VM
p34
sVpLevel
p35
V11
p36
sVpMoves
p37
(lp38
Vcrunch
p39
aVtaunt
p40
aVodor-sleuth
p41
aVhowl
p42
asVpHold
p43
V
p44
sVpAbility
p45
Vquick-feet
p46
sbasVbossFlag
p47
I00
sVtLongGame
p48
Vruby-sapphire
p49
sbag1
(g2
g3
Ntp50
Rp51
(dp52
g7
VSpr RS Team Aqua Grunt M.png
p53
sg9
VTeam Aqua Grunt
p54
sg11
V{{sup/3|S}}{{sup/3|E}}
p55
sg13
V220<br><small>After earning the {{badge|Stone}}</small>
p56
sg15
g16
sg17
g18
sg19
g20
sg21
g22
sg23
(lp57
g1
(g25
g3
Ntp58
Rp59
(dp60
g29
V261
p61
sg31
VPoochyena
p62
sg33
g34
sg35
V11
p63
sg37
(lp64
Vcrunch
p65
aVtaunt
p66
aVodor-sleuth
p67
aVhowl
p68
asg43
g44
sg45
Vquick-feet
p69
sbasg47
I00
sg48
g49
sbag1
(g2
g3
Ntp70
Rp71
(dp72
g7
VSpr RS Hiker.png
p73
sg9
VHiker
p74
sg11
VMike
p75
sg13
V640
p76
sg15
V3
p77
sg17
g18
sg19
g20
sg21
g22
sg23
(lp78
g1
(g25
g3
Ntp79
Rp80
(dp81
g29
V074
p82
sg31
VGeodude
p83
sg33
g34
sg35
V16
p84
sg37
(lp85
Vrollout
p86
aVmagnitude
p87
aVmud-sport
p88
aVrock-blast
p89
asg43
g44
sg45
Vrock-head
p90
sbag1
(g25
g3
Ntp91
Rp92
(dp93
g29
V074
p94
sg31
VGeodude
p95
sg33
g34
sg35
V16
p96
sg37
(lp97
Vrollout
p98
aVmagnitude
p99
aVmud-sport
p100
aVrock-blast
p101
asg43
g44
sg45
Vsturdy
p102
sbag1
(g25
g3
Ntp103
Rp104
(dp105
g29
V066
p106
sg31
VMachop
p107
sg33
g34
sg35
V16
p108
sg37
(lp109
Vdynamic-punch
p110
aVvital-throw
p111
aVcross-chop
p112
aVrevenge
p113
asg43
g44
sg45
Vguts
p114
sbasg47
I00
sg48
g49
sbag1
(g2
g3
Ntp115
Rp116
(dp117
g7
VVSTeam Magma Grunt M.png
p118
sg9
VTeam Magma Grunt
p119
sg11
V{{sup/6|OR}}
p120
sg13
V520<br><small>After earning the {{badge|Stone}}</small>
p121
sg15
g16
sg17
g18
sg19
g20
sg21
VSM
p122
sg23
(lp123
g1
(g25
g3
Ntp124
Rp125
(dp126
g29
V261
p127
sg31
VPoochyena
p128
sg33
g34
sg35
V13
p129
sg37
(lp130
Vassurance
p131
aVembargo
p132
aVsucker-punch
p133
aVplay-rough
p134
asg43
g44
sg45
Vrun-away
p135
sbasg47
I00
sg48
Vsun-moon
p136
sbag1
(g2
g3
Ntp137
Rp138
(dp139
g7
VVSTeam Aqua Grunt M.png
p140
sg9
VTeam Aqua Grunt
p141
sg11
V{{sup/6|AS}}
p142
sg13
V520<br><small>After earning the {{badge|Stone}}</small>
p143
sg15
g16
sg17
g18
sg19
g20
sg21
VSM
p144
sg23
(lp145
g1
(g25
g3
Ntp146
Rp147
(dp148
g29
V261
p149
sg31
VPoochyena
p150
sg33
g34
sg35
V13
p151
sg37
(lp152
Vassurance
p153
aVembargo
p154
aVsucker-punch
p155
aVplay-rough
p156
asg43
g44
sg45
Vquick-feet
p157
sbasg47
I00
sg48
g136
sbag1
(g2
g3
Ntp158
Rp159
(dp160
g7
VVSHiker.png
p161
sg9
VHiker
p162
sg11
VMike
p163
sg13
V512
p164
sg15
V2
p165
sg17
g18
sg19
g20
sg21
VSM
p166
sg23
(lp167
g1
(g25
g3
Ntp168
Rp169
(dp170
g29
V074
p171
sg31
VGeodude
p172
sg33
g34
sg35
V16
p173
sg37
(lp174
Vstone-edge
p175
aVstealth-rock
p176
aVsmack-down
p177
aVbulldoze
p178
asg43
g44
sg45
Vrock-head
p179
sbag1
(g25
g3
Ntp180
Rp181
(dp182
g29
V066
p183
sg31
VMachop
p184
sg33
g34
sg35
V16
p185
sg37
(lp186
Vbulk-up
p187
aVwake-up-slap
p188
aVlow-sweep
p189
aVdual-chop
p190
asg43
g44
sg45
Vno-guard
p191
sbasg47
I00
sg48
g136
sba.