(lp0
ccopy_reg
_reconstructor
p1
(c__main__
Trainer
p2
c__builtin__
object
p3
Ntp4
Rp5
(dp6
VtSprite
p7
VVSTeam Magma Grunt M.png
p8
sVtClass
p9
VTeam Magma Grunt
p10
sVtName
p11
V
p12
sVtMoney
p13
V2,000
p14
sVtPokeCount
p15
V2
p16
sVtLocation
p17
Vwiki/Rustboro_City
p18
sVtRegion
p19
VHoenn
p20
sVtGame
p21
VSM
p22
sVtPokes
p23
(lp24
g1
(c__main__
FinishedPokemon
p25
g3
Ntp26
Rp27
(dp28
VpDexNo
p29
V262
p30
sVpSpecies
p31
VMightyena
p32
sVpGender
p33
VM
p34
sVpLevel
p35
V48
p36
sVpMoves
p37
(lp38
Vice-fang
p39
aVfire-fang
p40
aVsnarl
p41
aVplay-rough
p42
asVpHold
p43
g12
sVpAbility
p44
Vquick-feet
p45
sbag1
(g25
g3
Ntp46
Rp47
(dp48
g29
V042
p49
sg31
VGolbat
p50
sg33
g34
sg35
V50
p51
sg37
(lp52
Vair-cutter
p53
aVair-slash
p54
aVvenoshock
p55
aVquick-guard
p56
asg43
g12
sg44
Vinner-focus
p57
sbasVbossFlag
p58
I00
sVtLongGame
p59
Vsun-moon
p60
sbag1
(g2
g3
Ntp61
Rp62
(dp63
g7
VVSTeam Magma Grunt M.png
p64
sg9
VTeam Magma Grunt
p65
sg11
g12
sg13
V2,040
p66
sg15
V1
p67
sg17
g18
sg19
g20
sg21
g22
sg23
(lp68
g1
(g25
g3
Ntp69
Rp70
(dp71
g29
V110
p72
sg31
VWeezing
p73
sg33
g34
sg35
V51
p74
sg37
(lp75
Vassurance
p76
aVdouble-hit
p77
aVclear-smog
p78
aVbelch
p79
asg43
g12
sg44
Vlevitate
p80
sbasg58
I00
sg59
g60
sbag1
(g2
g3
Ntp81
Rp82
(dp83
g7
VVSTeam Magma Grunt M.png
p84
sg9
VTeam Magma Grunt
p85
sg11
g12
sg13
V1,960
p86
sg15
g16
sg17
g18
sg19
g20
sg21
g22
sg23
(lp87
g1
(g25
g3
Ntp88
Rp89
(dp90
g29
V042
p91
sg31
VGolbat
p92
sg33
g34
sg35
V49
p93
sg37
(lp94
Vair-cutter
p95
aVair-slash
p96
aVvenoshock
p97
aVquick-guard
p98
asg43
g12
sg44
Vinner-focus
p99
sbag1
(g25
g3
Ntp100
Rp101
(dp102
g29
V323
p103
sg31
VCamerupt
p104
sg33
g34
sg35
V49
p105
sg37
(lp106
Veruption
p107
aVearth-power
p108
aVlava-plume
p109
aVflame-burst
p110
asg43
g12
sg44
Vmagma-armor
p111
sbasg58
I00
sg59
g60
sbag1
(g2
g3
Ntp112
Rp113
(dp114
g7
VVSTeam Aqua Grunt M.png
p115
sg9
VTeam Aqua Grunt
p116
sg11
g12
sg13
V2,000
p117
sg15
g16
sg17
g18
sg19
g20
sg21
g22
sg23
(lp118
g1
(g25
g3
Ntp119
Rp120
(dp121
g29
V262
p122
sg31
VMightyena
p123
sg33
g34
sg35
V48
p124
sg37
(lp125
Vice-fang
p126
aVfire-fang
p127
aVsnarl
p128
aVplay-rough
p129
asg43
g12
sg44
Vquick-feet
p130
sbag1
(g25
g3
Ntp131
Rp132
(dp133
g29
V042
p134
sg31
VGolbat
p135
sg33
g34
sg35
V50
p136
sg37
(lp137
Vair-cutter
p138
aVair-slash
p139
aVvenoshock
p140
aVquick-guard
p141
asg43
g12
sg44
Vinner-focus
p142
sbasg58
I00
sg59
g60
sbag1
(g2
g3
Ntp143
Rp144
(dp145
g7
VVSTeam Aqua Grunt M.png
p146
sg9
VTeam Aqua Grunt
p147
sg11
g12
sg13
V2,040
p148
sg15
g67
sg17
g18
sg19
g20
sg21
g22
sg23
(lp149
g1
(g25
g3
Ntp150
Rp151
(dp152
g29
V089
p153
sg31
VMuk
p154
sg33
g34
sg35
V51
p155
sg37
(lp156
Vgunk-shot
p157
aVsludge-wave
p158
aVbelch
p159
aVvenom-drench
p160
asg43
g12
sg44
Vstench
p161
sbasg58
I00
sg59
g60
sbag1
(g2
g3
Ntp162
Rp163
(dp164
g7
VVSTeam Aqua Grunt M.png
p165
sg9
VTeam Aqua Grunt
p166
sg11
g12
sg13
V1,960
p167
sg15
g16
sg17
g18
sg19
g20
sg21
g22
sg23
(lp168
g1
(g25
g3
Ntp169
Rp170
(dp171
g29
V042
p172
sg31
VGolbat
p173
sg33
g34
sg35
V49
p174
sg37
(lp175
Vair-cutter
p176
aVair-slash
p177
aVvenoshock
p178
aVquick-guard
p179
asg43
g12
sg44
Vinner-focus
p180
sbag1
(g25
g3
Ntp181
Rp182
(dp183
g29
V319
p184
sg31
VSharpedo
p185
sg33
g34
sg35
V49
p186
sg37
(lp187
Vnight-slash
p188
ag188
aVice-fang
p189
aVaqua-jet
p190
asg43
g12
sg44
Vrough-skin
p191
sbasg58
I00
sg59
g60
sbag1
(g2
g3
Ntp192
Rp193
(dp194
g7
VSpr E Brendan.png
p195
sg9
VPokemon Trainer
p196
sg11
VBrendan
p197
sg13
V900
p198
sg15
I2
sg17
g18
sg19
g20
sg21
VE
p199
sg23
(lp200
g1
(g25
g3
Ntp201
Rp202
(dp203
g29
I270
sg31
VLotad
p204
sg33
g34
sg35
V13
p205
sg37
(lp206
VAstonish
p207
aVGrowl
p208
aVAbsorb
p209
aVNature Power
p210
asg43
g12
sg44
VSwift Swim
p211
sbag1
(g25
g3
Ntp212
Rp213
(dp214
g29
I255
sg31
VTorchic
p215
sg33
g34
sg35
V15
p216
sg37
(lp217
VScratch
p218
aVGrowl
p219
aVFocus Energy
p220
aVEmber
p221
asg43
g12
sg44
VBlaze
p222
sbasg58
I01
sg59
Vemerald
p223
sbag1
(g2
g3
Ntp224
Rp225
(dp226
g7
VSpr E May.png
p227
sg9
VPokemon Trainer
p228
sg11
VMay
p229
sg13
V900
p230
sg15
I2
sg17
g18
sg19
g20
sg21
g199
sg23
(lp231
g1
(g25
g3
Ntp232
Rp233
(dp234
g29
I270
sg31
VLotad
p235
sg33
VF
p236
sg35
V13
p237
sg37
(lp238
VAstonish
p239
aVGrowl
p240
aVAbsorb
p241
aVNature Power
p242
asg43
g12
sg44
VSwift Swim
p243
sbag1
(g25
g3
Ntp244
Rp245
(dp246
g29
I255
sg31
VTorchic
p247
sg33
g34
sg35
V15
p248
sg37
(lp249
VScratch
p250
aVGrowl
p251
aVFocus Energy
p252
aVEmber
p253
asg43
g12
sg44
VBlaze
p254
sbasg58
I01
sg59
g223
sbag1
(g2
g3
Ntp255
Rp256
(dp257
g7
VSpr E Brendan.png
p258
sg9
VPokemon Trainer
p259
sg11
VBrendan
p260
sg13
V900
p261
sg15
I2
sg17
g18
sg19
g20
sg21
g199
sg23
(lp262
g1
(g25
g3
Ntp263
Rp264
(dp265
g29
I218
sg31
VSlugma
p266
sg33
g34
sg35
V13
p267
sg37
(lp268
VYawn
p269
aVSmog
p270
aVEmber
p271
asg43
g12
sg44
VFlame Body
p272
sbag1
(g25
g3
Ntp273
Rp274
(dp275
g29
I258
sg31
VMudkip
p276
sg33
g34
sg35
V15
p277
sg37
(lp278
VGrowl
p279
aVMud-Slap
p280
aVWater Gun
p281
aVBide
p282
asg43
g12
sg44
VTorrent
p283
sbasg58
I01
sg59
g223
sbag1
(g2
g3
Ntp284
Rp285
(dp286
g7
VSpr E May.png
p287
sg9
VPokemon Trainer
p288
sg11
VMay
p289
sg13
V900
p290
sg15
I2
sg17
g18
sg19
g20
sg21
g199
sg23
(lp291
g1
(g25
g3
Ntp292
Rp293
(dp294
g29
I324
sg31
VTorkoal
p295
sg33
g236
sg35
V13
p296
sg37
(lp297
VEmber
p298
aVSmog
p299
aVCurse
p300
asg43
g12
sg44
VWhite Smoke
p301
sbag1
(g25
g3
Ntp302
Rp303
(dp304
g29
I258
sg31
VMudkip
p305
sg33
g34
sg35
V15
p306
sg37
(lp307
VGrowl
p308
aVMud-Slap
p309
aVWater Gun
p310
aVBide
p311
asg43
g12
sg44
VTorrent
p312
sbasg58
I01
sg59
g223
sbag1
(g2
g3
Ntp313
Rp314
(dp315
g7
VSpr E Brendan.png
p316
sg9
VPokemon Trainer
p317
sg11
VBrendan
p318
sg13
V900
p319
sg15
I2
sg17
g18
sg19
g20
sg21
g199
sg23
(lp320
g1
(g25
g3
Ntp321
Rp322
(dp323
g29
I278
sg31
VWingull
p324
sg33
g34
sg35
V13
p325
sg37
(lp326
VGrowl
p327
aVWater Gun
p328
aVSupersonic
p329
aVWing Attack
p330
asg43
g12
sg44
VKeen Eye
p331
sbag1
(g25
g3
Ntp332
Rp333
(dp334
g29
I252
sg31
VTreecko
p335
sg33
g34
sg35
V15
p336
sg37
(lp337
VPound
p338
aVLeer
p339
aVAbsorb
p340
aVQuick Attack
p341
asg43
g12
sg44
VOvergrow
p342
sbasg58
I01
sg59
g223
sbag1
(g2
g3
Ntp343
Rp344
(dp345
g7
VSpr E May.png
p346
sg9
VPokemon Trainer
p347
sg11
VMay
p348
sg13
V900
p349
sg15
I2
sg17
g18
sg19
g20
sg21
g199
sg23
(lp350
g1
(g25
g3
Ntp351
Rp352
(dp353
g29
I278
sg31
VWingull
p354
sg33
g236
sg35
V13
p355
sg37
(lp356
VGrowl
p357
aVWater Gun
p358
aVSupersonic
p359
aVWing Attack
p360
asg43
g12
sg44
VKeen Eye
p361
sbag1
(g25
g3
Ntp362
Rp363
(dp364
g29
I252
sg31
VTreecko
p365
sg33
g34
sg35
V15
p366
sg37
(lp367
VPound
p368
aVLeer
p369
aVAbsorb
p370
aVQuick Attack
p371
asg43
g12
sg44
VOvergrow
p372
sbasg58
I01
sg59
g223
sba.