(lp0
ccopy_reg
_reconstructor
p1
(c__main__
Trainer
p2
c__builtin__
object
p3
Ntp4
Rp5
(dp6
VtSprite
p7
VSpr RG Psychic.png
p8
sVtClass
p9
VPsychic
p10
sVtName
p11
V
p12
sVtMoney
p13
V330
p14
sVtPokeCount
p15
V3
p16
sVtLocation
p17
Vwiki/Saffron_Gym
p18
sVtRegion
p19
VKanto
p20
sVtGame
p21
VRGB
p22
sVtPokes
p23
(lp24
g1
(c__main__
FinishedPokemon
p25
g3
Ntp26
Rp27
(dp28
VpDexNo
p29
V079
p30
sVpSpecies
p31
VSlowpoke
p32
sVpGender
p33
VU
p34
sVpLevel
p35
V33
p36
sVpMoves
p37
(lp38
Vwater-gun
p39
aVconfusion
p40
aVpsychic
p41
aVamnesia
p42
asVpHold
p43
g12
sVpAbility
p44
Vown-tempo
p45
sbag1
(g25
g3
Ntp46
Rp47
(dp48
g29
V079
p49
sg31
VSlowpoke
p50
sg33
g34
sg35
V33
p51
sg37
(lp52
Vwater-gun
p53
aVconfusion
p54
aVpsychic
p55
aVamnesia
p56
asg43
g12
sg44
Vown-tempo
p57
sbag1
(g25
g3
Ntp58
Rp59
(dp60
g29
V080
p61
sg31
VSlowbro
p62
sg33
g34
sg35
V33
p63
sg37
(lp64
Vconfusion
p65
aVpsychic
p66
aVwithdraw
p67
aVamnesia
p68
asg43
g12
sg44
Voblivious
p69
sbasVbossFlag
p70
I00
sVtLongGame
p71
Vred-blue
p72
sbag1
(g2
g3
Ntp73
Rp74
(dp75
g7
VSpr RG Psychic.png
p76
sg9
VPsychic
p77
sg11
g12
sg13
V340
p78
sg15
V2
p79
sg17
g18
sg19
g20
sg21
g22
sg23
(lp80
g1
(g25
g3
Ntp81
Rp82
(dp83
g29
V122
p84
sg31
VMr. Mime
p85
sg33
g34
sg35
V34
p86
sg37
(lp87
Vmeditate
p88
aVbarrier
p89
aVlight-screen
p90
aVsubstitute
p91
asg43
g12
sg44
Vfilter
p92
sbag1
(g25
g3
Ntp93
Rp94
(dp95
g29
V064
p96
sg31
VKadabra
p97
sg33
g34
sg35
V34
p98
sg37
(lp99
Vpsychic
p100
aVteleport
p101
aVrecover
p102
aVreflect
p103
asg43
g12
sg44
Vinner-focus
p104
sbasg70
I00
sg71
g72
sbag1
(g2
g3
Ntp105
Rp106
(dp107
g7
VSpr RG Channeler.png
p108
sg9
VChanneler
p109
sg11
g12
sg13
V1140
p110
sg15
V1
p111
sg17
g18
sg19
g20
sg21
g22
sg23
(lp112
g1
(g25
g3
Ntp113
Rp114
(dp115
g29
V093
p116
sg31
VHaunter
p117
sg33
g34
sg35
V38
p118
sg37
(lp119
Vnight-shade
p120
aVconfuse-ray
p121
aVlick
p122
aVdream-eater
p123
asg43
g12
sg44
Vlevitate
p124
sbasg70
I00
sg71
g72
sbag1
(g2
g3
Ntp125
Rp126
(dp127
g7
VSpr RG Psychic.png
p128
sg9
VPsychic
p129
sg11
g12
sg13
V380
p130
sg15
g111
sg17
g18
sg19
g20
sg21
g22
sg23
(lp131
g1
(g25
g3
Ntp132
Rp133
(dp134
g29
V080
p135
sg31
VSlowbro
p136
sg33
g34
sg35
V38
p137
sg37
(lp138
Vconfusion
p139
aVpsychic
p140
aVwithdraw
p141
aVamnesia
p142
asg43
g12
sg44
Vown-tempo
p143
sbasg70
I00
sg71
g72
sbag1
(g2
g3
Ntp144
Rp145
(dp146
g7
VSpr RG Channeler.png
p147
sg9
VChanneler
p148
sg11
g12
sg13
V1020
p149
sg15
g79
sg17
g18
sg19
g20
sg21
g22
sg23
(lp150
g1
(g25
g3
Ntp151
Rp152
(dp153
g29
V092
p154
sg31
VGastly
p155
sg33
g34
sg35
V34
p156
sg37
(lp157
Vnight-shade
p158
aVconfuse-ray
p159
aVlick
p160
aVdream-eater
p161
asg43
g12
sg44
Vlevitate
p162
sbag1
(g25
g3
Ntp163
Rp164
(dp165
g29
V093
p166
sg31
VHaunter
p167
sg33
g34
sg35
V34
p168
sg37
(lp169
Vnight-shade
p170
aVconfuse-ray
p171
aVlick
p172
aVdream-eater
p173
asg43
g12
sg44
Vlevitate
p174
sbasg70
I00
sg71
g72
sbag1
(g2
g3
Ntp175
Rp176
(dp177
g7
VSpr RG Channeler.png
p178
sg9
VChanneler
p179
sg11
g12
sg13
V990
p180
sg15
g16
sg17
g18
sg19
g20
sg21
g22
sg23
(lp181
g1
(g25
g3
Ntp182
Rp183
(dp184
g29
V092
p185
sg31
VGastly
p186
sg33
g34
sg35
V33
p187
sg37
(lp188
Vnight-shade
p189
aVconfuse-ray
p190
aVlick
p191
aVdream-eater
p192
asg43
g12
sg44
Vlevitate
p193
sbag1
(g25
g3
Ntp194
Rp195
(dp196
g29
V092
p197
sg31
VGastly
p198
sg33
g34
sg35
V33
p199
sg37
(lp200
Vnight-shade
p201
aVconfuse-ray
p202
aVlick
p203
aVdream-eater
p204
asg43
g12
sg44
Vlevitate
p205
sbag1
(g25
g3
Ntp206
Rp207
(dp208
g29
V093
p209
sg31
VHaunter
p210
sg33
g34
sg35
V33
p211
sg37
(lp212
Vnight-shade
p213
aVconfuse-ray
p214
aVlick
p215
aVdream-eater
p216
asg43
g12
sg44
Vlevitate
p217
sbasg70
I00
sg71
g72
sbag1
(g2
g3
Ntp218
Rp219
(dp220
g7
VSpr RG Psychic.png
p221
sg9
VPsychic
p222
sg11
g12
sg13
V310
p223
sg15
V4
p224
sg17
g18
sg19
g20
sg21
g22
sg23
(lp225
g1
(g25
g3
Ntp226
Rp227
(dp228
g29
V064
p229
sg31
VKadabra
p230
sg33
g34
sg35
V31
p231
sg37
(lp232
Vpsychic
p233
aVteleport
p234
aVrecover
p235
aVreflect
p236
asg43
g12
sg44
Vsynchronize
p237
sbag1
(g25
g3
Ntp238
Rp239
(dp240
g29
V079
p241
sg31
VSlowpoke
p242
sg33
g34
sg35
V31
p243
sg37
(lp244
Vwater-gun
p245
aVconfusion
p246
aVpsychic
p247
aVamnesia
p248
asg43
g12
sg44
Vown-tempo
p249
sbag1
(g25
g3
Ntp250
Rp251
(dp252
g29
V122
p253
sg31
VMr. Mime
p254
sg33
g34
sg35
V31
p255
sg37
(lp256
Vmeditate
p257
aVbarrier
p258
aVlight-screen
p259
aVsubstitute
p260
asg43
g12
sg44
Vfilter
p261
sbag1
(g25
g3
Ntp262
Rp263
(dp264
g29
V064
p265
sg31
VKadabra
p266
sg33
g34
sg35
V31
p267
sg37
(lp268
Vpsychic
p269
aVteleport
p270
aVrecover
p271
aVreflect
p272
asg43
g12
sg44
Vsynchronize
p273
sbasg70
I00
sg71
g72
sbag1
(g2
g3
Ntp274
Rp275
(dp276
g7
VSpr GS Medium.png
p277
sg9
VMedium
p278
sg11
VRebecca
p279
sg13
V1400
p280
sg15
g79
sg17
g18
sg19
g20
sg21
VGS
p281
sg23
(lp282
g1
(g25
g3
Ntp283
Rp284
(dp285
g29
V096
p286
sg31
VDrowzee
p287
sg33
VF
p288
sg35
V35
p289
sg37
(lp290
Vmeditate
p291
aVpoison-gas
p292
aVpsych-up
p293
aVfuture-sight
p294
asg43
g12
sg44
Vinsomnia
p295
sbag1
(g25
g3
Ntp296
Rp297
(dp298
g29
V097
p299
sg31
VHypno
p300
sg33
g288
sg35
V35
p301
sg37
(lp302
Vmeditate
p303
aVpoison-gas
p304
aVpsych-up
p305
aVfuture-sight
p306
asg43
g12
sg44
Vforewarn
p307
sbasg70
I00
sg71
Vgold-silver
p308
sbag1
(g2
g3
Ntp309
Rp310
(dp311
g7
VSpr GS Psychic.png
p312
sg9
VPsychic
p313
sg11
VJared
p314
sg13
V1120
p315
sg15
g16
sg17
g18
sg19
g20
sg21
g281
sg23
(lp316
g1
(g25
g3
Ntp317
Rp318
(dp319
g29
V122
p320
sg31
VMr. Mime
p321
sg33
VM
p322
sg35
V32
p323
sg37
(lp324
Vsubstitute
p325
aVsafeguard
p326
aVbaton-pass
p327
aVencore
p328
asg43
g12
sg44
Vsoundproof
p329
sbag1
(g25
g3
Ntp330
Rp331
(dp332
g29
V102
p333
sg31
VExeggcute
p334
sg33
g322
sg35
V32
p335
sg37
(lp336
Vconfusion
p337
aVhypnosis
p338
aVreflect
p339
aVbarrage
p340
asg43
g12
sg44
Vchlorophyll
p341
sbag1
(g25
g3
Ntp342
Rp343
(dp344
g29
V102
p345
sg31
VExeggcute
p346
sg33
g322
sg35
V35
p347
sg37
(lp348
Vconfusion
p349
aVhypnosis
p350
aVreflect
p351
aVbarrage
p352
asg43
g12
sg44
Vchlorophyll
p353
sbasg70
I00
sg71
g308
sbag1
(g2
g3
Ntp354
Rp355
(dp356
g7
VSpr GS Medium.png
p357
sg9
VMedium
p358
sg11
VDoris
p359
sg13
V1440
p360
sg15
g79
sg17
g18
sg19
g20
sg21
g281
sg23
(lp361
g1
(g25
g3
Ntp362
Rp363
(dp364
g29
V079
p365
sg31
VSlowpoke
p366
sg33
g288
sg35
V34
p367
sg37
(lp368
Vconfusion
p369
aVpsychic
p370
aVamnesia
p371
aVcurse
p372
asg43
g12
sg44
Voblivious
p373
sbag1
(g25
g3
Ntp374
Rp375
(dp376
g29
V080
p377
sg31
VSlowbro
p378
sg33
g288
sg35
V36
p379
sg37
(lp380
Vpsychic
p381
aVwithdraw
p382
aVamnesia
p383
aVcurse
p384
asg43
g12
sg44
Voblivious
p385
sbasg70
I00
sg71
g308
sbag1
(g2
g3
Ntp386
Rp387
(dp388
g7
VSpr GS Psychic.png
p389
sg9
VPsychic
p390
sg11
VFranklin
p391
sg13
V1184
p392
sg15
g111
sg17
g18
sg19
g20
sg21
g281
sg23
(lp393
g1
(g25
g3
Ntp394
Rp395
(dp396
g29
V064
p397
sg31
VKadabra
p398
sg33
g322
sg35
V37
p399
sg37
(lp400
Vrecover
p401
aVreflect
p402
aVkinesis
p403
aVfuture-sight
p404
asg43
g12
sg44
Vinner-focus
p405
sbasg70
I00
sg71
g308
sbag1
(g2
g3
Ntp406
Rp407
(dp408
g7
VSpr FRLG Psychic M.png
p409
sg9
VPsychic
p410
sg11
VCameron
p411
sg13
V660
p412
sg15
g16
sg17
g18
sg19
g20
sg21
VFRLG
p413
sg23
(lp414
g1
(g25
g3
Ntp415
Rp416
(dp417
g29
V079
p418
sg31
VSlowpoke
p419
sg33
g322
sg35
V33
p420
sg37
(lp421
Vamnesia
p422
aVcurse
p423
aVpsych-up
p424
aVyawn
p425
asg43
g12
sg44
Vown-tempo
p426
sbag1
(g25
g3
Ntp427
Rp428
(dp429
g29
V079
p430
sg31
VSlowpoke
p431
sg33
g322
sg35
V33
p432
sg37
(lp433
Vamnesia
p434
aVcurse
p435
aVpsych-up
p436
aVyawn
p437
asg43
g12
sg44
Vown-tempo
p438
sbag1
(g25
g3
Ntp439
Rp440
(dp441
g29
V080
p442
sg31
VSlowbro
p443
sg33
g322
sg35
V33
p444
sg37
(lp445
Vamnesia
p446
aVcurse
p447
aVpsych-up
p448
aVyawn
p449
asg43
g12
sg44
Voblivious
p450
sbasg70
I00
sg71
Vfirered-leafgreen
p451
sbag1
(g2
g3
Ntp452
Rp453
(dp454
g7
VSpr FRLG Psychic M.png
p455
sg9
VPsychic
p456
sg11
VTyron
p457
sg13
V680
p458
sg15
g79
sg17
g18
sg19
g20
sg21
g413
sg23
(lp459
g1
(g25
g3
Ntp460
Rp461
(dp462
g29
V122
p463
sg31
VMr. Mime
p464
sg33
g322
sg35
V34
p465
sg37
(lp466
Vtrick
p467
aVrole-play
p468
aVrecycle
p469
aVmagical-leaf
p470
asg43
g12
sg44
Vsoundproof
p471
sbag1
(g25
g3
Ntp472
Rp473
(dp474
g29
V064
p475
sg31
VKadabra
p476
sg33
g322
sg35
V34
p477
sg37
(lp478
Vkinesis
p479
aVfuture-sight
p480
aVtrick
p481
aVrole-play
p482
asg43
g12
sg44
Vsynchronize
p483
sbasg70
I00
sg71
g451
sbag1
(g2
g3
Ntp484
Rp485
(dp486
g7
VSpr FRLG Channeler.png
p487
sg9
VChanneler
p488
sg11
VStacy
p489
sg13
V1216
p490
sg15
g111
sg17
g18
sg19
g20
sg21
g413
sg23
(lp491
g1
(g25
g3
Ntp492
Rp493
(dp494
g29
V093
p495
sg31
VHaunter
p496
sg33
g288
sg35
V38
p497
sg37
(lp498
Vdestiny-bond
p499
aVmean-look
p500
aVshadow-ball
p501
aVshadow-punch
p502
asg43
g12
sg44
Vlevitate
p503
sbasg70
I00
sg71
g451
sbag1
(g2
g3
Ntp504
Rp505
(dp506
g7
VSpr FRLG Psychic M.png
p507
sg9
VPsychic
p508
sg11
VPreston
p509
sg13
V760
p510
sg15
g111
sg17
g18
sg19
g20
sg21
g413
sg23
(lp511
g1
(g25
g3
Ntp512
Rp513
(dp514
g29
V080
p515
sg31
VSlowbro
p516
sg33
g322
sg35
V38
p517
sg37
(lp518
Vamnesia
p519
aVcurse
p520
aVpsych-up
p521
aVyawn
p522
asg43
g12
sg44
Voblivious
p523
sbasg70
I00
sg71
g451
sbag1
(g2
g3
Ntp524
Rp525
(dp526
g7
VSpr FRLG Channeler.png
p527
sg9
VChanneler
p528
sg11
VAmanda
p529
sg13
V1088
p530
sg15
g79
sg17
g18
sg19
g20
sg21
g413
sg23
(lp531
g1
(g25
g3
Ntp532
Rp533
(dp534
g29
V092
p535
sg31
VGastly
p536
sg33
g288
sg35
V34
p537
sg37
(lp538
Vspite
p539
aVdestiny-bond
p540
aVmean-look
p541
aVshadow-ball
p542
asg43
g12
sg44
Vlevitate
p543
sbag1
(g25
g3
Ntp544
Rp545
(dp546
g29
V093
p547
sg31
VHaunter
p548
sg33
g288
sg35
V34
p549
sg37
(lp550
Vdestiny-bond
p551
aVmean-look
p552
aVshadow-ball
p553
aVshadow-punch
p554
asg43
g12
sg44
Vlevitate
p555
sbasg70
I00
sg71
g451
sbag1
(g2
g3
Ntp556
Rp557
(dp558
g7
VSpr FRLG Channeler.png
p559
sg9
VChanneler
p560
sg11
VTasha
p561
sg13
V1056
p562
sg15
g16
sg17
g18
sg19
g20
sg21
g413
sg23
(lp563
g1
(g25
g3
Ntp564
Rp565
(dp566
g29
V092
p567
sg31
VGastly
p568
sg33
g288
sg35
V33
p569
sg37
(lp570
Vspite
p571
aVdestiny-bond
p572
aVmean-look
p573
aVshadow-ball
p574
asg43
g12
sg44
Vlevitate
p575
sbag1
(g25
g3
Ntp576
Rp577
(dp578
g29
V092
p579
sg31
VGastly
p580
sg33
g288
sg35
V33
p581
sg37
(lp582
Vspite
p583
aVdestiny-bond
p584
aVmean-look
p585
aVshadow-ball
p586
asg43
g12
sg44
Vlevitate
p587
sbag1
(g25
g3
Ntp588
Rp589
(dp590
g29
V093
p591
sg31
VHaunter
p592
sg33
g288
sg35
V33
p593
sg37
(lp594
Vdestiny-bond
p595
aVmean-look
p596
aVshadow-ball
p597
aVshadow-punch
p598
asg43
g12
sg44
Vlevitate
p599
sbasg70
I00
sg71
g451
sbag1
(g2
g3
Ntp600
Rp601
(dp602
g7
VSpr FRLG Psychic M.png
p603
sg9
VPsychic
p604
sg11
VJohan
p605
sg13
V620
p606
sg15
g224
sg17
g18
sg19
g20
sg21
g413
sg23
(lp607
g1
(g25
g3
Ntp608
Rp609
(dp610
g29
V064
p611
sg31
VKadabra
p612
sg33
g322
sg35
V31
p613
sg37
(lp614
Vkinesis
p615
aVfuture-sight
p616
aVtrick
p617
aVrole-play
p618
asg43
g12
sg44
Vsynchronize
p619
sbag1
(g25
g3
Ntp620
Rp621
(dp622
g29
V122
p623
sg31
VMr. Mime
p624
sg33
g322
sg35
V31
p625
sg37
(lp626
Vtrick
p627
aVrole-play
p628
aVrecycle
p629
aVmagical-leaf
p630
asg43
g12
sg44
Vfilter
p631
sbag1
(g25
g3
Ntp632
Rp633
(dp634
g29
V079
p635
sg31
VSlowpoke
p636
sg33
g322
sg35
V31
p637
sg37
(lp638
Vamnesia
p639
aVcurse
p640
aVpsych-up
p641
aVyawn
p642
asg43
g12
sg44
Vown-tempo
p643
sbag1
(g25
g3
Ntp644
Rp645
(dp646
g29
V064
p647
sg31
VKadabra
p648
sg33
g322
sg35
V31
p649
sg37
(lp650
Vkinesis
p651
aVfuture-sight
p652
aVtrick
p653
aVrole-play
p654
asg43
g12
sg44
Vinner-focus
p655
sbasg70
I00
sg71
g451
sbag1
(g2
g3
Ntp656
Rp657
(dp658
g7
VSpr HGSS Medium.png
p659
sg9
VMedium
p660
sg11
VRebecca
p661
sg13
V2160
p662
sg15
g79
sg17
g18
sg19
g20
sg21
VHGSS
p663
sg23
(lp664
g1
(g25
g3
Ntp665
Rp666
(dp667
g29
V436
p668
sg31
VBronzor
p669
sg33
g34
sg35
V45
p670
sg37
(lp671
Viron-defense
p672
aVgyro-ball
p673
aVpayback
p674
aVheal-block
p675
asg43
g12
sg44
Vheatproof
p676
sbag1
(g25
g3
Ntp677
Rp678
(dp679
g29
V097
p680
sg31
VHypno
p681
sg33
g288
sg35
V45
p682
sg37
(lp683
Vfuture-sight
p684
aVswitcheroo
p685
aVnasty-plot
p686
aVzen-headbutt
p687
asg43
g12
sg44
Vinsomnia
p688
sbasg70
I00
sg71
Vheartgold-soulsilver
p689
sbag1
(g2
g3
Ntp690
Rp691
(dp692
g7
VSpr DP Psychic M.png
p693
sg9
VPsychic
p694
sg11
VJared
p695
sg13
V1440
p696
sg15
g16
sg17
g18
sg19
g20
sg21
VDP
p697
sg23
(lp698
g1
(g25
g3
Ntp699
Rp700
(dp701
g29
V122
p702
sg31
VMr. Mime
p703
sg33
g322
sg35
V42
p704
sg37
(lp705
Vmagical-leaf
p706
aVcopycat
p707
aVpower-swap
p708
aVguard-swap
p709
asg43
g12
sg44
Vfilter
p710
sbag1
(g25
g3
Ntp711
Rp712
(dp713
g29
V102
p714
sg31
VExeggcute
p715
sg33
g322
sg35
V42
p716
sg37
(lp717
Vuproar
p718
aVbullet-seed
p719
aVnatural-gift
p720
aVworry-seed
p721
asg43
g12
sg44
Vchlorophyll
p722
sbag1
(g25
g3
Ntp723
Rp724
(dp725
g29
V102
p726
sg31
VExeggcute
p727
sg33
g322
sg35
V45
p728
sg37
(lp729
Vuproar
p730
aVbullet-seed
p731
aVnatural-gift
p732
aVworry-seed
p733
asg43
g12
sg44
Vchlorophyll
p734
sbasg70
I00
sg71
Vdiamond-pearl
p735
sbag1
(g2
g3
Ntp736
Rp737
(dp738
g7
VSpr HGSS Medium.png
p739
sg9
VMedium
p740
sg11
VDarcy
p741
sg13
V2208
p742
sg15
g79
sg17
g18
sg19
g20
sg21
g663
sg23
(lp743
g1
(g25
g3
Ntp744
Rp745
(dp746
g29
V079
p747
sg31
VSlowpoke
p748
sg33
g288
sg35
V44
p749
sg37
(lp750
Vyawn
p751
aVslack-off
p752
aVwater-pulse
p753
aVzen-headbutt
p754
asg43
g12
sg44
Vown-tempo
p755
sbag1
(g25
g3
Ntp756
Rp757
(dp758
g29
V080
p759
sg31
VSlowbro
p760
sg33
g288
sg35
V46
p761
sg37
(lp762
Vyawn
p763
aVslack-off
p764
aVwater-pulse
p765
aVzen-headbutt
p766
asg43
g12
sg44
Vown-tempo
p767
sbasg70
I00
sg71
g689
sbag1
(g2
g3
Ntp768
Rp769
(dp770
g7
VSpr DP Psychic M.png
p771
sg9
VPsychic
p772
sg11
VFranklin
p773
sg13
V1504
p774
sg15
g79
sg17
g18
sg19
g20
sg21
g697
sg23
(lp775
g1
(g25
g3
Ntp776
Rp777
(dp778
g29
V064
p779
sg31
VKadabra
p780
sg33
g322
sg35
V44
p781
sg37
(lp782
Vtrick
p783
aVrole-play
p784
aVmiracle-eye
p785
aVpsycho-cut
p786
asg43
g12
sg44
Vsynchronize
p787
sbag1
(g25
g3
Ntp788
Rp789
(dp790
g29
V203
p791
sg31
VGirafarig
p792
sg33
g322
sg35
V47
p793
sg37
(lp794
Vpower-swap
p795
aVguard-swap
p796
aVzen-headbutt
p797
aVdouble-hit
p798
asg43
g12
sg44
Vinner-focus
p799
sbasg70
I00
sg71
g735
sbag1
(g2
g3
Ntp800
Rp801
(dp802
g7
VVSPsychic PE.png
p803
sg9
VPsychic
p804
sg11
VJohan
p805
sg13
V1,968
p806
sg15
g79
sg17
g18
sg19
g20
sg21
VLGPE
p807
sg23
(lp808
g1
(g25
g3
Ntp809
Rp810
(dp811
g29
V080
p812
sg31
VSlowbro
p813
sg33
g288
sg35
V41
p814
sg37
(lp815
Vwater-pulse
p816
aVzen-headbutt
p817
aVheal-pulse
p818
ag818
asg43
g12
sg44
Vown-tempo
p819
sbag1
(g25
g3
Ntp820
Rp821
(dp822
g29
V064
p823
sg31
VKadabra
p824
sg33
g322
sg35
V41
p825
sg37
(lp826
Vmiracle-eye
p827
aVpsycho-cut
p828
aVtelekinesis
p829
aVally-switch
p830
asg43
g12
sg44
Vinner-focus
p831
sbasg70
I00
sg71
Vsun-moon
p832
sbag1
(g2
g3
Ntp833
Rp834
(dp835
g7
VVSChanneler PE.png
p836
sg9
VChanneler
p837
sg11
VStacy
p838
sg13
V1,600
p839
sg15
g79
sg17
g18
sg19
g20
sg21
g807
sg23
(lp840
g1
(g25
g3
Ntp841
Rp842
(dp843
g29
V093
p844
sg31
VHaunter
p845
sg33
g322
sg35
V40
p846
sg37
(lp847
Vpayback
p848
aVsucker-punch
p849
aVdark-pulse
p850
aVhex
p851
asg43
g12
sg44
Vlevitate
p852
sbag1
(g25
g3
Ntp853
Rp854
(dp855
g29
V093
p856
sg31
VHaunter
p857
sg33
g288
sg35
V40
p858
sg37
(lp859
Vpayback
p860
aVsucker-punch
p861
aVdark-pulse
p862
aVhex
p863
asg43
g12
sg44
Vlevitate
p864
sbasg70
I00
sg71
g832
sbag1
(g2
g3
Ntp865
Rp866
(dp867
g7
VVSAce Trainer F PE.png
p868
sg9
VAce Trainer
p869
sg11
VAmanda
p870
sg13
V4,200
p871
sg15
g111
sg17
g18
sg19
g20
sg21
g807
sg23
(lp872
g1
(g25
g3
Ntp873
Rp874
(dp875
g29
V124
p876
sg31
VJynx
p877
sg33
g288
sg35
V42
p878
sg37
(lp879
Vwring-out
p880
aVavalanche
p881
aVheart-stamp
p882
aVdraining-kiss
p883
asg43
g12
sg44
Vforewarn
p884
sbasg70
I00
sg71
g832
sbag1
(g2
g3
Ntp885
Rp886
(dp887
g7
VVSChanneler PE.png
p888
sg9
VChanneler
p889
sg11
VImari
p890
sg13
V1,600
p891
sg15
g16
sg17
g18
sg19
g20
sg21
g807
sg23
(lp892
g1
(g25
g3
Ntp893
Rp894
(dp895
g29
V093
p896
sg31
VHaunter
p897
sg33
g288
sg35
V40
p898
sg37
(lp899
Vpayback
p900
aVsucker-punch
p901
aVdark-pulse
p902
aVhex
p903
asg43
g12
sg44
Vlevitate
p904
sbag1
(g25
g3
Ntp905
Rp906
(dp907
g29
V093
p908
sg31
VHaunter
p909
sg33
g322
sg35
V40
p910
sg37
(lp911
Vpayback
p912
aVsucker-punch
p913
aVdark-pulse
p914
aVhex
p915
asg43
g12
sg44
Vlevitate
p916
sbag1
(g25
g3
Ntp917
Rp918
(dp919
g29
V093
p920
sg31
VHaunter
p921
sg33
g322
sg35
V40
p922
sg37
(lp923
Vpayback
p924
aVsucker-punch
p925
aVdark-pulse
p926
aVhex
p927
asg43
g12
sg44
Vlevitate
p928
sbasg70
I00
sg71
g832
sbag1
(g2
g3
Ntp929
Rp930
(dp931
g7
VVSAce Trainer M PE.png
p932
sg9
VAce Trainer
p933
sg11
VCameron
p934
sg13
V4,200
p935
sg15
g79
sg17
g18
sg19
g20
sg21
g807
sg23
(lp936
g1
(g25
g3
Ntp937
Rp938
(dp939
g29
V064
p940
sg31
VKadabra
p941
sg33
g322
sg35
V41
p942
sg37
(lp943
Vmiracle-eye
p944
aVpsycho-cut
p945
aVtelekinesis
p946
aVally-switch
p947
asg43
g12
sg44
Vsynchronize
p948
sbag1
(g25
g3
Ntp949
Rp950
(dp951
g29
V064
p952
sg31
VKadabra
p953
sg33
g322
sg35
V42
p954
sg37
(lp955
Vmiracle-eye
p956
aVpsycho-cut
p957
aVtelekinesis
p958
aVally-switch
p959
asg43
g12
sg44
Vsynchronize
p960
sbasg70
I00
sg71
g832
sbag1
(g2
g3
Ntp961
Rp962
(dp963
g7
VVSPsychic PE.png
p964
sg9
VPsychic
p965
sg11
VPreston
p966
sg13
V1,968
p967
sg15
g111
sg17
g18
sg19
g20
sg21
g807
sg23
(lp968
g1
(g25
g3
Ntp969
Rp970
(dp971
g29
V097
p972
sg31
VHypno
p973
sg33
g322
sg35
V41
p974
sg37
(lp975
Vnasty-plot
p976
aVzen-headbutt
p977
aVpsyshock
p978
aVsynchronoise
p979
asg43
g12
sg44
Vinsomnia
p980
sbasg70
I00
sg71
g832
sbag1
(g2
g3
Ntp981
Rp982
(dp983
g7
VSpr RG Sabrina.png
p984
sg9
VLeader
p985
sg11
VSabrina
p986
sg13
V4257
p987
sg15
I4
sg17
g18
sg19
g20
sg21
g22
sg23
(lp988
g1
(g25
g3
Ntp989
Rp990
(dp991
g29
I64
sg31
VKadabra
p992
sg33
g34
sg35
V38
p993
sg37
(lp994
VDisable
p995
aVPsybeam
p996
aVRecover
p997
aVPsychic
p998
asg43
g12
sg44
Vsynchronize
p999
sbag1
(g25
g3
Ntp1000
Rp1001
(dp1002
g29
I122
sg31
VMr. Mime
p1003
sg33
g34
sg35
V37
p1004
sg37
(lp1005
VConfusion
p1006
aVBarrier
p1007
aVLight Screen
p1008
aVDoubleSlap
p1009
asg43
g12
sg44
Vsoundproof
p1010
sbag1
(g25
g3
Ntp1011
Rp1012
(dp1013
g29
I49
sg31
VVenomoth
p1014
sg33
g34
sg35
V38
p1015
sg37
(lp1016
VPoisonPowder
p1017
aVLeech Life
p1018
aVStun Spore
p1019
aVPsybeam
p1020
asg43
g12
sg44
Vshield-dust
p1021
sbag1
(g25
g3
Ntp1022
Rp1023
(dp1024
g29
I65
sg31
VAlakazam
p1025
sg33
g34
sg35
V43
p1026
sg37
(lp1027
VPsybeam
p1028
aVRecover
p1029
aVPsywave
p1030
aVReflect
p1031
asg43
g12
sg44
Vinner-focus
p1032
sbasg70
I01
sg71
g72
sbag1
(g2
g3
Ntp1033
Rp1034
(dp1035
g7
VSpr Y_Sabrina.png
p1036
sg9
g985
sg11
VSabrina
p1037
sg13
V4950
p1038
sg15
I3
sg17
g18
sg19
g20
sg21
VY
p1039
sg23
(lp1040
g1
(g25
g3
Ntp1041
Rp1042
(dp1043
g29
I63
sg31
VAbra
p1044
sg33
g34
sg35
V50
p1045
sg37
(lp1046
VTeleport
p1047
aVFlash
p1048
asg43
g12
sg44
Vsynchronize
p1049
sbag1
(g25
g3
Ntp1050
Rp1051
(dp1052
g29
I64
sg31
VKadabra
p1053
sg33
g34
sg35
V50
p1054
sg37
(lp1055
VPsychic
p1056
aVRecover
p1057
aVKinesis
p1058
aVPsywave
p1059
asg43
g12
sg44
Vsynchronize
p1060
sbag1
(g25
g3
Ntp1061
Rp1062
(dp1063
g29
I65
sg31
VAlakazam
p1064
sg33
g34
sg35
V50
p1065
sg37
(lp1066
VPsychic
p1067
aVPsywave
p1068
aVReflect
p1069
aVRecover
p1070
asg43
g12
sg44
Vinner-focus
p1071
sbasg70
I01
sg71
Vyellow
p1072
sbag1
(g2
g3
Ntp1073
Rp1074
(dp1075
g7
VSpr GS Sabrina.png
p1076
sg9
VLeader
p1077
sg11
VSabrina
p1078
sg13
V4800
p1079
sg15
I3
sg17
g18
sg19
g20
sg21
g281
sg23
(lp1080
g1
(g25
g3
Ntp1081
Rp1082
(dp1083
g29
I196
sg31
VEspeon
p1084
sg33
g322
sg35
V46
p1085
sg37
(lp1086
VSand-Attack
p1087
aVQuick Attack
p1088
aVSwift
p1089
aVPsychic
p1090
asg43
g12
sg44
Vsynchronize
p1091
sbag1
(g25
g3
Ntp1092
Rp1093
(dp1094
g29
I122
sg31
VMr. Mime
p1095
sg33
g288
sg35
V46
p1096
sg37
(lp1097
VBarrier
p1098
aVReflect
p1099
aVBaton Pass
p1100
aVPsychic
p1101
asg43
g12
sg44
Vsoundproof
p1102
sbag1
(g25
g3
Ntp1103
Rp1104
(dp1105
g29
I65
sg31
VAlakazam
p1106
sg33
g322
sg35
V48
p1107
sg37
(lp1108
VRecover
p1109
aVFuture Sight
p1110
aVPsychic
p1111
aVReflect
p1112
asg43
g12
sg44
Vinner-focus
p1113
sbasg70
I01
sg71
g308
sbag1
(g2
g3
Ntp1114
Rp1115
(dp1116
g7
VSpr FRLG Sabrina.png
p1117
sg9
VLeader
p1118
sg11
VSabrina
p1119
sg13
V4300
p1120
sg15
I4
sg17
g18
sg19
g20
sg21
g413
sg23
(lp1121
g1
(g25
g3
Ntp1122
Rp1123
(dp1124
g29
I64
sg31
VKadabra
p1125
sg33
g322
sg35
V38
p1126
sg37
(lp1127
VPsybeam
p1128
aVReflect
p1129
aVFuture Sight
p1130
aVCalm Mind
p1131
asg43
g12
sg44
VSynchronize
p1132
sbag1
(g25
g3
Ntp1133
Rp1134
(dp1135
g29
I122
sg31
VMr. Mime
p1136
sg33
g288
sg35
V37
p1137
sg37
(lp1138
VBarrier
p1139
aVPsybeam
p1140
aVBaton Pass
p1141
aVCalm Mind
p1142
asg43
g12
sg44
VSoundproof
p1143
sbag1
(g25
g3
Ntp1144
Rp1145
(dp1146
g29
I49
sg31
VVenomoth
p1147
sg33
g288
sg35
V38
p1148
sg37
(lp1149
VPsybeam
p1150
aVGust
p1151
aVLeech Life
p1152
aVSupersonic
p1153
asg43
g12
sg44
VShield Dust
p1154
sbag1
(g25
g3
Ntp1155
Rp1156
(dp1157
g29
I65
sg31
VAlakazam
p1158
sg33
g322
sg35
V43
p1159
sg37
(lp1160
VPsychic
p1161
aVRecover
p1162
aVFuture Sight
p1163
aVCalm Mind
p1164
asg43
g12
sg44
VSynchronize
p1165
sbasg70
I01
sg71
g451
sbag1
(g2
g3
Ntp1166
Rp1167
(dp1168
g7
VSpr HGSS Sabrina.png
p1169
sg9
VLeader
p1170
sg11
VSabrina
p1171
sg13
V6600
p1172
sg15
I3
sg17
g18
sg19
g20
sg21
g663
sg23
(lp1173
g1
(g25
g3
Ntp1174
Rp1175
(dp1176
g29
I196
sg31
VEspeon
p1177
sg33
g322
sg35
V53
p1178
sg37
(lp1179
VCalm Mind
p1180
aVShadow Ball
p1181
aVPsychic
p1182
aVSkill Swap
p1183
asg43
g12
sg44
VSynchronize
p1184
sbag1
(g25
g3
Ntp1185
Rp1186
(dp1187
g29
I122
sg31
VMr. Mime
p1188
sg33
g288
sg35
V53
p1189
sg37
(lp1190
VMimic
p1191
aVLight Screen
p1192
aVPsychic
p1193
aVSkill Swap
p1194
asg43
g12
sg44
VFilter
p1195
sbag1
(g25
g3
Ntp1196
Rp1197
(dp1198
g29
I65
sg31
VAlakazam
p1199
sg33
g322
sg35
V55
p1200
sg37
(lp1201
VPsychic
p1202
aVSkill Swap
p1203
aVReflect
p1204
aVEnergy Ball
p1205
asg43
VSitrus Berry
p1206
sg44
VInner Focus
p1207
sbasg70
I01
sg71
g689
sbag1
(g2
g3
Ntp1208
Rp1209
(dp1210
g7
VVSSabrina PE.png
p1211
sg9
VGym Leader
p1212
sg11
VSabrina
p1213
sg13
V7,040
p1214
sg15
I4
sg17
g18
sg19
g20
sg21
g807
sg23
(lp1215
g1
(g25
g3
Ntp1216
Rp1217
(dp1218
g29
I122
sg31
VMr. Mime
p1219
sg33
g322
sg35
V43
p1220
sg37
(lp1221
VPsychic
p1222
aVReflect
p1223
aVLight Screen
p1224
aVDouble Slap
p1225
asg43
g12
sg44
Vsoundproof
p1226
sbag1
(g25
g3
Ntp1227
Rp1228
(dp1229
g29
I80
sg31
VSlowbro
p1230
sg33
g288
sg35
V43
p1231
sg37
(lp1232
VPsychic
p1233
aVYawn
p1234
aVSurf
p1235
aVCalm Mind
p1236
asg43
g12
sg44
Voblivious
p1237
sbag1
(g25
g3
Ntp1238
Rp1239
(dp1240
g29
I124
sg31
VJynx
p1241
sg33
g288
sg35
V43
p1242
sg37
(lp1243
VPsychic
p1244
aVLovely Kiss
p1245
aVIce Punch
p1246
asg43
g12
sg44
Voblivious
p1247
sbag1
(g25
g3
Ntp1248
Rp1249
(dp1250
g29
I65
sg31
VAlakazam
p1251
sg33
g322
sg35
V44
p1252
sg37
(lp1253
VPsychic
p1254
aVNight Shade
p1255
asg43
g12
sg44
Vinner-focus
p1256
sbasg70
I01
sg71
g832
sbag1
(g2
g3
Ntp1257
Rp1258
(dp1259
g7
VVSSabrina PE.png
p1260
sg9
VGym Leader
p1261
sg11
VSabrina
p1262
sg13
V13,680
p1263
sg15
I5
sg17
g18
sg19
g20
sg21
g807
sg23
(lp1264
g1
(g25
g3
Ntp1265
Rp1266
(dp1267
g29
I122
sg31
VMr. Mime
p1268
sg33
g322
sg35
V56
p1269
sg37
(lp1270
VPsychic
p1271
aVDazzling Gleam
p1272
aVReflect
p1273
aVLight Screen
p1274
asg43
g12
sg44
Vsoundproof
p1275
sbag1
(g25
g3
Ntp1276
Rp1277
(dp1278
g29
I124
sg31
VJynx
p1279
sg33
g288
sg35
V56
p1280
sg37
(lp1281
VPsychic
p1282
aVBlizzard
p1283
aVShadow Ball
p1284
aVLovely Kiss
p1285
asg43
g12
sg44
Voblivious
p1286
sbag1
(g25
g3
Ntp1287
Rp1288
(dp1289
g29
I97
sg31
VHypno
p1290
sg33
g322
sg35
V56
p1291
sg37
(lp1292
VDream Eater
p1293
aVHypnosis
p1294
aVThunder Punch
p1295
aVFire Punch
p1296
asg43
g12
sg44
Vforewarn
p1297
sbag1
(g25
g3
Ntp1298
Rp1299
(dp1300
g29
I80
sg31
VSlowbro
p1301
sg33
g288
sg35
V56
p1302
sg37
(lp1303
VPsychic
p1304
aVIce Beam
p1305
aVShadow Ball
p1306
aVScald
p1307
asg43
g12
sg44
Voblivious
p1308
sbag1
(g25
g3
Ntp1309
Rp1310
(dp1311
g29
I65
sg31
VAlakazam
p1312
sg33
g322
sg35
V57
p1313
sg37
(lp1314
VPsychic
p1315
aVDazzling Gleam
p1316
aVShadow Ball
p1317
aVTri Attack
p1318
asg43
g12
sg44
Vinner-focus
p1319
sbasg70
I01
sg71
g832
sba.