(lp0
ccopy_reg
_reconstructor
p1
(c__main__
Trainer
p2
c__builtin__
object
p3
Ntp4
Rp5
(dp6
VtSprite
p7
VVSYoungster.png
p8
sVtClass
p9
VYoungster
p10
sVtName
p11
VDavid
p12
sVtMoney
p13
V240
p14
sVtPokeCount
p15
V1
p16
sVtLocation
p17
Vwiki/Santalune_Gym
p18
sVtRegion
p19
VKalos
p20
sVtGame
p21
VSM
p22
sVtPokes
p23
(lp24
g1
(c__main__
FinishedPokemon
p25
g3
Ntp26
Rp27
(dp28
VpDexNo
p29
V165
p30
sVpSpecies
p31
VLedyba
p32
sVpGender
p33
VM
p34
sVpLevel
p35
V10
p36
sVpMoves
p37
(lp38
Vbaton-pass
p39
aVsilver-wind
p40
aVair-slash
p41
aVbug-buzz
p42
asVpHold
p43
V
p44
sVpAbility
p45
Vswarm
p46
sbasVbossFlag
p47
I00
sVtLongGame
p48
Vsun-moon
p49
sbag1
(g2
g3
Ntp50
Rp51
(dp52
g7
VVSYoungster.png
p53
sg9
VYoungster
p54
sg11
VZachary
p55
sg13
V240
p56
sg15
g16
sg17
g18
sg19
g20
sg21
g22
sg23
(lp57
g1
(g25
g3
Ntp58
Rp59
(dp60
g29
V665
p61
sg31
VSpewpa
p62
sg33
g34
sg35
V10
p63
sg37
(lp64
Vharden
p65
aVprotect
p66
asg43
g44
sg45
Vshed-skin
p67
sbasg47
I00
sg48
g49
sbag1
(g2
g3
Ntp68
Rp69
(dp70
g7
VVSLass XY.png
p71
sg9
VLass
p72
sg11
VCharlotte
p73
sg13
V216
p74
sg15
V2
p75
sg17
g18
sg19
g20
sg21
VSM
p76
sg23
(lp77
g1
(g25
g3
Ntp78
Rp79
(dp80
g29
V014
p81
sg31
VKakuna
p82
sg33
g34
sg35
V7
p83
sg37
(lp84
Vharden
p85
asg43
g44
sg45
Vshed-skin
p86
sbag1
(g25
g3
Ntp87
Rp88
(dp89
g29
V415
p90
sg31
VCombee
p91
sg33
VF
p92
sg35
V9
p93
sg37
(lp94
Vgust
p95
aVsweet-scent
p96
aVbug-buzz
p97
aVbug-bite
p98
asg43
g44
sg45
Vhoney-gather
p99
sbasg47
I00
sg48
g49
sbag1
(g2
g3
Ntp100
Rp101
(dp102
g7
VVSViola.png
p103
sg9
VLeader
p104
sg11
VViola
p105
sg13
V1,920
p106
sg15
I2
sg17
g18
sg19
g20
sg21
VSM
p107
sg23
(lp108
g1
(g25
g3
Ntp109
Rp110
(dp111
g29
I283
sg31
VSurskit
p112
sg33
g92
sg35
V10
p113
sg37
(lp114
VQuick Attack
p115
aVBubble
p116
aVWater Sport
p117
asg43
g44
sg45
VSwift Swim
p118
sbag1
(g25
g3
Ntp119
Rp120
(dp121
g29
I666
sg31
VVivillon
p122
sg33
g92
sg35
V12
p123
sg37
(lp124
VHarden
p125
aVInfestation
p126
aVTackle
p127
asg43
g44
sg45
VShield Dust
p128
sbasg47
I01
sg48
g49
sba.