(lp0
ccopy_reg
_reconstructor
p1
(c__main__
Trainer
p2
c__builtin__
object
p3
Ntp4
Rp5
(dp6
VtSprite
p7
VVSYoungster.png
p8
sVtClass
p9
VYoungster
p10
sVtName
p11
VJoey
p12
sVtMoney
p13
V72
p14
sVtPokeCount
p15
V2
p16
sVtLocation
p17
Vwiki/Santalune_Forest
p18
sVtRegion
p19
VKalos
p20
sVtGame
p21
VSM
p22
sVtPokes
p23
(lp24
g1
(c__main__
FinishedPokemon
p25
g3
Ntp26
Rp27
(dp28
VpDexNo
p29
V664
p30
sVpSpecies
p31
VScatterbug
p32
sVpGender
p33
VM
p34
sVpLevel
p35
V3
p36
sVpMoves
p37
(lp38
Vtackle
p39
aVstun-spore
p40
aVstring-shot
p41
aVbug-bite
p42
asVpHold
p43
V
p44
sVpAbility
p45
Vshield-dust
p46
sbag1
(g25
g3
Ntp47
Rp48
(dp49
g29
V661
p50
sg31
VFletchling
p51
sg33
g34
sg35
g36
sg37
(lp52
Vtailwind
p53
aVme-first
p54
aVflame-charge
p55
aVacrobatics
p56
asg43
g44
sg45
Vbig-pecks
p57
sbasVbossFlag
p58
I00
sVtLongGame
p59
Vsun-moon
p60
sbag1
(g2
g3
Ntp61
Rp62
(dp63
g7
VVSLass XY.png
p64
sg9
VLass
p65
sg11
VAnna
p66
sg13
V120
p67
sg15
V1
p68
sg17
g18
sg19
g20
sg21
g22
sg23
(lp69
g1
(g25
g3
Ntp70
Rp71
(dp72
g29
V025
p73
sg31
VPikachu
p74
sg33
g34
sg35
V5
p75
sg37
(lp76
Velectro-ball
p77
aVwild-charge
p78
aVplay-nice
p79
aVnuzzle
p80
asg43
g44
sg45
Vstatic
p81
sbasg58
I00
sg59
g60
sbag1
(g2
g3
Ntp82
Rp83
(dp84
g7
VVSLass XY.png
p85
sg9
VLass
p86
sg11
VLise
p87
sg13
V96
p88
sg15
g16
sg17
g18
sg19
g20
sg21
g22
sg23
(lp89
g1
(g25
g3
Ntp90
Rp91
(dp92
g29
V013
p93
sg31
VWeedle
p94
sg33
VF
p95
sg35
g16
sg37
(lp96
Vpoison-sting
p97
aVstring-shot
p98
aVbug-bite
p99
asg43
g44
sg45
Vshield-dust
p100
sbag1
(g25
g3
Ntp101
Rp102
(dp103
g29
V659
p104
sg31
VBunnelby
p105
sg33
g95
sg35
V4
p106
sg37
(lp107
Vfacade
p108
aVodor-sleuth
p109
aVbounce
p110
aVmud-shot
p111
asg43
g44
sg45
Vcheek-pouch
p112
sbasg58
I00
sg59
g60
sba.