(lp0
ccopy_reg
_reconstructor
p1
(c__main__
Trainer
p2
c__builtin__
object
p3
Ntp4
Rp5
(dp6
VtSprite
p7
VVSSailor.png
p8
sVtClass
p9
VSailor
p10
sVtName
p11
VDuncan
p12
sVtMoney
p13
V1,120
p14
sVtPokeCount
p15
V2
p16
sVtLocation
p17
Vwiki/Sea_Mauville
p18
sVtRegion
p19
VHoenn
p20
sVtGame
p21
VSM
p22
sVtPokes
p23
(lp24
g1
(c__main__
FinishedPokemon
p25
g3
Ntp26
Rp27
(dp28
VpDexNo
p29
V320
p30
sVpSpecies
p31
VWailmer
p32
sVpGender
p33
VM
p34
sVpLevel
p35
V26
p36
sVpMoves
p37
(lp38
Vbounce
p39
aVwater-pulse
p40
aVbrine
p41
aVheavy-slam
p42
asVpHold
p43
V
p44
sVpAbility
p45
Voblivious
p46
sbag1
(g25
g3
Ntp47
Rp48
(dp49
g29
V067
p50
sg31
VMachoke
p51
sg33
g34
sg35
V28
p52
sg37
(lp53
Vbulk-up
p54
aVwake-up-slap
p55
aVlow-sweep
p56
aVdual-chop
p57
asg43
g44
sg45
Vguts
p58
sbasVbossFlag
p59
I00
sVtLongGame
p60
Vsun-moon
p61
sbag1
(g2
g3
Ntp62
Rp63
(dp64
g7
VVSTuber M.png
p65
sg9
VTuber
p66
sg11
VCharlie
p67
sg13
V112
p68
sg15
V1
p69
sg17
g18
sg19
g20
sg21
VSM
p70
sg23
(lp71
g1
(g25
g3
Ntp72
Rp73
(dp74
g29
V341
p75
sg31
VCorphish
p76
sg33
g34
sg35
V28
p77
sg37
(lp78
Vknock-off
p79
aVnight-slash
p80
aVdouble-hit
p81
aVrazor-shell
p82
asg43
g44
sg45
Vhyper-cutter
p83
sbasg59
I00
sg60
g61
sbag1
(g2
g3
Ntp84
Rp85
(dp86
g7
VVSYoung Couple.png
p87
sg9
VYoung Couple
p88
sg11
VLois & Hal
p89
sg13
V1,856
p90
sg15
g16
sg17
g18
sg19
g20
sg21
VSM
p91
sg23
(lp92
g1
(g25
g3
Ntp93
Rp94
(dp95
g29
V314
p96
sg31
VIllumise
p97
sg33
VF
p98
sg35
V29
p99
sg37
(lp100
Vstruggle-bug
p101
aVplay-rough
p102
aVplay-nice
p103
aVinfestation
p104
asg43
g44
sg45
Voblivious
p105
sbag1
(g25
g3
Ntp106
Rp107
(dp108
g29
V313
p109
sg31
VVolbeat
p110
sg33
g34
sg35
V29
p111
sg37
(lp112
Vzen-headbutt
p113
aVstruggle-bug
p114
aVplay-rough
p115
aVinfestation
p116
asg43
g44
sg45
Vswarm
p117
sbasg59
I00
sg60
g61
sbag1
(g2
g3
Ntp118
Rp119
(dp120
g7
VVSMysterious Sisters.png
p121
sg9
VMysterious Sisters
p122
sg11
VScall & Ion
p123
sg13
V1,232<br><small>Requires [[Key to Room 1]]</small>
p124
sg15
g16
sg17
g18
sg19
g20
sg21
g70
sg23
(lp125
g1
(g25
g3
Ntp126
Rp127
(dp128
g29
V433
p129
sg31
VChingling
p130
sg33
g98
sg35
V29
p131
sg37
(lp132
Vyawn
p133
aVastonish
p134
aVlast-resort
p135
aVentrainment
p136
asg43
g44
sg45
Vlevitate
p137
sbag1
(g25
g3
Ntp138
Rp139
(dp140
g29
V281
p141
sg31
VKirlia
p142
sg33
g98
sg35
V28
p143
sg37
(lp144
Vstored-power
p145
aVheal-pulse
p146
aVdisarming-voice
p147
aVdraining-kiss
p148
asg43
g44
sg45
Vtrace
p149
sbasg59
I00
sg60
g61
sbag1
(g2
g3
Ntp150
Rp151
(dp152
g7
VVSYoung Couple.png
p153
sg9
VYoung Couple
p154
sg11
VLois & Hal
p155
sg13
V2,176<br><small>After earning the {{badge|Feather}}</small>
p156
sg15
g16
sg17
g18
sg19
g20
sg21
g91
sg23
(lp157
g1
(g25
g3
Ntp158
Rp159
(dp160
g29
V314
p161
sg31
VIllumise
p162
sg33
g98
sg35
V34
p163
sg37
(lp164
Vstruggle-bug
p165
aVplay-rough
p166
aVplay-nice
p167
aVinfestation
p168
asg43
g44
sg45
Voblivious
p169
sbag1
(g25
g3
Ntp170
Rp171
(dp172
g29
V313
p173
sg31
VVolbeat
p174
sg33
g34
sg35
V34
p175
sg37
(lp176
Vzen-headbutt
p177
aVstruggle-bug
p178
aVplay-rough
p179
aVinfestation
p180
asg43
g44
sg45
Villuminate
p181
sbasg59
I00
sg60
g61
sbag1
(g2
g3
Ntp182
Rp183
(dp184
g7
VVSYoung Couple.png
p185
sg9
VYoung Couple
p186
sg11
VLois & Hal
p187
sg13
V2,624<br><small>After earning the {{badge|Mind}}</small>
p188
sg15
g16
sg17
g18
sg19
g20
sg21
g91
sg23
(lp189
g1
(g25
g3
Ntp190
Rp191
(dp192
g29
V314
p193
sg31
VIllumise
p194
sg33
g98
sg35
V41
p195
sg37
(lp196
Vstruggle-bug
p197
aVplay-rough
p198
aVplay-nice
p199
aVinfestation
p200
asg43
g44
sg45
Vtinted-lens
p201
sbag1
(g25
g3
Ntp202
Rp203
(dp204
g29
V313
p205
sg31
VVolbeat
p206
sg33
g34
sg35
V41
p207
sg37
(lp208
Vzen-headbutt
p209
aVstruggle-bug
p210
aVplay-rough
p211
aVinfestation
p212
asg43
g44
sg45
Vswarm
p213
sbasg59
I00
sg60
g61
sbag1
(g2
g3
Ntp214
Rp215
(dp216
g7
VVSYoung Couple.png
p217
sg9
VYoung Couple
p218
sg11
VLois & Hal
p219
sg13
V2,880<br><small>After earning the {{badge|Rain}}</small>
p220
sg15
g16
sg17
g18
sg19
g20
sg21
g91
sg23
(lp221
g1
(g25
g3
Ntp222
Rp223
(dp224
g29
V314
p225
sg31
VIllumise
p226
sg33
g98
sg35
V45
p227
sg37
(lp228
Vstruggle-bug
p229
aVplay-rough
p230
aVplay-nice
p231
aVinfestation
p232
asg43
g44
sg45
Vtinted-lens
p233
sbag1
(g25
g3
Ntp234
Rp235
(dp236
g29
V313
p237
sg31
VVolbeat
p238
sg33
g34
sg35
V45
p239
sg37
(lp240
Vzen-headbutt
p241
aVstruggle-bug
p242
aVplay-rough
p243
aVinfestation
p244
asg43
g44
sg45
Vswarm
p245
sbasg59
I00
sg60
g61
sbag1
(g2
g3
Ntp246
Rp247
(dp248
g7
VVSYoung Couple.png
p249
sg9
VYoung Couple
p250
sg11
VLois & Hal
p251
sg13
V3,264<br><small>After entering the [[Hall of Fame]]</small>
p252
sg15
g16
sg17
g18
sg19
g20
sg21
g91
sg23
(lp253
g1
(g25
g3
Ntp254
Rp255
(dp256
g29
V314
p257
sg31
VIllumise
p258
sg33
g98
sg35
V51
p259
sg37
(lp260
Vstruggle-bug
p261
aVplay-rough
p262
aVplay-nice
p263
aVinfestation
p264
asg43
g44
sg45
Voblivious
p265
sbag1
(g25
g3
Ntp266
Rp267
(dp268
g29
V313
p269
sg31
VVolbeat
p270
sg33
g34
sg35
V51
p271
sg37
(lp272
Vzen-headbutt
p273
aVstruggle-bug
p274
aVplay-rough
p275
aVinfestation
p276
asg43
g44
sg45
Villuminate
p277
sbasg59
I00
sg60
g61
sbag1
(g2
g3
Ntp278
Rp279
(dp280
g7
VVSMysterious Sisters.png
p281
sg9
VMysterious Sisters
p282
sg11
VScall & Ion
p283
sg13
V1,760<br><small>After earning the {{badge|Mind}}</small>
p284
sg15
g16
sg17
g18
sg19
g20
sg21
g70
sg23
(lp285
g1
(g25
g3
Ntp286
Rp287
(dp288
g29
V358
p289
sg31
VChimecho
p290
sg33
g98
sg35
V41
p291
sg37
(lp292
Vhealing-wish
p293
aVsynchronoise
p294
ag294
aVheal-pulse
p295
asg43
g44
sg45
Vlevitate
p296
sbag1
(g25
g3
Ntp297
Rp298
(dp299
g29
V282
p300
sg31
VGardevoir
p301
sg33
g98
sg35
V40
p302
sg37
(lp303
Vdraining-kiss
p304
aVmisty-terrain
p305
aVmoonblast
p306
ag306
asg43
g44
sg45
Vsynchronize
p307
sbasg59
I00
sg60
g61
sbag1
(g2
g3
Ntp308
Rp309
(dp310
g7
VVSMysterious Sisters.png
p311
sg9
VMysterious Sisters
p312
sg11
VScall & Ion
p313
sg13
V1,936<br><small>After earning the {{badge|Rain}}</small>
p314
sg15
g16
sg17
g18
sg19
g20
sg21
g70
sg23
(lp315
g1
(g25
g3
Ntp316
Rp317
(dp318
g29
V358
p319
sg31
VChimecho
p320
sg33
g98
sg35
V45
p321
sg37
(lp322
Vhealing-wish
p323
aVsynchronoise
p324
ag324
aVheal-pulse
p325
asg43
g44
sg45
Vlevitate
p326
sbag1
(g25
g3
Ntp327
Rp328
(dp329
g29
V282
p330
sg31
VGardevoir
p331
sg33
g98
sg35
V45
p332
sg37
(lp333
Vdraining-kiss
p334
aVmisty-terrain
p335
aVmoonblast
p336
ag336
asg43
g44
sg45
Vsynchronize
p337
sbasg59
I00
sg60
g61
sbag1
(g2
g3
Ntp338
Rp339
(dp340
g7
VVSMysterious Sisters.png
p341
sg9
VMysterious Sisters
p342
sg11
VScall & Ion
p343
sg13
V2,200<br><small>After entering the [[Hall of Fame]]</small>
p344
sg15
g16
sg17
g18
sg19
g20
sg21
g70
sg23
(lp345
g1
(g25
g3
Ntp346
Rp347
(dp348
g29
V358
p349
sg31
VChimecho
p350
sg33
g98
sg35
V51
p351
sg37
(lp352
Vhealing-wish
p353
aVsynchronoise
p354
ag354
aVheal-pulse
p355
asg43
g44
sg45
Vlevitate
p356
sbag1
(g25
g3
Ntp357
Rp358
(dp359
g29
V282
p360
sg31
VGardevoir
p361
sg33
g98
sg35
V50
p362
sg37
(lp363
Vdraining-kiss
p364
aVmisty-terrain
p365
aVmoonblast
p366
ag366
asg43
g44
sg45
Vsynchronize
p367
sbasg59
I00
sg60
g61
sba.