(lp0
ccopy_reg
_reconstructor
p1
(c__main__
Trainer
p2
c__builtin__
object
p3
Ntp4
Rp5
(dp6
VtSprite
p7
VSpr RS Team Magma Grunt M.png
p8
sVtClass
p9
VTeam Magma Grunt
p10
sVtName
p11
V
p12
sVtMoney
p13
V740
p14
sVtPokeCount
p15
V2
p16
sVtLocation
p17
Vwiki/Seafloor_Cavern
p18
sVtRegion
p19
VHoenn
p20
sVtGame
p21
VRS
p22
sVtPokes
p23
(lp24
g1
(c__main__
FinishedPokemon
p25
g3
Ntp26
Rp27
(dp28
VpDexNo
p29
V261
p30
sVpSpecies
p31
VPoochyena
p32
sVpGender
p33
VM
p34
sVpLevel
p35
V37
p36
sVpMoves
p37
(lp38
Vcrunch
p39
aVtaunt
p40
aVodor-sleuth
p41
aVhowl
p42
asVpHold
p43
g12
sVpAbility
p44
Vrun-away
p45
sbag1
(g25
g3
Ntp46
Rp47
(dp48
g29
V322
p49
sg31
VNumel
p50
sg33
g34
sg35
V37
p51
sg37
(lp52
Vearthquake
p53
aVfocus-energy
p54
aVamnesia
p55
aVmagnitude
p56
asg43
g12
sg44
Voblivious
p57
sbasVbossFlag
p58
I00
sVtLongGame
p59
Vruby-sapphire
p60
sbag1
(g2
g3
Ntp61
Rp62
(dp63
g7
VSpr RS Team Magma Grunt M.png
p64
sg9
VTeam Magma Grunt
p65
sg11
g12
sg13
V760
p66
sg15
V1
p67
sg17
g18
sg19
g20
sg21
g22
sg23
(lp68
g1
(g25
g3
Ntp69
Rp70
(dp71
g29
V322
p72
sg31
VNumel
p73
sg33
g34
sg35
V38
p74
sg37
(lp75
Vearthquake
p76
aVfocus-energy
p77
aVamnesia
p78
aVmagnitude
p79
asg43
g12
sg44
Vsimple
p80
sbasg58
I00
sg59
g60
sbag1
(g2
g3
Ntp81
Rp82
(dp83
g7
VSpr RS Team Magma Grunt M.png
p84
sg9
VTeam Magma Grunt
p85
sg11
g12
sg13
V720
p86
sg15
V3
p87
sg17
g18
sg19
g20
sg21
g22
sg23
(lp88
g1
(g25
g3
Ntp89
Rp90
(dp91
g29
V261
p92
sg31
VPoochyena
p93
sg33
g34
sg35
V36
p94
sg37
(lp95
Vcrunch
p96
aVtaunt
p97
aVodor-sleuth
p98
aVhowl
p99
asg43
g12
sg44
Vrun-away
p100
sbag1
(g25
g3
Ntp101
Rp102
(dp103
g29
V041
p104
sg31
VZubat
p105
sg33
g34
sg35
V36
p106
sg37
(lp107
Vmean-look
p108
aVpoison-fang
p109
aVastonish
p110
aVair-cutter
p111
asg43
g12
sg44
Vinner-focus
p112
sbag1
(g25
g3
Ntp113
Rp114
(dp115
g29
V322
p116
sg31
VNumel
p117
sg33
g34
sg35
V36
p118
sg37
(lp119
Vearthquake
p120
aVfocus-energy
p121
aVamnesia
p122
aVmagnitude
p123
asg43
g12
sg44
Vsimple
p124
sbasg58
I00
sg59
g60
sbag1
(g2
g3
Ntp125
Rp126
(dp127
g7
VSpr RS Team Aqua Grunt M.png
p128
sg9
VTeam Aqua Grunt
p129
sg11
g12
sg13
V740
p130
sg15
g16
sg17
g18
sg19
g20
sg21
g22
sg23
(lp131
g1
(g25
g3
Ntp132
Rp133
(dp134
g29
V261
p135
sg31
VPoochyena
p136
sg33
g34
sg35
V37
p137
sg37
(lp138
Vcrunch
p139
aVtaunt
p140
aVodor-sleuth
p141
aVhowl
p142
asg43
g12
sg44
Vrun-away
p143
sbag1
(g25
g3
Ntp144
Rp145
(dp146
g29
V318
p147
sg31
VCarvanha
p148
sg33
g34
sg35
V37
p149
sg37
(lp150
Vfocus-energy
p151
aVscary-face
p152
aVswagger
p153
aVcrunch
p154
asg43
g12
sg44
Vrough-skin
p155
sbasg58
I00
sg59
g60
sbag1
(g2
g3
Ntp156
Rp157
(dp158
g7
VSpr RS Team Aqua Grunt M.png
p159
sg9
VTeam Aqua Grunt
p160
sg11
g12
sg13
V760
p161
sg15
g67
sg17
g18
sg19
g20
sg21
g22
sg23
(lp162
g1
(g25
g3
Ntp163
Rp164
(dp165
g29
V318
p166
sg31
VCarvanha
p167
sg33
g34
sg35
V38
p168
sg37
(lp169
Vfocus-energy
p170
aVscary-face
p171
aVswagger
p172
aVcrunch
p173
asg43
g12
sg44
Vrough-skin
p174
sbasg58
I00
sg59
g60
sbag1
(g2
g3
Ntp175
Rp176
(dp177
g7
VSpr RS Team Aqua Grunt M.png
p178
sg9
VTeam Aqua Grunt
p179
sg11
g12
sg13
V720
p180
sg15
g87
sg17
g18
sg19
g20
sg21
g22
sg23
(lp181
g1
(g25
g3
Ntp182
Rp183
(dp184
g29
V261
p185
sg31
VPoochyena
p186
sg33
g34
sg35
V36
p187
sg37
(lp188
Vcrunch
p189
aVtaunt
p190
aVodor-sleuth
p191
aVhowl
p192
asg43
g12
sg44
Vquick-feet
p193
sbag1
(g25
g3
Ntp194
Rp195
(dp196
g29
V041
p197
sg31
VZubat
p198
sg33
g34
sg35
V36
p199
sg37
(lp200
Vmean-look
p201
aVpoison-fang
p202
aVastonish
p203
aVair-cutter
p204
asg43
g12
sg44
Vinner-focus
p205
sbag1
(g25
g3
Ntp206
Rp207
(dp208
g29
V318
p209
sg31
VCarvanha
p210
sg33
g34
sg35
V36
p211
sg37
(lp212
Vfocus-energy
p213
aVscary-face
p214
aVswagger
p215
aVcrunch
p216
asg43
g12
sg44
Vrough-skin
p217
sbasg58
I00
sg59
g60
sbag1
(g2
g3
Ntp218
Rp219
(dp220
g7
VSpr RS Team Aqua Grunt M.png
p221
sg9
VTeam Aqua Grunt
p222
sg11
g12
sg13
V720
p223
sg15
g67
sg17
g18
sg19
g20
sg21
g22
sg23
(lp224
g1
(g25
g3
Ntp225
Rp226
(dp227
g29
V261
p228
sg31
VPoochyena
p229
sg33
g34
sg35
V36
p230
sg37
(lp231
Vcrunch
p232
aVtaunt
p233
aVodor-sleuth
p234
aVhowl
p235
asg43
g12
sg44
Vquick-feet
p236
sbasg58
I00
sg59
g60
sbag1
(g2
g3
Ntp237
Rp238
(dp239
g7
VSpr RS Team Aqua Grunt M.png
p240
sg9
VTeam Aqua Grunt
p241
sg11
g12
sg13
V720
p242
sg15
g67
sg17
g18
sg19
g20
sg21
g22
sg23
(lp243
g1
(g25
g3
Ntp244
Rp245
(dp246
g29
V318
p247
sg31
VCarvanha
p248
sg33
g34
sg35
V36
p249
sg37
(lp250
Vfocus-energy
p251
aVscary-face
p252
aVswagger
p253
aVcrunch
p254
asg43
g12
sg44
Vrough-skin
p255
sbasg58
I00
sg59
g60
sbag1
(g2
g3
Ntp256
Rp257
(dp258
g7
VSpr RS Team Aqua Grunt M.png
p259
sg9
VTeam Aqua Grunt
p260
sg11
g12
sg13
V720<br/><small>Potential [[Double Battle]] with the following Grunt</small>
p261
sg15
g67
sg17
g18
sg19
g20
sg21
g22
sg23
(lp262
g1
(g25
g3
Ntp263
Rp264
(dp265
g29
V041
p266
sg31
VZubat
p267
sg33
g34
sg35
V36
p268
sg37
(lp269
Vmean-look
p270
aVpoison-fang
p271
aVastonish
p272
aVair-cutter
p273
asg43
g12
sg44
Vinner-focus
p274
sbasg58
I00
sg59
g60
sbag1
(g2
g3
Ntp275
Rp276
(dp277
g7
VSpr RS Team Aqua Grunt F.png
p278
sg9
VTeam Aqua Grunt
p279
sg11
g12
sg13
V720<br/><small>Potential [[Double Battle]] with the previous Grunt</small>
p280
sg15
g67
sg17
g18
sg19
g20
sg21
g22
sg23
(lp281
g1
(g25
g3
Ntp282
Rp283
(dp284
g29
V318
p285
sg31
VCarvanha
p286
sg33
VF
p287
sg35
V36
p288
sg37
(lp289
Vfocus-energy
p290
aVscary-face
p291
aVswagger
p292
aVcrunch
p293
asg43
g12
sg44
Vrough-skin
p294
sbasg58
I00
sg59
g60
sbag1
(g2
g3
Ntp295
Rp296
(dp297
g7
VSpr RS Team Aqua Grunt M.png
p298
sg9
VTeam Aqua Grunt
p299
sg11
g12
sg13
V700<br/><small>Potential [[Double Battle]] with Shelly</small>
p300
sg15
g16
sg17
g18
sg19
g20
sg21
g22
sg23
(lp301
g1
(g25
g3
Ntp302
Rp303
(dp304
g29
V262
p305
sg31
VMightyena
p306
sg33
g34
sg35
V35
p307
sg37
(lp308
Vtaunt
p309
aVodor-sleuth
p310
aVhowl
p311
ag311
asg43
g12
sg44
Vintimidate
p312
sbag1
(g25
g3
Ntp313
Rp314
(dp315
g29
V042
p316
sg31
VGolbat
p317
sg33
g34
sg35
V35
p318
sg37
(lp319
Vpoison-fang
p320
aVastonish
p321
ag321
aVair-cutter
p322
asg43
g12
sg44
Vinner-focus
p323
sbasg58
I00
sg59
g60
sbag1
(g2
g3
Ntp324
Rp325
(dp326
g7
VVSTeam Magma Grunt M.png
p327
sg9
VTeam Magma Grunt
p328
sg11
g12
sg13
V1,560
p329
sg15
g16
sg17
g18
sg19
g20
sg21
VSM
p330
sg23
(lp331
g1
(g25
g3
Ntp332
Rp333
(dp334
g29
V322
p335
sg31
VNumel
p336
sg33
g34
sg35
V39
p337
sg37
(lp338
Vyawn
p339
aVearth-power
p340
aVlava-plume
p341
aVflame-burst
p342
asg43
g12
sg44
Vsimple
p343
sbag1
(g25
g3
Ntp344
Rp345
(dp346
g29
V262
p347
sg31
VMightyena
p348
sg33
g34
sg35
V39
p349
sg37
(lp350
Vice-fang
p351
aVfire-fang
p352
aVsnarl
p353
aVplay-rough
p354
asg43
g12
sg44
Vintimidate
p355
sbasg58
I00
sg59
Vsun-moon
p356
sbag1
(g2
g3
Ntp357
Rp358
(dp359
g7
VVSTeam Magma Grunt M.png
p360
sg9
VTeam Magma Grunt
p361
sg11
g12
sg13
V1,640
p362
sg15
g67
sg17
g18
sg19
g20
sg21
g330
sg23
(lp363
g1
(g25
g3
Ntp364
Rp365
(dp366
g29
V042
p367
sg31
VGolbat
p368
sg33
g34
sg35
V41
p369
sg37
(lp370
Vair-cutter
p371
aVair-slash
p372
aVvenoshock
p373
aVquick-guard
p374
asg43
g12
sg44
Vinner-focus
p375
sbasg58
I00
sg59
g356
sbag1
(g2
g3
Ntp376
Rp377
(dp378
g7
VVSTeam Magma Grunt F.png
p379
sg9
VTeam Magma Grunt
p380
sg11
g12
sg13
V1,640
p381
sg15
g67
sg17
g18
sg19
g20
sg21
VSM
p382
sg23
(lp383
g1
(g25
g3
Ntp384
Rp385
(dp386
g29
V322
p387
sg31
VNumel
p388
sg33
g287
sg35
V41
p389
sg37
(lp390
Vyawn
p391
aVearth-power
p392
aVlava-plume
p393
aVflame-burst
p394
asg43
g12
sg44
Vsimple
p395
sbasg58
I00
sg59
g356
sbag1
(g2
g3
Ntp396
Rp397
(dp398
g7
VVSTeam Magma Grunt F.png
p399
sg9
VTeam Magma Grunt
p400
sg11
g12
sg13
V1,640
p401
sg15
g67
sg17
g18
sg19
g20
sg21
g382
sg23
(lp402
g1
(g25
g3
Ntp403
Rp404
(dp405
g29
V110
p406
sg31
VWeezing
p407
sg33
g287
sg35
V41
p408
sg37
(lp409
Vassurance
p410
aVdouble-hit
p411
aVclear-smog
p412
aVbelch
p413
asg43
g12
sg44
Vlevitate
p414
sbasg58
I00
sg59
g356
sbag1
(g2
g3
Ntp415
Rp416
(dp417
g7
VVSTeam Magma Grunt M.png
p418
sg9
VTeam Magma Grunt
p419
sg11
g12
sg13
V1,600
p420
sg15
g16
sg17
g18
sg19
g20
sg21
g330
sg23
(lp421
g1
(g25
g3
Ntp422
Rp423
(dp424
g29
V262
p425
sg31
VMightyena
p426
sg33
g34
sg35
V38
p427
sg37
(lp428
Vice-fang
p429
aVfire-fang
p430
aVsnarl
p431
aVplay-rough
p432
asg43
g12
sg44
Vintimidate
p433
sbag1
(g25
g3
Ntp434
Rp435
(dp436
g29
V110
p437
sg31
VWeezing
p438
sg33
g34
sg35
V40
p439
sg37
(lp440
Vassurance
p441
aVdouble-hit
p442
aVclear-smog
p443
aVbelch
p444
asg43
g12
sg44
Vlevitate
p445
sbasg58
I00
sg59
g356
sbag1
(g2
g3
Ntp446
Rp447
(dp448
g7
VVSTeam Aqua Grunt M.png
p449
sg9
VTeam Aqua Grunt
p450
sg11
g12
sg13
V1,560
p451
sg15
g16
sg17
g18
sg19
g20
sg21
VSM
p452
sg23
(lp453
g1
(g25
g3
Ntp454
Rp455
(dp456
g29
V318
p457
sg31
VCarvanha
p458
sg33
g34
sg35
V39
p459
sg37
(lp460
Vpoison-fang
p461
aVassurance
p462
aVice-fang
p463
aVaqua-jet
p464
asg43
g12
sg44
Vrough-skin
p465
sbag1
(g25
g3
Ntp466
Rp467
(dp468
g29
V262
p469
sg31
VMightyena
p470
sg33
g34
sg35
V39
p471
sg37
(lp472
Vice-fang
p473
aVfire-fang
p474
aVsnarl
p475
aVplay-rough
p476
asg43
g12
sg44
Vintimidate
p477
sbasg58
I00
sg59
g356
sbag1
(g2
g3
Ntp478
Rp479
(dp480
g7
VVSTeam Aqua Grunt M.png
p481
sg9
VTeam Aqua Grunt
p482
sg11
g12
sg13
V1,640
p483
sg15
g67
sg17
g18
sg19
g20
sg21
g452
sg23
(lp484
g1
(g25
g3
Ntp485
Rp486
(dp487
g29
V042
p488
sg31
VGolbat
p489
sg33
g34
sg35
V41
p490
sg37
(lp491
Vair-cutter
p492
aVair-slash
p493
aVvenoshock
p494
aVquick-guard
p495
asg43
g12
sg44
Vinner-focus
p496
sbasg58
I00
sg59
g356
sbag1
(g2
g3
Ntp497
Rp498
(dp499
g7
VVSTeam Aqua Grunt F.png
p500
sg9
VTeam Aqua Grunt
p501
sg11
g12
sg13
V1,640
p502
sg15
g67
sg17
g18
sg19
g20
sg21
VSM
p503
sg23
(lp504
g1
(g25
g3
Ntp505
Rp506
(dp507
g29
V318
p508
sg31
VCarvanha
p509
sg33
g287
sg35
V41
p510
sg37
(lp511
Vpoison-fang
p512
aVassurance
p513
aVice-fang
p514
aVaqua-jet
p515
asg43
g12
sg44
Vrough-skin
p516
sbasg58
I00
sg59
g356
sbag1
(g2
g3
Ntp517
Rp518
(dp519
g7
VVSTeam Aqua Grunt F.png
p520
sg9
VTeam Aqua Grunt
p521
sg11
g12
sg13
V1,640
p522
sg15
g67
sg17
g18
sg19
g20
sg21
g503
sg23
(lp523
g1
(g25
g3
Ntp524
Rp525
(dp526
g29
V089
p527
sg31
VMuk
p528
sg33
g287
sg35
V41
p529
sg37
(lp530
Vgunk-shot
p531
aVsludge-wave
p532
aVbelch
p533
aVvenom-drench
p534
asg43
g12
sg44
Vstench
p535
sbasg58
I00
sg59
g356
sbag1
(g2
g3
Ntp536
Rp537
(dp538
g7
VVSTeam Aqua Grunt M.png
p539
sg9
VTeam Aqua Grunt
p540
sg11
g12
sg13
V1,600
p541
sg15
g16
sg17
g18
sg19
g20
sg21
g452
sg23
(lp542
g1
(g25
g3
Ntp543
Rp544
(dp545
g29
V262
p546
sg31
VMightyena
p547
sg33
g34
sg35
V38
p548
sg37
(lp549
Vice-fang
p550
aVfire-fang
p551
aVsnarl
p552
aVplay-rough
p553
asg43
g12
sg44
Vintimidate
p554
sbag1
(g25
g3
Ntp555
Rp556
(dp557
g29
V089
p558
sg31
VMuk
p559
sg33
g34
sg35
V40
p560
sg37
(lp561
Vgunk-shot
p562
aVsludge-wave
p563
aVbelch
p564
aVvenom-drench
p565
asg43
g12
sg44
Vstench
p566
sbasg58
I00
sg59
g356
sbag1
(g2
g3
Ntp567
Rp568
(dp569
g7
VSpr RS Courtney.png
p570
sg9
VMagma Admin
p571
sg11
VCourtney
p572
sg13
V1520
p573
sg15
I2
sg17
g18
sg19
g20
sg21
g22
sg23
(lp574
g1
(g25
g3
Ntp575
Rp576
(dp577
g29
I323
sg31
VCamerupt
p578
sg33
g287
sg35
V38
p579
sg37
(lp580
VEarthquake
p581
aVRock Slide
p582
aVAmnesia
p583
aVTake Down
p584
asg43
g12
sg44
VMagma Armor
p585
sbag1
(g25
g3
Ntp586
Rp587
(dp588
g29
I262
sg31
VMightyena
p589
sg33
g287
sg35
V38
p590
sg37
(lp591
VTake Down
p592
aVScary Face
p593
aVRoar
p594
aVSwagger
p595
asg43
g12
sg44
VIntimidate
p596
sbasg58
I01
sg59
g60
sbag1
(g2
g3
Ntp597
Rp598
(dp599
g7
VSpr RS Maxie.png
p600
sg9
VMagma Leader
p601
sg11
VMaxie
p602
sg13
V3440
p603
sg15
I3
sg17
g18
sg19
g20
sg21
g22
sg23
(lp604
g1
(g25
g3
Ntp605
Rp606
(dp607
g29
I262
sg31
VMightyena
p608
sg33
g34
sg35
V41
p609
sg37
(lp610
VRoar
p611
aVSwagger
p612
aVScary Face
p613
aVTake Down
p614
asg43
g12
sg44
VIntimidate
p615
sbag1
(g25
g3
Ntp616
Rp617
(dp618
g29
I169
sg31
VCrobat
p619
sg33
g34
sg35
V41
p620
sg37
(lp621
VBite
p622
aVWing Attack
p623
aVConfuse Ray
p624
aVAir Cutter
p625
asg43
g12
sg44
VInner Focus
p626
sbag1
(g25
g3
Ntp627
Rp628
(dp629
g29
I323
sg31
VCamerupt
p630
sg33
g34
sg35
V43
p631
sg37
(lp632
VTake Down
p633
aVAmnesia
p634
aVRock Slide
p635
aVEarthquake
p636
asg43
g12
sg44
VMagma Armor
p637
sbasg58
I01
sg59
g60
sbag1
(g2
g3
Ntp638
Rp639
(dp640
g7
VSpr RS Shelly.png
p641
sg9
VAqua Admin
p642
sg11
VShelly
p643
sg13
V1520
p644
sg15
I2
sg17
g18
sg19
g20
sg21
g22
sg23
(lp645
g1
(g25
g3
Ntp646
Rp647
(dp648
g29
I319
sg31
VSharpedo
p649
sg33
g287
sg35
V38
p650
sg37
(lp651
VCrunch
p652
aVScreech
p653
aVSlash
p654
aVTaunt
p655
asg43
g12
sg44
VRough Skin
p656
sbag1
(g25
g3
Ntp657
Rp658
(dp659
g29
I262
sg31
VMightyena
p660
sg33
g287
sg35
V38
p661
sg37
(lp662
VTake Down
p663
aVScary Face
p664
aVSwagger
p665
aVRoar
p666
asg43
g12
sg44
VIntimidate
p667
sbasg58
I01
sg59
g60
sbag1
(g2
g3
Ntp668
Rp669
(dp670
g7
VSpr RS Archie.png
p671
sg9
VAqua Leader
p672
sg11
VArchie
p673
sg13
V6880
p674
sg15
I3
sg17
g18
sg19
g20
sg21
g22
sg23
(lp675
g1
(g25
g3
Ntp676
Rp677
(dp678
g29
I262
sg31
VMightyena
p679
sg33
g34
sg35
V41
p680
sg37
(lp681
VRoar
p682
aVSwagger
p683
aVScary Face
p684
aVTake Down
p685
asg43
g12
sg44
VIntimidate
p686
sbag1
(g25
g3
Ntp687
Rp688
(dp689
g29
I169
sg31
VCrobat
p690
sg33
g34
sg35
V41
p691
sg37
(lp692
VBite
p693
aVWing Attack
p694
aVConfuse Ray
p695
aVAir Cutter
p696
asg43
g12
sg44
VInner Focus
p697
sbag1
(g25
g3
Ntp698
Rp699
(dp700
g29
I319
sg31
VSharpedo
p701
sg33
g34
sg35
V43
p702
sg37
(lp703
VScreech
p704
aVSlash
p705
aVTaunt
p706
aVSwagger
p707
asg43
g12
sg44
VRough Skin
p708
sbasg58
I01
sg59
g60
sbag1
(g2
g3
Ntp709
Rp710
(dp711
g7
VSpr RS Shelly.png
p712
sg9
VAqua Admin
p713
sg11
VShelly
p714
sg13
V1480
p715
sg15
I2
sg17
g18
sg19
g20
sg21
g22
sg23
(lp716
g1
(g25
g3
Ntp717
Rp718
(dp719
g29
I319
sg31
VSharpedo
p720
sg33
g287
sg35
V37
p721
sg37
(lp722
VScary Face
p723
aVCrunch
p724
aVScreech
p725
aVSlash
p726
asg43
g12
sg44
VRough Skin
p727
sbag1
(g25
g3
Ntp728
Rp729
(dp730
g29
I262
sg31
VMightyena
p731
sg33
g287
sg35
V37
p732
sg37
(lp733
VRoar
p734
aVSwagger
p735
aVScary Face
p736
aVTake Down
p737
asg43
g12
sg44
VIntimidate
p738
sbasg58
I01
sg59
g60
sbag1
(g2
g3
Ntp739
Rp740
(dp741
g7
VSpr RS Archie.png
p742
sg9
VAqua Leader
p743
sg11
VArchie
p744
sg13
V3440
p745
sg15
I3
sg17
g18
sg19
g20
sg21
g22
sg23
(lp746
g1
(g25
g3
Ntp747
Rp748
(dp749
g29
I262
sg31
VMightyena
p750
sg33
g34
sg35
V41
p751
sg37
(lp752
VRoar
p753
aVSwagger
p754
aVScary Face
p755
aVTake Down
p756
asg43
g12
sg44
VIntimidate
p757
sbag1
(g25
g3
Ntp758
Rp759
(dp760
g29
I169
sg31
VCrobat
p761
sg33
g34
sg35
V41
p762
sg37
(lp763
VBite
p764
aVWing Attack
p765
aVConfuse Ray
p766
aVAir Cutter
p767
asg43
g12
sg44
VInner Focus
p768
sbag1
(g25
g3
Ntp769
Rp770
(dp771
g29
I319
sg31
VSharpedo
p772
sg33
g34
sg35
V43
p773
sg37
(lp774
VScreech
p775
aVSlash
p776
aVTaunt
p777
aVSwagger
p778
asg43
g12
sg44
VRough Skin
p779
sbasg58
I01
sg59
g60
sbag1
(g2
g3
Ntp780
Rp781
(dp782
g7
VVSMaxie.png
p783
sg9
VMagma Leader
p784
sg11
VMaxie
p785
sg13
V6,880
p786
sg15
I4
sg17
g18
sg19
g20
sg21
VSM
p787
sg23
(lp788
g1
(g25
g3
Ntp789
Rp790
(dp791
g29
I262
sg31
VMightyena
p792
sg33
g34
sg35
V41
p793
sg37
(lp794
VScary Face
p795
aVTake Down
p796
aVTaunt
p797
aVEmbargo
p798
asg43
g12
sg44
VQuick Feet
p799
sbag1
(g25
g3
Ntp800
Rp801
(dp802
g29
I110
sg31
VWeezing
p803
sg33
g34
sg35
V41
p804
sg37
(lp805
VHaze
p806
aVDouble Hit
p807
aVSludge Bomb
p808
aVExplosion
p809
asg43
g12
sg44
VLevitate
p810
sbag1
(g25
g3
Ntp811
Rp812
(dp813
g29
I169
sg31
VCrobat
p814
sg33
g34
sg35
V41
p815
sg37
(lp816
VPoison Fang
p817
aVMean Look
p818
aVAcrobatics
p819
aVHaze
p820
asg43
g12
sg44
VInner Focus
p821
sbag1
(g25
g3
Ntp822
Rp823
(dp824
g29
I323
sg31
VCamerupt
p825
sg33
g34
sg35
V43
p826
sg37
(lp827
VCurse
p828
aVTake Down
p829
aVRock Slide
p830
aVYawn
p831
asg43
VCameruptite
p832
sg44
VMagma Armor
p833
sbasg58
I01
sg59
g356
sbag1
(g2
g3
Ntp834
Rp835
(dp836
g7
VVSArchie.png
p837
sg9
VAqua Leader
p838
sg11
VArchie
p839
sg13
V6,880
p840
sg15
I4
sg17
g18
sg19
g20
sg21
g787
sg23
(lp841
g1
(g25
g3
Ntp842
Rp843
(dp844
g29
I262
sg31
VMightyena
p845
sg33
g34
sg35
V41
p846
sg37
(lp847
VScary Face
p848
aVEmbargo
p849
aVTaunt
p850
aVTake Down
p851
asg43
g12
sg44
VQuick Feet
p852
sbag1
(g25
g3
Ntp853
Rp854
(dp855
g29
I89
sg31
VMuk
p856
sg33
g34
sg35
V41
p857
sg37
(lp858
VSludge Wave
p859
aVScreech
p860
aVVenom Drench
p861
aVGunk Shot
p862
asg43
g12
sg44
VStench
p863
sbag1
(g25
g3
Ntp864
Rp865
(dp866
g29
I169
sg31
VCrobat
p867
sg33
g34
sg35
V41
p868
sg37
(lp869
VPoison Fang
p870
aVMean Look
p871
aVAcrobatics
p872
aVHaze
p873
asg43
g12
sg44
VInner Focus
p874
sbag1
(g25
g3
Ntp875
Rp876
(dp877
g29
I319
sg31
VSharpedo
p878
sg33
g34
sg35
V43
p879
sg37
(lp880
VScary Face
p881
aVSlash
p882
aVPoison Fang
p883
aVCrunch
p884
asg43
VSharpedonite
p885
sg44
VRough Skin
p886
sbasg58
I01
sg59
g356
sba.