(lp0
ccopy_reg
_reconstructor
p1
(c__main__
Trainer
p2
c__builtin__
object
p3
Ntp4
Rp5
(dp6
VtSprite
p7
VVSSightseer M SM.png
p8
sVtClass
p9
VSightseer
p10
sVtName
p11
VMarcus
p12
sVtMoney
p13
V3,300
p14
sVtPokeCount
p15
V1
p16
sVtLocation
p17
Vwiki/Seafolk_Village
p18
sVtRegion
p19
VAlola
p20
sVtGame
p21
VSM
p22
sVtPokes
p23
(lp24
g1
(c__main__
FinishedPokemon
p25
g3
Ntp26
Rp27
(dp28
VpDexNo
p29
V102
p30
sVpSpecies
p31
VExeggcute
p32
sVpGender
p33
VM
p34
sVpLevel
p35
V55{{shinystar|VII}}
p36
sVpMoves
p37
(lp38
Vbullet-seed
p39
aVnatural-gift
p40
aVworry-seed
p41
aVbestow
p42
asVpHold
p43
V
p44
sVpAbility
p45
Vchlorophyll
p46
sbasVbossFlag
p47
I00
sVtLongGame
p48
Vsun-moon
p49
sbag1
(g2
g3
Ntp50
Rp51
(dp52
g7
VVSPreschooler F SM.png
p53
sg9
VSylveon User
p54
sg11
VKira
p55
sg13
V648
p56
sg15
g16
sg17
g18
sg19
g20
sg21
g22
sg23
(lp57
g1
(g25
g3
Ntp58
Rp59
(dp60
g29
V700
p61
sg31
VSylveon
p62
sg33
g34
sg35
V54
p63
sg37
(lp64
Vmisty-terrain
p65
aVfairy-wind
p66
aVmoonblast
p67
aVbaby-doll-eyes
p68
asg43
g44
sg45
Vcute-charm
p69
sbasg47
I00
sg48
g49
sbag1
(g2
g3
Ntp70
Rp71
(dp72
g7
VVSSightseer M SM.png
p73
sg9
VSightseer
p74
sg11
VMarcus
p75
sg13
V3,300
p76
sg15
g16
sg17
g18
sg19
g20
sg21
g22
sg23
(lp77
g1
(g25
g3
Ntp78
Rp79
(dp80
g29
V102
p81
sg31
VExeggcute
p82
sg33
g34
sg35
V55{{shinystar|VII}}
p83
sg37
(lp84
Vbullet-seed
p85
aVnatural-gift
p86
aVworry-seed
p87
aVbestow
p88
asg43
g44
sg45
Vchlorophyll
p89
sbasg47
I00
sg48
g49
sbag1
(g2
g3
Ntp90
Rp91
(dp92
g7
VVSPreschooler F SM.png
p93
sg9
VSylveon User
p94
sg11
VKira
p95
sg13
V648
p96
sg15
g16
sg17
g18
sg19
g20
sg21
g22
sg23
(lp97
g1
(g25
g3
Ntp98
Rp99
(dp100
g29
V700
p101
sg31
VSylveon
p102
sg33
g34
sg35
V54
p103
sg37
(lp104
Vmisty-terrain
p105
aVfairy-wind
p106
aVmoonblast
p107
aVbaby-doll-eyes
p108
asg43
g44
sg45
Vcute-charm
p109
sbasg47
I00
sg48
g49
sbag1
(g2
g3
Ntp110
Rp111
(dp112
g7
VVSMina 2 USUM.png
p113
sg9
VCaptain
p114
sg11
VMina
p115
sg13
V6,120
p116
sg15
I3
sg17
g18
sg19
g20
sg21
g22
sg23
(lp117
g1
(g25
g3
Ntp118
Rp119
(dp120
g29
I303
sg31
VMawile
p121
sg33
VF
p122
sg35
V51
p123
sg37
(lp124
VIron Head
p125
aVPlay Rough
p126
aVSucker Punch
p127
asg43
g44
sg45
VIntimidate
p128
sbag1
(g25
g3
Ntp129
Rp130
(dp131
g29
I210
sg31
VGranbull
p132
sg33
g34
sg35
V51
p133
sg37
(lp134
VStone Edge
p135
aVPlay Rough
p136
aVEarthquake
p137
asg43
g44
sg45
VIntimidate
p138
sbag1
(g25
g3
Ntp139
Rp140
(dp141
g29
I743
sg31
VRibombee
p142
sg33
g122
sg35
V51
p143
sg37
(lp144
VPollen Puff
p145
aVDazzling Gleam
p146
aVPsychic
p147
asg43
VFairium Z
p148
sg45
VShield Dust
p149
sbasg47
I01
sg48
g49
sbag1
(g2
g3
Ntp150
Rp151
(dp152
g7
VVSNanu.png
p153
sg9
VIsland Kahuna
p154
sg11
VNanu
p155
sg13
V10,080
p156
sg15
I5
sg17
g18
sg19
g20
sg21
g22
sg23
(lp157
g1
(g25
g3
Ntp158
Rp159
(dp160
g29
I302
sg31
VSableye
p161
sg33
g122
sg35
V63
p162
sg37
(lp163
VPower Gem
p164
aVShadow Ball
p165
aVDark Pulse
p166
aVToxic
p167
asg43
g44
sg45
VKeen Eye
p168
sbag1
(g25
g3
Ntp169
Rp170
(dp171
g29
I553
sg31
VKrookodile
p172
sg33
g34
sg35
V63
p173
sg37
(lp174
VCrunch
p175
aVAerial Ace
p176
aVSwagger
p177
aVEarthquake
p178
asg43
g44
sg45
VIntimidate
p179
sbag1
(g25
g3
Ntp180
Rp181
(dp182
g29
I430
sg31
VHonchkrow
p183
sg33
g34
sg35
V63
p184
sg37
(lp185
VAerial Ace
p186
aVSucker Punch
p187
aVPsychic
p188
asg43
g44
sg45
VInsomnia
p189
sbag1
(g25
g3
Ntp190
Rp191
(dp192
g29
I359
sg31
VAbsol
p193
sg33
g34
sg35
V63
p194
sg37
(lp195
VPsycho Cut
p196
aVSucker Punch
p197
aVAerial Ace
p198
aVNight Slash
p199
asg43
g44
sg45
VSuper Luck
p200
sbag1
(g25
g3
Ntp201
Rp202
(dp203
g29
I53
sg31
VPersian
p204
sg33
g122
sg35
V63
p205
sg37
(lp206
VPower Gem
p207
aVFake Out
p208
aVDark Pulse
p209
aVThunderbolt
p210
asg43
VDarkinium Z
p211
sg45
VFur Coat
p212
sbasg47
I01
sg48
g49
sba.