(lp0
ccopy_reg
_reconstructor
p1
(c__main__
Trainer
p2
c__builtin__
object
p3
Ntp4
Rp5
(dp6
VtSprite
p7
VSpr RS Psychic F.png
p8
sVtClass
p9
VPsychic
p10
sVtName
p11
VJaclyn
p12
sVtMoney
p13
V384
p14
sVtPokeCount
p15
V1
p16
sVtLocation
p17
Vwiki/Seaside_Cycling_Road
p18
sVtRegion
p19
VHoenn
p20
sVtGame
p21
VRS
p22
sVtPokes
p23
(lp24
g1
(c__main__
FinishedPokemon
p25
g3
Ntp26
Rp27
(dp28
VpDexNo
p29
V063
p30
sVpSpecies
p31
VAbra
p32
sVpGender
p33
VM
p34
sVpLevel
p35
V16
p36
sVpMoves
p37
(lp38
Vteleport
p39
asVpHold
p40
V
p41
sVpAbility
p42
Vsynchronize
p43
sbasVbossFlag
p44
I00
sVtLongGame
p45
Vruby-sapphire
p46
sbag1
(g2
g3
Ntp47
Rp48
(dp49
g7
VSpr RS Triathlete Biker F.png
p50
sg9
VTriathlete
p51
sg11
VAbigail
p52
sg13
V680
p53
sg15
g16
sg17
g18
sg19
g20
sg21
g22
sg23
(lp54
g1
(g25
g3
Ntp55
Rp56
(dp57
g29
V081
p58
sg31
VMagnemite
p59
sg33
VU
p60
sg35
V17
p61
sg37
(lp62
Vzap-cannon
p63
aVlock-on
p64
aVspark
p65
aVmetal-sound
p66
asg40
g41
sg42
Vsturdy
p67
sbasg44
I00
sg45
g46
sbag1
(g2
g3
Ntp68
Rp69
(dp70
g7
VSpr RS Triathlete Biker M.png
p71
sg9
VTriathlete
p72
sg11
VAnthony
p73
sg13
V640
p74
sg15
V2
p75
sg17
g18
sg19
g20
sg21
g22
sg23
(lp76
g1
(g25
g3
Ntp77
Rp78
(dp79
g29
V081
p80
sg31
VMagnemite
p81
sg33
g60
sg35
V16
p82
sg37
(lp83
Vzap-cannon
p84
aVlock-on
p85
aVspark
p86
aVmetal-sound
p87
asg40
g41
sg42
Vmagnet-pull
p88
sbag1
(g25
g3
Ntp89
Rp90
(dp91
g29
V081
p92
sg31
VMagnemite
p93
sg33
g60
sg35
V16
p94
sg37
(lp95
Vzap-cannon
p96
aVlock-on
p97
aVspark
p98
aVmetal-sound
p99
asg40
g41
sg42
Vmagnet-pull
p100
sbasg44
I00
sg45
g46
sbag1
(g2
g3
Ntp101
Rp102
(dp103
g7
VSpr RS Triathlete Biker M.png
p104
sg9
VTriathlete
p105
sg11
VBenjamin
p106
sg13
V680
p107
sg15
g16
sg17
g18
sg19
g20
sg21
g22
sg23
(lp108
g1
(g25
g3
Ntp109
Rp110
(dp111
g29
V081
p112
sg31
VMagnemite
p113
sg33
g60
sg35
V17
p114
sg37
(lp115
Vzap-cannon
p116
aVlock-on
p117
aVspark
p118
aVmetal-sound
p119
asg40
g41
sg42
Vmagnet-pull
p120
sbasg44
I00
sg45
g46
sbag1
(g2
g3
Ntp121
Rp122
(dp123
g7
VSpr RS Triathlete Biker F.png
p124
sg9
VTriathlete
p125
sg11
VJasmine
p126
sg13
V280
p127
sg15
V3
p128
sg17
g18
sg19
g20
sg21
g22
sg23
(lp129
g1
(g25
g3
Ntp130
Rp131
(dp132
g29
V081
p133
sg31
VMagnemite
p134
sg33
g60
sg35
V15
p135
sg37
(lp136
Vzap-cannon
p137
aVlock-on
p138
aVspark
p139
aVmetal-sound
p140
asg40
g41
sg42
Vsturdy
p141
sbag1
(g25
g3
Ntp142
Rp143
(dp144
g29
V081
p145
sg31
VMagnemite
p146
sg33
g60
sg35
V15
p147
sg37
(lp148
Vzap-cannon
p149
aVlock-on
p150
aVspark
p151
aVmetal-sound
p152
asg40
g41
sg42
Vsturdy
p153
sbag1
(g25
g3
Ntp154
Rp155
(dp156
g29
V100
p157
sg31
VVoltorb
p158
sg33
g60
sg35
V7
p159
sg37
(lp160
Vrollout
p161
aVspark
p162
aVmirror-coat
p163
aVcharge
p164
asg40
g41
sg42
Vsoundproof
p165
sbasg44
I00
sg45
g46
sbag1
(g2
g3
Ntp166
Rp167
(dp168
g7
VSpr RS Triathlete Biker M.png
p169
sg9
VTriathlete
p170
sg11
VJacob
p171
sg13
V600
p172
sg15
g128
sg17
g18
sg19
g20
sg21
g22
sg23
(lp173
g1
(g25
g3
Ntp174
Rp175
(dp176
g29
V100
p177
sg31
VVoltorb
p178
sg33
g60
sg35
g159
sg37
(lp179
Vrollout
p180
aVspark
p181
aVmirror-coat
p182
aVcharge
p183
asg40
g41
sg42
Vsoundproof
p184
sbag1
(g25
g3
Ntp185
Rp186
(dp187
g29
V100
p188
sg31
VVoltorb
p189
sg33
g60
sg35
g159
sg37
(lp190
Vrollout
p191
aVspark
p192
aVmirror-coat
p193
aVcharge
p194
asg40
g41
sg42
Vstatic
p195
sbag1
(g25
g3
Ntp196
Rp197
(dp198
g29
V081
p199
sg31
VMagnemite
p200
sg33
g60
sg35
V15
p201
sg37
(lp202
Vzap-cannon
p203
aVlock-on
p204
aVspark
p205
aVmetal-sound
p206
asg40
g41
sg42
Vmagnet-pull
p207
sbasg44
I00
sg45
g46
sbag1
(g2
g3
Ntp208
Rp209
(dp210
g7
VSpr RS Triathlete Biker F.png
p211
sg9
VTriathlete
p212
sg11
VAbigail{{tt|*|First and second rematch}}
p213
sg13
g1
(cmwparserfromhell.wikicode
Wikicode
p214
g3
Ntp215
Rp216
(dp217
V_nodes
p218
g1
(cmwparserfromhell.smart_list.smart_list
SmartList
p219
c__builtin__
list
p220
(lp221
g1
(cmwparserfromhell.nodes.text
Text
p222
g3
Ntp223
Rp224
(dp225
V_value
p226
V1120
p227
sbatp228
Rp229
(dp230
V_children
p231
(dp232
sbsbsg15
g16
sg17
g18
sg19
g20
sg21
g22
sg23
(lp233
g1
(g25
g3
Ntp234
Rp235
(dp236
g29
V081
p237
sg31
VMagnemite
p238
sg33
g60
sg35
V28
p239
sg37
(lp240
Vzap-cannon
p241
aVlock-on
p242
aVspark
p243
aVmetal-sound
p244
asg40
g41
sg42
Vsturdy
p245
sbasg44
I00
sg45
g46
sbag1
(g2
g3
Ntp246
Rp247
(dp248
g7
VSpr RS Triathlete Biker F.png
p249
sg9
VTriathlete
p250
sg11
VAbigail{{tt|*|Third and fourth rematch onwards}}
p251
sg13
g1
(g214
g3
Ntp252
Rp253
(dp254
g218
g1
(g219
g220
(lp255
g1
(g222
g3
Ntp256
Rp257
(dp258
g226
V1360
p259
sbatp260
Rp261
(dp262
g231
(dp263
sbsbsg15
g16
sg17
g18
sg19
g20
sg21
g22
sg23
(lp264
g1
(g25
g3
Ntp265
Rp266
(dp267
g29
V082
p268
sg31
VMagneton
p269
sg33
g60
sg35
V34
p270
sg37
(lp271
Vzap-cannon
p272
aVlock-on
p273
aVspark
p274
aVmetal-sound
p275
asg40
g41
sg42
Vsturdy
p276
sbasg44
I00
sg45
g46
sbag1
(g2
g3
Ntp277
Rp278
(dp279
g7
VSpr RS Triathlete Biker M.png
p280
sg9
VTriathlete
p281
sg11
VBenjamin{{tt|*|First and second rematch}}
p282
sg13
g1
(g214
g3
Ntp283
Rp284
(dp285
g218
g1
(g219
g220
(lp286
g1
(g222
g3
Ntp287
Rp288
(dp289
g226
V1120
p290
sbatp291
Rp292
(dp293
g231
(dp294
sbsbsg15
g16
sg17
g18
sg19
g20
sg21
g22
sg23
(lp295
g1
(g25
g3
Ntp296
Rp297
(dp298
g29
V081
p299
sg31
VMagnemite
p300
sg33
g60
sg35
V28
p301
sg37
(lp302
Vzap-cannon
p303
aVlock-on
p304
aVspark
p305
aVmetal-sound
p306
asg40
g41
sg42
Vmagnet-pull
p307
sbasg44
I00
sg45
g46
sbag1
(g2
g3
Ntp308
Rp309
(dp310
g7
VSpr RS Triathlete Biker M.png
p311
sg9
VTriathlete
p312
sg11
VBenjamin{{tt|*|Third and fourth rematch onwards}}
p313
sg13
g1
(g214
g3
Ntp314
Rp315
(dp316
g218
g1
(g219
g220
(lp317
g1
(g222
g3
Ntp318
Rp319
(dp320
g226
V1360
p321
sbatp322
Rp323
(dp324
g231
(dp325
sbsbsg15
g16
sg17
g18
sg19
g20
sg21
g22
sg23
(lp326
g1
(g25
g3
Ntp327
Rp328
(dp329
g29
V082
p330
sg31
VMagneton
p331
sg33
g60
sg35
V34
p332
sg37
(lp333
Vzap-cannon
p334
aVlock-on
p335
aVspark
p336
aVmetal-sound
p337
asg40
g41
sg42
Vmagnet-pull
p338
sbasg44
I00
sg45
g46
sbag1
(g2
g3
Ntp339
Rp340
(dp341
g7
VSpr RS Psychic F.png
p342
sg9
VPsychic
p343
sg11
VJaclyn
p344
sg13
V384
p345
sg15
g16
sg17
g18
sg19
g20
sg21
g22
sg23
(lp346
g1
(g25
g3
Ntp347
Rp348
(dp349
g29
V063
p350
sg31
VAbra
p351
sg33
g34
sg35
V16
p352
sg37
(lp353
Vteleport
p354
asg40
g41
sg42
Vsynchronize
p355
sbasg44
I00
sg45
g46
sbag1
(g2
g3
Ntp356
Rp357
(dp358
g7
VSpr RS Triathlete Biker F.png
p359
sg9
VTriathlete
p360
sg11
VAbigail
p361
sg13
V640
p362
sg15
g16
sg17
g18
sg19
g20
sg21
g22
sg23
(lp363
g1
(g25
g3
Ntp364
Rp365
(dp366
g29
V081
p367
sg31
VMagnemite
p368
sg33
g60
sg35
V16
p369
sg37
(lp370
Vzap-cannon
p371
aVlock-on
p372
aVspark
p373
aVmetal-sound
p374
asg40
g41
sg42
Vsturdy
p375
sbasg44
I00
sg45
g46
sbag1
(g2
g3
Ntp376
Rp377
(dp378
g7
VSpr RS Triathlete Biker M.png
p379
sg9
VTriathlete
p380
sg11
VAnthony
p381
sg13
V560
p382
sg15
g75
sg17
g18
sg19
g20
sg21
g22
sg23
(lp383
g1
(g25
g3
Ntp384
Rp385
(dp386
g29
V081
p387
sg31
VMagnemite
p388
sg33
g60
sg35
V14
p389
sg37
(lp390
Vzap-cannon
p391
aVlock-on
p392
aVspark
p393
aVmetal-sound
p394
asg40
g41
sg42
Vsturdy
p395
sbag1
(g25
g3
Ntp396
Rp397
(dp398
g29
V081
p399
sg31
VMagnemite
p400
sg33
g60
sg35
V14
p401
sg37
(lp402
Vzap-cannon
p403
aVlock-on
p404
aVspark
p405
aVmetal-sound
p406
asg40
g41
sg42
Vmagnet-pull
p407
sbasg44
I00
sg45
g46
sbag1
(g2
g3
Ntp408
Rp409
(dp410
g7
VSpr RS Triathlete Biker M.png
p411
sg9
VTriathlete
p412
sg11
VBenjamin
p413
sg13
V640
p414
sg15
g16
sg17
g18
sg19
g20
sg21
g22
sg23
(lp415
g1
(g25
g3
Ntp416
Rp417
(dp418
g29
V081
p419
sg31
VMagnemite
p420
sg33
g60
sg35
V16
p421
sg37
(lp422
Vzap-cannon
p423
aVlock-on
p424
aVspark
p425
aVmetal-sound
p426
asg40
g41
sg42
Vsturdy
p427
sbasg44
I00
sg45
g46
sbag1
(g2
g3
Ntp428
Rp429
(dp430
g7
VSpr RS Triathlete Biker F.png
p431
sg9
VTriathlete
p432
sg11
VJasmine
p433
sg13
V240
p434
sg15
g128
sg17
g18
sg19
g20
sg21
g22
sg23
(lp435
g1
(g25
g3
Ntp436
Rp437
(dp438
g29
V081
p439
sg31
VMagnemite
p440
sg33
g60
sg35
V14
p441
sg37
(lp442
Vzap-cannon
p443
aVlock-on
p444
aVspark
p445
aVmetal-sound
p446
asg40
g41
sg42
Vmagnet-pull
p447
sbag1
(g25
g3
Ntp448
Rp449
(dp450
g29
V081
p451
sg31
VMagnemite
p452
sg33
g60
sg35
V14
p453
sg37
(lp454
Vzap-cannon
p455
aVlock-on
p456
aVspark
p457
aVmetal-sound
p458
asg40
g41
sg42
Vsturdy
p459
sbag1
(g25
g3
Ntp460
Rp461
(dp462
g29
V100
p463
sg31
VVoltorb
p464
sg33
g60
sg35
V6
p465
sg37
(lp466
Vrollout
p467
aVspark
p468
aVmirror-coat
p469
aVcharge
p470
asg40
g41
sg42
Vsoundproof
p471
sbasg44
I00
sg45
g46
sbag1
(g2
g3
Ntp472
Rp473
(dp474
g7
VSpr RS Triathlete Biker M.png
p475
sg9
VTriathlete
p476
sg11
VJacob
p477
sg13
V560
p478
sg15
g128
sg17
g18
sg19
g20
sg21
g22
sg23
(lp479
g1
(g25
g3
Ntp480
Rp481
(dp482
g29
V100
p483
sg31
VVoltorb
p484
sg33
g60
sg35
g465
sg37
(lp485
Vrollout
p486
aVspark
p487
aVmirror-coat
p488
aVcharge
p489
asg40
g41
sg42
Vsoundproof
p490
sbag1
(g25
g3
Ntp491
Rp492
(dp493
g29
V100
p494
sg31
VVoltorb
p495
sg33
g60
sg35
g465
sg37
(lp496
Vrollout
p497
aVspark
p498
aVmirror-coat
p499
aVcharge
p500
asg40
g41
sg42
Vsoundproof
p501
sbag1
(g25
g3
Ntp502
Rp503
(dp504
g29
V081
p505
sg31
VMagnemite
p506
sg33
g60
sg35
V14
p507
sg37
(lp508
Vzap-cannon
p509
aVlock-on
p510
aVspark
p511
aVmetal-sound
p512
asg40
g41
sg42
Vsturdy
p513
sbasg44
I00
sg45
g46
sbag1
(g2
g3
Ntp514
Rp515
(dp516
g7
VSpr RS Triathlete Biker F.png
p517
sg9
VTriathlete
p518
sg11
VAbigail{{tt|*|First and second rematch}}
p519
sg13
g1
(g214
g3
Ntp520
Rp521
(dp522
g218
g1
(g219
g220
(lp523
g1
(g222
g3
Ntp524
Rp525
(dp526
g226
V1120
p527
sbatp528
Rp529
(dp530
g231
(dp531
sbsbsg15
g16
sg17
g18
sg19
g20
sg21
g22
sg23
(lp532
g1
(g25
g3
Ntp533
Rp534
(dp535
g29
V081
p536
sg31
VMagnemite
p537
sg33
g60
sg35
V28
p538
sg37
(lp539
Vzap-cannon
p540
aVlock-on
p541
aVspark
p542
aVmetal-sound
p543
asg40
g41
sg42
Vsturdy
p544
sbasg44
I00
sg45
g46
sbag1
(g2
g3
Ntp545
Rp546
(dp547
g7
VSpr RS Triathlete Biker F.png
p548
sg9
VTriathlete
p549
sg11
VAbigail{{tt|*|Third and fourth rematch onwards}}
p550
sg13
g1
(g214
g3
Ntp551
Rp552
(dp553
g218
g1
(g219
g220
(lp554
g1
(g222
g3
Ntp555
Rp556
(dp557
g226
V1360
p558
sbatp559
Rp560
(dp561
g231
(dp562
sbsbsg15
g16
sg17
g18
sg19
g20
sg21
g22
sg23
(lp563
g1
(g25
g3
Ntp564
Rp565
(dp566
g29
V082
p567
sg31
VMagneton
p568
sg33
g60
sg35
V34
p569
sg37
(lp570
Vzap-cannon
p571
aVlock-on
p572
aVspark
p573
aVmetal-sound
p574
asg40
g41
sg42
Vmagnet-pull
p575
sbasg44
I00
sg45
g46
sbag1
(g2
g3
Ntp576
Rp577
(dp578
g7
VSpr RS  Triathlete Biker M.png
p579
sg9
VTriathlete
p580
sg11
VBenjamin{{tt|*|First and second rematch}}
p581
sg13
g1
(g214
g3
Ntp582
Rp583
(dp584
g218
g1
(g219
g220
(lp585
g1
(g222
g3
Ntp586
Rp587
(dp588
g226
V1200
p589
sbatp590
Rp591
(dp592
g231
(dp593
sbsbsg15
g16
sg17
g18
sg19
g20
sg21
g22
sg23
(lp594
g1
(g25
g3
Ntp595
Rp596
(dp597
g29
V081
p598
sg31
VMagnemite
p599
sg33
g60
sg35
V30
p600
sg37
(lp601
Vzap-cannon
p602
aVlock-on
p603
aVspark
p604
aVmetal-sound
p605
asg40
g41
sg42
Vsturdy
p606
sbasg44
I00
sg45
g46
sbag1
(g2
g3
Ntp607
Rp608
(dp609
g7
VSpr RS  Triathlete Biker M.png
p610
sg9
VTriathlete
p611
sg11
VBenjamin{{tt|*|Third and fourth rematch onwards}}
p612
sg13
g1
(g214
g3
Ntp613
Rp614
(dp615
g218
g1
(g219
g220
(lp616
g1
(g222
g3
Ntp617
Rp618
(dp619
g226
V1440
p620
sbatp621
Rp622
(dp623
g231
(dp624
sbsbsg15
g16
sg17
g18
sg19
g20
sg21
g22
sg23
(lp625
g1
(g25
g3
Ntp626
Rp627
(dp628
g29
V082
p629
sg31
VMagneton
p630
sg33
g60
sg35
V36
p631
sg37
(lp632
Vzap-cannon
p633
aVlock-on
p634
aVspark
p635
aVmetal-sound
p636
asg40
g41
sg42
Vmagnet-pull
p637
sbasg44
I00
sg45
g46
sbag1
(g2
g3
Ntp638
Rp639
(dp640
g7
VVSBeauty ORAS.png
p641
sg9
VBeauty
p642
sg11
VMelissa
p643
sg13
V952
p644
sg15
g16
sg17
g18
sg19
g20
sg21
VSM
p645
sg23
(lp646
g1
(g25
g3
Ntp647
Rp648
(dp649
g29
V118
p650
sg31
VGoldeen
p651
sg33
VF
p652
sg35
V17
p653
sg37
(lp654
Vwater-sport
p655
aVwater-pulse
p656
aVaqua-ring
p657
aVsoak
p658
asg40
g41
sg42
Vwater-veil
p659
sbasg44
I00
sg45
Vsun-moon
p660
sbag1
(g2
g3
Ntp661
Rp662
(dp663
g7
VVSTriathlete Biker.png
p664
sg9
VTriathlete
p665
sg11
VSloan
p666
sg13
V680
p667
sg15
g16
sg17
g18
sg19
g20
sg21
g645
sg23
(lp668
g1
(g25
g3
Ntp669
Rp670
(dp671
g29
V311
p672
sg31
VPlusle
p673
sg33
g34
sg35
V17
p674
sg37
(lp675
Ventrainment
p676
aVbestow
p677
aVplay-nice
p678
aVnuzzle
p679
asg40
g41
sg42
Vplus
p680
sbasg44
I00
sg45
g660
sbag1
(g2
g3
Ntp681
Rp682
(dp683
g7
VVSTriathlete Biker.png
p684
sg9
VTriathlete
p685
sg11
VJacob
p686
sg13
V640
p687
sg15
g75
sg17
g18
sg19
g20
sg21
g645
sg23
(lp688
g1
(g25
g3
Ntp689
Rp690
(dp691
g29
V100
p692
sg31
VVoltorb
p693
sg33
g60
sg35
V14
p694
sg37
(lp695
Vdischarge
p696
aVcharge-beam
p697
aVelectro-ball
p698
aVeerie-impulse
p699
asg40
g41
sg42
Vstatic
p700
sbag1
(g25
g3
Ntp701
Rp702
(dp703
g29
V081
p704
sg31
VMagnemite
p705
sg33
g60
sg35
V16
p706
sg37
(lp707
Vflash-cannon
p708
aVdischarge
p709
aVmagnet-bomb
p710
aVelectro-ball
p711
asg40
g41
sg42
Vsturdy
p712
sbasg44
I00
sg45
g660
sbag1
(g2
g3
Ntp713
Rp714
(dp715
g7
VVSTriathlete Biker.png
p716
sg9
VTriathlete
p717
sg11
VAnthony
p718
sg13
V680
p719
sg15
g16
sg17
g18
sg19
g20
sg21
g645
sg23
(lp720
g1
(g25
g3
Ntp721
Rp722
(dp723
g29
V081
p724
sg31
VMagnemite
p725
sg33
g60
sg35
V17
p726
sg37
(lp727
Vflash-cannon
p728
aVdischarge
p729
aVmagnet-bomb
p730
aVelectro-ball
p731
asg40
g41
sg42
Vmagnet-pull
p732
sbasg44
I00
sg45
g660
sbag1
(g2
g3
Ntp733
Rp734
(dp735
g7
VVSTriathlete Biker.png
p736
sg9
VTriathlete
p737
sg11
VBenjamin
p738
sg13
V680
p739
sg15
g16
sg17
g18
sg19
g20
sg21
g645
sg23
(lp740
g1
(g25
g3
Ntp741
Rp742
(dp743
g29
V100
p744
sg31
VVoltorb
p745
sg33
g60
sg35
V17
p746
sg37
(lp747
Vdischarge
p748
aVcharge-beam
p749
aVelectro-ball
p750
aVeerie-impulse
p751
asg40
g41
sg42
Vsoundproof
p752
sbasg44
I00
sg45
g660
sbag1
(g2
g3
Ntp753
Rp754
(dp755
g7
VVSTriathlete Biker.png
p756
sg9
VTriathlete
p757
sg11
VDolph
p758
sg13
V680
p759
sg15
g16
sg17
g18
sg19
g20
sg21
g645
sg23
(lp760
g1
(g25
g3
Ntp761
Rp762
(dp763
g29
V312
p764
sg31
VMinun
p765
sg33
g34
sg35
V17
p766
sg37
(lp767
Velectro-ball
p768
aVentrainment
p769
aVplay-nice
p770
aVnuzzle
p771
asg40
g41
sg42
Vminus
p772
sbasg44
I00
sg45
g660
sbag1
(g2
g3
Ntp773
Rp774
(dp775
g7
VVSTriathlete Biker.png
p776
sg9
VTriathlete
p777
sg11
VBenjamin
p778
sg13
V1,080<br><small>After earning the {{badge|Heat}}</small>
p779
sg15
g16
sg17
g18
sg19
g20
sg21
g645
sg23
(lp780
g1
(g25
g3
Ntp781
Rp782
(dp783
g29
V100
p784
sg31
VVoltorb
p785
sg33
g60
sg35
V27
p786
sg37
(lp787
Vdischarge
p788
aVcharge-beam
p789
aVelectro-ball
p790
aVeerie-impulse
p791
asg40
g41
sg42
Vsoundproof
p792
sbasg44
I00
sg45
g660
sbag1
(g2
g3
Ntp793
Rp794
(dp795
g7
VVSTriathlete Biker.png
p796
sg9
VTriathlete
p797
sg11
VBenjamin
p798
sg13
V1,360<br><small>After earning the {{badge|Feather}}</small>
p799
sg15
g16
sg17
g18
sg19
g20
sg21
g645
sg23
(lp800
g1
(g25
g3
Ntp801
Rp802
(dp803
g29
V101
p804
sg31
VElectrode
p805
sg33
g60
sg35
V34
p806
sg37
(lp807
Velectro-ball
p808
aVeerie-impulse
p809
ag809
aVmagnetic-flux
p810
asg40
g41
sg42
Vsoundproof
p811
sbasg44
I00
sg45
g660
sbag1
(g2
g3
Ntp812
Rp813
(dp814
g7
VVSTriathlete Biker.png
p815
sg9
VTriathlete
p816
sg11
VBenjamin
p817
sg13
V1,680<br><small>After earning the {{badge|Rain}}</small>
p818
sg15
g75
sg17
g18
sg19
g20
sg21
g645
sg23
(lp819
g1
(g25
g3
Ntp820
Rp821
(dp822
g29
V101
p823
sg31
VElectrode
p824
sg33
g60
sg35
V42
p825
sg37
(lp826
Velectro-ball
p827
aVeerie-impulse
p828
ag828
aVmagnetic-flux
p829
asg40
g41
sg42
Vstatic
p830
sbag1
(g25
g3
Ntp831
Rp832
(dp833
g29
V600
p834
sg31
VKlang
p835
sg33
g60
sg35
V42
p836
sg37
(lp837
Vautotomize
p838
aVshift-gear
p839
aVgear-grind
p840
ag840
asg40
g41
sg42
Vplus
p841
sbasg44
I00
sg45
g660
sbag1
(g2
g3
Ntp842
Rp843
(dp844
g7
VVSTriathlete Biker.png
p845
sg9
VTriathlete
p846
sg11
VBenjamin
p847
sg13
V1,960<br><small>After entering the [[Hall of Fame]]</small>
p848
sg15
g75
sg17
g18
sg19
g20
sg21
g645
sg23
(lp849
g1
(g25
g3
Ntp850
Rp851
(dp852
g29
V101
p853
sg31
VElectrode
p854
sg33
g60
sg35
V49
p855
sg37
(lp856
Velectro-ball
p857
aVeerie-impulse
p858
ag858
aVmagnetic-flux
p859
asg40
g41
sg42
Vsoundproof
p860
sbag1
(g25
g3
Ntp861
Rp862
(dp863
g29
V601
p864
sg31
VKlinklang
p865
sg33
g60
sg35
V49
p866
sg37
(lp867
Vgear-grind
p868
ag868
aVmagnetic-flux
p869
aVgear-up
p870
asg40
g41
sg42
Vplus
p871
sbasg44
I00
sg45
g660
sba.