(lp0
ccopy_reg
_reconstructor
p1
(c__main__
Trainer
p2
c__builtin__
object
p3
Ntp4
Rp5
(dp6
VtSprite
p7
VVSDulse.png
p8
sVtClass
p9
VUltra Recon Squad
p10
sVtName
p11
VDulse
p12
sVtMoney
p13
V156
p14
sVtPokeCount
p15
I1
sVtLocation
p16
Vwiki/Seaward_Cave
p17
sVtRegion
p18
VAlola
p19
sVtGame
p20
VSM
p21
sVtPokes
p22
(lp23
g1
(c__main__
FinishedPokemon
p24
g3
Ntp25
Rp26
(dp27
VpDexNo
p28
I676
sVpSpecies
p29
VFurfrou
p30
sVpGender
p31
VM
p32
sVpLevel
p33
V13
p34
sVpMoves
p35
(lp36
VGrowl
p37
aVSand Attack
p38
aVBaby-Doll Eyes
p39
aVHeadbutt
p40
asVpHold
p41
V
p42
sVpAbility
p43
VFur Coat
p44
sbasVbossFlag
p45
I01
sVtLongGame
p46
Vsun-moon
p47
sbag1
(g2
g3
Ntp48
Rp49
(dp50
g7
VVSSoliera.png
p51
sg9
VUltra Recon Squad
p52
sg11
VSoliera
p53
sg13
V156
p54
sg15
I1
sg16
g17
sg18
g19
sg20
g21
sg22
(lp55
g1
(g24
g3
Ntp56
Rp57
(dp58
g28
I676
sg29
VFurfrou
p59
sg31
VF
p60
sg33
V13
p61
sg35
(lp62
VGrowl
p63
aVSand Attack
p64
aVBaby-Doll Eyes
p65
aVHeadbutt
p66
asg41
g42
sg43
VFur Coat
p67
sbasg45
I01
sg46
g47
sba.