(lp0
ccopy_reg
_reconstructor
p1
(c__main__
Trainer
p2
c__builtin__
object
p3
Ntp4
Rp5
(dp6
VtSprite
p7
VVSTeam Skull Grunt M.png
p8
sVtClass
p9
VTeam Skull Grunt
p10
sVtName
p11
V
p12
sVtMoney
p13
V1,120
p14
sVtPokeCount
p15
V3
p16
sVtLocation
p17
Vwiki/Shady_House
p18
sVtRegion
p19
VAlola
p20
sVtGame
p21
VSM
p22
sVtPokes
p23
(lp24
g1
(c__main__
FinishedPokemon
p25
g3
Ntp26
Rp27
(dp28
VpDexNo
p29
V041
p30
sVpSpecies
p31
VZubat
p32
sVpGender
p33
VM
p34
sVpLevel
p35
V34
p36
sVpMoves
p37
(lp38
Vair-cutter
p39
aVair-slash
p40
aVvenoshock
p41
aVquick-guard
p42
asVpHold
p43
g12
sVpAbility
p44
Vinner-focus
p45
sbag1
(g25
g3
Ntp46
Rp47
(dp48
g29
V092
p49
sg31
VGastly
p50
sg33
g34
sg35
V34
p51
sg37
(lp52
Vpayback
p53
aVsucker-punch
p54
aVdark-pulse
p55
aVhex
p56
asg43
g12
sg44
Vlevitate
p57
sbag1
(g25
g3
Ntp58
Rp59
(dp60
g29
V757
p61
sg31
VSalandit
p62
sg33
g34
sg35
V35
p63
sg37
(lp64
Vnasty-plot
p65
aVvenoshock
p66
aVflame-burst
p67
aVvenom-drench
p68
asg43
g12
sg44
Vcorrosion
p69
sbasVbossFlag
p70
I00
sVtLongGame
p71
Vsun-moon
p72
sbag1
(g2
g3
Ntp73
Rp74
(dp75
g7
VVSTeam Skull Grunt F.png
p76
sg9
VTeam Skull Grunt
p77
sg11
g12
sg13
V1,120
p78
sg15
V1
p79
sg17
g18
sg19
g20
sg21
g22
sg23
(lp80
g1
(g25
g3
Ntp81
Rp82
(dp83
g29
V747
p84
sg31
VMareanie
p85
sg33
VF
p86
sg35
V35
p87
sg37
(lp88
Vwide-guard
p89
aVvenoshock
p90
aVvenom-drench
p91
aVliquidation
p92
asg43
g12
sg44
Vlimber
p93
sbasg70
I00
sg71
g72
sbag1
(g2
g3
Ntp94
Rp95
(dp96
g7
VVSTeam Skull Grunt F.png
p97
sg9
VTeam Skull Grunt
p98
sg11
g12
sg13
V1,120
p99
sg15
g79
sg17
g18
sg19
g20
sg21
g22
sg23
(lp100
g1
(g25
g3
Ntp101
Rp102
(dp103
g29
V093
p104
sg31
VHaunter
p105
sg33
g86
sg35
V35
p106
sg37
(lp107
Vpayback
p108
aVsucker-punch
p109
aVdark-pulse
p110
aVhex
p111
asg43
g12
sg44
Vlevitate
p112
sbasg70
I00
sg71
g72
sbag1
(g2
g3
Ntp113
Rp114
(dp115
g7
VVSTeam Skull Grunt M.png
p116
sg9
VTeam Skull Grunt
p117
sg11
g12
sg13
V1,120
p118
sg15
V2
p119
sg17
g18
sg19
g20
sg21
g22
sg23
(lp120
g1
(g25
g3
Ntp121
Rp122
(dp123
g29
V767
p124
sg31
VWimpod
p125
sg33
g34
sg35
V34
p126
sg37
(lp127
Vsand-attack
p128
aVstruggle-bug
p129
asg43
g12
sg44
Vwimp-out
p130
sbag1
(g25
g3
Ntp131
Rp132
(dp133
g29
V096
p134
sg31
VDrowzee
p135
sg33
g34
sg35
V35
p136
sg37
(lp137
Vnasty-plot
p138
aVzen-headbutt
p139
aVpsyshock
p140
aVsynchronoise
p141
asg43
g12
sg44
Vinsomnia
p142
sbasg70
I00
sg71
g72
sbag1
(g2
g3
Ntp143
Rp144
(dp145
g7
VVSTeam Skull Grunt F.png
p146
sg9
VTeam Skull Grunt
p147
sg11
g12
sg13
V1,120
p148
sg15
g79
sg17
g18
sg19
g20
sg21
g22
sg23
(lp149
g1
(g25
g3
Ntp150
Rp151
(dp152
g29
V019A
p153
sg31
VRattata
p154
sg33
g86
sg35
V35
p155
sg37
(lp156
Vcrunch
p157
aVendeavor
p158
aVassurance
p159
aVsucker-punch
p160
asg43
g12
sg44
Vguts
p161
sbasg70
I00
sg71
g72
sbag1
(g2
g3
Ntp162
Rp163
(dp164
g7
VVSTeam Skull Grunt F.png
p165
sg9
VTeam Skull Grunt
p166
sg11
g12
sg13
V1,120
p167
sg15
g79
sg17
g18
sg19
g20
sg21
g22
sg23
(lp168
g1
(g25
g3
Ntp169
Rp170
(dp171
g29
V020A
p172
sg31
VRaticate
p173
sg33
g86
sg35
V35
p174
sg37
(lp175
Vcrunch
p176
aVendeavor
p177
aVassurance
p178
aVsucker-punch
p179
asg43
g12
sg44
Vrun-away
p180
sbasg70
I00
sg71
g72
sbag1
(g2
g3
Ntp181
Rp182
(dp183
g7
VVSTeam Skull Grunt M.png
p184
sg9
VTeam Skull Grunt
p185
sg11
g12
sg13
V1,120
p186
sg15
g79
sg17
g18
sg19
g20
sg21
g22
sg23
(lp187
g1
(g25
g3
Ntp188
Rp189
(dp190
g29
V753
p191
sg31
VFomantis
p192
sg33
g34
sg35
V35
p193
sg37
(lp194
Vsunny-day
p195
aVingrain
p196
aVleaf-blade
p197
aVleafage
p198
asg43
g12
sg44
Vleaf-guard
p199
sbasg70
I00
sg71
g72
sbag1
(g2
g3
Ntp200
Rp201
(dp202
g7
VVSTeam Skull Grunt F.png
p203
sg9
VTeam Skull Grunt
p204
sg11
g12
sg13
V1,120
p205
sg15
g79
sg17
g18
sg19
g20
sg21
g22
sg23
(lp206
g1
(g25
g3
Ntp207
Rp208
(dp209
g29
V042
p210
sg31
VGolbat
p211
sg33
g86
sg35
V35
p212
sg37
(lp213
Vair-cutter
p214
aVair-slash
p215
aVvenoshock
p216
aVquick-guard
p217
asg43
g12
sg44
Vinner-focus
p218
sbasg70
I00
sg71
g72
sbag1
(g2
g3
Ntp219
Rp220
(dp221
g7
VVSTeam Skull Grunt M.png
p222
sg9
VTeam Skull Grunt
p223
sg11
g12
sg13
V1,216
p224
sg15
g79
sg17
g18
sg19
g20
sg21
g22
sg23
(lp225
g1
(g25
g3
Ntp226
Rp227
(dp228
g29
V096
p229
sg31
VDrowzee
p230
sg33
g34
sg35
V38
p231
sg37
(lp232
Vnasty-plot
p233
aVzen-headbutt
p234
aVpsyshock
p235
aVsynchronoise
p236
asg43
g12
sg44
Vinsomnia
p237
sbasg70
I00
sg71
g72
sbag1
(g2
g3
Ntp238
Rp239
(dp240
g7
VVSTeam Skull Grunt F.png
p241
sg9
VTeam Skull Grunt
p242
sg11
g12
sg13
V1,216
p243
sg15
g119
sg17
g18
sg19
g20
sg21
g22
sg23
(lp244
g1
(g25
g3
Ntp245
Rp246
(dp247
g29
V757
p248
sg31
VSalandit
p249
sg33
g34
sg35
V38
p250
sg37
(lp251
Vnasty-plot
p252
aVvenoshock
p253
aVflame-burst
p254
aVvenom-drench
p255
asg43
g12
sg44
Vcorrosion
p256
sbag1
(g25
g3
Ntp257
Rp258
(dp259
g29
V753
p260
sg31
VFomantis
p261
sg33
g34
sg35
V38
p262
sg37
(lp263
Vsunny-day
p264
aVingrain
p265
aVleaf-blade
p266
aVleafage
p267
asg43
g12
sg44
Vleaf-guard
p268
sbasg70
I00
sg71
g72
sbag1
(g2
g3
Ntp269
Rp270
(dp271
g7
VVSTeam Skull Grunt F.png
p272
sg9
VTeam Skull Grunt
p273
sg11
g12
sg13
V1,216
p274
sg15
g119
sg17
g18
sg19
g20
sg21
g22
sg23
(lp275
g1
(g25
g3
Ntp276
Rp277
(dp278
g29
V568
p279
sg31
VTrubbish
p280
sg33
g86
sg35
V38
p281
sg37
(lp282
Vgunk-shot
p283
aVacid-spray
p284
aVclear-smog
p285
aVbelch
p286
asg43
g12
sg44
Vsticky-hold
p287
sbag1
(g25
g3
Ntp288
Rp289
(dp290
g29
V228
p291
sg31
VHoundour
p292
sg33
g86
sg35
V38
p293
sg37
(lp294
Vnasty-plot
p295
aVfire-fang
p296
aVfoul-play
p297
aVinferno
p298
asg43
g12
sg44
Vearly-bird
p299
sbasg70
I00
sg71
g72
sbag1
(g2
g3
Ntp300
Rp301
(dp302
g7
VVSTeam Skull Grunt M.png
p303
sg9
VTeam Skull Grunt
p304
sg11
g12
sg13
V1,216
p305
sg15
g79
sg17
g18
sg19
g20
sg21
g22
sg23
(lp306
g1
(g25
g3
Ntp307
Rp308
(dp309
g29
V559
p310
sg31
VScraggy
p311
sg33
g34
sg35
V38
p312
sg37
(lp313
Vpayback
p314
aVrock-climb
p315
aVhead-smash
p316
aVchip-away
p317
asg43
g12
sg44
Vmoxie
p318
sbasg70
I00
sg71
g72
sbag1
(g2
g3
Ntp319
Rp320
(dp321
g7
VVSTeam Skull Grunt F.png
p322
sg9
VTeam Skull Grunt
p323
sg11
g12
sg13
V1,216
p324
sg15
g79
sg17
g18
sg19
g20
sg21
g22
sg23
(lp325
g1
(g25
g3
Ntp326
Rp327
(dp328
g29
V019A
p329
sg31
VRattata
p330
sg33
g86
sg35
V38
p331
sg37
(lp332
Vcrunch
p333
aVendeavor
p334
aVassurance
p335
aVsucker-punch
p336
asg43
g12
sg44
Vrun-away
p337
sbasg70
I00
sg71
g72
sbag1
(g2
g3
Ntp338
Rp339
(dp340
g7
VVSTeam Skull Grunt F.png
p341
sg9
VTeam Skull Grunt
p342
sg11
g12
sg13
V1,216
p343
sg15
g79
sg17
g18
sg19
g20
sg21
g22
sg23
(lp344
g1
(g25
g3
Ntp345
Rp346
(dp347
g29
V020A
p348
sg31
VRaticate
p349
sg33
g86
sg35
V38
p350
sg37
(lp351
Vcrunch
p352
aVendeavor
p353
aVassurance
p354
aVsucker-punch
p355
asg43
g12
sg44
Vrun-away
p356
sbasg70
I00
sg71
g72
sbag1
(g2
g3
Ntp357
Rp358
(dp359
g7
VVSTeam Skull Grunt M.png
p360
sg9
VTeam Skull Grunt
p361
sg11
g12
sg13
V1,216
p362
sg15
g119
sg17
g18
sg19
g20
sg21
g22
sg23
(lp363
g1
(g25
g3
Ntp364
Rp365
(dp366
g29
V093
p367
sg31
VHaunter
p368
sg33
g34
sg35
V38
p369
sg37
(lp370
Vpayback
p371
aVsucker-punch
p372
aVdark-pulse
p373
aVhex
p374
asg43
g12
sg44
Vlevitate
p375
sbag1
(g25
g3
Ntp376
Rp377
(dp378
g29
V088A
p379
sg31
VGrimer
p380
sg33
g34
sg35
V38
p381
sg37
(lp382
Vmud-bomb
p383
aVgunk-shot
p384
aVsludge-wave
p385
aVbelch
p386
asg43
g12
sg44
Vsticky-hold
p387
sbasg70
I00
sg71
g72
sbag1
(g2
g3
Ntp388
Rp389
(dp390
g7
VVSTeam Skull Grunt F.png
p391
sg9
VTeam Skull Grunt
p392
sg11
g12
sg13
V1,216
p393
sg15
g16
sg17
g18
sg19
g20
sg21
g22
sg23
(lp394
g1
(g25
g3
Ntp395
Rp396
(dp397
g29
V167
p398
sg31
VSpinarak
p399
sg33
g86
sg35
V38
p400
sg37
(lp401
Vcross-poison
p402
aVsticky-web
p403
aVinfestation
p404
aVtoxic-thread
p405
asg43
g12
sg44
Vswarm
p406
sbag1
(g25
g3
Ntp407
Rp408
(dp409
g29
V624
p410
sg31
VPawniard
p411
sg33
g86
sg35
V38
p412
sg37
(lp413
Vassurance
p414
aVembargo
p415
aVnight-slash
p416
aViron-head
p417
asg43
g12
sg44
Vinner-focus
p418
sbag1
(g25
g3
Ntp419
Rp420
(dp421
g29
V042
p422
sg31
VGolbat
p423
sg33
g86
sg35
V38
p424
sg37
(lp425
Vair-cutter
p426
aVair-slash
p427
aVvenoshock
p428
aVquick-guard
p429
asg43
g12
sg44
Vinner-focus
p430
sbasg70
I00
sg71
g72
sbag1
(g2
g3
Ntp431
Rp432
(dp433
g7
VVSGuzma.png
p434
sg9
VTeam Skull Boss
p435
sg11
VGuzma
p436
sg13
V4,320
p437
sg15
I2
sg17
g18
sg19
g20
sg21
g22
sg23
(lp438
g1
(g25
g3
Ntp439
Rp440
(dp441
g29
I768
sg31
VGolisopod
p442
sg33
g34
sg35
V37
p443
sg37
(lp444
VSwords Dance
p445
aVRazor Shell
p446
aVFirst Impression
p447
asg43
g12
sg44
VEmergency Exit
p448
sbag1
(g25
g3
Ntp449
Rp450
(dp451
g29
I168
sg31
VAriados
p452
sg33
g34
sg35
V36
p453
sg37
(lp454
VFell Stinger
p455
aVSucker Punch
p456
aVShadow Sneak
p457
aVInfestation
p458
asg43
g12
sg44
VSwarm
p459
sbasg70
I01
sg71
g72
sbag1
(g2
g3
Ntp460
Rp461
(dp462
g7
VVSGuzma.png
p463
sg9
VTeam Skull Boss
p464
sg11
VGuzma
p465
sg13
V4,920
p466
sg15
I3
sg17
g18
sg19
g20
sg21
g22
sg23
(lp467
g1
(g25
g3
Ntp468
Rp469
(dp470
g29
I768
sg31
VGolisopod
p471
sg33
g34
sg35
V41
p472
sg37
(lp473
VSucker Punch
p474
aVRazor Shell
p475
aVFirst Impression
p476
asg43
g12
sg44
VEmergency Exit
p477
sbag1
(g25
g3
Ntp478
Rp479
(dp480
g29
I284
sg31
VMasquerain
p481
sg33
g34
sg35
V41
p482
sg37
(lp483
VAir Slash
p484
aVBug Buzz
p485
aVIcy Wind
p486
asg43
g12
sg44
VIntimidate
p487
sbag1
(g25
g3
Ntp488
Rp489
(dp490
g29
I127
sg31
VPinsir
p491
sg33
g34
sg35
V41
p492
sg37
(lp493
VThroat Chop
p494
aVStorm Throw
p495
aVX-Scissor
p496
asg43
g12
sg44
VMold Breaker
p497
sbasg70
I01
sg71
g72
sba.