(lp0
ccopy_reg
_reconstructor
p1
(c__main__
Trainer
p2
c__builtin__
object
p3
Ntp4
Rp5
(dp6
VtSprite
p7
VVSRoller Skater M.png
p8
sVtClass
p9
VRoller Skater
p10
sVtName
p11
VShun
p12
sVtMoney
p13
V864
p14
sVtPokeCount
p15
V3
p16
sVtLocation
p17
Vwiki/Shalour_Gym
p18
sVtRegion
p19
VKalos
p20
sVtGame
p21
VSM
p22
sVtPokes
p23
(lp24
g1
(c__main__
FinishedPokemon
p25
g3
Ntp26
Rp27
(dp28
VpDexNo
p29
V674
p30
sVpSpecies
p31
VPancham
p32
sVpGender
p33
VM
p34
sVpLevel
p35
V27
p36
sVpMoves
p37
(lp38
Ventrainment
p39
aVcircle-throw
p40
aVwork-up
p41
aVparting-shot
p42
asVpHold
p43
V
p44
sVpAbility
p45
Viron-fist
p46
sbag1
(g25
g3
Ntp47
Rp48
(dp49
g29
V538
p50
sg31
VThroh
p51
sg33
g34
sg35
V27
p52
sg37
(lp53
Vwide-guard
p54
aVstorm-throw
p55
aVcircle-throw
p56
aVmat-block
p57
asg43
g44
sg45
Vinner-focus
p58
sbag1
(g25
g3
Ntp59
Rp60
(dp61
g29
V067
p62
sg31
VMachoke
p63
sg33
g34
sg35
V27
p64
sg37
(lp65
Vbulk-up
p66
aVwake-up-slap
p67
aVlow-sweep
p68
aVdual-chop
p69
asg43
g44
sg45
Vguts
p70
sbasVbossFlag
p71
I00
sVtLongGame
p72
Vsun-moon
p73
sbag1
(g2
g3
Ntp74
Rp75
(dp76
g7
VVSRoller Skater M.png
p77
sg9
VRoller Skater
p78
sg11
VDash
p79
sg13
V960
p80
sg15
V1
p81
sg17
g18
sg19
g20
sg21
g22
sg23
(lp82
g1
(g25
g3
Ntp83
Rp84
(dp85
g29
V214
p86
sg31
VHeracross
p87
sg33
g34
sg35
V30
p88
sg37
(lp89
Vfeint
p90
aVclose-combat
p91
aVnight-slash
p92
aVchip-away
p93
asg43
g44
sg45
Vswarm
p94
sbasg71
I00
sg72
g73
sbag1
(g2
g3
Ntp95
Rp96
(dp97
g7
VVSRoller Skater F.png
p98
sg9
VRoller Skater
p99
sg11
VRolanda
p100
sg13
V928
p101
sg15
V2
p102
sg17
g18
sg19
g20
sg21
VSM
p103
sg23
(lp104
g1
(g25
g3
Ntp105
Rp106
(dp107
g29
V539
p108
sg31
VSawk
p109
sg33
g34
sg35
V27
p110
sg37
(lp111
Vclose-combat
p112
aVlow-sweep
p113
aVquick-guard
p114
aVretaliate
p115
asg43
g44
sg45
Vinner-focus
p116
sbag1
(g25
g3
Ntp117
Rp118
(dp119
g29
V297
p120
sg31
VHariyama
p121
sg33
g34
sg35
V29
p122
sg37
(lp123
Vbrine
p124
aVclose-combat
p125
aVforce-palm
p126
aVheavy-slam
p127
asg43
g44
sg45
Vthick-fat
p128
sbasg71
I00
sg72
g73
sbag1
(g2
g3
Ntp129
Rp130
(dp131
g7
VVSRoller Skater F.png
p132
sg9
VRoller Skater
p133
sg11
VKate
p134
sg13
V896
p135
sg15
g102
sg17
g18
sg19
g20
sg21
g103
sg23
(lp136
g1
(g25
g3
Ntp137
Rp138
(dp139
g29
V307
p140
sg31
VMeditite
p141
sg33
VF
p142
sg35
V28
p143
sg37
(lp144
Vfeint
p145
aVacupressure
p146
aVpower-trick
p147
aVforce-palm
p148
asg43
g44
sg45
Vpure-power
p149
sbag1
(g25
g3
Ntp150
Rp151
(dp152
g29
V619
p153
sg31
VMienfoo
p154
sg33
g142
sg35
V28
p155
sg37
(lp156
Vforce-palm
p157
aVaura-sphere
p158
aVdrain-punch
p159
aVquick-guard
p160
asg43
g44
sg45
Vregenerator
p161
sbasg71
I00
sg72
g73
sbag1
(g2
g3
Ntp162
Rp163
(dp164
g7
VVSKorrina.png
p165
sg9
VLeader
p166
sg11
VKorrina
p167
sg13
V5,120
p168
sg15
I3
sg17
g18
sg19
g20
sg21
g22
sg23
(lp169
g1
(g25
g3
Ntp170
Rp171
(dp172
g29
I619
sg31
VMienfoo
p173
sg33
g142
sg35
V29
p174
sg37
(lp175
VPower-Up Punch
p176
aVFake Out
p177
aVDouble Slap
p178
asg43
g44
sg45
VInner Focus
p179
sbag1
(g25
g3
Ntp180
Rp181
(dp182
g29
I67
sg31
VMachoke
p183
sg33
g34
sg35
V28
p184
sg37
(lp185
VPower-Up Punch
p186
aVRock Tomb
p187
aVLeer
p188
asg43
g44
sg45
VGuts
p189
sbag1
(g25
g3
Ntp190
Rp191
(dp192
g29
I701
sg31
VHawlucha
p193
sg33
g142
sg35
V32
p194
sg37
(lp195
VFlying Press
p196
aVHone Claws
p197
aVPower-Up Punch
p198
asg43
g44
sg45
VUnburden
p199
sbasg71
I01
sg72
g73
sba.