(lp0
ccopy_reg
_reconstructor
p1
(c__main__
Trainer
p2
c__builtin__
object
p3
Ntp4
Rp5
(dp6
VtSprite
p7
VSpr BW Waitress.png
p8
sVtClass
p9
VWaitress
p10
sVtName
p11
VFlo
p12
sVtMoney
p13
V1440
p14
sVtPokeCount
p15
V2
p16
sVtLocation
p17
Vwiki/Shopping_Mall_Nine
p18
sVtRegion
p19
VUnova
p20
sVtGame
p21
VBW
p22
sVtPokes
p23
(lp24
g1
(c__main__
FinishedPokemon
p25
g3
Ntp26
Rp27
(dp28
VpDexNo
p29
V572
p30
sVpSpecies
p31
VMinccino
p32
sVpGender
p33
VF
p34
sVpLevel
p35
V36
p36
sVpMoves
p37
(lp38
Vcaptivate
p39
aVafter-you
p40
aVechoed-voice
p41
aVtail-slap
p42
asVpHold
p43
V
p44
sVpAbility
p45
Vtechnician
p46
sbag1
(g25
g3
Ntp47
Rp48
(dp49
g29
V549
p50
sg31
VLilligant
p51
sg33
g34
sg35
V36
p52
sg37
(lp53
Vpetal-dance
p54
aVsynthesis
p55
aVteeter-dance
p56
aVquiver-dance
p57
asg43
g44
sg45
Vown-tempo
p58
sbasVbossFlag
p59
I00
sVtLongGame
p60
Vblack-white
p61
sbag1
(g2
g3
Ntp62
Rp63
(dp64
g7
VSpr BW Rich Boy.png
p65
sg9
VRich Boy
p66
sg11
VManuel
p67
sg13
V5760
p68
sg15
V1
p69
sg17
g18
sg19
g20
sg21
g22
sg23
(lp70
g1
(g25
g3
Ntp71
Rp72
(dp73
g29
V510
p74
sg31
VLiepard
p75
sg33
VM
p76
sg35
V36
p77
sg37
(lp78
Vsucker-punch
p79
aVnight-slash
p80
aVnasty-plot
p81
aVhone-claws
p82
asg43
g44
sg45
Vunburden
p83
sbasg59
I00
sg60
g61
sbag1
(g2
g3
Ntp84
Rp85
(dp86
g7
VSpr BW Waiter.png
p87
sg9
VWaiter
p88
sg11
VBert
p89
sg13
V1440
p90
sg15
g16
sg17
g18
sg19
g20
sg21
g22
sg23
(lp91
g1
(g25
g3
Ntp92
Rp93
(dp94
g29
V572
p95
sg31
VMinccino
p96
sg33
g34
sg35
V36
p97
sg37
(lp98
Vcaptivate
p99
aVafter-you
p100
aVechoed-voice
p101
aVtail-slap
p102
asg43
g44
sg45
Vtechnician
p103
sbag1
(g25
g3
Ntp104
Rp105
(dp106
g29
V608
p107
sg31
VLampent
p108
sg33
g76
sg35
V36
p109
sg37
(lp110
Voverheat
p111
aVflame-burst
p112
aVhex
p113
aVinferno
p114
asg43
g44
sg45
Vflame-body
p115
sbasg59
I00
sg60
g61
sbag1
(g2
g3
Ntp116
Rp117
(dp118
g7
VSpr BW Lady.png
p119
sg9
VLady
p120
sg11
VIsabel
p121
sg13
V5760
p122
sg15
g69
sg17
g18
sg19
g20
sg21
g22
sg23
(lp123
g1
(g25
g3
Ntp124
Rp125
(dp126
g29
V508
p127
sg31
VStoutland
p128
sg33
g34
sg35
V36
p129
sg37
(lp130
Vice-fang
p131
aVfire-fang
p132
aVretaliate
p133
aVwork-up
p134
asg43
g44
sg45
Vsand-rush
p135
sbasg59
I00
sg60
g61
sbag1
(g2
g3
Ntp136
Rp137
(dp138
g7
VSpr B2W2 Waitress.png
p139
sg9
VWaitress
p140
sg11
VOlwen
p141
sg13
g1
(cmwparserfromhell.wikicode
Wikicode
p142
g3
Ntp143
Rp144
(dp145
V_nodes
p146
g1
(cmwparserfromhell.smart_list.smart_list
SmartList
p147
c__builtin__
list
p148
(lp149
g1
(cmwparserfromhell.nodes.text
Text
p150
g3
Ntp151
Rp152
(dp153
V_value
p154
V1720
p155
sbatp156
Rp157
(dp158
V_children
p159
(dp160
sbsbsg15
g69
sg17
g18
sg19
g20
sg21
VB2W2
p161
sg23
(lp162
g1
(g25
g3
Ntp163
Rp164
(dp165
g29
V572
p166
sg31
VMinccino
p167
sg33
g34
sg35
V43
p168
sg37
(lp169
Vcaptivate
p170
aVafter-you
p171
aVechoed-voice
p172
aVtail-slap
p173
asg43
g44
sg45
Vcute-charm
p174
sbasg59
I00
sg60
Vblack-2-white-2
p175
sbag1
(g2
g3
Ntp176
Rp177
(dp178
g7
VSpr B2W2 Waiter.png
p179
sg9
VWaiter
p180
sg11
VLou
p181
sg13
g1
(g142
g3
Ntp182
Rp183
(dp184
g146
g1
(g147
g148
(lp185
g1
(g150
g3
Ntp186
Rp187
(dp188
g154
V1720
p189
sbatp190
Rp191
(dp192
g159
(dp193
sbsbsg15
g69
sg17
g18
sg19
g20
sg21
g161
sg23
(lp194
g1
(g25
g3
Ntp195
Rp196
(dp197
g29
V510
p198
sg31
VLiepard
p199
sg33
g76
sg35
V43
p200
sg37
(lp201
Vsucker-punch
p202
aVnight-slash
p203
aVnasty-plot
p204
aVhone-claws
p205
asg43
g44
sg45
Vunburden
p206
sbasg59
I00
sg60
g175
sba.