(lp0
ccopy_reg
_reconstructor
p1
(c__main__
Trainer
p2
c__builtin__
object
p3
Ntp4
Rp5
(dp6
VtSprite
p7
VSpr RG Rocket.png
p8
sVtClass
p9
VRocket
p10
sVtName
p11
V
p12
sVtMoney
p13
V750
p14
sVtPokeCount
p15
V5
p16
sVtLocation
p17
Vwiki/Silph_Co
p18
sVtRegion
p19
VKanto
p20
sVtGame
p21
VRGB
p22
sVtPokes
p23
(lp24
g1
(c__main__
FinishedPokemon
p25
g3
Ntp26
Rp27
(dp28
VpDexNo
p29
V042
p30
sVpSpecies
p31
VGolbat
p32
sVpGender
p33
VU
p34
sVpLevel
p35
V25
p36
sVpMoves
p37
(lp38
Vscreech
p39
aVconfuse-ray
p40
aVhaze
p41
aVleech-life
p42
asVpHold
p43
g12
sVpAbility
p44
Vinner-focus
p45
sbag1
(g25
g3
Ntp46
Rp47
(dp48
g29
V041
p49
sg31
VZubat
p50
sg33
g34
sg35
V25
p51
sg37
(lp52
Vsupersonic
p53
aVconfuse-ray
p54
aVhaze
p55
aVleech-life
p56
asg43
g12
sg44
Vinner-focus
p57
sbag1
(g25
g3
Ntp58
Rp59
(dp60
g29
V041
p61
sg31
VZubat
p62
sg33
g34
sg35
V25
p63
sg37
(lp64
Vsupersonic
p65
aVconfuse-ray
p66
aVhaze
p67
aVleech-life
p68
asg43
g12
sg44
Vinner-focus
p69
sbag1
(g25
g3
Ntp70
Rp71
(dp72
g29
V020
p73
sg31
VRaticate
p74
sg33
g34
sg35
V25
p75
sg37
(lp76
Vquick-attack
p77
aVfocus-energy
p78
aVhyper-fang
p79
aVsuper-fang
p80
asg43
g12
sg44
Vguts
p81
sbag1
(g25
g3
Ntp82
Rp83
(dp84
g29
V041
p85
sg31
VZubat
p86
sg33
g34
sg35
V25
p87
sg37
(lp88
Vsupersonic
p89
aVconfuse-ray
p90
aVhaze
p91
aVleech-life
p92
asg43
g12
sg44
Vinner-focus
p93
sbasVbossFlag
p94
I00
sVtLongGame
p95
Vred-blue
p96
sbag1
(g2
g3
Ntp97
Rp98
(dp99
g7
VSpr RG Scientist.png
p100
sg9
VScientist
p101
sg11
g12
sg13
V1400
p102
sg15
V3
p103
sg17
g18
sg19
g20
sg21
g22
sg23
(lp104
g1
(g25
g3
Ntp105
Rp106
(dp107
g29
V081
p108
sg31
VMagnemite
p109
sg33
g34
sg35
V28
p110
sg37
(lp111
Vthunder-shock
p112
aVthunder-wave
p113
aVscreech
p114
aVswift
p115
asg43
g12
sg44
Vsturdy
p116
sbag1
(g25
g3
Ntp117
Rp118
(dp119
g29
V100
p120
sg31
VVoltorb
p121
sg33
g34
sg35
V28
p122
sg37
(lp123
Vlight-screen
p124
aVself-destruct
p125
aVswift
p126
aVexplosion
p127
asg43
g12
sg44
Vsoundproof
p128
sbag1
(g25
g3
Ntp129
Rp130
(dp131
g29
V082
p132
sg31
VMagneton
p133
sg33
g34
sg35
V28
p134
sg37
(lp135
Vthunder-shock
p136
aVthunder-wave
p137
aVscreech
p138
aVswift
p139
asg43
g12
sg44
Vmagnet-pull
p140
sbasg94
I00
sg95
g96
sbag1
(g2
g3
Ntp141
Rp142
(dp143
g7
VSpr RG Rocket.png
p144
sg9
VRocket
p145
sg11
g12
sg13
V870
p146
sg15
V2
p147
sg17
g18
sg19
g20
sg21
g22
sg23
(lp148
g1
(g25
g3
Ntp149
Rp150
(dp151
g29
V104
p152
sg31
VCubone
p153
sg33
g34
sg35
V29
p154
sg37
(lp155
Vrage
p156
aVfocus-energy
p157
aVbone-club
p158
aVbonemerang
p159
asg43
g12
sg44
Vlightning-rod
p160
sbag1
(g25
g3
Ntp161
Rp162
(dp163
g29
V041
p164
sg31
VZubat
p165
sg33
g34
sg35
V29
p166
sg37
(lp167
Vsupersonic
p168
aVconfuse-ray
p169
aVhaze
p170
aVleech-life
p171
asg43
g12
sg44
Vinner-focus
p172
sbasg94
I00
sg95
g96
sbag1
(g2
g3
Ntp173
Rp174
(dp175
g7
VSpr RG Scientist.png
p176
sg9
VScientist
p177
sg11
g12
sg13
V1300
p178
sg15
V4
p179
sg17
g18
sg19
g20
sg21
g22
sg23
(lp180
g1
(g25
g3
Ntp181
Rp182
(dp183
g29
V088
p184
sg31
VGrimer
p185
sg33
g34
sg35
V26
p186
sg37
(lp187
Vminimize
p188
aVsludge
p189
aVpoison-gas
p190
aVacid-armor
p191
asg43
g12
sg44
Vstench
p192
sbag1
(g25
g3
Ntp193
Rp194
(dp195
g29
V110
p196
sg31
VWeezing
p197
sg33
g34
sg35
V26
p198
sg37
(lp199
Vsmog
p200
aVsludge
p201
ag201
aVexplosion
p202
asg43
g12
sg44
Vlevitate
p203
sbag1
(g25
g3
Ntp204
Rp205
(dp206
g29
V109
p207
sg31
VKoffing
p208
sg33
g34
sg35
V26
p209
sg37
(lp210
Vself-destruct
p211
aVsmog
p212
aVsludge
p213
aVexplosion
p214
asg43
g12
sg44
Vlevitate
p215
sbag1
(g25
g3
Ntp216
Rp217
(dp218
g29
V110
p219
sg31
VWeezing
p220
sg33
g34
sg35
V26
p221
sg37
(lp222
Vsmog
p223
aVsludge
p224
ag224
aVexplosion
p225
asg43
g12
sg44
Vlevitate
p226
sbasg94
I00
sg95
g96
sbag1
(g2
g3
Ntp227
Rp228
(dp229
g7
VSpr RG Rocket.png
p230
sg9
VRocket
p231
sg11
g12
sg13
V840
p232
sg15
g103
sg17
g18
sg19
g20
sg21
g22
sg23
(lp233
g1
(g25
g3
Ntp234
Rp235
(dp236
g29
V020
p237
sg31
VRaticate
p238
sg33
g34
sg35
V28
p239
sg37
(lp240
Vquick-attack
p241
aVfocus-energy
p242
aVhyper-fang
p243
aVsuper-fang
p244
asg43
g12
sg44
Vrun-away
p245
sbag1
(g25
g3
Ntp246
Rp247
(dp248
g29
V097
p249
sg31
VHypno
p250
sg33
g34
sg35
V28
p251
sg37
(lp252
Vpsychic
p253
aVhypnosis
p254
aVmeditate
p255
aVpoison-gas
p256
asg43
g12
sg44
Vinsomnia
p257
sbag1
(g25
g3
Ntp258
Rp259
(dp260
g29
V020
p261
sg31
VRaticate
p262
sg33
g34
sg35
V28
p263
sg37
(lp264
Vquick-attack
p265
aVfocus-energy
p266
aVhyper-fang
p267
aVsuper-fang
p268
asg43
g12
sg44
Vguts
p269
sbasg94
I00
sg95
g96
sbag1
(g2
g3
Ntp270
Rp271
(dp272
g7
VSpr RG Scientist.png
p273
sg9
VScientist
p274
sg11
g12
sg13
V1450
p275
sg15
g147
sg17
g18
sg19
g20
sg21
g22
sg23
(lp276
g1
(g25
g3
Ntp277
Rp278
(dp279
g29
V101
p280
sg31
VElectrode
p281
sg33
g34
sg35
V29
p282
sg37
(lp283
Vlight-screen
p284
aVself-destruct
p285
aVswift
p286
aVexplosion
p287
asg43
g12
sg44
Vsoundproof
p288
sbag1
(g25
g3
Ntp289
Rp290
(dp291
g29
V110
p292
sg31
VWeezing
p293
sg33
g34
sg35
V29
p294
sg37
(lp295
Vsmog
p296
aVsludge
p297
ag297
aVexplosion
p298
asg43
g12
sg44
Vlevitate
p299
sbasg94
I00
sg95
g96
sbag1
(g2
g3
Ntp300
Rp301
(dp302
g7
VSpr RG Rocket.png
p303
sg9
VRocket
p304
sg11
g12
sg13
V840
p305
sg15
g103
sg17
g18
sg19
g20
sg21
g22
sg23
(lp306
g1
(g25
g3
Ntp307
Rp308
(dp309
g29
V023
p310
sg31
VEkans
p311
sg33
g34
sg35
V28
p312
sg37
(lp313
Vbite
p314
aVacid
p315
aVscreech
p316
aVglare
p317
asg43
g12
sg44
Vintimidate
p318
sbag1
(g25
g3
Ntp319
Rp320
(dp321
g29
V041
p322
sg31
VZubat
p323
sg33
g34
sg35
V28
p324
sg37
(lp325
Vsupersonic
p326
aVconfuse-ray
p327
aVhaze
p328
aVleech-life
p329
asg43
g12
sg44
Vinner-focus
p330
sbag1
(g25
g3
Ntp331
Rp332
(dp333
g29
V104
p334
sg31
VCubone
p335
sg33
g34
sg35
V28
p336
sg37
(lp337
Vrage
p338
aVfocus-energy
p339
aVbone-club
p340
aVbonemerang
p341
asg43
g12
sg44
Vrock-head
p342
sbasg94
I00
sg95
g96
sbag1
(g2
g3
Ntp343
Rp344
(dp345
g7
VSpr RG Rocket.png
p346
sg9
VRocket
p347
sg11
g12
sg13
V870
p348
sg15
g147
sg17
g18
sg19
g20
sg21
g22
sg23
(lp349
g1
(g25
g3
Ntp350
Rp351
(dp352
g29
V066
p353
sg31
VMachop
p354
sg33
g34
sg35
V29
p355
sg37
(lp356
Vsubmission
p357
aVlow-kick
p358
aVseismic-toss
p359
aVfocus-energy
p360
asg43
g12
sg44
Vguts
p361
sbag1
(g25
g3
Ntp362
Rp363
(dp364
g29
V096
p365
sg31
VDrowzee
p366
sg33
g34
sg35
V29
p367
sg37
(lp368
Vpsychic
p369
aVhypnosis
p370
aVmeditate
p371
aVpoison-gas
p372
asg43
g12
sg44
Vforewarn
p373
sbasg94
I00
sg95
g96
sbag1
(g2
g3
Ntp374
Rp375
(dp376
g7
VSpr RG Scientist.png
p377
sg9
VScientist
p378
sg11
g12
sg13
V1650
p379
sg15
V1
p380
sg17
g18
sg19
g20
sg21
g22
sg23
(lp381
g1
(g25
g3
Ntp382
Rp383
(dp384
g29
V101
p385
sg31
VElectrode
p386
sg33
g34
sg35
V33
p387
sg37
(lp388
Vlight-screen
p389
aVself-destruct
p390
aVswift
p391
aVexplosion
p392
asg43
g12
sg44
Vsoundproof
p393
sbasg94
I00
sg95
g96
sbag1
(g2
g3
Ntp394
Rp395
(dp396
g7
VSpr RG Rocket.png
p397
sg9
VRocket
p398
sg11
g12
sg13
V1015
p399
sg15
g380
sg17
g18
sg19
g20
sg21
g22
sg23
(lp400
g1
(g25
g3
Ntp401
Rp402
(dp403
g29
V097
p404
sg31
VHypno
p405
sg33
g34
sg35
V33
p406
sg37
(lp407
Vpsychic
p408
aVhypnosis
p409
aVmeditate
p410
aVpoison-gas
p411
asg43
g12
sg44
Vforewarn
p412
sbasg94
I00
sg95
g96
sbag1
(g2
g3
Ntp413
Rp414
(dp415
g7
VSpr RG Juggler.png
p416
sg9
VJuggler
p417
sg11
g12
sg13
V1160
p418
sg15
g147
sg17
g18
sg19
g20
sg21
g22
sg23
(lp419
g1
(g25
g3
Ntp420
Rp421
(dp422
g29
V064
p423
sg31
VKadabra
p424
sg33
g34
sg35
V29
p425
sg37
(lp426
Vpsychic
p427
aVteleport
p428
aVrecover
p429
aVreflect
p430
asg43
g12
sg44
Vinner-focus
p431
sbag1
(g25
g3
Ntp432
Rp433
(dp434
g29
V122
p435
sg31
VMr. Mime
p436
sg33
g34
sg35
V29
p437
sg37
(lp438
Vmeditate
p439
aVbarrier
p440
aVlight-screen
p441
aVsubstitute
p442
asg43
g12
sg44
Vfilter
p443
sbasg94
I00
sg95
g96
sbag1
(g2
g3
Ntp444
Rp445
(dp446
g7
VSpr RG Scientist.png
p447
sg9
VScientist
p448
sg11
g12
sg13
V1450
p449
sg15
g179
sg17
g18
sg19
g20
sg21
g22
sg23
(lp450
g1
(g25
g3
Ntp451
Rp452
(dp453
g29
V082
p454
sg31
VMagneton
p455
sg33
g34
sg35
V26
p456
sg37
(lp457
Vthunder-shock
p458
aVthunder-wave
p459
aVscreech
p460
aVswift
p461
asg43
g12
sg44
Vsturdy
p462
sbag1
(g25
g3
Ntp463
Rp464
(dp465
g29
V109
p466
sg31
VKoffing
p467
sg33
g34
sg35
V26
p468
sg37
(lp469
Vself-destruct
p470
aVsmog
p471
aVsludge
p472
aVexplosion
p473
asg43
g12
sg44
Vlevitate
p474
sbag1
(g25
g3
Ntp475
Rp476
(dp477
g29
V110
p478
sg31
VWeezing
p479
sg33
g34
sg35
V26
p480
sg37
(lp481
Vsmog
p482
aVsludge
p483
ag483
aVexplosion
p484
asg43
g12
sg44
Vlevitate
p485
sbag1
(g25
g3
Ntp486
Rp487
(dp488
g29
V081
p489
sg31
VMagnemite
p490
sg33
g34
sg35
V26
p491
sg37
(lp492
Vthunder-shock
p493
aVthunder-wave
p494
aVscreech
p495
aVswift
p496
asg43
g12
sg44
Vmagnet-pull
p497
sbasg94
I00
sg95
g96
sbag1
(g2
g3
Ntp498
Rp499
(dp500
g7
VSpr RG Rocket.png
p501
sg9
VRocket
p502
sg11
g12
sg13
V990
p503
sg15
g380
sg17
g18
sg19
g20
sg21
g22
sg23
(lp504
g1
(g25
g3
Ntp505
Rp506
(dp507
g29
V024
p508
sg31
VArbok
p509
sg33
g34
sg35
V33
p510
sg37
(lp511
Vbite
p512
aVacid
p513
aVscreech
p514
aVglare
p515
asg43
g12
sg44
Vintimidate
p516
sbasg94
I00
sg95
g96
sbag1
(g2
g3
Ntp517
Rp518
(dp519
g7
VSpr RG Rocket.png
p520
sg9
VRocket
p521
sg11
g12
sg13
V870
p522
sg15
g147
sg17
g18
sg19
g20
sg21
g22
sg23
(lp523
g1
(g25
g3
Ntp524
Rp525
(dp526
g29
V066
p527
sg31
VMachop
p528
sg33
g34
sg35
V29
p529
sg37
(lp530
Vsubmission
p531
aVlow-kick
p532
aVseismic-toss
p533
aVfocus-energy
p534
asg43
g12
sg44
Vguts
p535
sbag1
(g25
g3
Ntp536
Rp537
(dp538
g29
V067
p539
sg31
VMachoke
p540
sg33
g34
sg35
V29
p541
sg37
(lp542
Vlow-kick
p543
ag543
aVseismic-toss
p544
aVfocus-energy
p545
asg43
g12
sg44
Vguts
p546
sbasg94
I00
sg95
g96
sbag1
(g2
g3
Ntp547
Rp548
(dp549
g7
VSpr RG Rocket.png
p550
sg9
VRocket
p551
sg11
g12
sg13
V840
p552
sg15
g103
sg17
g18
sg19
g20
sg21
g22
sg23
(lp553
g1
(g25
g3
Ntp554
Rp555
(dp556
g29
V041
p557
sg31
VZubat
p558
sg33
g34
sg35
V28
p559
sg37
(lp560
Vsupersonic
p561
aVconfuse-ray
p562
aVhaze
p563
aVleech-life
p564
asg43
g12
sg44
Vinner-focus
p565
sbag1
(g25
g3
Ntp566
Rp567
(dp568
g29
V041
p569
sg31
VZubat
p570
sg33
g34
sg35
V28
p571
sg37
(lp572
Vsupersonic
p573
aVconfuse-ray
p574
aVhaze
p575
aVleech-life
p576
asg43
g12
sg44
Vinner-focus
p577
sbag1
(g25
g3
Ntp578
Rp579
(dp580
g29
V042
p581
sg31
VGolbat
p582
sg33
g34
sg35
V28
p583
sg37
(lp584
Vscreech
p585
aVconfuse-ray
p586
aVhaze
p587
aVleech-life
p588
asg43
g12
sg44
Vinner-focus
p589
sbasg94
I00
sg95
g96
sbag1
(g2
g3
Ntp590
Rp591
(dp592
g7
VSpr RG Scientist.png
p593
sg9
VScientist
p594
sg11
g12
sg13
V1250
p595
sg15
g16
sg17
g18
sg19
g20
sg21
g22
sg23
(lp596
g1
(g25
g3
Ntp597
Rp598
(dp599
g29
V100
p600
sg31
VVoltorb
p601
sg33
g34
sg35
V25
p602
sg37
(lp603
Vlight-screen
p604
aVself-destruct
p605
aVswift
p606
aVexplosion
p607
asg43
g12
sg44
Vstatic
p608
sbag1
(g25
g3
Ntp609
Rp610
(dp611
g29
V109
p612
sg31
VKoffing
p613
sg33
g34
sg35
V25
p614
sg37
(lp615
Vself-destruct
p616
aVsmog
p617
aVsludge
p618
aVexplosion
p619
asg43
g12
sg44
Vlevitate
p620
sbag1
(g25
g3
Ntp621
Rp622
(dp623
g29
V082
p624
sg31
VMagneton
p625
sg33
g34
sg35
V25
p626
sg37
(lp627
Vthunder-shock
p628
aVthunder-wave
p629
aVscreech
p630
aVswift
p631
asg43
g12
sg44
Vsturdy
p632
sbag1
(g25
g3
Ntp633
Rp634
(dp635
g29
V081
p636
sg31
VMagnemite
p637
sg33
g34
sg35
V25
p638
sg37
(lp639
Vthunder-shock
p640
aVthunder-wave
p641
aVscreech
p642
aVswift
p643
asg43
g12
sg44
Vmagnet-pull
p644
sbag1
(g25
g3
Ntp645
Rp646
(dp647
g29
V109
p648
sg31
VKoffing
p649
sg33
g34
sg35
V25
p650
sg37
(lp651
Vself-destruct
p652
aVsmog
p653
aVsludge
p654
aVexplosion
p655
asg43
g12
sg44
Vlevitate
p656
sbasg94
I00
sg95
g96
sbag1
(g2
g3
Ntp657
Rp658
(dp659
g7
VSpr RG Rocket.png
p660
sg9
VRocket
p661
sg11
g12
sg13
V870
p662
sg15
g147
sg17
g18
sg19
g20
sg21
g22
sg23
(lp663
g1
(g25
g3
Ntp664
Rp665
(dp666
g29
V104
p667
sg31
VCubone
p668
sg33
g34
sg35
V29
p669
sg37
(lp670
Vrage
p671
aVfocus-energy
p672
aVbone-club
p673
aVbonemerang
p674
asg43
g12
sg44
Vrock-head
p675
sbag1
(g25
g3
Ntp676
Rp677
(dp678
g29
V104
p679
sg31
VCubone
p680
sg33
g34
sg35
V29
p681
sg37
(lp682
Vrage
p683
aVfocus-energy
p684
aVbone-club
p685
aVbonemerang
p686
asg43
g12
sg44
Vlightning-rod
p687
sbasg94
I00
sg95
g96
sbag1
(g2
g3
Ntp688
Rp689
(dp690
g7
VSpr RG Rocket.png
p691
sg9
VRocket
p692
sg11
g12
sg13
V780
p693
sg15
g179
sg17
g18
sg19
g20
sg21
g22
sg23
(lp694
g1
(g25
g3
Ntp695
Rp696
(dp697
g29
V020
p698
sg31
VRaticate
p699
sg33
g34
sg35
V26
p700
sg37
(lp701
Vquick-attack
p702
aVfocus-energy
p703
aVhyper-fang
p704
aVsuper-fang
p705
asg43
g12
sg44
Vguts
p706
sbag1
(g25
g3
Ntp707
Rp708
(dp709
g29
V024
p710
sg31
VArbok
p711
sg33
g34
sg35
V26
p712
sg37
(lp713
Vbite
p714
aVacid
p715
aVscreech
p716
aVglare
p717
asg43
g12
sg44
Vintimidate
p718
sbag1
(g25
g3
Ntp719
Rp720
(dp721
g29
V109
p722
sg31
VKoffing
p723
sg33
g34
sg35
V26
p724
sg37
(lp725
Vself-destruct
p726
aVsmog
p727
aVsludge
p728
aVexplosion
p729
asg43
g12
sg44
Vlevitate
p730
sbag1
(g25
g3
Ntp731
Rp732
(dp733
g29
V042
p734
sg31
VGolbat
p735
sg33
g34
sg35
V26
p736
sg37
(lp737
Vscreech
p738
aVconfuse-ray
p739
aVhaze
p740
aVleech-life
p741
asg43
g12
sg44
Vinner-focus
p742
sbasg94
I00
sg95
g96
sbag1
(g2
g3
Ntp743
Rp744
(dp745
g7
VSpr RG Scientist.png
p746
sg9
VScientist
p747
sg11
g12
sg13
V1450
p748
sg15
g147
sg17
g18
sg19
g20
sg21
g22
sg23
(lp749
g1
(g25
g3
Ntp750
Rp751
(dp752
g29
V101
p753
sg31
VElectrode
p754
sg33
g34
sg35
V29
p755
sg37
(lp756
Vlight-screen
p757
aVself-destruct
p758
aVswift
p759
aVexplosion
p760
asg43
g12
sg44
Vstatic
p761
sbag1
(g25
g3
Ntp762
Rp763
(dp764
g29
V089
p765
sg31
VMuk
p766
sg33
g34
sg35
V29
p767
sg37
(lp768
Vsludge
p769
aVpoison-gas
p770
ag770
aVacid-armor
p771
asg43
g12
sg44
Vstench
p772
sbasg94
I00
sg95
g96
sbag1
(g2
g3
Ntp773
Rp774
(dp775
g7
VSpr RG Rocket.png
p776
sg9
VRocket
p777
sg11
g12
sg13
V840
p778
sg15
g147
sg17
g18
sg19
g20
sg21
g22
sg23
(lp779
g1
(g25
g3
Ntp780
Rp781
(dp782
g29
V027
p783
sg31
VSandshrew
p784
sg33
g34
sg35
V29
p785
sg37
(lp786
Vpoison-sting
p787
aVswift
p788
aVfury-swipes
p789
aVslash
p790
asg43
g12
sg44
Vsand-veil
p791
sbag1
(g25
g3
Ntp792
Rp793
(dp794
g29
V028
p795
sg31
VSandslash
p796
sg33
g34
sg35
V29
p797
sg37
(lp798
Vpoison-sting
p799
aVswift
p800
aVfury-swipes
p801
aVslash
p802
asg43
g12
sg44
Vsand-veil
p803
sbasg94
I00
sg95
g96
sbag1
(g2
g3
Ntp804
Rp805
(dp806
g7
VSpr RG Rocket.png
p807
sg9
VRocket
p808
sg11
g12
sg13
V780
p809
sg15
g179
sg17
g18
sg19
g20
sg21
g22
sg23
(lp810
g1
(g25
g3
Ntp811
Rp812
(dp813
g29
V020
p814
sg31
VRaticate
p815
sg33
g34
sg35
V26
p816
sg37
(lp817
Vquick-attack
p818
aVfocus-energy
p819
aVhyper-fang
p820
aVsuper-fang
p821
asg43
g12
sg44
Vrun-away
p822
sbag1
(g25
g3
Ntp823
Rp824
(dp825
g29
V041
p826
sg31
VZubat
p827
sg33
g34
sg35
V26
p828
sg37
(lp829
Vsupersonic
p830
aVconfuse-ray
p831
aVhaze
p832
aVleech-life
p833
asg43
g12
sg44
Vinner-focus
p834
sbag1
(g25
g3
Ntp835
Rp836
(dp837
g29
V042
p838
sg31
VGolbat
p839
sg33
g34
sg35
V26
p840
sg37
(lp841
Vscreech
p842
aVconfuse-ray
p843
aVhaze
p844
aVleech-life
p845
asg43
g12
sg44
Vinner-focus
p846
sbag1
(g25
g3
Ntp847
Rp848
(dp849
g29
V019
p850
sg31
VRattata
p851
sg33
g34
sg35
V26
p852
sg37
(lp853
Vquick-attack
p854
aVfocus-energy
p855
aVhyper-fang
p856
aVsuper-fang
p857
asg43
g12
sg44
Vguts
p858
sbasg94
I00
sg95
g96
sbag1
(g2
g3
Ntp859
Rp860
(dp861
g7
VSpr RG Rocket.png
p862
sg9
VRocket
p863
sg11
g12
sg13
V840
p864
sg15
g103
sg17
g18
sg19
g20
sg21
g22
sg23
(lp865
g1
(g25
g3
Ntp866
Rp867
(dp868
g29
V110
p869
sg31
VWeezing
p870
sg33
g34
sg35
V28
p871
sg37
(lp872
Vsmog
p873
aVsludge
p874
ag874
aVexplosion
p875
asg43
g12
sg44
Vlevitate
p876
sbag1
(g25
g3
Ntp877
Rp878
(dp879
g29
V042
p880
sg31
VGolbat
p881
sg33
g34
sg35
V28
p882
sg37
(lp883
Vscreech
p884
aVconfuse-ray
p885
aVhaze
p886
aVleech-life
p887
asg43
g12
sg44
Vinner-focus
p888
sbag1
(g25
g3
Ntp889
Rp890
(dp891
g29
V109
p892
sg31
VKoffing
p893
sg33
g34
sg35
V28
p894
sg37
(lp895
Vself-destruct
p896
aVsmog
p897
aVsludge
p898
aVexplosion
p899
asg43
g12
sg44
Vlevitate
p900
sbasg94
I00
sg95
g96
sbag1
(g2
g3
Ntp901
Rp902
(dp903
g7
VSpr RG Scientist.png
p904
sg9
VScientist
p905
sg11
g12
sg13
V1450
p906
sg15
g147
sg17
g18
sg19
g20
sg21
g22
sg23
(lp907
g1
(g25
g3
Ntp908
Rp909
(dp910
g29
V088
p911
sg31
VGrimer
p912
sg33
g34
sg35
V29
p913
sg37
(lp914
Vminimize
p915
aVsludge
p916
aVpoison-gas
p917
aVacid-armor
p918
asg43
g12
sg44
Vstench
p919
sbag1
(g25
g3
Ntp920
Rp921
(dp922
g29
V101
p923
sg31
VElectrode
p924
sg33
g34
sg35
V29
p925
sg37
(lp926
Vlight-screen
p927
aVself-destruct
p928
aVswift
p929
aVexplosion
p930
asg43
g12
sg44
Vstatic
p931
sbasg94
I00
sg95
g96
sbag1
(g2
g3
Ntp932
Rp933
(dp934
g7
VSpr RG Rocket.png
p935
sg9
VRocket
p936
sg11
g12
sg13
V840
p937
sg15
g103
sg17
g18
sg19
g20
sg21
g22
sg23
(lp938
g1
(g25
g3
Ntp939
Rp940
(dp941
g29
V042
p942
sg31
VGolbat
p943
sg33
g34
sg35
V28
p944
sg37
(lp945
Vscreech
p946
aVconfuse-ray
p947
aVhaze
p948
aVleech-life
p949
asg43
g12
sg44
Vinner-focus
p950
sbag1
(g25
g3
Ntp951
Rp952
(dp953
g29
V096
p954
sg31
VDrowzee
p955
sg33
g34
sg35
V28
p956
sg37
(lp957
Vpsychic
p958
aVhypnosis
p959
aVmeditate
p960
aVpoison-gas
p961
asg43
g12
sg44
Vforewarn
p962
sbag1
(g25
g3
Ntp963
Rp964
(dp965
g29
V097
p966
sg31
VHypno
p967
sg33
g34
sg35
V28
p968
sg37
(lp969
Vpsychic
p970
aVhypnosis
p971
aVmeditate
p972
aVpoison-gas
p973
asg43
g12
sg44
Vforewarn
p974
sbasg94
I00
sg95
g96
sbag1
(g2
g3
Ntp975
Rp976
(dp977
g7
VSpr RG Rocket.png
p978
sg9
VRocket
p979
sg11
g12
sg13
V840
p980
sg15
g103
sg17
g18
sg19
g20
sg21
g22
sg23
(lp981
g1
(g25
g3
Ntp982
Rp983
(dp984
g29
V096
p985
sg31
VDrowzee
p986
sg33
g34
sg35
V28
p987
sg37
(lp988
Vpsychic
p989
aVhypnosis
p990
aVmeditate
p991
aVpoison-gas
p992
asg43
g12
sg44
Vforewarn
p993
sbag1
(g25
g3
Ntp994
Rp995
(dp996
g29
V088
p997
sg31
VGrimer
p998
sg33
g34
sg35
V28
p999
sg37
(lp1000
Vminimize
p1001
aVsludge
p1002
aVpoison-gas
p1003
aVacid-armor
p1004
asg43
g12
sg44
Vstench
p1005
sbag1
(g25
g3
Ntp1006
Rp1007
(dp1008
g29
V066
p1009
sg31
VMachop
p1010
sg33
g34
sg35
V28
p1011
sg37
(lp1012
Vsubmission
p1013
aVlow-kick
p1014
aVseismic-toss
p1015
aVfocus-energy
p1016
asg43
g12
sg44
Vno-guard
p1017
sbasg94
I00
sg95
g96
sbag1
(g2
g3
Ntp1018
Rp1019
(dp1020
g7
VSpr RG Scientist.png
p1021
sg9
VScientist
p1022
sg11
g12
sg13
V1400
p1023
sg15
g103
sg17
g18
sg19
g20
sg21
g22
sg23
(lp1024
g1
(g25
g3
Ntp1025
Rp1026
(dp1027
g29
V100
p1028
sg31
VVoltorb
p1029
sg33
g34
sg35
V28
p1030
sg37
(lp1031
Vlight-screen
p1032
aVself-destruct
p1033
aVswift
p1034
aVexplosion
p1035
asg43
g12
sg44
Vsoundproof
p1036
sbag1
(g25
g3
Ntp1037
Rp1038
(dp1039
g29
V109
p1040
sg31
VKoffing
p1041
sg33
g34
sg35
V28
p1042
sg37
(lp1043
Vself-destruct
p1044
aVsmog
p1045
aVsludge
p1046
aVexplosion
p1047
asg43
g12
sg44
Vlevitate
p1048
sbag1
(g25
g3
Ntp1049
Rp1050
(dp1051
g29
V082
p1052
sg31
VMagneton
p1053
sg33
g34
sg35
V28
p1054
sg37
(lp1055
Vthunder-shock
p1056
aVthunder-wave
p1057
aVscreech
p1058
aVswift
p1059
asg43
g12
sg44
Vmagnet-pull
p1060
sbasg94
I00
sg95
g96
sbag1
(g2
g3
Ntp1061
Rp1062
(dp1063
g7
VSpr RG Scientist.png
p1064
sg9
VScientist
p1065
sg11
g12
sg13
V1450
p1066
sg15
g147
sg17
g18
sg19
g20
sg21
g22
sg23
(lp1067
g1
(g25
g3
Ntp1068
Rp1069
(dp1070
g29
V081
p1071
sg31
VMagnemite
p1072
sg33
g34
sg35
V29
p1073
sg37
(lp1074
Vthunder-shock
p1075
aVthunder-wave
p1076
aVscreech
p1077
aVswift
p1078
asg43
g12
sg44
Vmagnet-pull
p1079
sbag1
(g25
g3
Ntp1080
Rp1081
(dp1082
g29
V109
p1083
sg31
VKoffing
p1084
sg33
g34
sg35
V29
p1085
sg37
(lp1086
Vself-destruct
p1087
aVsmog
p1088
aVsludge
p1089
aVexplosion
p1090
asg43
g12
sg44
Vlevitate
p1091
sbasg94
I00
sg95
g96
sbag1
(g2
g3
Ntp1092
Rp1093
(dp1094
g7
VSpr RG Rocket.png
p1095
sg9
VRocket
p1096
sg11
g12
sg13
V840
p1097
sg15
g380
sg17
g18
sg19
g20
sg21
g22
sg23
(lp1098
g1
(g25
g3
Ntp1099
Rp1100
(dp1101
g29
V067
p1102
sg31
VMachoke
p1103
sg33
g34
sg35
V33
p1104
sg37
(lp1105
Vlow-kick
p1106
ag1106
aVseismic-toss
p1107
aVfocus-energy
p1108
asg43
g12
sg44
Vguts
p1109
sbasg94
I00
sg95
g96
sbag1
(g2
g3
Ntp1110
Rp1111
(dp1112
g7
VSpr RG Rocket.png
p1113
sg9
VRocket
p1114
sg11
g12
sg13
V750
p1115
sg15
g16
sg17
g18
sg19
g20
sg21
g22
sg23
(lp1116
g1
(g25
g3
Ntp1117
Rp1118
(dp1119
g29
V019
p1120
sg31
VRattata
p1121
sg33
g34
sg35
V25
p1122
sg37
(lp1123
Vquick-attack
p1124
aVfocus-energy
p1125
aVhyper-fang
p1126
aVsuper-fang
p1127
asg43
g12
sg44
Vguts
p1128
sbag1
(g25
g3
Ntp1129
Rp1130
(dp1131
g29
V019
p1132
sg31
VRattata
p1133
sg33
g34
sg35
V25
p1134
sg37
(lp1135
Vquick-attack
p1136
aVfocus-energy
p1137
aVhyper-fang
p1138
aVsuper-fang
p1139
asg43
g12
sg44
Vguts
p1140
sbag1
(g25
g3
Ntp1141
Rp1142
(dp1143
g29
V041
p1144
sg31
VZubat
p1145
sg33
g34
sg35
V25
p1146
sg37
(lp1147
Vsupersonic
p1148
aVconfuse-ray
p1149
aVhaze
p1150
aVleech-life
p1151
asg43
g12
sg44
Vinner-focus
p1152
sbag1
(g25
g3
Ntp1153
Rp1154
(dp1155
g29
V019
p1156
sg31
VRattata
p1157
sg33
g34
sg35
V25
p1158
sg37
(lp1159
Vquick-attack
p1160
aVfocus-energy
p1161
aVhyper-fang
p1162
aVsuper-fang
p1163
asg43
g12
sg44
Vguts
p1164
sbag1
(g25
g3
Ntp1165
Rp1166
(dp1167
g29
V023
p1168
sg31
VEkans
p1169
sg33
g34
sg35
V25
p1170
sg37
(lp1171
Vbite
p1172
aVacid
p1173
aVscreech
p1174
aVglare
p1175
asg43
g12
sg44
Vshed-skin
p1176
sbasg94
I00
sg95
g96
sbag1
(g2
g3
Ntp1177
Rp1178
(dp1179
g7
VSpr RG Rocket.png
p1180
sg9
VRocket
p1181
sg11
V{{sup/1|RB}}
p1182
sg13
V960
p1183
sg15
g103
sg17
g18
sg19
g20
sg21
g22
sg23
(lp1184
g1
(g25
g3
Ntp1185
Rp1186
(dp1187
g29
V104
p1188
sg31
VCubone
p1189
sg33
g34
sg35
V32
p1190
sg37
(lp1191
Vrage
p1192
aVfocus-energy
p1193
aVbone-club
p1194
aVbonemerang
p1195
asg43
g12
sg44
Vlightning-rod
p1196
sbag1
(g25
g3
Ntp1197
Rp1198
(dp1199
g29
V096
p1200
sg31
VDrowzee
p1201
sg33
g34
sg35
V32
p1202
sg37
(lp1203
Vpsychic
p1204
aVhypnosis
p1205
aVmeditate
p1206
aVpoison-gas
p1207
asg43
g12
sg44
Vforewarn
p1208
sbag1
(g25
g3
Ntp1209
Rp1210
(dp1211
g29
V105
p1212
sg31
VMarowak
p1213
sg33
g34
sg35
V32
p1214
sg37
(lp1215
Vfocus-energy
p1216
ag1216
aVbone-club
p1217
aVbonemerang
p1218
asg43
g12
sg44
Vrock-head
p1219
sbasg94
I00
sg95
g96
sbag1
(g2
g3
Ntp1220
Rp1221
(dp1222
g7
VSpr FRLG Team Rocket Grunt M.png
p1223
sg9
VTeam Rocket Grunt
p1224
sg11
g12
sg13
V800
p1225
sg15
g16
sg17
g18
sg19
g20
sg21
VFRLG
p1226
sg23
(lp1227
g1
(g25
g3
Ntp1228
Rp1229
(dp1230
g29
V042
p1231
sg31
VGolbat
p1232
sg33
VM
p1233
sg35
V25
p1234
sg37
(lp1235
Vpoison-fang
p1236
aVastonish
p1237
ag1237
aVair-cutter
p1238
asg43
g12
sg44
Vinner-focus
p1239
sbag1
(g25
g3
Ntp1240
Rp1241
(dp1242
g29
V041
p1243
sg31
VZubat
p1244
sg33
g1233
sg35
V25
p1245
sg37
(lp1246
Vmean-look
p1247
aVpoison-fang
p1248
aVastonish
p1249
aVair-cutter
p1250
asg43
g12
sg44
Vinner-focus
p1251
sbag1
(g25
g3
Ntp1252
Rp1253
(dp1254
g29
V041
p1255
sg31
VZubat
p1256
sg33
g1233
sg35
V25
p1257
sg37
(lp1258
Vmean-look
p1259
aVpoison-fang
p1260
aVastonish
p1261
aVair-cutter
p1262
asg43
g12
sg44
Vinner-focus
p1263
sbag1
(g25
g3
Ntp1264
Rp1265
(dp1266
g29
V020
p1267
sg31
VRaticate
p1268
sg33
g1233
sg35
V25
p1269
sg37
(lp1270
Vsuper-fang
p1271
aVscary-face
p1272
aVpursuit
p1273
aVendeavor
p1274
asg43
g12
sg44
Vguts
p1275
sbag1
(g25
g3
Ntp1276
Rp1277
(dp1278
g29
V041
p1279
sg31
VZubat
p1280
sg33
g1233
sg35
V25
p1281
sg37
(lp1282
Vmean-look
p1283
aVpoison-fang
p1284
aVastonish
p1285
aVair-cutter
p1286
asg43
g12
sg44
Vinner-focus
p1287
sbasg94
I00
sg95
Vfirered-leafgreen
p1288
sbag1
(g2
g3
Ntp1289
Rp1290
(dp1291
g7
VSpr FRLG Scientist.png
p1292
sg9
VScientist
p1293
sg11
VJerry
p1294
sg13
V1344
p1295
sg15
g103
sg17
g18
sg19
g20
sg21
g1226
sg23
(lp1296
g1
(g25
g3
Ntp1297
Rp1298
(dp1299
g29
V081
p1300
sg31
VMagnemite
p1301
sg33
g34
sg35
V28
p1302
sg37
(lp1303
Vzap-cannon
p1304
aVlock-on
p1305
aVspark
p1306
aVmetal-sound
p1307
asg43
g12
sg44
Vmagnet-pull
p1308
sbag1
(g25
g3
Ntp1309
Rp1310
(dp1311
g29
V100
p1312
sg31
VVoltorb
p1313
sg33
g34
sg35
V28
p1314
sg37
(lp1315
Vrollout
p1316
aVspark
p1317
aVmirror-coat
p1318
aVcharge
p1319
asg43
g12
sg44
Vsoundproof
p1320
sbag1
(g25
g3
Ntp1321
Rp1322
(dp1323
g29
V082
p1324
sg31
VMagneton
p1325
sg33
g34
sg35
V28
p1326
sg37
(lp1327
Vzap-cannon
p1328
aVlock-on
p1329
aVspark
p1330
aVmetal-sound
p1331
asg43
g12
sg44
Vmagnet-pull
p1332
sbasg94
I00
sg95
g1288
sbag1
(g2
g3
Ntp1333
Rp1334
(dp1335
g7
VSpr FRLG Team Rocket Grunt M.png
p1336
sg9
VTeam Rocket Grunt
p1337
sg11
g12
sg13
V928
p1338
sg15
g147
sg17
g18
sg19
g20
sg21
g1226
sg23
(lp1339
g1
(g25
g3
Ntp1340
Rp1341
(dp1342
g29
V104
p1343
sg31
VCubone
p1344
sg33
g1233
sg35
V29
p1345
sg37
(lp1346
Vbone-club
p1347
aVbonemerang
p1348
aVbone-rush
p1349
aVfalse-swipe
p1350
asg43
g12
sg44
Vrock-head
p1351
sbag1
(g25
g3
Ntp1352
Rp1353
(dp1354
g29
V041
p1355
sg31
VZubat
p1356
sg33
g1233
sg35
V29
p1357
sg37
(lp1358
Vmean-look
p1359
aVpoison-fang
p1360
aVastonish
p1361
aVair-cutter
p1362
asg43
g12
sg44
Vinner-focus
p1363
sbasg94
I00
sg95
g1288
sbag1
(g2
g3
Ntp1364
Rp1365
(dp1366
g7
VSpr FRLG Scientist.png
p1367
sg9
VScientist
p1368
sg11
VConnor
p1369
sg13
V1248
p1370
sg15
g179
sg17
g18
sg19
g20
sg21
g1226
sg23
(lp1371
g1
(g25
g3
Ntp1372
Rp1373
(dp1374
g29
V088
p1375
sg31
VGrimer
p1376
sg33
g1233
sg35
V26
p1377
sg37
(lp1378
Vpoison-gas
p1379
aVacid-armor
p1380
aVsludge-bomb
p1381
aVmemento
p1382
asg43
g12
sg44
Vsticky-hold
p1383
sbag1
(g25
g3
Ntp1384
Rp1385
(dp1386
g29
V110
p1387
sg31
VWeezing
p1388
sg33
g1233
sg35
V26
p1389
sg37
(lp1390
Vpoison-gas
p1391
aVexplosion
p1392
aVdestiny-bond
p1393
aVmemento
p1394
asg43
g12
sg44
Vlevitate
p1395
sbag1
(g25
g3
Ntp1396
Rp1397
(dp1398
g29
V109
p1399
sg31
VKoffing
p1400
sg33
g1233
sg35
V26
p1401
sg37
(lp1402
Vpoison-gas
p1403
aVexplosion
p1404
aVdestiny-bond
p1405
aVmemento
p1406
asg43
g12
sg44
Vlevitate
p1407
sbag1
(g25
g3
Ntp1408
Rp1409
(dp1410
g29
V110
p1411
sg31
VWeezing
p1412
sg33
g1233
sg35
V26
p1413
sg37
(lp1414
Vpoison-gas
p1415
aVexplosion
p1416
aVdestiny-bond
p1417
aVmemento
p1418
asg43
g12
sg44
Vlevitate
p1419
sbasg94
I00
sg95
g1288
sbag1
(g2
g3
Ntp1420
Rp1421
(dp1422
g7
VSpr FRLG Team Rocket Grunt M.png
p1423
sg9
VTeam Rocket Grunt
p1424
sg11
g12
sg13
V896
p1425
sg15
g103
sg17
g18
sg19
g20
sg21
g1226
sg23
(lp1426
g1
(g25
g3
Ntp1427
Rp1428
(dp1429
g29
V020
p1430
sg31
VRaticate
p1431
sg33
g1233
sg35
V28
p1432
sg37
(lp1433
Vsuper-fang
p1434
aVscary-face
p1435
aVpursuit
p1436
aVendeavor
p1437
asg43
g12
sg44
Vguts
p1438
sbag1
(g25
g3
Ntp1439
Rp1440
(dp1441
g29
V097
p1442
sg31
VHypno
p1443
sg33
g1233
sg35
V28
p1444
sg37
(lp1445
Vnightmare
p1446
aVswagger
p1447
aVpsych-up
p1448
aVfuture-sight
p1449
asg43
g12
sg44
Vinsomnia
p1450
sbag1
(g25
g3
Ntp1451
Rp1452
(dp1453
g29
V020
p1454
sg31
VRaticate
p1455
sg33
g1233
sg35
V28
p1456
sg37
(lp1457
Vsuper-fang
p1458
aVscary-face
p1459
aVpursuit
p1460
aVendeavor
p1461
asg43
g12
sg44
Vrun-away
p1462
sbasg94
I00
sg95
g1288
sbag1
(g2
g3
Ntp1463
Rp1464
(dp1465
g7
VSpr FRLG Scientist.png
p1466
sg9
VScientist
p1467
sg11
VJose
p1468
sg13
V1392
p1469
sg15
g147
sg17
g18
sg19
g20
sg21
g1226
sg23
(lp1470
g1
(g25
g3
Ntp1471
Rp1472
(dp1473
g29
V101
p1474
sg31
VElectrode
p1475
sg33
g34
sg35
V29
p1476
sg37
(lp1477
Vrollout
p1478
aVspark
p1479
aVmirror-coat
p1480
aVcharge
p1481
asg43
g12
sg44
Vsoundproof
p1482
sbag1
(g25
g3
Ntp1483
Rp1484
(dp1485
g29
V110
p1486
sg31
VWeezing
p1487
sg33
g1233
sg35
V29
p1488
sg37
(lp1489
Vpoison-gas
p1490
aVexplosion
p1491
aVdestiny-bond
p1492
aVmemento
p1493
asg43
g12
sg44
Vlevitate
p1494
sbasg94
I00
sg95
g1288
sbag1
(g2
g3
Ntp1495
Rp1496
(dp1497
g7
VSpr FRLG Team Rocket Grunt M.png
p1498
sg9
VTeam Rocket Grunt
p1499
sg11
g12
sg13
V896
p1500
sg15
g103
sg17
g18
sg19
g20
sg21
g1226
sg23
(lp1501
g1
(g25
g3
Ntp1502
Rp1503
(dp1504
g29
V023
p1505
sg31
VEkans
p1506
sg33
g1233
sg35
V28
p1507
sg37
(lp1508
Vglare
p1509
aVstockpile
p1510
aVspit-up
p1511
aVswallow
p1512
asg43
g12
sg44
Vintimidate
p1513
sbag1
(g25
g3
Ntp1514
Rp1515
(dp1516
g29
V041
p1517
sg31
VZubat
p1518
sg33
g1233
sg35
V28
p1519
sg37
(lp1520
Vmean-look
p1521
aVpoison-fang
p1522
aVastonish
p1523
aVair-cutter
p1524
asg43
g12
sg44
Vinner-focus
p1525
sbag1
(g25
g3
Ntp1526
Rp1527
(dp1528
g29
V104
p1529
sg31
VCubone
p1530
sg33
g1233
sg35
V28
p1531
sg37
(lp1532
Vbone-club
p1533
aVbonemerang
p1534
aVbone-rush
p1535
aVfalse-swipe
p1536
asg43
g12
sg44
Vrock-head
p1537
sbasg94
I00
sg95
g1288
sbag1
(g2
g3
Ntp1538
Rp1539
(dp1540
g7
VSpr FRLG Team Rocket Grunt M.png
p1541
sg9
VTeam Rocket Grunt
p1542
sg11
g12
sg13
V928
p1543
sg15
g147
sg17
g18
sg19
g20
sg21
g1226
sg23
(lp1544
g1
(g25
g3
Ntp1545
Rp1546
(dp1547
g29
V066
p1548
sg31
VMachop
p1549
sg33
g1233
sg35
V29
p1550
sg37
(lp1551
Vdynamic-punch
p1552
aVvital-throw
p1553
aVcross-chop
p1554
aVrevenge
p1555
asg43
g12
sg44
Vno-guard
p1556
sbag1
(g25
g3
Ntp1557
Rp1558
(dp1559
g29
V096
p1560
sg31
VDrowzee
p1561
sg33
g1233
sg35
V29
p1562
sg37
(lp1563
Vpoison-gas
p1564
aVswagger
p1565
aVpsych-up
p1566
aVfuture-sight
p1567
asg43
g12
sg44
Vforewarn
p1568
sbasg94
I00
sg95
g1288
sbag1
(g2
g3
Ntp1569
Rp1570
(dp1571
g7
VSpr FRLG Scientist.png
p1572
sg9
VScientist
p1573
sg11
VRodney
p1574
sg13
V1584
p1575
sg15
g380
sg17
g18
sg19
g20
sg21
g1226
sg23
(lp1576
g1
(g25
g3
Ntp1577
Rp1578
(dp1579
g29
V101
p1580
sg31
VElectrode
p1581
sg33
g34
sg35
V33
p1582
sg37
(lp1583
Vrollout
p1584
aVspark
p1585
aVmirror-coat
p1586
aVcharge
p1587
asg43
g12
sg44
Vstatic
p1588
sbasg94
I00
sg95
g1288
sbag1
(g2
g3
Ntp1589
Rp1590
(dp1591
g7
VSpr FRLG Team Rocket Grunt M.png
p1592
sg9
VTeam Rocket Grunt
p1593
sg11
g12
sg13
V1056
p1594
sg15
g380
sg17
g18
sg19
g20
sg21
g1226
sg23
(lp1595
g1
(g25
g3
Ntp1596
Rp1597
(dp1598
g29
V097
p1599
sg31
VHypno
p1600
sg33
g1233
sg35
V33
p1601
sg37
(lp1602
Vnightmare
p1603
aVswagger
p1604
aVpsych-up
p1605
aVfuture-sight
p1606
asg43
g12
sg44
Vinsomnia
p1607
sbasg94
I00
sg95
g1288
sbag1
(g2
g3
Ntp1608
Rp1609
(dp1610
g7
VSpr FRLG Juggler.png
p1611
sg9
VJuggler
p1612
sg11
VDalton
p1613
sg13
V1160
p1614
sg15
g147
sg17
g18
sg19
g20
sg21
g1226
sg23
(lp1615
g1
(g25
g3
Ntp1616
Rp1617
(dp1618
g29
V064
p1619
sg31
VKadabra
p1620
sg33
g1233
sg35
V29
p1621
sg37
(lp1622
Vkinesis
p1623
aVfuture-sight
p1624
aVtrick
p1625
aVrole-play
p1626
asg43
g12
sg44
Vinner-focus
p1627
sbag1
(g25
g3
Ntp1628
Rp1629
(dp1630
g29
V122
p1631
sg31
VMr. Mime
p1632
sg33
g1233
sg35
V29
p1633
sg37
(lp1634
Vtrick
p1635
aVrole-play
p1636
aVrecycle
p1637
aVmagical-leaf
p1638
asg43
g12
sg44
Vfilter
p1639
sbasg94
I00
sg95
g1288
sbag1
(g2
g3
Ntp1640
Rp1641
(dp1642
g7
VSpr FRLG Scientist.png
p1643
sg9
VScientist
p1644
sg11
VBeau
p1645
sg13
V1248
p1646
sg15
g179
sg17
g18
sg19
g20
sg21
g1226
sg23
(lp1647
g1
(g25
g3
Ntp1648
Rp1649
(dp1650
g29
V082
p1651
sg31
VMagneton
p1652
sg33
g34
sg35
V26
p1653
sg37
(lp1654
Vzap-cannon
p1655
aVlock-on
p1656
aVspark
p1657
aVmetal-sound
p1658
asg43
g12
sg44
Vmagnet-pull
p1659
sbag1
(g25
g3
Ntp1660
Rp1661
(dp1662
g29
V081
p1663
sg31
VMagnemite
p1664
sg33
g34
sg35
V26
p1665
sg37
(lp1666
Vzap-cannon
p1667
aVlock-on
p1668
aVspark
p1669
aVmetal-sound
p1670
asg43
g12
sg44
Vsturdy
p1671
sbag1
(g25
g3
Ntp1672
Rp1673
(dp1674
g29
V109
p1675
sg31
VKoffing
p1676
sg33
g1233
sg35
V26
p1677
sg37
(lp1678
Vpoison-gas
p1679
aVexplosion
p1680
aVdestiny-bond
p1681
aVmemento
p1682
asg43
g12
sg44
Vlevitate
p1683
sbag1
(g25
g3
Ntp1684
Rp1685
(dp1686
g29
V110
p1687
sg31
VWeezing
p1688
sg33
g1233
sg35
V26
p1689
sg37
(lp1690
Vpoison-gas
p1691
aVexplosion
p1692
aVdestiny-bond
p1693
aVmemento
p1694
asg43
g12
sg44
Vlevitate
p1695
sbasg94
I00
sg95
g1288
sbag1
(g2
g3
Ntp1696
Rp1697
(dp1698
g7
VSpr FRLG Team Rocket Grunt M.png
p1699
sg9
VTeam Rocket Grunt
p1700
sg11
g12
sg13
V1056
p1701
sg15
g380
sg17
g18
sg19
g20
sg21
g1226
sg23
(lp1702
g1
(g25
g3
Ntp1703
Rp1704
(dp1705
g29
V024
p1706
sg31
VArbok
p1707
sg33
g1233
sg35
V33
p1708
sg37
(lp1709
Vglare
p1710
aVstockpile
p1711
aVspit-up
p1712
aVswallow
p1713
asg43
g12
sg44
Vintimidate
p1714
sbasg94
I00
sg95
g1288
sbag1
(g2
g3
Ntp1715
Rp1716
(dp1717
g7
VSpr FRLG Team Rocket Grunt M.png
p1718
sg9
VTeam Rocket Grunt
p1719
sg11
g12
sg13
V928
p1720
sg15
g147
sg17
g18
sg19
g20
sg21
g1226
sg23
(lp1721
g1
(g25
g3
Ntp1722
Rp1723
(dp1724
g29
V066
p1725
sg31
VMachop
p1726
sg33
g1233
sg35
V29
p1727
sg37
(lp1728
Vdynamic-punch
p1729
aVvital-throw
p1730
aVcross-chop
p1731
aVrevenge
p1732
asg43
g12
sg44
Vguts
p1733
sbag1
(g25
g3
Ntp1734
Rp1735
(dp1736
g29
V067
p1737
sg31
VMachoke
p1738
sg33
g1233
sg35
V29
p1739
sg37
(lp1740
Vdynamic-punch
p1741
aVvital-throw
p1742
aVcross-chop
p1743
aVrevenge
p1744
asg43
g12
sg44
Vguts
p1745
sbasg94
I00
sg95
g1288
sbag1
(g2
g3
Ntp1746
Rp1747
(dp1748
g7
VSpr FRLG Team Rocket Grunt M.png
p1749
sg9
VTeam Rocket Grunt
p1750
sg11
g12
sg13
V896
p1751
sg15
g103
sg17
g18
sg19
g20
sg21
g1226
sg23
(lp1752
g1
(g25
g3
Ntp1753
Rp1754
(dp1755
g29
V041
p1756
sg31
VZubat
p1757
sg33
g1233
sg35
V28
p1758
sg37
(lp1759
Vmean-look
p1760
aVpoison-fang
p1761
aVastonish
p1762
aVair-cutter
p1763
asg43
g12
sg44
Vinner-focus
p1764
sbag1
(g25
g3
Ntp1765
Rp1766
(dp1767
g29
V041
p1768
sg31
VZubat
p1769
sg33
g1233
sg35
V28
p1770
sg37
(lp1771
Vmean-look
p1772
aVpoison-fang
p1773
aVastonish
p1774
aVair-cutter
p1775
asg43
g12
sg44
Vinner-focus
p1776
sbag1
(g25
g3
Ntp1777
Rp1778
(dp1779
g29
V042
p1780
sg31
VGolbat
p1781
sg33
g1233
sg35
V28
p1782
sg37
(lp1783
Vpoison-fang
p1784
aVastonish
p1785
ag1785
aVair-cutter
p1786
asg43
g12
sg44
Vinner-focus
p1787
sbasg94
I00
sg95
g1288
sbag1
(g2
g3
Ntp1788
Rp1789
(dp1790
g7
VSpr FRLG Scientist.png
p1791
sg9
VScientist
p1792
sg11
VTaylor
p1793
sg13
V1200
p1794
sg15
g16
sg17
g18
sg19
g20
sg21
g1226
sg23
(lp1795
g1
(g25
g3
Ntp1796
Rp1797
(dp1798
g29
V100
p1799
sg31
VVoltorb
p1800
sg33
g34
sg35
V25
p1801
sg37
(lp1802
Vrollout
p1803
aVspark
p1804
aVmirror-coat
p1805
aVcharge
p1806
asg43
g12
sg44
Vstatic
p1807
sbag1
(g25
g3
Ntp1808
Rp1809
(dp1810
g29
V109
p1811
sg31
VKoffing
p1812
sg33
g1233
sg35
V25
p1813
sg37
(lp1814
Vpoison-gas
p1815
aVexplosion
p1816
aVdestiny-bond
p1817
aVmemento
p1818
asg43
g12
sg44
Vlevitate
p1819
sbag1
(g25
g3
Ntp1820
Rp1821
(dp1822
g29
V082
p1823
sg31
VMagneton
p1824
sg33
g34
sg35
V25
p1825
sg37
(lp1826
Vzap-cannon
p1827
aVlock-on
p1828
aVspark
p1829
aVmetal-sound
p1830
asg43
g12
sg44
Vmagnet-pull
p1831
sbag1
(g25
g3
Ntp1832
Rp1833
(dp1834
g29
V081
p1835
sg31
VMagnemite
p1836
sg33
g34
sg35
V25
p1837
sg37
(lp1838
Vzap-cannon
p1839
aVlock-on
p1840
aVspark
p1841
aVmetal-sound
p1842
asg43
g12
sg44
Vmagnet-pull
p1843
sbag1
(g25
g3
Ntp1844
Rp1845
(dp1846
g29
V109
p1847
sg31
VKoffing
p1848
sg33
g1233
sg35
V25
p1849
sg37
(lp1850
Vpoison-gas
p1851
aVexplosion
p1852
aVdestiny-bond
p1853
aVmemento
p1854
asg43
g12
sg44
Vlevitate
p1855
sbasg94
I00
sg95
g1288
sbag1
(g2
g3
Ntp1856
Rp1857
(dp1858
g7
VSpr FRLG Team Rocket Grunt M.png
p1859
sg9
VTeam Rocket Grunt
p1860
sg11
g12
sg13
V928
p1861
sg15
g147
sg17
g18
sg19
g20
sg21
g1226
sg23
(lp1862
g1
(g25
g3
Ntp1863
Rp1864
(dp1865
g29
V104
p1866
sg31
VCubone
p1867
sg33
g1233
sg35
V29
p1868
sg37
(lp1869
Vbone-club
p1870
aVbonemerang
p1871
aVbone-rush
p1872
aVfalse-swipe
p1873
asg43
g12
sg44
Vlightning-rod
p1874
sbag1
(g25
g3
Ntp1875
Rp1876
(dp1877
g29
V104
p1878
sg31
VCubone
p1879
sg33
g1233
sg35
V29
p1880
sg37
(lp1881
Vbone-club
p1882
aVbonemerang
p1883
aVbone-rush
p1884
aVfalse-swipe
p1885
asg43
g12
sg44
Vlightning-rod
p1886
sbasg94
I00
sg95
g1288
sbag1
(g2
g3
Ntp1887
Rp1888
(dp1889
g7
VSpr FRLG Team Rocket Grunt M.png
p1890
sg9
VTeam Rocket Grunt
p1891
sg11
g12
sg13
V832
p1892
sg15
g179
sg17
g18
sg19
g20
sg21
g1226
sg23
(lp1893
g1
(g25
g3
Ntp1894
Rp1895
(dp1896
g29
V020
p1897
sg31
VRaticate
p1898
sg33
g1233
sg35
V26
p1899
sg37
(lp1900
Vsuper-fang
p1901
aVscary-face
p1902
aVpursuit
p1903
aVendeavor
p1904
asg43
g12
sg44
Vrun-away
p1905
sbag1
(g25
g3
Ntp1906
Rp1907
(dp1908
g29
V041
p1909
sg31
VZubat
p1910
sg33
g1233
sg35
V26
p1911
sg37
(lp1912
Vmean-look
p1913
aVpoison-fang
p1914
aVastonish
p1915
aVair-cutter
p1916
asg43
g12
sg44
Vinner-focus
p1917
sbag1
(g25
g3
Ntp1918
Rp1919
(dp1920
g29
V042
p1921
sg31
VGolbat
p1922
sg33
g1233
sg35
V26
p1923
sg37
(lp1924
Vpoison-fang
p1925
aVastonish
p1926
ag1926
aVair-cutter
p1927
asg43
g12
sg44
Vinner-focus
p1928
sbag1
(g25
g3
Ntp1929
Rp1930
(dp1931
g29
V019
p1932
sg31
VRattata
p1933
sg33
g1233
sg35
V26
p1934
sg37
(lp1935
Vhyper-fang
p1936
aVsuper-fang
p1937
aVpursuit
p1938
aVendeavor
p1939
asg43
g12
sg44
Vguts
p1940
sbasg94
I00
sg95
g1288
sbag1
(g2
g3
Ntp1941
Rp1942
(dp1943
g7
VSpr FRLG Scientist.png
p1944
sg9
VScientist
p1945
sg11
VJoshua
p1946
sg13
V1392
p1947
sg15
g147
sg17
g18
sg19
g20
sg21
g1226
sg23
(lp1948
g1
(g25
g3
Ntp1949
Rp1950
(dp1951
g29
V101
p1952
sg31
VElectrode
p1953
sg33
g34
sg35
V29
p1954
sg37
(lp1955
Vrollout
p1956
aVspark
p1957
aVmirror-coat
p1958
aVcharge
p1959
asg43
g12
sg44
Vstatic
p1960
sbag1
(g25
g3
Ntp1961
Rp1962
(dp1963
g29
V089
p1964
sg31
VMuk
p1965
sg33
g1233
sg35
V29
p1966
sg37
(lp1967
Vpoison-gas
p1968
aVacid-armor
p1969
aVsludge-bomb
p1970
aVmemento
p1971
asg43
g12
sg44
Vsticky-hold
p1972
sbasg94
I00
sg95
g1288
sbag1
(g2
g3
Ntp1973
Rp1974
(dp1975
g7
VSpr FRLG Team Rocket Grunt M.png
p1976
sg9
VTeam Rocket Grunt
p1977
sg11
g12
sg13
V928
p1978
sg15
g147
sg17
g18
sg19
g20
sg21
g1226
sg23
(lp1979
g1
(g25
g3
Ntp1980
Rp1981
(dp1982
g29
V027
p1983
sg31
VSandshrew
p1984
sg33
g1233
sg35
V29
p1985
sg37
(lp1986
Vfury-swipes
p1987
aVslash
p1988
aVsandstorm
p1989
aVsand-tomb
p1990
asg43
g12
sg44
Vsand-veil
p1991
sbag1
(g25
g3
Ntp1992
Rp1993
(dp1994
g29
V028
p1995
sg31
VSandslash
p1996
sg33
g1233
sg35
V29
p1997
sg37
(lp1998
Vfury-swipes
p1999
aVslash
p2000
aVsandstorm
p2001
aVsand-tomb
p2002
asg43
g12
sg44
Vsand-veil
p2003
sbasg94
I00
sg95
g1288
sbag1
(g2
g3
Ntp2004
Rp2005
(dp2006
g7
VSpr FRLG Team Rocket Grunt M.png
p2007
sg9
VTeam Rocket Grunt
p2008
sg11
g12
sg13
V832
p2009
sg15
g179
sg17
g18
sg19
g20
sg21
g1226
sg23
(lp2010
g1
(g25
g3
Ntp2011
Rp2012
(dp2013
g29
V020
p2014
sg31
VRaticate
p2015
sg33
g1233
sg35
V26
p2016
sg37
(lp2017
Vsuper-fang
p2018
aVscary-face
p2019
aVpursuit
p2020
aVendeavor
p2021
asg43
g12
sg44
Vrun-away
p2022
sbag1
(g25
g3
Ntp2023
Rp2024
(dp2025
g29
V042
p2026
sg31
VGolbat
p2027
sg33
g1233
sg35
V26
p2028
sg37
(lp2029
Vpoison-fang
p2030
aVastonish
p2031
ag2031
aVair-cutter
p2032
asg43
g12
sg44
Vinner-focus
p2033
sbag1
(g25
g3
Ntp2034
Rp2035
(dp2036
g29
V024
p2037
sg31
VArbok
p2038
sg33
g1233
sg35
V26
p2039
sg37
(lp2040
Vglare
p2041
aVstockpile
p2042
aVspit-up
p2043
aVswallow
p2044
asg43
g12
sg44
Vintimidate
p2045
sbag1
(g25
g3
Ntp2046
Rp2047
(dp2048
g29
V109
p2049
sg31
VKoffing
p2050
sg33
g1233
sg35
V26
p2051
sg37
(lp2052
Vpoison-gas
p2053
aVexplosion
p2054
aVdestiny-bond
p2055
aVmemento
p2056
asg43
g12
sg44
Vlevitate
p2057
sbasg94
I00
sg95
g1288
sbag1
(g2
g3
Ntp2058
Rp2059
(dp2060
g7
VSpr FRLG Team Rocket Grunt M.png
p2061
sg9
VTeam Rocket Grunt
p2062
sg11
g12
sg13
V896
p2063
sg15
g103
sg17
g18
sg19
g20
sg21
g1226
sg23
(lp2064
g1
(g25
g3
Ntp2065
Rp2066
(dp2067
g29
V110
p2068
sg31
VWeezing
p2069
sg33
g1233
sg35
V28
p2070
sg37
(lp2071
Vpoison-gas
p2072
aVexplosion
p2073
aVdestiny-bond
p2074
aVmemento
p2075
asg43
g12
sg44
Vlevitate
p2076
sbag1
(g25
g3
Ntp2077
Rp2078
(dp2079
g29
V042
p2080
sg31
VGolbat
p2081
sg33
g1233
sg35
V28
p2082
sg37
(lp2083
Vpoison-fang
p2084
aVastonish
p2085
ag2085
aVair-cutter
p2086
asg43
g12
sg44
Vinner-focus
p2087
sbag1
(g25
g3
Ntp2088
Rp2089
(dp2090
g29
V109
p2091
sg31
VKoffing
p2092
sg33
g1233
sg35
V28
p2093
sg37
(lp2094
Vpoison-gas
p2095
aVexplosion
p2096
aVdestiny-bond
p2097
aVmemento
p2098
asg43
g12
sg44
Vlevitate
p2099
sbasg94
I00
sg95
g1288
sbag1
(g2
g3
Ntp2100
Rp2101
(dp2102
g7
VSpr FRLG Scientist.png
p2103
sg9
VScientist
p2104
sg11
VParker
p2105
sg13
V1392
p2106
sg15
g147
sg17
g18
sg19
g20
sg21
g1226
sg23
(lp2107
g1
(g25
g3
Ntp2108
Rp2109
(dp2110
g29
V088
p2111
sg31
VGrimer
p2112
sg33
g1233
sg35
V29
p2113
sg37
(lp2114
Vpoison-gas
p2115
aVacid-armor
p2116
aVsludge-bomb
p2117
aVmemento
p2118
asg43
g12
sg44
Vstench
p2119
sbag1
(g25
g3
Ntp2120
Rp2121
(dp2122
g29
V101
p2123
sg31
VElectrode
p2124
sg33
g34
sg35
V29
p2125
sg37
(lp2126
Vrollout
p2127
aVspark
p2128
aVmirror-coat
p2129
aVcharge
p2130
asg43
g12
sg44
Vstatic
p2131
sbasg94
I00
sg95
g1288
sbag1
(g2
g3
Ntp2132
Rp2133
(dp2134
g7
VSpr FRLG Team Rocket Grunt M.png
p2135
sg9
VTeam Rocket Grunt
p2136
sg11
g12
sg13
V896
p2137
sg15
g103
sg17
g18
sg19
g20
sg21
g1226
sg23
(lp2138
g1
(g25
g3
Ntp2139
Rp2140
(dp2141
g29
V042
p2142
sg31
VGolbat
p2143
sg33
g1233
sg35
V28
p2144
sg37
(lp2145
Vpoison-fang
p2146
aVastonish
p2147
ag2147
aVair-cutter
p2148
asg43
g12
sg44
Vinner-focus
p2149
sbag1
(g25
g3
Ntp2150
Rp2151
(dp2152
g29
V096
p2153
sg31
VDrowzee
p2154
sg33
g1233
sg35
V28
p2155
sg37
(lp2156
Vpoison-gas
p2157
aVswagger
p2158
aVpsych-up
p2159
aVfuture-sight
p2160
asg43
g12
sg44
Vinsomnia
p2161
sbag1
(g25
g3
Ntp2162
Rp2163
(dp2164
g29
V097
p2165
sg31
VHypno
p2166
sg33
g1233
sg35
V28
p2167
sg37
(lp2168
Vnightmare
p2169
aVswagger
p2170
aVpsych-up
p2171
aVfuture-sight
p2172
asg43
g12
sg44
Vforewarn
p2173
sbasg94
I00
sg95
g1288
sbag1
(g2
g3
Ntp2174
Rp2175
(dp2176
g7
VSpr FRLG Team Rocket Grunt M.png
p2177
sg9
VTeam Rocket Grunt
p2178
sg11
g12
sg13
V896
p2179
sg15
g103
sg17
g18
sg19
g20
sg21
g1226
sg23
(lp2180
g1
(g25
g3
Ntp2181
Rp2182
(dp2183
g29
V096
p2184
sg31
VDrowzee
p2185
sg33
g1233
sg35
V28
p2186
sg37
(lp2187
Vpoison-gas
p2188
aVswagger
p2189
aVpsych-up
p2190
aVfuture-sight
p2191
asg43
g12
sg44
Vinsomnia
p2192
sbag1
(g25
g3
Ntp2193
Rp2194
(dp2195
g29
V088
p2196
sg31
VGrimer
p2197
sg33
g1233
sg35
V28
p2198
sg37
(lp2199
Vpoison-gas
p2200
aVacid-armor
p2201
aVsludge-bomb
p2202
aVmemento
p2203
asg43
g12
sg44
Vstench
p2204
sbag1
(g25
g3
Ntp2205
Rp2206
(dp2207
g29
V066
p2208
sg31
VMachop
p2209
sg33
g1233
sg35
V28
p2210
sg37
(lp2211
Vdynamic-punch
p2212
aVvital-throw
p2213
aVcross-chop
p2214
aVrevenge
p2215
asg43
g12
sg44
Vguts
p2216
sbasg94
I00
sg95
g1288
sbag1
(g2
g3
Ntp2217
Rp2218
(dp2219
g7
VSpr FRLG Scientist.png
p2220
sg9
VScientist
p2221
sg11
VEd
p2222
sg13
V1344
p2223
sg15
g103
sg17
g18
sg19
g20
sg21
g1226
sg23
(lp2224
g1
(g25
g3
Ntp2225
Rp2226
(dp2227
g29
V100
p2228
sg31
VVoltorb
p2229
sg33
g34
sg35
V28
p2230
sg37
(lp2231
Vrollout
p2232
aVspark
p2233
aVmirror-coat
p2234
aVcharge
p2235
asg43
g12
sg44
Vsoundproof
p2236
sbag1
(g25
g3
Ntp2237
Rp2238
(dp2239
g29
V082
p2240
sg31
VMagneton
p2241
sg33
g34
sg35
V28
p2242
sg37
(lp2243
Vzap-cannon
p2244
aVlock-on
p2245
aVspark
p2246
aVmetal-sound
p2247
asg43
g12
sg44
Vsturdy
p2248
sbag1
(g25
g3
Ntp2249
Rp2250
(dp2251
g29
V109
p2252
sg31
VKoffing
p2253
sg33
g1233
sg35
V28
p2254
sg37
(lp2255
Vpoison-gas
p2256
aVexplosion
p2257
aVdestiny-bond
p2258
aVmemento
p2259
asg43
g12
sg44
Vlevitate
p2260
sbasg94
I00
sg95
g1288
sbag1
(g2
g3
Ntp2261
Rp2262
(dp2263
g7
VSpr FRLG Team Rocket Grunt M.png
p2264
sg9
VTeam Rocket Grunt
p2265
sg11
g12
sg13
V1056
p2266
sg15
g380
sg17
g18
sg19
g20
sg21
g1226
sg23
(lp2267
g1
(g25
g3
Ntp2268
Rp2269
(dp2270
g29
V067
p2271
sg31
VMachoke
p2272
sg33
g1233
sg35
V33
p2273
sg37
(lp2274
Vdynamic-punch
p2275
aVvital-throw
p2276
aVcross-chop
p2277
aVrevenge
p2278
asg43
g12
sg44
Vguts
p2279
sbasg94
I00
sg95
g1288
sbag1
(g2
g3
Ntp2280
Rp2281
(dp2282
g7
VSpr FRLG Scientist.png
p2283
sg9
VScientist
p2284
sg11
VTravis
p2285
sg13
V1392
p2286
sg15
g147
sg17
g18
sg19
g20
sg21
g1226
sg23
(lp2287
g1
(g25
g3
Ntp2288
Rp2289
(dp2290
g29
V081
p2291
sg31
VMagnemite
p2292
sg33
g34
sg35
V29
p2293
sg37
(lp2294
Vzap-cannon
p2295
aVlock-on
p2296
aVspark
p2297
aVmetal-sound
p2298
asg43
g12
sg44
Vmagnet-pull
p2299
sbag1
(g25
g3
Ntp2300
Rp2301
(dp2302
g29
V109
p2303
sg31
VKoffing
p2304
sg33
g1233
sg35
V29
p2305
sg37
(lp2306
Vpoison-gas
p2307
aVexplosion
p2308
aVdestiny-bond
p2309
aVmemento
p2310
asg43
g12
sg44
Vlevitate
p2311
sbasg94
I00
sg95
g1288
sbag1
(g2
g3
Ntp2312
Rp2313
(dp2314
g7
VSpr FRLG Team Rocket Grunt M.png
p2315
sg9
VTeam Rocket Grunt
p2316
sg11
g12
sg13
V800
p2317
sg15
g16
sg17
g18
sg19
g20
sg21
g1226
sg23
(lp2318
g1
(g25
g3
Ntp2319
Rp2320
(dp2321
g29
V019
p2322
sg31
VRattata
p2323
sg33
g1233
sg35
V25
p2324
sg37
(lp2325
Vhyper-fang
p2326
aVsuper-fang
p2327
aVpursuit
p2328
aVendeavor
p2329
asg43
g12
sg44
Vguts
p2330
sbag1
(g25
g3
Ntp2331
Rp2332
(dp2333
g29
V041
p2334
sg31
VZubat
p2335
sg33
g1233
sg35
V25
p2336
sg37
(lp2337
Vmean-look
p2338
aVpoison-fang
p2339
aVastonish
p2340
aVair-cutter
p2341
asg43
g12
sg44
Vinner-focus
p2342
sbag1
(g25
g3
Ntp2343
Rp2344
(dp2345
g29
V023
p2346
sg31
VEkans
p2347
sg33
g1233
sg35
V25
p2348
sg37
(lp2349
Vglare
p2350
aVstockpile
p2351
aVspit-up
p2352
aVswallow
p2353
asg43
g12
sg44
Vshed-skin
p2354
sbag1
(g25
g3
Ntp2355
Rp2356
(dp2357
g29
V019
p2358
sg31
VRattata
p2359
sg33
g1233
sg35
V25
p2360
sg37
(lp2361
Vhyper-fang
p2362
aVsuper-fang
p2363
aVpursuit
p2364
aVendeavor
p2365
asg43
g12
sg44
Vrun-away
p2366
sbag1
(g25
g3
Ntp2367
Rp2368
(dp2369
g29
V019
p2370
sg31
VRattata
p2371
sg33
g1233
sg35
V25
p2372
sg37
(lp2373
Vhyper-fang
p2374
aVsuper-fang
p2375
aVpursuit
p2376
aVendeavor
p2377
asg43
g12
sg44
Vguts
p2378
sbasg94
I00
sg95
g1288
sbag1
(g2
g3
Ntp2379
Rp2380
(dp2381
g7
VSpr FRLG Team Rocket Grunt M.png
p2382
sg9
VTeam Rocket Grunt
p2383
sg11
g12
sg13
V1024
p2384
sg15
g103
sg17
g18
sg19
g20
sg21
g1226
sg23
(lp2385
g1
(g25
g3
Ntp2386
Rp2387
(dp2388
g29
V104
p2389
sg31
VCubone
p2390
sg33
g1233
sg35
V32
p2391
sg37
(lp2392
Vbone-club
p2393
aVbonemerang
p2394
aVbone-rush
p2395
aVfalse-swipe
p2396
asg43
g12
sg44
Vlightning-rod
p2397
sbag1
(g25
g3
Ntp2398
Rp2399
(dp2400
g29
V096
p2401
sg31
VDrowzee
p2402
sg33
g1233
sg35
V32
p2403
sg37
(lp2404
Vpoison-gas
p2405
aVswagger
p2406
aVpsych-up
p2407
aVfuture-sight
p2408
asg43
g12
sg44
Vforewarn
p2409
sbag1
(g25
g3
Ntp2410
Rp2411
(dp2412
g29
V105
p2413
sg31
VMarowak
p2414
sg33
g1233
sg35
V32
p2415
sg37
(lp2416
Vbone-club
p2417
aVbonemerang
p2418
aVbone-rush
p2419
aVfalse-swipe
p2420
asg43
g12
sg44
Vlightning-rod
p2421
sbasg94
I00
sg95
g1288
sbag1
(g2
g3
Ntp2422
Rp2423
(dp2424
g7
VSpr RG Blue 2.png
p2425
sg9
VLeader
p2426
sg11
VBlue (game)
p2427
sg13
V2600
p2428
sg15
I5
sg17
g18
sg19
g20
sg21
g22
sg23
(lp2429
g1
(g25
g3
Ntp2430
Rp2431
(dp2432
g29
I18
sg31
VPidgeot
p2433
sg33
g34
sg35
V37
p2434
sg37
(lp2435
VWing Attack
p2436
aVSand-Attack
p2437
aVQuick Attack
p2438
aVWhirlwind
p2439
asg43
g12
sg44
Vtangled-feet
p2440
sbag1
(g25
g3
Ntp2441
Rp2442
(dp2443
g29
I102
sg31
VExeggcute
p2444
sg33
g34
sg35
V38
p2445
sg37
(lp2446
VReflect
p2447
aVPoisonPowder
p2448
aVLeech Seed
p2449
aVStun Spore
p2450
asg43
g12
sg44
Vchlorophyll
p2451
sbag1
(g25
g3
Ntp2452
Rp2453
(dp2454
g29
I130
sg31
VGyarados
p2455
sg33
g34
sg35
V35
p2456
sg37
(lp2457
VDragon Rage
p2458
aVHydro Pump
p2459
aVBite
p2460
aVLeer
p2461
asg43
g12
sg44
Vintimidate
p2462
sbag1
(g25
g3
Ntp2463
Rp2464
(dp2465
g29
I65
sg31
VAlakazam
p2466
sg33
g34
sg35
V35
p2467
sg37
(lp2468
VPsybeam
p2469
aVConfusion
p2470
aVDisable
p2471
aVRecover
p2472
asg43
g12
sg44
Vinner-focus
p2473
sbag1
(g25
g3
Ntp2474
Rp2475
(dp2476
g29
I6
sg31
VCharizard
p2477
sg33
g34
sg35
V40
p2478
sg37
(lp2479
VSlash
p2480
aVEmber
p2481
aVLeer
p2482
aVRage
p2483
asg43
g12
sg44
Vblaze
p2484
sbasg94
I01
sg95
g96
sbag1
(g2
g3
Ntp2485
Rp2486
(dp2487
g7
VSpr RG Blue 2.png
p2488
sg9
g2426
sg11
VBlue (game)
p2489
sg13
V2600
p2490
sg15
I5
sg17
g18
sg19
g20
sg21
g22
sg23
(lp2491
g1
(g25
g3
Ntp2492
Rp2493
(dp2494
g29
I18
sg31
VPidgeot
p2495
sg33
g34
sg35
V37
p2496
sg37
(lp2497
VWing Attack
p2498
aVSand-Attack
p2499
aVQuick Attack
p2500
aVWhirlwind
p2501
asg43
g12
sg44
Vtangled-feet
p2502
sbag1
(g25
g3
Ntp2503
Rp2504
(dp2505
g29
I58
sg31
VGrowlithe
p2506
sg33
g34
sg35
V38
p2507
sg37
(lp2508
VRoar
p2509
aVEmber
p2510
aVLeer
p2511
aVTake Down
p2512
asg43
g12
sg44
Vintimidate
p2513
sbag1
(g25
g3
Ntp2514
Rp2515
(dp2516
g29
I102
sg31
VExeggcute
p2517
sg33
g34
sg35
V35
p2518
sg37
(lp2519
VHypnosis
p2520
aVReflect
p2521
aVLeech Seed
p2522
aVStun Spore
p2523
asg43
g12
sg44
Vchlorophyll
p2524
sbag1
(g25
g3
Ntp2525
Rp2526
(dp2527
g29
I65
sg31
VAlakazam
p2528
sg33
g34
sg35
V35
p2529
sg37
(lp2530
VPsybeam
p2531
aVConfusion
p2532
aVDisable
p2533
aVRecover
p2534
asg43
g12
sg44
Vsynchronize
p2535
sbag1
(g25
g3
Ntp2536
Rp2537
(dp2538
g29
I9
sg31
VBlastoise
p2539
sg33
g34
sg35
V40
p2540
sg37
(lp2541
VBubble
p2542
aVWater Gun
p2543
aVBite
p2544
aVWithdraw
p2545
asg43
g12
sg44
Vtorrent
p2546
sbasg94
I01
sg95
g96
sbag1
(g2
g3
Ntp2547
Rp2548
(dp2549
g7
VSpr RG Blue 2.png
p2550
sg9
g2426
sg11
VBlue (game)
p2551
sg13
V2600
p2552
sg15
I5
sg17
g18
sg19
g20
sg21
g22
sg23
(lp2553
g1
(g25
g3
Ntp2554
Rp2555
(dp2556
g29
I18
sg31
VPidgeot
p2557
sg33
g34
sg35
V37
p2558
sg37
(lp2559
VWing Attack
p2560
aVSand-Attack
p2561
aVQuick Attack
p2562
aVWhirlwind
p2563
asg43
g12
sg44
Vkeen-eye
p2564
sbag1
(g25
g3
Ntp2565
Rp2566
(dp2567
g29
I130
sg31
VGyarados
p2568
sg33
g34
sg35
V38
p2569
sg37
(lp2570
VDragon Rage
p2571
aVHydro Pump
p2572
aVBite
p2573
aVLeer
p2574
asg43
g12
sg44
Vintimidate
p2575
sbag1
(g25
g3
Ntp2576
Rp2577
(dp2578
g29
I58
sg31
VGrowlithe
p2579
sg33
g34
sg35
V35
p2580
sg37
(lp2581
VRoar
p2582
aVEmber
p2583
aVLeer
p2584
aVTake Down
p2585
asg43
g12
sg44
Vflash-fire
p2586
sbag1
(g25
g3
Ntp2587
Rp2588
(dp2589
g29
I65
sg31
VAlakazam
p2590
sg33
g34
sg35
V35
p2591
sg37
(lp2592
VPsybeam
p2593
aVConfusion
p2594
aVDisable
p2595
aVRecover
p2596
asg43
g12
sg44
Vsynchronize
p2597
sbag1
(g25
g3
Ntp2598
Rp2599
(dp2600
g29
I3
sg31
VVenusaur
p2601
sg33
g34
sg35
V40
p2602
sg37
(lp2603
VLeech Seed
p2604
aVVine Whip
p2605
aVPoisonPowder
p2606
aVRazor Leaf
p2607
asg43
g12
sg44
Vovergrow
p2608
sbasg94
I01
sg95
g96
sbag1
(g2
g3
Ntp2609
Rp2610
(dp2611
g7
VSpr Y Blue 2.png
p2612
sg9
g2426
sg11
VBlue (game)
p2613
sg13
V2600
p2614
sg15
I5
sg17
g18
sg19
g20
sg21
VY
p2615
sg23
(lp2616
g1
(g25
g3
Ntp2617
Rp2618
(dp2619
g29
I28
sg31
VSandslash
p2620
sg33
g34
sg35
V38
p2621
sg37
(lp2622
VSlash
p2623
aVSand-Attack
p2624
aVPoison Sting
p2625
aVSwift
p2626
asg43
g12
sg44
Vsand-veil
p2627
sbag1
(g25
g3
Ntp2628
Rp2629
(dp2630
g29
I82
sg31
VMagneton
p2631
sg33
g34
sg35
V35
p2632
sg37
(lp2633
VTackle
p2634
aVSonicBoom
p2635
aVThunderShock
p2636
aVSupersonic
p2637
asg43
g12
sg44
Vsturdy
p2638
sbag1
(g25
g3
Ntp2639
Rp2640
(dp2641
g29
I38
sg31
VNinetales
p2642
sg33
g34
sg35
V37
p2643
sg37
(lp2644
VEmber
p2645
aVTail Whip
p2646
aVQuick Attack
p2647
aVRoar
p2648
asg43
g12
sg44
Vflash-fire
p2649
sbag1
(g25
g3
Ntp2650
Rp2651
(dp2652
g29
I64
sg31
VKadabra
p2653
sg33
g34
sg35
V35
p2654
sg37
(lp2655
VConfusion
p2656
aVDisable
p2657
aVPsybeam
p2658
aVRecover
p2659
asg43
g12
sg44
Vsynchronize
p2660
sbag1
(g25
g3
Ntp2661
Rp2662
(dp2663
g29
I134
sg31
VVaporeon
p2664
sg33
g34
sg35
V40
p2665
sg37
(lp2666
VWater Gun
p2667
aVQuick Attack
p2668
aVBite
p2669
aVAurora Beam
p2670
asg43
g12
sg44
Vwater-absorb
p2671
sbasg94
I01
sg95
Vyellow
p2672
sbag1
(g2
g3
Ntp2673
Rp2674
(dp2675
g7
VSpr Y Blue 2.png
p2676
sg9
g2426
sg11
VBlue (game)
p2677
sg13
V2600
p2678
sg15
I5
sg17
g18
sg19
g20
sg21
g2615
sg23
(lp2679
g1
(g25
g3
Ntp2680
Rp2681
(dp2682
g29
I28
sg31
VSandslash
p2683
sg33
g34
sg35
V38
p2684
sg37
(lp2685
VSlash
p2686
aVSand-Attack
p2687
aVPoison Sting
p2688
aVSwift
p2689
asg43
g12
sg44
Vsand-veil
p2690
sbag1
(g25
g3
Ntp2691
Rp2692
(dp2693
g29
I38
sg31
VNinetales
p2694
sg33
g34
sg35
V35
p2695
sg37
(lp2696
VEmber
p2697
aVTail Whip
p2698
aVQuick Attack
p2699
aVRoar
p2700
asg43
g12
sg44
Vflash-fire
p2701
sbag1
(g25
g3
Ntp2702
Rp2703
(dp2704
g29
I91
sg31
VCloyster
p2705
sg33
g34
sg35
V37
p2706
sg37
(lp2707
VWithdraw
p2708
aVSupersonic
p2709
aVClamp
p2710
aVAurora Beam
p2711
asg43
g12
sg44
Vskill-link
p2712
sbag1
(g25
g3
Ntp2713
Rp2714
(dp2715
g29
I64
sg31
VKadabra
p2716
sg33
g34
sg35
V35
p2717
sg37
(lp2718
VConfusion
p2719
aVDisable
p2720
aVPsybeam
p2721
aVRecover
p2722
asg43
g12
sg44
Vinner-focus
p2723
sbag1
(g25
g3
Ntp2724
Rp2725
(dp2726
g29
I135
sg31
VJolteon
p2727
sg33
g34
sg35
V40
p2728
sg37
(lp2729
VThunderShock
p2730
aVQuick Attack
p2731
aVDouble Kick
p2732
aVPin Missile
p2733
asg43
g12
sg44
Vvolt-absorb
p2734
sbasg94
I01
sg95
g2672
sbag1
(g2
g3
Ntp2735
Rp2736
(dp2737
g7
VSpr Y Blue 2.png
p2738
sg9
g2426
sg11
VBlue (game)
p2739
sg13
V2600
p2740
sg15
I5
sg17
g18
sg19
g20
sg21
g2615
sg23
(lp2741
g1
(g25
g3
Ntp2742
Rp2743
(dp2744
g29
I28
sg31
VSandslash
p2745
sg33
g34
sg35
V38
p2746
sg37
(lp2747
VSlash
p2748
aVSand-Attack
p2749
aVPoison Sting
p2750
aVSwift
p2751
asg43
g12
sg44
Vsand-veil
p2752
sbag1
(g25
g3
Ntp2753
Rp2754
(dp2755
g29
I91
sg31
VCloyster
p2756
sg33
g34
sg35
V35
p2757
sg37
(lp2758
VWithdraw
p2759
aVSupersonic
p2760
aVClamp
p2761
aVAurora Beam
p2762
asg43
g12
sg44
Vskill-link
p2763
sbag1
(g25
g3
Ntp2764
Rp2765
(dp2766
g29
I82
sg31
VMagneton
p2767
sg33
g34
sg35
V37
p2768
sg37
(lp2769
VTackle
p2770
aVSonicBoom
p2771
aVThunderShock
p2772
aVSupersonic
p2773
asg43
g12
sg44
Vsturdy
p2774
sbag1
(g25
g3
Ntp2775
Rp2776
(dp2777
g29
I64
sg31
VKadabra
p2778
sg33
g34
sg35
V35
p2779
sg37
(lp2780
VConfusion
p2781
aVDisable
p2782
aVPsybeam
p2783
aVRecover
p2784
asg43
g12
sg44
Vsynchronize
p2785
sbag1
(g25
g3
Ntp2786
Rp2787
(dp2788
g29
I136
sg31
VFlareon
p2789
sg33
g34
sg35
V40
p2790
sg37
(lp2791
VEmber
p2792
aVSand-Attack
p2793
aVBite
p2794
aVFire Spin
p2795
asg43
g12
sg44
Vflash-fire
p2796
sbasg94
I01
sg95
g2672
sbag1
(g2
g3
Ntp2797
Rp2798
(dp2799
g7
VSpr RG Giovanni.png
p2800
sg9
g2426
sg11
VGiovanni
p2801
sg13
V4059
p2802
sg15
I4
sg17
g18
sg19
g20
sg21
g22
sg23
(lp2803
g1
(g25
g3
Ntp2804
Rp2805
(dp2806
g29
I33
sg31
VNidorino
p2807
sg33
g34
sg35
V37
p2808
sg37
(lp2809
VHorn Attack
p2810
aVPoison Sting
p2811
aVFocus Energy
p2812
aVFury Attack
p2813
asg43
g12
sg44
Vrivalry
p2814
sbag1
(g25
g3
Ntp2815
Rp2816
(dp2817
g29
I115
sg31
VKangaskhan
p2818
sg33
g34
sg35
V35
p2819
sg37
(lp2820
VComet Punch
p2821
aVRage
p2822
aVBite
p2823
aVTail Whip
p2824
asg43
g12
sg44
Vscrappy
p2825
sbag1
(g25
g3
Ntp2826
Rp2827
(dp2828
g29
I111
sg31
VRhyhorn
p2829
sg33
g34
sg35
V37
p2830
sg37
(lp2831
VHorn Attack
p2832
aVStomp
p2833
aVTail Whip
p2834
asg43
g12
sg44
Vlightning-rod
p2835
sbag1
(g25
g3
Ntp2836
Rp2837
(dp2838
g29
I31
sg31
VNidoqueen
p2839
sg33
g34
sg35
V41
p2840
sg37
(lp2841
VScratch
p2842
aVTail Whip
p2843
aVBody Slam
p2844
aVPoison Sting
p2845
asg43
g12
sg44
Vpoison-point
p2846
sbasg94
I01
sg95
g96
sbag1
(g2
g3
Ntp2847
Rp2848
(dp2849
g7
VSpr Y Jessie James.png
p2850
sg9
g2426
sg11
VTeam Rocket trio
p2851
sg13
V930
p2852
sg15
I3
sg17
g18
sg19
g20
sg21
g2615
sg23
(lp2853
g1
(g25
g3
Ntp2854
Rp2855
(dp2856
g29
I110
sg31
VWeezing
p2857
sg33
g34
sg35
V31
p2858
sg37
(lp2859
VTackle
p2860
aVSmog
p2861
aVSludge
p2862
asg43
g12
sg44
Vlevitate
p2863
sbag1
(g25
g3
Ntp2864
Rp2865
(dp2866
g29
I24
sg31
VArbok
p2867
sg33
g34
sg35
V31
p2868
sg37
(lp2869
VBite
p2870
aVLeer
p2871
aVPoison Sting
p2872
aVGlare
p2873
asg43
g12
sg44
Vintimidate
p2874
sbag1
(g25
g3
Ntp2875
Rp2876
(dp2877
g29
I52
sg31
VMeowth
p2878
sg33
g34
sg35
V31
p2879
sg37
(lp2880
VGrowl
p2881
aVBite
p2882
aVPay Day
p2883
aVScreech
p2884
asg43
g12
sg44
Vpickup
p2885
sbasg94
I01
sg95
g2672
sbag1
(g2
g3
Ntp2886
Rp2887
(dp2888
g7
VSpr Y Giovanni.png\u200e
p2889
sg9
g2426
sg11
VGiovanni
p2890
sg13
V4059
p2891
sg15
I4
sg17
g18
sg19
g20
sg21
g2615
sg23
(lp2892
g1
(g25
g3
Ntp2893
Rp2894
(dp2895
g29
I33
sg31
VNidorino
p2896
sg33
g34
sg35
V37
p2897
sg37
(lp2898
VDouble Kick
p2899
aVPoison Sting
p2900
aVFocus Energy
p2901
aVFury Attack
p2902
asg43
g12
sg44
Vpoison-point
p2903
sbag1
(g25
g3
Ntp2904
Rp2905
(dp2906
g29
I111
sg31
VRhyhorn
p2907
sg33
g34
sg35
V37
p2908
sg37
(lp2909
VHorn Attack
p2910
aVStomp
p2911
aVTail Whip
p2912
asg43
g12
sg44
Vrock-head
p2913
sbag1
(g25
g3
Ntp2914
Rp2915
(dp2916
g29
I53
sg31
VPersian
p2917
sg33
g34
sg35
V35
p2918
sg37
(lp2919
VScratch
p2920
aVGrowl
p2921
aVBite
p2922
aVPay Day
p2923
asg43
g12
sg44
Vlimber
p2924
sbag1
(g25
g3
Ntp2925
Rp2926
(dp2927
g29
I31
sg31
VNidoqueen
p2928
sg33
g34
sg35
V41
p2929
sg37
(lp2930
VScratch
p2931
aVTail Whip
p2932
aVBody Slam
p2933
aVDouble Kick
p2934
asg43
g12
sg44
Vpoison-point
p2935
sbasg94
I01
sg95
g2672
sbag1
(g2
g3
Ntp2936
Rp2937
(dp2938
g7
VSpr FRLG Blue 2.png
p2939
sg9
VRival
p2940
sg11
VBlue (game)
p2941
sg13
V1440
p2942
sg15
I5
sg17
g18
sg19
g20
sg21
g1226
sg23
(lp2943
g1
(g25
g3
Ntp2944
Rp2945
(dp2946
g29
I18
sg31
VPidgeot
p2947
sg33
g1233
sg35
V37
p2948
sg37
(lp2949
VWing Attack
p2950
aVFeatherDance
p2951
aVQuick Attack
p2952
aVWhirlwind
p2953
asg43
g12
sg44
VKeen Eye
p2954
sbag1
(g25
g3
Ntp2955
Rp2956
(dp2957
g29
I65
sg31
VAlakazam
p2958
sg33
g1233
sg35
V35
p2959
sg37
(lp2960
VFuture Sight
p2961
aVCalm Mind
p2962
aVReflect
p2963
aVRecover
p2964
asg43
g12
sg44
VSynchronize
p2965
sbag1
(g25
g3
Ntp2966
Rp2967
(dp2968
g29
I102
sg31
VExeggcute
p2969
sg33
g1233
sg35
V38
p2970
sg37
(lp2971
VConfusion
p2972
aVHypnosis
p2973
aVLeech Seed
p2974
aVStun Spore
p2975
asg43
g12
sg44
VChlorophyll
p2976
sbag1
(g25
g3
Ntp2977
Rp2978
(dp2979
g29
I130
sg31
VGyarados
p2980
sg33
g1233
sg35
V35
p2981
sg37
(lp2982
VDragon Rage
p2983
aVTwister
p2984
aVBite
p2985
aVLeer
p2986
asg43
g12
sg44
VIntimidate
p2987
sbag1
(g25
g3
Ntp2988
Rp2989
(dp2990
g29
I6
sg31
VCharizard
p2991
sg33
g1233
sg35
V40
p2992
sg37
(lp2993
VScary Face
p2994
aVFlamethrower
p2995
aVSmokeScreen
p2996
aVWing Attack
p2997
asg43
g12
sg44
VBlaze
p2998
sbasg94
I01
sg95
g1288
sbag1
(g2
g3
Ntp2999
Rp3000
(dp3001
g7
VSpr FRLG Blue 2.png
p3002
sg9
VRival
p3003
sg11
VBlue (game)
p3004
sg13
V1440
p3005
sg15
I5
sg17
g18
sg19
g20
sg21
g1226
sg23
(lp3006
g1
(g25
g3
Ntp3007
Rp3008
(dp3009
g29
I18
sg31
VPidgeot
p3010
sg33
g1233
sg35
V37
p3011
sg37
(lp3012
VWing Attack
p3013
aVFeatherDance
p3014
aVQuick Attack
p3015
aVWhirlwind
p3016
asg43
g12
sg44
VKeen Eye
p3017
sbag1
(g25
g3
Ntp3018
Rp3019
(dp3020
g29
I65
sg31
VAlakazam
p3021
sg33
g1233
sg35
V35
p3022
sg37
(lp3023
VFuture Sight
p3024
aVCalm Mind
p3025
aVReflect
p3026
aVRecover
p3027
asg43
g12
sg44
VSynchronize
p3028
sbag1
(g25
g3
Ntp3029
Rp3030
(dp3031
g29
I58
sg31
VGrowlithe
p3032
sg33
g1233
sg35
V38
p3033
sg37
(lp3034
VRoar
p3035
aVFlame Wheel
p3036
aVLeer
p3037
aVTake Down
p3038
asg43
g12
sg44
VIntimidate
p3039
sbag1
(g25
g3
Ntp3040
Rp3041
(dp3042
g29
I102
sg31
VExeggcute
p3043
sg33
g1233
sg35
V35
p3044
sg37
(lp3045
VConfusion
p3046
aVHypnosis
p3047
aVLeech Seed
p3048
aVStun Spore
p3049
asg43
g12
sg44
VChlorophyll
p3050
sbag1
(g25
g3
Ntp3051
Rp3052
(dp3053
g29
I9
sg31
VBlastoise
p3054
sg33
g1233
sg35
V40
p3055
sg37
(lp3056
VRapid Spin
p3057
aVWater Gun
p3058
aVBite
p3059
aVProtect
p3060
asg43
g12
sg44
VTorrent
p3061
sbasg94
I01
sg95
g1288
sbag1
(g2
g3
Ntp3062
Rp3063
(dp3064
g7
VSpr FRLG Blue 2.png
p3065
sg9
VRival
p3066
sg11
VBlue (game)
p3067
sg13
V1440
p3068
sg15
I5
sg17
g18
sg19
g20
sg21
g1226
sg23
(lp3069
g1
(g25
g3
Ntp3070
Rp3071
(dp3072
g29
I18
sg31
VPidgeot
p3073
sg33
g1233
sg35
V37
p3074
sg37
(lp3075
VWing Attack
p3076
aVFeatherDance
p3077
aVQuick Attack
p3078
aVWhirlwind
p3079
asg43
g12
sg44
VKeen Eye
p3080
sbag1
(g25
g3
Ntp3081
Rp3082
(dp3083
g29
I65
sg31
VAlakazam
p3084
sg33
g1233
sg35
V35
p3085
sg37
(lp3086
VFuture Sight
p3087
aVCalm Mind
p3088
aVReflect
p3089
aVRecover
p3090
asg43
g12
sg44
VSynchronize
p3091
sbag1
(g25
g3
Ntp3092
Rp3093
(dp3094
g29
I130
sg31
VGyarados
p3095
sg33
g1233
sg35
V38
p3096
sg37
(lp3097
VDragon Rage
p3098
aVTwister
p3099
aVBite
p3100
aVLeer
p3101
asg43
g12
sg44
VIntimidate
p3102
sbag1
(g25
g3
Ntp3103
Rp3104
(dp3105
g29
I58
sg31
VGrowlithe
p3106
sg33
g1233
sg35
V35
p3107
sg37
(lp3108
VRoar
p3109
aVFlame Wheel
p3110
aVLeer
p3111
aVTake Down
p3112
asg43
g12
sg44
VIntimidate
p3113
sbag1
(g25
g3
Ntp3114
Rp3115
(dp3116
g29
I3
sg31
VVenusaur
p3117
sg33
g1233
sg35
V40
p3118
sg37
(lp3119
VSweet Scent
p3120
aVSleep Powder
p3121
aVPoisonPowder
p3122
aVRazor Leaf
p3123
asg43
g12
sg44
VOvergrow
p3124
sbasg94
I01
sg95
g1288
sbag1
(g2
g3
Ntp3125
Rp3126
(dp3127
g7
VSpr FRLG Giovanni.png
p3128
sg9
VBoss
p3129
sg11
VGiovanni
p3130
sg13
V4100
p3131
sg15
I4
sg17
g18
sg19
g20
sg21
g1226
sg23
(lp3132
g1
(g25
g3
Ntp3133
Rp3134
(dp3135
g29
I33
sg31
VNidorino
p3136
sg33
g1233
sg35
V37
p3137
sg37
(lp3138
VHorn Attack
p3139
aVPoison Sting
p3140
aVHelping Hand
p3141
aVFury Attack
p3142
asg43
g12
sg44
VPoison Point
p3143
sbag1
(g25
g3
Ntp3144
Rp3145
(dp3146
g29
I111
sg31
VRhyhorn
p3147
sg33
g1233
sg35
V37
p3148
sg37
(lp3149
VFury Attack
p3150
aVScary Face
p3151
aVTail Whip
p3152
aVRock Blast
p3153
asg43
g12
sg44
VRock Head
p3154
sbag1
(g25
g3
Ntp3155
Rp3156
(dp3157
g29
I115
sg31
VKangaskhan
p3158
sg33
VF
p3159
sg35
V35
p3160
sg37
(lp3161
VFake Out
p3162
aVRage
p3163
aVMega Punch
p3164
aVTail Whip
p3165
asg43
g12
sg44
VEarly Bird
p3166
sbag1
(g25
g3
Ntp3167
Rp3168
(dp3169
g29
I31
sg31
VNidoqueen
p3170
sg33
g3159
sg35
V41
p3171
sg37
(lp3172
VDouble Kick
p3173
aVTail Whip
p3174
aVPoison Sting
p3175
aVBody Slam
p3176
asg43
g12
sg44
VPoison Point
p3177
sbasg94
I01
sg95
g1288
sbag1
(g2
g3
Ntp3178
Rp3179
(dp3180
g7
VVSBlue PE.png
p3181
sg9
VPokmon Trainer
p3182
sg11
VBlue (game)
p3183
sg13
V11,200
p3184
sg15
I2
sg17
g18
sg19
g20
sg21
VLGPE
p3185
sg23
(lp3186
g1
(g25
g3
Ntp3187
Rp3188
(dp3189
g29
I103
sg31
VExeggutor
p3190
sg33
g1233
sg35
V38
p3191
sg37
(lp3192
VPower Whip
p3193
aVPsychic
p3194
aVLight Screen
p3195
asg43
g12
sg44
Vchlorophyll
p3196
sbag1
(g25
g3
Ntp3197
Rp3198
(dp3199
g29
I6
sg31
VCharizard
p3200
sg33
g1233
sg35
V40
p3201
sg37
(lp3202
VHeat Wave
p3203
aVAir Slash
p3204
aVSlash
p3205
asg43
g12
sg44
Vblaze
p3206
sbasg94
I01
sg95
Vsun-moon
p3207
sbag1
(g2
g3
Ntp3208
Rp3209
(dp3210
g7
VVSTrace.png
p3211
sg9
VPokmon Trainer
p3212
sg11
VTrace (game)
p3213
sg13
Vn/a
p3214
sg15
I4
sg17
g18
sg19
g20
sg21
VSM
p3215
sg23
(lp3216
g1
(g25
g3
Ntp3217
Rp3218
(dp3219
g29
I104
sg31
VCubone
p3220
sg33
g1233
sg35
V36
p3221
sg37
(lp3222
VFocus Energy
p3223
aVBonemerang
p3224
aVHeadbutt
p3225
asg43
g12
sg44
Vrock-head
p3226
sbag1
(g25
g3
Ntp3227
Rp3228
(dp3229
g29
I18
sg31
VPidgeot
p3230
sg33
g1233
sg35
V36
p3231
sg37
(lp3232
VQuick Attack
p3233
aVAir Slash
p3234
aVSand Attack
p3235
aVRoost
p3236
asg43
g12
sg44
Vtangled-feet
p3237
sbag1
(g25
g3
Ntp3238
Rp3239
(dp3240
g29
I44
sg31
VGloom
p3241
sg33
g3159
sg35
V36
p3242
sg37
(lp3243
VRazor Leaf
p3244
aVToxic
p3245
aVAcid
p3246
asg43
g12
sg44
Vchlorophyll
p3247
sbag1
(g25
g3
Ntp3248
Rp3249
(dp3250
g29
I135
sg31
VJolteon
p3251
sg33
g1233
sg35
V37
p3252
sg37
(lp3253
VThunder Shock
p3254
aVQuick Attack
p3255
aVPin Missile
p3256
aVDouble Kick
p3257
asg43
g12
sg44
Vvolt-absorb
p3258
sbasg94
I01
sg95
g3207
sbag1
(g2
g3
Ntp3259
Rp3260
(dp3261
g7
VVSTrace.png
p3262
sg9
VPokmon Trainer
p3263
sg11
VTrace (game)
p3264
sg13
Vn/a
p3265
sg15
I4
sg17
g18
sg19
g20
sg21
g3215
sg23
(lp3266
g1
(g25
g3
Ntp3267
Rp3268
(dp3269
g29
I104
sg31
VCubone
p3270
sg33
g1233
sg35
V36
p3271
sg37
(lp3272
VFocus Energy
p3273
aVBonemerang
p3274
aVHeadbutt
p3275
asg43
g12
sg44
Vlightning-rod
p3276
sbag1
(g25
g3
Ntp3277
Rp3278
(dp3279
g29
I18
sg31
VPidgeot
p3280
sg33
g1233
sg35
V36
p3281
sg37
(lp3282
VQuick Attack
p3283
aVAir Slash
p3284
aVSand Attack
p3285
aVRoost
p3286
asg43
g12
sg44
Vtangled-feet
p3287
sbag1
(g25
g3
Ntp3288
Rp3289
(dp3290
g29
I44
sg31
VGloom
p3291
sg33
g3159
sg35
V36
p3292
sg37
(lp3293
VRazor Leaf
p3294
aVToxic
p3295
aVAcid
p3296
asg43
g12
sg44
Vchlorophyll
p3297
sbag1
(g25
g3
Ntp3298
Rp3299
(dp3300
g29
I26
sg31
VRaichu
p3301
sg33
g1233
sg35
V37
p3302
sg37
(lp3303
VThunder Shock
p3304
aVQuick Attack
p3305
aVThunder Punch
p3306
aVSlam
p3307
asg43
g12
sg44
Vstatic
p3308
sbasg94
I01
sg95
g3207
sbag1
(g2
g3
Ntp3309
Rp3310
(dp3311
g7
VVSGiovanni PE.png
p3312
sg9
VTeam Rocket Boss
p3313
sg11
VGiovanni
p3314
sg13
V6,240
p3315
sg15
I3
sg17
g18
sg19
g20
sg21
g3185
sg23
(lp3316
g1
(g25
g3
Ntp3317
Rp3318
(dp3319
g29
I53
sg31
VPersian
p3320
sg33
g1233
sg35
V39
p3321
sg37
(lp3322
VSlash
p3323
aVFeint
p3324
aVFake Out
p3325
aVPlay Rough
p3326
asg43
g12
sg44
Vtechnician
p3327
sbag1
(g25
g3
Ntp3328
Rp3329
(dp3330
g29
I111
sg31
VRhyhorn
p3331
sg33
g1233
sg35
V39
p3332
sg37
(lp3333
VDrill Run
p3334
aVTake Down
p3335
aVMegahorn
p3336
aVRock Throw
p3337
asg43
g12
sg44
Vlightning-rod
p3338
sbag1
(g25
g3
Ntp3339
Rp3340
(dp3341
g29
I31
sg31
VNidoqueen
p3342
sg33
g3159
sg35
V39
p3343
sg37
(lp3344
VCrunch
p3345
aVBody Slam
p3346
asg43
g12
sg44
Vrivalry
p3347
sbasg94
I01
sg95
g3207
sba.