(lp0
ccopy_reg
_reconstructor
p1
(c__main__
Trainer
p2
c__builtin__
object
p3
Ntp4
Rp5
(dp6
VtSprite
p7
VSpr DP Ace Trainer M 2.png
p8
sVtClass
p9
VAce Trainer
p10
sVtName
p11
VBlake
p12
sVtMoney
p13
V2100
p14
sVtPokeCount
p15
V2
p16
sVtLocation
p17
Vwiki/Sinnoh_Route_216
p18
sVtRegion
p19
VSinnoh
p20
sVtGame
p21
VDP
p22
sVtPokes
p23
(lp24
g1
(c__main__
FinishedPokemon
p25
g3
Ntp26
Rp27
(dp28
VpDexNo
p29
V424
p30
sVpSpecies
p31
VAmbipom
p32
sVpGender
p33
VM
p34
sVpLevel
p35
V35
p36
sVpMoves
p37
(lp38
Vfling
p39
aVlast-resort
p40
aVnasty-plot
p41
aVdouble-hit
p42
asVpHold
p43
V
p44
sVpAbility
p45
Vtechnician
p46
sbag1
(g25
g3
Ntp47
Rp48
(dp49
g29
V064
p50
sg31
VKadabra
p51
sg33
g34
sg35
V35
p52
sg37
(lp53
Vtrick
p54
aVrole-play
p55
aVmiracle-eye
p56
aVpsycho-cut
p57
asg43
g44
sg45
Vinner-focus
p58
sbasVbossFlag
p59
I00
sVtLongGame
p60
Vdiamond-pearl
p61
sbag1
(g2
g3
Ntp62
Rp63
(dp64
g7
VSpr DP Ace Trainer F 2.png
p65
sg9
VAce Trainer
p66
sg11
VMaria
p67
sg13
V1980
p68
sg15
V3
p69
sg17
g18
sg19
g20
sg21
g22
sg23
(lp70
g1
(g25
g3
Ntp71
Rp72
(dp73
g29
V055
p74
sg31
VGolduck
p75
sg33
VF
p76
sg35
V34
p77
sg37
(lp78
Vpsych-up
p79
aVwater-sport
p80
aVwater-pulse
p81
aVzen-headbutt
p82
asg43
g44
sg45
Vcloud-nine
p83
sbag1
(g25
g3
Ntp84
Rp85
(dp86
g29
V077
p87
sg31
VPonyta
p88
sg33
g76
sg35
V35
p89
sg37
(lp90
Vagility
p91
aVfire-blast
p92
aVbounce
p93
aVflare-blitz
p94
asg43
g44
sg45
Vrun-away
p95
sbag1
(g25
g3
Ntp96
Rp97
(dp98
g29
V185
p99
sg31
VSudowoodo
p100
sg33
g76
sg35
V33
p101
sg37
(lp102
Vhammer-arm
p103
aVcopycat
p104
aVsucker-punch
p105
aVwood-hammer
p106
asg43
g44
sg45
Vsturdy
p107
sbasg59
I00
sg60
g61
sbag1
(g2
g3
Ntp108
Rp109
(dp110
g7
VSpr DP Ace Trainer F 2.png
p111
sg9
VAce Trainer
p112
sg11
VLaura
p113
sg13
V2220
p114
sg15
V1
p115
sg17
g18
sg19
g20
sg21
g22
sg23
(lp116
g1
(g25
g3
Ntp117
Rp118
(dp119
g29
V428
p120
sg31
VLopunny
p121
sg33
g76
sg35
V37
p122
sg37
(lp123
Vmirror-coat
p124
aVmagic-coat
p125
aVbounce
p126
aVhealing-wish
p127
asg43
g44
sg45
Vklutz
p128
sbasg59
I00
sg60
g61
sbag1
(g2
g3
Ntp129
Rp130
(dp131
g7
VSpr DP Skier M.png
p132
sg9
VSkier
p133
sg11
VEdward
p134
sg13
V1120
p135
sg15
g115
sg17
g18
sg19
g20
sg21
g22
sg23
(lp136
g1
(g25
g3
Ntp137
Rp138
(dp139
g29
V215
p140
sg31
VSneasel
p141
sg33
g34
sg35
V35
p142
sg37
(lp143
Vmetal-claw
p144
aVbeat-up
p145
aVtaunt
p146
aVice-shard
p147
asg43
g44
sg45
Vkeen-eye
p148
sbasg59
I00
sg60
g61
sbag1
(g2
g3
Ntp149
Rp150
(dp151
g7
VSpr DP Ace Trainer M 2.png
p152
sg9
VAce Trainer
p153
sg11
VGarrett
p154
sg13
V2100
p155
sg15
g69
sg17
g18
sg19
g20
sg21
g22
sg23
(lp156
g1
(g25
g3
Ntp157
Rp158
(dp159
g29
V122
p160
sg31
VMr. Mime
p161
sg33
g34
sg35
V33
p162
sg37
(lp163
Vmagical-leaf
p164
aVcopycat
p165
aVpower-swap
p166
aVguard-swap
p167
asg43
g44
sg45
Vfilter
p168
sbag1
(g25
g3
Ntp169
Rp170
(dp171
g29
V067
p172
sg31
VMachoke
p173
sg33
g34
sg35
V34
p174
sg37
(lp175
Vvital-throw
p176
aVcross-chop
p177
aVrevenge
p178
aVwake-up-slap
p179
asg43
g44
sg45
Vno-guard
p180
sbag1
(g25
g3
Ntp181
Rp182
(dp183
g29
V215
p184
sg31
VSneasel
p185
sg33
g34
sg35
V35
p186
sg37
(lp187
Vmetal-claw
p188
aVbeat-up
p189
aVtaunt
p190
aVice-shard
p191
asg43
g44
sg45
Vinner-focus
p192
sbasg59
I00
sg60
g61
sbag1
(g2
g3
Ntp193
Rp194
(dp195
g7
VSpr DP Black Belt.png
p196
sg9
VBlack Belt
p197
sg11
VPhilip
p198
sg13
V960
p199
sg15
g115
sg17
g18
sg19
g20
sg21
g22
sg23
(lp200
g1
(g25
g3
Ntp201
Rp202
(dp203
g29
V067
p204
sg31
VMachoke
p205
sg33
g34
sg35
V40
p206
sg37
(lp207
Vvital-throw
p208
aVcross-chop
p209
aVrevenge
p210
aVwake-up-slap
p211
asg43
g44
sg45
Vno-guard
p212
sbasg59
I00
sg60
g61
sbag1
(g2
g3
Ntp213
Rp214
(dp215
g7
VSpr DP Skier M.png
p216
sg9
VSkier
p217
sg11
VBradley
p218
sg13
V1120
p219
sg15
g69
sg17
g18
sg19
g20
sg21
g22
sg23
(lp220
g1
(g25
g3
Ntp221
Rp222
(dp223
g29
V074
p224
sg31
VGeodude
p225
sg33
g34
sg35
V35
p226
sg37
(lp227
Vmud-sport
p228
aVrock-blast
p229
aVrock-polish
p230
aVstone-edge
p231
asg43
g44
sg45
Vrock-head
p232
sbag1
(g25
g3
Ntp233
Rp234
(dp235
g29
V075
p236
sg31
VGraveler
p237
sg33
g34
sg35
V35
p238
sg37
(lp239
Vrock-blast
p240
aVrock-polish
p241
ag241
aVstone-edge
p242
asg43
g44
sg45
Vsturdy
p243
sbag1
(g25
g3
Ntp244
Rp245
(dp246
g29
V459
p247
sg31
VSnover
p248
sg33
g34
sg35
V35
p249
sg37
(lp250
Vgrass-whistle
p251
aVsheer-cold
p252
aVice-shard
p253
aVwood-hammer
p254
asg43
g44
sg45
Vsnow-warning
p255
sbasg59
I00
sg60
g61
sbag1
(g2
g3
Ntp256
Rp257
(dp258
g7
VSpr DP Skier F.png
p259
sg9
VSkier
p260
sg11
VKaitlyn
p261
sg13
V1152
p262
sg15
g16
sg17
g18
sg19
g20
sg21
g22
sg23
(lp263
g1
(g25
g3
Ntp264
Rp265
(dp266
g29
V315
p267
sg31
VRoselia
p268
sg33
g76
sg35
V36
p269
sg37
(lp270
Varomatherapy
p271
aVgrass-whistle
p272
aVmagical-leaf
p273
aVtoxic-spikes
p274
asg43
g44
sg45
Vpoison-point
p275
sbag1
(g25
g3
Ntp276
Rp277
(dp278
g29
V459
p279
sg31
VSnover
p280
sg33
g76
sg35
V36
p281
sg37
(lp282
Vgrass-whistle
p283
aVsheer-cold
p284
aVice-shard
p285
aVwood-hammer
p286
asg43
g44
sg45
Vsnow-warning
p287
sbasg59
I00
sg60
g61
sbag1
(g2
g3
Ntp288
Rp289
(dp290
g7
VSpr DP Skier F.png
p291
sg9
VSkier
p292
sg11
VAndrea
p293
sg13
V1216
p294
sg15
g115
sg17
g18
sg19
g20
sg21
g22
sg23
(lp295
g1
(g25
g3
Ntp296
Rp297
(dp298
g29
V397
p299
sg31
VStaravia
p300
sg33
g76
sg35
V38
p301
sg37
(lp302
Vdouble-team
p303
aVendeavor
p304
aVaerial-ace
p305
aVbrave-bird
p306
asg43
g44
sg45
Vintimidate
p307
sbasg59
I00
sg60
g61
sba.