(lp0
ccopy_reg
_reconstructor
p1
(c__main__
Trainer
p2
c__builtin__
object
p3
Ntp4
Rp5
(dp6
VtSprite
p7
VSpr DP Cyclist M.png
p8
sVtClass
p9
VCyclist
p10
sVtName
p11
VAxel
p12
sVtMoney
p13
V544
p14
sVtPokeCount
p15
V1
p16
sVtLocation
p17
Vwiki/Sinnoh_Route_206
p18
sVtRegion
p19
VSinnoh
p20
sVtGame
p21
VDP
p22
sVtPokes
p23
(lp24
g1
(c__main__
FinishedPokemon
p25
g3
Ntp26
Rp27
(dp28
VpDexNo
p29
V397
p30
sVpSpecies
p31
VStaravia
p32
sVpGender
p33
VM
p34
sVpLevel
p35
V17
p36
sVpMoves
p37
(lp38
Vdouble-team
p39
aVendeavor
p40
aVaerial-ace
p41
aVbrave-bird
p42
asVpHold
p43
V
p44
sVpAbility
p45
Vintimidate
p46
sbasVbossFlag
p47
I00
sVtLongGame
p48
Vdiamond-pearl
p49
sbag1
(g2
g3
Ntp50
Rp51
(dp52
g7
VSpr DP Cyclist F.png
p53
sg9
VCyclist
p54
sg11
VMegan
p55
sg13
V544
p56
sg15
g16
sg17
g18
sg19
g20
sg21
g22
sg23
(lp57
g1
(g25
g3
Ntp58
Rp59
(dp60
g29
V403
p61
sg31
VShinx
p62
sg33
VF
p63
sg35
V17
p64
sg37
(lp65
Vcrunch
p66
aVcharge
p67
aVthunder-fang
p68
aVdischarge
p69
asg43
g44
sg45
Vintimidate
p70
sbasg47
I00
sg48
g49
sbag1
(g2
g3
Ntp71
Rp72
(dp73
g7
VSpr DP Cyclist M.png
p74
sg9
VCyclist
p75
sg11
VJames
p76
sg13
V544
p77
sg15
g16
sg17
g18
sg19
g20
sg21
g22
sg23
(lp78
g1
(g25
g3
Ntp79
Rp80
(dp81
g29
V077
p82
sg31
VPonyta
p83
sg33
g34
sg35
V17
p84
sg37
(lp85
Vagility
p86
aVfire-blast
p87
aVbounce
p88
aVflare-blitz
p89
asg43
g44
sg45
Vrun-away
p90
sbasg47
I00
sg48
g49
sbag1
(g2
g3
Ntp91
Rp92
(dp93
g7
VSpr DP Cyclist F.png
p94
sg9
VCyclist
p95
sg11
VNicole
p96
sg13
V480
p97
sg15
V2
p98
sg17
g18
sg19
g20
sg21
g22
sg23
(lp99
g1
(g25
g3
Ntp100
Rp101
(dp102
g29
V396
p103
sg31
VStarly
p104
sg33
g63
sg35
V15
p105
sg37
(lp106
Vdouble-team
p107
aVendeavor
p108
aVaerial-ace
p109
aVbrave-bird
p110
asg43
g44
sg45
Vkeen-eye
p111
sbag1
(g25
g3
Ntp112
Rp113
(dp114
g29
V077
p115
sg31
VPonyta
p116
sg33
g63
sg35
V15
p117
sg37
(lp118
Vagility
p119
aVfire-blast
p120
aVbounce
p121
aVflare-blitz
p122
asg43
g44
sg45
Vrun-away
p123
sbasg47
I00
sg48
g49
sbag1
(g2
g3
Ntp124
Rp125
(dp126
g7
VSpr DP Cyclist M.png
p127
sg9
VCyclist
p128
sg11
VJohn
p129
sg13
V480
p130
sg15
g98
sg17
g18
sg19
g20
sg21
g22
sg23
(lp131
g1
(g25
g3
Ntp132
Rp133
(dp134
g29
V396
p135
sg31
VStarly
p136
sg33
g34
sg35
V15
p137
sg37
(lp138
Vdouble-team
p139
aVendeavor
p140
aVaerial-ace
p141
aVbrave-bird
p142
asg43
g44
sg45
Vkeen-eye
p143
sbag1
(g25
g3
Ntp144
Rp145
(dp146
g29
V397
p147
sg31
VStaravia
p148
sg33
g34
sg35
V15
p149
sg37
(lp150
Vdouble-team
p151
aVendeavor
p152
aVaerial-ace
p153
aVbrave-bird
p154
asg43
g44
sg45
Vintimidate
p155
sbasg47
I00
sg48
g49
sbag1
(g2
g3
Ntp156
Rp157
(dp158
g7
VSpr DP Cyclist M.png
p159
sg9
VCyclist
p160
sg11
VRyan
p161
sg13
V544
p162
sg15
g16
sg17
g18
sg19
g20
sg21
g22
sg23
(lp163
g1
(g25
g3
Ntp164
Rp165
(dp166
g29
V041
p167
sg31
VZubat
p168
sg33
g34
sg35
V17
p169
sg37
(lp170
Vpoison-fang
p171
aVastonish
p172
aVair-cutter
p173
aVair-slash
p174
asg43
g44
sg45
Vinner-focus
p175
sbasg47
I00
sg48
g49
sbag1
(g2
g3
Ntp176
Rp177
(dp178
g7
VSpr DP Cyclist F.png
p179
sg9
VCyclist
p180
sg11
VRachel
p181
sg13
V480
p182
sg15
g98
sg17
g18
sg19
g20
sg21
g22
sg23
(lp183
g1
(g25
g3
Ntp184
Rp185
(dp186
g29
V403
p187
sg31
VShinx
p188
sg33
g63
sg35
V15
p189
sg37
(lp190
Vcrunch
p191
aVcharge
p192
aVthunder-fang
p193
aVdischarge
p194
asg43
g44
sg45
Vintimidate
p195
sbag1
(g25
g3
Ntp196
Rp197
(dp198
g29
V403
p199
sg31
VShinx
p200
sg33
g63
sg35
V15
p201
sg37
(lp202
Vcrunch
p203
aVcharge
p204
aVthunder-fang
p205
aVdischarge
p206
asg43
g44
sg45
Vrivalry
p207
sbasg47
I00
sg48
g49
sbag1
(g2
g3
Ntp208
Rp209
(dp210
g7
VSpr DP Cyclist F.png
p211
sg9
VCyclist
p212
sg11
VKayla
p213
sg13
V544
p214
sg15
g16
sg17
g18
sg19
g20
sg21
g22
sg23
(lp215
g1
(g25
g3
Ntp216
Rp217
(dp218
g29
V025
p219
sg31
VPikachu
p220
sg33
g63
sg35
V17
p221
sg37
(lp222
Vdouble-team
p223
aVlight-screen
p224
aVfeint
p225
aVdischarge
p226
asg43
g44
sg45
Vstatic
p227
sbasg47
I00
sg48
g49
sbag1
(g2
g3
Ntp228
Rp229
(dp230
g7
VSpr DP Hiker.png
p231
sg9
VHiker
p232
sg11
VTheodore
p233
sg13
V480
p234
sg15
g98
sg17
g18
sg19
g20
sg21
g22
sg23
(lp235
g1
(g25
g3
Ntp236
Rp237
(dp238
g29
V095
p239
sg31
VOnix
p240
sg33
g34
sg35
V15
p241
sg37
(lp242
Vrock-tomb
p243
aVsand-tomb
p244
aVrock-polish
p245
aVstone-edge
p246
asg43
g44
sg45
Vrock-head
p247
sbag1
(g25
g3
Ntp248
Rp249
(dp250
g29
V095
p251
sg31
VOnix
p252
sg33
g34
sg35
V15
p253
sg37
(lp254
Vrock-tomb
p255
aVsand-tomb
p256
aVrock-polish
p257
aVstone-edge
p258
asg43
g44
sg45
Vrock-head
p259
sbasg47
I00
sg48
g49
sba.