(lp0
ccopy_reg
_reconstructor
p1
(c__main__
Trainer
p2
c__builtin__
object
p3
Ntp4
Rp5
(dp6
VtSprite
p7
VSpr DP Aaron.png
p8
sVtClass
p9
VElite Four
p10
sVtName
p11
VAaron (Elite Four)
p12
sVtMoney
p13
V6840
p14
sVtPokeCount
p15
I5
sVtLocation
p16
Vwiki/sinnohE4
p17
sVtRegion
p18
VSinnoh
p19
sVtGame
p20
VDP
p21
sVtPokes
p22
(lp23
g1
(c__main__
FinishedPokemon
p24
g3
Ntp25
Rp26
(dp27
VpDexNo
p28
I269
sVpSpecies
p29
VDustox
p30
sVpGender
p31
VM
p32
sVpLevel
p33
V53
p34
sVpMoves
p35
(lp36
VToxic
p37
aVBug Buzz
p38
aVDouble Team
p39
aVLight Screen
p40
asVpHold
p41
V
p42
sVpAbility
p43
VShield Dust
p44
sbag1
(g24
g3
Ntp45
Rp46
(dp47
g28
I267
sg29
VBeautifly
p48
sg31
g32
sg33
V53
p49
sg35
(lp50
VEnergy Ball
p51
aVBug Buzz
p52
aVPsychic
p53
aVShadow Ball
p54
asg41
g42
sg43
VSwarm
p55
sbag1
(g24
g3
Ntp56
Rp57
(dp58
g28
I416
sg29
VVespiquen
p59
sg31
VF
p60
sg33
V54
p61
sg35
(lp62
VAttack Order
p63
aVDefend Order
p64
aVHeal Order
p65
aVPower Gem
p66
asg41
g42
sg43
VPressure
p67
sbag1
(g24
g3
Ntp68
Rp69
(dp70
g28
I214
sg29
VHeracross
p71
sg31
g32
sg33
V54
p72
sg35
(lp73
VMegahorn
p74
aVClose Combat
p75
aVNight Slash
p76
aVStone Edge
p77
asg41
g42
sg43
VSwarm
p78
sbag1
(g24
g3
Ntp79
Rp80
(dp81
g28
I452
sg29
VDrapion
p82
sg31
g32
sg33
V57
p83
sg35
(lp84
VX-Scissor
p85
aVCross Poison
p86
aVIce Fang
p87
aVAerial Ace
p88
asg41
VSitrus Berry
p89
sg43
VBattle Armor
p90
sbasVbossFlag
p91
I01
sVtLongGame
p92
Vdiamond-pearl
p93
sbag1
(g2
g3
Ntp94
Rp95
(dp96
g7
VSpr Pt Aaron.png
p97
sg9
VElite Four
p98
sg11
VAaron (Elite Four)
p99
sg13
g1
(cmwparserfromhell.wikicode
Wikicode
p100
g3
Ntp101
Rp102
(dp103
V_nodes
p104
g1
(cmwparserfromhell.smart_list.smart_list
SmartList
p105
c__builtin__
list
p106
(lp107
g1
(cmwparserfromhell.nodes.text
Text
p108
g3
Ntp109
Rp110
(dp111
V_value
p112
V6360
p113
sbatp114
Rp115
(dp116
V_children
p117
(dp118
sbsbsg15
I5
sg16
g17
sg18
g19
sg20
VPt
p119
sg22
(lp120
g1
(g24
g3
Ntp121
Rp122
(dp123
g28
I469
sg29
VYanmega
p124
sg31
g32
sg33
g1
(g100
g3
Ntp125
Rp126
(dp127
g104
g1
(g105
g106
(lp128
g1
(g108
g3
Ntp129
Rp130
(dp131
g112
V49
p132
sbatp133
Rp134
(dp135
g117
(dp136
sbsbsg35
(lp137
VAir Slash
p138
aVBug Buzz
p139
aVU-turn
p140
aVDouble Team
p141
asg41
g42
sg43
VSpeed Boost
p142
sbag1
(g24
g3
Ntp143
Rp144
(dp145
g28
I212
sg29
VScizor
p146
sg31
g32
sg33
g1
(g100
g3
Ntp147
Rp148
(dp149
g104
g1
(g105
g106
(lp150
g1
(g108
g3
Ntp151
Rp152
(dp153
g112
V49
p154
sbatp155
Rp156
(dp157
g117
(dp158
sbsbsg35
(lp159
VIron Head
p160
aVX-Scissor
p161
aVNight Slash
p162
aVQuick Attack
p163
asg41
g42
sg43
VSwarm
p164
sbag1
(g24
g3
Ntp165
Rp166
(dp167
g28
I416
sg29
VVespiquen
p168
sg31
g60
sg33
g1
(g100
g3
Ntp169
Rp170
(dp171
g104
g1
(g105
g106
(lp172
g1
(g108
g3
Ntp173
Rp174
(dp175
g112
V50
p176
sbatp177
Rp178
(dp179
g117
(dp180
sbsbsg35
(lp181
VAttack Order
p182
aVDefend Order
p183
aVHeal Order
p184
aVPower Gem
p185
asg41
g42
sg43
VPressure
p186
sbag1
(g24
g3
Ntp187
Rp188
(dp189
g28
I214
sg29
VHeracross
p190
sg31
g32
sg33
g1
(g100
g3
Ntp191
Rp192
(dp193
g104
g1
(g105
g106
(lp194
g1
(g108
g3
Ntp195
Rp196
(dp197
g112
V51
p198
sbatp199
Rp200
(dp201
g117
(dp202
sbsbsg35
(lp203
VMegahorn
p204
aVClose Combat
p205
aVNight Slash
p206
aVStone Edge
p207
asg41
g42
sg43
VSwarm
p208
sbag1
(g24
g3
Ntp209
Rp210
(dp211
g28
I452
sg29
VDrapion
p212
sg31
g32
sg33
g1
(g100
g3
Ntp213
Rp214
(dp215
g104
g1
(g105
g106
(lp216
g1
(g108
g3
Ntp217
Rp218
(dp219
g112
V53
p220
sbatp221
Rp222
(dp223
g117
(dp224
sbsbsg35
(lp225
VX-Scissor
p226
aVCross Poison
p227
aVIce Fang
p228
aVAerial Ace
p229
asg41
VSitrus Berry
p230
sg43
VBattle Armor
p231
sbasg91
I01
sg92
Vplatinum
p232
sbag1
(g2
g3
Ntp233
Rp234
(dp235
g7
VSpr DP Bertha.png
p236
sg9
VElite Four
p237
sg11
VBertha
p238
sg13
V7080
p239
sg15
I5
sg16
g17
sg18
g19
sg20
g21
sg22
(lp240
g1
(g24
g3
Ntp241
Rp242
(dp243
g28
I195
sg29
VQuagsire
p244
sg31
g60
sg33
V55
p245
sg35
(lp246
VDig
p247
aVDouble Team
p248
aVProtect
p249
aVSandstorm
p250
asg41
g42
sg43
VDamp
p251
sbag1
(g24
g3
Ntp252
Rp253
(dp254
g28
I185
sg29
VSudowoodo
p255
sg31
g60
sg33
V56
p256
sg35
(lp257
VEarthquake
p258
aVSucker Punch
p259
aVHammer Arm
p260
aVSandstorm
p261
asg41
g42
sg43
VSturdy
p262
sbag1
(g24
g3
Ntp263
Rp264
(dp265
g28
I76
sg29
VGolem
p266
sg31
g60
sg33
V56
p267
sg35
(lp268
VEarthquake
p269
aVGyro Ball
p270
aVBrick Break
p271
aVSandstorm
p272
asg41
g42
sg43
VRock Head
p273
sbag1
(g24
g3
Ntp274
Rp275
(dp276
g28
I340
sg29
VWhiscash
p277
sg31
g60
sg33
V55
p278
sg35
(lp279
VFissure
p280
aVAqua Tail
p281
aVZen Headbutt
p282
aVRock Slide
p283
asg41
g42
sg43
VOblivious
p284
sbag1
(g24
g3
Ntp285
Rp286
(dp287
g28
I450
sg29
VHippowdon
p288
sg31
g60
sg33
V59
p289
sg35
(lp290
VEarthquake
p291
aVStone Edge
p292
aVCrunch
p293
aVCurse
p294
asg41
VSitrus Berry
p295
sg43
VSand Stream
p296
sbasg91
I01
sg92
g93
sbag1
(g2
g3
Ntp297
Rp298
(dp299
g7
VSpr Pt Bertha.png
p300
sg9
VElite Four
p301
sg11
VBertha
p302
sg13
g1
(g100
g3
Ntp303
Rp304
(dp305
g104
g1
(g105
g106
(lp306
g1
(g108
g3
Ntp307
Rp308
(dp309
g112
V6600
p310
sbatp311
Rp312
(dp313
g117
(dp314
sbsbsg15
I5
sg16
g17
sg18
g19
sg20
g119
sg22
(lp315
g1
(g24
g3
Ntp316
Rp317
(dp318
g28
I340
sg29
VWhiscash
p319
sg31
g60
sg33
g1
(g100
g3
Ntp320
Rp321
(dp322
g104
g1
(g105
g106
(lp323
g1
(g108
g3
Ntp324
Rp325
(dp326
g112
V50
p327
sbatp328
Rp329
(dp330
g117
(dp331
sbsbsg35
(lp332
VEarth Power
p333
aVAqua Tail
p334
aVZen Headbutt
p335
aVSandstorm
p336
asg41
g42
sg43
VOblivious
p337
sbag1
(g24
g3
Ntp338
Rp339
(dp340
g28
I472
sg29
VGliscor
p341
sg31
g60
sg33
g1
(g100
g3
Ntp342
Rp343
(dp344
g104
g1
(g105
g106
(lp345
g1
(g108
g3
Ntp346
Rp347
(dp348
g112
V53
p349
sbatp350
Rp351
(dp352
g117
(dp353
sbsbsg35
(lp354
VEarthquake
p355
aVIce Fang
p356
aVFire Fang
p357
aVThunder Fang
p358
asg41
g42
sg43
VHyper Cutter
p359
sbag1
(g24
g3
Ntp360
Rp361
(dp362
g28
I450
sg29
VHippowdon
p363
sg31
g60
sg33
g1
(g100
g3
Ntp364
Rp365
(dp366
g104
g1
(g105
g106
(lp367
g1
(g108
g3
Ntp368
Rp369
(dp370
g112
V52
p371
sbatp372
Rp373
(dp374
g117
(dp375
sbsbsg35
(lp376
VEarthquake
p377
aVStone Edge
p378
aVCrunch
p379
aVYawn
p380
asg41
g42
sg43
VSand Stream
p381
sbag1
(g24
g3
Ntp382
Rp383
(dp384
g28
I76
sg29
VGolem
p385
sg31
g60
sg33
g1
(g100
g3
Ntp386
Rp387
(dp388
g104
g1
(g105
g106
(lp389
g1
(g108
g3
Ntp390
Rp391
(dp392
g112
V52
p393
sbatp394
Rp395
(dp396
g117
(dp397
sbsbsg35
(lp398
VEarthquake
p399
aVFire Punch
p400
aVThunderPunch
p401
aVSandstorm
p402
asg41
g42
sg43
VRock Head
p403
sbag1
(g24
g3
Ntp404
Rp405
(dp406
g28
I464
sg29
VRhyperior
p407
sg31
g60
sg33
g1
(g100
g3
Ntp408
Rp409
(dp410
g104
g1
(g105
g106
(lp411
g1
(g108
g3
Ntp412
Rp413
(dp414
g112
V55
p415
sbatp416
Rp417
(dp418
g117
(dp419
sbsbsg35
(lp420
VEarthquake
p421
aVRock Wrecker
p422
aVMegahorn
p423
aVAvalanche
p424
asg41
VSitrus Berry
p425
sg43
VLightningrod
p426
sbasg91
I01
sg92
g232
sbag1
(g2
g3
Ntp427
Rp428
(dp429
g7
VSpr DP Flint.png
p430
sg9
VElite Four
p431
sg11
VFlint (Elite Four)
p432
sg13
V7320
p433
sg15
I5
sg16
g17
sg18
g19
sg20
g21
sg22
(lp434
g1
(g24
g3
Ntp435
Rp436
(dp437
g28
I78
sg29
VRapidash
p438
sg31
g32
sg33
V58
p439
sg35
(lp440
VFlare Blitz
p441
aVSolarBeam
p442
aVBounce
p443
aVSunny Day
p444
asg41
g42
sg43
VRun Away
p445
sbag1
(g24
g3
Ntp446
Rp447
(dp448
g28
I208
sg29
VSteelix
p449
sg31
g32
sg33
V57
p450
sg35
(lp451
VFire Fang
p452
aVRock Tomb
p453
aVScreech
p454
aVSunny Day
p455
asg41
g42
sg43
VRock Head
p456
sbag1
(g24
g3
Ntp457
Rp458
(dp459
g28
I426
sg29
VDrifblim
p460
sg31
g32
sg33
V58
p461
sg35
(lp462
VWill-O-Wisp
p463
aVOminous Wind
p464
aVDouble Team
p465
aVBaton Pass
p466
asg41
g42
sg43
VAftermath
p467
sbag1
(g24
g3
Ntp468
Rp469
(dp470
g28
I428
sg29
VLopunny
p471
sg31
g32
sg33
V57
p472
sg35
(lp473
VFire Punch
p474
aVCharm
p475
aVMirror Coat
p476
aVSunny Day
p477
asg41
g42
sg43
VCute Charm
p478
sbag1
(g24
g3
Ntp479
Rp480
(dp481
g28
I392
sg29
VInfernape
p482
sg31
g32
sg33
V61
p483
sg35
(lp484
VFlare Blitz
p485
aVThunderPunch
p486
aVMach Punch
p487
aVEarthquake
p488
asg41
VSitrus Berry
p489
sg43
VBlaze
p490
sbasg91
I01
sg92
g93
sbag1
(g2
g3
Ntp491
Rp492
(dp493
g7
VSpr Pt Flint.png
p494
sg9
VElite Four
p495
sg11
VFlint (Elite Four)
p496
sg13
g1
(g100
g3
Ntp497
Rp498
(dp499
g104
g1
(g105
g106
(lp500
g1
(g108
g3
Ntp501
Rp502
(dp503
g112
V6840
p504
sbatp505
Rp506
(dp507
g117
(dp508
sbsbsg15
I5
sg16
g17
sg18
g19
sg20
g119
sg22
(lp509
g1
(g24
g3
Ntp510
Rp511
(dp512
g28
I229
sg29
VHoundoom
p513
sg31
g32
sg33
g1
(g100
g3
Ntp514
Rp515
(dp516
g104
g1
(g105
g106
(lp517
g1
(g108
g3
Ntp518
Rp519
(dp520
g112
V52
p521
sbatp522
Rp523
(dp524
g117
(dp525
sbsbsg35
(lp526
VFlamethrower
p527
aVSludge Bomb
p528
aVDark Pulse
p529
aVSunny Day
p530
asg41
g42
sg43
VEarly Bird
p531
sbag1
(g24
g3
Ntp532
Rp533
(dp534
g28
I136
sg29
VFlareon
p535
sg31
g32
sg33
g1
(g100
g3
Ntp536
Rp537
(dp538
g104
g1
(g105
g106
(lp539
g1
(g108
g3
Ntp540
Rp541
(dp542
g112
V55
p543
sbatp544
Rp545
(dp546
g117
(dp547
sbsbsg35
(lp548
VOverheat
p549
aVGiga Impact
p550
aVQuick Attack
p551
aVWill-O-Wisp
p552
asg41
g42
sg43
VFlash Fire
p553
sbag1
(g24
g3
Ntp554
Rp555
(dp556
g28
I78
sg29
VRapidash
p557
sg31
g32
sg33
g1
(g100
g3
Ntp558
Rp559
(dp560
g104
g1
(g105
g106
(lp561
g1
(g108
g3
Ntp562
Rp563
(dp564
g112
V53
p565
sbatp566
Rp567
(dp568
g117
(dp569
sbsbsg35
(lp570
VFlare Blitz
p571
aVSolarBeam
p572
aVBounce
p573
aVSunny Day
p574
asg41
g42
sg43
VRun Away
p575
sbag1
(g24
g3
Ntp576
Rp577
(dp578
g28
I392
sg29
VInfernape
p579
sg31
g32
sg33
g1
(g100
g3
Ntp580
Rp581
(dp582
g104
g1
(g105
g106
(lp583
g1
(g108
g3
Ntp584
Rp585
(dp586
g112
V55
p587
sbatp588
Rp589
(dp590
g117
(dp591
sbsbsg35
(lp592
VFlare Blitz
p593
aVThunderPunch
p594
aVMach Punch
p595
aVEarthquake
p596
asg41
g42
sg43
VBlaze
p597
sbag1
(g24
g3
Ntp598
Rp599
(dp600
g28
I467
sg29
VMagmortar
p601
sg31
g32
sg33
g1
(g100
g3
Ntp602
Rp603
(dp604
g104
g1
(g105
g106
(lp605
g1
(g108
g3
Ntp606
Rp607
(dp608
g112
V57
p609
sbatp610
Rp611
(dp612
g117
(dp613
sbsbsg35
(lp614
VFlamethrower
p615
aVThunderbolt
p616
aVSolarBeam
p617
aVHyper Beam
p618
asg41
VSitrus Berry
p619
sg43
VFlame Body
p620
sbasg91
I01
sg92
g232
sbag1
(g2
g3
Ntp621
Rp622
(dp623
g7
VSpr DP Lucian.png
p624
sg9
VElite Four
p625
sg11
VLucian
p626
sg13
V7560
p627
sg15
I5
sg16
g17
sg18
g19
sg20
g21
sg22
(lp628
g1
(g24
g3
Ntp629
Rp630
(dp631
g28
I122
sg29
VMr. Mime
p632
sg31
g32
sg33
V59
p633
sg35
(lp634
VPsychic
p635
aVThunderbolt
p636
aVReflect
p637
aVLight Screen
p638
asg41
g42
sg43
VSoundproof
p639
sbag1
(g24
g3
Ntp640
Rp641
(dp642
g28
I203
sg29
VGirafarig
p643
sg31
g32
sg33
V59
p644
sg35
(lp645
VPsychic
p646
aVShadow Ball
p647
aVDouble Hit
p648
aVCrunch
p649
asg41
g42
sg43
VInner Focus
p650
sbag1
(g24
g3
Ntp651
Rp652
(dp653
g28
I308
sg29
VMedicham
p654
sg31
g32
sg33
V60
p655
sg35
(lp656
VDrain Punch
p657
aVFire Punch
p658
aVThunderPunch
p659
aVIce Punch
p660
asg41
g42
sg43
VPure Power
p661
sbag1
(g24
g3
Ntp662
Rp663
(dp664
g28
I65
sg29
VAlakazam
p665
sg31
g32
sg33
V60
p666
sg35
(lp667
VPsychic
p668
aVEnergy Ball
p669
aVFocus Blast
p670
aVRecover
p671
asg41
g42
sg43
VSynchronize
p672
sbag1
(g24
g3
Ntp673
Rp674
(dp675
g28
I437
sg29
VBronzong
p676
sg31
VU
p677
sg33
V63
p678
sg35
(lp679
VPsychic
p680
aVGyro Ball
p681
aVEarthquake
p682
aVCalm Mind
p683
asg41
VSitrus Berry
p684
sg43
VLevitate
p685
sbasg91
I01
sg92
g93
sbag1
(g2
g3
Ntp686
Rp687
(dp688
g7
VSpr Pt Lucian.png
p689
sg9
VElite Four
p690
sg11
VLucian
p691
sg13
g1
(g100
g3
Ntp692
Rp693
(dp694
g104
g1
(g105
g106
(lp695
g1
(g108
g3
Ntp696
Rp697
(dp698
g112
V7080
p699
sbatp700
Rp701
(dp702
g117
(dp703
sbsbsg15
I5
sg16
g17
sg18
g19
sg20
g119
sg22
(lp704
g1
(g24
g3
Ntp705
Rp706
(dp707
g28
I122
sg29
VMr. Mime
p708
sg31
g32
sg33
g1
(g100
g3
Ntp709
Rp710
(dp711
g104
g1
(g105
g106
(lp712
g1
(g108
g3
Ntp713
Rp714
(dp715
g112
V53
p716
sbatp717
Rp718
(dp719
g117
(dp720
sbsbsg35
(lp721
VPsychic
p722
aVThunderbolt
p723
aVReflect
p724
aVLight Screen
p725
asg41
g42
sg43
VSoundproof
p726
sbag1
(g24
g3
Ntp727
Rp728
(dp729
g28
I196
sg29
VEspeon
p730
sg31
g32
sg33
g1
(g100
g3
Ntp731
Rp732
(dp733
g104
g1
(g105
g106
(lp734
g1
(g108
g3
Ntp735
Rp736
(dp737
g112
V55
p738
sbatp739
Rp740
(dp741
g117
(dp742
sbsbsg35
(lp743
VPsychic
p744
aVShadow Ball
p745
aVQuick Attack
p746
aVSignal Beam
p747
asg41
g42
sg43
VSynchronize
p748
sbag1
(g24
g3
Ntp749
Rp750
(dp751
g28
I437
sg29
VBronzong
p752
sg31
g677
sg33
g1
(g100
g3
Ntp753
Rp754
(dp755
g104
g1
(g105
g106
(lp756
g1
(g108
g3
Ntp757
Rp758
(dp759
g112
V54
p760
sbatp761
Rp762
(dp763
g117
(dp764
sbsbsg35
(lp765
VPsychic
p766
aVGyro Ball
p767
aVEarthquake
p768
aVCalm Mind
p769
asg41
g42
sg43
VLevitate
p770
sbag1
(g24
g3
Ntp771
Rp772
(dp773
g28
I65
sg29
VAlakazam
p774
sg31
g32
sg33
g1
(g100
g3
Ntp775
Rp776
(dp777
g104
g1
(g105
g106
(lp778
g1
(g108
g3
Ntp779
Rp780
(dp781
g112
V56
p782
sbatp783
Rp784
(dp785
g117
(dp786
sbsbsg35
(lp787
VPsychic
p788
aVEnergy Ball
p789
aVFocus Blast
p790
aVRecover
p791
asg41
g42
sg43
VSynchronize
p792
sbag1
(g24
g3
Ntp793
Rp794
(dp795
g28
I475
sg29
VGallade
p796
sg31
g32
sg33
g1
(g100
g3
Ntp797
Rp798
(dp799
g104
g1
(g105
g106
(lp800
g1
(g108
g3
Ntp801
Rp802
(dp803
g112
V59
p804
sbatp805
Rp806
(dp807
g117
(dp808
sbsbsg35
(lp809
VDrain Punch
p810
aVPsycho Cut
p811
aVLeaf Blade
p812
aVStone Edge
p813
asg41
VSitrus Berry
p814
sg43
VSteadfast
p815
sbasg91
I01
sg92
g232
sbag1
(g2
g3
Ntp816
Rp817
(dp818
g7
VSpr DP Cynthia.png
p819
sg9
VChampion
p820
sg11
VCynthia
p821
sg13
V13200
p822
sg15
I6
sg16
g17
sg18
g19
sg20
g21
sg22
(lp823
g1
(g24
g3
Ntp824
Rp825
(dp826
g28
I442
sg29
VSpiritomb
p827
sg31
g60
sg33
V61
p828
sg35
(lp829
VDark Pulse
p830
aVPsychic
p831
aVSilver Wind
p832
aVEmbargo
p833
asg41
g42
sg43
VPressure
p834
sbag1
(g24
g3
Ntp835
Rp836
(dp837
g28
I407
sg29
VRoserade
p838
sg31
g60
sg33
V60
p839
sg35
(lp840
VEnergy Ball
p841
aVSludge Bomb
p842
aVShadow Ball
p843
aVExtrasensory
p844
asg41
g42
sg43
VNatural Cure
p845
sbag1
(g24
g3
Ntp846
Rp847
(dp848
g28
I423
sg29
VGastrodon
p849
sg31
g60
sg33
V60
p850
sg35
(lp851
VMuddy Water
p852
aVEarthquake
p853
aVStone Edge
p854
aVSludge Bomb
p855
asg41
g42
sg43
VSticky Hold
p856
sbag1
(g24
g3
Ntp857
Rp858
(dp859
g28
I448
sg29
VLucario
p860
sg31
g32
sg33
V63
p861
sg35
(lp862
VAura Sphere
p863
aVDragon Pulse
p864
aVPsychic
p865
aVEarthquake
p866
asg41
g42
sg43
VSteadfast
p867
sbag1
(g24
g3
Ntp868
Rp869
(dp870
g28
I350
sg29
VMilotic
p871
sg31
g60
sg33
V63
p872
sg35
(lp873
VSurf
p874
aVIce Beam
p875
aVMirror Coat
p876
aVAqua Ring
p877
asg41
g42
sg43
VMarvel Scale
p878
sbag1
(g24
g3
Ntp879
Rp880
(dp881
g28
I445
sg29
VGarchomp
p882
sg31
g60
sg33
V66
p883
sg35
(lp884
VDragon Rush
p885
aVEarthquake
p886
aVBrick Break
p887
aVGiga Impact
p888
asg41
VSitrus Berry
p889
sg43
VSand Veil
p890
sbasg91
I01
sg92
g93
sbag1
(g2
g3
Ntp891
Rp892
(dp893
g7
VSpr Pt Cynthia.png
p894
sg9
VChampion
p895
sg11
VCynthia
p896
sg13
V12400
p897
sg15
I6
sg16
g17
sg18
g19
sg20
g119
sg22
(lp898
g1
(g24
g3
Ntp899
Rp900
(dp901
g28
I442
sg29
VSpiritomb
p902
sg31
g60
sg33
V58
p903
sg35
(lp904
VDark Pulse
p905
aVPsychic
p906
aVSilver Wind
p907
aVShadow Ball
p908
asg41
g42
sg43
VPressure
p909
sbag1
(g24
g3
Ntp910
Rp911
(dp912
g28
I407
sg29
VRoserade
p913
sg31
g60
sg33
V58
p914
sg35
(lp915
VEnergy Ball
p916
aVSludge Bomb
p917
aVToxic
p918
aVExtrasensory
p919
asg41
g42
sg43
VNatural Cure
p920
sbag1
(g24
g3
Ntp921
Rp922
(dp923
g28
I468
sg29
VTogekiss
p924
sg31
g32
sg33
V60
p925
sg35
(lp926
VAir Slash
p927
aVAura Sphere
p928
aVWater Pulse
p929
aVShock Wave
p930
asg41
g42
sg43
VHustle
p931
sbag1
(g24
g3
Ntp932
Rp933
(dp934
g28
I448
sg29
VLucario
p935
sg31
g32
sg33
V60
p936
sg35
(lp937
VAura Sphere
p938
aVExtremeSpeed
p939
aVShadow Ball
p940
aVStone Edge
p941
asg41
g42
sg43
VSteadfast
p942
sbag1
(g24
g3
Ntp943
Rp944
(dp945
g28
I350
sg29
VMilotic
p946
sg31
g60
sg33
V58
p947
sg35
(lp948
VSurf
p949
aVIce Beam
p950
aVMirror Coat
p951
aVDragon Pulse
p952
asg41
g42
sg43
VMarvel Scale
p953
sbag1
(g24
g3
Ntp954
Rp955
(dp956
g28
I445
sg29
VGarchomp
p957
sg31
g60
sg33
V62
p958
sg35
(lp959
VDragon Rush
p960
aVEarthquake
p961
aVFlamethrower
p962
aVGiga Impact
p963
asg41
VSitrus Berry
p964
sg43
VSand Veil
p965
sbasg91
I01
sg92
g232
sbag1
(g2
g3
Ntp966
Rp967
(dp968
g7
VSpr Pt Cynthia.png
p969
sg9
VChampion
p970
sg11
VCynthia
p971
sg13
V15600
p972
sg15
I6
sg16
g17
sg18
g19
sg20
g119
sg22
(lp973
g1
(g24
g3
Ntp974
Rp975
(dp976
g28
I442
sg29
VSpiritomb
p977
sg31
g60
sg33
V74
p978
sg35
(lp979
VDark Pulse
p980
aVPsychic
p981
aVSilver Wind
p982
aVOminous Wind
p983
asg41
g42
sg43
VPressure
p984
sbag1
(g24
g3
Ntp985
Rp986
(dp987
g28
I407
sg29
VRoserade
p988
sg31
g60
sg33
V74
p989
sg35
(lp990
VEnergy Ball
p991
aVSludge Bomb
p992
aVShadow Ball
p993
aVExtrasensory
p994
asg41
g42
sg43
VNatural Cure
p995
sbag1
(g24
g3
Ntp996
Rp997
(dp998
g28
I468
sg29
VTogekiss
p999
sg31
g32
sg33
V76
p1000
sg35
(lp1001
VAir Slash
p1002
aVAura Sphere
p1003
aVWater Pulse
p1004
aVPsychic
p1005
asg41
g42
sg43
VHustle
p1006
sbag1
(g24
g3
Ntp1007
Rp1008
(dp1009
g28
I448
sg29
VLucario
p1010
sg31
g32
sg33
V76
p1011
sg35
(lp1012
VAura Sphere
p1013
aVDragon Pulse
p1014
aVPsychic
p1015
aVEarthquake
p1016
asg41
g42
sg43
VSteadfast
p1017
sbag1
(g24
g3
Ntp1018
Rp1019
(dp1020
g28
I350
sg29
VMilotic
p1021
sg31
g60
sg33
V74
p1022
sg35
(lp1023
VSurf
p1024
aVIce Beam
p1025
aVMirror Coat
p1026
aVAqua Ring
p1027
asg41
g42
sg43
VMarvel Scale
p1028
sbag1
(g24
g3
Ntp1029
Rp1030
(dp1031
g28
I445
sg29
VGarchomp
p1032
sg31
g60
sg33
V78
p1033
sg35
(lp1034
VDragon Rush
p1035
aVEarthquake
p1036
aVBrick Break
p1037
aVGiga Impact
p1038
asg41
VSitrus Berry
p1039
sg43
VSand Veil
p1040
sbasg91
I01
sg92
g232
sbag1
(g2
g3
Ntp1041
Rp1042
(dp1043
g7
VSpr DP Barry.png
p1044
sg9
VPokemon Trainer
p1045
sg11
VBarry (game)
p1046
sg13
V5300
p1047
sg15
I6
sg16
g17
sg18
g19
sg20
g21
sg22
(lp1048
g1
(g24
g3
Ntp1049
Rp1050
(dp1051
g28
I398
sg29
VStaraptor
p1052
sg31
g32
sg33
V48
p1053
sg35
(lp1054
VClose Combat
p1055
aVAerial Ace
p1056
aVSteel Wing
p1057
aVU-turn
p1058
asg41
g42
sg43
VIntimidate
p1059
sbag1
(g24
g3
Ntp1060
Rp1061
(dp1062
g28
I214
sg29
VHeracross
p1063
sg31
g32
sg33
V50
p1064
sg35
(lp1065
VRock Slide
p1066
aVClose Combat
p1067
aVNight Slash
p1068
aVAerial Ace
p1069
asg41
g42
sg43
VSwarm
p1070
sbag1
(g24
g3
Ntp1071
Rp1072
(dp1073
g28
I143
sg29
VSnorlax
p1074
sg31
g32
sg33
V51
p1075
sg35
(lp1076
VRest
p1077
aVCrunch
p1078
aVEarthquake
p1079
aVBody Slam
p1080
asg41
g42
sg43
VImmunity
p1081
sbag1
(g24
g3
Ntp1082
Rp1083
(dp1084
g28
I407
sg29
VRoserade
p1085
sg31
g32
sg33
V49
p1086
sg35
(lp1087
VPoison Jab
p1088
aVGiga Drain
p1089
aVShadow Ball
p1090
aVGrassWhistle
p1091
asg41
g42
sg43
VNatural Cure
p1092
sbag1
(g24
g3
Ntp1093
Rp1094
(dp1095
g28
I419
sg29
VFloatzel
p1096
sg31
g32
sg33
V49
p1097
sg35
(lp1098
VAqua Jet
p1099
aVIce Fang
p1100
aVCrunch
p1101
aVBrick Break
p1102
asg41
g42
sg43
VSwift Swim
p1103
sbag1
(g24
g3
Ntp1104
Rp1105
(dp1106
g28
I392
sg29
VInfernape
p1107
sg31
g32
sg33
V53
p1108
sg35
(lp1109
VFlamethrower
p1110
aVFocus Blast
p1111
aVAerial Ace
p1112
aVShadow Claw
p1113
asg41
VSitrus Berry
p1114
sg43
VBlaze
p1115
sbasg91
I01
sg92
g93
sbag1
(g2
g3
Ntp1116
Rp1117
(dp1118
g7
VSpr DP Barry.png
p1119
sg9
VPokemon Trainer
p1120
sg11
VBarry (game)
p1121
sg13
V5300
p1122
sg15
I6
sg16
g17
sg18
g19
sg20
g21
sg22
(lp1123
g1
(g24
g3
Ntp1124
Rp1125
(dp1126
g28
I398
sg29
VStaraptor
p1127
sg31
g32
sg33
V48
p1128
sg35
(lp1129
VClose Combat
p1130
aVAerial Ace
p1131
aVSteel Wing
p1132
aVU-turn
p1133
asg41
g42
sg43
VIntimidate
p1134
sbag1
(g24
g3
Ntp1135
Rp1136
(dp1137
g28
I214
sg29
VHeracross
p1138
sg31
g32
sg33
V50
p1139
sg35
(lp1140
VRock Slide
p1141
aVClose Combat
p1142
aVNight Slash
p1143
aVAerial Ace
p1144
asg41
g42
sg43
VSwarm
p1145
sbag1
(g24
g3
Ntp1146
Rp1147
(dp1148
g28
I143
sg29
VSnorlax
p1149
sg31
g32
sg33
V51
p1150
sg35
(lp1151
VRest
p1152
aVCrunch
p1153
aVEarthquake
p1154
aVBody Slam
p1155
asg41
g42
sg43
VImmunity
p1156
sbag1
(g24
g3
Ntp1157
Rp1158
(dp1159
g28
I78
sg29
VRapidash
p1160
sg31
g32
sg33
V49
p1161
sg35
(lp1162
VWill-O-Wisp
p1163
aVSunny Day
p1164
aVBounce
p1165
aVFire Blast
p1166
asg41
g42
sg43
VRun Away
p1167
sbag1
(g24
g3
Ntp1168
Rp1169
(dp1170
g28
I407
sg29
VRoserade
p1171
sg31
g32
sg33
V49
p1172
sg35
(lp1173
VPoison Jab
p1174
aVGiga Drain
p1175
aVShadow Ball
p1176
aVGrassWhistle
p1177
asg41
g42
sg43
VNatural Cure
p1178
sbag1
(g24
g3
Ntp1179
Rp1180
(dp1181
g28
I395
sg29
VEmpoleon
p1182
sg31
g32
sg33
V53
p1183
sg35
(lp1184
VBrine
p1185
aVMetal Claw
p1186
aVAerial Ace
p1187
aVShadow Claw
p1188
asg41
VSitrus Berry
p1189
sg43
VTorrent
p1190
sbasg91
I01
sg92
g93
sbag1
(g2
g3
Ntp1191
Rp1192
(dp1193
g7
VSpr DP Barry.png
p1194
sg9
VPokemon Trainer
p1195
sg11
VBarry (game)
p1196
sg13
V5300
p1197
sg15
I6
sg16
g17
sg18
g19
sg20
g21
sg22
(lp1198
g1
(g24
g3
Ntp1199
Rp1200
(dp1201
g28
I398
sg29
VStaraptor
p1202
sg31
g32
sg33
V48
p1203
sg35
(lp1204
VClose Combat
p1205
aVAerial Ace
p1206
aVSteel Wing
p1207
aVU-turn
p1208
asg41
g42
sg43
VIntimidate
p1209
sbag1
(g24
g3
Ntp1210
Rp1211
(dp1212
g28
I214
sg29
VHeracross
p1213
sg31
g32
sg33
V50
p1214
sg35
(lp1215
VRock Slide
p1216
aVClose Combat
p1217
aVNight Slash
p1218
aVAerial Ace
p1219
asg41
g42
sg43
VSwarm
p1220
sbag1
(g24
g3
Ntp1221
Rp1222
(dp1223
g28
I143
sg29
VSnorlax
p1224
sg31
g32
sg33
V51
p1225
sg35
(lp1226
VRest
p1227
aVCrunch
p1228
aVEarthquake
p1229
aVBody Slam
p1230
asg41
g42
sg43
VImmunity
p1231
sbag1
(g24
g3
Ntp1232
Rp1233
(dp1234
g28
I419
sg29
VFloatzel
p1235
sg31
g32
sg33
V49
p1236
sg35
(lp1237
VAqua Jet
p1238
aVIce Fang
p1239
aVCrunch
p1240
aVBrick Break
p1241
asg41
g42
sg43
VSwift Swim
p1242
sbag1
(g24
g3
Ntp1243
Rp1244
(dp1245
g28
I78
sg29
VRapidash
p1246
sg31
g32
sg33
V49
p1247
sg35
(lp1248
VWill-O-Wisp
p1249
aVSunny Day
p1250
aVBounce
p1251
aVFire Blast
p1252
asg41
g42
sg43
VRun Away
p1253
sbag1
(g24
g3
Ntp1254
Rp1255
(dp1256
g28
I389
sg29
VTorterra
p1257
sg31
g32
sg33
V53
p1258
sg35
(lp1259
VLeaf Storm
p1260
aVEarthquake
p1261
aVCrunch
p1262
aVSynthesis
p1263
asg41
VSitrus Berry
p1264
sg43
VOvergrow
p1265
sbasg91
I01
sg92
g93
sbag1
(g2
g3
Ntp1266
Rp1267
(dp1268
g7
VSpr Pt Barry.png
p1269
sg9
VPokemon Trainer
p1270
sg11
VBarry (game)
p1271
sg13
V5100
p1272
sg15
I6
sg16
g17
sg18
g19
sg20
g119
sg22
(lp1273
g1
(g24
g3
Ntp1274
Rp1275
(dp1276
g28
I398
sg29
VStaraptor
p1277
sg31
g32
sg33
V48
p1278
sg35
(lp1279
VClose Combat
p1280
aVAerial Ace
p1281
aVSteel Wing
p1282
aVU-turn
p1283
asg41
g42
sg43
VIntimidate
p1284
sbag1
(g24
g3
Ntp1285
Rp1286
(dp1287
g28
I214
sg29
VHeracross
p1288
sg31
g32
sg33
V48
p1289
sg35
(lp1290
VAerial Ace
p1291
aVClose Combat
p1292
aVNight Slash
p1293
aVRock Slide
p1294
asg41
g42
sg43
VSwarm
p1295
sbag1
(g24
g3
Ntp1296
Rp1297
(dp1298
g28
I143
sg29
VSnorlax
p1299
sg31
g32
sg33
V49
p1300
sg35
(lp1301
VBody Slam
p1302
aVCrunch
p1303
aVEarthquake
p1304
aVRest
p1305
asg41
g42
sg43
VImmunity
p1306
sbag1
(g24
g3
Ntp1307
Rp1308
(dp1309
g28
I419
sg29
VFloatzel
p1310
sg31
g32
sg33
V47
p1311
sg35
(lp1312
VAqua Jet
p1313
aVCrunch
p1314
aVIce Fang
p1315
aVBrick Break
p1316
asg41
g42
sg43
VSwift Swim
p1317
sbag1
(g24
g3
Ntp1318
Rp1319
(dp1320
g28
I407
sg29
VRoserade
p1321
sg31
g32
sg33
V47
p1322
sg35
(lp1323
VGiga Drain
p1324
aVGrassWhistle
p1325
aVShadow Ball
p1326
aVPoison Jab
p1327
asg41
g42
sg43
VNatural Cure
p1328
sbag1
(g24
g3
Ntp1329
Rp1330
(dp1331
g28
I392
sg29
VInfernape
p1332
sg31
g32
sg33
V51
p1333
sg35
(lp1334
VFocus Blast
p1335
aVShadow Claw
p1336
aVFlamethrower
p1337
aVAerial Ace
p1338
asg41
VSitrus Berry
p1339
sg43
VBlaze
p1340
sbasg91
I01
sg92
g232
sbag1
(g2
g3
Ntp1341
Rp1342
(dp1343
g7
VSpr Pt Barry.png
p1344
sg9
VPokemon Trainer
p1345
sg11
VBarry (game)
p1346
sg13
V5100
p1347
sg15
I6
sg16
g17
sg18
g19
sg20
g119
sg22
(lp1348
g1
(g24
g3
Ntp1349
Rp1350
(dp1351
g28
I398
sg29
VStaraptor
p1352
sg31
g32
sg33
V48
p1353
sg35
(lp1354
VClose Combat
p1355
aVAerial Ace
p1356
aVSteel Wing
p1357
aVU-turn
p1358
asg41
g42
sg43
VIntimidate
p1359
sbag1
(g24
g3
Ntp1360
Rp1361
(dp1362
g28
I214
sg29
VHeracross
p1363
sg31
g32
sg33
V48
p1364
sg35
(lp1365
VAerial Ace
p1366
aVClose Combat
p1367
aVNight Slash
p1368
aVRock Slide
p1369
asg41
g42
sg43
VSwarm
p1370
sbag1
(g24
g3
Ntp1371
Rp1372
(dp1373
g28
I143
sg29
VSnorlax
p1374
sg31
g32
sg33
V49
p1375
sg35
(lp1376
VBody Slam
p1377
aVCrunch
p1378
aVEarthquake
p1379
aVRest
p1380
asg41
g42
sg43
VImmunity
p1381
sbag1
(g24
g3
Ntp1382
Rp1383
(dp1384
g28
I407
sg29
VRoserade
p1385
sg31
g32
sg33
V47
p1386
sg35
(lp1387
VGiga Drain
p1388
aVGrassWhistle
p1389
aVShadow Ball
p1390
aVPoison Jab
p1391
asg41
g42
sg43
VNatural Cure
p1392
sbag1
(g24
g3
Ntp1393
Rp1394
(dp1395
g28
I78
sg29
VRapidash
p1396
sg31
g32
sg33
V47
p1397
sg35
(lp1398
VFire Blast
p1399
aVSunny Day
p1400
aVBounce
p1401
aVWill-O-Wisp
p1402
asg41
g42
sg43
VRun Away
p1403
sbag1
(g24
g3
Ntp1404
Rp1405
(dp1406
g28
I395
sg29
VEmpoleon
p1407
sg31
g32
sg33
V51
p1408
sg35
(lp1409
VBrine
p1410
aVMetal Claw
p1411
aVAerial Ace
p1412
aVShadow Claw
p1413
asg41
VSitrus Berry
p1414
sg43
VTorrent
p1415
sbasg91
I01
sg92
g232
sbag1
(g2
g3
Ntp1416
Rp1417
(dp1418
g7
VSpr Pt Barry.png
p1419
sg9
VPokemon Trainer
p1420
sg11
VBarry (game)
p1421
sg13
V5100
p1422
sg15
I6
sg16
g17
sg18
g19
sg20
g119
sg22
(lp1423
g1
(g24
g3
Ntp1424
Rp1425
(dp1426
g28
I398
sg29
VStaraptor
p1427
sg31
g32
sg33
V48
p1428
sg35
(lp1429
VClose Combat
p1430
aVAerial Ace
p1431
aVSteel Wing
p1432
aVU-turn
p1433
asg41
g42
sg43
VIntimidate
p1434
sbag1
(g24
g3
Ntp1435
Rp1436
(dp1437
g28
I214
sg29
VHeracross
p1438
sg31
g32
sg33
V48
p1439
sg35
(lp1440
VAerial Ace
p1441
aVClose Combat
p1442
aVNight Slash
p1443
aVRock Slide
p1444
asg41
g42
sg43
VSwarm
p1445
sbag1
(g24
g3
Ntp1446
Rp1447
(dp1448
g28
I143
sg29
VSnorlax
p1449
sg31
g32
sg33
V49
p1450
sg35
(lp1451
VBody Slam
p1452
aVCrunch
p1453
aVEarthquake
p1454
aVRest
p1455
asg41
g42
sg43
VImmunity
p1456
sbag1
(g24
g3
Ntp1457
Rp1458
(dp1459
g28
I78
sg29
VRapidash
p1460
sg31
g32
sg33
V47
p1461
sg35
(lp1462
VFire Blast
p1463
aVSunny Day
p1464
aVBounce
p1465
aVWill-O-Wisp
p1466
asg41
g42
sg43
VRun Away
p1467
sbag1
(g24
g3
Ntp1468
Rp1469
(dp1470
g28
I419
sg29
VFloatzel
p1471
sg31
g32
sg33
V47
p1472
sg35
(lp1473
VAqua Jet
p1474
aVCrunch
p1475
aVIce Fang
p1476
aVBrick Break
p1477
asg41
g42
sg43
VSwift Swim
p1478
sbag1
(g24
g3
Ntp1479
Rp1480
(dp1481
g28
I389
sg29
VTorterra
p1482
sg31
g32
sg33
V51
p1483
sg35
(lp1484
VLeaf Storm
p1485
aVEarthquake
p1486
aVCrunch
p1487
aVSynthesis
p1488
asg41
VSitrus Berry
p1489
sg43
VOvergrow
p1490
sbasg91
I01
sg92
g232
sba.