(lp0
ccopy_reg
_reconstructor
p1
(c__main__
Trainer
p2
c__builtin__
object
p3
Ntp4
Rp5
(dp6
VtSprite
p7
VSpr DP Officer.png
p8
sVtClass
p9
VPoliceman
p10
sVtName
p11
VBobby
p12
sVtMoney
p13
V720<br><small>[[Time|Night]] only</small>
p14
sVtPokeCount
p15
V2
p16
sVtLocation
p17
Vwiki/Sinnoh_Route_212
p18
sVtRegion
p19
VSinnoh
p20
sVtGame
p21
VDP
p22
sVtPokes
p23
(lp24
g1
(c__main__
FinishedPokemon
p25
g3
Ntp26
Rp27
(dp28
VpDexNo
p29
V163
p30
sVpSpecies
p31
VHoothoot
p32
sVpGender
p33
VM
p34
sVpLevel
p35
V18
p36
sVpMoves
p37
(lp38
Vroost
p39
aVpsycho-shift
p40
aVair-slash
p41
aVzen-headbutt
p42
asVpHold
p43
V
p44
sVpAbility
p45
Vkeen-eye
p46
sbag1
(g25
g3
Ntp47
Rp48
(dp49
g29
V066
p50
sg31
VMachop
p51
sg33
g34
sg35
V18
p52
sg37
(lp53
Vvital-throw
p54
aVcross-chop
p55
aVrevenge
p56
aVwake-up-slap
p57
asg43
g44
sg45
Vguts
p58
sbasVbossFlag
p59
I00
sVtLongGame
p60
Vdiamond-pearl
p61
sbag1
(g2
g3
Ntp62
Rp63
(dp64
g7
VSpr DP Officer.png
p65
sg9
VPoliceman
p66
sg11
VAlex
p67
sg13
V720<br><small>[[Time|Night]] only</small>
p68
sg15
g16
sg17
g18
sg19
g20
sg21
g22
sg23
(lp69
g1
(g25
g3
Ntp70
Rp71
(dp72
g29
V163
p73
sg31
VHoothoot
p74
sg33
g34
sg35
V18
p75
sg37
(lp76
Vroost
p77
aVpsycho-shift
p78
aVair-slash
p79
aVzen-headbutt
p80
asg43
g44
sg45
Vinsomnia
p81
sbag1
(g25
g3
Ntp82
Rp83
(dp84
g29
V066
p85
sg31
VMachop
p86
sg33
g34
sg35
V18
p87
sg37
(lp88
Vvital-throw
p89
aVcross-chop
p90
aVrevenge
p91
aVwake-up-slap
p92
asg43
g44
sg45
Vguts
p93
sbasg59
I00
sg60
g61
sbag1
(g2
g3
Ntp94
Rp95
(dp96
g7
VSpr DP Officer.png
p97
sg9
VPoliceman
p98
sg11
VDylan
p99
sg13
V720<br><small>[[Time|Night]] only</small>
p100
sg15
g16
sg17
g18
sg19
g20
sg21
g22
sg23
(lp101
g1
(g25
g3
Ntp102
Rp103
(dp104
g29
V163
p105
sg31
VHoothoot
p106
sg33
g34
sg35
V18
p107
sg37
(lp108
Vroost
p109
aVpsycho-shift
p110
aVair-slash
p111
aVzen-headbutt
p112
asg43
g44
sg45
Vinsomnia
p113
sbag1
(g25
g3
Ntp114
Rp115
(dp116
g29
V307
p117
sg31
VMeditite
p118
sg33
g34
sg35
V18
p119
sg37
(lp120
Vcalm-mind
p121
aVfeint
p122
aVpower-trick
p123
aVforce-palm
p124
asg43
g44
sg45
Vpure-power
p125
sbasg59
I00
sg60
g61
sbag1
(g2
g3
Ntp126
Rp127
(dp128
g7
VSpr DP Socialite.png
p129
sg9
VSocialite
p130
sg11
VReina
p131
sg13
V3800<br><small>Potential [[Double Battle]] with Jeremy</small>
p132
sg15
V1
p133
sg17
g18
sg19
g20
sg21
g22
sg23
(lp134
g1
(g25
g3
Ntp135
Rp136
(dp137
g29
V315
p138
sg31
VRoselia
p139
sg33
VF
p140
sg35
V19
p141
sg37
(lp142
Varomatherapy
p143
aVgrass-whistle
p144
aVmagical-leaf
p145
aVtoxic-spikes
p146
asg43
g44
sg45
Vnatural-cure
p147
sbasg59
I00
sg60
g61
sbag1
(g2
g3
Ntp148
Rp149
(dp150
g7
VSpr DP Gentleman.png
p151
sg9
VGentleman
p152
sg11
VJeremy
p153
sg13
V3800<br><small>Potential [[Double Battle]] with Reina</small>
p154
sg15
g133
sg17
g18
sg19
g20
sg21
g22
sg23
(lp155
g1
(g25
g3
Ntp156
Rp157
(dp158
g29
V441
p159
sg31
VChatot
p160
sg33
g34
sg35
V19
p161
sg37
(lp162
Vfeather-dance
p163
aVhyper-voice
p164
aVroost
p165
aVchatter
p166
asg43
g44
sg45
Vkeen-eye
p167
sbasg59
I00
sg60
g61
sbag1
(g2
g3
Ntp168
Rp169
(dp170
g7
VSpr DP Officer.png
p171
sg9
VPoliceman
p172
sg11
VCaleb
p173
sg13
V760<br><small>[[Time|Night]] only</small>
p174
sg15
g16
sg17
g18
sg19
g20
sg21
g22
sg23
(lp175
g1
(g25
g3
Ntp176
Rp177
(dp178
g29
V163
p179
sg31
VHoothoot
p180
sg33
g34
sg35
V17
p181
sg37
(lp182
Vroost
p183
aVpsycho-shift
p184
aVair-slash
p185
aVzen-headbutt
p186
asg43
g44
sg45
Vkeen-eye
p187
sbag1
(g25
g3
Ntp188
Rp189
(dp190
g29
V307
p191
sg31
VMeditite
p192
sg33
g34
sg35
V19
p193
sg37
(lp194
Vcalm-mind
p195
aVfeint
p196
aVpower-trick
p197
aVforce-palm
p198
asg43
g44
sg45
Vpure-power
p199
sbasg59
I00
sg60
g61
sbag1
(g2
g3
Ntp200
Rp201
(dp202
g7
VSpr DP Rich Boy.png
p203
sg9
VRich Boy
p204
sg11
VJason
p205
sg13
V3040<br><small>Potential [[Double Battle]] with Melissa</small>
p206
sg15
g133
sg17
g18
sg19
g20
sg21
g22
sg23
(lp207
g1
(g25
g3
Ntp208
Rp209
(dp210
g29
V404
p211
sg31
VLuxio
p212
sg33
g34
sg35
V19
p213
sg37
(lp214
Vcrunch
p215
aVcharge
p216
aVthunder-fang
p217
aVdischarge
p218
asg43
g44
sg45
Vrivalry
p219
sbasg59
I00
sg60
g61
sbag1
(g2
g3
Ntp220
Rp221
(dp222
g7
VSpr DP Lady.png
p223
sg9
VLady
p224
sg11
VMelissa
p225
sg13
V3040<br><small>Potential [[Double Battle]] with Jason</small>
p226
sg15
g133
sg17
g18
sg19
g20
sg21
g22
sg23
(lp227
g1
(g25
g3
Ntp228
Rp229
(dp230
g29
V427
p231
sg31
VBuneary
p232
sg33
g140
sg35
V19
p233
sg37
(lp234
Vfrustration
p235
aVbaton-pass
p236
aVbounce
p237
aVhealing-wish
p238
asg43
g44
sg45
Vklutz
p239
sbasg59
I00
sg60
g61
sba.