(lp0
ccopy_reg
_reconstructor
p1
(c__main__
Trainer
p2
c__builtin__
object
p3
Ntp4
Rp5
(dp6
VtSprite
p7
VSpr DP Ace Trainer M 1.png
p8
sVtClass
p9
VAce Trainer
p10
sVtName
p11
VGraham
p12
sVtMoney
p13
V3360
p14
sVtPokeCount
p15
V1
p16
sVtLocation
p17
Vwiki/Sinnoh_Route_226
p18
sVtRegion
p19
VSinnoh
p20
sVtGame
p21
VDP
p22
sVtPokes
p23
(lp24
g1
(c__main__
FinishedPokemon
p25
g3
Ntp26
Rp27
(dp28
VpDexNo
p29
V227
p30
sVpSpecies
p31
VSkarmory
p32
sVpGender
p33
VM
p34
sVpLevel
p35
V56
p36
sVpMoves
p37
(lp38
Vair-cutter
p39
aVmetal-sound
p40
aVnight-slash
p41
aVair-slash
p42
asVpHold
p43
V
p44
sVpAbility
p45
Vkeen-eye
p46
sbasVbossFlag
p47
I00
sVtLongGame
p48
Vdiamond-pearl
p49
sbag1
(g2
g3
Ntp50
Rp51
(dp52
g7
VSpr DP Bird Keeper.png
p53
sg9
VBird Keeper
p54
sg11
VGeneva
p55
sg13
V1824<br><small>Potential [[Double Battle]] with Stanley</small>
p56
sg15
V2
p57
sg17
g18
sg19
g20
sg21
g22
sg23
(lp58
g1
(g25
g3
Ntp59
Rp60
(dp61
g29
V042
p62
sg31
VGolbat
p63
sg33
VF
p64
sg35
V53
p65
sg37
(lp66
Vastonish
p67
ag67
aVair-cutter
p68
aVair-slash
p69
asg43
g44
sg45
Vinner-focus
p70
sbag1
(g25
g3
Ntp71
Rp72
(dp73
g29
V178
p74
sg31
VXatu
p75
sg33
g64
sg35
V57
p76
sg37
(lp77
Vme-first
p78
aVpower-swap
p79
aVguard-swap
p80
aVominous-wind
p81
asg43
g44
sg45
Vsynchronize
p82
sbasg47
I00
sg48
g49
sbag1
(g2
g3
Ntp83
Rp84
(dp85
g7
VSpr DP Dragon Tamer.png
p86
sg9
VDragon Tamer
p87
sg11
VStanley
p88
sg13
V1792<br><small>Potential [[Double Battle]] with Geneva</small>
p89
sg15
g57
sg17
g18
sg19
g20
sg21
g22
sg23
(lp90
g1
(g25
g3
Ntp91
Rp92
(dp93
g29
V117
p94
sg31
VSeadra
p95
sg33
g34
sg35
V56
p96
sg37
(lp97
Vtwister
p98
aVdragon-dance
p99
aVbrine
p100
aVdragon-pulse
p101
asg43
g44
sg45
Vsniper
p102
sbag1
(g25
g3
Ntp103
Rp104
(dp105
g29
V130
p106
sg31
VGyarados
p107
sg33
g34
sg35
V56
p108
sg37
(lp109
Vrain-dance
p110
aVdragon-dance
p111
aVaqua-tail
p112
aVice-fang
p113
asg43
g44
sg45
Vintimidate
p114
sbasg47
I00
sg48
g49
sbag1
(g2
g3
Ntp115
Rp116
(dp117
g7
VSpr DP Swimmer F.png
p118
sg9
VSwimmer
p119
sg11
VLydia
p120
sg13
V832
p121
sg15
V3
p122
sg17
g18
sg19
g20
sg21
g22
sg23
(lp123
g1
(g25
g3
Ntp124
Rp125
(dp126
g29
V400
p127
sg31
VBibarel
p128
sg33
g64
sg35
V52
p129
sg37
(lp130
Vsuper-fang
p131
aVrollout
p132
aVsuperpower
p133
aVyawn
p134
asg43
g44
sg45
Vunaware
p135
sbag1
(g25
g3
Ntp136
Rp137
(dp138
g29
V184
p139
sg31
VAzumarill
p140
sg33
g64
sg35
V52
p141
sg37
(lp142
Vrollout
p143
aVrain-dance
p144
aVaqua-ring
p145
aVaqua-tail
p146
asg43
g44
sg45
Vhuge-power
p147
sbag1
(g25
g3
Ntp148
Rp149
(dp150
g29
V364
p151
sg31
VSealeo
p152
sg33
g64
sg35
V52
p153
sg37
(lp154
Vencore
p155
aVhail
p156
aVice-ball
p157
aVsheer-cold
p158
asg43
g44
sg45
Vthick-fat
p159
sbasg47
I00
sg48
g49
sbag1
(g2
g3
Ntp160
Rp161
(dp162
g7
VSpr DP Swimmer M.png
p163
sg9
VSwimmer
p164
sg11
VWade
p165
sg13
V864
p166
sg15
g122
sg17
g18
sg19
g20
sg21
g22
sg23
(lp167
g1
(g25
g3
Ntp168
Rp169
(dp170
g29
V318
p171
sg31
VCarvanha
p172
sg33
g34
sg35
V51
p173
sg37
(lp174
Vcrunch
p175
aVassurance
p176
aVice-fang
p177
aVaqua-jet
p178
asg43
g44
sg45
Vrough-skin
p179
sbag1
(g25
g3
Ntp180
Rp181
(dp182
g29
V318
p183
sg31
VCarvanha
p184
sg33
g34
sg35
V51
p185
sg37
(lp186
Vcrunch
p187
aVassurance
p188
aVice-fang
p189
aVaqua-jet
p190
asg43
g44
sg45
Vrough-skin
p191
sbag1
(g25
g3
Ntp192
Rp193
(dp194
g29
V319
p195
sg31
VSharpedo
p196
sg33
g34
sg35
V54
p197
sg37
(lp198
Vassurance
p199
aVnight-slash
p200
aVice-fang
p201
aVaqua-jet
p202
asg43
g44
sg45
Vrough-skin
p203
sbasg47
I00
sg48
g49
sbag1
(g2
g3
Ntp204
Rp205
(dp206
g7
VSpr DP Ace Trainer M 1.png
p207
sg9
VAce Trainer
p208
sg11
VGraham
p209
sg13
V3540
p210
sg15
g57
sg17
g18
sg19
g20
sg21
g22
sg23
(lp211
g1
(g25
g3
Ntp212
Rp213
(dp214
g29
V236
p215
sg31
VTyrogue
p216
sg33
g34
sg35
V55
p217
sg37
(lp218
Vtackle
p219
aVfake-out
p220
aVhelping-hand
p221
asg43
g44
sg45
Vsteadfast
p222
sbag1
(g25
g3
Ntp223
Rp224
(dp225
g29
V107
p226
sg31
VHitmonchan
p227
sg33
g34
sg35
V59
p228
sg37
(lp229
Vfeint
p230
aVclose-combat
p231
aVvacuum-wave
p232
aVbullet-punch
p233
asg43
g44
sg45
Vkeen-eye
p234
sbasg47
I00
sg48
g49
sbag1
(g2
g3
Ntp235
Rp236
(dp237
g7
VSpr DP Bird Keeper.png
p238
sg9
VBird Keeper
p239
sg11
VGeneva
p240
sg13
V1824<br><small>Potential [[Double Battle]] with Stanley</small>
p241
sg15
g57
sg17
g18
sg19
g20
sg21
g22
sg23
(lp242
g1
(g25
g3
Ntp243
Rp244
(dp245
g29
V022
p246
sg31
VFearow
p247
sg33
g64
sg35
V55
p248
sg37
(lp249
Vaerial-ace
p250
aVroost
p251
aVpluck
p252
aVassurance
p253
asg43
g44
sg45
Vkeen-eye
p254
sbag1
(g25
g3
Ntp255
Rp256
(dp257
g29
V178
p258
sg31
VXatu
p259
sg33
g64
sg35
V57
p260
sg37
(lp261
Vme-first
p262
aVpower-swap
p263
aVguard-swap
p264
aVominous-wind
p265
asg43
g44
sg45
Vsynchronize
p266
sbasg47
I00
sg48
g49
sbag1
(g2
g3
Ntp267
Rp268
(dp269
g7
VSpr DP Dragon Tamer.png
p270
sg9
VDragon Tamer
p271
sg11
VStanley
p272
sg13
V1824<br><small>Potential [[Double Battle]] with Geneva</small>
p273
sg15
g57
sg17
g18
sg19
g20
sg21
g22
sg23
(lp274
g1
(g25
g3
Ntp275
Rp276
(dp277
g29
V147
p278
sg31
VDratini
p279
sg33
g34
sg35
V55
p280
sg37
(lp281
Vtwister
p282
aVdragon-dance
p283
aVaqua-tail
p284
aVdragon-rush
p285
asg43
g44
sg45
Vshed-skin
p286
sbag1
(g25
g3
Ntp287
Rp288
(dp289
g29
V334
p290
sg31
VAltaria
p291
sg33
g34
sg35
V57
p292
sg37
(lp293
Vdragon-dance
p294
aVnatural-gift
p295
aVpluck
p296
aVdragon-pulse
p297
asg43
g44
sg45
Vnatural-cure
p298
sbasg47
I00
sg48
g49
sbag1
(g2
g3
Ntp299
Rp300
(dp301
g7
VSpr DP Swimmer F.png
p302
sg9
VSwimmer
p303
sg11
VLydia
p304
sg13
V864
p305
sg15
g122
sg17
g18
sg19
g20
sg21
g22
sg23
(lp306
g1
(g25
g3
Ntp307
Rp308
(dp309
g29
V183
p310
sg31
VMarill
p311
sg33
g64
sg35
V54
p312
sg37
(lp313
Vrollout
p314
aVrain-dance
p315
aVaqua-ring
p316
aVaqua-tail
p317
asg43
g44
sg45
Vhuge-power
p318
sbag1
(g25
g3
Ntp319
Rp320
(dp321
g29
V363
p322
sg31
VSpheal
p323
sg33
g64
sg35
V54
p324
sg37
(lp325
Vencore
p326
aVhail
p327
aVice-ball
p328
aVsheer-cold
p329
asg43
g44
sg45
Vthick-fat
p330
sbag1
(g25
g3
Ntp331
Rp332
(dp333
g29
V320
p334
sg31
VWailmer
p335
sg33
g64
sg35
V54
p336
sg37
(lp337
Vwater-spout
p338
aVbounce
p339
aVwater-pulse
p340
aVbrine
p341
asg43
g44
sg45
Voblivious
p342
sbasg47
I00
sg48
g49
sbag1
(g2
g3
Ntp343
Rp344
(dp345
g7
VSpr DP Swimmer M.png
p346
sg9
VSwimmer
p347
sg11
VWade
p348
sg13
V896
p349
sg15
g122
sg17
g18
sg19
g20
sg21
g22
sg23
(lp350
g1
(g25
g3
Ntp351
Rp352
(dp353
g29
V318
p354
sg31
VCarvanha
p355
sg33
g34
sg35
V53
p356
sg37
(lp357
Vcrunch
p358
aVassurance
p359
aVice-fang
p360
aVaqua-jet
p361
asg43
g44
sg45
Vrough-skin
p362
sbag1
(g25
g3
Ntp363
Rp364
(dp365
g29
V318
p366
sg31
VCarvanha
p367
sg33
g34
sg35
V53
p368
sg37
(lp369
Vcrunch
p370
aVassurance
p371
aVice-fang
p372
aVaqua-jet
p373
asg43
g44
sg45
Vrough-skin
p374
sbag1
(g25
g3
Ntp375
Rp376
(dp377
g29
V319
p378
sg31
VSharpedo
p379
sg33
g34
sg35
V56
p380
sg37
(lp381
Vassurance
p382
aVnight-slash
p383
aVice-fang
p384
aVaqua-jet
p385
asg43
g44
sg45
Vrough-skin
p386
sbasg47
I00
sg48
g49
sba.