(lp0
ccopy_reg
_reconstructor
p1
(c__main__
Trainer
p2
c__builtin__
object
p3
Ntp4
Rp5
(dp6
VtSprite
p7
VSpr DP Camper.png
p8
sVtClass
p9
VCamper
p10
sVtName
p11
VAnthony
p12
sVtMoney
p13
V304<br><small>Potential [[Double Battle]] with Lauren</small>
p14
sVtPokeCount
p15
V1
p16
sVtLocation
p17
Vwiki/Sinnoh_Route_207
p18
sVtRegion
p19
VSinnoh
p20
sVtGame
p21
VDP
p22
sVtPokes
p23
(lp24
g1
(c__main__
FinishedPokemon
p25
g3
Ntp26
Rp27
(dp28
VpDexNo
p29
V077
p30
sVpSpecies
p31
VPonyta
p32
sVpGender
p33
VM
p34
sVpLevel
p35
V19
p36
sVpMoves
p37
(lp38
Vagility
p39
aVfire-blast
p40
aVbounce
p41
aVflare-blitz
p42
asVpHold
p43
V
p44
sVpAbility
p45
Vrun-away
p46
sbasVbossFlag
p47
I00
sVtLongGame
p48
Vdiamond-pearl
p49
sbag1
(g2
g3
Ntp50
Rp51
(dp52
g7
VSpr DP Picnicker.png
p53
sg9
VPicnicker
p54
sg11
VLauren
p55
sg13
V304<br><small>Potential [[Double Battle]] with Anthony</small>
p56
sg15
g16
sg17
g18
sg19
g20
sg21
g22
sg23
(lp57
g1
(g25
g3
Ntp58
Rp59
(dp60
g29
V417
p61
sg31
VPachirisu
p62
sg33
VF
p63
sg35
V19
p64
sg37
(lp65
Vcharm
p66
aVspark
p67
aVlast-resort
p68
aVdischarge
p69
asg43
g44
sg45
Vpickup
p70
sbasg47
I00
sg48
g49
sbag1
(g2
g3
Ntp71
Rp72
(dp73
g7
VSpr DP Hiker.png
p74
sg9
VHiker
p75
sg11
VJustin
p76
sg13
V576
p77
sg15
V2
p78
sg17
g18
sg19
g20
sg21
g22
sg23
(lp79
g1
(g25
g3
Ntp80
Rp81
(dp82
g29
V074
p83
sg31
VGeodude
p84
sg33
g34
sg35
V16
p85
sg37
(lp86
Vmud-sport
p87
aVrock-blast
p88
aVrock-polish
p89
aVstone-edge
p90
asg43
g44
sg45
Vsturdy
p91
sbag1
(g25
g3
Ntp92
Rp93
(dp94
g29
V436
p95
sg31
VBronzor
p96
sg33
VU
p97
sg35
V18
p98
sg37
(lp99
Viron-defense
p100
aVgyro-ball
p101
aVpayback
p102
aVheal-block
p103
asg43
g44
sg45
Vlevitate
p104
sbasg47
I00
sg48
g49
sbag1
(g2
g3
Ntp105
Rp106
(dp107
g7
VSpr DP Youngster.png
p108
sg9
VYoungster
p109
sg11
VAustin
p110
sg13
V288
p111
sg15
V3
p112
sg17
g18
sg19
g20
sg21
g22
sg23
(lp113
g1
(g25
g3
Ntp114
Rp115
(dp116
g29
V396
p117
sg31
VStarly
p118
sg33
g34
sg35
V15
p119
sg37
(lp120
Vdouble-team
p121
aVendeavor
p122
aVaerial-ace
p123
aVbrave-bird
p124
asg43
g44
sg45
Vkeen-eye
p125
sbag1
(g25
g3
Ntp126
Rp127
(dp128
g29
V074
p129
sg31
VGeodude
p130
sg33
g34
sg35
V15
p131
sg37
(lp132
Vmud-sport
p133
aVrock-blast
p134
aVrock-polish
p135
aVstone-edge
p136
asg43
g44
sg45
Vrock-head
p137
sbag1
(g25
g3
Ntp138
Rp139
(dp140
g29
V390
p141
sg31
VChimchar
p142
sg33
g34
sg35
V18
p143
sg37
(lp144
Vfacade
p145
aVtaunt
p146
aVslack-off
p147
aVnasty-plot
p148
asg43
g44
sg45
Vblaze
p149
sbasg47
I00
sg48
g49
sbag1
(g2
g3
Ntp150
Rp151
(dp152
g7
VSpr DP Hiker.png
p153
sg9
VHiker
p154
sg11
VKevin
p155
sg13
V512
p156
sg15
V4
p157
sg17
g18
sg19
g20
sg21
g22
sg23
(lp158
g1
(g25
g3
Ntp159
Rp160
(dp161
g29
V074
p162
sg31
VGeodude
p163
sg33
g34
sg35
V15
p164
sg37
(lp165
Vmud-sport
p166
aVrock-blast
p167
aVrock-polish
p168
aVstone-edge
p169
asg43
g44
sg45
Vsturdy
p170
sbag1
(g25
g3
Ntp171
Rp172
(dp173
g29
V074
p174
sg31
VGeodude
p175
sg33
g34
sg35
V16
p176
sg37
(lp177
Vmud-sport
p178
aVrock-blast
p179
aVrock-polish
p180
aVstone-edge
p181
asg43
g44
sg45
Vsturdy
p182
sbag1
(g25
g3
Ntp183
Rp184
(dp185
g29
V041
p186
sg31
VZubat
p187
sg33
g34
sg35
V17
p188
sg37
(lp189
Vpoison-fang
p190
aVastonish
p191
aVair-cutter
p192
aVair-slash
p193
asg43
g44
sg45
Vinner-focus
p194
sbag1
(g25
g3
Ntp195
Rp196
(dp197
g29
V074
p198
sg31
VGeodude
p199
sg33
g34
sg35
V16
p200
sg37
(lp201
Vmud-sport
p202
aVrock-blast
p203
aVrock-polish
p204
aVstone-edge
p205
asg43
g44
sg45
Vrock-head
p206
sbasg47
I00
sg48
g49
sbag1
(g2
g3
Ntp207
Rp208
(dp209
g7
VSpr DP Battle Girl.png
p210
sg9
VBattle Girl
p211
sg11
VHelen
p212
sg13
V288
p213
sg15
g78
sg17
g18
sg19
g20
sg21
g22
sg23
(lp214
g1
(g25
g3
Ntp215
Rp216
(dp217
g29
V307
p218
sg31
VMeditite
p219
sg33
g63
sg35
V18
p220
sg37
(lp221
Vcalm-mind
p222
aVfeint
p223
aVpower-trick
p224
aVforce-palm
p225
asg43
g44
sg45
Vpure-power
p226
sbag1
(g25
g3
Ntp227
Rp228
(dp229
g29
V066
p230
sg31
VMachop
p231
sg33
g34
sg35
V18
p232
sg37
(lp233
Vvital-throw
p234
aVcross-chop
p235
aVrevenge
p236
aVwake-up-slap
p237
asg43
g44
sg45
Vno-guard
p238
sbasg47
I00
sg48
g49
sba.