(lp0
ccopy_reg
_reconstructor
p1
(c__main__
Trainer
p2
c__builtin__
object
p3
Ntp4
Rp5
(dp6
VtSprite
p7
VSpr DP Hiker.png
p8
sVtClass
p9
VHiker
p10
sVtName
p11
VRobert
p12
sVtMoney
p13
V544
p14
sVtPokeCount
p15
V2
p16
sVtLocation
p17
Vwiki/Sinnoh_Route_208
p18
sVtRegion
p19
VSinnoh
p20
sVtGame
p21
VDP
p22
sVtPokes
p23
(lp24
g1
(c__main__
FinishedPokemon
p25
g3
Ntp26
Rp27
(dp28
VpDexNo
p29
V074
p30
sVpSpecies
p31
VGeodude
p32
sVpGender
p33
VM
p34
sVpLevel
p35
V17
p36
sVpMoves
p37
(lp38
Vmud-sport
p39
aVrock-blast
p40
aVrock-polish
p41
aVstone-edge
p42
asVpHold
p43
V
p44
sVpAbility
p45
Vsturdy
p46
sbag1
(g25
g3
Ntp47
Rp48
(dp49
g29
V074
p50
sg31
VGeodude
p51
sg33
g34
sg35
V17
p52
sg37
(lp53
Vmud-sport
p54
aVrock-blast
p55
aVrock-polish
p56
aVstone-edge
p57
asg43
g44
sg45
Vsturdy
p58
sbasVbossFlag
p59
I00
sVtLongGame
p60
Vdiamond-pearl
p61
sbag1
(g2
g3
Ntp62
Rp63
(dp64
g7
VSpr DP Black Belt.png
p65
sg9
VBlack Belt
p66
sg11
VKyle
p67
sg13
V456
p68
sg15
V1
p69
sg17
g18
sg19
g20
sg21
g22
sg23
(lp70
g1
(g25
g3
Ntp71
Rp72
(dp73
g29
V066
p74
sg31
VMachop
p75
sg33
g34
sg35
V19
p76
sg37
(lp77
Vvital-throw
p78
aVcross-chop
p79
aVrevenge
p80
aVwake-up-slap
p81
asg43
g44
sg45
Vno-guard
p82
sbasg59
I00
sg60
g61
sbag1
(g2
g3
Ntp83
Rp84
(dp85
g7
VSpr DP Hiker.png
p86
sg9
VHiker
p87
sg11
VJonathan
p88
sg13
V608
p89
sg15
g69
sg17
g18
sg19
g20
sg21
g22
sg23
(lp90
g1
(g25
g3
Ntp91
Rp92
(dp93
g29
V095
p94
sg31
VOnix
p95
sg33
g34
sg35
V19
p96
sg37
(lp97
Vrock-tomb
p98
aVsand-tomb
p99
aVrock-polish
p100
aVstone-edge
p101
asg43
g44
sg45
Vrock-head
p102
sbasg59
I00
sg60
g61
sbag1
(g2
g3
Ntp103
Rp104
(dp105
g7
VSpr DP Aroma Lady.png
p106
sg9
VAroma Lady
p107
sg11
VHannah
p108
sg13
V576 
p109
sg15
g16
sg17
g18
sg19
g20
sg21
g22
sg23
(lp110
g1
(g25
g3
Ntp111
Rp112
(dp113
g29
V415
p114
sg31
VCombee
p115
sg33
g34
sg35
V16
p116
sg37
(lp117
Vgust
p118
aVsweet-scent
p119
asg43
g44
sg45
Vhoney-gather
p120
sbag1
(g25
g3
Ntp121
Rp122
(dp123
g29
V315
p124
sg31
VRoselia
p125
sg33
VF
p126
sg35
V18
p127
sg37
(lp128
Varomatherapy
p129
aVgrass-whistle
p130
aVmagical-leaf
p131
aVtoxic-spikes
p132
asg43
g44
sg45
Vpoison-point
p133
sbasg59
I00
sg60
g61
sbag1
(g2
g3
Ntp134
Rp135
(dp136
g7
VSpr DP Artist.png
p137
sg9
VArtist
p138
sg11
VWilliam
p139
sg13
V816
p140
sg15
g16
sg17
g18
sg19
g20
sg21
g22
sg23
(lp141
sg59
I00
sg60
g61
sbag1
(g2
g3
Ntp142
Rp143
(dp144
g7
VSpr DP Fisherman.png
p145
sg9
VFisherman
p146
sg11
VCody
p147
sg13
V992
p148
sg15
g16
sg17
g18
sg19
g20
sg21
g22
sg23
(lp149
g1
(g25
g3
Ntp150
Rp151
(dp152
g29
V339
p153
sg31
VBarboach
p154
sg33
g34
sg35
V31
p155
sg37
(lp156
Vwater-sport
p157
aVwater-pulse
p158
aVaqua-tail
p159
aVmud-bomb
p160
asg43
g44
sg45
Vanticipation
p161
sbag1
(g25
g3
Ntp162
Rp163
(dp164
g29
V130
p165
sg31
VGyarados
p166
sg33
g34
sg35
V31
p167
sg37
(lp168
Vrain-dance
p169
aVdragon-dance
p170
aVaqua-tail
p171
aVice-fang
p172
asg43
g44
sg45
Vintimidate
p173
sbasg59
I00
sg60
g61
sbag1
(g2
g3
Ntp174
Rp175
(dp176
g7
VSpr DP Hiker.png
p177
sg9
VHiker
p178
sg11
VAlexander
p179
sg13
V1120
p180
sg15
V3
p181
sg17
g18
sg19
g20
sg21
g22
sg23
(lp182
g1
(g25
g3
Ntp183
Rp184
(dp185
g29
V042
p186
sg31
VGolbat
p187
sg33
g34
sg35
V35
p188
sg37
(lp189
Vastonish
p190
ag190
aVair-cutter
p191
aVair-slash
p192
asg43
g44
sg45
Vinner-focus
p193
sbag1
(g25
g3
Ntp194
Rp195
(dp196
g29
V075
p197
sg31
VGraveler
p198
sg33
g34
sg35
V35
p199
sg37
(lp200
Vrock-blast
p201
aVrock-polish
p202
ag202
aVstone-edge
p203
asg43
g44
sg45
Vrock-head
p204
sbag1
(g25
g3
Ntp205
Rp206
(dp207
g29
V095
p208
sg31
VOnix
p209
sg33
g34
sg35
V35
p210
sg37
(lp211
Vrock-tomb
p212
aVsand-tomb
p213
aVrock-polish
p214
aVstone-edge
p215
asg43
g44
sg45
Vsturdy
p216
sbasg59
I00
sg60
g61
sba.