(lp0
ccopy_reg
_reconstructor
p1
(c__main__
Trainer
p2
c__builtin__
object
p3
Ntp4
Rp5
(dp6
VtSprite
p7
VSpr DP Tuber F.png
p8
sVtClass
p9
VTuber
p10
sVtName
p11
VMariel
p12
sVtMoney
p13
V116<br><small>Potential [[Double Battle]] with Trenton</small>
p14
sVtPokeCount
p15
V2
p16
sVtLocation
p17
Vwiki/Sinnoh_Route_219
p18
sVtRegion
p19
VSinnoh
p20
sVtGame
p21
VDP
p22
sVtPokes
p23
(lp24
g1
(c__main__
FinishedPokemon
p25
g3
Ntp26
Rp27
(dp28
VpDexNo
p29
V183
p30
sVpSpecies
p31
VMarill
p32
sVpGender
p33
VF
p34
sVpLevel
p35
V29
p36
sVpMoves
p37
(lp38
Vrollout
p39
aVrain-dance
p40
aVaqua-ring
p41
aVaqua-tail
p42
asVpHold
p43
V
p44
sVpAbility
p45
Vthick-fat
p46
sbag1
(g25
g3
Ntp47
Rp48
(dp49
g29
V183
p50
sg31
VMarill
p51
sg33
g34
sg35
V29
p52
sg37
(lp53
Vrollout
p54
aVrain-dance
p55
aVaqua-ring
p56
aVaqua-tail
p57
asg43
g44
sg45
Vthick-fat
p58
sbasVbossFlag
p59
I00
sVtLongGame
p60
Vdiamond-pearl
p61
sbag1
(g2
g3
Ntp62
Rp63
(dp64
g7
VSpr DP Tuber M.png
p65
sg9
VTuber
p66
sg11
VTrenton
p67
sg13
V116<br><small>Potential [[Double Battle]] with Mariel</small>
p68
sg15
g16
sg17
g18
sg19
g20
sg21
g22
sg23
(lp69
g1
(g25
g3
Ntp70
Rp71
(dp72
g29
V422
p73
sg31
VShellos
p74
sg33
VM
p75
sg35
V29
p76
sg37
(lp77
Vmud-sport
p78
aVmuddy-water
p79
aVwater-pulse
p80
aVmud-bomb
p81
asg43
g44
sg45
Vstorm-drain
p82
sbag1
(g25
g3
Ntp83
Rp84
(dp85
g29
V422
p86
sg31
VShellos
p87
sg33
g75
sg35
V29
p88
sg37
(lp89
Vmud-sport
p90
aVmuddy-water
p91
aVwater-pulse
p92
aVmud-bomb
p93
asg43
g44
sg45
Vstorm-drain
p94
sbasg59
I00
sg60
g61
sbag1
(g2
g3
Ntp95
Rp96
(dp97
g7
VSpr DP Tuber F.png
p98
sg9
VTuber
p99
sg11
VMariel
p100
sg13
V132<br><small>Potential [[Double Battle]] with Trenton</small>
p101
sg15
g16
sg17
g18
sg19
g20
sg21
g22
sg23
(lp102
g1
(g25
g3
Ntp103
Rp104
(dp105
g29
V183
p106
sg31
VMarill
p107
sg33
g34
sg35
V31
p108
sg37
(lp109
Vrollout
p110
aVrain-dance
p111
aVaqua-ring
p112
aVaqua-tail
p113
asg43
g44
sg45
Vhuge-power
p114
sbag1
(g25
g3
Ntp115
Rp116
(dp117
g29
V183
p118
sg31
VMarill
p119
sg33
g34
sg35
V33
p120
sg37
(lp121
Vrollout
p122
aVrain-dance
p123
aVaqua-ring
p124
aVaqua-tail
p125
asg43
g44
sg45
Vhuge-power
p126
sbasg59
I00
sg60
g61
sbag1
(g2
g3
Ntp127
Rp128
(dp129
g7
VSpr DP Tuber M.png
p130
sg9
VTuber
p131
sg11
VTrenton
p132
sg13
V132<br><small>Potential [[Double Battle]] with Mariel</small>
p133
sg15
g16
sg17
g18
sg19
g20
sg21
g22
sg23
(lp134
g1
(g25
g3
Ntp135
Rp136
(dp137
g29
V422
p138
sg31
VShellos
p139
sg33
g75
sg35
V31
p140
sg37
(lp141
Vmud-sport
p142
aVmuddy-water
p143
aVwater-pulse
p144
aVmud-bomb
p145
asg43
g44
sg45
Vsticky-hold
p146
sbag1
(g25
g3
Ntp147
Rp148
(dp149
g29
V422
p150
sg31
VShellos
p151
sg33
g75
sg35
V33
p152
sg37
(lp153
Vmud-sport
p154
aVmuddy-water
p155
aVwater-pulse
p156
aVmud-bomb
p157
asg43
g44
sg45
Vstorm-drain
p158
sbasg59
I00
sg60
g61
sba.