(lp0
ccopy_reg
_reconstructor
p1
(c__main__
Trainer
p2
c__builtin__
object
p3
Ntp4
Rp5
(dp6
VtSprite
p7
VSpr DP Ace_Trainer M 1.png
p8
sVtClass
p9
VAce Trainer
p10
sVtName
p11
VRuben
p12
sVtMoney
p13
V3240
p14
sVtPokeCount
p15
V2
p16
sVtLocation
p17
Vwiki/Sinnoh_Route_224
p18
sVtRegion
p19
VSinnoh
p20
sVtGame
p21
VDP
p22
sVtPokes
p23
(lp24
g1
(c__main__
FinishedPokemon
p25
g3
Ntp26
Rp27
(dp28
VpDexNo
p29
V061
p30
sVpSpecies
p31
VPoliwhirl
p32
sVpGender
p33
VM
p34
sVpLevel
p35
V54
p36
sVpMoves
p37
(lp38
Vmud-shot
p39
aVwater-sport
p40
aVwake-up-slap
p41
aVmud-bomb
p42
asVpHold
p43
V
p44
sVpAbility
p45
Vdamp
p46
sbag1
(g25
g3
Ntp47
Rp48
(dp49
g29
V130
p50
sg31
VGyarados
p51
sg33
g34
sg35
V54
p52
sg37
(lp53
Vrain-dance
p54
aVdragon-dance
p55
aVaqua-tail
p56
aVice-fang
p57
asg43
g44
sg45
Vintimidate
p58
sbasVbossFlag
p59
I00
sVtLongGame
p60
Vdiamond-pearl
p61
sbag1
(g2
g3
Ntp62
Rp63
(dp64
g7
VSpr DP Psychic F.png
p65
sg9
VPsychic
p66
sg11
VBrittney
p67
sg13
V1728
p68
sg15
g16
sg17
g18
sg19
g20
sg21
g22
sg23
(lp69
g1
(g25
g3
Ntp70
Rp71
(dp72
g29
V308
p73
sg31
VMedicham
p74
sg33
VF
p75
sg35
V52
p76
sg37
(lp77
Vcalm-mind
p78
aVfeint
p79
aVpower-trick
p80
aVforce-palm
p81
asg43
g44
sg45
Vpure-power
p82
sbag1
(g25
g3
Ntp83
Rp84
(dp85
g29
V065
p86
sg31
VAlakazam
p87
sg33
g34
sg35
V54
p88
sg37
(lp89
Vtrick
p90
aVcalm-mind
p91
aVmiracle-eye
p92
aVpsycho-cut
p93
asg43
g44
sg45
Vsynchronize
p94
sbasg59
I00
sg60
g61
sbag1
(g2
g3
Ntp95
Rp96
(dp97
g7
VSpr DP Psychic M.png
p98
sg9
VPsychic
p99
sg11
VMaxwell
p100
sg13
V1728
p101
sg15
g16
sg17
g18
sg19
g20
sg21
g22
sg23
(lp102
g1
(g25
g3
Ntp103
Rp104
(dp105
g29
V200
p106
sg31
VMisdreavus
p107
sg33
g34
sg35
V52
p108
sg37
(lp109
Vshadow-ball
p110
aVgrudge
p111
aVastonish
p112
aVpayback
p113
asg43
g44
sg45
Vlevitate
p114
sbag1
(g25
g3
Ntp115
Rp116
(dp117
g29
V093
p118
sg31
VHaunter
p119
sg33
g34
sg35
V54
p120
sg37
(lp121
Vshadow-punch
p122
aVpayback
p123
aVsucker-punch
p124
aVdark-pulse
p125
asg43
g44
sg45
Vlevitate
p126
sbasg59
I00
sg60
g61
sbag1
(g2
g3
Ntp127
Rp128
(dp129
g7
VSpr DP Veteran.png
p130
sg9
VVeteran
p131
sg11
VArmando
p132
sg13
V4320
p133
sg15
V3
p134
sg17
g18
sg19
g20
sg21
g22
sg23
(lp135
g1
(g25
g3
Ntp136
Rp137
(dp138
g29
V397
p139
sg31
VStaravia
p140
sg33
g34
sg35
V52
p141
sg37
(lp142
Vdouble-team
p143
aVendeavor
p144
aVaerial-ace
p145
aVbrave-bird
p146
asg43
g44
sg45
Vintimidate
p147
sbag1
(g25
g3
Ntp148
Rp149
(dp150
g29
V279
p151
sg31
VPelipper
p152
sg33
g34
sg35
V53
p153
sg37
(lp154
Vroost
p155
aVtailwind
p156
aVpayback
p157
aVfling
p158
asg43
g44
sg45
Vdrizzle
p159
sbag1
(g25
g3
Ntp160
Rp161
(dp162
g29
V042
p163
sg31
VGolbat
p164
sg33
g34
sg35
V54
p165
sg37
(lp166
Vastonish
p167
ag167
aVair-cutter
p168
aVair-slash
p169
asg43
g44
sg45
Vinner-focus
p170
sbasg59
I00
sg60
g61
sbag1
(g2
g3
Ntp171
Rp172
(dp173
g7
VSpr DP Black Belt.png
p174
sg9
VBlack Belt
p175
sg11
VCarl
p176
sg13
V1344
p177
sg15
g16
sg17
g18
sg19
g20
sg21
g22
sg23
(lp178
g1
(g25
g3
Ntp179
Rp180
(dp181
g29
V453
p182
sg31
VCroagunk
p183
sg33
g34
sg35
V52
p184
sg37
(lp185
Vsucker-punch
p186
aVpoison-jab
p187
aVnasty-plot
p188
aVmud-bomb
p189
asg43
g44
sg45
Vanticipation
p190
sbag1
(g25
g3
Ntp191
Rp192
(dp193
g29
V068
p194
sg31
VMachamp
p195
sg33
g34
sg35
V56
p196
sg37
(lp197
Vvital-throw
p198
aVcross-chop
p199
aVrevenge
p200
aVwake-up-slap
p201
asg43
g44
sg45
Vguts
p202
sbasg59
I00
sg60
g61
sbag1
(g2
g3
Ntp203
Rp204
(dp205
g7
VSpr DP Ruin Maniac.png
p206
sg9
VRuin Maniac
p207
sg11
VLarry
p208
sg13
V2592
p209
sg15
V1
p210
sg17
g18
sg19
g20
sg21
g22
sg23
(lp211
g1
(g25
g3
Ntp212
Rp213
(dp214
g29
V208
p215
sg31
VSteelix
p216
sg33
g34
sg35
V54
p217
sg37
(lp218
Vthunder-fang
p219
aVice-fang
p220
aVfire-fang
p221
aVstone-edge
p222
asg43
g44
sg45
Vsturdy
p223
sbasg59
I00
sg60
g61
sbag1
(g2
g3
Ntp224
Rp225
(dp226
g7
VSpr DP Ace Trainer F 1.png
p227
sg9
VAce Trainer
p228
sg11
V{{OBP|Rebecca|M07|Jamie}}
p229
sg13
V3360
p230
sg15
g210
sg17
g18
sg19
g20
sg21
g22
sg23
(lp231
g1
(g25
g3
Ntp232
Rp233
(dp234
g29
V376
p235
sg31
VMetagross
p236
sg33
VU
p237
sg35
V56
p238
sg37
(lp239
Vhammer-arm
p240
aVmagnet-rise
p241
aVbullet-punch
p242
aVzen-headbutt
p243
asg43
g44
sg45
Vclear-body
p244
sbasg59
I00
sg60
g61
sbag1
(g2
g3
Ntp245
Rp246
(dp247
g7
VSpr DP Dragon Tamer.png
p248
sg9
VDragon Tamer
p249
sg11
VHayden
p250
sg13
V1824
p251
sg15
g16
sg17
g18
sg19
g20
sg21
g22
sg23
(lp252
g1
(g25
g3
Ntp253
Rp254
(dp255
g29
V333
p256
sg31
VSwablu
p257
sg33
g34
sg35
V53
p258
sg37
(lp259
Vrefresh
p260
aVastonish
p261
aVnatural-gift
p262
aVdragon-pulse
p263
asg43
g44
sg45
Vnatural-cure
p264
sbag1
(g25
g3
Ntp265
Rp266
(dp267
g29
V334
p268
sg31
VAltaria
p269
sg33
g34
sg35
V57
p270
sg37
(lp271
Vdragon-dance
p272
aVnatural-gift
p273
aVpluck
p274
aVdragon-pulse
p275
asg43
g44
sg45
Vnatural-cure
p276
sbasg59
I00
sg60
g61
sbag1
(g2
g3
Ntp277
Rp278
(dp279
g7
VSpr DP Psychic F.png
p280
sg9
VPsychic
p281
sg11
VBrittney
p282
sg13
V1856
p283
sg15
g16
sg17
g18
sg19
g20
sg21
g22
sg23
(lp284
g1
(g25
g3
Ntp285
Rp286
(dp287
g29
V308
p288
sg31
VMedicham
p289
sg33
g75
sg35
V58
p290
sg37
(lp291
Vcalm-mind
p292
aVfeint
p293
aVpower-trick
p294
aVforce-palm
p295
asg43
g44
sg45
Vpure-power
p296
sbag1
(g25
g3
Ntp297
Rp298
(dp299
g29
V065
p300
sg31
VAlakazam
p301
sg33
g34
sg35
V58
p302
sg37
(lp303
Vtrick
p304
aVcalm-mind
p305
aVmiracle-eye
p306
aVpsycho-cut
p307
asg43
g44
sg45
Vsynchronize
p308
sbasg59
I00
sg60
g61
sbag1
(g2
g3
Ntp309
Rp310
(dp311
g7
VSpr DP Psychic_M.png
p312
sg9
VPsychic
p313
sg11
VMaxwell
p314
sg13
V1856
p315
sg15
g16
sg17
g18
sg19
g20
sg21
g22
sg23
(lp316
g1
(g25
g3
Ntp317
Rp318
(dp319
g29
V200
p320
sg31
VMisdreavus
p321
sg33
g34
sg35
V56
p322
sg37
(lp323
Vshadow-ball
p324
aVgrudge
p325
aVastonish
p326
aVpayback
p327
asg43
g44
sg45
Vlevitate
p328
sbag1
(g25
g3
Ntp329
Rp330
(dp331
g29
V094
p332
sg31
VGengar
p333
sg33
g34
sg35
V58
p334
sg37
(lp335
Vshadow-punch
p336
aVpayback
p337
aVsucker-punch
p338
aVdark-pulse
p339
asg43
g44
sg45
Vcursed-body
p340
sbasg59
I00
sg60
g61
sbag1
(g2
g3
Ntp341
Rp342
(dp343
g7
VSpr DP Veteran.png
p344
sg9
VVeteran
p345
sg11
VArmando
p346
sg13
V4640
p347
sg15
g134
sg17
g18
sg19
g20
sg21
g22
sg23
(lp348
g1
(g25
g3
Ntp349
Rp350
(dp351
g29
V398
p352
sg31
VStaraptor
p353
sg33
g34
sg35
V58
p354
sg37
(lp355
Vendeavor
p356
aVaerial-ace
p357
aVclose-combat
p358
aVbrave-bird
p359
asg43
g44
sg45
Vintimidate
p360
sbag1
(g25
g3
Ntp361
Rp362
(dp363
g29
V279
p364
sg31
VPelipper
p365
sg33
g34
sg35
V58
p366
sg37
(lp367
Vroost
p368
aVtailwind
p369
aVpayback
p370
aVfling
p371
asg43
g44
sg45
Vdrizzle
p372
sbag1
(g25
g3
Ntp373
Rp374
(dp375
g29
V169
p376
sg31
VCrobat
p377
sg33
g34
sg35
V58
p378
sg37
(lp379
Vastonish
p380
aVair-cutter
p381
aVair-slash
p382
aVcross-poison
p383
asg43
g44
sg45
Vinner-focus
p384
sbasg59
I00
sg60
g61
sbag1
(g2
g3
Ntp385
Rp386
(dp387
g7
VSpr DP Dragon Tamer.png
p388
sg9
VDragon Tamer
p389
sg11
VHayden
p390
sg13
V1920
p391
sg15
g16
sg17
g18
sg19
g20
sg21
g22
sg23
(lp392
g1
(g25
g3
Ntp393
Rp394
(dp395
g29
V334
p396
sg31
VAltaria
p397
sg33
g34
sg35
V60
p398
sg37
(lp399
Vdragon-dance
p400
aVnatural-gift
p401
aVpluck
p402
aVdragon-pulse
p403
asg43
g44
sg45
Vnatural-cure
p404
sbag1
(g25
g3
Ntp405
Rp406
(dp407
g29
V 334
p408
sg31
VAltaria
p409
sg33
g34
sg35
V60
p410
sg37
(lp411
Vdragon-dance
p412
aVnatural-gift
p413
aVpluck
p414
aVdragon-pulse
p415
asg43
g44
sg45
Vnatural-cure
p416
sbasg59
I00
sg60
g61
sbag1
(g2
g3
Ntp417
Rp418
(dp419
g7
VSpr DP Ace_Trainer M 1.png
p420
sg9
VAce Trainer
p421
sg11
VRuben
p422
sg13
V3420
p423
sg15
g16
sg17
g18
sg19
g20
sg21
g22
sg23
(lp424
g1
(g25
g3
Ntp425
Rp426
(dp427
g29
V274
p428
sg31
VNuzleaf
p429
sg33
g34
sg35
V56
p430
sg37
(lp431
Vfake-out
p432
aVtorment
p433
aVnature-power
p434
aVextrasensory
p435
asg43
g44
sg45
Vchlorophyll
p436
sbag1
(g25
g3
Ntp437
Rp438
(dp439
g29
V130
p440
sg31
VGyarados
p441
sg33
g34
sg35
V57
p442
sg37
(lp443
Vrain-dance
p444
aVdragon-dance
p445
aVaqua-tail
p446
aVice-fang
p447
asg43
g44
sg45
Vintimidate
p448
sbasg59
I00
sg60
g61
sbag1
(g2
g3
Ntp449
Rp450
(dp451
g7
VSpr DP Psychic F.png
p452
sg9
VPsychic
p453
sg11
VBrittney
p454
sg13
V1824
p455
sg15
g16
sg17
g18
sg19
g20
sg21
g22
sg23
(lp456
g1
(g25
g3
Ntp457
Rp458
(dp459
g29
V096
p460
sg31
VDrowzee
p461
sg33
g75
sg35
V55
p462
sg37
(lp463
Vpsych-up
p464
aVfuture-sight
p465
aVnasty-plot
p466
aVzen-headbutt
p467
asg43
g44
sg45
Vinsomnia
p468
sbag1
(g25
g3
Ntp469
Rp470
(dp471
g29
V065
p472
sg31
VAlakazam
p473
sg33
g75
sg35
V57
p474
sg37
(lp475
Vtrick
p476
aVcalm-mind
p477
aVmiracle-eye
p478
aVpsycho-cut
p479
asg43
g44
sg45
Vinner-focus
p480
sbasg59
I00
sg60
g61
sbag1
(g2
g3
Ntp481
Rp482
(dp483
g7
VSpr DP Psychic_M.png
p484
sg9
VPsychic
p485
sg11
VMaxwell
p486
sg13
V1728
p487
sg15
g16
sg17
g18
sg19
g20
sg21
g22
sg23
(lp488
g1
(g25
g3
Ntp489
Rp490
(dp491
g29
V200
p492
sg31
VMisdreavus
p493
sg33
g34
sg35
V58
p494
sg37
(lp495
Vshadow-ball
p496
aVgrudge
p497
aVastonish
p498
aVpayback
p499
asg43
g44
sg45
Vlevitate
p500
sbag1
(g25
g3
Ntp501
Rp502
(dp503
g29
V093
p504
sg31
VHaunter
p505
sg33
g34
sg35
V54
p506
sg37
(lp507
Vshadow-punch
p508
aVpayback
p509
aVsucker-punch
p510
aVdark-pulse
p511
asg43
g44
sg45
Vlevitate
p512
sbasg59
I00
sg60
g61
sbag1
(g2
g3
Ntp513
Rp514
(dp515
g7
VSpr DP Veteran.png
p516
sg9
VVeteran
p517
sg11
VArmando
p518
sg13
V4480
p519
sg15
g134
sg17
g18
sg19
g20
sg21
g22
sg23
(lp520
g1
(g25
g3
Ntp521
Rp522
(dp523
g29
V089
p524
sg31
VMuk
p525
sg33
g34
sg35
V53
p526
sg37
(lp527
Vmemento
p528
aVfling
p529
aVmud-bomb
p530
aVgunk-shot
p531
asg43
g44
sg45
Vstench
p532
sbag1
(g25
g3
Ntp533
Rp534
(dp535
g29
V262
p536
sg31
VMightyena
p537
sg33
g34
sg35
V53
p538
sg37
(lp539
Vhowl
p540
aVassurance
p541
aVembargo
p542
aVsucker-punch
p543
asg43
g44
sg45
Vintimidate
p544
sbag1
(g25
g3
Ntp545
Rp546
(dp547
g29
V108
p548
sg31
VLickitung
p549
sg33
g34
sg35
V56
p550
sg37
(lp551
Vrefresh
p552
aVwring-out
p553
aVme-first
p554
aVpower-whip
p555
asg43
g44
sg45
Vown-tempo
p556
sbasg59
I00
sg60
g61
sbag1
(g2
g3
Ntp557
Rp558
(dp559
g7
VSpr DP Black Belt.png
p560
sg9
VBlack Belt
p561
sg11
VCarl
p562
sg13
V1416
p563
sg15
g16
sg17
g18
sg19
g20
sg21
g22
sg23
(lp564
g1
(g25
g3
Ntp565
Rp566
(dp567
g29
V236
p568
sg31
VTyrogue
p569
sg33
g34
sg35
V55
p570
sg37
(lp571
Vtackle
p572
aVfake-out
p573
aVhelping-hand
p574
asg43
g44
sg45
Vsteadfast
p575
sbag1
(g25
g3
Ntp576
Rp577
(dp578
g29
V106
p579
sg31
VHitmonlee
p580
sg33
g34
sg35
V59
p581
sg37
(lp582
Vbrick-break
p583
aVblaze-kick
p584
aVfeint
p585
aVclose-combat
p586
asg43
g44
sg45
Vreckless
p587
sbasg59
I00
sg60
g61
sbag1
(g2
g3
Ntp588
Rp589
(dp590
g7
VSpr DP Ruin Maniac.png
p591
sg9
VRuin Maniac
p592
sg11
VLarry
p593
sg13
V2736
p594
sg15
g210
sg17
g18
sg19
g20
sg21
g22
sg23
(lp595
g1
(g25
g3
Ntp596
Rp597
(dp598
g29
V142
p599
sg31
VAerodactyl
p600
sg33
g34
sg35
V57
p601
sg37
(lp602
Vthunder-fang
p603
aVice-fang
p604
aVfire-fang
p605
aViron-head
p606
asg43
g44
sg45
Vrock-head
p607
sbasg59
I00
sg60
g61
sbag1
(g2
g3
Ntp608
Rp609
(dp610
g7
VSpr DP Ace Trainer F 1.png
p611
sg9
VAce Trainer
p612
sg11
V{{OBP|Rebecca|M07|Jamie}}
p613
sg13
V3600
p614
sg15
g210
sg17
g18
sg19
g20
sg21
g22
sg23
(lp615
g1
(g25
g3
Ntp616
Rp617
(dp618
g29
V376
p619
sg31
VMetagross
p620
sg33
g237
sg35
V60
p621
sg37
(lp622
Vhammer-arm
p623
aVmagnet-rise
p624
aVbullet-punch
p625
aVzen-headbutt
p626
asg43
g44
sg45
Vclear-body
p627
sbasg59
I00
sg60
g61
sbag1
(g2
g3
Ntp628
Rp629
(dp630
g7
VSpr DP Dragon Tamer.png
p631
sg9
VDragon Tamer
p632
sg11
VHayden
p633
sg13
V1792
p634
sg15
g16
sg17
g18
sg19
g20
sg21
g22
sg23
(lp635
g1
(g25
g3
Ntp636
Rp637
(dp638
g29
V334
p639
sg31
VAltaria
p640
sg33
g34
sg35
V56
p641
sg37
(lp642
Vdragon-dance
p643
aVnatural-gift
p644
aVpluck
p645
aVdragon-pulse
p646
asg43
g44
sg45
Vnatural-cure
p647
sbag1
(g25
g3
Ntp648
Rp649
(dp650
g29
V117
p651
sg31
VSeadra
p652
sg33
g34
sg35
V56
p653
sg37
(lp654
Vtwister
p655
aVdragon-dance
p656
aVbrine
p657
aVdragon-pulse
p658
asg43
g44
sg45
Vsniper
p659
sbasg59
I00
sg60
g61
sbag1
(g2
g3
Ntp660
Rp661
(dp662
g7
VSpr DP Psychic F.png
p663
sg9
VPsychic
p664
sg11
VBrittney
p665
sg13
V1952
p666
sg15
g16
sg17
g18
sg19
g20
sg21
g22
sg23
(lp667
g1
(g25
g3
Ntp668
Rp669
(dp670
g29
V097
p671
sg31
VHypno
p672
sg33
g75
sg35
V59
p673
sg37
(lp674
Vfuture-sight
p675
aVswitcheroo
p676
aVnasty-plot
p677
aVzen-headbutt
p678
asg43
g44
sg45
Vinsomnia
p679
sbag1
(g25
g3
Ntp680
Rp681
(dp682
g29
V065
p683
sg31
VAlakazam
p684
sg33
g75
sg35
V61
p685
sg37
(lp686
Vtrick
p687
aVcalm-mind
p688
aVmiracle-eye
p689
aVpsycho-cut
p690
asg43
g44
sg45
Vsynchronize
p691
sbasg59
I00
sg60
g61
sbag1
(g2
g3
Ntp692
Rp693
(dp694
g7
VSpr DP Psychic_M.png
p695
sg9
VPsychic
p696
sg11
VMaxwell
p697
sg13
V1984
p698
sg15
g16
sg17
g18
sg19
g20
sg21
g22
sg23
(lp699
g1
(g25
g3
Ntp700
Rp701
(dp702
g29
V200
p703
sg31
VMisdreavus
p704
sg33
g34
sg35
V58
p705
sg37
(lp706
Vshadow-ball
p707
aVgrudge
p708
aVastonish
p709
aVpayback
p710
asg43
g44
sg45
Vlevitate
p711
sbag1
(g25
g3
Ntp712
Rp713
(dp714
g29
V094
p715
sg31
VGengar
p716
sg33
g34
sg35
V62
p717
sg37
(lp718
Vshadow-punch
p719
aVpayback
p720
aVsucker-punch
p721
aVdark-pulse
p722
asg43
g44
sg45
Vcursed-body
p723
sbasg59
I00
sg60
g61
sbag1
(g2
g3
Ntp724
Rp725
(dp726
g7
VSpr DP Veteran.png
p727
sg9
VVeteran
p728
sg11
VArmando
p729
sg13
V4960
p730
sg15
g134
sg17
g18
sg19
g20
sg21
g22
sg23
(lp731
g1
(g25
g3
Ntp732
Rp733
(dp734
g29
V291
p735
sg31
VNinjask
p736
sg33
g34
sg35
V59
p737
sg37
(lp738
Vfury-cutter
p739
aVbaton-pass
p740
aVx-scissor
p741
aVbug-bite
p742
asg43
g44
sg45
Vspeed-boost
p743
sbag1
(g25
g3
Ntp744
Rp745
(dp746
g29
V359
p747
sg31
VAbsol
p748
sg33
g34
sg35
V59
p749
sg37
(lp750
Vme-first
p751
aVsucker-punch
p752
aVnight-slash
p753
aVpsycho-cut
p754
asg43
g44
sg45
Vsuper-luck
p755
sbag1
(g25
g3
Ntp756
Rp757
(dp758
g29
V289
p759
sg31
VSlaking
p760
sg33
g34
sg35
V62
p761
sg37
(lp762
Vcovet
p763
aVhammer-arm
p764
aVfling
p765
aVpunishment
p766
asg43
g44
sg45
Vtruant
p767
sbasg59
I00
sg60
g61
sbag1
(g2
g3
Ntp768
Rp769
(dp770
g7
VSpr DP Dragon Tamer.png
p771
sg9
VDragon Tamer
p772
sg11
VHayden
p773
sg13
V1920
p774
sg15
g16
sg17
g18
sg19
g20
sg21
g22
sg23
(lp775
g1
(g25
g3
Ntp776
Rp777
(dp778
g29
V334
p779
sg31
VAltaria
p780
sg33
g34
sg35
V60
p781
sg37
(lp782
Vdragon-dance
p783
aVnatural-gift
p784
aVpluck
p785
aVdragon-pulse
p786
asg43
g44
sg45
Vnatural-cure
p787
sbag1
(g25
g3
Ntp788
Rp789
(dp790
g29
V230
p791
sg31
VKingdra
p792
sg33
g34
sg35
V60
p793
sg37
(lp794
Vyawn
p795
aVdragon-dance
p796
aVbrine
p797
aVdragon-pulse
p798
asg43
g44
sg45
Vsniper
p799
sbasg59
I00
sg60
g61
sba.