(lp0
ccopy_reg
_reconstructor
p1
(c__main__
Trainer
p2
c__builtin__
object
p3
Ntp4
Rp5
(dp6
VtSprite
p7
VSpr DP Ninja Boy.png
p8
sVtClass
p9
VNinja Boy
p10
sVtName
p11
VZach
p12
sVtMoney
p13
V120
p14
sVtPokeCount
p15
V3
p16
sVtLocation
p17
Vwiki/Sinnoh_Route_211
p18
sVtRegion
p19
VSinnoh
p20
sVtGame
p21
VDP
p22
sVtPokes
p23
(lp24
g1
(c__main__
FinishedPokemon
p25
g3
Ntp26
Rp27
(dp28
VpDexNo
p29
V041
p30
sVpSpecies
p31
VZubat
p32
sVpGender
p33
VM
p34
sVpLevel
p35
V13
p36
sVpMoves
p37
(lp38
Vpoison-fang
p39
aVastonish
p40
aVair-cutter
p41
aVair-slash
p42
asVpHold
p43
V
p44
sVpAbility
p45
Vinner-focus
p46
sbag1
(g25
g3
Ntp47
Rp48
(dp49
g29
V041
p50
sg31
VZubat
p51
sg33
g34
sg35
V14
p52
sg37
(lp53
Vpoison-fang
p54
aVastonish
p55
aVair-cutter
p56
aVair-slash
p57
asg43
g44
sg45
Vinner-focus
p58
sbag1
(g25
g3
Ntp59
Rp60
(dp61
g29
V041
p62
sg31
VZubat
p63
sg33
g34
sg35
V15
p64
sg37
(lp65
Vpoison-fang
p66
aVastonish
p67
aVair-cutter
p68
aVair-slash
p69
asg43
g44
sg45
Vinner-focus
p70
sbasVbossFlag
p71
I00
sVtLongGame
p72
Vdiamond-pearl
p73
sbag1
(g2
g3
Ntp74
Rp75
(dp76
g7
VSpr DP Hiker.png
p77
sg9
VHiker
p78
sg11
VLouis
p79
sg13
V480
p80
sg15
V2
p81
sg17
g18
sg19
g20
sg21
g22
sg23
(lp82
g1
(g25
g3
Ntp83
Rp84
(dp85
g29
V074
p86
sg31
VGeodude
p87
sg33
g34
sg35
V15
p88
sg37
(lp89
Vmud-sport
p90
aVrock-blast
p91
aVrock-polish
p92
aVstone-edge
p93
asg43
g44
sg45
Vsturdy
p94
sbag1
(g25
g3
Ntp95
Rp96
(dp97
g29
V095
p98
sg31
VOnix
p99
sg33
g34
sg35
V15
p100
sg37
(lp101
Vrock-tomb
p102
aVsand-tomb
p103
aVrock-polish
p104
aVstone-edge
p105
asg43
g44
sg45
Vrock-head
p106
sbasg71
I00
sg72
g73
sbag1
(g2
g3
Ntp107
Rp108
(dp109
g7
VSpr DP Bird Keeper.png
p110
sg9
VBird Keeper
p111
sg11
VAlexandra
p112
sg13
V608<br><small>Requires {{m|Rock Smash}}
p113
sg15
V1
p114
sg17
g18
sg19
g20
sg21
g22
sg23
(lp115
g1
(g25
g3
Ntp116
Rp117
(dp118
g29
V163
p119
sg31
VHoothoot
p120
sg33
VF
p121
sg35
V19
p122
sg37
(lp123
Vroost
p124
aVpsycho-shift
p125
aVair-slash
p126
aVzen-headbutt
p127
asg43
g44
sg45
Vkeen-eye
p128
sbasg71
I00
sg72
g73
sbag1
(g2
g3
Ntp129
Rp130
(dp131
g7
VSpr DP Black Belt.png
p132
sg9
VBlack Belt
p133
sg11
VSean
p134
sg13
V696
p135
sg15
g16
sg17
g18
sg19
g20
sg21
g22
sg23
(lp136
g1
(g25
g3
Ntp137
Rp138
(dp139
g29
V453
p140
sg31
VCroagunk
p141
sg33
g34
sg35
V28
p142
sg37
(lp143
Vsucker-punch
p144
aVpoison-jab
p145
aVnasty-plot
p146
aVmud-bomb
p147
asg43
g44
sg45
Vanticipation
p148
sbag1
(g25
g3
Ntp149
Rp150
(dp151
g29
V307
p152
sg31
VMeditite
p153
sg33
g34
sg35
V27
p154
sg37
(lp155
Vcalm-mind
p156
aVfeint
p157
aVpower-trick
p158
aVforce-palm
p159
asg43
g44
sg45
Vpure-power
p160
sbag1
(g25
g3
Ntp161
Rp162
(dp163
g29
V067
p164
sg31
VMachoke
p165
sg33
g34
sg35
V29
p166
sg37
(lp167
Vvital-throw
p168
aVcross-chop
p169
aVrevenge
p170
aVwake-up-slap
p171
asg43
g44
sg45
Vno-guard
p172
sbasg71
I00
sg72
g73
sbag1
(g2
g3
Ntp173
Rp174
(dp175
g7
VSpr DP Bird Keeper.png
p176
sg9
VBird Keeper
p177
sg11
VKatherine
p178
sg13
V992
p179
sg15
g114
sg17
g18
sg19
g20
sg21
g22
sg23
(lp180
g1
(g25
g3
Ntp181
Rp182
(dp183
g29
V164
p184
sg31
VNoctowl
p185
sg33
g121
sg35
V31
p186
sg37
(lp187
Vroost
p188
aVpsycho-shift
p189
aVair-slash
p190
aVzen-headbutt
p191
asg43
g44
sg45
Vkeen-eye
p192
sbasg71
I00
sg72
g73
sbag1
(g2
g3
Ntp193
Rp194
(dp195
g7
VSpr DP Ruin Maniac.png
p196
sg9
VRuin Maniac
p197
sg11
VHarry
p198
sg13
V1440
p199
sg15
g114
sg17
g18
sg19
g20
sg21
g22
sg23
(lp200
g1
(g25
g3
Ntp201
Rp202
(dp203
g29
V436
p204
sg31
VBronzor
p205
sg33
VU
p206
sg35
V30
p207
sg37
(lp208
Viron-defense
p209
aVgyro-ball
p210
aVpayback
p211
aVheal-block
p212
asg43
g44
sg45
Vlevitate
p213
sbasg71
I00
sg72
g73
sbag1
(g2
g3
Ntp214
Rp215
(dp216
g7
VSpr DP Ninja Boy.png
p217
sg9
VNinja Boy
p218
sg11
VNick
p219
sg13
V216
p220
sg15
g81
sg17
g18
sg19
g20
sg21
g22
sg23
(lp221
g1
(g25
g3
Ntp222
Rp223
(dp224
g29
V451
p225
sg31
VSkorupi
p226
sg33
g34
sg35
V27
p227
sg37
(lp228
Vpoison-fang
p229
aVacupressure
p230
aVtoxic-spikes
p231
aVcross-poison
p232
asg43
g44
sg45
Vsniper
p233
sbag1
(g25
g3
Ntp234
Rp235
(dp236
g29
V042
p237
sg31
VGolbat
p238
sg33
g34
sg35
V27
p239
sg37
(lp240
Vastonish
p241
ag241
aVair-cutter
p242
aVair-slash
p243
asg43
g44
sg45
Vinner-focus
p244
sbasg71
I00
sg72
g73
sba.