(lp0
ccopy_reg
_reconstructor
p1
(c__main__
Trainer
p2
c__builtin__
object
p3
Ntp4
Rp5
(dp6
VtSprite
p7
VSpr DP Ace Trainer M 2.png
p8
sVtClass
p9
VAce Trainer
p10
sVtName
p11
VDalton
p12
sVtMoney
p13
V2280
p14
sVtPokeCount
p15
V3
p16
sVtLocation
p17
Vwiki/Sinnoh_Route_217
p18
sVtRegion
p19
VSinnoh
p20
sVtGame
p21
VDP
p22
sVtPokes
p23
(lp24
g1
(c__main__
FinishedPokemon
p25
g3
Ntp26
Rp27
(dp28
VpDexNo
p29
V026
p30
sVpSpecies
p31
VRaichu
p32
sVpGender
p33
VM
p34
sVpLevel
p35
V34
p36
sVpMoves
p37
(lp38
Vtail-whip
p39
aVthunder-shock
p40
aVthunderbolt
p41
aVquick-attack
p42
asVpHold
p43
V
p44
sVpAbility
p45
Vstatic
p46
sbag1
(g25
g3
Ntp47
Rp48
(dp49
g29
V279
p50
sg31
VPelipper
p51
sg33
g34
sg35
V36
p52
sg37
(lp53
Vroost
p54
aVtailwind
p55
aVpayback
p56
aVfling
p57
asg43
g44
sg45
Vkeen-eye
p58
sbag1
(g25
g3
Ntp59
Rp60
(dp61
g29
V449
p62
sg31
VHippopotas
p63
sg33
g34
sg35
V38
p64
sg37
(lp65
Vfissure
p66
aVcrunch
p67
aVyawn
p68
aVsand-tomb
p69
asg43
g44
sg45
Vsand-stream
p70
sbasVbossFlag
p71
I00
sVtLongGame
p72
Vdiamond-pearl
p73
sbag1
(g2
g3
Ntp74
Rp75
(dp76
g7
VSpr DP Skier M.png
p77
sg9
VSkier
p78
sg11
VShawn
p79
sg13
V1120
p80
sg15
V4
p81
sg17
g18
sg19
g20
sg21
g22
sg23
(lp82
g1
(g25
g3
Ntp83
Rp84
(dp85
g29
V459
p86
sg31
VSnover
p87
sg33
g34
sg35
V34
p88
sg37
(lp89
Vgrass-whistle
p90
aVsheer-cold
p91
aVice-shard
p92
aVwood-hammer
p93
asg43
g44
sg45
Vsnow-warning
p94
sbag1
(g25
g3
Ntp95
Rp96
(dp97
g29
V459
p98
sg31
VSnover
p99
sg33
g34
sg35
V33
p100
sg37
(lp101
Vgrass-whistle
p102
aVsheer-cold
p103
aVice-shard
p104
aVwood-hammer
p105
asg43
g44
sg45
Vsnow-warning
p106
sbag1
(g25
g3
Ntp107
Rp108
(dp109
g29
V055
p110
sg31
VGolduck
p111
sg33
g34
sg35
V34
p112
sg37
(lp113
Vpsych-up
p114
aVwater-sport
p115
aVwater-pulse
p116
aVzen-headbutt
p117
asg43
g44
sg45
Vdamp
p118
sbag1
(g25
g3
Ntp119
Rp120
(dp121
g29
V459
p122
sg31
VSnover
p123
sg33
g34
sg35
V35
p124
sg37
(lp125
Vgrass-whistle
p126
aVsheer-cold
p127
aVice-shard
p128
aVwood-hammer
p129
asg43
g44
sg45
Vsnow-warning
p130
sbasg71
I00
sg72
g73
sbag1
(g2
g3
Ntp131
Rp132
(dp133
g7
VSpr DP Ninja Boy.png
p134
sg9
VNinja Boy
p135
sg11
VAntonio
p136
sg13
V288
p137
sg15
g81
sg17
g18
sg19
g20
sg21
g22
sg23
(lp138
g1
(g25
g3
Ntp139
Rp140
(dp141
g29
V041
p142
sg31
VZubat
p143
sg33
g34
sg35
V33
p144
sg37
(lp145
Vpoison-fang
p146
aVastonish
p147
aVair-cutter
p148
aVair-slash
p149
asg43
g44
sg45
Vinner-focus
p150
sbag1
(g25
g3
Ntp151
Rp152
(dp153
g29
V042
p154
sg31
VGolbat
p155
sg33
g34
sg35
V33
p156
sg37
(lp157
Vastonish
p158
ag158
aVair-cutter
p159
aVair-slash
p160
asg43
g44
sg45
Vinner-focus
p161
sbag1
(g25
g3
Ntp162
Rp163
(dp164
g29
V041
p165
sg31
VZubat
p166
sg33
g34
sg35
V34
p167
sg37
(lp168
Vpoison-fang
p169
aVastonish
p170
aVair-cutter
p171
aVair-slash
p172
asg43
g44
sg45
Vinner-focus
p173
sbag1
(g25
g3
Ntp174
Rp175
(dp176
g29
V453
p177
sg31
VCroagunk
p178
sg33
g34
sg35
V36
p179
sg37
(lp180
Vsucker-punch
p181
aVpoison-jab
p182
aVnasty-plot
p183
aVmud-bomb
p184
asg43
g44
sg45
Vdry-skin
p185
sbasg71
I00
sg72
g73
sbag1
(g2
g3
Ntp186
Rp187
(dp188
g7
VSpr DP Skier F.png
p189
sg9
VSkier
p190
sg11
VMadison
p191
sg13
V1184
p192
sg15
V1
p193
sg17
g18
sg19
g20
sg21
g22
sg23
(lp194
g1
(g25
g3
Ntp195
Rp196
(dp197
g29
V459
p198
sg31
VSnover
p199
sg33
VF
p200
sg35
V37
p201
sg37
(lp202
Vgrass-whistle
p203
aVsheer-cold
p204
aVice-shard
p205
aVwood-hammer
p206
asg43
g44
sg45
Vsnow-warning
p207
sbasg71
I00
sg72
g73
sbag1
(g2
g3
Ntp208
Rp209
(dp210
g7
VSpr DP Ninja Boy.png
p211
sg9
VNinja Boy
p212
sg11
VEthan
p213
sg13
V280
p214
sg15
V2
p215
sg17
g18
sg19
g20
sg21
g22
sg23
(lp216
g1
(g25
g3
Ntp217
Rp218
(dp219
g29
V451
p220
sg31
VSkorupi
p221
sg33
g34
sg35
V35
p222
sg37
(lp223
Vpoison-fang
p224
aVacupressure
p225
aVtoxic-spikes
p226
aVcross-poison
p227
asg43
g44
sg45
Vbattle-armor
p228
sbag1
(g25
g3
Ntp229
Rp230
(dp231
g29
V042
p232
sg31
VGolbat
p233
sg33
g34
sg35
V35
p234
sg37
(lp235
Vastonish
p236
ag236
aVair-cutter
p237
aVair-slash
p238
asg43
g44
sg45
Vinner-focus
p239
sbasg71
I00
sg72
g73
sbag1
(g2
g3
Ntp240
Rp241
(dp242
g7
VSpr DP Skier M.png
p243
sg9
VSkier
p244
sg11
VBjorn
p245
sg13
V1216
p246
sg15
g215
sg17
g18
sg19
g20
sg21
g22
sg23
(lp247
g1
(g25
g3
Ntp248
Rp249
(dp250
g29
V458
p251
sg31
VMantyke
p252
sg33
g34
sg35
V36
p253
sg37
(lp254
Vbubble
p255
aVbounce
p256
aVwater-pulse
p257
aVaqua-ring
p258
asg43
g44
sg45
Vswift-swim
p259
sbag1
(g25
g3
Ntp260
Rp261
(dp262
g29
V215
p263
sg31
VSneasel
p264
sg33
g34
sg35
V38
p265
sg37
(lp266
Vmetal-claw
p267
aVbeat-up
p268
aVtaunt
p269
aVice-shard
p270
asg43
g44
sg45
Vkeen-eye
p271
sbasg71
I00
sg72
g73
sbag1
(g2
g3
Ntp272
Rp273
(dp274
g7
VSpr DP Skier F.png
p275
sg9
VSkier
p276
sg11
VLexie
p277
sg13
V1120
p278
sg15
g215
sg17
g18
sg19
g20
sg21
g22
sg23
(lp279
g1
(g25
g3
Ntp280
Rp281
(dp282
g29
V183
p283
sg31
VMarill
p284
sg33
g200
sg35
V35
p285
sg37
(lp286
Vrollout
p287
aVrain-dance
p288
aVaqua-ring
p289
aVaqua-tail
p290
asg43
g44
sg45
Vhuge-power
p291
sbag1
(g25
g3
Ntp292
Rp293
(dp294
g29
V035
p295
sg31
VClefairy
p296
sg33
g200
sg35
V35
p297
sg37
(lp298
Vgravity
p299
aVwake-up-slap
p300
aVhealing-wish
p301
aVlucky-chant
p302
asg43
g44
sg45
Vmagic-guard
p303
sbasg71
I00
sg72
g73
sbag1
(g2
g3
Ntp304
Rp305
(dp306
g7
VSpr DP Black Belt.png
p307
sg9
VBlack Belt
p308
sg11
VLuke
p309
sg13
V888
p310
sg15
g16
sg17
g18
sg19
g20
sg21
g22
sg23
(lp311
g1
(g25
g3
Ntp312
Rp313
(dp314
g29
V453
p315
sg31
VCroagunk
p316
sg33
g34
sg35
V36
p317
sg37
(lp318
Vsucker-punch
p319
aVpoison-jab
p320
aVnasty-plot
p321
aVmud-bomb
p322
asg43
g44
sg45
Vdry-skin
p323
sbag1
(g25
g3
Ntp324
Rp325
(dp326
g29
V095
p327
sg31
VOnix
p328
sg33
g34
sg35
V35
p329
sg37
(lp330
Vrock-tomb
p331
aVsand-tomb
p332
aVrock-polish
p333
aVstone-edge
p334
asg43
g44
sg45
Vsturdy
p335
sbag1
(g25
g3
Ntp336
Rp337
(dp338
g29
V067
p339
sg31
VMachoke
p340
sg33
g34
sg35
V37
p341
sg37
(lp342
Vvital-throw
p343
aVcross-chop
p344
aVrevenge
p345
aVwake-up-slap
p346
asg43
g44
sg45
Vno-guard
p347
sbasg71
I00
sg72
g73
sbag1
(g2
g3
Ntp348
Rp349
(dp350
g7
VSpr DP Ace Trainer F 2.png
p351
sg9
VAce Trainer
p352
sg11
VOlivia
p353
sg13
V2220
p354
sg15
g215
sg17
g18
sg19
g20
sg21
g22
sg23
(lp355
g1
(g25
g3
Ntp356
Rp357
(dp358
g29
V315
p359
sg31
VRoselia
p360
sg33
g200
sg35
V37
p361
sg37
(lp362
Varomatherapy
p363
aVgrass-whistle
p364
aVmagical-leaf
p365
aVtoxic-spikes
p366
asg43
g44
sg45
Vnatural-cure
p367
sbag1
(g25
g3
Ntp368
Rp369
(dp370
g29
V119
p371
sg31
VSeaking
p372
sg33
g200
sg35
V37
p373
sg37
(lp374
Vwater-sport
p375
aVwater-pulse
p376
aVaqua-ring
p377
aVpoison-jab
p378
asg43
g44
sg45
Vswift-swim
p379
sbasg71
I00
sg72
g73
sba.