(lp0
ccopy_reg
_reconstructor
p1
(c__main__
Trainer
p2
c__builtin__
object
p3
Ntp4
Rp5
(dp6
VtSprite
p7
VSpr DP Swimmer F.png
p8
sVtClass
p9
VSwimmer
p10
sVtName
p11
VMiranda
p12
sVtMoney
p13
V688
p14
sVtPokeCount
p15
V1
p16
sVtLocation
p17
Vwiki/Sinnoh_Route_223
p18
sVtRegion
p19
VSinnoh
p20
sVtGame
p21
VDP
p22
sVtPokes
p23
(lp24
g1
(c__main__
FinishedPokemon
p25
g3
Ntp26
Rp27
(dp28
VpDexNo
p29
V457
p30
sVpSpecies
p31
VLumineon
p32
sVpGender
p33
VF
p34
sVpLevel
p35
V43
p36
sVpMoves
p37
(lp38
Vwater-pulse
p39
aVu-turn
p40
aVaqua-ring
p41
aVcaptivate
p42
asVpHold
p43
V
p44
sVpAbility
p45
Vswift-swim
p46
sbasVbossFlag
p47
I00
sVtLongGame
p48
Vdiamond-pearl
p49
sbag1
(g2
g3
Ntp50
Rp51
(dp52
g7
VSpr DP Swimmer F.png
p53
sg9
VSwimmer
p54
sg11
VAubree
p55
sg13
V656
p56
sg15
V2
p57
sg17
g18
sg19
g20
sg21
g22
sg23
(lp58
g1
(g25
g3
Ntp59
Rp60
(dp61
g29
V298
p62
sg31
VAzurill
p63
sg33
g34
sg35
V41
p64
sg37
(lp65
Vwater-gun
p66
aVbubble
p67
aVsplash
p68
aVcharm
p69
asg43
g44
sg45
Vhuge-power
p70
sbag1
(g25
g3
Ntp71
Rp72
(dp73
g29
V184
p74
sg31
VAzumarill
p75
sg33
g34
sg35
V41
p76
sg37
(lp77
Vrollout
p78
aVrain-dance
p79
aVaqua-ring
p80
aVaqua-tail
p81
asg43
g44
sg45
Vhuge-power
p82
sbasg47
I00
sg48
g49
sbag1
(g2
g3
Ntp83
Rp84
(dp85
g7
VSpr DP Swimmer M.png
p86
sg9
VSwimmer
p87
sg11
VOscar
p88
sg13
V672
p89
sg15
V3
p90
sg17
g18
sg19
g20
sg21
g22
sg23
(lp91
g1
(g25
g3
Ntp92
Rp93
(dp94
g29
V458
p95
sg31
VMantyke
p96
sg33
VM
p97
sg35
V38
p98
sg37
(lp99
Vbubble
p100
aVbounce
p101
aVwater-pulse
p102
aVaqua-ring
p103
asg43
g44
sg45
Vswift-swim
p104
sbag1
(g25
g3
Ntp105
Rp106
(dp107
g29
V223
p108
sg31
VRemoraid
p109
sg33
g97
sg35
V40
p110
sg37
(lp111
Vlock-on
p112
aVsignal-beam
p113
aVbullet-seed
p114
aVwater-pulse
p115
asg43
g44
sg45
Vhustle
p116
sbag1
(g25
g3
Ntp117
Rp118
(dp119
g29
V226
p120
sg31
VMantine
p121
sg33
g97
sg35
V42
p122
sg37
(lp123
Vbullet-seed
p124
aVbounce
p125
aVwater-pulse
p126
aVaqua-ring
p127
asg43
g44
sg45
Vwater-absorb
p128
sbasg47
I00
sg48
g49
sbag1
(g2
g3
Ntp129
Rp130
(dp131
g7
VSpr DP Swimmer M.png
p132
sg9
VSwimmer
p133
sg11
VColton
p134
sg13
V656<br><small>Potential [[Double Battle]] with Paige</small>
p135
sg15
g90
sg17
g18
sg19
g20
sg21
g22
sg23
(lp136
g1
(g25
g3
Ntp137
Rp138
(dp139
g29
V278
p140
sg31
VWingull
p141
sg33
g97
sg35
V37
p142
sg37
(lp143
Vaerial-ace
p144
aVwater-pulse
p145
aVroost
p146
aVair-slash
p147
asg43
g44
sg45
Vkeen-eye
p148
sbag1
(g25
g3
Ntp149
Rp150
(dp151
g29
V195
p152
sg31
VQuagsire
p153
sg33
g97
sg35
V42
p154
sg37
(lp155
Vmud-sport
p156
aVmuddy-water
p157
aVmud-shot
p158
aVmud-bomb
p159
asg43
g44
sg45
Vwater-absorb
p160
sbag1
(g25
g3
Ntp161
Rp162
(dp163
g29
V279
p164
sg31
VPelipper
p165
sg33
g97
sg35
V41
p166
sg37
(lp167
Vroost
p168
aVtailwind
p169
aVpayback
p170
aVfling
p171
asg43
g44
sg45
Vkeen-eye
p172
sbasg47
I00
sg48
g49
sbag1
(g2
g3
Ntp173
Rp174
(dp175
g7
VSpr DP Swimmer F.png
p176
sg9
VSwimmer
p177
sg11
VPaige
p178
sg13
V656<br><small>Potential [[Double Battle]] with Colton</small>
p179
sg15
g90
sg17
g18
sg19
g20
sg21
g22
sg23
(lp180
g1
(g25
g3
Ntp181
Rp182
(dp183
g29
V183
p184
sg31
VMarill
p185
sg33
g34
sg35
V39
p186
sg37
(lp187
Vrollout
p188
aVrain-dance
p189
aVaqua-ring
p190
aVaqua-tail
p191
asg43
g44
sg45
Vthick-fat
p192
sbag1
(g25
g3
Ntp193
Rp194
(dp195
g29
V278
p196
sg31
VWingull
p197
sg33
g34
sg35
V40
p198
sg37
(lp199
Vaerial-ace
p200
aVwater-pulse
p201
aVroost
p202
aVair-slash
p203
asg43
g44
sg45
Vhydration
p204
sbag1
(g25
g3
Ntp205
Rp206
(dp207
g29
V055
p208
sg31
VGolduck
p209
sg33
g34
sg35
V41
p210
sg37
(lp211
Vpsych-up
p212
aVwater-sport
p213
aVwater-pulse
p214
aVzen-headbutt
p215
asg43
g44
sg45
Vdamp
p216
sbasg47
I00
sg48
g49
sbag1
(g2
g3
Ntp217
Rp218
(dp219
g7
VSpr DP Swimmer M.png
p220
sg9
VSwimmer
p221
sg11
VRicardo
p222
sg13
V688
p223
sg15
g16
sg17
g18
sg19
g20
sg21
g22
sg23
(lp224
g1
(g25
g3
Ntp225
Rp226
(dp227
g29
V073
p228
sg31
VTentacruel
p229
sg33
g97
sg35
V43
p230
sg37
(lp231
Vwater-pulse
p232
aVwring-out
p233
aVtoxic-spikes
p234
aVpoison-jab
p235
asg43
g44
sg45
Vliquid-ooze
p236
sbasg47
I00
sg48
g49
sbag1
(g2
g3
Ntp237
Rp238
(dp239
g7
VSpr DP Swimmer F.png
p240
sg9
VSwimmer
p241
sg11
VCrystal
p242
sg13
V656
p243
sg15
g57
sg17
g18
sg19
g20
sg21
g22
sg23
(lp244
g1
(g25
g3
Ntp245
Rp246
(dp247
g29
V278
p248
sg31
VWingull
p249
sg33
g34
sg35
V41
p250
sg37
(lp251
Vaerial-ace
p252
aVwater-pulse
p253
aVroost
p254
aVair-slash
p255
asg43
g44
sg45
Vhydration
p256
sbag1
(g25
g3
Ntp257
Rp258
(dp259
g29
V119
p260
sg31
VSeaking
p261
sg33
g34
sg35
V41
p262
sg37
(lp263
Vwater-sport
p264
aVwater-pulse
p265
aVaqua-ring
p266
aVpoison-jab
p267
asg43
g44
sg45
Vwater-veil
p268
sbasg47
I00
sg48
g49
sbag1
(g2
g3
Ntp269
Rp270
(dp271
g7
VSpr DP Swimmer M.png
p272
sg9
VSwimmer
p273
sg11
VWesley
p274
sg13
V656
p275
sg15
g57
sg17
g18
sg19
g20
sg21
g22
sg23
(lp276
g1
(g25
g3
Ntp277
Rp278
(dp279
g29
V418
p280
sg31
VBuizel
p281
sg33
g97
sg35
V41
p282
sg37
(lp283
Vpursuit
p284
aVwhirlpool
p285
aVwater-sport
p286
aVaqua-jet
p287
asg43
g44
sg45
Vswift-swim
p288
sbag1
(g25
g3
Ntp289
Rp290
(dp291
g29
V073
p292
sg31
VTentacruel
p293
sg33
g97
sg35
V41
p294
sg37
(lp295
Vwater-pulse
p296
aVwring-out
p297
aVtoxic-spikes
p298
aVpoison-jab
p299
asg43
g44
sg45
Vclear-body
p300
sbasg47
I00
sg48
g49
sbag1
(g2
g3
Ntp301
Rp302
(dp303
g7
VSpr DP Sailor.png
p304
sg9
VSailor
p305
sg11
VZachariah
p306
sg13
V1408
p307
sg15
g90
sg17
g18
sg19
g20
sg21
g22
sg23
(lp308
g1
(g25
g3
Ntp309
Rp310
(dp311
g29
V279
p312
sg31
VPelipper
p313
sg33
g97
sg35
V38
p314
sg37
(lp315
Vroost
p316
aVtailwind
p317
aVpayback
p318
aVfling
p319
asg43
g44
sg45
Vkeen-eye
p320
sbag1
(g25
g3
Ntp321
Rp322
(dp323
g29
V067
p324
sg31
VMachoke
p325
sg33
g97
sg35
V38
p326
sg37
(lp327
Vvital-throw
p328
aVcross-chop
p329
aVrevenge
p330
aVwake-up-slap
p331
asg43
g44
sg45
Vguts
p332
sbag1
(g25
g3
Ntp333
Rp334
(dp335
g29
V423
p336
sg31
VGastrodon
p337
sg33
g97
sg35
V44
p338
sg37
(lp339
Vmuddy-water
p340
aVwater-pulse
p341
ag341
aVmud-bomb
p342
asg43
g44
sg45
Vsticky-hold
p343
sbasg47
I00
sg48
g49
sbag1
(g2
g3
Ntp344
Rp345
(dp346
g7
VSpr DP Swimmer F.png
p347
sg9
VSwimmer
p348
sg11
VGabrielle
p349
sg13
V688
p350
sg15
g16
sg17
g18
sg19
g20
sg21
g22
sg23
(lp351
g1
(g25
g3
Ntp352
Rp353
(dp354
g29
V055
p355
sg31
VGolduck
p356
sg33
g34
sg35
V43
p357
sg37
(lp358
Vpsych-up
p359
aVwater-sport
p360
aVwater-pulse
p361
aVzen-headbutt
p362
asg43
g44
sg45
Vdamp
p363
sbasg47
I00
sg48
g49
sbag1
(g2
g3
Ntp364
Rp365
(dp366
g7
VSpr DP Swimmer F.png
p367
sg9
VSwimmer
p368
sg11
VCassandra
p369
sg13
V656
p370
sg15
g57
sg17
g18
sg19
g20
sg21
g22
sg23
(lp371
g1
(g25
g3
Ntp372
Rp373
(dp374
g29
V456
p375
sg31
VFinneon
p376
sg33
g34
sg35
V41
p377
sg37
(lp378
Vwater-pulse
p379
aVu-turn
p380
aVaqua-ring
p381
aVcaptivate
p382
asg43
g44
sg45
Vstorm-drain
p383
sbag1
(g25
g3
Ntp384
Rp385
(dp386
g29
V279
p387
sg31
VPelipper
p388
sg33
g34
sg35
V41
p389
sg37
(lp390
Vroost
p391
aVtailwind
p392
aVpayback
p393
aVfling
p394
asg43
g44
sg45
Vkeen-eye
p395
sbasg47
I00
sg48
g49
sbag1
(g2
g3
Ntp396
Rp397
(dp398
g7
VSpr DP Swimmer M.png
p399
sg9
VSwimmer
p400
sg11
VFrancisco
p401
sg13
V672
p402
sg15
g57
sg17
g18
sg19
g20
sg21
g22
sg23
(lp403
g1
(g25
g3
Ntp404
Rp405
(dp406
g29
V072
p407
sg31
VTentacool
p408
sg33
g97
sg35
V40
p409
sg37
(lp410
Vwater-pulse
p411
aVwring-out
p412
aVtoxic-spikes
p413
aVpoison-jab
p414
asg43
g44
sg45
Vliquid-ooze
p415
sbag1
(g25
g3
Ntp416
Rp417
(dp418
g29
V055
p419
sg31
VGolduck
p420
sg33
g97
sg35
V42
p421
sg37
(lp422
Vpsych-up
p423
aVwater-sport
p424
aVwater-pulse
p425
aVzen-headbutt
p426
asg43
g44
sg45
Vdamp
p427
sbasg47
I00
sg48
g49
sbag1
(g2
g3
Ntp428
Rp429
(dp430
g7
VSpr DP Swimmer M.png
p431
sg9
VSwimmer
p432
sg11
VTroy
p433
sg13
V688
p434
sg15
g16
sg17
g18
sg19
g20
sg21
g22
sg23
(lp435
g1
(g25
g3
Ntp436
Rp437
(dp438
g29
V130
p439
sg31
VGyarados
p440
sg33
g97
sg35
V43
p441
sg37
(lp442
Vrain-dance
p443
aVdragon-dance
p444
aVaqua-tail
p445
aVice-fang
p446
asg43
g44
sg45
Vintimidate
p447
sbasg47
I00
sg48
g49
sba.