(lp0
ccopy_reg
_reconstructor
p1
(c__main__
Trainer
p2
c__builtin__
object
p3
Ntp4
Rp5
(dp6
VtSprite
p7
VSpr DP Beauty.png
p8
sVtClass
p9
VBeauty
p10
sVtName
p11
VCyndy
p12
sVtMoney
p13
V1288
p14
sVtPokeCount
p15
V1
p16
sVtLocation
p17
Vwiki/Sinnoh_Route_213
p18
sVtRegion
p19
VSinnoh
p20
sVtGame
p21
VDP
p22
sVtPokes
p23
(lp24
g1
(c__main__
FinishedPokemon
p25
g3
Ntp26
Rp27
(dp28
VpDexNo
p29
V431
p30
sVpSpecies
p31
VGlameow
p32
sVpGender
p33
VF
p34
sVpLevel
p35
V23
p36
sVpMoves
p37
(lp38
Vfake-out
p39
aVassist
p40
aVsucker-punch
p41
aVcaptivate
p42
asVpHold
p43
V
p44
sVpAbility
p45
Vlimber
p46
sbasVbossFlag
p47
I00
sVtLongGame
p48
Vdiamond-pearl
p49
sbag1
(g2
g3
Ntp50
Rp51
(dp52
g7
VSpr DP Fisherman.png
p53
sg9
VFisherman
p54
sg11
VKenneth
p55
sg13
V704
p56
sg15
V3
p57
sg17
g18
sg19
g20
sg21
g22
sg23
(lp58
g1
(g25
g3
Ntp59
Rp60
(dp61
g29
V129
p62
sg31
VMagikarp
p63
sg33
VM
p64
sg35
V19
p65
sg37
(lp66
Vtackle
p67
aVsplash
p68
aVflail
p69
asg43
g44
sg45
Vswift-swim
p70
sbag1
(g25
g3
Ntp71
Rp72
(dp73
g29
V223
p74
sg31
VRemoraid
p75
sg33
g64
sg35
V19
p76
sg37
(lp77
Vlock-on
p78
aVsignal-beam
p79
aVbullet-seed
p80
aVwater-pulse
p81
asg43
g44
sg45
Vhustle
p82
sbag1
(g25
g3
Ntp83
Rp84
(dp85
g29
V130
p86
sg31
VGyarados
p87
sg33
g64
sg35
V22
p88
sg37
(lp89
Vrain-dance
p90
aVdragon-dance
p91
aVaqua-tail
p92
aVice-fang
p93
asg43
g44
sg45
Vintimidate
p94
sbasg47
I00
sg48
g49
sbag1
(g2
g3
Ntp95
Rp96
(dp97
g7
VSpr DP Tuber F.png
p98
sg9
VTuber
p99
sg11
VChelsea
p100
sg13
V92
p101
sg15
g16
sg17
g18
sg19
g20
sg21
g22
sg23
(lp102
g1
(g25
g3
Ntp103
Rp104
(dp105
g29
V400
p106
sg31
VBibarel
p107
sg33
g34
sg35
V23
p108
sg37
(lp109
Vsuper-fang
p110
aVrollout
p111
aVsuperpower
p112
aVyawn
p113
asg43
g44
sg45
Vunaware
p114
sbasg47
I00
sg48
g49
sbag1
(g2
g3
Ntp115
Rp116
(dp117
g7
VSpr DP Tuber M.png
p118
sg9
VTuber
p119
sg11
VJared
p120
sg13
V80
p121
sg15
g57
sg17
g18
sg19
g20
sg21
g22
sg23
(lp122
g1
(g25
g3
Ntp123
Rp124
(dp125
g29
V422
p126
sg31
VShellos
p127
sg33
g64
sg35
V19
p128
sg37
(lp129
Vmud-sport
p130
aVmuddy-water
p131
aVwater-pulse
p132
aVmud-bomb
p133
asg43
g44
sg45
Vsticky-hold
p134
sbag1
(g25
g3
Ntp135
Rp136
(dp137
g29
V422
p138
sg31
VShellos
p139
sg33
g64
sg35
V21
p140
sg37
(lp141
Vmud-sport
p142
aVmuddy-water
p143
aVwater-pulse
p144
aVmud-bomb
p145
asg43
g44
sg45
Vsticky-hold
p146
sbag1
(g25
g3
Ntp147
Rp148
(dp149
g29
V422
p150
sg31
VShellos
p151
sg33
g64
sg35
V20
p152
sg37
(lp153
Vmud-sport
p154
aVmuddy-water
p155
aVwater-pulse
p156
aVmud-bomb
p157
asg43
g44
sg45
Vstorm-drain
p158
sbasg47
I00
sg48
g49
sbag1
(g2
g3
Ntp159
Rp160
(dp161
g7
VSpr DP Swimmer F.png
p162
sg9
VSwimmer
p163
sg11
VHaley
p164
sg13
V496
p165
sg15
V2
p166
sg17
g18
sg19
g20
sg21
g22
sg23
(lp167
g1
(g25
g3
Ntp168
Rp169
(dp170
g29
V183
p171
sg31
VMarill
p172
sg33
g34
sg35
V31
p173
sg37
(lp174
Vrollout
p175
aVrain-dance
p176
aVaqua-ring
p177
aVaqua-tail
p178
asg43
g44
sg45
Vthick-fat
p179
sbag1
(g25
g3
Ntp180
Rp181
(dp182
g29
V184
p183
sg31
VAzumarill
p184
sg33
g34
sg35
V31
p185
sg37
(lp186
Vrollout
p187
aVrain-dance
p188
aVaqua-ring
p189
aVaqua-tail
p190
asg43
g44
sg45
Vhuge-power
p191
sbasg47
I00
sg48
g49
sbag1
(g2
g3
Ntp192
Rp193
(dp194
g7
VSpr DP Swimmer M.png
p195
sg9
VSwimmer
p196
sg11
VSheltin
p197
sg13
V496
p198
sg15
g57
sg17
g18
sg19
g20
sg21
g22
sg23
(lp199
g1
(g25
g3
Ntp200
Rp201
(dp202
g29
V130
p203
sg31
VGyarados
p204
sg33
g64
sg35
V30
p205
sg37
(lp206
Vrain-dance
p207
aVdragon-dance
p208
aVaqua-tail
p209
aVice-fang
p210
asg43
g44
sg45
Vintimidate
p211
sbag1
(g25
g3
Ntp212
Rp213
(dp214
g29
V130
p215
sg31
VGyarados
p216
sg33
g64
sg35
V29
p217
sg37
(lp218
Vrain-dance
p219
aVdragon-dance
p220
aVaqua-tail
p221
aVice-fang
p222
asg43
g44
sg45
Vintimidate
p223
sbag1
(g25
g3
Ntp224
Rp225
(dp226
g29
V130
p227
sg31
VGyarados
p228
sg33
g64
sg35
V31
p229
sg37
(lp230
Vrain-dance
p231
aVdragon-dance
p232
aVaqua-tail
p233
aVice-fang
p234
asg43
g44
sg45
Vintimidate
p235
sbasg47
I00
sg48
g49
sbag1
(g2
g3
Ntp236
Rp237
(dp238
g7
VSpr DP Sailor.png
p239
sg9
VSailor
p240
sg11
VPaul
p241
sg13
V992
p242
sg15
g166
sg17
g18
sg19
g20
sg21
g22
sg23
(lp243
g1
(g25
g3
Ntp244
Rp245
(dp246
g29
V130
p247
sg31
VGyarados
p248
sg33
g64
sg35
V31
p249
sg37
(lp250
Vrain-dance
p251
aVdragon-dance
p252
aVaqua-tail
p253
aVice-fang
p254
asg43
g44
sg45
Vintimidate
p255
sbag1
(g25
g3
Ntp256
Rp257
(dp258
g29
V066
p259
sg31
VMachop
p260
sg33
g64
sg35
V31
p261
sg37
(lp262
Vvital-throw
p263
aVcross-chop
p264
aVrevenge
p265
aVwake-up-slap
p266
asg43
g44
sg45
Vno-guard
p267
sbasg47
I00
sg48
g49
sbag1
(g2
g3
Ntp268
Rp269
(dp270
g7
VSpr DP Swimmer M.png
p271
sg9
VSwimmer
p272
sg11
VEvan
p273
sg13
V512<br><small>Potential [[Double Battle]] with Mary</small>
p274
sg15
g166
sg17
g18
sg19
g20
sg21
g22
sg23
(lp275
g1
(g25
g3
Ntp276
Rp277
(dp278
g29
V055
p279
sg31
VGolduck
p280
sg33
g64
sg35
V30
p281
sg37
(lp282
Vpsych-up
p283
aVwater-sport
p284
aVwater-pulse
p285
aVzen-headbutt
p286
asg43
g44
sg45
Vdamp
p287
sbag1
(g25
g3
Ntp288
Rp289
(dp290
g29
V055
p291
sg31
VGolduck
p292
sg33
g64
sg35
V32
p293
sg37
(lp294
Vpsych-up
p295
aVwater-sport
p296
aVwater-pulse
p297
aVzen-headbutt
p298
asg43
g44
sg45
Vcloud-nine
p299
sbasg47
I00
sg48
g49
sbag1
(g2
g3
Ntp300
Rp301
(dp302
g7
VSpr DP Swimmer F.png
p303
sg9
VSwimmer
p304
sg11
VMary
p305
sg13
V480<br><small>Potential [[Double Battle]] with Evan</small>
p306
sg15
g166
sg17
g18
sg19
g20
sg21
g22
sg23
(lp307
g1
(g25
g3
Ntp308
Rp309
(dp310
g29
V183
p311
sg31
VMarill
p312
sg33
g34
sg35
V32
p313
sg37
(lp314
Vrollout
p315
aVrain-dance
p316
aVaqua-ring
p317
aVaqua-tail
p318
asg43
g44
sg45
Vhuge-power
p319
sbag1
(g25
g3
Ntp320
Rp321
(dp322
g29
V279
p323
sg31
VPelipper
p324
sg33
g34
sg35
V30
p325
sg37
(lp326
Vroost
p327
aVtailwind
p328
aVpayback
p329
aVfling
p330
asg43
g44
sg45
Vdrizzle
p331
sbasg47
I00
sg48
g49
sba.