(lp0
ccopy_reg
_reconstructor
p1
(c__main__
Trainer
p2
c__builtin__
object
p3
Ntp4
Rp5
(dp6
VtSprite
p7
VSpr DP Swimmer F.png
p8
sVtClass
p9
VSwimmer
p10
sVtName
p11
VJessica
p12
sVtMoney
p13
V448
p14
sVtPokeCount
p15
V4
p16
sVtLocation
p17
Vwiki/Sinnoh_Route_220
p18
sVtRegion
p19
VSinnoh
p20
sVtGame
p21
VDP
p22
sVtPokes
p23
(lp24
g1
(c__main__
FinishedPokemon
p25
g3
Ntp26
Rp27
(dp28
VpDexNo
p29
V118
p30
sVpSpecies
p31
VGoldeen
p32
sVpGender
p33
VF
p34
sVpLevel
p35
V28
p36
sVpMoves
p37
(lp38
Vmegahorn
p39
aVwater-sport
p40
aVwater-pulse
p41
aVaqua-ring
p42
asVpHold
p43
V
p44
sVpAbility
p45
Vswift-swim
p46
sbag1
(g25
g3
Ntp47
Rp48
(dp49
g29
V118
p50
sg31
VGoldeen
p51
sg33
g34
sg35
V28
p52
sg37
(lp53
Vmegahorn
p54
aVwater-sport
p55
aVwater-pulse
p56
aVaqua-ring
p57
asg43
g44
sg45
Vwater-veil
p58
sbag1
(g25
g3
Ntp59
Rp60
(dp61
g29
V118
p62
sg31
VGoldeen
p63
sg33
g34
sg35
V28
p64
sg37
(lp65
Vmegahorn
p66
aVwater-sport
p67
aVwater-pulse
p68
aVaqua-ring
p69
asg43
g44
sg45
Vswift-swim
p70
sbag1
(g25
g3
Ntp71
Rp72
(dp73
g29
V118
p74
sg31
VGoldeen
p75
sg33
g34
sg35
V28
p76
sg37
(lp77
Vmegahorn
p78
aVwater-sport
p79
aVwater-pulse
p80
aVaqua-ring
p81
asg43
g44
sg45
Vwater-veil
p82
sbasVbossFlag
p83
I00
sVtLongGame
p84
Vdiamond-pearl
p85
sbag1
(g2
g3
Ntp86
Rp87
(dp88
g7
VSpr DP Swimmer F.png
p89
sg9
VSwimmer
p90
sg11
VErica
p91
sg13
V464
p92
sg15
V2
p93
sg17
g18
sg19
g20
sg21
g22
sg23
(lp94
g1
(g25
g3
Ntp95
Rp96
(dp97
g29
V223
p98
sg31
VRemoraid
p99
sg33
g34
sg35
V29
p100
sg37
(lp101
Vlock-on
p102
aVsignal-beam
p103
aVbullet-seed
p104
aVwater-pulse
p105
asg43
g44
sg45
Vhustle
p106
sbag1
(g25
g3
Ntp107
Rp108
(dp109
g29
V054
p110
sg31
VPsyduck
p111
sg33
g34
sg35
V29
p112
sg37
(lp113
Vpsych-up
p114
aVwater-sport
p115
aVwater-pulse
p116
aVzen-headbutt
p117
asg43
g44
sg45
Vdamp
p118
sbasg83
I00
sg84
g85
sbag1
(g2
g3
Ntp119
Rp120
(dp121
g7
VSpr DP Swimmer M.png
p122
sg9
VSwimmer
p123
sg11
VAdrian
p124
sg13
V464
p125
sg15
V3
p126
sg17
g18
sg19
g20
sg21
g22
sg23
(lp127
g1
(g25
g3
Ntp128
Rp129
(dp130
g29
V458
p131
sg31
VMantyke
p132
sg33
VM
p133
sg35
V26
p134
sg37
(lp135
Vbubble
p136
aVbounce
p137
aVwater-pulse
p138
aVaqua-ring
p139
asg43
g44
sg45
Vswift-swim
p140
sbag1
(g25
g3
Ntp141
Rp142
(dp143
g29
V223
p144
sg31
VRemoraid
p145
sg33
g133
sg35
V29
p146
sg37
(lp147
Vlock-on
p148
aVsignal-beam
p149
aVbullet-seed
p150
aVwater-pulse
p151
asg43
g44
sg45
Vhustle
p152
sbag1
(g25
g3
Ntp153
Rp154
(dp155
g29
V072
p156
sg31
VTentacool
p157
sg33
g133
sg35
V29
p158
sg37
(lp159
Vwater-pulse
p160
aVwring-out
p161
aVtoxic-spikes
p162
aVpoison-jab
p163
asg43
g44
sg45
Vclear-body
p164
sbasg83
I00
sg84
g85
sbag1
(g2
g3
Ntp165
Rp166
(dp167
g7
VSpr DP Swimmer M.png
p168
sg9
VSwimmer
p169
sg11
VVincent
p170
sg13
V464
p171
sg15
g93
sg17
g18
sg19
g20
sg21
g22
sg23
(lp172
g1
(g25
g3
Ntp173
Rp174
(dp175
g29
V279
p176
sg31
VPelipper
p177
sg33
g133
sg35
V29
p178
sg37
(lp179
Vroost
p180
aVtailwind
p181
aVpayback
p182
aVfling
p183
asg43
g44
sg45
Vkeen-eye
p184
sbag1
(g25
g3
Ntp185
Rp186
(dp187
g29
V340
p188
sg31
VWhiscash
p189
sg33
g133
sg35
V29
p190
sg37
(lp191
Vwater-pulse
p192
aVaqua-tail
p193
aVmud-bomb
p194
aVzen-headbutt
p195
asg43
g44
sg45
Voblivious
p196
sbasg83
I00
sg84
g85
sbag1
(g2
g3
Ntp197
Rp198
(dp199
g7
VSpr DP Swimmer F.png
p200
sg9
VSwimmer
p201
sg11
VClaire
p202
sg13
V496<br><small>Potential [[Double Battle]] with Erik</small>
p203
sg15
V1
p204
sg17
g18
sg19
g20
sg21
g22
sg23
(lp205
g1
(g25
g3
Ntp206
Rp207
(dp208
g29
V418
p209
sg31
VBuizel
p210
sg33
g34
sg35
V31
p211
sg37
(lp212
Vpursuit
p213
aVwhirlpool
p214
aVwater-sport
p215
aVaqua-jet
p216
asg43
g44
sg45
Vswift-swim
p217
sbasg83
I00
sg84
g85
sbag1
(g2
g3
Ntp218
Rp219
(dp220
g7
VSpr DP Swimmer M.png
p221
sg9
VSwimmer
p222
sg11
VErik
p223
sg13
V496<br><small>Potential [[Double Battle]] with Claire</small>
p224
sg15
g204
sg17
g18
sg19
g20
sg21
g22
sg23
(lp225
g1
(g25
g3
Ntp226
Rp227
(dp228
g29
V130
p229
sg31
VGyarados
p230
sg33
g133
sg35
V31
p231
sg37
(lp232
Vrain-dance
p233
aVdragon-dance
p234
aVaqua-tail
p235
aVice-fang
p236
asg43
g44
sg45
Vintimidate
p237
sbasg83
I00
sg84
g85
sbag1
(g2
g3
Ntp238
Rp239
(dp240
g7
VSpr DP Swimmer F.png
p241
sg9
VSwimmer
p242
sg11
V[[Lizabeth|Katelyn]]
p243
sg13
V448
p244
sg15
g126
sg17
g18
sg19
g20
sg21
g22
sg23
(lp245
g1
(g25
g3
Ntp246
Rp247
(dp248
g29
V418
p249
sg31
VBuizel
p250
sg33
g34
sg35
V28
p251
sg37
(lp252
Vpursuit
p253
aVwhirlpool
p254
aVwater-sport
p255
aVaqua-jet
p256
asg43
g44
sg45
Vswift-swim
p257
sbag1
(g25
g3
Ntp258
Rp259
(dp260
g29
V308
p261
sg31
VMedicham
p262
sg33
g34
sg35
V28
p263
sg37
(lp264
Vcalm-mind
p265
aVfeint
p266
aVpower-trick
p267
aVforce-palm
p268
asg43
g44
sg45
Vpure-power
p269
sbag1
(g25
g3
Ntp270
Rp271
(dp272
g29
V119
p273
sg31
VSeaking
p274
sg33
g34
sg35
V28
p275
sg37
(lp276
Vwater-sport
p277
aVwater-pulse
p278
aVaqua-ring
p279
aVpoison-jab
p280
asg43
g44
sg45
Vswift-swim
p281
sbasg83
I00
sg84
g85
sbag1
(g2
g3
Ntp282
Rp283
(dp284
g7
VSpr DP Swimmer F.png
p285
sg9
VSwimmer
p286
sg11
VJessica
p287
sg13
V528
p288
sg15
g16
sg17
g18
sg19
g20
sg21
g22
sg23
(lp289
g1
(g25
g3
Ntp290
Rp291
(dp292
g29
V118
p293
sg31
VGoldeen
p294
sg33
g34
sg35
V30
p295
sg37
(lp296
Vmegahorn
p297
aVwater-sport
p298
aVwater-pulse
p299
aVaqua-ring
p300
asg43
g44
sg45
Vswift-swim
p301
sbag1
(g25
g3
Ntp302
Rp303
(dp304
g29
V118
p305
sg31
VGoldeen
p306
sg33
g34
sg35
V30
p307
sg37
(lp308
Vmegahorn
p309
aVwater-sport
p310
aVwater-pulse
p311
aVaqua-ring
p312
asg43
g44
sg45
Vswift-swim
p313
sbag1
(g25
g3
Ntp314
Rp315
(dp316
g29
V118
p317
sg31
VGoldeen
p318
sg33
g34
sg35
V31
p319
sg37
(lp320
Vmegahorn
p321
aVwater-sport
p322
aVwater-pulse
p323
aVaqua-ring
p324
asg43
g44
sg45
Vwater-veil
p325
sbag1
(g25
g3
Ntp326
Rp327
(dp328
g29
V119
p329
sg31
VSeaking
p330
sg33
g34
sg35
V33
p331
sg37
(lp332
Vwater-sport
p333
aVwater-pulse
p334
aVaqua-ring
p335
aVpoison-jab
p336
asg43
g44
sg45
Vswift-swim
p337
sbasg83
I00
sg84
g85
sbag1
(g2
g3
Ntp338
Rp339
(dp340
g7
VSpr DP Swimmer F.png
p341
sg9
VSwimmer
p342
sg11
VErica
p343
sg13
V560
p344
sg15
g204
sg17
g18
sg19
g20
sg21
g22
sg23
(lp345
g1
(g25
g3
Ntp346
Rp347
(dp348
g29
V456
p349
sg31
VFinneon
p350
sg33
g34
sg35
V35
p351
sg37
(lp352
Vwater-pulse
p353
aVu-turn
p354
aVaqua-ring
p355
aVcaptivate
p356
asg43
g44
sg45
Vstorm-drain
p357
sbasg83
I00
sg84
g85
sbag1
(g2
g3
Ntp358
Rp359
(dp360
g7
VSpr DP Swimmer M.png
p361
sg9
VSwimmer
p362
sg11
VAdrian
p363
sg13
V544
p364
sg15
g126
sg17
g18
sg19
g20
sg21
g22
sg23
(lp365
g1
(g25
g3
Ntp366
Rp367
(dp368
g29
V223
p369
sg31
VRemoraid
p370
sg33
g133
sg35
V32
p371
sg37
(lp372
Vlock-on
p373
aVsignal-beam
p374
aVbullet-seed
p375
aVwater-pulse
p376
asg43
g44
sg45
Vsniper
p377
sbag1
(g25
g3
Ntp378
Rp379
(dp380
g29
V224
p381
sg31
VOctillery
p382
sg33
g133
sg35
V34
p383
sg37
(lp384
Vbullet-seed
p385
aVrock-blast
p386
aVwring-out
p387
aVgunk-shot
p388
asg43
g44
sg45
Vsniper
p389
sbag1
(g25
g3
Ntp390
Rp391
(dp392
g29
V072
p393
sg31
VTentacool
p394
sg33
g133
sg35
V30
p395
sg37
(lp396
Vwater-pulse
p397
aVwring-out
p398
aVtoxic-spikes
p399
aVpoison-jab
p400
asg43
g44
sg45
Vliquid-ooze
p401
sbasg83
I00
sg84
g85
sbag1
(g2
g3
Ntp402
Rp403
(dp404
g7
VSpr DP Swimmer M.png
p405
sg9
VSwimmer
p406
sg11
VVincent
p407
sg13
V528
p408
sg15
g93
sg17
g18
sg19
g20
sg21
g22
sg23
(lp409
g1
(g25
g3
Ntp410
Rp411
(dp412
g29
V279
p413
sg31
VPelipper
p414
sg33
g133
sg35
V33
p415
sg37
(lp416
Vroost
p417
aVtailwind
p418
aVpayback
p419
aVfling
p420
asg43
g44
sg45
Vdrizzle
p421
sbag1
(g25
g3
Ntp422
Rp423
(dp424
g29
V423
p425
sg31
VGastrodon
p426
sg33
g133
sg35
V33
p427
sg37
(lp428
Vmuddy-water
p429
aVwater-pulse
p430
ag430
aVmud-bomb
p431
asg43
g44
sg45
Vstorm-drain
p432
sbasg83
I00
sg84
g85
sbag1
(g2
g3
Ntp433
Rp434
(dp435
g7
VSpr DP Swimmer F.png
p436
sg9
VSwimmer
p437
sg11
VClaire
p438
sg13
V560<br><small>Potential [[Double Battle]] with Erik</small>
p439
sg15
g204
sg17
g18
sg19
g20
sg21
g22
sg23
(lp440
g1
(g25
g3
Ntp441
Rp442
(dp443
g29
V419
p444
sg31
VFloatzel
p445
sg33
g34
sg35
V35
p446
sg37
(lp447
Vwhirlpool
p448
aVwater-sport
p449
aVice-fang
p450
aVaqua-jet
p451
asg43
g44
sg45
Vswift-swim
p452
sbasg83
I00
sg84
g85
sbag1
(g2
g3
Ntp453
Rp454
(dp455
g7
VSpr DP Swimmer M.png
p456
sg9
VSwimmer
p457
sg11
VErik
p458
sg13
V560<br><small>Potential [[Double Battle]] with Claire</small>
p459
sg15
g204
sg17
g18
sg19
g20
sg21
g22
sg23
(lp460
g1
(g25
g3
Ntp461
Rp462
(dp463
g29
V073
p464
sg31
VTentacruel
p465
sg33
g133
sg35
V35
p466
sg37
(lp467
Vwater-pulse
p468
aVwring-out
p469
aVtoxic-spikes
p470
aVpoison-jab
p471
asg43
g44
sg45
Vclear-body
p472
sbasg83
I00
sg84
g85
sbag1
(g2
g3
Ntp473
Rp474
(dp475
g7
VSpr DP Swimmer F.png
p476
sg9
VSwimmer
p477
sg11
V[[Lizabeth|Katelyn]]
p478
sg13
V512
p479
sg15
g126
sg17
g18
sg19
g20
sg21
g22
sg23
(lp480
g1
(g25
g3
Ntp481
Rp482
(dp483
g29
V418
p484
sg31
VBuizel
p485
sg33
g34
sg35
V32
p486
sg37
(lp487
Vpursuit
p488
aVwhirlpool
p489
aVwater-sport
p490
aVaqua-jet
p491
asg43
g44
sg45
Vswift-swim
p492
sbag1
(g25
g3
Ntp493
Rp494
(dp495
g29
V308
p496
sg31
VMedicham
p497
sg33
g34
sg35
V32
p498
sg37
(lp499
Vcalm-mind
p500
aVfeint
p501
aVpower-trick
p502
aVforce-palm
p503
asg43
g44
sg45
Vpure-power
p504
sbag1
(g25
g3
Ntp505
Rp506
(dp507
g29
V119
p508
sg31
VSeaking
p509
sg33
g34
sg35
V32
p510
sg37
(lp511
Vwater-sport
p512
aVwater-pulse
p513
aVaqua-ring
p514
aVpoison-jab
p515
asg43
g44
sg45
Vwater-veil
p516
sbasg83
I00
sg84
g85
sba.