(lp0
ccopy_reg
_reconstructor
p1
(c__main__
Trainer
p2
c__builtin__
object
p3
Ntp4
Rp5
(dp6
VtSprite
p7
VSpr DP Collector.png
p8
sVtClass
p9
VCollector
p10
sVtName
p11
VDouglas
p12
sVtMoney
p13
V1536
p14
sVtPokeCount
p15
V3
p16
sVtLocation
p17
Vwiki/Sinnoh_Route_214
p18
sVtRegion
p19
VSinnoh
p20
sVtGame
p21
VDP
p22
sVtPokes
p23
(lp24
g1
(c__main__
FinishedPokemon
p25
g3
Ntp26
Rp27
(dp28
VpDexNo
p29
V315
p30
sVpSpecies
p31
VRoselia
p32
sVpGender
p33
VM
p34
sVpLevel
p35
V20
p36
sVpMoves
p37
(lp38
Varomatherapy
p39
aVgrass-whistle
p40
aVmagical-leaf
p41
aVtoxic-spikes
p42
asVpHold
p43
V
p44
sVpAbility
p45
Vnatural-cure
p46
sbag1
(g25
g3
Ntp47
Rp48
(dp49
g29
V315
p50
sg31
VRoselia
p51
sg33
g34
sg35
V22
p52
sg37
(lp53
Varomatherapy
p54
aVgrass-whistle
p55
aVmagical-leaf
p56
aVtoxic-spikes
p57
asg43
g44
sg45
Vpoison-point
p58
sbag1
(g25
g3
Ntp59
Rp60
(dp61
g29
V315
p62
sg31
VRoselia
p63
sg33
g34
sg35
V24
p64
sg37
(lp65
Varomatherapy
p66
aVgrass-whistle
p67
aVmagical-leaf
p68
aVtoxic-spikes
p69
asg43
g44
sg45
Vpoison-point
p70
sbasVbossFlag
p71
I00
sVtLongGame
p72
Vdiamond-pearl
p73
sbag1
(g2
g3
Ntp74
Rp75
(dp76
g7
VSpr DP Ruin Maniac.png
p77
sg9
VRuin Maniac
p78
sg11
VHunter
p79
sg13
V1248
p80
sg15
V1
p81
sg17
g18
sg19
g20
sg21
g22
sg23
(lp82
g1
(g25
g3
Ntp83
Rp84
(dp85
g29
V410
p86
sg31
VShieldon
p87
sg33
g34
sg35
V26
p88
sg37
(lp89
Vmetal-sound
p90
aViron-defense
p91
aVmetal-burst
p92
aViron-head
p93
asg43
g44
sg45
Vsturdy
p94
sbasg71
I00
sg72
g73
sbag1
(g2
g3
Ntp95
Rp96
(dp97
g7
VSpr DP Collector.png
p98
sg9
VCollector
p99
sg11
VJamal
p100
sg13
V1536
p101
sg15
g16
sg17
g18
sg19
g20
sg21
g22
sg23
(lp102
g1
(g25
g3
Ntp103
Rp104
(dp105
g29
V418
p106
sg31
VBuizel
p107
sg33
g34
sg35
V21
p108
sg37
(lp109
Vpursuit
p110
aVwhirlpool
p111
aVwater-sport
p112
aVaqua-jet
p113
asg43
g44
sg45
Vswift-swim
p114
sbag1
(g25
g3
Ntp115
Rp116
(dp117
g29
V418
p118
sg31
VBuizel
p119
sg33
g34
sg35
V21
p120
sg37
(lp121
Vpursuit
p122
aVwhirlpool
p123
aVwater-sport
p124
aVaqua-jet
p125
asg43
g44
sg45
Vswift-swim
p126
sbag1
(g25
g3
Ntp127
Rp128
(dp129
g29
V418
p130
sg31
VBuizel
p131
sg33
g34
sg35
V24
p132
sg37
(lp133
Vpursuit
p134
aVwhirlpool
p135
aVwater-sport
p136
aVaqua-jet
p137
asg43
g44
sg45
Vswift-swim
p138
sbasg71
I00
sg72
g73
sbag1
(g2
g3
Ntp139
Rp140
(dp141
g7
VSpr DP Ruin Maniac.png
p142
sg9
VRuin Maniac
p143
sg11
VBryan
p144
sg13
V1104
p145
sg15
g16
sg17
g18
sg19
g20
sg21
g22
sg23
(lp146
g1
(g25
g3
Ntp147
Rp148
(dp149
g29
V408
p150
sg31
VCranidos
p151
sg33
g34
sg35
V24
p152
sg37
(lp153
Vancient-power
p154
aVassurance
p155
aVzen-headbutt
p156
aVhead-smash
p157
asg43
g44
sg45
Vmold-breaker
p158
sbag1
(g25
g3
Ntp159
Rp160
(dp161
g29
V074
p162
sg31
VGeodude
p163
sg33
g34
sg35
V22
p164
sg37
(lp165
Vmud-sport
p166
aVrock-blast
p167
aVrock-polish
p168
aVstone-edge
p169
asg43
g44
sg45
Vsturdy
p170
sbag1
(g25
g3
Ntp171
Rp172
(dp173
g29
V436
p174
sg31
VBronzor
p175
sg33
VU
p176
sg35
V23
p177
sg37
(lp178
Viron-defense
p179
aVgyro-ball
p180
aVpayback
p181
aVheal-block
p182
asg43
g44
sg45
Vlevitate
p183
sbasg71
I00
sg72
g73
sbag1
(g2
g3
Ntp184
Rp185
(dp186
g7
VSpr DP Psychic M.png
p187
sg9
VPsychic
p188
sg11
VMitchell
p189
sg13
V736
p190
sg15
V2
p191
sg17
g18
sg19
g20
sg21
g22
sg23
(lp192
g1
(g25
g3
Ntp193
Rp194
(dp195
g29
V093
p196
sg31
VHaunter
p197
sg33
g34
sg35
V23
p198
sg37
(lp199
Vshadow-punch
p200
aVpayback
p201
aVsucker-punch
p202
aVdark-pulse
p203
asg43
g44
sg45
Vlevitate
p204
sbag1
(g25
g3
Ntp205
Rp206
(dp207
g29
V064
p208
sg31
VKadabra
p209
sg33
g34
sg35
V23
p210
sg37
(lp211
Vtrick
p212
aVrole-play
p213
aVmiracle-eye
p214
aVpsycho-cut
p215
asg43
g44
sg45
Vinner-focus
p216
sbasg71
I00
sg72
g73
sbag1
(g2
g3
Ntp217
Rp218
(dp219
g7
VSpr DP Beauty.png
p220
sg9
VBeauty
p221
sg11
VDevon
p222
sg13
V1400
p223
sg15
g81
sg17
g18
sg19
g20
sg21
g22
sg23
(lp224
sg71
I00
sg72
g73
sbag1
(g2
g3
Ntp225
Rp226
(dp227
g7
VSpr DP Collector.png
p228
sg9
VCollector
p229
sg11
VBrady
p230
sg13
V1536
p231
sg15
g16
sg17
g18
sg19
g20
sg21
g22
sg23
(lp232
g1
(g25
g3
Ntp233
Rp234
(dp235
g29
V077
p236
sg31
VPonyta
p237
sg33
g34
sg35
V22
p238
sg37
(lp239
Vagility
p240
aVfire-blast
p241
aVbounce
p242
aVflare-blitz
p243
asg43
g44
sg45
Vrun-away
p244
sbag1
(g25
g3
Ntp245
Rp246
(dp247
g29
V077
p248
sg31
VPonyta
p249
sg33
g34
sg35
V20
p250
sg37
(lp251
Vagility
p252
aVfire-blast
p253
aVbounce
p254
aVflare-blitz
p255
asg43
g44
sg45
Vrun-away
p256
sbag1
(g25
g3
Ntp257
Rp258
(dp259
g29
V077
p260
sg31
VPonyta
p261
sg33
g34
sg35
V24
p262
sg37
(lp263
Vagility
p264
aVfire-blast
p265
aVbounce
p266
aVflare-blitz
p267
asg43
g44
sg45
Vflash-fire
p268
sbasg71
I00
sg72
g73
sbag1
(g2
g3
Ntp269
Rp270
(dp271
g7
VSpr DP PI.png
p272
sg9
VPI
p273
sg11
VCarlos
p274
sg13
V2760
p275
sg15
g16
sg17
g18
sg19
g20
sg21
g22
sg23
(lp276
g1
(g25
g3
Ntp277
Rp278
(dp279
g29
V118
p280
sg31
VGoldeen
p281
sg33
g34
sg35
V23
p282
sg37
(lp283
Vmegahorn
p284
aVwater-sport
p285
aVwater-pulse
p286
aVaqua-ring
p287
asg43
g44
sg45
Vwater-veil
p288
sbag1
(g25
g3
Ntp289
Rp290
(dp291
g29
V118
p292
sg31
VGoldeen
p293
sg33
g34
sg35
V23
p294
sg37
(lp295
Vmegahorn
p296
aVwater-sport
p297
aVwater-pulse
p298
aVaqua-ring
p299
asg43
g44
sg45
Vswift-swim
p300
sbag1
(g25
g3
Ntp301
Rp302
(dp303
g29
V118
p304
sg31
VGoldeen
p305
sg33
g34
sg35
V23
p306
sg37
(lp307
Vmegahorn
p308
aVwater-sport
p309
aVwater-pulse
p310
aVaqua-ring
p311
asg43
g44
sg45
Vwater-veil
p312
sbasg71
I00
sg72
g73
sbag1
(g2
g3
Ntp313
Rp314
(dp315
g7
VSpr DP Psychic F.png
p316
sg9
VPsychic
p317
sg11
VAbigail
p318
sg13
V768
p319
sg15
g16
sg17
g18
sg19
g20
sg21
g22
sg23
(lp320
g1
(g25
g3
Ntp321
Rp322
(dp323
g29
V092
p324
sg31
VGastly
p325
sg33
VF
p326
sg35
V22
p327
sg37
(lp328
Vshadow-ball
p329
aVpayback
p330
aVsucker-punch
p331
aVdark-pulse
p332
asg43
g44
sg45
Vlevitate
p333
sbag1
(g25
g3
Ntp334
Rp335
(dp336
g29
V200
p337
sg31
VMisdreavus
p338
sg33
g326
sg35
V23
p339
sg37
(lp340
Vshadow-ball
p341
aVgrudge
p342
aVastonish
p343
aVpayback
p344
asg43
g44
sg45
Vlevitate
p345
sbag1
(g25
g3
Ntp346
Rp347
(dp348
g29
V064
p349
sg31
VKadabra
p350
sg33
g34
sg35
V24
p351
sg37
(lp352
Vtrick
p353
aVrole-play
p354
aVmiracle-eye
p355
aVpsycho-cut
p356
asg43
g44
sg45
Vsynchronize
p357
sbasg71
I00
sg72
g73
sba.