(lp0
ccopy_reg
_reconstructor
p1
(c__main__
Trainer
p2
c__builtin__
object
p3
Ntp4
Rp5
(dp6
VtSprite
p7
VSpr DP Ruin Maniac.png
p8
sVtClass
p9
VRuin Maniac
p10
sVtName
p11
VCalvin
p12
sVtMoney
p13
V2208
p14
sVtPokeCount
p15
V2
p16
sVtLocation
p17
Vwiki/Sinnoh_Route_215
p18
sVtRegion
p19
VSinnoh
p20
sVtGame
p21
VDP
p22
sVtPokes
p23
(lp24
g1
(c__main__
FinishedPokemon
p25
g3
Ntp26
Rp27
(dp28
VpDexNo
p29
V436
p30
sVpSpecies
p31
VBronzor
p32
sVpGender
p33
VU
p34
sVpLevel
p35
V21
p36
sVpMoves
p37
(lp38
Viron-defense
p39
aVgyro-ball
p40
aVpayback
p41
aVheal-block
p42
asVpHold
p43
V
p44
sVpAbility
p45
Vlevitate
p46
sbag1
(g25
g3
Ntp47
Rp48
(dp49
g29
V410
p50
sg31
VShieldon
p51
sg33
VM
p52
sg35
V23
p53
sg37
(lp54
Vmetal-sound
p55
aViron-defense
p56
aVmetal-burst
p57
aViron-head
p58
asg43
g44
sg45
Vsturdy
p59
sbasVbossFlag
p60
I00
sVtLongGame
p61
Vdiamond-pearl
p62
sbag1
(g2
g3
Ntp63
Rp64
(dp65
g7
VSpr DP Jogger.png
p66
sg9
VJogger
p67
sg11
VCraig
p68
sg13
V640<br><small>[[Time#Times of day 2|Morning]] only</small>
p69
sg15
V3
p70
sg17
g18
sg19
g20
sg21
g22
sg23
(lp71
g1
(g25
g3
Ntp72
Rp73
(dp74
g29
V404
p75
sg31
VLuxio
p76
sg33
g52
sg35
V19
p77
sg37
(lp78
Vcrunch
p79
aVcharge
p80
aVthunder-fang
p81
aVdischarge
p82
asg43
g44
sg45
Vintimidate
p83
sbag1
(g25
g3
Ntp84
Rp85
(dp86
g29
V397
p87
sg31
VStaravia
p88
sg33
g52
sg35
V21
p89
sg37
(lp90
Vdouble-team
p91
aVendeavor
p92
aVaerial-ace
p93
aVbrave-bird
p94
asg43
g44
sg45
Vintimidate
p95
sbag1
(g25
g3
Ntp96
Rp97
(dp98
g29
V077
p99
sg31
VPonyta
p100
sg33
g52
sg35
V20
p101
sg37
(lp102
Vagility
p103
aVfire-blast
p104
aVbounce
p105
aVflare-blitz
p106
asg43
g44
sg45
Vrun-away
p107
sbasg60
I00
sg61
g62
sbag1
(g2
g3
Ntp108
Rp109
(dp110
g7
VSpr DP Black Belt.png
p111
sg9
VBlack Belt
p112
sg11
VDerek
p113
sg13
V600
p114
sg15
V1
p115
sg17
g18
sg19
g20
sg21
g22
sg23
(lp116
g1
(g25
g3
Ntp117
Rp118
(dp119
g29
V453
p120
sg31
VCroagunk
p121
sg33
g52
sg35
V25
p122
sg37
(lp123
Vsucker-punch
p124
aVpoison-jab
p125
aVnasty-plot
p126
aVmud-bomb
p127
asg43
g44
sg45
Vdry-skin
p128
sbasg60
I00
sg61
g62
sbag1
(g2
g3
Ntp129
Rp130
(dp131
g7
VSpr DP Black Belt.png
p132
sg9
VBlack Belt
p133
sg11
VGregory
p134
sg13
V504<br><small>Requires {{m|Cut}}</small>
p135
sg15
g70
sg17
g18
sg19
g20
sg21
g22
sg23
(lp136
g1
(g25
g3
Ntp137
Rp138
(dp139
g29
V307
p140
sg31
VMeditite
p141
sg33
g52
sg35
V23
p142
sg37
(lp143
Vcalm-mind
p144
aVfeint
p145
aVpower-trick
p146
aVforce-palm
p147
asg43
g44
sg45
Vpure-power
p148
sbag1
(g25
g3
Ntp149
Rp150
(dp151
g29
V066
p152
sg31
VMachop
p153
sg33
g52
sg35
V22
p154
sg37
(lp155
Vvital-throw
p156
aVcross-chop
p157
aVrevenge
p158
aVwake-up-slap
p159
asg43
g44
sg45
Vguts
p160
sbag1
(g25
g3
Ntp161
Rp162
(dp163
g29
V307
p164
sg31
VMeditite
p165
sg33
g52
sg35
V21
p166
sg37
(lp167
Vcalm-mind
p168
aVfeint
p169
aVpower-trick
p170
aVforce-palm
p171
asg43
g44
sg45
Vpure-power
p172
sbasg60
I00
sg61
g62
sbag1
(g2
g3
Ntp173
Rp174
(dp175
g7
VSpr DP Black Belt.png
p176
sg9
VBlack Belt
p177
sg11
VNathaniel
p178
sg13
V528
p179
sg15
g70
sg17
g18
sg19
g20
sg21
g22
sg23
(lp180
g1
(g25
g3
Ntp181
Rp182
(dp183
g29
V453
p184
sg31
VCroagunk
p185
sg33
g52
sg35
V21
p186
sg37
(lp187
Vsucker-punch
p188
aVpoison-jab
p189
aVnasty-plot
p190
aVmud-bomb
p191
asg43
g44
sg45
Vanticipation
p192
sbag1
(g25
g3
Ntp193
Rp194
(dp195
g29
V066
p196
sg31
VMachop
p197
sg33
g52
sg35
V22
p198
sg37
(lp199
Vvital-throw
p200
aVcross-chop
p201
aVrevenge
p202
aVwake-up-slap
p203
asg43
g44
sg45
Vguts
p204
sbag1
(g25
g3
Ntp205
Rp206
(dp207
g29
V307
p208
sg31
VMeditite
p209
sg33
g52
sg35
V23
p210
sg37
(lp211
Vcalm-mind
p212
aVfeint
p213
aVpower-trick
p214
aVforce-palm
p215
asg43
g44
sg45
Vpure-power
p216
sbasg60
I00
sg61
g62
sbag1
(g2
g3
Ntp217
Rp218
(dp219
g7
VSpr DP Jogger.png
p220
sg9
VJogger
p221
sg11
VScott
p222
sg13
V736<br><small>[[Time#Times of day 2|Morning]] only</small>
p223
sg15
g115
sg17
g18
sg19
g20
sg21
g22
sg23
(lp224
g1
(g25
g3
Ntp225
Rp226
(dp227
g29
V397
p228
sg31
VStaravia
p229
sg33
g52
sg35
V23
p230
sg37
(lp231
Vdouble-team
p232
aVendeavor
p233
aVaerial-ace
p234
aVbrave-bird
p235
asg43
g44
sg45
Vintimidate
p236
sbasg60
I00
sg61
g62
sbag1
(g2
g3
Ntp237
Rp238
(dp239
g7
VSpr DP Ace Trainer M 1.png
p240
sg9
VAce Trainer
p241
sg11
VDennis
p242
sg13
V1380<br><sup>Potential [[Double Battle]] with Maya</sup>
p243
sg15
g16
sg17
g18
sg19
g20
sg21
g22
sg23
(lp244
g1
(g25
g3
Ntp245
Rp246
(dp247
g29
V391
p248
sg31
VMonferno
p249
sg33
g52
sg35
V23
p250
sg37
(lp251
Vslack-off
p252
aVfeint
p253
aVclose-combat
p254
aVflare-blitz
p255
asg43
g44
sg45
Vblaze
p256
sbag1
(g25
g3
Ntp257
Rp258
(dp259
g29
V130
p260
sg31
VGyarados
p261
sg33
g52
sg35
V23
p262
sg37
(lp263
Vrain-dance
p264
aVdragon-dance
p265
aVaqua-tail
p266
aVice-fang
p267
asg43
g44
sg45
Vintimidate
p268
sbasg60
I00
sg61
g62
sbag1
(g2
g3
Ntp269
Rp270
(dp271
g7
VSpr DP Ace Trainer F 1.png
p272
sg9
VAce Trainer
p273
sg11
VMaya
p274
sg13
V1380<br><sup>Potential [[Double Battle]] with Dennis</sup>
p275
sg15
g16
sg17
g18
sg19
g20
sg21
g22
sg23
(lp276
g1
(g25
g3
Ntp277
Rp278
(dp279
g29
V431
p280
sg31
VGlameow
p281
sg33
VF
p282
sg35
V23
p283
sg37
(lp284
Vfake-out
p285
aVassist
p286
aVsucker-punch
p287
aVcaptivate
p288
asg43
g44
sg45
Vown-tempo
p289
sbag1
(g25
g3
Ntp290
Rp291
(dp292
g29
V064
p293
sg31
VKadabra
p294
sg33
g52
sg35
V23
p295
sg37
(lp296
Vtrick
p297
aVrole-play
p298
aVmiracle-eye
p299
aVpsycho-cut
p300
asg43
g44
sg45
Vinner-focus
p301
sbasg60
I00
sg61
g62
sba.