(lp0
ccopy_reg
_reconstructor
p1
(c__main__
Trainer
p2
c__builtin__
object
p3
Ntp4
Rp5
(dp6
VtSprite
p7
VSpr Pt Barry.png
p8
sVtClass
p9
VPokemon Trainer
p10
sVtName
p11
VBarry (game)
p12
sVtMoney
p13
V500
p14
sVtPokeCount
p15
I1
sVtLocation
p16
Vwiki/Sinnoh_Route_201
p17
sVtRegion
p18
VSinnoh
p19
sVtGame
p20
VPt
p21
sVtPokes
p22
(lp23
g1
(c__main__
FinishedPokemon
p24
g3
Ntp25
Rp26
(dp27
VpDexNo
p28
I390
sVpSpecies
p29
VChimchar
p30
sVpGender
p31
VU
p32
sVpLevel
p33
V5
p34
sVpMoves
p35
(lp36
VScratch
p37
aVLeer
p38
asVpHold
p39
V
p40
sVpAbility
p41
VBlaze
p42
sbasVbossFlag
p43
I01
sVtLongGame
p44
Vplatinum
p45
sbag1
(g2
g3
Ntp46
Rp47
(dp48
g7
VSpr Pt Barry.png
p49
sg9
VPokemon Trainer
p50
sg11
VBarry (game)
p51
sg13
V500
p52
sg15
I1
sg16
g17
sg18
g19
sg20
g21
sg22
(lp53
g1
(g24
g3
Ntp54
Rp55
(dp56
g28
I393
sg29
VPiplup
p57
sg31
g32
sg33
g34
sg35
(lp58
VPound
p59
aVGrowl
p60
asg39
g40
sg41
VTorrent
p61
sbasg43
I01
sg44
g45
sbag1
(g2
g3
Ntp62
Rp63
(dp64
g7
VSpr Pt Barry.png
p65
sg9
VPokemon Trainer
p66
sg11
VBarry (game)
p67
sg13
V500
p68
sg15
I1
sg16
g17
sg18
g19
sg20
g21
sg22
(lp69
g1
(g24
g3
Ntp70
Rp71
(dp72
g28
I387
sg29
VTurtwig
p73
sg31
g32
sg33
g34
sg35
(lp74
VTackle
p75
aVWithdraw
p76
asg39
g40
sg41
VOvergrow
p77
sbasg43
I01
sg44
g45
sba.