(lp0
ccopy_reg
_reconstructor
p1
(c__main__
Trainer
p2
c__builtin__
object
p3
Ntp4
Rp5
(dp6
VtSprite
p7
VSpr DP Swimmer M.png
p8
sVtClass
p9
VSwimmer
p10
sVtName
p11
VDillon
p12
sVtMoney
p13
V512
p14
sVtPokeCount
p15
V2
p16
sVtLocation
p17
Vwiki/Sinnoh_Route_221
p18
sVtRegion
p19
VSinnoh
p20
sVtGame
p21
VDP
p22
sVtPokes
p23
(lp24
g1
(c__main__
FinishedPokemon
p25
g3
Ntp26
Rp27
(dp28
VpDexNo
p29
V422
p30
sVpSpecies
p31
VShellos
p32
sVpGender
p33
VM
p34
sVpLevel
p35
V30
p36
sVpMoves
p37
(lp38
Vmud-sport
p39
aVmuddy-water
p40
aVwater-pulse
p41
aVmud-bomb
p42
asVpHold
p43
V
p44
sVpAbility
p45
Vsticky-hold
p46
sbag1
(g25
g3
Ntp47
Rp48
(dp49
g29
V423
p50
sg31
VGastrodon
p51
sg33
g34
sg35
V32
p52
sg37
(lp53
Vmuddy-water
p54
aVwater-pulse
p55
ag55
aVmud-bomb
p56
asg43
g44
sg45
Vstorm-drain
p57
sbasVbossFlag
p58
I00
sVtLongGame
p59
Vdiamond-pearl
p60
sbag1
(g2
g3
Ntp61
Rp62
(dp63
g7
VSpr DP Swimmer F.png
p64
sg9
VSwimmer
p65
sg11
VVanessa
p66
sg13
V528
p67
sg15
V1
p68
sg17
g18
sg19
g20
sg21
g22
sg23
(lp69
g1
(g25
g3
Ntp70
Rp71
(dp72
g29
V055
p73
sg31
VGolduck
p74
sg33
VF
p75
sg35
V33
p76
sg37
(lp77
Vpsych-up
p78
aVwater-sport
p79
aVwater-pulse
p80
aVzen-headbutt
p81
asg43
g44
sg45
Vdamp
p82
sbasg58
I00
sg59
g60
sbag1
(g2
g3
Ntp83
Rp84
(dp85
g7
VSpr DP Fisherman.png
p86
sg9
VFisherman
p87
sg11
VCory
p88
sg13
V1024
p89
sg15
V3
p90
sg17
g18
sg19
g20
sg21
g22
sg23
(lp91
g1
(g25
g3
Ntp92
Rp93
(dp94
g29
V129
p95
sg31
VMagikarp
p96
sg33
g34
sg35
V28
p97
sg37
(lp98
Vtackle
p99
aVsplash
p100
aVflail
p101
asg43
g44
sg45
Vswift-swim
p102
sbag1
(g25
g3
Ntp103
Rp104
(dp105
g29
V456
p106
sg31
VFinneon
p107
sg33
g34
sg35
V30
p108
sg37
(lp109
Vwater-pulse
p110
aVu-turn
p111
aVaqua-ring
p112
aVcaptivate
p113
asg43
g44
sg45
Vstorm-drain
p114
sbag1
(g25
g3
Ntp115
Rp116
(dp117
g29
V130
p118
sg31
VGyarados
p119
sg33
g34
sg35
V32
p120
sg37
(lp121
Vrain-dance
p122
aVdragon-dance
p123
aVaqua-tail
p124
aVice-fang
p125
asg43
g44
sg45
Vintimidate
p126
sbasg58
I00
sg59
g60
sbag1
(g2
g3
Ntp127
Rp128
(dp129
g7
VSpr DP Ace Trainer F 1.png
p130
sg9
VAce Trainer
p131
sg11
VShannon
p132
sg13
V2040
p133
sg15
g90
sg17
g18
sg19
g20
sg21
g22
sg23
(lp134
g1
(g25
g3
Ntp135
Rp136
(dp137
g29
V421
p138
sg31
VCherrim
p139
sg33
g75
sg35
V30
p140
sg37
(lp141
Vhelping-hand
p142
aVmagical-leaf
p143
aVlucky-chant
p144
aVworry-seed
p145
asg43
g44
sg45
Vflower-gift
p146
sbag1
(g25
g3
Ntp147
Rp148
(dp149
g29
V183
p150
sg31
VMarill
p151
sg33
g75
sg35
V32
p152
sg37
(lp153
Vrollout
p154
aVrain-dance
p155
aVaqua-ring
p156
aVaqua-tail
p157
asg43
g44
sg45
Vthick-fat
p158
sbag1
(g25
g3
Ntp159
Rp160
(dp161
g29
V428
p162
sg31
VLopunny
p163
sg33
g75
sg35
V34
p164
sg37
(lp165
Vmirror-coat
p166
aVmagic-coat
p167
aVbounce
p168
aVhealing-wish
p169
asg43
g44
sg45
Vklutz
p170
sbasg58
I00
sg59
g60
sbag1
(g2
g3
Ntp171
Rp172
(dp173
g7
VSpr DP Ace Trainer M 1.png
p174
sg9
VAce Trainer
p175
sg11
VJake
p176
sg13
V1980
p177
sg15
g16
sg17
g18
sg19
g20
sg21
g22
sg23
(lp178
g1
(g25
g3
Ntp179
Rp180
(dp181
g29
V397
p182
sg31
VStaravia
p183
sg33
g34
sg35
V33
p184
sg37
(lp185
Vdouble-team
p186
aVendeavor
p187
aVaerial-ace
p188
aVbrave-bird
p189
asg43
g44
sg45
Vintimidate
p190
sbag1
(g25
g3
Ntp191
Rp192
(dp193
g29
V203
p194
sg31
VGirafarig
p195
sg33
g34
sg35
V33
p196
sg37
(lp197
Vpower-swap
p198
aVguard-swap
p199
aVzen-headbutt
p200
aVdouble-hit
p201
asg43
g44
sg45
Vearly-bird
p202
sbasg58
I00
sg59
g60
sbag1
(g2
g3
Ntp203
Rp204
(dp205
g7
VSpr DP Collector.png
p206
sg9
VCollector
p207
sg11
VIvan
p208
sg13
V2176
p209
sg15
g90
sg17
g18
sg19
g20
sg21
g22
sg23
(lp210
g1
(g25
g3
Ntp211
Rp212
(dp213
g29
V449
p214
sg31
VHippopotas
p215
sg33
g34
sg35
V28
p216
sg37
(lp217
Vfissure
p218
aVcrunch
p219
aVyawn
p220
aVsand-tomb
p221
asg43
g44
sg45
Vsand-stream
p222
sbag1
(g25
g3
Ntp223
Rp224
(dp225
g29
V449
p226
sg31
VHippopotas
p227
sg33
g34
sg35
V28
p228
sg37
(lp229
Vfissure
p230
aVcrunch
p231
aVyawn
p232
aVsand-tomb
p233
asg43
g44
sg45
Vsand-stream
p234
sbag1
(g25
g3
Ntp235
Rp236
(dp237
g29
V449
p238
sg31
VHippopotas
p239
sg33
g34
sg35
V34
p240
sg37
(lp241
Vfissure
p242
aVcrunch
p243
aVyawn
p244
aVsand-tomb
p245
asg43
g44
sg45
Vsand-stream
p246
sbasg58
I00
sg59
g60
sba.