(lp0
ccopy_reg
_reconstructor
p1
(c__main__
Trainer
p2
c__builtin__
object
p3
Ntp4
Rp5
(dp6
VtSprite
p7
VSpr DP Lass.png
p8
sVtClass
p9
VLass
p10
sVtName
p11
VSarah
p12
sVtMoney
p13
V112
p14
sVtPokeCount
p15
V1
p16
sVtLocation
p17
Vwiki/Sinnoh_Route_204
p18
sVtRegion
p19
VSinnoh
p20
sVtGame
p21
VDP
p22
sVtPokes
p23
(lp24
g1
(c__main__
FinishedPokemon
p25
g3
Ntp26
Rp27
(dp28
VpDexNo
p29
V399
p30
sVpSpecies
p31
VBidoof
p32
sVpGender
p33
VF
p34
sVpLevel
p35
V7
p36
sVpMoves
p37
(lp38
Vsuper-fang
p39
aVrollout
p40
aVsuperpower
p41
aVyawn
p42
asVpHold
p43
V
p44
sVpAbility
p45
Vsimple
p46
sbasVbossFlag
p47
I00
sVtLongGame
p48
Vdiamond-pearl
p49
sbag1
(g2
g3
Ntp50
Rp51
(dp52
g7
VSpr DP Youngster.png
p53
sg9
VYoungster
p54
sg11
VTyler
p55
sg13
V80
p56
sg15
V2
p57
sg17
g18
sg19
g20
sg21
g22
sg23
(lp58
g1
(g25
g3
Ntp59
Rp60
(dp61
g29
V129
p62
sg31
VMagikarp
p63
sg33
VM
p64
sg35
V5
p65
sg37
(lp66
Vtackle
p67
aVsplash
p68
aVflail
p69
asg43
g44
sg45
Vswift-swim
p70
sbag1
(g25
g3
Ntp71
Rp72
(dp73
g29
V396
p74
sg31
VStarly
p75
sg33
g64
sg35
g65
sg37
(lp76
Vdouble-team
p77
aVendeavor
p78
aVaerial-ace
p79
aVbrave-bird
p80
asg43
g44
sg45
Vkeen-eye
p81
sbasg47
I00
sg48
g49
sbag1
(g2
g3
Ntp82
Rp83
(dp84
g7
VSpr DP Lass.png
p85
sg9
VLass
p86
sg11
VSamantha
p87
sg13
V112
p88
sg15
g16
sg17
g18
sg19
g20
sg21
g22
sg23
(lp89
g1
(g25
g3
Ntp90
Rp91
(dp92
g29
V406
p93
sg31
VBudew
p94
sg33
g34
sg35
g36
sg37
(lp95
Vgrowth
p96
aVstun-spore
p97
aVwater-sport
p98
aVworry-seed
p99
asg43
g44
sg45
Vpoison-point
p100
sbasg47
I00
sg48
g49
sbag1
(g2
g3
Ntp101
Rp102
(dp103
g7
VSpr DP Aroma Lady.png
p104
sg9
VAroma Lady
p105
sg11
VTaylor
p106
sg13
V224
p107
sg15
g57
sg17
g18
sg19
g20
sg21
g22
sg23
(lp108
g1
(g25
g3
Ntp109
Rp110
(dp111
g29
V406
p112
sg31
VBudew
p113
sg33
g34
sg35
g36
sg37
(lp114
Vgrowth
p115
aVstun-spore
p116
aVwater-sport
p117
aVworry-seed
p118
asg43
g44
sg45
Vpoison-point
p119
sbag1
(g25
g3
Ntp120
Rp121
(dp122
g29
V420
p123
sg31
VCherubi
p124
sg33
g34
sg35
g36
sg37
(lp125
Vhelping-hand
p126
aVmagical-leaf
p127
aVlucky-chant
p128
aVworry-seed
p129
asg43
g44
sg45
Vchlorophyll
p130
sbasg47
I00
sg48
g49
sbag1
(g2
g3
Ntp131
Rp132
(dp133
g7
Vspr DP Bug Catcher.png
p134
sg9
VBug Catcher
p135
sg11
VBrandon
p136
sg13
V84
p137
sg15
g57
sg17
g18
sg19
g20
sg21
g22
sg23
(lp138
g1
(g25
g3
Ntp139
Rp140
(dp141
g29
V401
p142
sg31
VKricketot
p143
sg33
g64
sg35
g36
sg37
(lp144
Vgrowl
p145
aVbide
p146
asg43
g44
sg45
Vshed-skin
p147
sbag1
(g25
g3
Ntp148
Rp149
(dp150
g29
V265
p151
sg31
VWurmple
p152
sg33
g64
sg35
g36
sg37
(lp153
Vtackle
p154
aVpoison-sting
p155
aVstring-shot
p156
asg43
g44
sg45
Vshield-dust
p157
sbasg47
I00
sg48
g49
sbag1
(g2
g3
Ntp158
Rp159
(dp160
g7
VSpr DP Twins.png
p161
sg9
VTwins
p162
sg11
VLiv & Liz
p163
sg13
V288
p164
sg15
g57
sg17
g18
sg19
g20
sg21
g22
sg23
(lp165
g1
(g25
g3
Ntp166
Rp167
(dp168
g29
V417
p169
sg31
VPachirisu
p170
sg33
g34
sg35
V9
p171
sg37
(lp172
Vcharm
p173
aVspark
p174
aVlast-resort
p175
aVdischarge
p176
asg43
g44
sg45
Vrun-away
p177
sbag1
(g25
g3
Ntp178
Rp179
(dp180
g29
V417
p181
sg31
VPachirisu
p182
sg33
g34
sg35
g171
sg37
(lp183
Vcharm
p184
aVspark
p185
aVlast-resort
p186
aVdischarge
p187
asg43
g44
sg45
Vrun-away
p188
sbasg47
I00
sg48
g49
sba.