(lp0
ccopy_reg
_reconstructor
p1
(c__main__
Trainer
p2
c__builtin__
object
p3
Ntp4
Rp5
(dp6
VtSprite
p7
VSpr DP Swimmer F.png
p8
sVtClass
p9
VSwimmer
p10
sVtName
p11
VSophia
p12
sVtMoney
p13
V832<br><small>Potential [[Double Battle]] with Sam</small>
p14
sVtPokeCount
p15
V2
p16
sVtLocation
p17
Vwiki/Sinnoh_Route_230
p18
sVtRegion
p19
VSinnoh
p20
sVtGame
p21
VDP
p22
sVtPokes
p23
(lp24
g1
(c__main__
FinishedPokemon
p25
g3
Ntp26
Rp27
(dp28
VpDexNo
p29
V458
p30
sVpSpecies
p31
VMantyke
p32
sVpGender
p33
VF
p34
sVpLevel
p35
V50
p36
sVpMoves
p37
(lp38
Vbubble
p39
aVbounce
p40
aVwater-pulse
p41
aVaqua-ring
p42
asVpHold
p43
V
p44
sVpAbility
p45
Vwater-absorb
p46
sbag1
(g25
g3
Ntp47
Rp48
(dp49
g29
V226
p50
sg31
VMantine
p51
sg33
g34
sg35
V52
p52
sg37
(lp53
Vbullet-seed
p54
aVbounce
p55
aVwater-pulse
p56
aVaqua-ring
p57
asg43
g44
sg45
Vwater-absorb
p58
sbasVbossFlag
p59
I00
sVtLongGame
p60
Vdiamond-pearl
p61
sbag1
(g2
g3
Ntp62
Rp63
(dp64
g7
VSpr DP Swimmer M.png
p65
sg9
VSwimmer
p66
sg11
VSam
p67
sg13
V816<br><small>Potential [[Double Battle]] with Sophia</small>
p68
sg15
g16
sg17
g18
sg19
g20
sg21
g22
sg23
(lp69
g1
(g25
g3
Ntp70
Rp71
(dp72
g29
V170
p73
sg31
VChinchou
p74
sg33
VM
p75
sg35
V51
p76
sg37
(lp77
Vcharge
p78
aVsignal-beam
p79
aVaqua-ring
p80
aVdischarge
p81
asg43
g44
sg45
Vvolt-absorb
p82
sbag1
(g25
g3
Ntp83
Rp84
(dp85
g29
V171
p86
sg31
VLanturn
p87
sg33
g75
sg35
V51
p88
sg37
(lp89
Vcharge
p90
aVsignal-beam
p91
aVaqua-ring
p92
aVdischarge
p93
asg43
g44
sg45
Vvolt-absorb
p94
sbasg59
I00
sg60
g61
sbag1
(g2
g3
Ntp95
Rp96
(dp97
g7
VSpr DP Swimmer M.png
p98
sg9
VSwimmer
p99
sg11
VGlenn
p100
sg13
V816
p101
sg15
g16
sg17
g18
sg19
g20
sg21
g22
sg23
(lp102
g1
(g25
g3
Ntp103
Rp104
(dp105
g29
V086
p106
sg31
VSeel
p107
sg33
g75
sg35
V51
p108
sg37
(lp109
Vaqua-ring
p110
aVaqua-tail
p111
aVice-shard
p112
aVaqua-jet
p113
asg43
g44
sg45
Vthick-fat
p114
sbag1
(g25
g3
Ntp115
Rp116
(dp117
g29
V121
p118
sg31
VStarmie
p119
sg33
VU
p120
sg35
V51
p121
sg37
(lp122
Vrecover
p123
aVconfuse-ray
p124
aVswift
p125
aVrapid-spin
p126
asg43
g44
sg45
Villuminate
p127
sbasg59
I00
sg60
g61
sbag1
(g2
g3
Ntp128
Rp129
(dp130
g7
VSpr DP Swimmer F.png
p131
sg9
VSwimmer
p132
sg11
VMallory
p133
sg13
V864
p134
sg15
g16
sg17
g18
sg19
g20
sg21
g22
sg23
(lp135
g1
(g25
g3
Ntp136
Rp137
(dp138
g29
V086
p139
sg31
VSeel
p140
sg33
g34
sg35
V50
p141
sg37
(lp142
Vaqua-ring
p143
aVaqua-tail
p144
aVice-shard
p145
aVaqua-jet
p146
asg43
g44
sg45
Vhydration
p147
sbag1
(g25
g3
Ntp148
Rp149
(dp150
g29
V087
p151
sg31
VDewgong
p152
sg33
g34
sg35
V54
p153
sg37
(lp154
Vaqua-ring
p155
aVaqua-tail
p156
aVice-shard
p157
aVaqua-jet
p158
asg43
g44
sg45
Vhydration
p159
sbasg59
I00
sg60
g61
sbag1
(g2
g3
Ntp160
Rp161
(dp162
g7
VSpr DP Swimmer F.png
p163
sg9
VSwimmer
p164
sg11
VJoanna
p165
sg13
V864
p166
sg15
g16
sg17
g18
sg19
g20
sg21
g22
sg23
(lp167
g1
(g25
g3
Ntp168
Rp169
(dp170
g29
V370
p171
sg31
VLuvdisc
p172
sg33
g34
sg35
V50
p173
sg37
(lp174
Vwater-pulse
p175
aVlucky-chant
p176
aVaqua-ring
p177
aVcaptivate
p178
asg43
g44
sg45
Vswift-swim
p179
sbag1
(g25
g3
Ntp180
Rp181
(dp182
g29
V131
p183
sg31
VLapras
p184
sg33
g34
sg35
V54
p185
sg37
(lp186
Vsheer-cold
p187
aVwater-pulse
p188
aVbrine
p189
aVice-shard
p190
asg43
g44
sg45
Vshell-armor
p191
sbasg59
I00
sg60
g61
sbag1
(g2
g3
Ntp192
Rp193
(dp194
g7
VSpr DP Swimmer M.png
p195
sg9
VSwimmer
p196
sg11
VKurt
p197
sg13
V848
p198
sg15
V1
p199
sg17
g18
sg19
g20
sg21
g22
sg23
(lp200
g1
(g25
g3
Ntp201
Rp202
(dp203
g29
V342
p204
sg31
VCrawdaunt
p205
sg33
g75
sg35
V53
p206
sg37
(lp207
Vcrunch
p208
aVtaunt
p209
aVknock-off
p210
aVnight-slash
p211
asg43
g44
sg45
Vshell-armor
p212
sbasg59
I00
sg60
g61
sbag1
(g2
g3
Ntp213
Rp214
(dp215
g7
VSpr DP Swimmer M.png
p216
sg9
VSwimmer
p217
sg11
VGlenn
p218
sg13
V928
p219
sg15
g16
sg17
g18
sg19
g20
sg21
g22
sg23
(lp220
g1
(g25
g3
Ntp221
Rp222
(dp223
g29
V087
p224
sg31
VDewgong
p225
sg33
g75
sg35
V58
p226
sg37
(lp227
Vaqua-ring
p228
aVaqua-tail
p229
aVice-shard
p230
aVaqua-jet
p231
asg43
g44
sg45
Vthick-fat
p232
sbag1
(g25
g3
Ntp233
Rp234
(dp235
g29
V121
p236
sg31
VStarmie
p237
sg33
g120
sg35
V58
p238
sg37
(lp239
Vrecover
p240
aVconfuse-ray
p241
aVswift
p242
aVrapid-spin
p243
asg43
g44
sg45
Vnatural-cure
p244
sbasg59
I00
sg60
g61
sbag1
(g2
g3
Ntp245
Rp246
(dp247
g7
VSpr DP Swimmer F.png
p248
sg9
VSwimmer
p249
sg11
VJoanna
p250
sg13
V960
p251
sg15
g16
sg17
g18
sg19
g20
sg21
g22
sg23
(lp252
g1
(g25
g3
Ntp253
Rp254
(dp255
g29
V370
p256
sg31
VLuvdisc
p257
sg33
g34
sg35
V56
p258
sg37
(lp259
Vwater-pulse
p260
aVlucky-chant
p261
aVaqua-ring
p262
aVcaptivate
p263
asg43
g44
sg45
Vswift-swim
p264
sbag1
(g25
g3
Ntp265
Rp266
(dp267
g29
V131
p268
sg31
VLapras
p269
sg33
g34
sg35
V60
p270
sg37
(lp271
Vsheer-cold
p272
aVwater-pulse
p273
aVbrine
p274
aVice-shard
p275
asg43
g44
sg45
Vshell-armor
p276
sbasg59
I00
sg60
g61
sbag1
(g2
g3
Ntp277
Rp278
(dp279
g7
VSpr DP Swimmer F.png
p280
sg9
VSwimmer
p281
sg11
VSophia
p282
sg13
V848<br><small>Potential [[Double Battle]] with Sam</small>
p283
sg15
g16
sg17
g18
sg19
g20
sg21
g22
sg23
(lp284
g1
(g25
g3
Ntp285
Rp286
(dp287
g29
V225
p288
sg31
VDelibird
p289
sg33
g34
sg35
V53
p290
sg37
(lp291
Vpresent
p292
asg43
g44
sg45
Vvital-spirit
p293
sbag1
(g25
g3
Ntp294
Rp295
(dp296
g29
V226
p297
sg31
VMantine
p298
sg33
g34
sg35
V53
p299
sg37
(lp300
Vbullet-seed
p301
aVbounce
p302
aVwater-pulse
p303
aVaqua-ring
p304
asg43
g44
sg45
Vwater-absorb
p305
sbasg59
I00
sg60
g61
sbag1
(g2
g3
Ntp306
Rp307
(dp308
g7
VSpr DP Swimmer M.png
p309
sg9
VSwimmer
p310
sg11
VSam
p311
sg13
V848<br><small>Potential [[Double Battle]] with Sophia</small>
p312
sg15
g16
sg17
g18
sg19
g20
sg21
g22
sg23
(lp313
g1
(g25
g3
Ntp314
Rp315
(dp316
g29
V364
p317
sg31
VSealeo
p318
sg33
g75
sg35
V53
p319
sg37
(lp320
Vencore
p321
aVhail
p322
aVice-ball
p323
aVsheer-cold
p324
asg43
g44
sg45
Vice-body
p325
sbag1
(g25
g3
Ntp326
Rp327
(dp328
g29
V423
p329
sg31
VGastrodon
p330
sg33
g75
sg35
V53
p331
sg37
(lp332
Vmuddy-water
p333
aVwater-pulse
p334
ag334
aVmud-bomb
p335
asg43
g44
sg45
Vsticky-hold
p336
sbasg59
I00
sg60
g61
sbag1
(g2
g3
Ntp337
Rp338
(dp339
g7
VSpr DP Swimmer M.png
p340
sg9
VSwimmer
p341
sg11
VGlenn
p342
sg13
V848
p343
sg15
g16
sg17
g18
sg19
g20
sg21
g22
sg23
(lp344
g1
(g25
g3
Ntp345
Rp346
(dp347
g29
V224
p348
sg31
VOctillery
p349
sg33
g75
sg35
V53
p350
sg37
(lp351
Vbullet-seed
p352
aVrock-blast
p353
aVwring-out
p354
aVgunk-shot
p355
asg43
g44
sg45
Vsuction-cups
p356
sbag1
(g25
g3
Ntp357
Rp358
(dp359
g29
V061
p360
sg31
VPoliwhirl
p361
sg33
g75
sg35
V53
p362
sg37
(lp363
Vmud-shot
p364
aVwater-sport
p365
aVwake-up-slap
p366
aVmud-bomb
p367
asg43
g44
sg45
Vwater-absorb
p368
sbasg59
I00
sg60
g61
sbag1
(g2
g3
Ntp369
Rp370
(dp371
g7
VSpr DP Swimmer F.png
p372
sg9
VSwimmer
p373
sg11
VMallory
p374
sg13
V864
p375
sg15
g16
sg17
g18
sg19
g20
sg21
g22
sg23
(lp376
g1
(g25
g3
Ntp377
Rp378
(dp379
g29
V283
p380
sg31
VSurskit
p381
sg33
g34
sg35
V52
p382
sg37
(lp383
Vbubble
p384
aVbaton-pass
p385
aVsweet-scent
p386
aVwater-sport
p387
asg43
g44
sg45
Vswift-swim
p388
sbag1
(g25
g3
Ntp389
Rp390
(dp391
g29
V271
p392
sg31
VLombre
p393
sg33
g34
sg35
V54
p394
sg37
(lp395
Vnature-power
p396
aVastonish
p397
aVwater-sport
p398
aVzen-headbutt
p399
asg43
g44
sg45
Vrain-dish
p400
sbasg59
I00
sg60
g61
sbag1
(g2
g3
Ntp401
Rp402
(dp403
g7
VSpr DP Swimmer F.png
p404
sg9
VSwimmer
p405
sg11
VJoanna
p406
sg13
V864
p407
sg15
g16
sg17
g18
sg19
g20
sg21
g22
sg23
(lp408
g1
(g25
g3
Ntp409
Rp410
(dp411
g29
V370
p412
sg31
VLuvdisc
p413
sg33
g34
sg35
V52
p414
sg37
(lp415
Vwater-pulse
p416
aVlucky-chant
p417
aVaqua-ring
p418
aVcaptivate
p419
asg43
g44
sg45
Vswift-swim
p420
sbag1
(g25
g3
Ntp421
Rp422
(dp423
g29
V131
p424
sg31
VLapras
p425
sg33
g34
sg35
V54
p426
sg37
(lp427
Vsheer-cold
p428
aVwater-pulse
p429
aVbrine
p430
aVice-shard
p431
asg43
g44
sg45
Vshell-armor
p432
sbasg59
I00
sg60
g61
sbag1
(g2
g3
Ntp433
Rp434
(dp435
g7
VSpr DP Swimmer M.png
p436
sg9
VSwimmer
p437
sg11
VKurt
p438
sg13
V864
p439
sg15
V3
p440
sg17
g18
sg19
g20
sg21
g22
sg23
(lp441
g1
(g25
g3
Ntp442
Rp443
(dp444
g29
V098
p445
sg31
VKrabby
p446
sg33
g75
sg35
V51
p447
sg37
(lp448
Vmetal-claw
p449
aVmud-sport
p450
aVmud-shot
p451
aVbrine
p452
asg43
g44
sg45
Vhyper-cutter
p453
sbag1
(g25
g3
Ntp454
Rp455
(dp456
g29
V341
p457
sg31
VCorphish
p458
sg33
g75
sg35
V51
p459
sg37
(lp460
Vcrunch
p461
aVtaunt
p462
aVknock-off
p463
aVnight-slash
p464
asg43
g44
sg45
Vhyper-cutter
p465
sbag1
(g25
g3
Ntp466
Rp467
(dp468
g29
V099
p469
sg31
VKingler
p470
sg33
g75
sg35
V54
p471
sg37
(lp472
Vmetal-claw
p473
aVmud-sport
p474
aVmud-shot
p475
aVbrine
p476
asg43
g44
sg45
Vhyper-cutter
p477
sbasg59
I00
sg60
g61
sbag1
(g2
g3
Ntp478
Rp479
(dp480
g7
VSpr DP Swimmer M.png
p481
sg9
VSwimmer
p482
sg11
VGlenn
p483
sg13
V960
p484
sg15
g16
sg17
g18
sg19
g20
sg21
g22
sg23
(lp485
g1
(g25
g3
Ntp486
Rp487
(dp488
g29
V224
p489
sg31
VOctillery
p490
sg33
g75
sg35
V58
p491
sg37
(lp492
Vbullet-seed
p493
aVrock-blast
p494
aVwring-out
p495
aVgunk-shot
p496
asg43
g44
sg45
Vsuction-cups
p497
sbag1
(g25
g3
Ntp498
Rp499
(dp500
g29
V186
p501
sg31
VPolitoed
p502
sg33
g120
sg35
V60
p503
sg37
(lp504
Vhypnosis
p505
aVperish-song
p506
aVswagger
p507
aVbounce
p508
asg43
g44
sg45
Vwater-absorb
p509
sbasg59
I00
sg60
g61
sbag1
(g2
g3
Ntp510
Rp511
(dp512
g7
VSpr DP Swimmer F.png
p513
sg9
VSwimmer
p514
sg11
VJoanna
p515
sg13
V944
p516
sg15
g440
sg17
g18
sg19
g20
sg21
g22
sg23
(lp517
g1
(g25
g3
Ntp518
Rp519
(dp520
g29
V370
p521
sg31
VLuvdisc
p522
sg33
g34
sg35
V57
p523
sg37
(lp524
Vwater-pulse
p525
aVlucky-chant
p526
aVaqua-ring
p527
aVcaptivate
p528
asg43
g44
sg45
Vswift-swim
p529
sbag1
(g25
g3
Ntp530
Rp531
(dp532
g29
V222
p533
sg31
VCorsola
p534
sg33
g34
sg35
V58
p535
sg37
(lp536
Vlucky-chant
p537
aVaqua-ring
p538
aVpower-gem
p539
aVearth-power
p540
asg43
g44
sg45
Vhustle
p541
sbag1
(g25
g3
Ntp542
Rp543
(dp544
g29
V131
p545
sg31
VLapras
p546
sg33
g34
sg35
V59
p547
sg37
(lp548
Vsheer-cold
p549
aVwater-pulse
p550
aVbrine
p551
aVice-shard
p552
asg43
g44
sg45
Vwater-absorb
p553
sbasg59
I00
sg60
g61
sba.