(lp0
ccopy_reg
_reconstructor
p1
(c__main__
Trainer
p2
c__builtin__
object
p3
Ntp4
Rp5
(dp6
VtSprite
p7
VSpr DP Youngster.png
p8
sVtClass
p9
VYoungster
p10
sVtName
p11
VMichael
p12
sVtMoney
p13
V80
p14
sVtPokeCount
p15
V2
p16
sVtLocation
p17
Vwiki/Sinnoh_Route_203
p18
sVtRegion
p19
VSinnoh
p20
sVtGame
p21
VDP
p22
sVtPokes
p23
(lp24
g1
(c__main__
FinishedPokemon
p25
g3
Ntp26
Rp27
(dp28
VpDexNo
p29
V399
p30
sVpSpecies
p31
VBidoof
p32
sVpGender
p33
VM
p34
sVpLevel
p35
V5
p36
sVpMoves
p37
(lp38
Vsuper-fang
p39
aVrollout
p40
aVsuperpower
p41
aVyawn
p42
asVpHold
p43
V
p44
sVpAbility
p45
Vsimple
p46
sbag1
(g25
g3
Ntp47
Rp48
(dp49
g29
V041
p50
sg31
VZubat
p51
sg33
g34
sg35
g36
sg37
(lp52
Vpoison-fang
p53
aVastonish
p54
aVair-cutter
p55
aVair-slash
p56
asg43
g44
sg45
Vinner-focus
p57
sbasVbossFlag
p58
I00
sVtLongGame
p59
Vdiamond-pearl
p60
sbag1
(g2
g3
Ntp61
Rp62
(dp63
g7
VSpr DP Youngster.png
p64
sg9
VYoungster
p65
sg11
VDallas
p66
sg13
V112
p67
sg15
V1
p68
sg17
g18
sg19
g20
sg21
g22
sg23
(lp69
g1
(g25
g3
Ntp70
Rp71
(dp72
g29
V401
p73
sg31
VKricketot
p74
sg33
g34
sg35
V7
p75
sg37
(lp76
Vgrowl
p77
aVbide
p78
asg43
g44
sg45
Vshed-skin
p79
sbasg58
I00
sg59
g60
sbag1
(g2
g3
Ntp80
Rp81
(dp82
g7
VSpr DP Lass.png
p83
sg9
VLass
p84
sg11
VKaitlin
p85
sg13
V64
p86
sg15
V3
p87
sg17
g18
sg19
g20
sg21
g22
sg23
(lp88
g1
(g25
g3
Ntp89
Rp90
(dp91
g29
V399
p92
sg31
VBidoof
p93
sg33
VF
p94
sg35
V4
p95
sg37
(lp96
Vsuper-fang
p97
aVrollout
p98
aVsuperpower
p99
aVyawn
p100
asg43
g44
sg45
Vunaware
p101
sbag1
(g25
g3
Ntp102
Rp103
(dp104
g29
V396
p105
sg31
VStarly
p106
sg33
g94
sg35
g95
sg37
(lp107
Vdouble-team
p108
aVendeavor
p109
aVaerial-ace
p110
aVbrave-bird
p111
asg43
g44
sg45
Vkeen-eye
p112
sbag1
(g25
g3
Ntp113
Rp114
(dp115
g29
V406
p116
sg31
VBudew
p117
sg33
g94
sg35
g95
sg37
(lp118
Vgrowth
p119
aVstun-spore
p120
aVwater-sport
p121
aVworry-seed
p122
asg43
g44
sg45
Vpoison-point
p123
sbasg58
I00
sg59
g60
sbag1
(g2
g3
Ntp124
Rp125
(dp126
g7
VSpr DP Youngster.png
p127
sg9
VYoungster
p128
sg11
VSebastian
p129
sg13
V112
p130
sg15
g68
sg17
g18
sg19
g20
sg21
g22
sg23
(lp131
g1
(g25
g3
Ntp132
Rp133
(dp134
g29
V066
p135
sg31
VMachop
p136
sg33
g34
sg35
g75
sg37
(lp137
Vvital-throw
p138
aVcross-chop
p139
aVrevenge
p140
aVwake-up-slap
p141
asg43
g44
sg45
Vguts
p142
sbasg58
I00
sg59
g60
sbag1
(g2
g3
Ntp143
Rp144
(dp145
g7
VSpr DP Lass.png
p146
sg9
VLass
p147
sg11
VMadeline
p148
sg13
V80
p149
sg15
g16
sg17
g18
sg19
g20
sg21
g22
sg23
(lp150
g1
(g25
g3
Ntp151
Rp152
(dp153
g29
V396
p154
sg31
VStarly
p155
sg33
g94
sg35
g36
sg37
(lp156
Vdouble-team
p157
aVendeavor
p158
aVaerial-ace
p159
aVbrave-bird
p160
asg43
g44
sg45
Vkeen-eye
p161
sbag1
(g25
g3
Ntp162
Rp163
(dp164
g29
V399
p165
sg31
VBidoof
p166
sg33
g94
sg35
g36
sg37
(lp167
Vsuper-fang
p168
aVrollout
p169
aVsuperpower
p170
aVyawn
p171
asg43
g44
sg45
Vunaware
p172
sbasg58
I00
sg59
g60
sbag1
(g2
g3
Ntp173
Rp174
(dp175
g7
VSpr DP Barry.png
p176
sg9
VPokemon Trainer
p177
sg11
VBarry (game)
p178
sg13
V900
p179
sg15
I2
sg17
g18
sg19
g20
sg21
g22
sg23
(lp180
g1
(g25
g3
Ntp181
Rp182
(dp183
g29
I396
sg31
VStarly
p184
sg33
g34
sg35
g75
sg37
(lp185
VQuick Attack
p186
aVGrowl
p187
asg43
g44
sg45
VKeen Eye
p188
sbag1
(g25
g3
Ntp189
Rp190
(dp191
g29
I390
sg31
VChimchar
p192
sg33
g34
sg35
V9
p193
sg37
(lp194
VScratch
p195
aVLeer
p196
asg43
g44
sg45
VBlaze
p197
sbasg58
I01
sg59
g60
sbag1
(g2
g3
Ntp198
Rp199
(dp200
g7
VSpr DP Barry.png
p201
sg9
VPokemon Trainer
p202
sg11
VBarry (game)
p203
sg13
V900
p204
sg15
I2
sg17
g18
sg19
g20
sg21
g22
sg23
(lp205
g1
(g25
g3
Ntp206
Rp207
(dp208
g29
I396
sg31
VStarly
p209
sg33
g34
sg35
g75
sg37
(lp210
VQuick Attack
p211
aVGrowl
p212
asg43
g44
sg45
VKeen Eye
p213
sbag1
(g25
g3
Ntp214
Rp215
(dp216
g29
I393
sg31
VPiplup
p217
sg33
g34
sg35
g193
sg37
(lp218
VPound
p219
aVGrowl
p220
asg43
g44
sg45
VTorrent
p221
sbasg58
I01
sg59
g60
sbag1
(g2
g3
Ntp222
Rp223
(dp224
g7
VSpr DP Barry.png
p225
sg9
VPokemon Trainer
p226
sg11
VBarry (game)
p227
sg13
V900
p228
sg15
I2
sg17
g18
sg19
g20
sg21
g22
sg23
(lp229
g1
(g25
g3
Ntp230
Rp231
(dp232
g29
I396
sg31
VStarly
p233
sg33
g34
sg35
g75
sg37
(lp234
VQuick Attack
p235
aVGrowl
p236
asg43
g44
sg45
VKeen Eye
p237
sbag1
(g25
g3
Ntp238
Rp239
(dp240
g29
I387
sg31
VTurtwig
p241
sg33
g34
sg35
g193
sg37
(lp242
VTackle
p243
aVWithdraw
p244
asg43
g44
sg45
VOvergrow
p245
sbasg58
I01
sg59
g60
sbag1
(g2
g3
Ntp246
Rp247
(dp248
g7
VSpr Pt Barry.png
p249
sg9
VPokemon Trainer
p250
sg11
VBarry (game)
p251
sg13
V900
p252
sg15
I2
sg17
g18
sg19
g20
sg21
VPt
p253
sg23
(lp254
g1
(g25
g3
Ntp255
Rp256
(dp257
g29
I396
sg31
VStarly
p258
sg33
g34
sg35
g75
sg37
(lp259
VTackle
p260
aVGrowl
p261
aVQuick Attack
p262
asg43
g44
sg45
VKeen Eye
p263
sbag1
(g25
g3
Ntp264
Rp265
(dp266
g29
I390
sg31
VChimchar
p267
sg33
g34
sg35
g193
sg37
(lp268
VScratch
p269
aVLeer
p270
aVEmber
p271
aVTaunt
p272
asg43
g44
sg45
VBlaze
p273
sbasg58
I01
sg59
Vplatinum
p274
sbag1
(g2
g3
Ntp275
Rp276
(dp277
g7
VSpr Pt Barry.png
p278
sg9
VPokemon Trainer
p279
sg11
VBarry (game)
p280
sg13
V900
p281
sg15
I2
sg17
g18
sg19
g20
sg21
g253
sg23
(lp282
g1
(g25
g3
Ntp283
Rp284
(dp285
g29
I396
sg31
VStarly
p286
sg33
g34
sg35
g75
sg37
(lp287
VTackle
p288
aVGrowl
p289
aVQuick Attack
p290
asg43
g44
sg45
VKeen Eye
p291
sbag1
(g25
g3
Ntp292
Rp293
(dp294
g29
I393
sg31
VPiplup
p295
sg33
g34
sg35
g193
sg37
(lp296
VPound
p297
aVGrowl
p298
aVBubble
p299
asg43
g44
sg45
VTorrent
p300
sbasg58
I01
sg59
g274
sbag1
(g2
g3
Ntp301
Rp302
(dp303
g7
VSpr Pt Barry.png
p304
sg9
VPokemon Trainer
p305
sg11
VBarry (game)
p306
sg13
V900
p307
sg15
I2
sg17
g18
sg19
g20
sg21
g253
sg23
(lp308
g1
(g25
g3
Ntp309
Rp310
(dp311
g29
I396
sg31
VStarly
p312
sg33
g34
sg35
g75
sg37
(lp313
VTackle
p314
aVGrowl
p315
aVQuick Attack
p316
asg43
g44
sg45
VKeen Eye
p317
sbag1
(g25
g3
Ntp318
Rp319
(dp320
g29
I387
sg31
VTurtwig
p321
sg33
g34
sg35
g193
sg37
(lp322
VTackle
p323
aVWithdraw
p324
aVAbsorb
p325
asg43
g44
sg45
VOvergrow
p326
sbasg58
I01
sg59
g274
sba.