(lp0
ccopy_reg
_reconstructor
p1
(c__main__
Trainer
p2
c__builtin__
object
p3
Ntp4
Rp5
(dp6
VtSprite
p7
VSpr DP Youngster.png
p8
sVtClass
p9
VYoungster
p10
sVtName
p11
VTristan
p12
sVtMoney
p13
V80
p14
sVtPokeCount
p15
V1
p16
sVtLocation
p17
Vwiki/Sinnoh_Route_202
p18
sVtRegion
p19
VSinnoh
p20
sVtGame
p21
VDP
p22
sVtPokes
p23
(lp24
g1
(c__main__
FinishedPokemon
p25
g3
Ntp26
Rp27
(dp28
VpDexNo
p29
V396
p30
sVpSpecies
p31
VStarly
p32
sVpGender
p33
VM
p34
sVpLevel
p35
V5
p36
sVpMoves
p37
(lp38
Vdouble-team
p39
aVendeavor
p40
aVaerial-ace
p41
aVbrave-bird
p42
asVpHold
p43
V
p44
sVpAbility
p45
Vkeen-eye
p46
sbasVbossFlag
p47
I00
sVtLongGame
p48
Vdiamond-pearl
p49
sbag1
(g2
g3
Ntp50
Rp51
(dp52
g7
VSpr DP Lass.png
p53
sg9
VLass
p54
sg11
VNatalie
p55
sg13
V48
p56
sg15
V2
p57
sg17
g18
sg19
g20
sg21
g22
sg23
(lp58
g1
(g25
g3
Ntp59
Rp60
(dp61
g29
V399
p62
sg31
VBidoof
p63
sg33
VF
p64
sg35
V3
p65
sg37
(lp66
Vsuper-fang
p67
aVrollout
p68
aVsuperpower
p69
aVyawn
p70
asg43
g44
sg45
Vunaware
p71
sbag1
(g25
g3
Ntp72
Rp73
(dp74
g29
V399
p75
sg31
VBidoof
p76
sg33
g64
sg35
g65
sg37
(lp77
Vsuper-fang
p78
aVrollout
p79
aVsuperpower
p80
aVyawn
p81
asg43
g44
sg45
Vunaware
p82
sbasg47
I00
sg48
g49
sbag1
(g2
g3
Ntp83
Rp84
(dp85
g7
VSpr DP Youngster.png
p86
sg9
VYoungster
p87
sg11
VLogan
p88
sg13
V80
p89
sg15
g16
sg17
g18
sg19
g20
sg21
g22
sg23
(lp90
g1
(g25
g3
Ntp91
Rp92
(dp93
g29
V403
p94
sg31
VShinx
p95
sg33
g34
sg35
g36
sg37
(lp96
Vcrunch
p97
aVcharge
p98
aVthunder-fang
p99
aVdischarge
p100
asg43
g44
sg45
Vrivalry
p101
sbasg47
I00
sg48
g49
sba.