(lp0
ccopy_reg
_reconstructor
p1
(c__main__
Trainer
p2
c__builtin__
object
p3
Ntp4
Rp5
(dp6
VtSprite
p7
VVSZinnia.png
p8
sVtClass
p9
VLorekeeper
p10
sVtName
p11
VZinnia
p12
sVtMoney
p13
V6,200
p14
sVtPokeCount
p15
I5
sVtLocation
p16
Vwiki/Sky_Pillar
p17
sVtRegion
p18
VHoenn
p19
sVtGame
p20
VSM
p21
sVtPokes
p22
(lp23
g1
(c__main__
FinishedPokemon
p24
g3
Ntp25
Rp26
(dp27
VpDexNo
p28
I706
sVpSpecies
p29
VGoodra
p30
sVpGender
p31
VF
p32
sVpLevel
p33
V60
p34
sVpMoves
p35
(lp36
VDragon Pulse
p37
aVMuddy Water
p38
aVThunderbolt
p39
aVIce Beam
p40
asVpHold
p41
V
p42
sVpAbility
p43
VSap Sipper
p44
sbag1
(g24
g3
Ntp45
Rp46
(dp47
g28
I697
sg29
VTyrantrum
p48
sg31
VM
p49
sg33
V60
p50
sg35
(lp51
VDragon Claw
p52
aVCrunch
p53
aVEarthquake
p54
aVStone Edge
p55
asg41
g42
sg43
VStrong Jaw
p56
sbag1
(g24
g3
Ntp57
Rp58
(dp59
g28
I334
sg29
VAltaria
p60
sg31
g32
sg33
V60
p61
sg35
(lp62
VDragon Pulse
p63
aVMoonblast
p64
aVFlamethrower
p65
aVHyper Voice
p66
asg41
g42
sg43
VNatural Cure
p67
sbag1
(g24
g3
Ntp68
Rp69
(dp70
g28
I715
sg29
VNoivern
p71
sg31
g32
sg33
V60
p72
sg35
(lp73
VDragon Pulse
p74
aVAir Slash
p75
aVShadow Ball
p76
aVSuper Fang
p77
asg41
g42
sg43
VInfiltrator
p78
sbag1
(g24
g3
Ntp79
Rp80
(dp81
g28
I373
sg29
VSalamence
p82
sg31
g49
sg33
V62
p83
sg35
(lp84
VDragon Claw
p85
aVCrunch
p86
aVFire Fang
p87
aVThunder Fang
p88
asg41
VSalamencite
p89
sg43
VIntimidate
p90
sbasVbossFlag
p91
I01
sVtLongGame
p92
Vsun-moon
p93
sba.