(lp0
ccopy_reg
_reconstructor
p1
(c__main__
Trainer
p2
c__builtin__
object
p3
Ntp4
Rp5
(dp6
VtSprite
p7
VVSTeam Magma Grunt M.png
p8
sVtClass
p9
VTeam Magma Grunt
p10
sVtName
p11
V
p12
sVtMoney
p13
V1,440
p14
sVtPokeCount
p15
V1
p16
sVtLocation
p17
Vwiki/Slateport_City
p18
sVtRegion
p19
VHoenn
p20
sVtGame
p21
VSM
p22
sVtPokes
p23
(lp24
g1
(c__main__
FinishedPokemon
p25
g3
Ntp26
Rp27
(dp28
VpDexNo
p29
V262
p30
sVpSpecies
p31
VMightyena
p32
sVpGender
p33
VM
p34
sVpLevel
p35
V36
p36
sVpMoves
p37
(lp38
Vice-fang
p39
aVfire-fang
p40
aVsnarl
p41
aVplay-rough
p42
asVpHold
p43
g12
sVpAbility
p44
Vquick-feet
p45
sbasVbossFlag
p46
I00
sVtLongGame
p47
Vsun-moon
p48
sbag1
(g2
g3
Ntp49
Rp50
(dp51
g7
VVSTeam Magma Grunt F.png
p52
sg9
VTeam Magma Grunt
p53
sg11
g12
sg13
V1,360
p54
sg15
V2
p55
sg17
g18
sg19
g20
sg21
VSM
p56
sg23
(lp57
g1
(g25
g3
Ntp58
Rp59
(dp60
g29
V322
p61
sg31
VNumel
p62
sg33
VF
p63
sg35
V34
p64
sg37
(lp65
Vyawn
p66
aVearth-power
p67
aVlava-plume
p68
aVflame-burst
p69
asg43
g12
sg44
Voblivious
p70
sbag1
(g25
g3
Ntp71
Rp72
(dp73
g29
V042
p74
sg31
VGolbat
p75
sg33
g63
sg35
V34
p76
sg37
(lp77
Vair-cutter
p78
aVair-slash
p79
aVvenoshock
p80
aVquick-guard
p81
asg43
g12
sg44
Vinner-focus
p82
sbasg46
I00
sg47
g48
sbag1
(g2
g3
Ntp83
Rp84
(dp85
g7
VVSTeam Aqua Grunt M.png
p86
sg9
VTeam Aqua Grunt
p87
sg11
g12
sg13
V1,440
p88
sg15
g16
sg17
g18
sg19
g20
sg21
VSM
p89
sg23
(lp90
g1
(g25
g3
Ntp91
Rp92
(dp93
g29
V262
p94
sg31
VMightyena
p95
sg33
g34
sg35
V36
p96
sg37
(lp97
Vice-fang
p98
aVfire-fang
p99
aVsnarl
p100
aVplay-rough
p101
asg43
g12
sg44
Vquick-feet
p102
sbasg46
I00
sg47
g48
sbag1
(g2
g3
Ntp103
Rp104
(dp105
g7
VVSTeam Aqua Grunt F.png
p106
sg9
VTeam Aqua Grunt
p107
sg11
g12
sg13
V1,360
p108
sg15
g55
sg17
g18
sg19
g20
sg21
g56
sg23
(lp109
g1
(g25
g3
Ntp110
Rp111
(dp112
g29
V318
p113
sg31
VCarvanha
p114
sg33
g63
sg35
V34
p115
sg37
(lp116
Vpoison-fang
p117
aVassurance
p118
aVice-fang
p119
aVaqua-jet
p120
asg43
g12
sg44
Vrough-skin
p121
sbag1
(g25
g3
Ntp122
Rp123
(dp124
g29
V042
p125
sg31
VGolbat
p126
sg33
g63
sg35
V34
p127
sg37
(lp128
Vair-cutter
p129
aVair-slash
p130
aVvenoshock
p131
aVquick-guard
p132
asg43
g12
sg44
Vinner-focus
p133
sbasg46
I00
sg47
g48
sba.