(lp0
ccopy_reg
_reconstructor
p1
(c__main__
Trainer
p2
c__builtin__
object
p3
Ntp4
Rp5
(dp6
VtSprite
p7
VSpr GS Rocket Grunt M.png
p8
sVtClass
p9
VRocket Grunt
p10
sVtName
p11
V
p12
sVtMoney
p13
V360
p14
sVtPokeCount
p15
V2
p16
sVtLocation
p17
Vwiki/Slowpoke_Well
p18
sVtRegion
p19
VJohto
p20
sVtGame
p21
VGS
p22
sVtPokes
p23
(lp24
g1
(c__main__
FinishedPokemon
p25
g3
Ntp26
Rp27
(dp28
VpDexNo
p29
V019
p30
sVpSpecies
p31
VRattata
p32
sVpGender
p33
VM
p34
sVpLevel
p35
V9
p36
sVpMoves
p37
(lp38
Vfocus-energy
p39
aVhyper-fang
p40
aVsuper-fang
p41
aVpursuit
p42
asVpHold
p43
g12
sVpAbility
p44
Vguts
p45
sbag1
(g25
g3
Ntp46
Rp47
(dp48
g29
V019
p49
sg31
VRattata
p50
sg33
g34
sg35
g36
sg37
(lp51
Vfocus-energy
p52
aVhyper-fang
p53
aVsuper-fang
p54
aVpursuit
p55
asg43
g12
sg44
Vguts
p56
sbasVbossFlag
p57
I00
sVtLongGame
p58
Vgold-silver
p59
sbag1
(g2
g3
Ntp60
Rp61
(dp62
g7
VSpr GS Rocket Grunt F.png
p63
sg9
VRocket Grunt
p64
sg11
g12
sg13
V440
p65
sg15
g16
sg17
g18
sg19
g20
sg21
g22
sg23
(lp66
g1
(g25
g3
Ntp67
Rp68
(dp69
g29
V041
p70
sg31
VZubat
p71
sg33
VF
p72
sg35
g36
sg37
(lp73
Vconfuse-ray
p74
aVhaze
p75
aVleech-life
p76
aVmean-look
p77
asg43
g12
sg44
Vinner-focus
p78
sbag1
(g25
g3
Ntp79
Rp80
(dp81
g29
V023
p82
sg31
VEkans
p83
sg33
g72
sg35
V11
p84
sg37
(lp85
Vacid
p86
aVscreech
p87
aVhaze
p88
aVglare
p89
asg43
g12
sg44
Vshed-skin
p90
sbasg57
I00
sg58
g59
sbag1
(g2
g3
Ntp91
Rp92
(dp93
g7
VSpr GS Rocket Grunt M.png
p94
sg9
VRocket Grunt
p95
sg11
g12
sg13
V360
p96
sg15
V3
p97
sg17
g18
sg19
g20
sg21
g22
sg23
(lp98
g1
(g25
g3
Ntp99
Rp100
(dp101
g29
V019
p102
sg31
VRattata
p103
sg33
g34
sg35
V7
p104
sg37
(lp105
Vfocus-energy
p106
aVhyper-fang
p107
aVsuper-fang
p108
aVpursuit
p109
asg43
g12
sg44
Vrun-away
p110
sbag1
(g25
g3
Ntp111
Rp112
(dp113
g29
V041
p114
sg31
VZubat
p115
sg33
g34
sg35
g36
sg37
(lp116
Vconfuse-ray
p117
aVhaze
p118
aVleech-life
p119
aVmean-look
p120
asg43
g12
sg44
Vinner-focus
p121
sbag1
(g25
g3
Ntp122
Rp123
(dp124
g29
V041
p125
sg31
VZubat
p126
sg33
g34
sg35
g36
sg37
(lp127
Vconfuse-ray
p128
aVhaze
p129
aVleech-life
p130
aVmean-look
p131
asg43
g12
sg44
Vinner-focus
p132
sbasg57
I00
sg58
g59
sbag1
(g2
g3
Ntp133
Rp134
(dp135
g7
VSpr HGSS Rocket Grunt M.png
p136
sg9
VTeam Rocket Grunt
p137
sg11
g12
sg13
V360
p138
sg15
g16
sg17
g18
sg19
g20
sg21
VHGSS
p139
sg23
(lp140
g1
(g25
g3
Ntp141
Rp142
(dp143
g29
V019
p144
sg31
VRattata
p145
sg33
g34
sg35
g36
sg37
(lp146
Vcrunch
p147
aVendeavor
p148
aVassurance
p149
aVsucker-punch
p150
asg43
g12
sg44
Vrun-away
p151
sbag1
(g25
g3
Ntp152
Rp153
(dp154
g29
V019
p155
sg31
VRattata
p156
sg33
g34
sg35
g36
sg37
(lp157
Vcrunch
p158
aVendeavor
p159
aVassurance
p160
aVsucker-punch
p161
asg43
g12
sg44
Vguts
p162
sbasg57
I00
sg58
Vheartgold-soulsilver
p163
sbag1
(g2
g3
Ntp164
Rp165
(dp166
g7
VSpr HGSS Rocket Grunt F.png
p167
sg9
VTeam Rocket Grunt
p168
sg11
g12
sg13
V440
p169
sg15
g16
sg17
g18
sg19
g20
sg21
g139
sg23
(lp170
g1
(g25
g3
Ntp171
Rp172
(dp173
g29
V041
p174
sg31
VZubat
p175
sg33
g72
sg35
g36
sg37
(lp176
Vpoison-fang
p177
aVastonish
p178
aVair-cutter
p179
aVair-slash
p180
asg43
g12
sg44
Vinner-focus
p181
sbag1
(g25
g3
Ntp182
Rp183
(dp184
g29
V023
p185
sg31
VEkans
p186
sg33
g72
sg35
V11
p187
sg37
(lp188
Vswallow
p189
aVgastro-acid
p190
aVmud-bomb
p191
aVgunk-shot
p192
asg43
g12
sg44
Vshed-skin
p193
sbasg57
I00
sg58
g163
sbag1
(g2
g3
Ntp194
Rp195
(dp196
g7
VSpr HGSS Rocket Grunt M.png
p197
sg9
VTeam Rocket Grunt
p198
sg11
g12
sg13
V360
p199
sg15
g97
sg17
g18
sg19
g20
sg21
g139
sg23
(lp200
g1
(g25
g3
Ntp201
Rp202
(dp203
g29
V019
p204
sg31
VRattata
p205
sg33
g34
sg35
g104
sg37
(lp206
Vcrunch
p207
aVendeavor
p208
aVassurance
p209
aVsucker-punch
p210
asg43
g12
sg44
Vrun-away
p211
sbag1
(g25
g3
Ntp212
Rp213
(dp214
g29
V041
p215
sg31
VZubat
p216
sg33
g34
sg35
g36
sg37
(lp217
Vpoison-fang
p218
aVastonish
p219
aVair-cutter
p220
aVair-slash
p221
asg43
g12
sg44
Vinner-focus
p222
sbag1
(g25
g3
Ntp223
Rp224
(dp225
g29
V041
p226
sg31
VZubat
p227
sg33
g34
sg35
g36
sg37
(lp228
Vpoison-fang
p229
aVastonish
p230
aVair-cutter
p231
aVair-slash
p232
asg43
g12
sg44
Vinner-focus
p233
sbasg57
I00
sg58
g163
sbag1
(g2
g3
Ntp234
Rp235
(dp236
g7
VSpr GS Rocket Grunt M.png
p237
sg9
VRocket
p238
sg11
VProton
p239
sg13
V560
p240
sg15
I1
sg17
g18
sg19
g20
sg21
g22
sg23
(lp241
g1
(g25
g3
Ntp242
Rp243
(dp244
g29
I109
sg31
VKoffing
p245
sg33
g34
sg35
V14
p246
sg37
(lp247
VTackle
p248
aVSmog
p249
aVPoison Gas
p250
asg43
g12
sg44
Vlevitate
p251
sbasg57
I01
sg58
g59
sbag1
(g2
g3
Ntp252
Rp253
(dp254
g7
VSpr HGSS Proton.png
p255
sg9
VExecutive
p256
sg11
VProton
p257
sg13
V480
p258
sg15
I2
sg17
g18
sg19
g20
sg21
g139
sg23
(lp259
g1
(g25
g3
Ntp260
Rp261
(dp262
g29
I41
sg31
VZubat
p263
sg33
g34
sg35
V8
p264
sg37
(lp265
VLeech Life
p266
aVSupersonic
p267
asg43
g12
sg44
VInner Focus
p268
sbag1
(g25
g3
Ntp269
Rp270
(dp271
g29
I109
sg31
VKoffing
p272
sg33
g34
sg35
V12
p273
sg37
(lp274
VPoison Gas
p275
aVTackle
p276
aVSmog
p277
aVSmokeScreen
p278
asg43
g12
sg44
VLevitate
p279
sbasg57
I01
sg58
g163
sba.