(lp0
ccopy_reg
_reconstructor
p1
(c__main__
Trainer
p2
c__builtin__
object
p3
Ntp4
Rp5
(dp6
VtSprite
p7
VVSAce Trainer F.png
p8
sVtClass
p9
VAce Trainer
p10
sVtName
p11
VImelda
p12
sVtMoney
p13
V5,500
p14
sVtPokeCount
p15
V2
p16
sVtLocation
p17
Vwiki/Snowbelle_Gym
p18
sVtRegion
p19
VKalos
p20
sVtGame
p21
VSM
p22
sVtPokes
p23
(lp24
g1
(c__main__
FinishedPokemon
p25
g3
Ntp26
Rp27
(dp28
VpDexNo
p29
V215
p30
sVpSpecies
p31
VSneasel
p32
sVpGender
p33
VF
p34
sVpLevel
p35
V54
p36
sVpMoves
p37
(lp38
Vsnatch
p39
aVpunishment
p40
aVice-shard
p41
aVhone-claws
p42
asVpHold
p43
V
p44
sVpAbility
p45
Vkeen-eye
p46
sbag1
(g25
g3
Ntp47
Rp48
(dp49
g29
V091
p50
sg31
VCloyster
p51
sg33
g34
sg35
V55
p52
sg37
(lp53
Vspikes
p54
aVtoxic-spikes
p55
aVshell-smash
p56
aVicicle-crash
p57
asg43
g44
sg45
Vshell-armor
p58
sbasVbossFlag
p59
I00
sVtLongGame
p60
Vsun-moon
p61
sbag1
(g2
g3
Ntp62
Rp63
(dp64
g7
VVSAce Trainer M.png
p65
sg9
VAce Trainer
p66
sg11
VViktor
p67
sg13
V5,500
p68
sg15
g16
sg17
g18
sg19
g20
sg21
g22
sg23
(lp69
g1
(g25
g3
Ntp70
Rp71
(dp72
g29
V225
p73
sg31
VDelibird
p74
sg33
VM
p75
sg35
V54
p76
sg37
(lp77
Vdrill-peck
p78
aVpresent
p79
asg43
g44
sg45
Vhustle
p80
sbag1
(g25
g3
Ntp81
Rp82
(dp83
g29
V473
p84
sg31
VMamoswine
p85
sg33
g75
sg35
V55
p86
sg37
(lp87
Vodor-sleuth
p88
aVice-fang
p89
aVmud-bomb
p90
aVdouble-hit
p91
asg43
g44
sg45
Vsnow-cloak
p92
sbasg59
I00
sg60
g61
sbag1
(g2
g3
Ntp93
Rp94
(dp95
g7
VVSAce Trainer F.png
p96
sg9
VAce Trainer
p97
sg11
VShannon
p98
sg13
V5,400
p99
sg15
V3
p100
sg17
g18
sg19
g20
sg21
g22
sg23
(lp101
g1
(g25
g3
Ntp102
Rp103
(dp104
g29
V615
p105
sg31
VCryogonal
p106
sg33
VU
p107
sg35
V52
p108
sg37
(lp109
Vnight-slash
p110
ag110
aVice-shard
p111
aVfreeze-dry
p112
asg43
g44
sg45
Vlevitate
p113
sbag1
(g25
g3
Ntp114
Rp115
(dp116
g29
V221
p117
sg31
VPiloswine
p118
sg33
g34
sg35
V53
p119
sg37
(lp120
Vmud-sport
p121
aVodor-sleuth
p122
aVice-fang
p123
aVmud-bomb
p124
asg43
g44
sg45
Voblivious
p125
sbag1
(g25
g3
Ntp126
Rp127
(dp128
g29
V124
p129
sg31
VJynx
p130
sg33
g34
sg35
V54
p131
sg37
(lp132
Vwring-out
p133
aVavalanche
p134
aVheart-stamp
p135
aVdraining-kiss
p136
asg43
g44
sg45
Vforewarn
p137
sbasg59
I00
sg60
g61
sbag1
(g2
g3
Ntp138
Rp139
(dp140
g7
VVSAce Trainer M.png
p141
sg9
VAce Trainer
p142
sg11
VTheo
p143
sg13
V5,500
p144
sg15
g16
sg17
g18
sg19
g20
sg21
g22
sg23
(lp145
g1
(g25
g3
Ntp146
Rp147
(dp148
g29
V614
p149
sg31
VBeartic
p150
sg33
g75
sg35
V54
p151
sg37
(lp152
Vbrine
p153
aVaqua-jet
p154
aVicicle-crash
p155
aVplay-nice
p156
asg43
g44
sg45
Vslush-rush
p157
sbag1
(g25
g3
Ntp158
Rp159
(dp160
g29
V584
p161
sg31
VVanilluxe
p162
sg33
g75
sg35
V55
p163
sg37
(lp164
Vicicle-spear
p165
aVavalanche
p166
aVmirror-shot
p167
aVfreeze-dry
p168
asg43
g44
sg45
Vsnow-warning
p169
sbasg59
I00
sg60
g61
sbag1
(g2
g3
Ntp170
Rp171
(dp172
g7
VVSWulfric.png
p173
sg9
VLeader
p174
sg11
VWulfric
p175
sg13
V9,440
p176
sg15
I3
sg17
g18
sg19
g20
sg21
g22
sg23
(lp177
g1
(g25
g3
Ntp178
Rp179
(dp180
g29
I460
sg31
VAbomasnow
p181
sg33
g75
sg35
V56
p182
sg37
(lp183
VIce Beam
p184
aVIce Shard
p185
aVEnergy Ball
p186
asg43
g44
sg45
VSnow Warning
p187
sbag1
(g25
g3
Ntp188
Rp189
(dp190
g29
I615
sg31
VCryogonal
p191
sg33
g107
sg35
V55
p192
sg37
(lp193
VIce Beam
p194
aVConfuse Ray
p195
aVFlash Cannon
p196
aVHail
p197
asg43
g44
sg45
VLevitate
p198
sbag1
(g25
g3
Ntp199
Rp200
(dp201
g29
I713
sg31
VAvalugg
p202
sg33
g75
sg35
V59
p203
sg37
(lp204
VAvalanche
p205
aVCrunch
p206
aVCurse
p207
aVGyro Ball
p208
asg43
g44
sg45
VIce Body
p209
sbasg59
I01
sg60
g61
sba.