(lp0
ccopy_reg
_reconstructor
p1
(c__main__
Trainer
p2
c__builtin__
object
p3
Ntp4
Rp5
(dp6
VtSprite
p7
VSpr DP Ace Trainer M 2.png
p8
sVtClass
p9
VAce Trainer
p10
sVtName
p11
VAnton
p12
sVtMoney
p13
V2340
p14
sVtPokeCount
p15
V1
p16
sVtLocation
p17
Vwiki/Snowpoint_Gym
p18
sVtRegion
p19
VSinnoh
p20
sVtGame
p21
VDP
p22
sVtPokes
p23
(lp24
g1
(c__main__
FinishedPokemon
p25
g3
Ntp26
Rp27
(dp28
VpDexNo
p29
V459
p30
sVpSpecies
p31
VSnover
p32
sVpGender
p33
VM
p34
sVpLevel
p35
V39
p36
sVpMoves
p37
(lp38
Vgrass-whistle
p39
aVsheer-cold
p40
aVice-shard
p41
aVwood-hammer
p42
asVpHold
p43
V
p44
sVpAbility
p45
Vsnow-warning
p46
sbasVbossFlag
p47
I00
sVtLongGame
p48
Vdiamond-pearl
p49
sbag1
(g2
g3
Ntp50
Rp51
(dp52
g7
VSpr DP Ace Trainer F 2.png
p53
sg9
VAce Trainer
p54
sg11
VAlicia
p55
sg13
V2220
p56
sg15
V2
p57
sg17
g18
sg19
g20
sg21
g22
sg23
(lp58
g1
(g25
g3
Ntp59
Rp60
(dp61
g29
V215
p62
sg31
VSneasel
p63
sg33
VF
p64
sg35
V37
p65
sg37
(lp66
Vmetal-claw
p67
aVbeat-up
p68
aVtaunt
p69
aVice-shard
p70
asg43
g44
sg45
Vinner-focus
p71
sbag1
(g25
g3
Ntp72
Rp73
(dp74
g29
V073
p75
sg31
VTentacruel
p76
sg33
g64
sg35
V37
p77
sg37
(lp78
Vwater-pulse
p79
aVwring-out
p80
aVtoxic-spikes
p81
aVpoison-jab
p82
asg43
g44
sg45
Vclear-body
p83
sbasg47
I00
sg48
g49
sbag1
(g2
g3
Ntp84
Rp85
(dp86
g7
VSpr DP Ace Trainer F 2.png
p87
sg9
VAce Trainer
p88
sg11
VSavannah
p89
sg13
V2220
p90
sg15
V3
p91
sg17
g18
sg19
g20
sg21
g22
sg23
(lp92
g1
(g25
g3
Ntp93
Rp94
(dp95
g29
V279
p96
sg31
VPelipper
p97
sg33
g64
sg35
V35
p98
sg37
(lp99
Vroost
p100
aVtailwind
p101
aVpayback
p102
aVfling
p103
asg43
g44
sg45
Vkeen-eye
p104
sbag1
(g25
g3
Ntp105
Rp106
(dp107
g29
V055
p108
sg31
VGolduck
p109
sg33
g64
sg35
V36
p110
sg37
(lp111
Vpsych-up
p112
aVwater-sport
p113
aVwater-pulse
p114
aVzen-headbutt
p115
asg43
g44
sg45
Vcloud-nine
p116
sbag1
(g25
g3
Ntp117
Rp118
(dp119
g29
V208
p120
sg31
VSteelix
p121
sg33
g64
sg35
V37
p122
sg37
(lp123
Vthunder-fang
p124
aVice-fang
p125
aVfire-fang
p126
aVstone-edge
p127
asg43
g44
sg45
Vrock-head
p128
sbasg47
I00
sg48
g49
sbag1
(g2
g3
Ntp129
Rp130
(dp131
g7
VSpr DP Ace Trainer M 2.png
p132
sg9
VAce Trainer
p133
sg11
VSergio
p134
sg13
V2220
p135
sg15
g57
sg17
g18
sg19
g20
sg21
g22
sg23
(lp136
g1
(g25
g3
Ntp137
Rp138
(dp139
g29
V419
p140
sg31
VFloatzel
p141
sg33
g34
sg35
V37
p142
sg37
(lp143
Vwhirlpool
p144
aVwater-sport
p145
aVice-fang
p146
aVaqua-jet
p147
asg43
g44
sg45
Vswift-swim
p148
sbag1
(g25
g3
Ntp149
Rp150
(dp151
g29
V215
p152
sg31
VSneasel
p153
sg33
g34
sg35
V37
p154
sg37
(lp155
Vmetal-claw
p156
aVbeat-up
p157
aVtaunt
p158
aVice-shard
p159
asg43
g44
sg45
Vkeen-eye
p160
sbasg47
I00
sg48
g49
sbag1
(g2
g3
Ntp161
Rp162
(dp163
g7
VSpr DP Ace Trainer F 2.png
p164
sg9
VAce Trainer
p165
sg11
VBrenna
p166
sg13
V2340
p167
sg15
g16
sg17
g18
sg19
g20
sg21
g22
sg23
(lp168
g1
(g25
g3
Ntp169
Rp170
(dp171
g29
V459
p172
sg31
VSnover
p173
sg33
g64
sg35
V39
p174
sg37
(lp175
Vgrass-whistle
p176
aVsheer-cold
p177
aVice-shard
p178
aVwood-hammer
p179
asg43
g44
sg45
Vsnow-warning
p180
sbasg47
I00
sg48
g49
sbag1
(g2
g3
Ntp181
Rp182
(dp183
g7
VSpr DP Ace Trainer M 2.png
p184
sg9
VAce Trainer
p185
sg11
VIsaiah
p186
sg13
V2340
p187
sg15
g16
sg17
g18
sg19
g20
sg21
g22
sg23
(lp188
g1
(g25
g3
Ntp189
Rp190
(dp191
g29
V195
p192
sg31
VQuagsire
p193
sg33
g34
sg35
V39
p194
sg37
(lp195
Vmud-sport
p196
aVmuddy-water
p197
aVmud-shot
p198
aVmud-bomb
p199
asg43
g44
sg45
Vdamp
p200
sbasg47
I00
sg48
g49
sbag1
(g2
g3
Ntp201
Rp202
(dp203
g7
VSpr DP Ace Trainer M 2.png
p204
sg9
VAce Trainer
p205
sg11
VAnton
p206
sg13
V2640
p207
sg15
g16
sg17
g18
sg19
g20
sg21
g22
sg23
(lp208
g1
(g25
g3
Ntp209
Rp210
(dp211
g29
V362
p212
sg31
VGlalie
p213
sg33
g34
sg35
V44
p214
sg37
(lp215
Vcrunch
p216
aVhail
p217
aVsheer-cold
p218
aVice-fang
p219
asg43
g44
sg45
Vice-body
p220
sbasg47
I00
sg48
g49
sbag1
(g2
g3
Ntp221
Rp222
(dp223
g7
VSpr DP Ace Trainer F 2.png
p224
sg9
VAce Trainer
p225
sg11
VAlicia
p226
sg13
V2580
p227
sg15
g57
sg17
g18
sg19
g20
sg21
g22
sg23
(lp228
g1
(g25
g3
Ntp229
Rp230
(dp231
g29
V215
p232
sg31
VSneasel
p233
sg33
g64
sg35
V40
p234
sg37
(lp235
Vmetal-claw
p236
aVbeat-up
p237
aVtaunt
p238
aVice-shard
p239
asg43
g44
sg45
Vkeen-eye
p240
sbag1
(g25
g3
Ntp241
Rp242
(dp243
g29
V215
p244
sg31
VSneasel
p245
sg33
g64
sg35
V43
p246
sg37
(lp247
Vmetal-claw
p248
aVbeat-up
p249
aVtaunt
p250
aVice-shard
p251
asg43
g44
sg45
Vinner-focus
p252
sbasg47
I00
sg48
g49
sbag1
(g2
g3
Ntp253
Rp254
(dp255
g7
VSpr DP Ace Trainer F 2.png
p256
sg9
VAce Trainer
p257
sg11
VSavannah
p258
sg13
V2220
p259
sg15
g91
sg17
g18
sg19
g20
sg21
g22
sg23
(lp260
g1
(g25
g3
Ntp261
Rp262
(dp263
g29
V361
p264
sg31
VSnorunt
p265
sg33
g64
sg35
V39
p266
sg37
(lp267
Vcrunch
p268
aVhail
p269
aVice-shard
p270
aVice-fang
p271
asg43
g44
sg45
Vinner-focus
p272
sbag1
(g25
g3
Ntp273
Rp274
(dp275
g29
V361
p276
sg31
VSnorunt
p277
sg33
g64
sg35
V40
p278
sg37
(lp279
Vcrunch
p280
aVhail
p281
aVice-shard
p282
aVice-fang
p283
asg43
g44
sg45
Vinner-focus
p284
sbag1
(g25
g3
Ntp285
Rp286
(dp287
g29
V362
p288
sg31
VGlalie
p289
sg33
g64
sg35
V42
p290
sg37
(lp291
Vcrunch
p292
aVhail
p293
aVsheer-cold
p294
aVice-fang
p295
asg43
g44
sg45
Vinner-focus
p296
sbasg47
I00
sg48
g49
sbag1
(g2
g3
Ntp297
Rp298
(dp299
g7
VSpr DP Ace Trainer M 2.png
p300
sg9
VAce Trainer
p301
sg11
VSergio
p302
sg13
V2520
p303
sg15
g57
sg17
g18
sg19
g20
sg21
g22
sg23
(lp304
g1
(g25
g3
Ntp305
Rp306
(dp307
g29
V459
p308
sg31
VSnover
p309
sg33
g34
sg35
V41
p310
sg37
(lp311
Vgrass-whistle
p312
aVsheer-cold
p313
aVice-shard
p314
aVwood-hammer
p315
asg43
g44
sg45
Vsnow-warning
p316
sbag1
(g25
g3
Ntp317
Rp318
(dp319
g29
V215
p320
sg31
VSneasel
p321
sg33
g34
sg35
V42
p322
sg37
(lp323
Vmetal-claw
p324
aVbeat-up
p325
aVtaunt
p326
aVice-shard
p327
asg43
g44
sg45
Vinner-focus
p328
sbasg47
I00
sg48
g49
sbag1
(g2
g3
Ntp329
Rp330
(dp331
g7
VSpr DP Ace Trainer F 2.png
p332
sg9
VAce Trainer
p333
sg11
VBrenna
p334
sg13
V2460
p335
sg15
g91
sg17
g18
sg19
g20
sg21
g22
sg23
(lp336
g1
(g25
g3
Ntp337
Rp338
(dp339
g29
V215
p340
sg31
VSneasel
p341
sg33
g64
sg35
V40
p342
sg37
(lp343
Vmetal-claw
p344
aVbeat-up
p345
aVtaunt
p346
aVice-shard
p347
asg43
g44
sg45
Vkeen-eye
p348
sbag1
(g25
g3
Ntp349
Rp350
(dp351
g29
V361
p352
sg31
VSnorunt
p353
sg33
g64
sg35
V40
p354
sg37
(lp355
Vcrunch
p356
aVhail
p357
aVice-shard
p358
aVice-fang
p359
asg43
g44
sg45
Vice-body
p360
sbag1
(g25
g3
Ntp361
Rp362
(dp363
g29
V459
p364
sg31
VSnover
p365
sg33
g64
sg35
V41
p366
sg37
(lp367
Vgrass-whistle
p368
aVsheer-cold
p369
aVice-shard
p370
aVwood-hammer
p371
asg43
g44
sg45
Vsnow-warning
p372
sbasg47
I00
sg48
g49
sbag1
(g2
g3
Ntp373
Rp374
(dp375
g7
VSpr DP Ace Trainer M 2.png
p376
sg9
VAce Trainer
p377
sg11
VIsaiah
p378
sg13
V2640
p379
sg15
g16
sg17
g18
sg19
g20
sg21
g22
sg23
(lp380
g1
(g25
g3
Ntp381
Rp382
(dp383
g29
V221
p384
sg31
VPiloswine
p385
sg33
g34
sg35
V44
p386
sg37
(lp387
Vmud-sport
p388
aVodor-sleuth
p389
aVice-fang
p390
aVmud-bomb
p391
asg43
g44
sg45
Voblivious
p392
sbasg47
I00
sg48
g49
sbag1
(g2
g3
Ntp393
Rp394
(dp395
g7
VSpr DP Candice.png
p396
sg9
VLeader
p397
sg11
VCandice
p398
sg13
V5040
p399
sg15
I4
sg17
g18
sg19
g20
sg21
g22
sg23
(lp400
g1
(g25
g3
Ntp401
Rp402
(dp403
g29
I459
sg31
VSnover
p404
sg33
g64
sg35
V38
p405
sg37
(lp406
VRazor Leaf
p407
aVIce Shard
p408
aVIngrain
p409
aVLeer
p410
asg43
g44
sg45
VSnow Warning
p411
sbag1
(g25
g3
Ntp412
Rp413
(dp414
g29
I215
sg31
VSneasel
p415
sg33
g64
sg35
V38
p416
sg37
(lp417
VFaint Attack
p418
aVSlash
p419
aVTaunt
p420
aVAvalanche
p421
asg43
g44
sg45
VInner Focus
p422
sbag1
(g25
g3
Ntp423
Rp424
(dp425
g29
I308
sg31
VMedicham
p426
sg33
g64
sg35
V40
p427
sg37
(lp428
VForce Palm
p429
aVBulk Up
p430
aVDetect
p431
aVIce Punch
p432
asg43
g44
sg45
VPure Power
p433
sbag1
(g25
g3
Ntp434
Rp435
(dp436
g29
I460
sg31
VAbomasnow
p437
sg33
g64
sg35
V42
p438
sg37
(lp439
VWood Hammer
p440
aVSwagger
p441
aVGrassWhistle
p442
aVAvalanche
p443
asg43
VSitrus Berry
p444
sg45
VSnow Warning
p445
sbasg47
I01
sg48
g49
sbag1
(g2
g3
Ntp446
Rp447
(dp448
g7
VSpr Pt Candice.png
p449
sg9
VLeader
p450
sg11
VCandice
p451
sg13
V5280
p452
sg15
I4
sg17
g18
sg19
g20
sg21
VPt
p453
sg23
(lp454
g1
(g25
g3
Ntp455
Rp456
(dp457
g29
I215
sg31
VSneasel
p458
sg33
g64
sg35
V40
p459
sg37
(lp460
VFaint Attack
p461
aVIce Shard
p462
aVSlash
p463
aVAerial Ace
p464
asg43
g44
sg45
VKeen Eye
p465
sbag1
(g25
g3
Ntp466
Rp467
(dp468
g29
I221
sg31
VPiloswine
p469
sg33
g64
sg35
V40
p470
sg37
(lp471
VHail
p472
aVEarthquake
p473
aVStone Edge
p474
aVAvalanche
p475
asg43
g44
sg45
VOblivious
p476
sbag1
(g25
g3
Ntp477
Rp478
(dp479
g29
I460
sg31
VAbomasnow
p480
sg33
g64
sg35
V42
p481
sg37
(lp482
VWood Hammer
p483
aVFocus Blast
p484
aVWater Pulse
p485
aVAvalanche
p486
asg43
g44
sg45
VSnow Warning
p487
sbag1
(g25
g3
Ntp488
Rp489
(dp490
g29
I478
sg31
VFroslass
p491
sg33
g64
sg35
V44
p492
sg37
(lp493
VShadow Ball
p494
aVDouble Team
p495
aVPsychic
p496
aVBlizzard
p497
asg43
VSitrus Berry
p498
sg45
VSnow Cloak
p499
sbasg47
I01
sg48
Vplatinum
p500
sba.