(lp0
ccopy_reg
_reconstructor
p1
(c__main__
Trainer
p2
c__builtin__
object
p3
Ntp4
Rp5
(dp6
VtSprite
p7
VVSSteven.png
p8
sVtClass
p9
VLeader
p10
sVtName
p11
VSteven Stone
p12
sVtMoney
p13
Vn/a
p14
sVtPokeCount
p15
I1
sVtLocation
p16
Vwiki/Southern_Island
p17
sVtRegion
p18
VHoenn
p19
sVtGame
p20
VSM
p21
sVtPokes
p22
(lp23
g1
(c__main__
FinishedPokemon
p24
g3
Ntp25
Rp26
(dp27
VpDexNo
p28
I375
sVpSpecies
p29
VMetang
p30
sVpGender
p31
VU
p32
sVpLevel
p33
V35
p34
sVpMoves
p35
(lp36
VZen Headbutt
p37
aVBullet Punch
p38
aVPursuit
p39
aVMetal Claw
p40
asVpHold
p41
V
p42
sVpAbility
p43
VClear Body
p44
sbasVbossFlag
p45
I01
sVtLongGame
p46
Vsun-moon
p47
sba.