(lp0
ccopy_reg
_reconstructor
p1
(c__main__
Trainer
p2
c__builtin__
object
p3
Ntp4
Rp5
(dp6
VtSprite
p7
VSpr DP Galactic Grunt M.png
p8
sVtClass
p9
VGalactic Grunt
p10
sVtName
p11
V
p12
sVtMoney
p13
V1520<br/><sup>[[Double Battle]] with the following Grunt</sup>
p14
sVtPokeCount
p15
V2
p16
sVtLocation
p17
Vwiki/Spear_Pillar
p18
sVtRegion
p19
VSinnoh
p20
sVtGame
p21
VDP
p22
sVtPokes
p23
(lp24
g1
(c__main__
FinishedPokemon
p25
g3
Ntp26
Rp27
(dp28
VpDexNo
p29
V269
p30
sVpSpecies
p31
VDustox
p32
sVpGender
p33
VM
p34
sVpLevel
p35
V38
p36
sVpMoves
p37
(lp38
Vprotect
p39
aVmoonlight
p40
aVsilver-wind
p41
aVbug-buzz
p42
asVpHold
p43
g12
sVpAbility
p44
Vshield-dust
p45
sbag1
(g25
g3
Ntp46
Rp47
(dp48
g29
V453
p49
sg31
VCroagunk
p50
sg33
g34
sg35
V38
p51
sg37
(lp52
Vsucker-punch
p53
aVpoison-jab
p54
aVnasty-plot
p55
aVmud-bomb
p56
asg43
g12
sg44
Vanticipation
p57
sbasVbossFlag
p58
I00
sVtLongGame
p59
Vdiamond-pearl
p60
sbag1
(g2
g3
Ntp61
Rp62
(dp63
g7
VSpr DP Galactic Grunt F.png
p64
sg9
VGalactic Grunt
p65
sg11
g12
sg13
V1520<br/><sup>[[Double Battle]] with the previous Grunt</sup>
p66
sg15
g16
sg17
g18
sg19
g20
sg21
g22
sg23
(lp67
g1
(g25
g3
Ntp68
Rp69
(dp70
g29
V434
p71
sg31
VStunky
p72
sg33
VF
p73
sg35
V38
p74
sg37
(lp75
Vfury-swipes
p76
aVslash
p77
aVmemento
p78
aVnight-slash
p79
asg43
g12
sg44
Vaftermath
p80
sbag1
(g25
g3
Ntp81
Rp82
(dp83
g29
V431
p84
sg31
VGlameow
p85
sg33
g73
sg35
V38
p86
sg37
(lp87
Vfake-out
p88
aVassist
p89
aVsucker-punch
p90
aVcaptivate
p91
asg43
g12
sg44
Vown-tempo
p92
sbasg58
I00
sg59
g60
sbag1
(g2
g3
Ntp93
Rp94
(dp95
g7
VSpr DP Galactic Grunt M.png
p96
sg9
VGalactic Grunt
p97
sg11
g12
sg13
V1720<br/><sup>[[Double Battle]] with the following Grunt</sup>
p98
sg15
g16
sg17
g18
sg19
g20
sg21
g22
sg23
(lp99
g1
(g25
g3
Ntp100
Rp101
(dp102
g29
V453
p103
sg31
VCroagunk
p104
sg33
g34
sg35
V39
p105
sg37
(lp106
Vsucker-punch
p107
aVpoison-jab
p108
aVnasty-plot
p109
aVmud-bomb
p110
asg43
g12
sg44
Vanticipation
p111
sbag1
(g25
g3
Ntp112
Rp113
(dp114
g29
V453
p115
sg31
VCroagunk
p116
sg33
g34
sg35
V43
p117
sg37
(lp118
Vsucker-punch
p119
aVpoison-jab
p120
aVnasty-plot
p121
aVmud-bomb
p122
asg43
g12
sg44
Vdry-skin
p123
sbasg58
I00
sg59
g60
sbag1
(g2
g3
Ntp124
Rp125
(dp126
g7
VSpr DP Galactic Grunt F.png
p127
sg9
VGalactic Grunt
p128
sg11
g12
sg13
V1640<br/><sup>[[Double Battle]] with the previous Grunt</sup>
p129
sg15
g16
sg17
g18
sg19
g20
sg21
g22
sg23
(lp130
g1
(g25
g3
Ntp131
Rp132
(dp133
g29
V434
p134
sg31
VStunky
p135
sg33
g73
sg35
V41
p136
sg37
(lp137
Vfury-swipes
p138
aVslash
p139
aVmemento
p140
aVnight-slash
p141
asg43
g12
sg44
Vaftermath
p142
sbag1
(g25
g3
Ntp143
Rp144
(dp145
g29
V431
p146
sg31
VGlameow
p147
sg33
g73
sg35
V41
p148
sg37
(lp149
Vfake-out
p150
aVassist
p151
aVsucker-punch
p152
aVcaptivate
p153
asg43
g12
sg44
Vown-tempo
p154
sbasg58
I00
sg59
g60
sbag1
(g2
g3
Ntp155
Rp156
(dp157
g7
VDP Barry Back.png
p158
sg9
VPokemon Trainer
p159
sg11
VBarry (game)
p160
sg13
Vn/a
p161
sg15
I6
sg17
g18
sg19
g20
sg21
VSM
p162
sg23
(lp163
g1
(g25
g3
Ntp164
Rp165
(dp166
g29
I446
sg31
VMunchlax
p167
sg33
g34
sg35
V40
p168
sg37
(lp169
VStockpile
p170
aVBody Slam
p171
aVScreech
p172
aVSwallow
p173
asg43
g12
sg44
VPickup
p174
sbag1
(g25
g3
Ntp175
Rp176
(dp177
g29
I214
sg31
VHeracross
p178
sg33
g34
sg35
V42
p179
sg37
(lp180
VClose Combat
p181
aVBrick Break
p182
aVNight Slash
p183
aVAerial Ace
p184
asg43
g12
sg44
VSwarm
p185
sbag1
(g25
g3
Ntp186
Rp187
(dp188
g29
I398
sg31
VStaraptor
p189
sg33
g34
sg35
V40
p190
sg37
(lp191
VTake Down
p192
aVQuick Attack
p193
aVClose Combat
p194
aVAerial Ace
p195
asg43
g12
sg44
VIntimidate
p196
sbag1
(g25
g3
Ntp197
Rp198
(dp199
g29
I418
sg31
VBuizel
p200
sg33
g34
sg35
V41
p201
sg37
(lp202
VIron Tail
p203
aVBrick Break
p204
aVPursuit
p205
aVAqua Jet
p206
asg43
g12
sg44
VSwift Swim
p207
sbag1
(g25
g3
Ntp208
Rp209
(dp210
g29
I315
sg31
VRoselia
p211
sg33
g34
sg35
V41
p212
sg37
(lp213
VIngrain
p214
aVGiga Drain
p215
aVToxic
p216
aVGrassWhistle
p217
asg43
g12
sg44
VNatural Cure
p218
sbag1
(g25
g3
Ntp219
Rp220
(dp221
g29
I392
sg31
VInfernape
p222
sg33
g34
sg35
V43
p223
sg37
(lp224
VClose Combat
p225
aVFlame Wheel
p226
aVPunishment
p227
aVWill-O-Wisp
p228
asg43
g12
sg44
VBlaze
p229
sbasg58
I01
sg59
Vsun-moon
p230
sbag1
(g2
g3
Ntp231
Rp232
(dp233
g7
VDP Barry Back.png
p234
sg9
VPokemon Trainer
p235
sg11
VBarry (game)
p236
sg13
Vn/a
p237
sg15
I6
sg17
g18
sg19
g20
sg21
g162
sg23
(lp238
g1
(g25
g3
Ntp239
Rp240
(dp241
g29
I446
sg31
VMunchlax
p242
sg33
g34
sg35
V40
p243
sg37
(lp244
VStockpile
p245
aVBody Slam
p246
aVScreech
p247
aVSwallow
p248
asg43
g12
sg44
VPickup
p249
sbag1
(g25
g3
Ntp250
Rp251
(dp252
g29
I214
sg31
VHeracross
p253
sg33
g34
sg35
V42
p254
sg37
(lp255
VClose Combat
p256
aVBrick Break
p257
aVNight Slash
p258
aVAerial Ace
p259
asg43
g12
sg44
VSwarm
p260
sbag1
(g25
g3
Ntp261
Rp262
(dp263
g29
I398
sg31
VStaraptor
p264
sg33
g34
sg35
V40
p265
sg37
(lp266
VTake Down
p267
aVQuick Attack
p268
aVClose Combat
p269
aVAerial Ace
p270
asg43
g12
sg44
VIntimidate
p271
sbag1
(g25
g3
Ntp272
Rp273
(dp274
g29
I77
sg31
VPonyta
p275
sg33
g34
sg35
V41
p276
sg37
(lp277
VWill-O-Wisp
p278
aVFire Blast
p279
aVStomp
p280
aVTake Down
p281
asg43
g12
sg44
VRun Away
p282
sbag1
(g25
g3
Ntp283
Rp284
(dp285
g29
I315
sg31
VRoselia
p286
sg33
g34
sg35
V41
p287
sg37
(lp288
VIngrain
p289
aVGiga Drain
p290
aVToxic
p291
aVGrassWhistle
p292
asg43
g12
sg44
VNatural Cure
p293
sbag1
(g25
g3
Ntp294
Rp295
(dp296
g29
I395
sg31
VEmpoleon
p297
sg33
g34
sg35
V43
p298
sg37
(lp299
VAerial Ace
p300
aVAqua Jet
p301
aVMetal Claw
p302
aVSwagger
p303
asg43
g12
sg44
VTorrent
p304
sbasg58
I01
sg59
g230
sbag1
(g2
g3
Ntp305
Rp306
(dp307
g7
VDP Barry Back.png
p308
sg9
VPokemon Trainer
p309
sg11
VBarry (game)
p310
sg13
Vn/a
p311
sg15
I6
sg17
g18
sg19
g20
sg21
g162
sg23
(lp312
g1
(g25
g3
Ntp313
Rp314
(dp315
g29
I446
sg31
VMunchlax
p316
sg33
g34
sg35
V40
p317
sg37
(lp318
VStockpile
p319
aVBody Slam
p320
aVScreech
p321
aVSwallow
p322
asg43
g12
sg44
VPickup
p323
sbag1
(g25
g3
Ntp324
Rp325
(dp326
g29
I214
sg31
VHeracross
p327
sg33
g34
sg35
V42
p328
sg37
(lp329
VClose Combat
p330
aVBrick Break
p331
aVNight Slash
p332
aVAerial Ace
p333
asg43
g12
sg44
VSwarm
p334
sbag1
(g25
g3
Ntp335
Rp336
(dp337
g29
I398
sg31
VStaraptor
p338
sg33
g34
sg35
V40
p339
sg37
(lp340
VTake Down
p341
aVQuick Attack
p342
aVClose Combat
p343
aVAerial Ace
p344
asg43
g12
sg44
VIntimidate
p345
sbag1
(g25
g3
Ntp346
Rp347
(dp348
g29
I418
sg31
VBuizel
p349
sg33
g34
sg35
V41
p350
sg37
(lp351
VIron Tail
p352
aVBrick Break
p353
aVPursuit
p354
aVAqua Jet
p355
asg43
g12
sg44
VSwift Swim
p356
sbag1
(g25
g3
Ntp357
Rp358
(dp359
g29
I77
sg31
VPonyta
p360
sg33
g34
sg35
V41
p361
sg37
(lp362
VWill-O-Wisp
p363
aVFire Blast
p364
aVStomp
p365
aVTake Down
p366
asg43
g12
sg44
VRun Away
p367
sbag1
(g25
g3
Ntp368
Rp369
(dp370
g29
I389
sg31
VTorterra
p371
sg33
VU
p372
sg35
V43
p373
sg37
(lp374
VBite
p375
aVLeech Seed
p376
aVSynthesis
p377
aVGiga Drain
p378
asg43
g12
sg44
VOvergrow
p379
sbasg58
I01
sg59
g230
sbag1
(g2
g3
Ntp380
Rp381
(dp382
g7
VSpr DP Cyrus.png
p383
sg9
VGalactic Boss
p384
sg11
VCyrus
p385
sg13
V8640
p386
sg15
I4
sg17
g18
sg19
g20
sg21
g22
sg23
(lp387
g1
(g25
g3
Ntp388
Rp389
(dp390
g29
I430
sg31
VHonchkrow
p391
sg33
g34
sg35
V45
p392
sg37
(lp393
VDrill Peck
p394
aVDark Pulse
p395
aVSteel Wing
p396
aVEmbargo
p397
asg43
g12
sg44
VInsomnia
p398
sbag1
(g25
g3
Ntp399
Rp400
(dp401
g29
I130
sg31
VGyarados
p402
sg33
g34
sg35
V45
p403
sg37
(lp404
VGiga Impact
p405
aVAqua Tail
p406
aVIce Fang
p407
aVEarthquake
p408
asg43
g12
sg44
VIntimidate
p409
sbag1
(g25
g3
Ntp410
Rp411
(dp412
g29
I169
sg31
VCrobat
p413
sg33
g34
sg35
V46
p414
sg37
(lp415
VCross Poison
p416
aVAir Slash
p417
aVBite
p418
aVConfuse Ray
p419
asg43
g12
sg44
VInner Focus
p420
sbag1
(g25
g3
Ntp421
Rp422
(dp423
g29
I461
sg31
VWeavile
p424
sg33
g34
sg35
V48
p425
sg37
(lp426
VNight Slash
p427
aVIce Punch
p428
aVBrick Break
p429
aVX-Scissor
p430
asg43
VSitrus Berry
p431
sg44
VPressure
p432
sbasg58
I01
sg59
g60
sbag1
(g2
g3
Ntp433
Rp434
(dp435
g7
VPt Barry Back.png
p436
sg9
VPokemon Trainer
p437
sg11
VBarry (game)
p438
sg13
Vn/a
p439
sg15
I6
sg17
g18
sg19
g20
sg21
VSM
p440
sg23
(lp441
g1
(g25
g3
Ntp442
Rp443
(dp444
g29
I446
sg31
VMunchlax
p445
sg33
g34
sg35
V40
p446
sg37
(lp447
VBody Slam
p448
aVScreech
p449
aVStockpile
p450
aVSwallow
p451
asg43
g12
sg44
VPickup
p452
sbag1
(g25
g3
Ntp453
Rp454
(dp455
g29
I407
sg31
VRoserade
p456
sg33
g34
sg35
V40
p457
sg37
(lp458
VGiga Drain
p459
aVIngrain
p460
aVGrassWhistle
p461
aVToxic
p462
asg43
g12
sg44
VNatural Cure
p463
sbag1
(g25
g3
Ntp464
Rp465
(dp466
g29
I214
sg31
VHeracross
p467
sg33
g34
sg35
V42
p468
sg37
(lp469
VClose Combat
p470
aVNight Slash
p471
aVBrick Break
p472
aVAerial Ace
p473
asg43
g12
sg44
VSwarm
p474
sbag1
(g25
g3
Ntp475
Rp476
(dp477
g29
I419
sg31
VFloatzel
p478
sg33
g34
sg35
V40
p479
sg37
(lp480
VPursuit
p481
aVIron Tail
p482
aVAqua Jet
p483
aVBrick Break
p484
asg43
g12
sg44
VSwift Swim
p485
sbag1
(g25
g3
Ntp486
Rp487
(dp488
g29
I398
sg31
VStaraptor
p489
sg33
g34
sg35
V42
p490
sg37
(lp491
VQuick Attack
p492
aVClose Combat
p493
aVAerial Ace
p494
aVTake Down
p495
asg43
g12
sg44
VIntimidate
p496
sbag1
(g25
g3
Ntp497
Rp498
(dp499
g29
I392
sg31
VInfernape
p500
sg33
g34
sg35
V44
p501
sg37
(lp502
VClose Combat
p503
aVFlame Wheel
p504
aVPunishment
p505
aVWill-O-Wisp
p506
asg43
VSitrus Berry
p507
sg44
VBlaze
p508
sbasg58
I01
sg59
g230
sbag1
(g2
g3
Ntp509
Rp510
(dp511
g7
VPt Barry Back.png
p512
sg9
VPokemon Trainer
p513
sg11
VBarry (game)
p514
sg13
Vn/a
p515
sg15
I6
sg17
g18
sg19
g20
sg21
g440
sg23
(lp516
g1
(g25
g3
Ntp517
Rp518
(dp519
g29
I446
sg31
VMunchlax
p520
sg33
g34
sg35
V40
p521
sg37
(lp522
VBody Slam
p523
aVScreech
p524
aVStockpile
p525
aVSwallow
p526
asg43
g12
sg44
VPickup
p527
sbag1
(g25
g3
Ntp528
Rp529
(dp530
g29
I78
sg31
VRapidash
p531
sg33
g34
sg35
V40
p532
sg37
(lp533
VFire Blast
p534
aVWill-O-Wisp
p535
aVTake Down
p536
aVStomp
p537
asg43
g12
sg44
VRun Away
p538
sbag1
(g25
g3
Ntp539
Rp540
(dp541
g29
I214
sg31
VHeracross
p542
sg33
g34
sg35
V42
p543
sg37
(lp544
VClose Combat
p545
aVNight Slash
p546
aVBrick Break
p547
aVAerial Ace
p548
asg43
g12
sg44
VSwarm
p549
sbag1
(g25
g3
Ntp550
Rp551
(dp552
g29
I407
sg31
VRoserade
p553
sg33
g34
sg35
V40
p554
sg37
(lp555
VGiga Drain
p556
aVIngrain
p557
aVGrassWhistle
p558
aVToxic
p559
asg43
g12
sg44
VNatural Cure
p560
sbag1
(g25
g3
Ntp561
Rp562
(dp563
g29
I398
sg31
VStaraptor
p564
sg33
g34
sg35
V42
p565
sg37
(lp566
VQuick Attack
p567
aVClose Combat
p568
aVAerial Ace
p569
aVTake Down
p570
asg43
g12
sg44
VIntimidate
p571
sbag1
(g25
g3
Ntp572
Rp573
(dp574
g29
I395
sg31
VEmpoleon
p575
sg33
g34
sg35
V44
p576
sg37
(lp577
VAqua Jet
p578
aVSwagger
p579
aVAerial Ace
p580
aVMetal Claw
p581
asg43
VSitrus Berry
p582
sg44
VTorrent
p583
sbasg58
I01
sg59
g230
sbag1
(g2
g3
Ntp584
Rp585
(dp586
g7
VPt Barry Back.png
p587
sg9
VPokemon Trainer
p588
sg11
VBarry (game)
p589
sg13
Vn/a
p590
sg15
I6
sg17
g18
sg19
g20
sg21
g440
sg23
(lp591
g1
(g25
g3
Ntp592
Rp593
(dp594
g29
I446
sg31
VMunchlax
p595
sg33
g34
sg35
V40
p596
sg37
(lp597
VBody Slam
p598
aVScreech
p599
aVStockpile
p600
aVSwallow
p601
asg43
g12
sg44
VPickup
p602
sbag1
(g25
g3
Ntp603
Rp604
(dp605
g29
I78
sg31
VRapidash
p606
sg33
g34
sg35
V40
p607
sg37
(lp608
VFire Blast
p609
aVWill-O-Wisp
p610
aVTake Down
p611
aVStomp
p612
asg43
g12
sg44
VRun Away
p613
sbag1
(g25
g3
Ntp614
Rp615
(dp616
g29
I214
sg31
VHeracross
p617
sg33
g34
sg35
V42
p618
sg37
(lp619
VClose Combat
p620
aVNight Slash
p621
aVBrick Break
p622
aVAerial Ace
p623
asg43
g12
sg44
VSwarm
p624
sbag1
(g25
g3
Ntp625
Rp626
(dp627
g29
I419
sg31
VFloatzel
p628
sg33
g34
sg35
V40
p629
sg37
(lp630
VPursuit
p631
aVIron Tail
p632
aVAqua Jet
p633
aVBrick Break
p634
asg43
g12
sg44
VSwift Swim
p635
sbag1
(g25
g3
Ntp636
Rp637
(dp638
g29
I398
sg31
VStaraptor
p639
sg33
g34
sg35
V42
p640
sg37
(lp641
VQuick Attack
p642
aVClose Combat
p643
aVAerial Ace
p644
aVTake Down
p645
asg43
g12
sg44
VIntimidate
p646
sbag1
(g25
g3
Ntp647
Rp648
(dp649
g29
I389
sg31
VTorterra
p650
sg33
g34
sg35
V44
p651
sg37
(lp652
VLeech Seed
p653
aVBite
p654
aVSynthesis
p655
aVGiga Drain
p656
asg43
VSitrus Berry
p657
sg44
VOvergrow
p658
sbasg58
I01
sg59
g230
sba.