(lp0
ccopy_reg
_reconstructor
p1
(c__main__
Trainer
p2
c__builtin__
object
p3
Ntp4
Rp5
(dp6
VtSprite
p7
VSpr GS Sage.png
p8
sVtClass
p9
VSage
p10
sVtName
p11
VNico
p12
sVtMoney
p13
V96
p14
sVtPokeCount
p15
V3
p16
sVtLocation
p17
Vwiki/Sprout_Tower
p18
sVtRegion
p19
VJohto
p20
sVtGame
p21
VGS
p22
sVtPokes
p23
(lp24
g1
(c__main__
FinishedPokemon
p25
g3
Ntp26
Rp27
(dp28
VpDexNo
p29
V069
p30
sVpSpecies
p31
VBellsprout
p32
sVpGender
p33
VM
p34
sVpLevel
p35
g16
sVpMoves
p36
(lp37
Vpoison-powder
p38
aVstun-spore
p39
aVsleep-powder
p40
aVsweet-scent
p41
asVpHold
p42
V
p43
sVpAbility
p44
Vchlorophyll
p45
sbag1
(g25
g3
Ntp46
Rp47
(dp48
g29
V069
p49
sg31
VBellsprout
p50
sg33
g34
sg35
g16
sg36
(lp51
Vpoison-powder
p52
aVstun-spore
p53
aVsleep-powder
p54
aVsweet-scent
p55
asg42
g43
sg44
Vchlorophyll
p56
sbag1
(g25
g3
Ntp57
Rp58
(dp59
g29
V069
p60
sg31
VBellsprout
p61
sg33
g34
sg35
g16
sg36
(lp62
Vpoison-powder
p63
aVstun-spore
p64
aVsleep-powder
p65
aVsweet-scent
p66
asg42
g43
sg44
Vchlorophyll
p67
sbasVbossFlag
p68
I00
sVtLongGame
p69
Vgold-silver
p70
sbag1
(g2
g3
Ntp71
Rp72
(dp73
g7
VSpr GS Sage.png
p74
sg9
VSage
p75
sg11
VChow
p76
sg13
V96
p77
sg15
g16
sg17
g18
sg19
g20
sg21
g22
sg23
(lp78
g1
(g25
g3
Ntp79
Rp80
(dp81
g29
V069
p82
sg31
VBellsprout
p83
sg33
g34
sg35
g16
sg36
(lp84
Vpoison-powder
p85
aVstun-spore
p86
aVsleep-powder
p87
aVsweet-scent
p88
asg42
g43
sg44
Vchlorophyll
p89
sbag1
(g25
g3
Ntp90
Rp91
(dp92
g29
V069
p93
sg31
VBellsprout
p94
sg33
g34
sg35
g16
sg36
(lp95
Vpoison-powder
p96
aVstun-spore
p97
aVsleep-powder
p98
aVsweet-scent
p99
asg42
g43
sg44
Vchlorophyll
p100
sbag1
(g25
g3
Ntp101
Rp102
(dp103
g29
V069
p104
sg31
VBellsprout
p105
sg33
g34
sg35
g16
sg36
(lp106
Vpoison-powder
p107
aVstun-spore
p108
aVsleep-powder
p109
aVsweet-scent
p110
asg42
g43
sg44
Vchlorophyll
p111
sbasg68
I00
sg69
g70
sbag1
(g2
g3
Ntp112
Rp113
(dp114
g7
VSpr GS Sage.png
p115
sg9
VSage
p116
sg11
VEdmond
p117
sg13
V96
p118
sg15
g16
sg17
g18
sg19
g20
sg21
g22
sg23
(lp119
g1
(g25
g3
Ntp120
Rp121
(dp122
g29
V069
p123
sg31
VBellsprout
p124
sg33
g34
sg35
g16
sg36
(lp125
Vpoison-powder
p126
aVstun-spore
p127
aVsleep-powder
p128
aVsweet-scent
p129
asg42
g43
sg44
Vchlorophyll
p130
sbag1
(g25
g3
Ntp131
Rp132
(dp133
g29
V069
p134
sg31
VBellsprout
p135
sg33
g34
sg35
g16
sg36
(lp136
Vpoison-powder
p137
aVstun-spore
p138
aVsleep-powder
p139
aVsweet-scent
p140
asg42
g43
sg44
Vchlorophyll
p141
sbag1
(g25
g3
Ntp142
Rp143
(dp144
g29
V069
p145
sg31
VBellsprout
p146
sg33
g34
sg35
g16
sg36
(lp147
Vpoison-powder
p148
aVstun-spore
p149
aVsleep-powder
p150
aVsweet-scent
p151
asg42
g43
sg44
Vchlorophyll
p152
sbasg68
I00
sg69
g70
sbag1
(g2
g3
Ntp153
Rp154
(dp155
g7
VSpr GS Sage.png
p156
sg9
VSage
p157
sg11
VJin
p158
sg13
V192
p159
sg15
V1
p160
sg17
g18
sg19
g20
sg21
g22
sg23
(lp161
g1
(g25
g3
Ntp162
Rp163
(dp164
g29
V069
p165
sg31
VBellsprout
p166
sg33
g34
sg35
V6
p167
sg36
(lp168
Vpoison-powder
p169
aVstun-spore
p170
aVsleep-powder
p171
aVsweet-scent
p172
asg42
g43
sg44
Vchlorophyll
p173
sbasg68
I00
sg69
g70
sbag1
(g2
g3
Ntp174
Rp175
(dp176
g7
VSpr GS Sage.png
p177
sg9
VSage
p178
sg11
VNeal
p179
sg13
V192
p180
sg15
g160
sg17
g18
sg19
g20
sg21
g22
sg23
(lp181
g1
(g25
g3
Ntp182
Rp183
(dp184
g29
V069
p185
sg31
VBellsprout
p186
sg33
g34
sg35
g167
sg36
(lp187
Vpoison-powder
p188
aVstun-spore
p189
aVsleep-powder
p190
aVsweet-scent
p191
asg42
g43
sg44
Vchlorophyll
p192
sbasg68
I00
sg69
g70
sbag1
(g2
g3
Ntp193
Rp194
(dp195
g7
VSpr GS Sage.png
p196
sg9
VSage
p197
sg11
VTroy
p198
sg13
V224
p199
sg15
V2
p200
sg17
g18
sg19
g20
sg21
g22
sg23
(lp201
g1
(g25
g3
Ntp202
Rp203
(dp204
g29
V069
p205
sg31
VBellsprout
p206
sg33
g34
sg35
V7
p207
sg36
(lp208
Vpoison-powder
p209
aVstun-spore
p210
aVsleep-powder
p211
aVsweet-scent
p212
asg42
g43
sg44
Vchlorophyll
p213
sbag1
(g25
g3
Ntp214
Rp215
(dp216
g29
V163
p217
sg31
VHoothoot
p218
sg33
g34
sg35
g207
sg36
(lp219
Vhypnosis
p220
aVreflect
p221
aVdream-eater
p222
aVforesight
p223
asg42
g43
sg44
Vkeen-eye
p224
sbasg68
I00
sg69
g70
sbag1
(g2
g3
Ntp225
Rp226
(dp227
g7
VSpr HGSS Sage.png
p228
sg9
VSage
p229
sg11
VNico
p230
sg13
V144
p231
sg15
g16
sg17
g18
sg19
g20
sg21
VHGSS
p232
sg23
(lp233
g1
(g25
g3
Ntp234
Rp235
(dp236
g29
V069
p237
sg31
VBellsprout
p238
sg33
g34
sg35
g16
sg36
(lp239
Vsweet-scent
p240
aVknock-off
p241
aVwring-out
p242
aVgastro-acid
p243
asg42
g43
sg44
Vchlorophyll
p244
sbag1
(g25
g3
Ntp245
Rp246
(dp247
g29
V069
p248
sg31
VBellsprout
p249
sg33
g34
sg35
g16
sg36
(lp250
Vsweet-scent
p251
aVknock-off
p252
aVwring-out
p253
aVgastro-acid
p254
asg42
g43
sg44
Vchlorophyll
p255
sbag1
(g25
g3
Ntp256
Rp257
(dp258
g29
V069
p259
sg31
VBellsprout
p260
sg33
g34
sg35
g16
sg36
(lp261
Vsweet-scent
p262
aVknock-off
p263
aVwring-out
p264
aVgastro-acid
p265
asg42
g43
sg44
Vchlorophyll
p266
sbasg68
I00
sg69
Vheartgold-soulsilver
p267
sbag1
(g2
g3
Ntp268
Rp269
(dp270
g7
VSpr HGSS Sage.png
p271
sg9
VSage
p272
sg11
VChow
p273
sg13
V144
p274
sg15
g16
sg17
g18
sg19
g20
sg21
g232
sg23
(lp275
g1
(g25
g3
Ntp276
Rp277
(dp278
g29
V069
p279
sg31
VBellsprout
p280
sg33
g34
sg35
g16
sg36
(lp281
Vsweet-scent
p282
aVknock-off
p283
aVwring-out
p284
aVgastro-acid
p285
asg42
g43
sg44
Vchlorophyll
p286
sbag1
(g25
g3
Ntp287
Rp288
(dp289
g29
V069
p290
sg31
VBellsprout
p291
sg33
g34
sg35
g16
sg36
(lp292
Vsweet-scent
p293
aVknock-off
p294
aVwring-out
p295
aVgastro-acid
p296
asg42
g43
sg44
Vchlorophyll
p297
sbag1
(g25
g3
Ntp298
Rp299
(dp300
g29
V069
p301
sg31
VBellsprout
p302
sg33
g34
sg35
g16
sg36
(lp303
Vsweet-scent
p304
aVknock-off
p305
aVwring-out
p306
aVgastro-acid
p307
asg42
g43
sg44
Vchlorophyll
p308
sbasg68
I00
sg69
g267
sbag1
(g2
g3
Ntp309
Rp310
(dp311
g7
VSpr HGSS Sage.png
p312
sg9
VSage
p313
sg11
VEdmond
p314
sg13
V144
p315
sg15
g16
sg17
g18
sg19
g20
sg21
g232
sg23
(lp316
g1
(g25
g3
Ntp317
Rp318
(dp319
g29
V069
p320
sg31
VBellsprout
p321
sg33
g34
sg35
g16
sg36
(lp322
Vsweet-scent
p323
aVknock-off
p324
aVwring-out
p325
aVgastro-acid
p326
asg42
g43
sg44
Vchlorophyll
p327
sbag1
(g25
g3
Ntp328
Rp329
(dp330
g29
V069
p331
sg31
VBellsprout
p332
sg33
g34
sg35
g16
sg36
(lp333
Vsweet-scent
p334
aVknock-off
p335
aVwring-out
p336
aVgastro-acid
p337
asg42
g43
sg44
Vchlorophyll
p338
sbag1
(g25
g3
Ntp339
Rp340
(dp341
g29
V069
p342
sg31
VBellsprout
p343
sg33
g34
sg35
g16
sg36
(lp344
Vsweet-scent
p345
aVknock-off
p346
aVwring-out
p347
aVgastro-acid
p348
asg42
g43
sg44
Vchlorophyll
p349
sbasg68
I00
sg69
g267
sbag1
(g2
g3
Ntp350
Rp351
(dp352
g7
VSpr HGSS Sage.png
p353
sg9
VSage
p354
sg11
VJin
p355
sg13
V288
p356
sg15
g160
sg17
g18
sg19
g20
sg21
g232
sg23
(lp357
g1
(g25
g3
Ntp358
Rp359
(dp360
g29
V069
p361
sg31
VBellsprout
p362
sg33
g34
sg35
g167
sg36
(lp363
Vsweet-scent
p364
aVknock-off
p365
aVwring-out
p366
aVgastro-acid
p367
asg42
g43
sg44
Vchlorophyll
p368
sbasg68
I00
sg69
g267
sbag1
(g2
g3
Ntp369
Rp370
(dp371
g7
VSpr HGSS Sage.png
p372
sg9
VSage
p373
sg11
VNeal
p374
sg13
V288
p375
sg15
g160
sg17
g18
sg19
g20
sg21
g232
sg23
(lp376
g1
(g25
g3
Ntp377
Rp378
(dp379
g29
V069
p380
sg31
VBellsprout
p381
sg33
g34
sg35
g167
sg36
(lp382
Vsweet-scent
p383
aVknock-off
p384
aVwring-out
p385
aVgastro-acid
p386
asg42
g43
sg44
Vchlorophyll
p387
sbasg68
I00
sg69
g267
sbag1
(g2
g3
Ntp388
Rp389
(dp390
g7
VSpr HGSS Sage.png
p391
sg9
VSage
p392
sg11
VTroy
p393
sg13
V336
p394
sg15
g200
sg17
g18
sg19
g20
sg21
g232
sg23
(lp395
g1
(g25
g3
Ntp396
Rp397
(dp398
g29
V069
p399
sg31
VBellsprout
p400
sg33
g34
sg35
g207
sg36
(lp401
Vsweet-scent
p402
aVknock-off
p403
aVwring-out
p404
aVgastro-acid
p405
asg42
g43
sg44
Vchlorophyll
p406
sbag1
(g25
g3
Ntp407
Rp408
(dp409
g29
V163
p410
sg31
VHoothoot
p411
sg33
g34
sg35
g207
sg36
(lp412
Vroost
p413
aVpsycho-shift
p414
aVair-slash
p415
aVzen-headbutt
p416
asg42
g43
sg44
Vkeen-eye
p417
sbasg68
I00
sg69
g267
sbag1
(g2
g3
Ntp418
Rp419
(dp420
g7
VSpr GS Sage.png
p421
sg9
VSage
p422
sg11
VLi
p423
sg13
V320
p424
sg15
I3
sg17
g18
sg19
g20
sg21
g22
sg23
(lp425
g1
(g25
g3
Ntp426
Rp427
(dp428
g29
I69
sg31
VBellsprout
p429
sg33
g34
sg35
g207
sg36
(lp430
VVine Whip
p431
aVGrowth
p432
asg42
g43
sg44
Vchlorophyll
p433
sbag1
(g25
g3
Ntp434
Rp435
(dp436
g29
I69
sg31
VBellsprout
p437
sg33
g34
sg35
g207
sg36
(lp438
VVine Whip
p439
aVGrowth
p440
asg42
g43
sg44
Vchlorophyll
p441
sbag1
(g25
g3
Ntp442
Rp443
(dp444
g29
I163
sg31
VHoothoot
p445
sg33
g34
sg35
V10
p446
sg36
(lp447
VTackle
p448
aVGrowl
p449
aVForesight
p450
asg42
g43
sg44
Vkeen-eye
p451
sbasg68
I01
sg69
g70
sbag1
(g2
g3
Ntp452
Rp453
(dp454
g7
VSpr HGSS Li.png
p455
sg9
VElder
p456
sg11
VLi
p457
sg13
V1200
p458
sg15
I3
sg17
g18
sg19
g20
sg21
g232
sg23
(lp459
g1
(g25
g3
Ntp460
Rp461
(dp462
g29
I69
sg31
VBellsprout
p463
sg33
g34
sg35
g207
sg36
(lp464
VVine Whip
p465
aVGrowth
p466
asg42
g43
sg44
VChlorophyll
p467
sbag1
(g25
g3
Ntp468
Rp469
(dp470
g29
I69
sg31
VBellsprout
p471
sg33
g34
sg35
g207
sg36
(lp472
VVine Whip
p473
aVGrowth
p474
asg42
g43
sg44
VChlorophyll
p475
sbag1
(g25
g3
Ntp476
Rp477
(dp478
g29
I163
sg31
VHoothoot
p479
sg33
g34
sg35
V10
p480
sg36
(lp481
VGrowl
p482
aVHypnosis
p483
aVPeck
p484
asg42
g43
sg44
VInsomnia
p485
sbasg68
I01
sg69
g267
sba.