(lp0
ccopy_reg
_reconstructor
p1
(c__main__
Trainer
p2
c__builtin__
object
p3
Ntp4
Rp5
(dp6
VtSprite
p7
VSpr DP Dragon Tamer.png
p8
sVtClass
p9
VDragon Tamer
p10
sVtName
p11
VDarien
p12
sVtMoney
p13
V1920
p14
sVtPokeCount
p15
V1
p16
sVtLocation
p17
Vwiki/Stark_Mountain
p18
sVtRegion
p19
VSinnoh
p20
sVtGame
p21
VDP
p22
sVtPokes
p23
(lp24
g1
(c__main__
FinishedPokemon
p25
g3
Ntp26
Rp27
(dp28
VpDexNo
p29
V130
p30
sVpSpecies
p31
VGyarados
p32
sVpGender
p33
VM
p34
sVpLevel
p35
V60
p36
sVpMoves
p37
(lp38
Vrain-dance
p39
aVdragon-dance
p40
aVaqua-tail
p41
aVice-fang
p42
asVpHold
p43
V
p44
sVpAbility
p45
Vintimidate
p46
sbasVbossFlag
p47
I00
sVtLongGame
p48
Vdiamond-pearl
p49
sbag1
(g2
g3
Ntp50
Rp51
(dp52
g7
VSpr DP Ace Trainer M 1.png
p53
sg9
VAce Trainer
p54
sg11
VKeenan
p55
sg13
V3420<br><small>Potential [[Double Battle]] with Kassandra</small>
p56
sg15
V2
p57
sg17
g18
sg19
g20
sg21
g22
sg23
(lp58
g1
(g25
g3
Ntp59
Rp60
(dp61
g29
V057
p62
sg31
VPrimeape
p63
sg33
g34
sg35
V57
p64
sg37
(lp65
Vclose-combat
p66
aVassurance
p67
aVfling
p68
aVpunishment
p69
asg43
g44
sg45
Vanger-point
p70
sbag1
(g25
g3
Ntp71
Rp72
(dp73
g29
V324
p74
sg31
VTorkoal
p75
sg33
g34
sg35
V57
p76
sg37
(lp77
Vrapid-spin
p78
aVheat-wave
p79
aViron-defense
p80
aVlava-plume
p81
asg43
g44
sg45
Vdrought
p82
sbasg47
I00
sg48
g49
sbag1
(g2
g3
Ntp83
Rp84
(dp85
g7
VSpr DP Ace Trainer F 1.png
p86
sg9
VAce Trainer
p87
sg11
VKassandra
p88
sg13
V3480<br><small>Potential [[Double Battle]] with Keenan</small>
p89
sg15
g57
sg17
g18
sg19
g20
sg21
g22
sg23
(lp90
g1
(g25
g3
Ntp91
Rp92
(dp93
g29
V234
p94
sg31
VStantler
p95
sg33
VF
p96
sg35
V58
p97
sg37
(lp98
Vcalm-mind
p99
aVme-first
p100
aVzen-headbutt
p101
aVcaptivate
p102
asg43
g44
sg45
Vfrisk
p103
sbag1
(g25
g3
Ntp104
Rp105
(dp106
g29
V455
p107
sg31
VCarnivine
p108
sg33
g96
sg35
V58
p109
sg37
(lp110
Vswallow
p111
aVingrain
p112
aVwring-out
p113
aVpower-whip
p114
asg43
g44
sg45
Vlevitate
p115
sbasg47
I00
sg48
g49
sbag1
(g2
g3
Ntp116
Rp117
(dp118
g7
VSpr DP Ace Trainer M 1.png
p119
sg9
VAce Trainer
p120
sg11
VStefan
p121
sg13
V3420<br><small>Potential [[Double Battle]] with Jasmin</small>
p122
sg15
g57
sg17
g18
sg19
g20
sg21
g22
sg23
(lp123
g1
(g25
g3
Ntp124
Rp125
(dp126
g29
V246
p127
sg31
VLarvitar
p128
sg33
g34
sg35
V57
p129
sg37
(lp130
Vcrunch
p131
aVpayback
p132
aVdark-pulse
p133
aVstone-edge
p134
asg43
g44
sg45
Vguts
p135
sbag1
(g25
g3
Ntp136
Rp137
(dp138
g29
V219
p139
sg31
VMagcargo
p140
sg33
g34
sg35
V57
p141
sg37
(lp142
Vancient-power
p143
aVyawn
p144
aVearth-power
p145
aVlava-plume
p146
asg43
g44
sg45
Vmagma-armor
p147
sbasg47
I00
sg48
g49
sbag1
(g2
g3
Ntp148
Rp149
(dp150
g7
VSpr DP Ace Trainer F 1.png
p151
sg9
VAce Trainer
p152
sg11
VJasmin
p153
sg13
V3540<br><small>Potential [[Double Battle]] with Stefan</small>
p154
sg15
g16
sg17
g18
sg19
g20
sg21
g22
sg23
(lp155
g1
(g25
g3
Ntp156
Rp157
(dp158
g29
V452
p159
sg31
VDrapion
p160
sg33
g96
sg35
V59
p161
sg37
(lp162
Vthunder-fang
p163
aVice-fang
p164
aVfire-fang
p165
aVcross-poison
p166
asg43
g44
sg45
Vbattle-armor
p167
sbasg47
I00
sg48
g49
sbag1
(g2
g3
Ntp168
Rp169
(dp170
g7
VSpr DP Bird Keeper.png
p171
sg9
VBird Keeper
p172
sg11
VKrystal
p173
sg13
V1760<br><small>Potential [[Double Battle]] with Ray</small>
p174
sg15
V3
p175
sg17
g18
sg19
g20
sg21
g22
sg23
(lp176
g1
(g25
g3
Ntp177
Rp178
(dp179
g29
V085
p180
sg31
VDodrio
p181
sg33
g96
sg35
V55
p182
sg37
(lp183
Vuproar
p184
aVendeavor
p185
aVpluck
p186
aVacupressure
p187
asg43
g44
sg45
Vrun-away
p188
sbag1
(g25
g3
Ntp189
Rp190
(dp191
g29
V022
p192
sg31
VFearow
p193
sg33
g96
sg35
V55
p194
sg37
(lp195
Vaerial-ace
p196
aVroost
p197
aVpluck
p198
aVassurance
p199
asg43
g44
sg45
Vkeen-eye
p200
sbag1
(g25
g3
Ntp201
Rp202
(dp203
g29
V430
p204
sg31
VHonchkrow
p205
sg33
g96
sg35
V55
p206
sg37
(lp207
Vastonish
p208
aVdark-pulse
p209
aVnight-slash
p210
aVnasty-plot
p211
asg43
g44
sg45
Vinsomnia
p212
sbasg47
I00
sg48
g49
sbag1
(g2
g3
Ntp213
Rp214
(dp215
g7
VSpr DP Black Belt.png
p216
sg9
VBlack Belt
p217
sg11
VRay
p218
sg13
V1392<br><small>Potential [[Double Battle]] with Krystal</small>
p219
sg15
g175
sg17
g18
sg19
g20
sg21
g22
sg23
(lp220
g1
(g25
g3
Ntp221
Rp222
(dp223
g29
V236
p224
sg31
VTyrogue
p225
sg33
g34
sg35
V53
p226
sg37
(lp227
Vtackle
p228
aVfake-out
p229
aVhelping-hand
p230
asg43
g44
sg45
Vguts
p231
sbag1
(g25
g3
Ntp232
Rp233
(dp234
g29
V105
p235
sg31
VMarowak
p236
sg33
g34
sg35
V57
p237
sg37
(lp238
Vbone-rush
p239
aVfalse-swipe
p240
aVendeavor
p241
aVfling
p242
asg43
g44
sg45
Vlightning-rod
p243
sbag1
(g25
g3
Ntp244
Rp245
(dp246
g29
V286
p247
sg31
VBreloom
p248
sg33
g34
sg35
V58
p249
sg37
(lp250
Vdynamic-punch
p251
aVsky-uppercut
p252
aVforce-palm
p253
aVseed-bomb
p254
asg43
g44
sg45
Veffect-spore
p255
sbasg47
I00
sg48
g49
sbag1
(g2
g3
Ntp256
Rp257
(dp258
g7
VSpr DP Ace Trainer M 1.png
p259
sg9
VAce Trainer
p260
sg11
VAbel
p261
sg13
V3540<br><small>Potential [[Double Battle]] with Monique</small>
p262
sg15
g16
sg17
g18
sg19
g20
sg21
g22
sg23
(lp263
g1
(g25
g3
Ntp264
Rp265
(dp266
g29
V142
p267
sg31
VAerodactyl
p268
sg33
g34
sg35
V59
p269
sg37
(lp270
Vthunder-fang
p271
aVice-fang
p272
aVfire-fang
p273
aViron-head
p274
asg43
g44
sg45
Vrock-head
p275
sbasg47
I00
sg48
g49
sbag1
(g2
g3
Ntp276
Rp277
(dp278
g7
VSpr DP Ace Trainer F 1.png
p279
sg9
VAce Trainer
p280
sg11
VMonique
p281
sg13
V3420<br><small>Potential [[Double Battle]] with Abel</small>
p282
sg15
g57
sg17
g18
sg19
g20
sg21
g22
sg23
(lp283
g1
(g25
g3
Ntp284
Rp285
(dp286
g29
V115
p287
sg31
VKangaskhan
p288
sg33
g96
sg35
V57
p289
sg37
(lp290
Vcrunch
p291
aVfake-out
p292
aVsucker-punch
p293
aVdouble-hit
p294
asg43
g44
sg45
Vscrappy
p295
sbag1
(g25
g3
Ntp296
Rp297
(dp298
g29
V217
p299
sg31
VUrsaring
p300
sg33
g96
sg35
V57
p301
sg37
(lp302
Vsweet-scent
p303
aVfake-tears
p304
aVcovet
p305
aVhammer-arm
p306
asg43
g44
sg45
Vguts
p307
sbasg47
I00
sg48
g49
sbag1
(g2
g3
Ntp308
Rp309
(dp310
g7
VSpr DP Psychic F.png
p311
sg9
VPsychic
p312
sg11
VChelsey
p313
sg13
V1856<br><small>Potential [[Double Battle]] with Sterling</small>
p314
sg15
g57
sg17
g18
sg19
g20
sg21
g22
sg23
(lp315
g1
(g25
g3
Ntp316
Rp317
(dp318
g29
V178
p319
sg31
VXatu
p320
sg33
g96
sg35
V56
p321
sg37
(lp322
Vme-first
p323
aVpower-swap
p324
aVguard-swap
p325
aVominous-wind
p326
asg43
g44
sg45
Vearly-bird
p327
sbag1
(g25
g3
Ntp328
Rp329
(dp330
g29
V429
p331
sg31
VMismagius
p332
sg33
g96
sg35
V58
p333
sg37
(lp334
Vspite
p335
aVastonish
p336
aVmagical-leaf
p337
aVlucky-chant
p338
asg43
g44
sg45
Vlevitate
p339
sbasg47
I00
sg48
g49
sbag1
(g2
g3
Ntp340
Rp341
(dp342
g7
VSpr DP Psychic M.png
p343
sg9
VPsychic
p344
sg11
VSterling
p345
sg13
V1856<br><small>Potential [[Double Battle]] with Chelsey</small>
p346
sg15
g57
sg17
g18
sg19
g20
sg21
g22
sg23
(lp347
g1
(g25
g3
Ntp348
Rp349
(dp350
g29
V343
p351
sg31
VBaltoy
p352
sg33
VU
p353
sg35
V54
p354
sg37
(lp355
Vcosmic-power
p356
aVheal-block
p357
aVpower-trick
p358
aVearth-power
p359
asg43
g44
sg45
Vlevitate
p360
sbag1
(g25
g3
Ntp361
Rp362
(dp363
g29
V326
p364
sg31
VGrumpig
p365
sg33
g34
sg35
V58
p366
sg37
(lp367
Vbounce
p368
aVpayback
p369
aVpower-gem
p370
aVzen-headbutt
p371
asg43
g44
sg45
Vthick-fat
p372
sbasg47
I00
sg48
g49
sbag1
(g2
g3
Ntp373
Rp374
(dp375
g7
VSpr DP Veteran.png
p376
sg9
VVeteran
p377
sg11
VHarlan
p378
sg13
V4480<br><small>Potential [[Double Battle]] with Kenny</small>
p379
sg15
g175
sg17
g18
sg19
g20
sg21
g22
sg23
(lp380
g1
(g25
g3
Ntp381
Rp382
(dp383
g29
V294
p384
sg31
VLoudred
p385
sg33
g34
sg35
V56
p386
sg37
(lp387
Vastonish
p388
ag388
aVhowl
p389
ag389
asg43
g44
sg45
Vsoundproof
p390
sbag1
(g25
g3
Ntp391
Rp392
(dp393
g29
V232
p394
sg31
VDonphan
p395
sg33
g34
sg35
V56
p396
sg37
(lp397
Vassurance
p398
aVgiga-impact
p399
aVthunder-fang
p400
aVfire-fang
p401
asg43
g44
sg45
Vsturdy
p402
sbag1
(g25
g3
Ntp403
Rp404
(dp405
g29
V128
p406
sg31
VTauros
p407
sg33
g34
sg35
V56
p408
sg37
(lp409
Vpursuit
p410
aVpayback
p411
aVgiga-impact
p412
aVzen-headbutt
p413
asg43
g44
sg45
Vintimidate
p414
sbasg47
I00
sg48
g49
sbag1
(g2
g3
Ntp415
Rp416
(dp417
g7
VSpr DP Dragon Tamer.png
p418
sg9
VDragon Tamer
p419
sg11
VKenny
p420
sg13
V1888<br><small>Potential [[Double Battle]] with Harlan</small>
p421
sg15
g57
sg17
g18
sg19
g20
sg21
g22
sg23
(lp422
g1
(g25
g3
Ntp423
Rp424
(dp425
g29
V371
p426
sg31
VBagon
p427
sg33
g34
sg35
V57
p428
sg37
(lp429
Vdragon-breath
p430
aVcrunch
p431
aVdragon-claw
p432
aVzen-headbutt
p433
asg43
g44
sg45
Vrock-head
p434
sbag1
(g25
g3
Ntp435
Rp436
(dp437
g29
V372
p438
sg31
VShelgon
p439
sg33
g34
sg35
V59
p440
sg37
(lp441
Vdragon-breath
p442
aVcrunch
p443
aVdragon-claw
p444
aVzen-headbutt
p445
asg43
g44
sg45
Vrock-head
p446
sbasg47
I00
sg48
g49
sbag1
(g2
g3
Ntp447
Rp448
(dp449
g7
VSpr DP Ace Trainer M 1.png
p450
sg9
VAce Trainer
p451
sg11
VSkylar
p452
sg13
V3420<br><small>Potential [[Double Battle]] with Natasha</small>
p453
sg15
g57
sg17
g18
sg19
g20
sg21
g22
sg23
(lp454
g1
(g25
g3
Ntp455
Rp456
(dp457
g29
V294
p458
sg31
VLoudred
p459
sg33
g34
sg35
V57
p460
sg37
(lp461
Vastonish
p462
ag462
aVhowl
p463
ag463
asg43
g44
sg45
Vsoundproof
p464
sbag1
(g25
g3
Ntp465
Rp466
(dp467
g29
V409
p468
sg31
VRampardos
p469
sg33
g34
sg35
V57
p470
sg37
(lp471
Vendeavor
p472
aVassurance
p473
aVzen-headbutt
p474
aVhead-smash
p475
asg43
g44
sg45
Vmold-breaker
p476
sbasg47
I00
sg48
g49
sbag1
(g2
g3
Ntp477
Rp478
(dp479
g7
VSpr DP Ace Trainer F 1.png
p480
sg9
VAce Trainer
p481
sg11
VNatasha
p482
sg13
V3360<br><small>Potential [[Double Battle]] with Skylar</small>
p483
sg15
g175
sg17
g18
sg19
g20
sg21
g22
sg23
(lp484
g1
(g25
g3
Ntp485
Rp486
(dp487
g29
V206
p488
sg31
VDunsparce
p489
sg33
g96
sg35
V56
p490
sg37
(lp491
Vancient-power
p492
aVyawn
p493
aVendeavor
p494
aVroost
p495
asg43
g44
sg45
Vrun-away
p496
sbag1
(g25
g3
Ntp497
Rp498
(dp499
g29
V123
p500
sg31
VScyther
p501
sg33
g96
sg35
V56
p502
sg37
(lp503
Vnight-slash
p504
aVair-slash
p505
aVx-scissor
p506
aVdouble-hit
p507
asg43
g44
sg45
Vtechnician
p508
sbag1
(g25
g3
Ntp509
Rp510
(dp511
g29
V105
p512
sg31
VMarowak
p513
sg33
g96
sg35
V56
p514
sg37
(lp515
Vbone-rush
p516
aVfalse-swipe
p517
aVendeavor
p518
aVfling
p519
asg43
g44
sg45
Vrock-head
p520
sbasg47
I00
sg48
g49
sbag1
(g2
g3
Ntp521
Rp522
(dp523
g7
VSpr DP Dragon Tamer.png
p524
sg9
VDragon Tamer
p525
sg11
VDrake
p526
sg13
V1824<br><small>[[Double Battle]] with Jarrett</small>
p527
sg15
g175
sg17
g18
sg19
g20
sg21
g22
sg23
(lp528
g1
(g25
g3
Ntp529
Rp530
(dp531
g29
V329
p532
sg31
VVibrava
p533
sg33
g34
sg35
V57
p534
sg37
(lp535
Vsandstorm
p536
aVdragon-breath
p537
aVsand-tomb
p538
ag538
asg43
g44
sg45
Vlevitate
p539
sbag1
(g25
g3
Ntp540
Rp541
(dp542
g29
V148
p543
sg31
VDragonair
p544
sg33
g34
sg35
V57
p545
sg37
(lp546
Vtwister
p547
aVdragon-dance
p548
aVaqua-tail
p549
aVdragon-rush
p550
asg43
g44
sg45
Vshed-skin
p551
sbag1
(g25
g3
Ntp552
Rp553
(dp554
g29
V117
p555
sg31
VSeadra
p556
sg33
g34
sg35
V57
p557
sg37
(lp558
Vtwister
p559
aVdragon-dance
p560
aVbrine
p561
aVdragon-pulse
p562
asg43
g44
sg45
Vsniper
p563
sbasg47
I00
sg48
g49
sbag1
(g2
g3
Ntp564
Rp565
(dp566
g7
VSpr DP Black Belt.png
p567
sg9
VBlack Belt
p568
sg11
VJarrett
p569
sg13
V1416<br><small>[[Double Battle]] with Drake</small>
p570
sg15
g16
sg17
g18
sg19
g20
sg21
g22
sg23
(lp571
g1
(g25
g3
Ntp572
Rp573
(dp574
g29
V068
p575
sg31
VMachamp
p576
sg33
g34
sg35
V59
p577
sg37
(lp578
Vvital-throw
p579
aVcross-chop
p580
aVrevenge
p581
aVwake-up-slap
p582
asg43
g44
sg45
Vno-guard
p583
sbasg47
I00
sg48
g49
sbag1
(g2
g3
Ntp584
Rp585
(dp586
g7
VSpr DP Dragon Tamer.png
p587
sg9
VDragon Tamer
p588
sg11
VDarien
p589
sg13
V1920
p590
sg15
g16
sg17
g18
sg19
g20
sg21
g22
sg23
(lp591
g1
(g25
g3
Ntp592
Rp593
(dp594
g29
V149
p595
sg31
VDragonite
p596
sg33
g34
sg35
V60
p597
sg37
(lp598
Vdragon-dance
p599
aVroost
p600
aVaqua-tail
p601
aVdragon-rush
p602
asg43
g44
sg45
Vinner-focus
p603
sbasg47
I00
sg48
g49
sbag1
(g2
g3
Ntp604
Rp605
(dp606
g7
VSpr DP Ace Trainer M 1.png
p607
sg9
VAce Trainer
p608
sg11
VKeenan
p609
sg13
V3540<br><small>Potential [[Double Battle]] with Kassandra</small>
p610
sg15
g175
sg17
g18
sg19
g20
sg21
g22
sg23
(lp611
g1
(g25
g3
Ntp612
Rp613
(dp614
g29
V057
p615
sg31
VPrimeape
p616
sg33
g34
sg35
V58
p617
sg37
(lp618
Vclose-combat
p619
aVassurance
p620
aVfling
p621
aVpunishment
p622
asg43
g44
sg45
Vvital-spirit
p623
sbag1
(g25
g3
Ntp624
Rp625
(dp626
g29
V354
p627
sg31
VBanette
p628
sg33
g34
sg35
V59
p629
sg37
(lp630
Vsnatch
p631
aVembargo
p632
aVsucker-punch
p633
aVshadow-sneak
p634
asg43
g44
sg45
Vfrisk
p635
sbag1
(g25
g3
Ntp636
Rp637
(dp638
g29
V125
p639
sg31
VElectabuzz
p640
sg33
g34
sg35
V58
p641
sg37
(lp642
Vlight-screen
p643
aVswift
p644
aVshock-wave
p645
aVdischarge
p646
asg43
g44
sg45
Vstatic
p647
sbasg47
I00
sg48
g49
sbag1
(g2
g3
Ntp648
Rp649
(dp650
g7
VSpr DP Ace Trainer F 1.png
p651
sg9
VAce Trainer
p652
sg11
VKassandra
p653
sg13
V3540<br><small>Potential [[Double Battle]] with Keenan</small>
p654
sg15
g175
sg17
g18
sg19
g20
sg21
g22
sg23
(lp655
g1
(g25
g3
Ntp656
Rp657
(dp658
g29
V189
p659
sg31
VJumpluff
p660
sg33
g96
sg35
V58
p661
sg37
(lp662
Vbullet-seed
p663
aVbounce
p664
aVu-turn
p665
aVworry-seed
p666
asg43
g44
sg45
Vchlorophyll
p667
sbag1
(g25
g3
Ntp668
Rp669
(dp670
g29
V181
p671
sg31
VAmpharos
p672
sg33
g96
sg35
V59
p673
sg37
(lp674
Vcharge
p675
aVsignal-beam
p676
aVpower-gem
p677
aVdischarge
p678
asg43
g44
sg45
Vstatic
p679
sbag1
(g25
g3
Ntp680
Rp681
(dp682
g29
V095
p683
sg31
VOnix
p684
sg33
g96
sg35
V58
p685
sg37
(lp686
Vrock-tomb
p687
aVsand-tomb
p688
aVrock-polish
p689
aVstone-edge
p690
asg43
g44
sg45
Vsturdy
p691
sbasg47
I00
sg48
g49
sbag1
(g2
g3
Ntp692
Rp693
(dp694
g7
VSpr DP Ace Trainer M 1.png
p695
sg9
VAce Trainer
p696
sg11
VStefan
p697
sg13
V3660<br><small>Potential [[Double Battle]] with Jasmin</small>
p698
sg15
g57
sg17
g18
sg19
g20
sg21
g22
sg23
(lp699
g1
(g25
g3
Ntp700
Rp701
(dp702
g29
V247
p703
sg31
VPupitar
p704
sg33
g34
sg35
V58
p705
sg37
(lp706
Vcrunch
p707
aVpayback
p708
aVdark-pulse
p709
aVstone-edge
p710
asg43
g44
sg45
Vshed-skin
p711
sbag1
(g25
g3
Ntp712
Rp713
(dp714
g29
V389
p715
sg31
VTorterra
p716
sg33
g34
sg35
V61
p717
sg37
(lp718
Vsynthesis
p719
aVcrunch
p720
aVleaf-storm
p721
aVwood-hammer
p722
asg43
g44
sg45
Vovergrow
p723
sbasg47
I00
sg48
g49
sbag1
(g2
g3
Ntp724
Rp725
(dp726
g7
VSpr DP Ace Trainer F 1.png
p727
sg9
VAce Trainer
p728
sg11
VJasmin
p729
sg13
V3660<br><small>Potential [[Double Battle]] with Stefan</small>
p730
sg15
g16
sg17
g18
sg19
g20
sg21
g22
sg23
(lp731
g1
(g25
g3
Ntp732
Rp733
(dp734
g29
V452
p735
sg31
VDrapion
p736
sg33
g96
sg35
V61
p737
sg37
(lp738
Vthunder-fang
p739
aVice-fang
p740
aVfire-fang
p741
aVcross-poison
p742
asg43
g44
sg45
Vbattle-armor
p743
sbasg47
I00
sg48
g49
sbag1
(g2
g3
Ntp744
Rp745
(dp746
g7
VSpr DP Bird Keeper.png
p747
sg9
VBird Keeper
p748
sg11
VKrystal
p749
sg13
V1888<br><small>Potential [[Double Battle]] with Ray</small>
p750
sg15
g175
sg17
g18
sg19
g20
sg21
g22
sg23
(lp751
g1
(g25
g3
Ntp752
Rp753
(dp754
g29
V397
p755
sg31
VStaravia
p756
sg33
g96
sg35
V55
p757
sg37
(lp758
Vdouble-team
p759
aVendeavor
p760
aVaerial-ace
p761
aVbrave-bird
p762
asg43
g44
sg45
Vintimidate
p763
sbag1
(g25
g3
Ntp764
Rp765
(dp766
g29
V022
p767
sg31
VFearow
p768
sg33
g96
sg35
V57
p769
sg37
(lp770
Vaerial-ace
p771
aVroost
p772
aVpluck
p773
aVassurance
p774
asg43
g44
sg45
Vkeen-eye
p775
sbag1
(g25
g3
Ntp776
Rp777
(dp778
g29
V164
p779
sg31
VNoctowl
p780
sg33
g96
sg35
V59
p781
sg37
(lp782
Vroost
p783
aVpsycho-shift
p784
aVair-slash
p785
aVzen-headbutt
p786
asg43
g44
sg45
Vinsomnia
p787
sbasg47
I00
sg48
g49
sbag1
(g2
g3
Ntp788
Rp789
(dp790
g7
VSpr DP Black Belt.png
p791
sg9
VBlack Belt
p792
sg11
VRay
p793
sg13
V1392<br><small>Potential [[Double Battle]] with Krystal</small>
p794
sg15
g57
sg17
g18
sg19
g20
sg21
g22
sg23
(lp795
g1
(g25
g3
Ntp796
Rp797
(dp798
g29
V286
p799
sg31
VBreloom
p800
sg33
g34
sg35
V58
p801
sg37
(lp802
Vdynamic-punch
p803
aVsky-uppercut
p804
aVforce-palm
p805
aVseed-bomb
p806
asg43
g44
sg45
Vpoison-heal
p807
sbag1
(g25
g3
Ntp808
Rp809
(dp810
g29
V454
p811
sg31
VToxicroak
p812
sg33
g34
sg35
V58
p813
sg37
(lp814
Vsucker-punch
p815
aVpoison-jab
p816
aVnasty-plot
p817
aVmud-bomb
p818
asg43
g44
sg45
Vanticipation
p819
sbasg47
I00
sg48
g49
sbag1
(g2
g3
Ntp820
Rp821
(dp822
g7
VSpr DP Ace Trainer M 1.png
p823
sg9
VAce Trainer
p824
sg11
VAbel
p825
sg13
V3600<br><small>Potential [[Double Battle]] with Monique</small>
p826
sg15
g57
sg17
g18
sg19
g20
sg21
g22
sg23
(lp827
g1
(g25
g3
Ntp828
Rp829
(dp830
g29
V362
p831
sg31
VGlalie
p832
sg33
g34
sg35
V59
p833
sg37
(lp834
Vcrunch
p835
aVhail
p836
aVsheer-cold
p837
aVice-fang
p838
asg43
g44
sg45
Vice-body
p839
sbag1
(g25
g3
Ntp840
Rp841
(dp842
g29
V169
p843
sg31
VCrobat
p844
sg33
g34
sg35
V60
p845
sg37
(lp846
Vastonish
p847
aVair-cutter
p848
aVair-slash
p849
aVcross-poison
p850
asg43
g44
sg45
Vinner-focus
p851
sbasg47
I00
sg48
g49
sbag1
(g2
g3
Ntp852
Rp853
(dp854
g7
VSpr DP Ace Trainer F 1.png
p855
sg9
VAce Trainer
p856
sg11
VMonique
p857
sg13
V3480<br><small>Potential [[Double Battle]] with Abel</small>
p858
sg15
g175
sg17
g18
sg19
g20
sg21
g22
sg23
(lp859
g1
(g25
g3
Ntp860
Rp861
(dp862
g29
V405
p863
sg31
VLuxray
p864
sg33
g96
sg35
V58
p865
sg37
(lp866
Vcharge
p867
ag867
aVthunder-fang
p868
aVdischarge
p869
asg43
g44
sg45
Vintimidate
p870
sbag1
(g25
g3
Ntp871
Rp872
(dp873
g29
V217
p874
sg31
VUrsaring
p875
sg33
g96
sg35
V59
p876
sg37
(lp877
Vsweet-scent
p878
aVfake-tears
p879
aVcovet
p880
aVhammer-arm
p881
asg43
g44
sg45
Vquick-feet
p882
sbag1
(g25
g3
Ntp883
Rp884
(dp885
g29
V472
p886
sg31
VGliscor
p887
sg33
g96
sg35
V58
p888
sg37
(lp889
Vx-scissor
p890
aVthunder-fang
p891
aVice-fang
p892
aVfire-fang
p893
asg43
g44
sg45
Vsand-veil
p894
sbasg47
I00
sg48
g49
sbag1
(g2
g3
Ntp895
Rp896
(dp897
g7
VSpr DP Psychic F.png
p898
sg9
VPsychic
p899
sg11
VChelsey
p900
sg13
V1888<br><small>Potential [[Double Battle]] with Sterling</small>
p901
sg15
g57
sg17
g18
sg19
g20
sg21
g22
sg23
(lp902
g1
(g25
g3
Ntp903
Rp904
(dp905
g29
V337
p906
sg31
VLunatone
p907
sg33
g353
sg35
V57
p908
sg37
(lp909
Vcosmic-power
p910
aVembargo
p911
aVheal-block
p912
aVrock-polish
p913
asg43
g44
sg45
Vlevitate
p914
sbag1
(g25
g3
Ntp915
Rp916
(dp917
g29
V282
p918
sg31
VGardevoir
p919
sg33
g96
sg35
V59
p920
sg37
(lp921
Vmagical-leaf
p922
aVcalm-mind
p923
aVhealing-wish
p924
aVcaptivate
p925
asg43
g44
sg45
Vsynchronize
p926
sbasg47
I00
sg48
g49
sbag1
(g2
g3
Ntp927
Rp928
(dp929
g7
VSpr DP Psychic M.png
p930
sg9
VPsychic
p931
sg11
VSterling
p932
sg13
V1888<br><small>Potential [[Double Battle]] with Chelsey</small>
p933
sg15
g57
sg17
g18
sg19
g20
sg21
g22
sg23
(lp934
g1
(g25
g3
Ntp935
Rp936
(dp937
g29
V338
p938
sg31
VSolrock
p939
sg33
g353
sg35
V57
p940
sg37
(lp941
Vcosmic-power
p942
aVembargo
p943
aVheal-block
p944
aVrock-polish
p945
asg43
g44
sg45
Vlevitate
p946
sbag1
(g25
g3
Ntp947
Rp948
(dp949
g29
V475
p950
sg31
VGallade
p951
sg33
g34
sg35
V59
p952
sg37
(lp953
Vfeint
p954
aVclose-combat
p955
aVnight-slash
p956
aVpsycho-cut
p957
asg43
g44
sg45
Vsteadfast
p958
sbasg47
I00
sg48
g49
sbag1
(g2
g3
Ntp959
Rp960
(dp961
g7
VSpr DP Veteran.png
p962
sg9
VVeteran
p963
sg11
VHarlan
p964
sg13
V4720<br><small>Potential [[Double Battle]] with Kenny</small>
p965
sg15
g175
sg17
g18
sg19
g20
sg21
g22
sg23
(lp966
g1
(g25
g3
Ntp967
Rp968
(dp969
g29
V020
p970
sg31
VRaticate
p971
sg33
g34
sg35
V57
p972
sg37
(lp973
Vcrunch
p974
aVendeavor
p975
aVassurance
p976
aVsucker-punch
p977
asg43
g44
sg45
Vguts
p978
sbag1
(g25
g3
Ntp979
Rp980
(dp981
g29
V426
p982
sg31
VDrifblim
p983
sg33
g34
sg35
V58
p984
sg37
(lp985
Vastonish
p986
ag986
aVpayback
p987
aVominous-wind
p988
asg43
g44
sg45
Vaftermath
p989
sbag1
(g25
g3
Ntp990
Rp991
(dp992
g29
V275
p993
sg31
VShiftry
p994
sg33
g34
sg35
V59
p995
sg37
(lp996
Vrazor-leaf
p997
aVfeint-attack
p998
aVnasty-plot
p999
aVleaf-storm
p1000
asg43
g44
sg45
Vchlorophyll
p1001
sbasg47
I00
sg48
g49
sbag1
(g2
g3
Ntp1002
Rp1003
(dp1004
g7
VSpr DP Dragon Tamer.png
p1005
sg9
VDragon Tamer
p1006
sg11
VKenny
p1007
sg13
V1824<br><small>Potential [[Double Battle]] with Harlan</small>
p1008
sg15
g175
sg17
g18
sg19
g20
sg21
g22
sg23
(lp1009
g1
(g25
g3
Ntp1010
Rp1011
(dp1012
g29
V371
p1013
sg31
VBagon
p1014
sg33
g34
sg35
V57
p1015
sg37
(lp1016
Vdragon-breath
p1017
aVcrunch
p1018
aVdragon-claw
p1019
aVzen-headbutt
p1020
asg43
g44
sg45
Vrock-head
p1021
sbag1
(g25
g3
Ntp1022
Rp1023
(dp1024
g29
V372
p1025
sg31
VShelgon
p1026
sg33
g34
sg35
V57
p1027
sg37
(lp1028
Vdragon-breath
p1029
aVcrunch
p1030
aVdragon-claw
p1031
aVzen-headbutt
p1032
asg43
g44
sg45
Vrock-head
p1033
sbag1
(g25
g3
Ntp1034
Rp1035
(dp1036
g29
V329
p1037
sg31
VVibrava
p1038
sg33
g34
sg35
V57
p1039
sg37
(lp1040
Vsandstorm
p1041
aVdragon-breath
p1042
aVsand-tomb
p1043
ag1043
asg43
g44
sg45
Vlevitate
p1044
sbasg47
I00
sg48
g49
sbag1
(g2
g3
Ntp1045
Rp1046
(dp1047
g7
VSpr DP Ace Trainer M 1.png
p1048
sg9
VAce Trainer
p1049
sg11
VSkylar
p1050
sg13
V3480<br><small>Potential [[Double Battle]] with Natasha</small>
p1051
sg15
g175
sg17
g18
sg19
g20
sg21
g22
sg23
(lp1052
g1
(g25
g3
Ntp1053
Rp1054
(dp1055
g29
V294
p1056
sg31
VLoudred
p1057
sg33
g34
sg35
V58
p1058
sg37
(lp1059
Vastonish
p1060
ag1060
aVhowl
p1061
ag1061
asg43
g44
sg45
Vsoundproof
p1062
sbag1
(g25
g3
Ntp1063
Rp1064
(dp1065
g29
V409
p1066
sg31
VRampardos
p1067
sg33
g34
sg35
V59
p1068
sg37
(lp1069
Vendeavor
p1070
aVassurance
p1071
aVzen-headbutt
p1072
aVhead-smash
p1073
asg43
g44
sg45
Vmold-breaker
p1074
sbag1
(g25
g3
Ntp1075
Rp1076
(dp1077
g29
V279
p1078
sg31
VPelipper
p1079
sg33
g34
sg35
V58
p1080
sg37
(lp1081
Vroost
p1082
aVtailwind
p1083
aVpayback
p1084
aVfling
p1085
asg43
g44
sg45
Vdrizzle
p1086
sbasg47
I00
sg48
g49
sbag1
(g2
g3
Ntp1087
Rp1088
(dp1089
g7
VSpr DP Ace Trainer F 1.png
p1090
sg9
VAce Trainer
p1091
sg11
VNatasha
p1092
sg13
V3480<br><small>Potential [[Double Battle]] with Skylar</small>
p1093
sg15
g175
sg17
g18
sg19
g20
sg21
g22
sg23
(lp1094
g1
(g25
g3
Ntp1095
Rp1096
(dp1097
g29
V040
p1098
sg31
VWigglytuff
p1099
sg33
g96
sg35
V58
p1100
sg37
(lp1101
Vdouble-slap
p1102
aVsing
p1103
aVdisable
p1104
aVdefense-curl
p1105
asg43
g44
sg45
Vcute-charm
p1106
sbag1
(g25
g3
Ntp1107
Rp1108
(dp1109
g29
V282
p1110
sg31
VGardevoir
p1111
sg33
g96
sg35
V59
p1112
sg37
(lp1113
Vmagical-leaf
p1114
aVcalm-mind
p1115
aVhealing-wish
p1116
aVcaptivate
p1117
asg43
g44
sg45
Vtrace
p1118
sbag1
(g25
g3
Ntp1119
Rp1120
(dp1121
g29
V308
p1122
sg31
VMedicham
p1123
sg33
g96
sg35
V58
p1124
sg37
(lp1125
Vcalm-mind
p1126
aVfeint
p1127
aVpower-trick
p1128
aVforce-palm
p1129
asg43
g44
sg45
Vpure-power
p1130
sbasg47
I00
sg48
g49
sbag1
(g2
g3
Ntp1131
Rp1132
(dp1133
g7
VSpr DP Dragon Tamer.png
p1134
sg9
VDragon Tamer
p1135
sg11
VDrake
p1136
sg13
V1824<br><small>[[Double Battle]] with Jarrett</small>
p1137
sg15
g175
sg17
g18
sg19
g20
sg21
g22
sg23
(lp1138
g1
(g25
g3
Ntp1139
Rp1140
(dp1141
g29
V443
p1142
sg31
VGible
p1143
sg33
g34
sg35
V57
p1144
sg37
(lp1145
Vsandstorm
p1146
aVsand-tomb
p1147
aVdragon-claw
p1148
aVdragon-rush
p1149
asg43
g44
sg45
Vsand-veil
p1150
sbag1
(g25
g3
Ntp1151
Rp1152
(dp1153
g29
V444
p1154
sg31
VGabite
p1155
sg33
g34
sg35
V57
p1156
sg37
(lp1157
Vsandstorm
p1158
aVsand-tomb
p1159
aVdragon-claw
p1160
aVdragon-rush
p1161
asg43
g44
sg45
Vsand-veil
p1162
sbag1
(g25
g3
Ntp1163
Rp1164
(dp1165
g29
V148
p1166
sg31
VDragonair
p1167
sg33
g34
sg35
V57
p1168
sg37
(lp1169
Vtwister
p1170
aVdragon-dance
p1171
aVaqua-tail
p1172
aVdragon-rush
p1173
asg43
g44
sg45
Vshed-skin
p1174
sbasg47
I00
sg48
g49
sbag1
(g2
g3
Ntp1175
Rp1176
(dp1177
g7
VSpr DP Black Belt.png
p1178
sg9
VBlack Belt
p1179
sg11
VJarrett
p1180
sg13
V1440<br><small>[[Double Battle]] with Drake</small>
p1181
sg15
g16
sg17
g18
sg19
g20
sg21
g22
sg23
(lp1182
g1
(g25
g3
Ntp1183
Rp1184
(dp1185
g29
V068
p1186
sg31
VMachamp
p1187
sg33
g34
sg35
V60
p1188
sg37
(lp1189
Vvital-throw
p1190
aVcross-chop
p1191
aVrevenge
p1192
aVwake-up-slap
p1193
asg43
g44
sg45
Vguts
p1194
sbasg47
I00
sg48
g49
sbag1
(g2
g3
Ntp1195
Rp1196
(dp1197
g7
VDP Buck Back.png
p1198
sg9
VPokemon Trainer
p1199
sg11
VBuck
p1200
sg13
Vn/a
p1201
sg15
I1
sg17
g18
sg19
g20
sg21
VSM
p1202
sg23
(lp1203
g1
(g25
g3
Ntp1204
Rp1205
(dp1206
g29
I344
sg31
VClaydol
p1207
sg33
g353
sg35
g1
(cmwparserfromhell.wikicode
Wikicode
p1208
g3
Ntp1209
Rp1210
(dp1211
V_nodes
p1212
g1
(cmwparserfromhell.smart_list.smart_list
SmartList
p1213
c__builtin__
list
p1214
(lp1215
g1
(cmwparserfromhell.nodes.text
Text
p1216
g3
Ntp1217
Rp1218
(dp1219
V_value
p1220
V58
p1221
sbatp1222
Rp1223
(dp1224
V_children
p1225
(dp1226
sbsbsg37
(lp1227
VPsychic
p1228
aVLight Screen
p1229
aVReflect
p1230
aVAncientPower
p1231
asg43
g44
sg45
VLevitate
p1232
sbasg47
I01
sg48
Vsun-moon
p1233
sbag1
(g2
g3
Ntp1234
Rp1235
(dp1236
g7
VSpr DP Mars.png
p1237
sg9
VCommander
p1238
sg11
VMars
p1239
sg13
V4800
p1240
sg15
I3
sg17
g18
sg19
g20
sg21
g22
sg23
(lp1241
g1
(g25
g3
Ntp1242
Rp1243
(dp1244
g29
I437
sg31
VBronzong
p1245
sg33
g353
sg35
V58
p1246
sg37
(lp1247
VGyro Ball
p1248
aVExtrasensory
p1249
aVLight Screen
p1250
aVConfuse Ray
p1251
asg43
g44
sg45
VLevitate
p1252
sbag1
(g25
g3
Ntp1253
Rp1254
(dp1255
g29
I42
sg31
VGolbat
p1256
sg33
g96
sg35
V58
p1257
sg37
(lp1258
VAir Cutter
p1259
aVBite
p1260
aVPoison Fang
p1261
aVConfuse Ray
p1262
asg43
g44
sg45
VInner Focus
p1263
sbag1
(g25
g3
Ntp1264
Rp1265
(dp1266
g29
I432
sg31
VPurugly
p1267
sg33
g96
sg35
V60
p1268
sg37
(lp1269
VSlash
p1270
aVShadow Claw
p1271
aVAerial Ace
p1272
aVHypnosis
p1273
asg43
VSitrus Berry
p1274
sg45
VThick Fat
p1275
sbasg47
I01
sg48
g49
sbag1
(g2
g3
Ntp1276
Rp1277
(dp1278
g7
VSpr DP Jupiter.png
p1279
sg9
VCommander
p1280
sg11
VJupiter
p1281
sg13
V4800
p1282
sg15
I3
sg17
g18
sg19
g20
sg21
g22
sg23
(lp1283
g1
(g25
g3
Ntp1284
Rp1285
(dp1286
g29
I437
sg31
VBronzong
p1287
sg33
g353
sg35
V58
p1288
sg37
(lp1289
VGyro Ball
p1290
aVExtrasensory
p1291
aVRock Slide
p1292
aVReflect
p1293
asg43
g44
sg45
VLevitate
p1294
sbag1
(g25
g3
Ntp1295
Rp1296
(dp1297
g29
I42
sg31
VGolbat
p1298
sg33
g96
sg35
V58
p1299
sg37
(lp1300
VSludge Bomb
p1301
aVAir Cutter
p1302
aVGiga Drain
p1303
aVMean Look
p1304
asg43
g44
sg45
VInner Focus
p1305
sbag1
(g25
g3
Ntp1306
Rp1307
(dp1308
g29
I435
sg31
VSkuntank
p1309
sg33
g96
sg35
V60
p1310
sg37
(lp1311
VNight Slash
p1312
aVPoison Jab
p1313
aVFlamethrower
p1314
aVSmokeScreen
p1315
asg43
VSitrus Berry
p1316
sg45
VStench
p1317
sbasg47
I01
sg48
g49
sba.