(lp0
ccopy_reg
_reconstructor
p1
(c__main__
Trainer
p2
c__builtin__
object
p3
Ntp4
Rp5
(dp6
VtSprite
p7
VVSGym Trainer Fighting M.png
p8
sVtClass
p9
VGym Trainer
p10
sVtName
p11
VIan
p12
sVtMoney
p13
V3,072
p14
sVtPokeCount
p15
V2
p16
sVtLocation
p17
Vwiki/Stow-on-Side_Stadium
p18
sVtRegion
p19
VGalar
p20
sVtGame
p21
VSM
p22
sVtPokes
p23
(lp24
g1
(c__main__
FinishedPokemon
p25
g3
Ntp26
Rp27
(dp28
VpDexNo
p29
V759
p30
sVpSpecies
p31
VStufful
p32
sVpGender
p33
VM
p34
sVpLevel
p35
V31
p36
sVpMoves
p37
(lp38
Vhammer-arm
p39
aVpayback
p40
aVbaby-doll-eyes
p41
aVbrutal-swing
p42
asVpHold
p43
V
p44
sVpAbility
p45
Vklutz
p46
sbag1
(g25
g3
Ntp47
Rp48
(dp49
g29
V760
p50
sg31
VBewear
p51
sg33
g34
sg35
V32
p52
sg37
(lp53
Vhammer-arm
p54
aVpayback
p55
aVbaby-doll-eyes
p56
aVbrutal-swing
p57
asg43
g44
sg45
Vklutz
p58
sbasVbossFlag
p59
I00
sVtLongGame
p60
Vsun-moon
p61
sbag1
(g2
g3
Ntp62
Rp63
(dp64
g7
VVSGym Trainer Fighting F.png
p65
sg9
VGym Trainer
p66
sg11
VClaire
p67
sg13
V3,072
p68
sg15
V1
p69
sg17
g18
sg19
g20
sg21
g22
sg23
(lp70
g1
(g25
g3
Ntp71
Rp72
(dp73
g29
V083G
p74
sg31
VFarfetch'd
p75
sg33
VF
p76
sg35
V32
p77
sg37
(lp78
Vair-slash
p79
aVbrave-bird
p80
ag80
aVacrobatics
p81
asg43
g44
sg45
Vinner-focus
p82
sbasg59
I00
sg60
g61
sbag1
(g2
g3
Ntp83
Rp84
(dp85
g7
VVSGym Trainer Fighting M.png
p86
sg9
VGym Trainer
p87
sg11
VSimon
p88
sg13
V3,168
p89
sg15
g16
sg17
g18
sg19
g20
sg21
g22
sg23
(lp90
g1
(g25
g3
Ntp91
Rp92
(dp93
g29
V106
p94
sg31
VHitmonlee
p95
sg33
g34
sg35
V33
p96
sg37
(lp97
Vfeint
p98
aVclose-combat
p99
ag99
aVwide-guard
p100
asg43
g44
sg45
Vreckless
p101
sbag1
(g25
g3
Ntp102
Rp103
(dp104
g29
V107
p105
sg31
VHitmonchan
p106
sg33
g34
sg35
V33
p107
sg37
(lp108
Vclose-combat
p109
aVvacuum-wave
p110
aVbullet-punch
p111
aVquick-guard
p112
asg43
g44
sg45
Vkeen-eye
p113
sbasg59
I00
sg60
g61
sbag1
(g2
g3
Ntp114
Rp115
(dp116
g7
VVSGym Trainer Ghost M.png
p117
sg9
VGym Trainer
p118
sg11
VClive
p119
sg13
V2,976
p120
sg15
V3
p121
sg17
g18
sg19
g20
sg21
g22
sg23
(lp122
g1
(g25
g3
Ntp123
Rp124
(dp125
g29
V710
p126
sg31
VPumpkaboo<!--Small-->
p127
sg33
g34
sg35
V31
p128
sg37
(lp129
VSplash
p130
asg43
g44
sg45
VRun Away
p131
sbag1
(g25
g3
Ntp132
Rp133
(dp134
g29
V708
p135
sg31
VPhantump
p136
sg33
g34
sg35
V31
p137
sg37
(lp138
Vwood-hammer
p139
aVhorn-leech
p140
aVphantom-force
p141
aVforests-curse
p142
asg43
g44
sg45
Vnatural-cure
p143
sbag1
(g25
g3
Ntp144
Rp145
(dp146
g29
V710
p147
sg31
VPumpkaboo<!--Super Size-->
p148
sg33
g34
sg35
V31
p149
sg37
(lp150
g130
asg43
g44
sg45
g131
sbasg59
I00
sg60
g61
sbag1
(g2
g3
Ntp151
Rp152
(dp153
g7
VVSGym Trainer Ghost F.png
p154
sg9
VGym Trainer
p155
sg11
VLynne
p156
sg13
V3,072
p157
sg15
g69
sg17
g18
sg19
g20
sg21
g22
sg23
(lp158
g1
(g25
g3
Ntp159
Rp160
(dp161
g29
V222G
p162
sg31
VCorsola
p163
sg33
g76
sg35
V32
p164
sg37
(lp165
Vlucky-chant
p166
aVaqua-ring
p167
aVpower-gem
p168
aVearth-power
p169
asg43
g44
sg45
Vnatural-cure
p170
sbasg59
I00
sg60
g61
sbag1
(g2
g3
Ntp171
Rp172
(dp173
g7
VVSGym Trainer Ghost M.png
p174
sg9
VGym Trainer
p175
sg11
VRoy
p176
sg13
V3,168
p177
sg15
g16
sg17
g18
sg19
g20
sg21
g22
sg23
(lp178
g1
(g25
g3
Ntp179
Rp180
(dp181
g29
V093
p182
sg31
VHaunter
p183
sg33
g34
sg35
V33
p184
sg37
(lp185
Vpayback
p186
aVsucker-punch
p187
aVdark-pulse
p188
aVhex
p189
asg43
g44
sg45
Vlevitate
p190
sbag1
(g25
g3
Ntp191
Rp192
(dp193
g29
V426
p194
sg31
VDrifblim
p195
sg33
g34
sg35
V33
p196
sg37
(lp197
Vominous-wind
p198
aVhex
p199
aVphantom-force
p200
ag200
asg43
g44
sg45
Vunburden
p201
sbasg59
I00
sg60
g61
sbag1
(g2
g3
Ntp202
Rp203
(dp204
g7
VVSBea.png
p205
sg9
VGym Leader
p206
sg11
VBea
p207
sg13
V5,760
p208
sg15
I4
sg17
g18
sg19
g20
sg21
g22
sg23
(lp209
g1
(g25
g3
Ntp210
Rp211
(dp212
g29
I237
sg31
VHitmontop
p213
sg33
g34
sg35
V34
p214
sg37
(lp215
VTriple Kick
p216
aVQuick Attack
p217
aVCounter
p218
aVRevenge
p219
asg43
g44
sg45
VTechnician
p220
sbag1
(g25
g3
Ntp221
Rp222
(dp223
g29
I675
sg31
VPangoro
p224
sg33
g34
sg35
V34
p225
sg37
(lp226
VBullet Punch
p227
aVCircle Throw
p228
aVNight Slash
p229
aVWork Up
p230
asg43
g44
sg45
VMold Breaker
p231
sbag1
(g25
g3
Ntp232
Rp233
(dp234
g29
I865
sg31
VSirfetch'd
p235
sg33
g34
sg35
V35
p236
sg37
(lp237
VDetect
p238
aVSwords Dance
p239
aVBrutal Swing
p240
aVRevenge
p241
asg43
g44
sg45
VSteadfast
p242
sbag1
(g25
g3
Ntp243
Rp244
(dp245
g29
I68
sg31
VMachamp
p246
sg33
g76
sg35
V36
p247
sg37
(lp248
VScary Face
p249
aVRevenge
p250
aVKnock Off
p251
aVStrength
p252
asg43
g44
sg45
VGuts
p253
sbasg59
I01
sg60
g61
sbag1
(g2
g3
Ntp254
Rp255
(dp256
g7
VVSAllister.png
p257
sg9
VGym Leader
p258
sg11
VAllister
p259
sg13
V5,760
p260
sg15
I4
sg17
g18
sg19
g20
sg21
g22
sg23
(lp261
g1
(g25
g3
Ntp262
Rp263
(dp264
g29
I562
sg31
VYamask
p265
sg33
g34
sg35
V34
p266
sg37
(lp267
VBrutal Swing
p268
aVHex
p269
aVDisable
p270
asg43
g44
sg45
VWandering Spirit
p271
sbag1
(g25
g3
Ntp272
Rp273
(dp274
g29
I778
sg31
VMimikyu
p275
sg33
g34
sg35
V34
p276
sg37
(lp277
VShadow Sneak
p278
aVBaby-Doll Eyes
p279
aVHone Claws
p280
aVSlash
p281
asg43
g44
sg45
VDisguise
p282
sbag1
(g25
g3
Ntp283
Rp284
(dp285
g29
I864
sg31
VCursola
p286
sg33
g76
sg35
V35
p287
sg37
(lp288
VAncient Power
p289
aVCurse
p290
aVHex
p291
asg43
g44
sg45
VWeak Armor
p292
sbag1
(g25
g3
Ntp293
Rp294
(dp295
g29
I94
sg31
VGengar
p296
sg33
g34
sg35
V36
p297
sg37
(lp298
VVenoshock
p299
aVHex
p300
aVHypnosis
p301
aVPayback
p302
asg43
g44
sg45
VCursed Body
p303
sbasg59
I01
sg60
g61
sba.