(lp0
ccopy_reg
_reconstructor
p1
(c__main__
Trainer
p2
c__builtin__
object
p3
Ntp4
Rp5
(dp6
VtSprite
p7
VSpr B2W2 Backpacker M.png
p8
sVtClass
p9
VBackpacker
p10
sVtName
p11
VBoone
p12
sVtMoney
p13
g1
(cmwparserfromhell.wikicode
Wikicode
p14
g3
Ntp15
Rp16
(dp17
V_nodes
p18
g1
(cmwparserfromhell.smart_list.smart_list
SmartList
p19
c__builtin__
list
p20
(lp21
g1
(cmwparserfromhell.nodes.text
Text
p22
g3
Ntp23
Rp24
(dp25
V_value
p26
V864
p27
sbatp28
Rp29
(dp30
V_children
p31
(dp32
sbsbsVtPokeCount
p33
V2
p34
sVtLocation
p35
Vwiki/Strange_House
p36
sVtRegion
p37
VUnova
p38
sVtGame
p39
VB2W2
p40
sVtPokes
p41
(lp42
g1
(c__main__
FinishedPokemon
p43
g3
Ntp44
Rp45
(dp46
VpDexNo
p47
V322
p48
sVpSpecies
p49
VNumel
p50
sVpGender
p51
VM
p52
sVpLevel
p53
V36
p54
sVpMoves
p55
(lp56
Vyawn
p57
aVearth-power
p58
aVlava-plume
p59
aVflame-burst
p60
asVpHold
p61
V
p62
sVpAbility
p63
Vsimple
p64
sbag1
(g43
g3
Ntp65
Rp66
(dp67
g47
V561
p68
sg49
VSigilyph
p69
sg51
g52
sg53
V36
p70
sg55
(lp71
Vmiracle-eye
p72
aVtailwind
p73
aVair-slash
p74
aVsynchronoise
p75
asg61
g62
sg63
Vwonder-skin
p76
sbasVbossFlag
p77
I00
sVtLongGame
p78
Vblack-2-white-2
p79
sbag1
(g2
g3
Ntp80
Rp81
(dp82
g7
VSpr B2W2 Psychic F.png
p83
sg9
VPsychic
p84
sg11
VLynette
p85
sg13
g1
(g14
g3
Ntp86
Rp87
(dp88
g18
g1
(g19
g20
(lp89
g1
(g22
g3
Ntp90
Rp91
(dp92
g26
V1152
p93
sbatp94
Rp95
(dp96
g31
(dp97
sbsbsg33
V3
p98
sg35
g36
sg37
g38
sg39
g40
sg41
(lp99
g1
(g43
g3
Ntp100
Rp101
(dp102
g47
V425
p103
sg49
VDrifloon
p104
sg51
VF
p105
sg53
V36
p106
sg55
(lp107
Vastonish
p108
aVpayback
p109
aVominous-wind
p110
aVhex
p111
asg61
g62
sg63
Vunburden
p112
sbag1
(g43
g3
Ntp113
Rp114
(dp115
g47
V325
p116
sg49
VSpoink
p117
sg51
g105
sg53
V36
p118
sg55
(lp119
Vpayback
p120
aVpower-gem
p121
aVzen-headbutt
p122
aVpsyshock
p123
asg61
g62
sg63
Vown-tempo
p124
sbag1
(g43
g3
Ntp125
Rp126
(dp127
g47
V426
p128
sg49
VDrifblim
p129
sg51
g105
sg53
V36
p130
sg55
(lp131
Vastonish
p132
aVpayback
p133
aVominous-wind
p134
aVhex
p135
asg61
g62
sg63
Vunburden
p136
sbasg77
I00
sg78
g79
sba.