(lp0
ccopy_reg
_reconstructor
p1
(c__main__
Trainer
p2
c__builtin__
object
p3
Ntp4
Rp5
(dp6
VtSprite
p7
VSpr BW Waiter.png
p8
sVtClass
p9
VWaiter
p10
sVtName
p11
VMaxwell
p12
sVtMoney
p13
V440
p14
sVtPokeCount
p15
V1
p16
sVtLocation
p17
Vwiki/Striaton_Gym
p18
sVtRegion
p19
VUnova
p20
sVtGame
p21
VBW
p22
sVtPokes
p23
(lp24
g1
(c__main__
FinishedPokemon
p25
g3
Ntp26
Rp27
(dp28
VpDexNo
p29
V506
p30
sVpSpecies
p31
VLillipup
p32
sVpGender
p33
VM
p34
sVpLevel
p35
V11
p36
sVpMoves
p37
(lp38
Vlast-resort
p39
aVgiga-impact
p40
aVretaliate
p41
aVwork-up
p42
asVpHold
p43
V
p44
sVpAbility
p45
Vvital-spirit
p46
sbasVbossFlag
p47
I00
sVtLongGame
p48
Vblack-white
p49
sbag1
(g2
g3
Ntp50
Rp51
(dp52
g7
VSpr BW Waitress.png
p53
sg9
VWaitress
p54
sg11
VTia
p55
sg13
V400
p56
sg15
V2
p57
sg17
g18
sg19
g20
sg21
g22
sg23
(lp58
g1
(g25
g3
Ntp59
Rp60
(dp61
g29
V504
p62
sg31
VPatrat
p63
sg33
VF
p64
sg35
V10
p65
sg37
(lp66
Vbaton-pass
p67
aVcrunch
p68
aVafter-you
p69
aVwork-up
p70
asg43
g44
sg45
Vrun-away
p71
sbag1
(g25
g3
Ntp72
Rp73
(dp74
g29
V509
p75
sg31
VPurrloin
p76
sg33
g64
sg35
V10
p77
sg37
(lp78
Vnight-slash
p79
aVnasty-plot
p80
aVcaptivate
p81
aVhone-claws
p82
asg43
g44
sg45
Vlimber
p83
sbasg47
I00
sg48
g49
sbag1
(g2
g3
Ntp84
Rp85
(dp86
g7
VSpr BW Chili.png
p87
sg9
VLeader
p88
sg11
VChili
p89
sg13
V1680
p90
sg15
I2
sg17
g18
sg19
g20
sg21
g22
sg23
(lp91
g1
(g25
g3
Ntp92
Rp93
(dp94
g29
I506
sg31
VLillipup
p95
sg33
g34
sg35
V12
p96
sg37
(lp97
VBite
p98
aVWork Up
p99
asg43
g44
sg45
VPickup
p100
sbag1
(g25
g3
Ntp101
Rp102
(dp103
g29
I513
sg31
VPansear
p104
sg33
g34
sg35
V14
p105
sg37
(lp106
VIncinerate
p107
aVWork Up
p108
asg43
g44
sg45
VGluttony
p109
sbasg47
I01
sg48
g49
sbag1
(g2
g3
Ntp110
Rp111
(dp112
g7
VSpr BW Cress.png
p113
sg9
VLeader
p114
sg11
VCress
p115
sg13
V1680
p116
sg15
I2
sg17
g18
sg19
g20
sg21
g22
sg23
(lp117
g1
(g25
g3
Ntp118
Rp119
(dp120
g29
I506
sg31
VLillipup
p121
sg33
g34
sg35
V12
p122
sg37
(lp123
VBite
p124
aVWork Up
p125
asg43
g44
sg45
VPickup
p126
sbag1
(g25
g3
Ntp127
Rp128
(dp129
g29
I515
sg31
VPanpour
p130
sg33
g34
sg35
V14
p131
sg37
(lp132
VWater Gun
p133
aVWork Up
p134
asg43
g44
sg45
VGluttony
p135
sbasg47
I01
sg48
g49
sbag1
(g2
g3
Ntp136
Rp137
(dp138
g7
VSpr BW Cilan.png
p139
sg9
VLeader
p140
sg11
VCilan
p141
sg13
V1680
p142
sg15
I2
sg17
g18
sg19
g20
sg21
g22
sg23
(lp143
g1
(g25
g3
Ntp144
Rp145
(dp146
g29
I506
sg31
VLillipup
p147
sg33
g34
sg35
V12
p148
sg37
(lp149
VBite
p150
aVWork Up
p151
asg43
g44
sg45
VPickup
p152
sbag1
(g25
g3
Ntp153
Rp154
(dp155
g29
I511
sg31
VPansage
p156
sg33
g34
sg35
V14
p157
sg37
(lp158
VVine Whip
p159
aVWork Up
p160
asg43
g44
sg45
VGluttony
p161
sbasg47
I01
sg48
g49
sba.