(lp0
ccopy_reg
_reconstructor
p1
(c__main__
Trainer
p2
c__builtin__
object
p3
Ntp4
Rp5
(dp6
VtSprite
p7
VSpr B2W2 Ace Trainer M.png
p8
sVtClass
p9
VAce Trainer
p10
sVtName
p11
VDusty
p12
sVtMoney
p13
g1
(cmwparserfromhell.wikicode
Wikicode
p14
g3
Ntp15
Rp16
(dp17
V_nodes
p18
g1
(cmwparserfromhell.smart_list.smart_list
SmartList
p19
c__builtin__
list
p20
(lp21
g1
(cmwparserfromhell.nodes.text
Text
p22
g3
Ntp23
Rp24
(dp25
V_value
p26
V3840
p27
sbatp28
Rp29
(dp30
V_children
p31
(dp32
sbsbsVtPokeCount
p33
V4
p34
sVtLocation
p35
Vwiki/Striaton_City
p36
sVtRegion
p37
VUnova
p38
sVtGame
p39
VB2W2
p40
sVtPokes
p41
(lp42
g1
(c__main__
FinishedPokemon
p43
g3
Ntp44
Rp45
(dp46
VpDexNo
p47
V479
p48
sVpSpecies
p49
VRotom
p50
sVpGender
p51
VU
p52
sVpLevel
p53
V64
p54
sVpMoves
p55
(lp56
Vdischarge
p57
aVominous-wind
p58
aVelectro-ball
p59
aVhex
p60
asVpHold
p61
V
p62
sVpAbility
p63
Vlevitate
p64
sbag1
(g43
g3
Ntp65
Rp66
(dp67
g47
V110
p68
sg49
VWeezing
p69
sg51
VM
p70
sg53
V64
p71
sg55
(lp72
Vmemento
p73
aVassurance
p74
aVdouble-hit
p75
aVclear-smog
p76
asg61
g62
sg63
Vlevitate
p77
sbag1
(g43
g3
Ntp78
Rp79
(dp80
g47
V094
p81
sg49
VGengar
p82
sg51
g70
sg53
V64
p83
sg55
(lp84
Vpayback
p85
aVsucker-punch
p86
aVdark-pulse
p87
aVhex
p88
asg61
g62
sg63
Vcursed-body
p89
sbag1
(g43
g3
Ntp90
Rp91
(dp92
g47
V604
p93
sg49
VEelektross
p94
sg51
g70
sg53
V64
p95
sg55
(lp96
Vacid
p97
aVcrunch
p98
aVcrush-claw
p99
aVdischarge
p100
asg61
g62
sg63
Vlevitate
p101
sbasVbossFlag
p102
I00
sVtLongGame
p103
Vblack-2-white-2
p104
sbag1
(g2
g3
Ntp105
Rp106
(dp107
g7
VSpr BW Cheren.png
p108
sg9
VPokemon Trainer
p109
sg11
V000
p110
sg13
V800
p111
sg33
I2
sg35
g36
sg37
g38
sg39
VBW
p112
sg41
(lp113
g1
(g43
g3
Ntp114
Rp115
(dp116
g47
I498
sg49
VTepig
p117
sg51
g70
sg53
V8
p118
sg55
(lp119
VTackle
p120
aVTail Whip
p121
aVEmber
p122
asg61
VOran Berry
p123
sg63
VBlaze
p124
sbag1
(g43
g3
Ntp125
Rp126
(dp127
g47
I509
sg49
VPurrloin
p128
sg51
g70
sg53
g118
sg55
(lp129
VScratch
p130
aVGrowl
p131
aVAssist
p132
asg61
g62
sg63
VUnburden
p133
sbasg102
I01
sg103
Vblack-white
p134
sbag1
(g2
g3
Ntp135
Rp136
(dp137
g7
VSpr BW Cheren.png
p138
sg9
VPokemon Trainer
p139
sg11
V000
p140
sg13
V800
p141
sg33
I2
sg35
g36
sg37
g38
sg39
g112
sg41
(lp142
g1
(g43
g3
Ntp143
Rp144
(dp145
g47
I501
sg49
VOshawott
p146
sg51
g70
sg53
g118
sg55
(lp147
VTackle
p148
aVTail Whip
p149
aVWater Gun
p150
asg61
VOran Berry
p151
sg63
VTorrent
p152
sbag1
(g43
g3
Ntp153
Rp154
(dp155
g47
I509
sg49
VPurrloin
p156
sg51
g70
sg53
g118
sg55
(lp157
VScratch
p158
aVGrowl
p159
aVAssist
p160
asg61
g62
sg63
VUnburden
p161
sbasg102
I01
sg103
g134
sbag1
(g2
g3
Ntp162
Rp163
(dp164
g7
VSpr BW Cheren.png
p165
sg9
VPokemon Trainer
p166
sg11
V000
p167
sg13
V800
p168
sg33
I2
sg35
g36
sg37
g38
sg39
g112
sg41
(lp169
g1
(g43
g3
Ntp170
Rp171
(dp172
g47
I495
sg49
VSnivy
p173
sg51
g70
sg53
g118
sg55
(lp174
VTackle
p175
aVLeer
p176
aVVine Whip
p177
asg61
VOran Berry
p178
sg63
VOvergrow
p179
sbag1
(g43
g3
Ntp180
Rp181
(dp182
g47
I509
sg49
VPurrloin
p183
sg51
g70
sg53
g118
sg55
(lp184
VScratch
p185
aVGrowl
p186
aVAssist
p187
asg61
g62
sg63
VUnburden
p188
sbasg102
I01
sg103
g134
sbag1
(g2
g3
Ntp189
Rp190
(dp191
g7
V{{#switch: {{#expr: {{#time: H}} mod 3}}|0=B2W2 Cilan Back.png|1|2=Spr B2W2 Cilan.png}}
p192
sg9
VPokemon Trainer
p193
sg11
VCilan
p194
sg13
g1
(g14
g3
Ntp195
Rp196
(dp197
g18
g1
(g19
g20
(lp198
g1
(g22
g3
Ntp199
Rp200
(dp201
g26
V16080
p202
sbag1
(cmwparserfromhell.nodes.template
Template
p203
g3
Ntp204
Rp205
(dp206
V_name
p207
g1
(g14
g3
Ntp208
Rp209
(dp210
g18
g1
(g19
g20
(lp211
g1
(g22
g3
Ntp212
Rp213
(dp214
g26
Vtt
p215
sbatp216
Rp217
(dp218
g31
(dp219
sbsbsV_params
p220
(lp221
g1
(cmwparserfromhell.nodes.extras.parameter
Parameter
p222
g3
Ntp223
Rp224
(dp225
g207
g1
(g14
g3
Ntp226
Rp227
(dp228
g18
g1
(g19
g20
(lp229
g1
(g22
g3
Ntp230
Rp231
(dp232
g26
V1
p233
sbatp234
Rp235
(dp236
g31
(dp237
sbsbsg26
g1
(g14
g3
Ntp238
Rp239
(dp240
g18
g1
(g19
g20
(lp241
g1
(g22
g3
Ntp242
Rp243
(dp244
g26
V*
p245
sbatp246
Rp247
(dp248
g31
(dp249
sbsbsV_showkey
p250
I00
sbag1
(g222
g3
Ntp251
Rp252
(dp253
g207
g1
(g14
g3
Ntp254
Rp255
(dp256
g18
g1
(g19
g20
(lp257
g1
(g22
g3
Ntp258
Rp259
(dp260
g26
V2
p261
sbatp262
Rp263
(dp264
g31
(dp265
sbsbsg26
g1
(g14
g3
Ntp266
Rp267
(dp268
g18
g1
(g19
g20
(lp269
g1
(g22
g3
Ntp270
Rp271
(dp272
g26
Vcombined reward from both tag-team partners
p273
sbatp274
Rp275
(dp276
g31
(dp277
sbsbsg250
I00
sbasbatp278
Rp279
(dp280
g31
(dp281
sbsbsg33
I3
sg35
g36
sg37
g38
sg39
g40
sg41
(lp282
g1
(g43
g3
Ntp283
Rp284
(dp285
g47
I556
sg49
VMaractus
p286
sg51
g70
sg53
g1
(g14
g3
Ntp287
Rp288
(dp289
g18
g1
(g19
g20
(lp290
g1
(g22
g3
Ntp291
Rp292
(dp293
g26
V65
p294
sbatp295
Rp296
(dp297
g31
(dp298
sbsbsg55
(lp299
VPetal Dance
p300
aVCotton Guard
p301
aVSucker Punch
p302
aVPoison Jab
p303
asg61
VMuscle Band
p304
sg63
VWater Absorb
p305
sbag1
(g43
g3
Ntp306
Rp307
(dp308
g47
I598
sg49
VFerrothorn
p309
sg51
g70
sg53
g1
(g14
g3
Ntp310
Rp311
(dp312
g18
g1
(g19
g20
(lp313
g1
(g22
g3
Ntp314
Rp315
(dp316
g26
V65
p317
sbatp318
Rp319
(dp320
g31
(dp321
sbsbsg55
(lp322
VPower Whip
p323
aVLeech Seed
p324
aVGyro Ball
p325
aVCurse
p326
asg61
VLeftovers
p327
sg63
VIron Barbs
p328
sbag1
(g43
g3
Ntp329
Rp330
(dp331
g47
I512
sg49
VSimisage
p332
sg51
g70
sg53
g1
(g14
g3
Ntp333
Rp334
(dp335
g18
g1
(g19
g20
(lp336
g1
(g22
g3
Ntp337
Rp338
(dp339
g26
V67
p340
sbatp341
Rp342
(dp343
g31
(dp344
sbsbsg55
(lp345
VRock Slide
p346
aVCrunch
p347
aVEnergy Ball
p348
aVWork Up
p349
asg61
VLife Orb
p350
sg63
VGluttony
p351
sbasg102
I01
sg103
g104
sbag1
(g2
g3
Ntp352
Rp353
(dp354
g7
V{{#switch: {{#expr: {{#time: H}} mod 3}}|1=B2W2 Chili Back.png|0|2=Spr B2W2 Chili.png}}
p355
sg9
VPokemon Trainer
p356
sg11
VChili
p357
sg13
g1
(g14
g3
Ntp358
Rp359
(dp360
g18
g1
(g19
g20
(lp361
g1
(g22
g3
Ntp362
Rp363
(dp364
g26
V16080
p365
sbag1
(g203
g3
Ntp366
Rp367
(dp368
g207
g1
(g14
g3
Ntp369
Rp370
(dp371
g18
g1
(g19
g20
(lp372
g1
(g22
g3
Ntp373
Rp374
(dp375
g26
Vtt
p376
sbatp377
Rp378
(dp379
g31
(dp380
sbsbsg220
(lp381
g1
(g222
g3
Ntp382
Rp383
(dp384
g207
g1
(g14
g3
Ntp385
Rp386
(dp387
g18
g1
(g19
g20
(lp388
g1
(g22
g3
Ntp389
Rp390
(dp391
g26
V1
p392
sbatp393
Rp394
(dp395
g31
(dp396
sbsbsg26
g1
(g14
g3
Ntp397
Rp398
(dp399
g18
g1
(g19
g20
(lp400
g1
(g22
g3
Ntp401
Rp402
(dp403
g26
g245
sbatp404
Rp405
(dp406
g31
(dp407
sbsbsg250
I00
sbag1
(g222
g3
Ntp408
Rp409
(dp410
g207
g1
(g14
g3
Ntp411
Rp412
(dp413
g18
g1
(g19
g20
(lp414
g1
(g22
g3
Ntp415
Rp416
(dp417
g26
V2
p418
sbatp419
Rp420
(dp421
g31
(dp422
sbsbsg26
g1
(g14
g3
Ntp423
Rp424
(dp425
g18
g1
(g19
g20
(lp426
g1
(g22
g3
Ntp427
Rp428
(dp429
g26
Vcombined reward from both tag-team partners
p430
sbatp431
Rp432
(dp433
g31
(dp434
sbsbsg250
I00
sbasbatp435
Rp436
(dp437
g31
(dp438
sbsbsg33
I3
sg35
g36
sg37
g38
sg39
g40
sg41
(lp439
g1
(g43
g3
Ntp440
Rp441
(dp442
g47
I631
sg49
VHeatmor
p443
sg51
g70
sg53
g1
(g14
g3
Ntp444
Rp445
(dp446
g18
g1
(g19
g20
(lp447
g1
(g22
g3
Ntp448
Rp449
(dp450
g26
V65
p451
sbatp452
Rp453
(dp454
g31
(dp455
sbsbsg55
(lp456
VFire Blast
p457
aVSucker Punch
p458
aVFocus Blast
p459
aVStockpile
p460
asg61
VLeftovers
p461
sg63
VFlash Fire
p462
sbag1
(g43
g3
Ntp463
Rp464
(dp465
g47
I555
sg49
VDarmanitan
p466
sg51
VF
p467
sg53
g1
(g14
g3
Ntp468
Rp469
(dp470
g18
g1
(g19
g20
(lp471
g1
(g22
g3
Ntp472
Rp473
(dp474
g26
V65
p475
sbatp476
Rp477
(dp478
g31
(dp479
sbsbsg55
(lp480
VFlare Blitz
p481
aVHammer Arm
p482
aVBulk Up
p483
aVRock Slide
p484
asg61
VMuscle Band
p485
sg63
VSheer Force
p486
sbag1
(g43
g3
Ntp487
Rp488
(dp489
g47
I514
sg49
VSimisear
p490
sg51
g70
sg53
g1
(g14
g3
Ntp491
Rp492
(dp493
g18
g1
(g19
g20
(lp494
g1
(g22
g3
Ntp495
Rp496
(dp497
g26
V67
p498
sbatp499
Rp500
(dp501
g31
(dp502
sbsbsg55
(lp503
VCrunch
p504
aVFlamethrower
p505
aVWork Up
p506
aVGrass Knot
p507
asg61
VLife Orb
p508
sg63
VGluttony
p509
sbasg102
I01
sg103
g104
sbag1
(g2
g3
Ntp510
Rp511
(dp512
g7
V{{#switch: {{#expr: {{#time: H}} mod 3}}|2=B2W2 Cress Back.png|0|1=Spr B2W2 Cress.png}}
p513
sg9
VPokemon Trainer
p514
sg11
VCress
p515
sg13
g1
(g14
g3
Ntp516
Rp517
(dp518
g18
g1
(g19
g20
(lp519
g1
(g22
g3
Ntp520
Rp521
(dp522
g26
V16080
p523
sbag1
(g203
g3
Ntp524
Rp525
(dp526
g207
g1
(g14
g3
Ntp527
Rp528
(dp529
g18
g1
(g19
g20
(lp530
g1
(g22
g3
Ntp531
Rp532
(dp533
g26
Vtt
p534
sbatp535
Rp536
(dp537
g31
(dp538
sbsbsg220
(lp539
g1
(g222
g3
Ntp540
Rp541
(dp542
g207
g1
(g14
g3
Ntp543
Rp544
(dp545
g18
g1
(g19
g20
(lp546
g1
(g22
g3
Ntp547
Rp548
(dp549
g26
V1
p550
sbatp551
Rp552
(dp553
g31
(dp554
sbsbsg26
g1
(g14
g3
Ntp555
Rp556
(dp557
g18
g1
(g19
g20
(lp558
g1
(g22
g3
Ntp559
Rp560
(dp561
g26
g245
sbatp562
Rp563
(dp564
g31
(dp565
sbsbsg250
I00
sbag1
(g222
g3
Ntp566
Rp567
(dp568
g207
g1
(g14
g3
Ntp569
Rp570
(dp571
g18
g1
(g19
g20
(lp572
g1
(g22
g3
Ntp573
Rp574
(dp575
g26
V2
p576
sbatp577
Rp578
(dp579
g31
(dp580
sbsbsg26
g1
(g14
g3
Ntp581
Rp582
(dp583
g18
g1
(g19
g20
(lp584
g1
(g22
g3
Ntp585
Rp586
(dp587
g26
Vcombined reward from both tag-team partners
p588
sbatp589
Rp590
(dp591
g31
(dp592
sbsbsg250
I00
sbasbatp593
Rp594
(dp595
g31
(dp596
sbsbsg33
I3
sg35
g36
sg37
g38
sg39
g40
sg41
(lp597
g1
(g43
g3
Ntp598
Rp599
(dp600
g47
I550
sg49
VBasculin
p601
sg51
g467
sg53
g1
(g14
g3
Ntp602
Rp603
(dp604
g18
g1
(g19
g20
(lp605
g1
(g22
g3
Ntp606
Rp607
(dp608
g26
V65
p609
sbatp610
Rp611
(dp612
g31
(dp613
sbsbsg55
(lp614
VSwagger
p615
aVIce Beam
p616
aVAqua Tail
p617
aVDouble-Edge
p618
asg61
VMuscle Band
p619
sg63
VReckless
p620
sbag1
(g43
g3
Ntp621
Rp622
(dp623
g47
I199
sg49
VSlowking
p624
sg51
g70
sg53
g1
(g14
g3
Ntp625
Rp626
(dp627
g18
g1
(g19
g20
(lp628
g1
(g22
g3
Ntp629
Rp630
(dp631
g26
V65
p632
sbatp633
Rp634
(dp635
g31
(dp636
sbsbsg55
(lp637
VCalm Mind
p638
aVScald
p639
aVFlamethrower
p640
aVPsychic
p641
asg61
VLeftovers
p642
sg63
VOwn Tempo
p643
sbag1
(g43
g3
Ntp644
Rp645
(dp646
g47
I516
sg49
VSimipour
p647
sg51
g70
sg53
g1
(g14
g3
Ntp648
Rp649
(dp650
g18
g1
(g19
g20
(lp651
g1
(g22
g3
Ntp652
Rp653
(dp654
g26
V67
p655
sbatp656
Rp657
(dp658
g31
(dp659
sbsbsg55
(lp660
VScald
p661
aVIce Beam
p662
aVCrunch
p663
aVWork Up
p664
asg61
VLife Orb
p665
sg63
VGluttony
p666
sbasg102
I01
sg103
g104
sba.