(lp0
ccopy_reg
_reconstructor
p1
(c__main__
Trainer
p2
c__builtin__
object
p3
Ntp4
Rp5
(dp6
VtSprite
p7
VSpr DP Guitarist.png
p8
sVtClass
p9
VGuitarist
p10
sVtName
p11
VArturo
p12
sVtMoney
p13
g1
(cmwparserfromhell.wikicode
Wikicode
p14
g3
Ntp15
Rp16
(dp17
V_nodes
p18
g1
(cmwparserfromhell.smart_list.smart_list
SmartList
p19
c__builtin__
list
p20
(lp21
g1
(cmwparserfromhell.nodes.text
Text
p22
g3
Ntp23
Rp24
(dp25
V_value
p26
V552
p27
sbatp28
Rp29
(dp30
V_children
p31
(dp32
sbsbsVtPokeCount
p33
V1
p34
sVtLocation
p35
Vwiki/Sunyshore_City
p36
sVtRegion
p37
VSinnoh
p38
sVtGame
p39
VDP
p40
sVtPokes
p41
(lp42
g1
(c__main__
FinishedPokemon
p43
g3
Ntp44
Rp45
(dp46
VpDexNo
p47
V402
p48
sVpSpecies
p49
VKricketune
p50
sVpGender
p51
VM
p52
sVpLevel
p53
V23
p54
sVpMoves
p55
(lp56
Vperish-song
p57
aVfury-cutter
p58
aVx-scissor
p59
aVbug-buzz
p60
asVpHold
p61
V
p62
sVpAbility
p63
Vswarm
p64
sbasVbossFlag
p65
I00
sVtLongGame
p66
Vdiamond-pearl
p67
sba.