(lp0
ccopy_reg
_reconstructor
p1
(c__main__
Trainer
p2
c__builtin__
object
p3
Ntp4
Rp5
(dp6
VtSprite
p7
VSpr FRLG Ruin Maniac.png\u200e
p8
sVtClass
p9
VRuin Maniac
p10
sVtName
p11
VBrandon
p12
sVtMoney
p13
V2400
p14
sVtPokeCount
p15
V1
p16
sVtLocation
p17
Vwiki/Tanoby_Ruins
p18
sVtRegion
p19
Vlands
p20
sVtGame
p21
VFRLG
p22
sVtPokes
p23
(lp24
g1
(c__main__
FinishedPokemon
p25
g3
Ntp26
Rp27
(dp28
VpDexNo
p29
V095
p30
sVpSpecies
p31
VOnix
p32
sVpGender
p33
VM
p34
sVpLevel
p35
V50
p36
sVpMoves
p37
(lp38
Vsandstorm
p39
aVdragon-breath
p40
aViron-tail
p41
aVsand-tomb
p42
asVpHold
p43
V
p44
sVpAbility
p45
Vsturdy
p46
sbasVbossFlag
p47
I00
sVtLongGame
p48
Vfirered-leafgreen
p49
sbag1
(g2
g3
Ntp50
Rp51
(dp52
g7
VSpr FRLG Gentleman.png
p53
sg9
VGentleman
p54
sg11
VClifford
p55
sg13
V3528
p56
sg15
V2
p57
sg17
g18
sg19
g20
sg21
g22
sg23
(lp58
g1
(g25
g3
Ntp59
Rp60
(dp61
g29
V105
p62
sg31
VMarowak
p63
sg33
g34
sg35
V49
p64
sg37
(lp65
Vbone-club
p66
aVbonemerang
p67
aVbone-rush
p68
aVfalse-swipe
p69
asg43
g44
sg45
Vlightning-rod
p70
sbag1
(g25
g3
Ntp71
Rp72
(dp73
g29
V055
p74
sg31
VGolduck
p75
sg33
g34
sg35
V49
p76
sg37
(lp77
Vscreech
p78
aVfury-swipes
p79
aVpsych-up
p80
aVwater-sport
p81
asg43
g44
sg45
Vdamp
p82
sbasg47
I00
sg48
g49
sbag1
(g2
g3
Ntp83
Rp84
(dp85
g7
VSpr FRLG Painter.png
p86
sg9
VPainter
p87
sg11
VEdna
p88
sg13
V800
p89
sg15
g16
sg17
g18
sg19
g20
sg21
g22
sg23
(lp90
g1
(g25
g3
Ntp91
Rp92
(dp93
g29
V235
p94
sg31
VSmeargle
p95
sg33
g34
sg35
V50
p96
sg37
(lp97
Vsketch
p98
ag98
ag98
ag98
asg43
g44
sg45
Vown-tempo
p99
sbasg47
I00
sg48
g49
sbag1
(g2
g3
Ntp100
Rp101
(dp102
g7
VSpr FRLG Ruin Maniac.png
p103
sg9
VRuin Maniac
p104
sg11
VBenjamin
p105
sg13
V2304
p106
sg15
V3
p107
sg17
g18
sg19
g20
sg21
g22
sg23
(lp108
g1
(g25
g3
Ntp109
Rp110
(dp111
g29
V074
p112
sg31
VGeodude
p113
sg33
g34
sg35
V48
p114
sg37
(lp115
Vrollout
p116
aVmagnitude
p117
aVmud-sport
p118
aVrock-blast
p119
asg43
g44
sg45
Vsturdy
p120
sbag1
(g25
g3
Ntp121
Rp122
(dp123
g29
V075
p124
sg31
VGraveler
p125
sg33
g34
sg35
V48
p126
sg37
(lp127
Vmagnitude
p128
aVmud-sport
p129
ag129
aVrock-blast
p130
asg43
g44
sg45
Vrock-head
p131
sbag1
(g25
g3
Ntp132
Rp133
(dp134
g29
V075
p135
sg31
VGraveler
p136
sg33
g34
sg35
V48
p137
sg37
(lp138
Vmagnitude
p139
aVmud-sport
p140
ag140
aVrock-blast
p141
asg43
g44
sg45
Vrock-head
p142
sbasg47
I00
sg48
g49
sba.