(lp0
ccopy_reg
_reconstructor
p1
(c__main__
Trainer
p2
c__builtin__
object
p3
Ntp4
Rp5
(dp6
VtSprite
p7
VVSVeteran M SM.png
p8
sVtClass
p9
VVeteran
p10
sVtName
p11
VAngus
p12
sVtMoney
p13
V3,168
p14
sVtPokeCount
p15
V3
p16
sVtLocation
p17
Vwiki/Tapu_Village
p18
sVtRegion
p19
VAlola
p20
sVtGame
p21
VSM
p22
sVtPokes
p23
(lp24
g1
(c__main__
FinishedPokemon
p25
g3
Ntp26
Rp27
(dp28
VpDexNo
p29
V372
p30
sVpSpecies
p31
VShelgon
p32
sVpGender
p33
VM
p34
sVpLevel
p35
V36
p36
sVpMoves
p37
(lp38
Vdragon-breath
p39
aVcrunch
p40
aVdragon-claw
p41
aVzen-headbutt
p42
asVpHold
p43
V
p44
sVpAbility
p45
Vrock-head
p46
sbag1
(g25
g3
Ntp47
Rp48
(dp49
g29
V705
p50
sg31
VSliggoo
p51
sg33
g34
sg35
V36
p52
sg37
(lp53
Vdragon-breath
p54
aVrain-dance
p55
aVmuddy-water
p56
aVdragon-pulse
p57
asg43
g44
sg45
Vsap-sipper
p58
sbag1
(g25
g3
Ntp59
Rp60
(dp61
g29
V444
p62
sg31
VGabite
p63
sg33
g34
sg35
V36
p64
sg37
(lp65
Vsand-tomb
p66
aVdragon-claw
p67
aVdragon-rush
p68
aVdual-chop
p69
asg43
g44
sg45
Vsand-veil
p70
sbasVbossFlag
p71
I00
sVtLongGame
p72
Vsun-moon
p73
sba.