(lp0
ccopy_reg
_reconstructor
p1
(c__main__
Trainer
p2
c__builtin__
object
p3
Ntp4
Rp5
(dp6
VtSprite
p7
VSpr DP Galactic Grunt M.png
p8
sVtClass
p9
VGalactic Grunt
p10
sVtName
p11
V
p12
sVtMoney
p13
V520<br><small>Potential [[Double Battle]] with the following Grunt</small>
p14
sVtPokeCount
p15
V2
p16
sVtLocation
p17
Vwiki/Team_Galactic_Eterna_Building
p18
sVtRegion
p19
VSinnoh
p20
sVtGame
p21
VDP
p22
sVtPokes
p23
(lp24
g1
(c__main__
FinishedPokemon
p25
g3
Ntp26
Rp27
(dp28
VpDexNo
p29
V265
p30
sVpSpecies
p31
VWurmple
p32
sVpGender
p33
VM
p34
sVpLevel
p35
V13
p36
sVpMoves
p37
(lp38
Vtackle
p39
aVpoison-sting
p40
aVstring-shot
p41
asVpHold
p42
g12
sVpAbility
p43
Vshield-dust
p44
sbag1
(g25
g3
Ntp45
Rp46
(dp47
g29
V268
p48
sg31
VCascoon
p49
sg33
g34
sg35
V13
p50
sg37
(lp51
Vharden
p52
ag52
asg42
g12
sg43
Vshed-skin
p53
sbasVbossFlag
p54
I00
sVtLongGame
p55
Vdiamond-pearl
p56
sbag1
(g2
g3
Ntp57
Rp58
(dp59
g7
VSpr DP Galactic Grunt F.png
p60
sg9
VGalactic Grunt
p61
sg11
g12
sg13
V540<br><small>Potential [[Double Battle]] with the previous Grunt</small>
p62
sg15
g16
sg17
g18
sg19
g20
sg21
g22
sg23
(lp63
g1
(g25
g3
Ntp64
Rp65
(dp66
g29
V041
p67
sg31
VZubat
p68
sg33
VF
p69
sg35
V14
p70
sg37
(lp71
Vpoison-fang
p72
aVastonish
p73
aVair-cutter
p74
aVair-slash
p75
asg42
g12
sg43
Vinner-focus
p76
sbag1
(g25
g3
Ntp77
Rp78
(dp79
g29
V431
p80
sg31
VGlameow
p81
sg33
g69
sg35
V14
p82
sg37
(lp83
Vfake-out
p84
aVassist
p85
aVsucker-punch
p86
aVcaptivate
p87
asg42
g12
sg43
Vlimber
p88
sbasg54
I00
sg55
g56
sbag1
(g2
g3
Ntp89
Rp90
(dp91
g7
VSpr DP Galactic Grunt M.png
p92
sg9
VGalactic Grunt
p93
sg11
g12
sg13
V520
p94
sg15
g16
sg17
g18
sg19
g20
sg21
g22
sg23
(lp95
g1
(g25
g3
Ntp96
Rp97
(dp98
g29
V265
p99
sg31
VWurmple
p100
sg33
g34
sg35
V13
p101
sg37
(lp102
Vtackle
p103
aVpoison-sting
p104
aVstring-shot
p105
asg42
g12
sg43
Vshield-dust
p106
sbag1
(g25
g3
Ntp107
Rp108
(dp109
g29
V041
p110
sg31
VZubat
p111
sg33
g34
sg35
V13
p112
sg37
(lp113
Vpoison-fang
p114
aVastonish
p115
aVair-cutter
p116
aVair-slash
p117
asg42
g12
sg43
Vinner-focus
p118
sbasg54
I00
sg55
g56
sbag1
(g2
g3
Ntp119
Rp120
(dp121
g7
VSpr DP Galactic Grunt F.png
p122
sg9
VGalactic Grunt
p123
sg11
g12
sg13
V600
p124
sg15
V1
p125
sg17
g18
sg19
g20
sg21
g22
sg23
(lp126
g1
(g25
g3
Ntp127
Rp128
(dp129
g29
V266
p130
sg31
VSilcoon
p131
sg33
g69
sg35
V15
p132
sg37
(lp133
Vharden
p134
ag134
asg42
g12
sg43
Vshed-skin
p135
sbasg54
I00
sg55
g56
sbag1
(g2
g3
Ntp136
Rp137
(dp138
g7
VSpr DP Galactic Grunt F.png
p139
sg9
VGalactic Grunt
p140
sg11
g12
sg13
V480
p141
sg15
V3
p142
sg17
g18
sg19
g20
sg21
g22
sg23
(lp143
g1
(g25
g3
Ntp144
Rp145
(dp146
g29
V265
p147
sg31
VWurmple
p148
sg33
g69
sg35
V12
p149
sg37
(lp150
Vtackle
p151
aVpoison-sting
p152
aVstring-shot
p153
asg42
g12
sg43
Vshield-dust
p154
sbag1
(g25
g3
Ntp155
Rp156
(dp157
g29
V266
p158
sg31
VSilcoon
p159
sg33
g69
sg35
V12
p160
sg37
(lp161
Vharden
p162
ag162
asg42
g12
sg43
Vshed-skin
p163
sbag1
(g25
g3
Ntp164
Rp165
(dp166
g29
V041
p167
sg31
VZubat
p168
sg33
g69
sg35
V12
p169
sg37
(lp170
Vpoison-fang
p171
aVastonish
p172
aVair-cutter
p173
aVair-slash
p174
asg42
g12
sg43
Vinner-focus
p175
sbasg54
I00
sg55
g56
sbag1
(g2
g3
Ntp176
Rp177
(dp178
g7
VSpr DP Scientist.png
p179
sg9
VScientist
p180
sg11
VTravon
p181
sg13
V720
p182
sg15
g125
sg17
g18
sg19
g20
sg21
g22
sg23
(lp183
g1
(g25
g3
Ntp184
Rp185
(dp186
g29
V064
p187
sg31
VKadabra
p188
sg33
g34
sg35
V15
p189
sg37
(lp190
Vtrick
p191
aVrole-play
p192
aVmiracle-eye
p193
aVpsycho-cut
p194
asg42
g12
sg43
Vsynchronize
p195
sbasg54
I00
sg55
g56
sbag1
(g2
g3
Ntp196
Rp197
(dp198
g7
VSpr DP Galactic Grunt M.png
p199
sg9
VGalactic Grunt
p200
sg11
g12
sg13
V680<br><small>Potential [[Double Battle]] with the following Grunt</small>
p201
sg15
g16
sg17
g18
sg19
g20
sg21
g22
sg23
(lp202
g1
(g25
g3
Ntp203
Rp204
(dp205
g29
V041
p206
sg31
VZubat
p207
sg33
g34
sg35
V17
p208
sg37
(lp209
Vpoison-fang
p210
aVastonish
p211
aVair-cutter
p212
aVair-slash
p213
asg42
g12
sg43
Vinner-focus
p214
sbag1
(g25
g3
Ntp215
Rp216
(dp217
g29
V434
p218
sg31
VStunky
p219
sg33
g34
sg35
V17
p220
sg37
(lp221
Vfury-swipes
p222
aVslash
p223
aVmemento
p224
aVnight-slash
p225
asg42
g12
sg43
Vstench
p226
sbasg54
I00
sg55
g56
sbag1
(g2
g3
Ntp227
Rp228
(dp229
g7
VSpr DP Galactic Grunt F.png
p230
sg9
VGalactic Grunt
p231
sg11
g12
sg13
V720<br><small>Potential [[Double Battle]] with the previous Grunt</small>
p232
sg15
g16
sg17
g18
sg19
g20
sg21
g22
sg23
(lp233
g1
(g25
g3
Ntp234
Rp235
(dp236
g29
V041
p237
sg31
VZubat
p238
sg33
g69
sg35
V16
p239
sg37
(lp240
Vpoison-fang
p241
aVastonish
p242
aVair-cutter
p243
aVair-slash
p244
asg42
g12
sg43
Vinner-focus
p245
sbag1
(g25
g3
Ntp246
Rp247
(dp248
g29
V431
p249
sg31
VGlameow
p250
sg33
g69
sg35
V18
p251
sg37
(lp252
Vfake-out
p253
aVassist
p254
aVsucker-punch
p255
aVcaptivate
p256
asg42
g12
sg43
Vown-tempo
p257
sbasg54
I00
sg55
g56
sbag1
(g2
g3
Ntp258
Rp259
(dp260
g7
VSpr DP Galactic Grunt F.png
p261
sg9
VGalactic Grunt
p262
sg11
g12
sg13
V760
p263
sg15
g125
sg17
g18
sg19
g20
sg21
g22
sg23
(lp264
g1
(g25
g3
Ntp265
Rp266
(dp267
g29
V431
p268
sg31
VGlameow
p269
sg33
g69
sg35
V19
p270
sg37
(lp271
Vfake-out
p272
aVassist
p273
aVsucker-punch
p274
aVcaptivate
p275
asg42
g12
sg43
Vown-tempo
p276
sbasg54
I00
sg55
g56
sbag1
(g2
g3
Ntp277
Rp278
(dp279
g7
VSpr DP Galactic Grunt M.png
p280
sg9
VGalactic Grunt
p281
sg11
g12
sg13
V760
p282
sg15
g125
sg17
g18
sg19
g20
sg21
g22
sg23
(lp283
g1
(g25
g3
Ntp284
Rp285
(dp286
g29
V453
p287
sg31
VCroagunk
p288
sg33
g34
sg35
V19
p289
sg37
(lp290
Vsucker-punch
p291
aVpoison-jab
p292
aVnasty-plot
p293
aVmud-bomb
p294
asg42
g12
sg43
Vanticipation
p295
sbasg54
I00
sg55
g56
sbag1
(g2
g3
Ntp296
Rp297
(dp298
g7
VSpr DP Galactic Grunt F.png
p299
sg9
VGalactic Grunt
p300
sg11
g12
sg13
V640
p301
sg15
g142
sg17
g18
sg19
g20
sg21
g22
sg23
(lp302
g1
(g25
g3
Ntp303
Rp304
(dp305
g29
V434
p306
sg31
VStunky
p307
sg33
g69
sg35
V16
p308
sg37
(lp309
Vfury-swipes
p310
aVslash
p311
aVmemento
p312
aVnight-slash
p313
asg42
g12
sg43
Vstench
p314
sbag1
(g25
g3
Ntp315
Rp316
(dp317
g29
V453
p318
sg31
VCroagunk
p319
sg33
g69
sg35
V16
p320
sg37
(lp321
Vsucker-punch
p322
aVpoison-jab
p323
aVnasty-plot
p324
aVmud-bomb
p325
asg42
g12
sg43
Vanticipation
p326
sbag1
(g25
g3
Ntp327
Rp328
(dp329
g29
V431
p330
sg31
VGlameow
p331
sg33
g69
sg35
V16
p332
sg37
(lp333
Vfake-out
p334
aVassist
p335
aVsucker-punch
p336
aVcaptivate
p337
asg42
g12
sg43
Vown-tempo
p338
sbasg54
I00
sg55
g56
sbag1
(g2
g3
Ntp339
Rp340
(dp341
g7
VSpr DP Scientist.png
p342
sg9
VScientist
p343
sg11
VTravon
p344
sg13
V960
p345
sg15
g125
sg17
g18
sg19
g20
sg21
g22
sg23
(lp346
g1
(g25
g3
Ntp347
Rp348
(dp349
g29
V064
p350
sg31
VKadabra
p351
sg33
g34
sg35
V20
p352
sg37
(lp353
Vtrick
p354
aVrole-play
p355
aVmiracle-eye
p356
aVpsycho-cut
p357
asg42
g12
sg43
Vinner-focus
p358
sbasg54
I00
sg55
g56
sbag1
(g2
g3
Ntp359
Rp360
(dp361
g7
VSpr DP Jupiter.png
p362
sg9
VCommander
p363
sg11
VJupiter
p364
sg13
V1600
p365
sg15
I2
sg17
g18
sg19
g20
sg21
g22
sg23
(lp366
g1
(g25
g3
Ntp367
Rp368
(dp369
g29
I41
sg31
VZubat
p370
sg33
g69
sg35
V18
p371
sg37
(lp372
VWing Attack
p373
aVGiga Drain
p374
aVBite
p375
asg42
g12
sg43
VInner Focus
p376
sbag1
(g25
g3
Ntp377
Rp378
(dp379
g29
I435
sg31
VSkuntank
p380
sg33
g69
sg35
V20
p381
sg37
(lp382
VNight Slash
p383
aVPoison Gas
p384
aVSmokeScreen
p385
aVScreech
p386
asg42
VSitrus Berry
p387
sg43
VStench
p388
sbasg54
I01
sg55
g56
sbag1
(g2
g3
Ntp389
Rp390
(dp391
g7
VSpr DP Jupiter.png
p392
sg9
VCommander
p393
sg11
VJupiter
p394
sg13
V1840
p395
sg15
I2
sg17
g18
sg19
g20
sg21
g22
sg23
(lp396
g1
(g25
g3
Ntp397
Rp398
(dp399
g29
I41
sg31
VZubat
p400
sg33
g69
sg35
V21
p401
sg37
(lp402
VWing Attack
p403
aVGiga Drain
p404
aVBite
p405
asg42
g12
sg43
VInner Focus
p406
sbag1
(g25
g3
Ntp407
Rp408
(dp409
g29
I435
sg31
VSkuntank
p410
sg33
g69
sg35
V23
p411
sg37
(lp412
VNight Slash
p413
aVPoison Gas
p414
aVSmokeScreen
p415
aVScreech
p416
asg42
VSitrus Berry
p417
sg43
VStench
p418
sbasg54
I01
sg55
g56
sba.