(lp0
ccopy_reg
_reconstructor
p1
(c__main__
Trainer
p2
c__builtin__
object
p3
Ntp4
Rp5
(dp6
VtSprite
p7
VSpr GS Rocket Grunt M.png
p8
sVtClass
p9
VRocket Grunt
p10
sVtName
p11
V
p12
sVtMoney
p13
V640
p14
sVtPokeCount
p15
V4
p16
sVtLocation
p17
Vwiki/Team_Rocket_HQ
p18
sVtRegion
p19
VJohto
p20
sVtGame
p21
VGS
p22
sVtPokes
p23
(lp24
g1
(c__main__
FinishedPokemon
p25
g3
Ntp26
Rp27
(dp28
VpDexNo
p29
V019
p30
sVpSpecies
p31
VRattata
p32
sVpGender
p33
VM
p34
sVpLevel
p35
V16
p36
sVpMoves
p37
(lp38
Vfocus-energy
p39
aVhyper-fang
p40
aVsuper-fang
p41
aVpursuit
p42
asVpHold
p43
g12
sVpAbility
p44
Vrun-away
p45
sbag1
(g25
g3
Ntp46
Rp47
(dp48
g29
V019
p49
sg31
VRattata
p50
sg33
g34
sg35
V16
p51
sg37
(lp52
Vfocus-energy
p53
aVhyper-fang
p54
aVsuper-fang
p55
aVpursuit
p56
asg43
g12
sg44
Vguts
p57
sbag1
(g25
g3
Ntp58
Rp59
(dp60
g29
V019
p61
sg31
VRattata
p62
sg33
g34
sg35
V16
p63
sg37
(lp64
Vfocus-energy
p65
aVhyper-fang
p66
aVsuper-fang
p67
aVpursuit
p68
asg43
g12
sg44
Vguts
p69
sbag1
(g25
g3
Ntp70
Rp71
(dp72
g29
V019
p73
sg31
VRattata
p74
sg33
g34
sg35
V16
p75
sg37
(lp76
Vfocus-energy
p77
aVhyper-fang
p78
aVsuper-fang
p79
aVpursuit
p80
asg43
g12
sg44
Vrun-away
p81
sbasVbossFlag
p82
I00
sVtLongGame
p83
Vgold-silver
p84
sbag1
(g2
g3
Ntp85
Rp86
(dp87
g7
VSpr GS Scientist.png
p88
sg9
VScientist
p89
sg11
VJed
p90
sg13
V2000
p91
sg15
V3
p92
sg17
g18
sg19
g20
sg21
g22
sg23
(lp93
g1
(g25
g3
Ntp94
Rp95
(dp96
g29
V081
p97
sg31
VMagnemite
p98
sg33
g34
sg35
V20
p99
sg37
(lp100
Vscreech
p101
aVswift
p102
aVzap-cannon
p103
aVlock-on
p104
asg43
g12
sg44
Vsturdy
p105
sbag1
(g25
g3
Ntp106
Rp107
(dp108
g29
V081
p109
sg31
VMagnemite
p110
sg33
g34
sg35
V20
p111
sg37
(lp112
Vscreech
p113
aVswift
p114
aVzap-cannon
p115
aVlock-on
p116
asg43
g12
sg44
Vmagnet-pull
p117
sbag1
(g25
g3
Ntp118
Rp119
(dp120
g29
V081
p121
sg31
VMagnemite
p122
sg33
g34
sg35
V20
p123
sg37
(lp124
Vscreech
p125
aVswift
p126
aVzap-cannon
p127
aVlock-on
p128
asg43
g12
sg44
Vsturdy
p129
sbasg82
I00
sg83
g84
sbag1
(g2
g3
Ntp130
Rp131
(dp132
g7
VSpr GS Rocket Grunt M.png
p133
sg9
VRocket Grunt
p134
sg11
g12
sg13
V760
p135
sg15
V2
p136
sg17
g18
sg19
g20
sg21
g22
sg23
(lp137
g1
(g25
g3
Ntp138
Rp139
(dp140
g29
V096
p141
sg31
VDrowzee
p142
sg33
g34
sg35
V17
p143
sg37
(lp144
Vmeditate
p145
aVpoison-gas
p146
aVpsych-up
p147
aVfuture-sight
p148
asg43
g12
sg44
Vinsomnia
p149
sbag1
(g25
g3
Ntp150
Rp151
(dp152
g29
V041
p153
sg31
VZubat
p154
sg33
g34
sg35
V19
p155
sg37
(lp156
Vconfuse-ray
p157
aVhaze
p158
aVleech-life
p159
aVmean-look
p160
asg43
g12
sg44
Vinner-focus
p161
sbasg82
I00
sg83
g84
sbag1
(g2
g3
Ntp162
Rp163
(dp164
g7
VSpr GS Rocket Grunt M.png
p165
sg9
VRocket Grunt
p166
sg11
g12
sg13
V720
p167
sg15
g92
sg17
g18
sg19
g20
sg21
g22
sg23
(lp168
g1
(g25
g3
Ntp169
Rp170
(dp171
g29
V041
p172
sg31
VZubat
p173
sg33
g34
sg35
V16
p174
sg37
(lp175
Vconfuse-ray
p176
aVhaze
p177
aVleech-life
p178
aVmean-look
p179
asg43
g12
sg44
Vinner-focus
p180
sbag1
(g25
g3
Ntp181
Rp182
(dp183
g29
V088
p184
sg31
VGrimer
p185
sg33
g34
sg35
V17
p186
sg37
(lp187
Vsludge
p188
aVpoison-gas
p189
aVacid-armor
p190
aVsludge-bomb
p191
asg43
g12
sg44
Vsticky-hold
p192
sbag1
(g25
g3
Ntp193
Rp194
(dp195
g29
V019
p196
sg31
VRattata
p197
sg33
g34
sg35
V18
p198
sg37
(lp199
Vfocus-energy
p200
aVhyper-fang
p201
aVsuper-fang
p202
aVpursuit
p203
asg43
g12
sg44
Vguts
p204
sbasg82
I00
sg83
g84
sbag1
(g2
g3
Ntp205
Rp206
(dp207
g7
VSpr GS Rocket Grunt M.png
p208
sg9
VRocket Grunt
p209
sg11
g12
sg13
V720
p210
sg15
g136
sg17
g18
sg19
g20
sg21
g22
sg23
(lp211
g1
(g25
g3
Ntp212
Rp213
(dp214
g29
V048
p215
sg31
VVenonat
p216
sg33
g34
sg35
V18
p217
sg37
(lp218
Vconfusion
p219
aVpsychic
p220
aVleech-life
p221
aVforesight
p222
asg43
g12
sg44
Vtinted-lens
p223
sbag1
(g25
g3
Ntp224
Rp225
(dp226
g29
V048
p227
sg31
VVenonat
p228
sg33
g34
sg35
V18
p229
sg37
(lp230
Vconfusion
p231
aVpsychic
p232
aVleech-life
p233
aVforesight
p234
asg43
g12
sg44
Vtinted-lens
p235
sbasg82
I00
sg83
g84
sbag1
(g2
g3
Ntp236
Rp237
(dp238
g7
VSpr GS Rocket Grunt M.png
p239
sg9
VRocket Grunt
p240
sg11
g12
sg13
V720
p241
sg15
V1
p242
sg17
g18
sg19
g20
sg21
g22
sg23
(lp243
g1
(g25
g3
Ntp244
Rp245
(dp246
g29
V042
p247
sg31
VGolbat
p248
sg33
g34
sg35
V18
p249
sg37
(lp250
Vconfuse-ray
p251
aVhaze
p252
aVleech-life
p253
aVmean-look
p254
asg43
g12
sg44
Vinner-focus
p255
sbasg82
I00
sg83
g84
sbag1
(g2
g3
Ntp256
Rp257
(dp258
g7
VSpr GS Rocket Grunt M.png
p259
sg9
VRocket Grunt
p260
sg11
g12
sg13
V680
p261
sg15
g92
sg17
g18
sg19
g20
sg21
g22
sg23
(lp262
g1
(g25
g3
Ntp263
Rp264
(dp265
g29
V019
p266
sg31
VRattata
p267
sg33
g34
sg35
V17
p268
sg37
(lp269
Vfocus-energy
p270
aVhyper-fang
p271
aVsuper-fang
p272
aVpursuit
p273
asg43
g12
sg44
Vguts
p274
sbag1
(g25
g3
Ntp275
Rp276
(dp277
g29
V041
p278
sg31
VZubat
p279
sg33
g34
sg35
V17
p280
sg37
(lp281
Vconfuse-ray
p282
aVhaze
p283
aVleech-life
p284
aVmean-look
p285
asg43
g12
sg44
Vinner-focus
p286
sbag1
(g25
g3
Ntp287
Rp288
(dp289
g29
V019
p290
sg31
VRattata
p291
sg33
g34
sg35
V17
p292
sg37
(lp293
Vfocus-energy
p294
aVhyper-fang
p295
aVsuper-fang
p296
aVpursuit
p297
asg43
g12
sg44
Vguts
p298
sbasg82
I00
sg83
g84
sbag1
(g2
g3
Ntp299
Rp300
(dp301
g7
VSpr GS Rocket Grunt F.png
p302
sg9
VRocket Grunt
p303
sg11
g12
sg13
V720
p304
sg15
g136
sg17
g18
sg19
g20
sg21
g22
sg23
(lp305
g1
(g25
g3
Ntp306
Rp307
(dp308
g29
V023
p309
sg31
VEkans
p310
sg33
VF
p311
sg35
V18
p312
sg37
(lp313
Vacid
p314
aVscreech
p315
aVhaze
p316
aVglare
p317
asg43
g12
sg44
Vshed-skin
p318
sbag1
(g25
g3
Ntp319
Rp320
(dp321
g29
V044
p322
sg31
VGloom
p323
sg33
g311
sg35
V18
p324
sg37
(lp325
Vpetal-dance
p326
aVsweet-scent
p327
ag327
aVmoonlight
p328
asg43
g12
sg44
Vchlorophyll
p329
sbasg82
I00
sg83
g84
sbag1
(g2
g3
Ntp330
Rp331
(dp332
g7
VSpr GS Rocket Grunt M.png
p333
sg9
VRocket Grunt
p334
sg11
g12
sg13
V760
p335
sg15
g242
sg17
g18
sg19
g20
sg21
g22
sg23
(lp336
g1
(g25
g3
Ntp337
Rp338
(dp339
g29
V020
p340
sg31
VRaticate
p341
sg33
g34
sg35
V19
p342
sg37
(lp343
Vhyper-fang
p344
aVsuper-fang
p345
aVscary-face
p346
aVpursuit
p347
asg43
g12
sg44
Vrun-away
p348
sbasg82
I00
sg83
g84
sbag1
(g2
g3
Ntp349
Rp350
(dp351
g7
VSpr GS Scientist.png
p352
sg9
VScientist
p353
sg11
VRoss
p354
sg13
V2200
p355
sg15
g136
sg17
g18
sg19
g20
sg21
g22
sg23
(lp356
g1
(g25
g3
Ntp357
Rp358
(dp359
g29
V109
p360
sg31
VKoffing
p361
sg33
g34
sg35
V22
p362
sg37
(lp363
Vsludge
p364
aVpoison-gas
p365
aVexplosion
p366
aVdestiny-bond
p367
asg43
g12
sg44
Vlevitate
p368
sbag1
(g25
g3
Ntp369
Rp370
(dp371
g29
V109
p372
sg31
VKoffing
p373
sg33
g34
sg35
V22
p374
sg37
(lp375
Vsludge
p376
aVpoison-gas
p377
aVexplosion
p378
aVdestiny-bond
p379
asg43
g12
sg44
Vlevitate
p380
sbasg82
I00
sg83
g84
sbag1
(g2
g3
Ntp381
Rp382
(dp383
g7
VSpr GS Scientist.png
p384
sg9
VScientist
p385
sg11
VMitch
p386
sg13
V2400
p387
sg15
g242
sg17
g18
sg19
g20
sg21
g22
sg23
(lp388
g1
(g25
g3
Ntp389
Rp390
(dp391
g29
V132
p392
sg31
VDitto
p393
sg33
VU
p394
sg35
V24
p395
sg37
(lp396
Vtransform
p397
asg43
g12
sg44
Vlimber
p398
sbasg82
I00
sg83
g84
sbag1
(g2
g3
Ntp399
Rp400
(dp401
g7
VSpr HGSS Rocket Grunt M.png
p402
sg9
VTeam Rocket Grunt
p403
sg11
g12
sg13
V640
p404
sg15
g16
sg17
g18
sg19
g20
sg21
VHGSS
p405
sg23
(lp406
g1
(g25
g3
Ntp407
Rp408
(dp409
g29
V019
p410
sg31
VRattata
p411
sg33
g34
sg35
V16
p412
sg37
(lp413
Vcrunch
p414
aVendeavor
p415
aVassurance
p416
aVsucker-punch
p417
asg43
g12
sg44
Vrun-away
p418
sbag1
(g25
g3
Ntp419
Rp420
(dp421
g29
V019
p422
sg31
VRattata
p423
sg33
g34
sg35
V16
p424
sg37
(lp425
Vcrunch
p426
aVendeavor
p427
aVassurance
p428
aVsucker-punch
p429
asg43
g12
sg44
Vguts
p430
sbag1
(g25
g3
Ntp431
Rp432
(dp433
g29
V019
p434
sg31
VRattata
p435
sg33
g34
sg35
V16
p436
sg37
(lp437
Vcrunch
p438
aVendeavor
p439
aVassurance
p440
aVsucker-punch
p441
asg43
g12
sg44
Vguts
p442
sbag1
(g25
g3
Ntp443
Rp444
(dp445
g29
V019
p446
sg31
VRattata
p447
sg33
g34
sg35
V16
p448
sg37
(lp449
Vcrunch
p450
aVendeavor
p451
aVassurance
p452
aVsucker-punch
p453
asg43
g12
sg44
Vguts
p454
sbasg82
I00
sg83
Vheartgold-soulsilver
p455
sbag1
(g2
g3
Ntp456
Rp457
(dp458
g7
VSpr HGSS Scientist.png
p459
sg9
VScientist
p460
sg11
VGregg
p461
sg13
V640
p462
sg15
g92
sg17
g18
sg19
g20
sg21
g405
sg23
(lp463
g1
(g25
g3
Ntp464
Rp465
(dp466
g29
V081
p467
sg31
VMagnemite
p468
sg33
g394
sg35
V20
p469
sg37
(lp470
Vmagnet-rise
p471
aVmirror-shot
p472
aVdischarge
p473
aVmagnet-bomb
p474
asg43
g12
sg44
Vmagnet-pull
p475
sbag1
(g25
g3
Ntp476
Rp477
(dp478
g29
V081
p479
sg31
VMagnemite
p480
sg33
g394
sg35
V20
p481
sg37
(lp482
Vmagnet-rise
p483
aVmirror-shot
p484
aVdischarge
p485
aVmagnet-bomb
p486
asg43
g12
sg44
Vmagnet-pull
p487
sbag1
(g25
g3
Ntp488
Rp489
(dp490
g29
V081
p491
sg31
VMagnemite
p492
sg33
g394
sg35
V20
p493
sg37
(lp494
Vmagnet-rise
p495
aVmirror-shot
p496
aVdischarge
p497
aVmagnet-bomb
p498
asg43
g12
sg44
Vsturdy
p499
sbasg82
I00
sg83
g455
sbag1
(g2
g3
Ntp500
Rp501
(dp502
g7
VSpr HGSS Rocket Grunt M.png
p503
sg9
VTeam Rocket Grunt
p504
sg11
g12
sg13
V760
p505
sg15
g136
sg17
g18
sg19
g20
sg21
g405
sg23
(lp506
g1
(g25
g3
Ntp507
Rp508
(dp509
g29
V096
p510
sg31
VDrowzee
p511
sg33
g34
sg35
V17
p512
sg37
(lp513
Vpsych-up
p514
aVfuture-sight
p515
aVnasty-plot
p516
aVzen-headbutt
p517
asg43
g12
sg44
Vforewarn
p518
sbag1
(g25
g3
Ntp519
Rp520
(dp521
g29
V041
p522
sg31
VZubat
p523
sg33
g34
sg35
V19
p524
sg37
(lp525
Vpoison-fang
p526
aVastonish
p527
aVair-cutter
p528
aVair-slash
p529
asg43
g12
sg44
Vinner-focus
p530
sbasg82
I00
sg83
g455
sbag1
(g2
g3
Ntp531
Rp532
(dp533
g7
VSpr HGSS Rocket Grunt M.png
p534
sg9
VTeam Rocket Grunt
p535
sg11
g12
sg13
V720
p536
sg15
g92
sg17
g18
sg19
g20
sg21
g405
sg23
(lp537
g1
(g25
g3
Ntp538
Rp539
(dp540
g29
V041
p541
sg31
VZubat
p542
sg33
g34
sg35
V16
p543
sg37
(lp544
Vpoison-fang
p545
aVastonish
p546
aVair-cutter
p547
aVair-slash
p548
asg43
g12
sg44
Vinner-focus
p549
sbag1
(g25
g3
Ntp550
Rp551
(dp552
g29
V088
p553
sg31
VGrimer
p554
sg33
g34
sg35
V17
p555
sg37
(lp556
Vmemento
p557
aVfling
p558
aVmud-bomb
p559
aVgunk-shot
p560
asg43
g12
sg44
Vstench
p561
sbag1
(g25
g3
Ntp562
Rp563
(dp564
g29
V019
p565
sg31
VRattata
p566
sg33
g34
sg35
V18
p567
sg37
(lp568
Vcrunch
p569
aVendeavor
p570
aVassurance
p571
aVsucker-punch
p572
asg43
g12
sg44
Vrun-away
p573
sbasg82
I00
sg83
g455
sbag1
(g2
g3
Ntp574
Rp575
(dp576
g7
VSpr HGSS Rocket Grunt M.png
p577
sg9
VTeam Rocket Grunt
p578
sg11
g12
sg13
V720
p579
sg15
g136
sg17
g18
sg19
g20
sg21
g405
sg23
(lp580
g1
(g25
g3
Ntp581
Rp582
(dp583
g29
V048
p584
sg31
VVenonat
p585
sg33
g34
sg35
V18
p586
sg37
(lp587
Vforesight
p588
aVpoison-fang
p589
aVsignal-beam
p590
aVzen-headbutt
p591
asg43
g12
sg44
Vcompound-eyes
p592
sbag1
(g25
g3
Ntp593
Rp594
(dp595
g29
V048
p596
sg31
VVenonat
p597
sg33
g34
sg35
V18
p598
sg37
(lp599
Vforesight
p600
aVpoison-fang
p601
aVsignal-beam
p602
aVzen-headbutt
p603
asg43
g12
sg44
Vcompound-eyes
p604
sbasg82
I00
sg83
g455
sbag1
(g2
g3
Ntp605
Rp606
(dp607
g7
VSpr HGSS Rocket Grunt M.png
p608
sg9
VTeam Rocket Grunt
p609
sg11
g12
sg13
V720
p610
sg15
g242
sg17
g18
sg19
g20
sg21
g405
sg23
(lp611
g1
(g25
g3
Ntp612
Rp613
(dp614
g29
V042
p615
sg31
VGolbat
p616
sg33
g34
sg35
V18
p617
sg37
(lp618
Vastonish
p619
ag619
aVair-cutter
p620
aVair-slash
p621
asg43
g12
sg44
Vinner-focus
p622
sbasg82
I00
sg83
g455
sbag1
(g2
g3
Ntp623
Rp624
(dp625
g7
VSpr HGSS Rocket Grunt M.png
p626
sg9
VTeam Rocket Grunt
p627
sg11
g12
sg13
V680
p628
sg15
g92
sg17
g18
sg19
g20
sg21
g405
sg23
(lp629
g1
(g25
g3
Ntp630
Rp631
(dp632
g29
V019
p633
sg31
VRattata
p634
sg33
g34
sg35
V17
p635
sg37
(lp636
Vcrunch
p637
aVendeavor
p638
aVassurance
p639
aVsucker-punch
p640
asg43
g12
sg44
Vrun-away
p641
sbag1
(g25
g3
Ntp642
Rp643
(dp644
g29
V019
p645
sg31
VRattata
p646
sg33
g34
sg35
V17
p647
sg37
(lp648
Vcrunch
p649
aVendeavor
p650
aVassurance
p651
aVsucker-punch
p652
asg43
g12
sg44
Vrun-away
p653
sbag1
(g25
g3
Ntp654
Rp655
(dp656
g29
V041
p657
sg31
VZubat
p658
sg33
g34
sg35
V17
p659
sg37
(lp660
Vpoison-fang
p661
aVastonish
p662
aVair-cutter
p663
aVair-slash
p664
asg43
g12
sg44
Vinner-focus
p665
sbasg82
I00
sg83
g455
sbag1
(g2
g3
Ntp666
Rp667
(dp668
g7
VSpr HGSS Scientist.png
p669
sg9
VScientist
p670
sg11
VRoss
p671
sg13
V704
p672
sg15
g136
sg17
g18
sg19
g20
sg21
g405
sg23
(lp673
g1
(g25
g3
Ntp674
Rp675
(dp676
g29
V109
p677
sg31
VKoffing
p678
sg33
g34
sg35
V22
p679
sg37
(lp680
Vdestiny-bond
p681
aVmemento
p682
aVgyro-ball
p683
aVassurance
p684
asg43
g12
sg44
Vlevitate
p685
sbag1
(g25
g3
Ntp686
Rp687
(dp688
g29
V109
p689
sg31
VKoffing
p690
sg33
g34
sg35
V22
p691
sg37
(lp692
Vdestiny-bond
p693
aVmemento
p694
aVgyro-ball
p695
aVassurance
p696
asg43
g12
sg44
Vlevitate
p697
sbasg82
I00
sg83
g455
sbag1
(g2
g3
Ntp698
Rp699
(dp700
g7
VSpr HGSS Rocket Grunt F.png
p701
sg9
VTeam Rocket Grunt
p702
sg11
g12
sg13
V720
p703
sg15
g136
sg17
g18
sg19
g20
sg21
g405
sg23
(lp704
g1
(g25
g3
Ntp705
Rp706
(dp707
g29
V023
p708
sg31
VEkans
p709
sg33
g311
sg35
V18
p710
sg37
(lp711
Vswallow
p712
aVgastro-acid
p713
aVmud-bomb
p714
aVgunk-shot
p715
asg43
g12
sg44
Vintimidate
p716
sbag1
(g25
g3
Ntp717
Rp718
(dp719
g29
V044
p720
sg31
VGloom
p721
sg33
g311
sg35
V18
p722
sg37
(lp723
Vsweet-scent
p724
aVmoonlight
p725
aVnatural-gift
p726
aVlucky-chant
p727
asg43
g12
sg44
Vchlorophyll
p728
sbasg82
I00
sg83
g455
sbag1
(g2
g3
Ntp729
Rp730
(dp731
g7
VSpr HGSS Scientist.png
p732
sg9
VScientist
p733
sg11
VMitch
p734
sg13
V768
p735
sg15
g242
sg17
g18
sg19
g20
sg21
g405
sg23
(lp736
g1
(g25
g3
Ntp737
Rp738
(dp739
g29
V132
p740
sg31
VDitto
p741
sg33
g394
sg35
V24
p742
sg37
(lp743
Vtransform
p744
asg43
g12
sg44
Vlimber
p745
sbasg82
I00
sg83
g455
sbag1
(g2
g3
Ntp746
Rp747
(dp748
g7
VSpr HGSS Rocket Grunt M.png
p749
sg9
VTeam Rocket Grunt
p750
sg11
g12
sg13
V760
p751
sg15
g242
sg17
g18
sg19
g20
sg21
g405
sg23
(lp752
g1
(g25
g3
Ntp753
Rp754
(dp755
g29
V020
p756
sg31
VRaticate
p757
sg33
g34
sg35
V19
p758
sg37
(lp759
Vcrunch
p760
aVendeavor
p761
aVassurance
p762
aVsucker-punch
p763
asg43
g12
sg44
Vguts
p764
sbasg82
I00
sg83
g455
sbag1
(g2
g3
Ntp765
Rp766
(dp767
g7
VSpr GS Rocket Executive F.png
p768
sg9
VRocket
p769
sg11
VExecutive
p770
sg13
V1800
p771
sg15
I3
sg17
g18
sg19
g20
sg21
g22
sg23
(lp772
g1
(g25
g3
Ntp773
Rp774
(dp775
g29
I24
sg31
VArbok
p776
sg33
g311
sg35
V23
p777
sg37
(lp778
VLeer
p779
aVBite
p780
aVWrap
p781
aVPoison Sting
p782
asg43
g12
sg44
Vintimidate
p783
sbag1
(g25
g3
Ntp784
Rp785
(dp786
g29
I44
sg31
VGloom
p787
sg33
g311
sg35
V23
p788
sg37
(lp789
VSweet Scent
p790
aVAbsorb
p791
aVAcid
p792
aVSleep Powder
p793
asg43
g12
sg44
Vchlorophyll
p794
sbag1
(g25
g3
Ntp795
Rp796
(dp797
g29
I198
sg31
VMurkrow
p798
sg33
g311
sg35
V25
p799
sg37
(lp800
VPeck
p801
aVHaze
p802
aVPursuit
p803
asg43
g12
sg44
Vsuper-luck
p804
sbasg82
I01
sg83
g84
sbag1
(g2
g3
Ntp805
Rp806
(dp807
g7
VSpr GS Rocket Executive M.png
p808
sg9
VRocket
p809
sg11
VExecutive
p810
sg13
V1584
p811
sg15
I3
sg17
g18
sg19
g20
sg21
g22
sg23
(lp812
g1
(g25
g3
Ntp813
Rp814
(dp815
g29
I41
sg31
VZubat
p816
sg33
g34
sg35
V22
p817
sg37
(lp818
VLeech Life
p819
aVBite
p820
aVSupersonic
p821
aVConfuse Ray
p822
asg43
g12
sg44
Vinner-focus
p823
sbag1
(g25
g3
Ntp824
Rp825
(dp826
g29
I109
sg31
VKoffing
p827
sg33
g34
sg35
V22
p828
sg37
(lp829
VSmog
p830
aVTackle
p831
aVSludge
p832
aVSelfdestruct
p833
asg43
g12
sg44
Vlevitate
p834
sbag1
(g25
g3
Ntp835
Rp836
(dp837
g29
I20
sg31
VRaticate
p838
sg33
g34
sg35
V24
p839
sg37
(lp840
VHyper Fang
p841
aVQuick Attack
p842
aVScary Face
p843
aVTail Whip
p844
asg43
g12
sg44
Vguts
p845
sbasg82
I01
sg83
g84
sbag1
(g2
g3
Ntp846
Rp847
(dp848
g7
VHGSS Lance Back.png
p849
sg9
VPokemon Trainer
p850
sg11
VLance
p851
sg13
Vn/a
p852
sg15
I1
sg17
g18
sg19
g20
sg21
VSM
p853
sg23
(lp854
g1
(g25
g3
Ntp855
Rp856
(dp857
g29
I149
sg31
VDragonite
p858
sg33
g34
sg35
V40
p859
sg37
(lp860
VFly
p861
aVTwister
p862
aVThunder
p863
aVHyper Beam
p864
asg43
g12
sg44
VInner Focus
p865
sbasg82
I01
sg83
Vsun-moon
p866
sbag1
(g2
g3
Ntp867
Rp868
(dp869
g7
VSpr HGSS Petrel.png
p870
sg9
VExecutive
p871
sg11
VPetrel
p872
sg13
V880
p873
sg15
I3
sg17
g18
sg19
g20
sg21
g405
sg23
(lp874
g1
(g25
g3
Ntp875
Rp876
(dp877
g29
I41
sg31
VZubat
p878
sg33
g34
sg35
V22
p879
sg37
(lp880
VAstonish
p881
aVBite
p882
aVWing Attack
p883
aVConfuse Ray
p884
asg43
g12
sg44
VInner Focus
p885
sbag1
(g25
g3
Ntp886
Rp887
(dp888
g29
I109
sg31
VKoffing
p889
sg33
g34
sg35
V22
p890
sg37
(lp891
VSmog
p892
aVSmokeScreen
p893
aVAssurance
p894
aVSelfdestruct
p895
asg43
g12
sg44
VLevitate
p896
sbag1
(g25
g3
Ntp897
Rp898
(dp899
g29
I20
sg31
VRaticate
p900
sg33
g34
sg35
V24
p901
sg37
(lp902
VHyper Fang
p903
aVSucker Punch
p904
aVScary Face
p905
aVCrunch
p906
asg43
g12
sg44
VGuts
p907
sbasg82
I01
sg83
g455
sba.