(lp0
ccopy_reg
_reconstructor
p1
(c__main__
Trainer
p2
c__builtin__
object
p3
Ntp4
Rp5
(dp6
VtSprite
p7
VSpr DP Galactic Grunt F.png
p8
sVtClass
p9
VGalactic Grunt
p10
sVtName
p11
V
p12
sVtMoney
p13
V1480
p14
sVtPokeCount
p15
V1
p16
sVtLocation
p17
Vwiki/Team_Galactic_HQ
p18
sVtRegion
p19
VSinnoh
p20
sVtGame
p21
VDP
p22
sVtPokes
p23
(lp24
g1
(c__main__
FinishedPokemon
p25
g3
Ntp26
Rp27
(dp28
VpDexNo
p29
V431
p30
sVpSpecies
p31
VGlameow
p32
sVpGender
p33
VF
p34
sVpLevel
p35
V37
p36
sVpMoves
p37
(lp38
Vfake-out
p39
aVassist
p40
aVsucker-punch
p41
aVcaptivate
p42
asVpHold
p43
g12
sVpAbility
p44
Vown-tempo
p45
sbasVbossFlag
p46
I00
sVtLongGame
p47
Vdiamond-pearl
p48
sbag1
(g2
g3
Ntp49
Rp50
(dp51
g7
VSpr DP Galactic Grunt M.png
p52
sg9
VGalactic Grunt
p53
sg11
g12
sg13
V1440
p54
sg15
V3
p55
sg17
g18
sg19
g20
sg21
g22
sg23
(lp56
g1
(g25
g3
Ntp57
Rp58
(dp59
g29
V265
p60
sg31
VWurmple
p61
sg33
VM
p62
sg35
V32
p63
sg37
(lp64
Vtackle
p65
aVpoison-sting
p66
aVstring-shot
p67
asg43
g12
sg44
Vshield-dust
p68
sbag1
(g25
g3
Ntp69
Rp70
(dp71
g29
V268
p72
sg31
VCascoon
p73
sg33
g62
sg35
V34
p74
sg37
(lp75
Vharden
p76
ag76
asg43
g12
sg44
Vshed-skin
p77
sbag1
(g25
g3
Ntp78
Rp79
(dp80
g29
V269
p81
sg31
VDustox
p82
sg33
g62
sg35
V36
p83
sg37
(lp84
Vprotect
p85
aVmoonlight
p86
aVsilver-wind
p87
aVbug-buzz
p88
asg43
g12
sg44
Vshield-dust
p89
sbasg46
I00
sg47
g48
sbag1
(g2
g3
Ntp90
Rp91
(dp92
g7
VSpr DP Scientist.png
p93
sg9
VScientist
p94
sg11
VFredrick
p95
sg13
V1680
p96
sg15
V2
p97
sg17
g18
sg19
g20
sg21
g22
sg23
(lp98
g1
(g25
g3
Ntp99
Rp100
(dp101
g29
V064
p102
sg31
VKadabra
p103
sg33
g62
sg35
V35
p104
sg37
(lp105
Vtrick
p106
aVrole-play
p107
aVmiracle-eye
p108
aVpsycho-cut
p109
asg43
g12
sg44
Vsynchronize
p110
sbag1
(g25
g3
Ntp111
Rp112
(dp113
g29
V064
p114
sg31
VKadabra
p115
sg33
g62
sg35
V35
p116
sg37
(lp117
Vtrick
p118
aVrole-play
p119
aVmiracle-eye
p120
aVpsycho-cut
p121
asg43
g12
sg44
Vinner-focus
p122
sbasg46
I00
sg47
g48
sbag1
(g2
g3
Ntp123
Rp124
(dp125
g7
VSpr DP Galactic Grunt M.png
p126
sg9
VGalactic Grunt
p127
sg11
g12
sg13
V1480
p128
sg15
g16
sg17
g18
sg19
g20
sg21
g22
sg23
(lp129
g1
(g25
g3
Ntp130
Rp131
(dp132
g29
V434
p133
sg31
VStunky
p134
sg33
g62
sg35
V37
p135
sg37
(lp136
Vfury-swipes
p137
aVslash
p138
aVmemento
p139
aVnight-slash
p140
asg43
g12
sg44
Vaftermath
p141
sbasg46
I00
sg47
g48
sbag1
(g2
g3
Ntp142
Rp143
(dp144
g7
VSpr DP Galactic Grunt M.png
p145
sg9
VGalactic Grunt
p146
sg11
g12
sg13
V1440
p147
sg15
g97
sg17
g18
sg19
g20
sg21
g22
sg23
(lp148
g1
(g25
g3
Ntp149
Rp150
(dp151
g29
V436
p152
sg31
VBronzor
p153
sg33
VU
p154
sg35
V36
p155
sg37
(lp156
Viron-defense
p157
aVgyro-ball
p158
aVpayback
p159
aVheal-block
p160
asg43
g12
sg44
Vlevitate
p161
sbag1
(g25
g3
Ntp162
Rp163
(dp164
g29
V434
p165
sg31
VStunky
p166
sg33
g62
sg35
V36
p167
sg37
(lp168
Vfury-swipes
p169
aVslash
p170
aVmemento
p171
aVnight-slash
p172
asg43
g12
sg44
Vaftermath
p173
sbasg46
I00
sg47
g48
sbag1
(g2
g3
Ntp174
Rp175
(dp176
g7
VSpr DP Galactic Grunt M.png
p177
sg9
VGalactic Grunt
p178
sg11
g12
sg13
V1440<br><small>Potential [[Double Battle]] with the following Grunt</small>
p179
sg15
g97
sg17
g18
sg19
g20
sg21
g22
sg23
(lp180
g1
(g25
g3
Ntp181
Rp182
(dp183
g29
V042
p184
sg31
VGolbat
p185
sg33
g62
sg35
V36
p186
sg37
(lp187
Vastonish
p188
ag188
aVair-cutter
p189
aVair-slash
p190
asg43
g12
sg44
Vinner-focus
p191
sbag1
(g25
g3
Ntp192
Rp193
(dp194
g29
V042
p195
sg31
VGolbat
p196
sg33
g62
sg35
V36
p197
sg37
(lp198
Vastonish
p199
ag199
aVair-cutter
p200
aVair-slash
p201
asg43
g12
sg44
Vinner-focus
p202
sbasg46
I00
sg47
g48
sbag1
(g2
g3
Ntp203
Rp204
(dp205
g7
VSpr DP Galactic Grunt F.png
p206
sg9
VGalactic Grunt
p207
sg11
g12
sg13
V1360<br><small>Potential [[Double Battle]] with the previous Grunt</small>
p208
sg15
g97
sg17
g18
sg19
g20
sg21
g22
sg23
(lp209
g1
(g25
g3
Ntp210
Rp211
(dp212
g29
V042
p213
sg31
VGolbat
p214
sg33
g34
sg35
V36
p215
sg37
(lp216
Vastonish
p217
ag217
aVair-cutter
p218
aVair-slash
p219
asg43
g12
sg44
Vinner-focus
p220
sbag1
(g25
g3
Ntp221
Rp222
(dp223
g29
V266
p224
sg31
VSilcoon
p225
sg33
g34
sg35
V34
p226
sg37
(lp227
Vharden
p228
ag228
asg43
g12
sg44
Vshed-skin
p229
sbasg46
I00
sg47
g48
sbag1
(g2
g3
Ntp230
Rp231
(dp232
g7
VSpr DP Scientist.png
p233
sg9
VScientist
p234
sg11
VDarrius
p235
sg13
V1776
p236
sg15
g16
sg17
g18
sg19
g20
sg21
g22
sg23
(lp237
g1
(g25
g3
Ntp238
Rp239
(dp240
g29
V064
p241
sg31
VKadabra
p242
sg33
g62
sg35
V37
p243
sg37
(lp244
Vtrick
p245
aVrole-play
p246
aVmiracle-eye
p247
aVpsycho-cut
p248
asg43
g12
sg44
Vinner-focus
p249
sbasg46
I00
sg47
g48
sbag1
(g2
g3
Ntp250
Rp251
(dp252
g7
VSpr DP Galactic Grunt M.png
p253
sg9
VGalactic Grunt
p254
sg11
g12
sg13
V1440<br><small>Potential [[Double Battle]] with the following Grunt</small>
p255
sg15
g97
sg17
g18
sg19
g20
sg21
g22
sg23
(lp256
g1
(g25
g3
Ntp257
Rp258
(dp259
g29
V434
p260
sg31
VStunky
p261
sg33
g62
sg35
V36
p262
sg37
(lp263
Vfury-swipes
p264
aVslash
p265
aVmemento
p266
aVnight-slash
p267
asg43
g12
sg44
Vaftermath
p268
sbag1
(g25
g3
Ntp269
Rp270
(dp271
g29
V453
p272
sg31
VCroagunk
p273
sg33
g62
sg35
V36
p274
sg37
(lp275
Vsucker-punch
p276
aVpoison-jab
p277
aVnasty-plot
p278
aVmud-bomb
p279
asg43
g12
sg44
Vdry-skin
p280
sbasg46
I00
sg47
g48
sbag1
(g2
g3
Ntp281
Rp282
(dp283
g7
VSpr DP Galactic Grunt F.png
p284
sg9
VGalactic Grunt
p285
sg11
g12
sg13
V1400<br><small>Potential [[Double Battle]] with the previous Grunt</small>
p286
sg15
g55
sg17
g18
sg19
g20
sg21
g22
sg23
(lp287
g1
(g25
g3
Ntp288
Rp289
(dp290
g29
V453
p291
sg31
VCroagunk
p292
sg33
g34
sg35
V35
p293
sg37
(lp294
Vsucker-punch
p295
aVpoison-jab
p296
aVnasty-plot
p297
aVmud-bomb
p298
asg43
g12
sg44
Vdry-skin
p299
sbag1
(g25
g3
Ntp300
Rp301
(dp302
g29
V434
p303
sg31
VStunky
p304
sg33
g34
sg35
V35
p305
sg37
(lp306
Vfury-swipes
p307
aVslash
p308
aVmemento
p309
aVnight-slash
p310
asg43
g12
sg44
Vaftermath
p311
sbag1
(g25
g3
Ntp312
Rp313
(dp314
g29
V431
p315
sg31
VGlameow
p316
sg33
g34
sg35
V35
p317
sg37
(lp318
Vfake-out
p319
aVassist
p320
aVsucker-punch
p321
aVcaptivate
p322
asg43
g12
sg44
Vown-tempo
p323
sbasg46
I00
sg47
g48
sbag1
(g2
g3
Ntp324
Rp325
(dp326
g7
VSpr DP Galactic Grunt F.png
p327
sg9
VGalactic Grunt
p328
sg11
g12
sg13
V1640
p329
sg15
g16
sg17
g18
sg19
g20
sg21
g22
sg23
(lp330
g1
(g25
g3
Ntp331
Rp332
(dp333
g29
V431
p334
sg31
VGlameow
p335
sg33
g34
sg35
V41
p336
sg37
(lp337
Vfake-out
p338
aVassist
p339
aVsucker-punch
p340
aVcaptivate
p341
asg43
g12
sg44
Vown-tempo
p342
sbasg46
I00
sg47
g48
sbag1
(g2
g3
Ntp343
Rp344
(dp345
g7
VSpr DP Galactic Grunt M.png
p346
sg9
VGalactic Grunt
p347
sg11
g12
sg13
V1560
p348
sg15
g55
sg17
g18
sg19
g20
sg21
g22
sg23
(lp349
g1
(g25
g3
Ntp350
Rp351
(dp352
g29
V431
p353
sg31
VGlameow
p354
sg33
g34
sg35
V37
p355
sg37
(lp356
Vfake-out
p357
aVassist
p358
aVsucker-punch
p359
aVcaptivate
p360
asg43
g12
sg44
Vown-tempo
p361
sbag1
(g25
g3
Ntp362
Rp363
(dp364
g29
V198
p365
sg31
VMurkrow
p366
sg33
g62
sg35
V38
p367
sg37
(lp368
Vtaunt
p369
aVastonish
p370
aVassurance
p371
aVsucker-punch
p372
asg43
g12
sg44
Vsuper-luck
p373
sbag1
(g25
g3
Ntp374
Rp375
(dp376
g29
V453
p377
sg31
VCroagunk
p378
sg33
g62
sg35
V39
p379
sg37
(lp380
Vsucker-punch
p381
aVpoison-jab
p382
aVnasty-plot
p383
aVmud-bomb
p384
asg43
g12
sg44
Vanticipation
p385
sbasg46
I00
sg47
g48
sbag1
(g2
g3
Ntp386
Rp387
(dp388
g7
VSpr DP Scientist.png
p389
sg9
VScientist
p390
sg11
VFredrick
p391
sg13
V1920
p392
sg15
g97
sg17
g18
sg19
g20
sg21
g22
sg23
(lp393
g1
(g25
g3
Ntp394
Rp395
(dp396
g29
V281
p397
sg31
VKirlia
p398
sg33
g62
sg35
V40
p399
sg37
(lp400
Vimprison
p401
aVmagical-leaf
p402
aVcalm-mind
p403
aVlucky-chant
p404
asg43
g12
sg44
Vtrace
p405
sbag1
(g25
g3
Ntp406
Rp407
(dp408
g29
V064
p409
sg31
VKadabra
p410
sg33
g62
sg35
V40
p411
sg37
(lp412
Vtrick
p413
aVrole-play
p414
aVmiracle-eye
p415
aVpsycho-cut
p416
asg43
g12
sg44
Vsynchronize
p417
sbasg46
I00
sg47
g48
sbag1
(g2
g3
Ntp418
Rp419
(dp420
g7
VSpr DP Galactic Grunt M.png
p421
sg9
VGalactic Grunt
p422
sg11
g12
sg13
V1640
p423
sg15
g16
sg17
g18
sg19
g20
sg21
g22
sg23
(lp424
g1
(g25
g3
Ntp425
Rp426
(dp427
g29
V434
p428
sg31
VStunky
p429
sg33
g62
sg35
V41
p430
sg37
(lp431
Vfury-swipes
p432
aVslash
p433
aVmemento
p434
aVnight-slash
p435
asg43
g12
sg44
Vaftermath
p436
sbasg46
I00
sg47
g48
sbag1
(g2
g3
Ntp437
Rp438
(dp439
g7
VSpr DP Galactic Grunt M.png
p440
sg9
VGalactic Grunt
p441
sg11
g12
sg13
V1560
p442
sg15
g97
sg17
g18
sg19
g20
sg21
g22
sg23
(lp443
g1
(g25
g3
Ntp444
Rp445
(dp446
g29
V198
p447
sg31
VMurkrow
p448
sg33
g62
sg35
V39
p449
sg37
(lp450
Vtaunt
p451
aVastonish
p452
aVassurance
p453
aVsucker-punch
p454
asg43
g12
sg44
Vsuper-luck
p455
sbag1
(g25
g3
Ntp456
Rp457
(dp458
g29
V434
p459
sg31
VStunky
p460
sg33
g62
sg35
V39
p461
sg37
(lp462
Vfury-swipes
p463
aVslash
p464
aVmemento
p465
aVnight-slash
p466
asg43
g12
sg44
Vaftermath
p467
sbasg46
I00
sg47
g48
sbag1
(g2
g3
Ntp468
Rp469
(dp470
g7
VSpr DP Galactic Grunt M.png
p471
sg9
VGalactic Grunt
p472
sg11
g12
sg13
V1520<br><small>Potential [[Double Battle]] with the following Grunt</small>
p473
sg15
g97
sg17
g18
sg19
g20
sg21
g22
sg23
(lp474
g1
(g25
g3
Ntp475
Rp476
(dp477
g29
V042
p478
sg31
VGolbat
p479
sg33
g62
sg35
V40
p480
sg37
(lp481
Vastonish
p482
ag482
aVair-cutter
p483
aVair-slash
p484
asg43
g12
sg44
Vinner-focus
p485
sbag1
(g25
g3
Ntp486
Rp487
(dp488
g29
V042
p489
sg31
VGolbat
p490
sg33
g62
sg35
V38
p491
sg37
(lp492
Vastonish
p493
ag493
aVair-cutter
p494
aVair-slash
p495
asg43
g12
sg44
Vinner-focus
p496
sbasg46
I00
sg47
g48
sbag1
(g2
g3
Ntp497
Rp498
(dp499
g7
VSpr DP Galactic Grunt F.png
p500
sg9
VGalactic Grunt
p501
sg11
g12
sg13
V1560<br><small>Potential [[Double Battle]] with the previous Grunt</small>
p502
sg15
g97
sg17
g18
sg19
g20
sg21
g22
sg23
(lp503
g1
(g25
g3
Ntp504
Rp505
(dp506
g29
V042
p507
sg31
VGolbat
p508
sg33
g34
sg35
V39
p509
sg37
(lp510
Vastonish
p511
ag511
aVair-cutter
p512
aVair-slash
p513
asg43
g12
sg44
Vinner-focus
p514
sbag1
(g25
g3
Ntp515
Rp516
(dp517
g29
V228
p518
sg31
VHoundour
p519
sg33
g34
sg35
V39
p520
sg37
(lp521
Vhowl
p522
aVembargo
p523
aVnasty-plot
p524
aVfire-fang
p525
asg43
g12
sg44
Vflash-fire
p526
sbasg46
I00
sg47
g48
sbag1
(g2
g3
Ntp527
Rp528
(dp529
g7
VSpr DP Scientist.png
p530
sg9
VScientist
p531
sg11
VDarrius
p532
sg13
V2016
p533
sg15
g16
sg17
g18
sg19
g20
sg21
g22
sg23
(lp534
g1
(g25
g3
Ntp535
Rp536
(dp537
g29
V233
p538
sg31
VPorygon2
p539
sg33
g154
sg35
V42
p540
sg37
(lp541
Vrecycle
p542
aVsignal-beam
p543
aVmagnet-rise
p544
aVdischarge
p545
asg43
g12
sg44
Vdownload
p546
sbasg46
I00
sg47
g48
sbag1
(g2
g3
Ntp547
Rp548
(dp549
g7
VSpr DP Galactic Grunt M.png
p550
sg9
VGalactic Grunt
p551
sg11
g12
sg13
V1600<br><small>Potential [[Double Battle]] with the following Grunt</small>
p552
sg15
g97
sg17
g18
sg19
g20
sg21
g22
sg23
(lp553
g1
(g25
g3
Ntp554
Rp555
(dp556
g29
V434
p557
sg31
VStunky
p558
sg33
g62
sg35
V38
p559
sg37
(lp560
Vfury-swipes
p561
aVslash
p562
aVmemento
p563
aVnight-slash
p564
asg43
g12
sg44
Vaftermath
p565
sbag1
(g25
g3
Ntp566
Rp567
(dp568
g29
V453
p569
sg31
VCroagunk
p570
sg33
g62
sg35
V40
p571
sg37
(lp572
Vsucker-punch
p573
aVpoison-jab
p574
aVnasty-plot
p575
aVmud-bomb
p576
asg43
g12
sg44
Vdry-skin
p577
sbasg46
I00
sg47
g48
sbag1
(g2
g3
Ntp578
Rp579
(dp580
g7
VSpr DP Galactic Grunt F.png
p581
sg9
VGalactic Grunt
p582
sg11
g12
sg13
V1520<br><small>Potential [[Double Battle]] with the previous Grunt</small>
p583
sg15
g55
sg17
g18
sg19
g20
sg21
g22
sg23
(lp584
g1
(g25
g3
Ntp585
Rp586
(dp587
g29
V453
p588
sg31
VCroagunk
p589
sg33
g34
sg35
V38
p590
sg37
(lp591
Vsucker-punch
p592
aVpoison-jab
p593
aVnasty-plot
p594
aVmud-bomb
p595
asg43
g12
sg44
Vanticipation
p596
sbag1
(g25
g3
Ntp597
Rp598
(dp599
g29
V434
p600
sg31
VStunky
p601
sg33
g34
sg35
V38
p602
sg37
(lp603
Vfury-swipes
p604
aVslash
p605
aVmemento
p606
aVnight-slash
p607
asg43
g12
sg44
Vaftermath
p608
sbag1
(g25
g3
Ntp609
Rp610
(dp611
g29
V431
p612
sg31
VGlameow
p613
sg33
g34
sg35
V38
p614
sg37
(lp615
Vfake-out
p616
aVassist
p617
aVsucker-punch
p618
aVcaptivate
p619
asg43
g12
sg44
Vlimber
p620
sbasg46
I00
sg47
g48
sbag1
(g2
g3
Ntp621
Rp622
(dp623
g7
VSpr DP Galactic Grunt M.png
p624
sg9
VGalactic Grunt
p625
sg11
g12
sg13
V1480
p626
sg15
g16
sg17
g18
sg19
g20
sg21
g22
sg23
(lp627
g1
(g25
g3
Ntp628
Rp629
(dp630
g29
V042
p631
sg31
VGolbat
p632
sg33
g62
sg35
V37
p633
sg37
(lp634
Vastonish
p635
ag635
aVair-cutter
p636
aVair-slash
p637
asg43
g12
sg44
Vinner-focus
p638
sbasg46
I00
sg47
g48
sbag1
(g2
g3
Ntp639
Rp640
(dp641
g7
VSpr DP Galactic Grunt M.png
p642
sg9
VGalactic Grunt
p643
sg11
g12
sg13
V1400
p644
sg15
g97
sg17
g18
sg19
g20
sg21
g22
sg23
(lp645
g1
(g25
g3
Ntp646
Rp647
(dp648
g29
V269
p649
sg31
VDustox
p650
sg33
g62
sg35
V35
p651
sg37
(lp652
Vprotect
p653
aVmoonlight
p654
aVsilver-wind
p655
aVbug-buzz
p656
asg43
g12
sg44
Vshield-dust
p657
sbag1
(g25
g3
Ntp658
Rp659
(dp660
g29
V436
p661
sg31
VBronzor
p662
sg33
g154
sg35
V35
p663
sg37
(lp664
Viron-defense
p665
aVgyro-ball
p666
aVpayback
p667
aVheal-block
p668
asg43
g12
sg44
Vheatproof
p669
sbasg46
I00
sg47
g48
sbag1
(g2
g3
Ntp670
Rp671
(dp672
g7
VSpr DP Galactic Grunt M.png
p673
sg9
VGalactic Grunt
p674
sg11
g12
sg13
V1640
p675
sg15
g16
sg17
g18
sg19
g20
sg21
g22
sg23
(lp676
g1
(g25
g3
Ntp677
Rp678
(dp679
g29
V042
p680
sg31
VGolbat
p681
sg33
g62
sg35
V41
p682
sg37
(lp683
Vastonish
p684
ag684
aVair-cutter
p685
aVair-slash
p686
asg43
g12
sg44
Vinner-focus
p687
sbasg46
I00
sg47
g48
sbag1
(g2
g3
Ntp688
Rp689
(dp690
g7
VSpr DP Galactic Grunt M.png
p691
sg9
VGalactic Grunt
p692
sg11
g12
sg13
V1600
p693
sg15
g97
sg17
g18
sg19
g20
sg21
g22
sg23
(lp694
g1
(g25
g3
Ntp695
Rp696
(dp697
g29
V228
p698
sg31
VHoundour
p699
sg33
g62
sg35
V38
p700
sg37
(lp701
Vhowl
p702
aVembargo
p703
aVnasty-plot
p704
aVfire-fang
p705
asg43
g12
sg44
Vearly-bird
p706
sbag1
(g25
g3
Ntp707
Rp708
(dp709
g29
V198
p710
sg31
VMurkrow
p711
sg33
g62
sg35
V40
p712
sg37
(lp713
Vtaunt
p714
aVastonish
p715
aVassurance
p716
aVsucker-punch
p717
asg43
g12
sg44
Vsuper-luck
p718
sbasg46
I00
sg47
g48
sbag1
(g2
g3
Ntp719
Rp720
(dp721
g7
VSpr DP Cyrus.png
p722
sg9
VGalactic Boss
p723
sg11
VCyrus
p724
sg13
V7740
p725
sg15
I3
sg17
g18
sg19
g20
sg21
g22
sg23
(lp726
g1
(g25
g3
Ntp727
Rp728
(dp729
g29
I198
sg31
VMurkrow
p730
sg33
g62
sg35
V40
p731
sg37
(lp732
VNight Shade
p733
aVEmbargo
p734
aVDrill Peck
p735
aVAstonish
p736
asg43
g12
sg44
VInsomnia
p737
sbag1
(g25
g3
Ntp738
Rp739
(dp740
g29
I42
sg31
VGolbat
p741
sg33
g62
sg35
V40
p742
sg37
(lp743
VAir Cutter
p744
aVPoison Fang
p745
aVSupersonic
p746
aVBite
p747
asg43
g12
sg44
VInner Focus
p748
sbag1
(g25
g3
Ntp749
Rp750
(dp751
g29
I215
sg31
VSneasel
p752
sg33
g62
sg35
V43
p753
sg37
(lp754
VScreech
p755
aVIce Punch
p756
aVSlash
p757
aVQuick Attack
p758
asg43
VSitrus Berry
p759
sg44
VInner Focus
p760
sbasg46
I01
sg47
g48
sbag1
(g2
g3
Ntp761
Rp762
(dp763
g7
VSpr DP Saturn.png
p764
sg9
VCommander
p765
sg11
VSaturn
p766
sg13
V3200
p767
sg15
I3
sg17
g18
sg19
g20
sg21
g22
sg23
(lp768
g1
(g25
g3
Ntp769
Rp770
(dp771
g29
I64
sg31
VKadabra
p772
sg33
g62
sg35
V38
p773
sg37
(lp774
VShock Wave
p775
aVEmbargo
p776
aVRecover
p777
aVPsychic
p778
asg43
g12
sg44
VSynchronize
p779
sbag1
(g25
g3
Ntp780
Rp781
(dp782
g29
I436
sg31
VBronzor
p783
sg33
g154
sg35
V38
p784
sg37
(lp785
VExtrasensory
p786
aVGyro Ball
p787
aVConfuse Ray
p788
aVShadow Ball
p789
asg43
g12
sg44
VLevitate
p790
sbag1
(g25
g3
Ntp791
Rp792
(dp793
g29
I454
sg31
VToxicroak
p794
sg33
g34
sg35
V40
p795
sg37
(lp796
VBrick Break
p797
aVSwagger
p798
aVX-Scissor
p799
aVPoison Jab
p800
asg43
VSitrus Berry
p801
sg44
VAnticipation
p802
sbasg46
I01
sg47
g48
sbag1
(g2
g3
Ntp803
Rp804
(dp805
g7
VSpr Pt Cyrus.png
p806
sg9
VGalactic Boss
p807
sg11
VCyrus
p808
sg13
V8280
p809
sg15
I3
sg17
g18
sg19
g20
sg21
VPt
p810
sg23
(lp811
g1
(g25
g3
Ntp812
Rp813
(dp814
g29
I215
sg31
VSneasel
p815
sg33
g62
sg35
V44
p816
sg37
(lp817
VScreech
p818
aVIce Punch
p819
aVSlash
p820
aVQuick Attack
p821
asg43
g12
sg44
VInner Focus
p822
sbag1
(g25
g3
Ntp823
Rp824
(dp825
g29
I169
sg31
VCrobat
p826
sg33
g62
sg35
V44
p827
sg37
(lp828
VAir Cutter
p829
aVPoison Fang
p830
aVSupersonic
p831
aVBite
p832
asg43
g12
sg44
VInner Focus
p833
sbag1
(g25
g3
Ntp834
Rp835
(dp836
g29
I430
sg31
VHonchkrow
p837
sg33
g62
sg35
V46
p838
sg37
(lp839
VNight Shade
p840
aVFaint Attack
p841
aVDrill Peck
p842
aVAstonish
p843
asg43
VSitrus Berry
p844
sg44
VInsomnia
p845
sbasg46
I01
sg47
Vplatinum
p846
sbag1
(g2
g3
Ntp847
Rp848
(dp849
g7
VSpr DP Saturn.png
p850
sg9
VCommander
p851
sg11
VSaturn
p852
sg13
V3520
p853
sg15
I3
sg17
g18
sg19
g20
sg21
g22
sg23
(lp854
g1
(g25
g3
Ntp855
Rp856
(dp857
g29
I42
sg31
VGolbat
p858
sg33
g34
sg35
V42
p859
sg37
(lp860
VBite
p861
aVAir Cutter
p862
aVPoison Fang
p863
aVConfuse Ray
p864
asg43
g12
sg44
VInner Focus
p865
sbag1
(g25
g3
Ntp866
Rp867
(dp868
g29
I436
sg31
VBronzor
p869
sg33
g154
sg35
V42
p870
sg37
(lp871
VExtrasensory
p872
aVGyro Ball
p873
aVConfuse Ray
p874
aVShadow Ball
p875
asg43
g12
sg44
VLevitate
p876
sbag1
(g25
g3
Ntp877
Rp878
(dp879
g29
I454
sg31
VToxicroak
p880
sg33
g34
sg35
V44
p881
sg37
(lp882
VBrick Break
p883
aVFaint Attack
p884
aVX-Scissor
p885
aVPoison Jab
p886
asg43
VSitrus Berry
p887
sg44
VAnticipation
p888
sbasg46
I01
sg47
g48
sba.