(lp0
ccopy_reg
_reconstructor
p1
(c__main__
Trainer
p2
c__builtin__
object
p3
Ntp4
Rp5
(dp6
VtSprite
p7
VVSYoungster SM.png
p8
sVtClass
p9
VYoungster
p10
sVtName
p11
VHonus
p12
sVtMoney
p13
V560
p14
sVtPokeCount
p15
V1
p16
sVtLocation
p17
Vwiki/Ten_Carat_Hill
p18
sVtRegion
p19
VAlola
p20
sVtGame
p21
VSM
p22
sVtPokes
p23
(lp24
g1
(c__main__
FinishedPokemon
p25
g3
Ntp26
Rp27
(dp28
VpDexNo
p29
V744
p30
sVpSpecies
p31
VRockruff
p32
sVpGender
p33
VM
p34
sVpLevel
p35
V28
p36
sVpMoves
p37
(lp38
Vhowl
p39
aVrock-climb
p40
aVstone-edge
p41
aVstealth-rock
p42
asVpHold
p43
V
p44
sVpAbility
p45
Vvital-spirit
p46
sbasVbossFlag
p47
I00
sVtLongGame
p48
Vsun-moon
p49
sbag1
(g2
g3
Ntp50
Rp51
(dp52
g7
VVSLass SM.png
p53
sg9
VLass
p54
sg11
VEllie
p55
sg13
V864
p56
sg15
V2
p57
sg17
g18
sg19
g20
sg21
g22
sg23
(lp58
g1
(g25
g3
Ntp59
Rp60
(dp61
g29
V731
p62
sg31
VPikipek
p63
sg33
VF
p64
sg35
V36
p65
sg37
(lp66
Vbullet-seed
p67
aVroost
p68
aVpluck
p69
aVechoed-voice
p70
asg43
g44
sg45
Vkeen-eye
p71
sbag1
(g25
g3
Ntp72
Rp73
(dp74
g29
V744
p75
sg31
VRockruff
p76
sg33
g64
sg35
V38
p77
sg37
(lp78
Vhowl
p79
aVrock-climb
p80
aVstone-edge
p81
aVstealth-rock
p82
asg43
g44
sg45
Vkeen-eye
p83
sbasg47
I00
sg48
g49
sbag1
(g2
g3
Ntp84
Rp85
(dp86
g7
VVSRising Star M SM.png
p87
sg9
VRising Star
p88
sg11
VIkaika
p89
sg13
V1,824
p90
sg15
g57
sg17
g18
sg19
g20
sg21
g22
sg23
(lp91
g1
(g25
g3
Ntp92
Rp93
(dp94
g29
V731
p95
sg31
VPikipek
p96
sg33
g34
sg35
V36
p97
sg37
(lp98
Vbullet-seed
p99
aVroost
p100
aVpluck
p101
aVechoed-voice
p102
asg43
g44
sg45
Vkeen-eye
p103
sbag1
(g25
g3
Ntp104
Rp105
(dp106
g29
V734
p107
sg31
VYungoos
p108
sg33
g34
sg35
V38
p109
sg37
(lp110
Vpursuit
p111
aVcrunch
p112
aVyawn
p113
aVodor-sleuth
p114
asg43
g44
sg45
Vstakeout
p115
sbasg47
I00
sg48
g49
sbag1
(g2
g3
Ntp116
Rp117
(dp118
g7
VVSAce Trainer F SM.png
p119
sg9
VAce Trainer
p120
sg11
VSheri
p121
sg13
V2,856
p122
sg15
g57
sg17
g18
sg19
g20
sg21
g22
sg23
(lp123
g1
(g25
g3
Ntp124
Rp125
(dp126
g29
V782
p127
sg31
VJangmo-o
p128
sg33
g64
sg35
V38
p129
sg37
(lp130
Vdragon-dance
p131
aVdragon-tail
p132
aVwork-up
p133
aVnoble-roar
p134
asg43
g44
sg45
Vsoundproof
p135
sbag1
(g25
g3
Ntp136
Rp137
(dp138
g29
V025
p139
sg31
VPikachu
p140
sg33
g64
sg35
V42
p141
sg37
(lp142
Velectro-ball
p143
aVwild-charge
p144
aVplay-nice
p145
aVnuzzle
p146
asg43
g44
sg45
Vstatic
p147
sbasg47
I00
sg48
g49
sba.