(lp0
ccopy_reg
_reconstructor
p1
(c__main__
Trainer
p2
c__builtin__
object
p3
Ntp4
Rp5
(dp6
VtSprite
p7
VVSWorker A.png
p8
sVtClass
p9
VWorker
p10
sVtName
p11
VNarek
p12
sVtMoney
p13
V3,072
p14
sVtPokeCount
p15
V3
p16
sVtLocation
p17
Vwiki/Terminus_Cave
p18
sVtRegion
p19
VKalos
p20
sVtGame
p21
VSM
p22
sVtPokes
p23
(lp24
g1
(c__main__
FinishedPokemon
p25
g3
Ntp26
Rp27
(dp28
VpDexNo
p29
V075
p30
sVpSpecies
p31
VGraveler
p32
sVpGender
p33
VM
p34
sVpLevel
p35
V46
p36
sVpMoves
p37
(lp38
Vstone-edge
p39
aVstealth-rock
p40
aVsmack-down
p41
aVbulldoze
p42
asVpHold
p43
V
p44
sVpAbility
p45
Vsturdy
p46
sbag1
(g25
g3
Ntp47
Rp48
(dp49
g29
V075
p50
sg31
VGraveler
p51
sg33
g34
sg35
V47
p52
sg37
(lp53
Vstone-edge
p54
aVstealth-rock
p55
aVsmack-down
p56
aVbulldoze
p57
asg43
g44
sg45
Vrock-head
p58
sbag1
(g25
g3
Ntp59
Rp60
(dp61
g29
V076
p62
sg31
VGolem
p63
sg33
g34
sg35
V48
p64
sg37
(lp65
Vheavy-slam
p66
ag66
aVbulldoze
p67
aVsteamroller
p68
asg43
g44
sg45
Vsturdy
p69
sbasVbossFlag
p70
I00
sVtLongGame
p71
Vsun-moon
p72
sbag1
(g2
g3
Ntp73
Rp74
(dp75
g7
VVSHiker.png
p76
sg9
VHiker
p77
sg11
VAaron
p78
sg13
V2,800
p79
sg15
V1
p80
sg17
g18
sg19
g20
sg21
g22
sg23
(lp81
g1
(g25
g3
Ntp82
Rp83
(dp84
g29
V112
p85
sg31
VRhydon
p86
sg33
g34
sg35
V50
p87
sg37
(lp88
Vsmack-down
p89
aVchip-away
p90
aVbulldoze
p91
aVdrill-run
p92
asg43
g44
sg45
Vlightning-rod
p93
sbasg70
I00
sg71
g72
sbag1
(g2
g3
Ntp94
Rp95
(dp96
g7
VVSHiker.png
p97
sg9
VHiker
p98
sg11
VBergin
p99
sg13
V2,688
p100
sg15
V2
p101
sg17
g18
sg19
g20
sg21
g22
sg23
(lp102
g1
(g25
g3
Ntp103
Rp104
(dp105
g29
V525
p106
sg31
VBoldore
p107
sg33
g34
sg35
V48
p108
sg37
(lp109
Vpower-gem
p110
aVstone-edge
p111
aVstealth-rock
p112
aVsmack-down
p113
asg43
g44
sg45
Vsturdy
p114
sbag1
(g25
g3
Ntp115
Rp116
(dp117
g29
V208
p118
sg31
VSteelix
p119
sg33
g34
sg35
V48
p120
sg37
(lp121
Vstone-edge
p122
aVstealth-rock
p123
aVautotomize
p124
aVsmack-down
p125
asg43
g44
sg45
Vrock-head
p126
sbasg70
I00
sg71
g72
sbag1
(g2
g3
Ntp127
Rp128
(dp129
g7
VVSWorker A.png
p130
sg9
VWorker
p131
sg11
VDimitri
p132
sg13
V3,200
p133
sg15
g80
sg17
g18
sg19
g20
sg21
g22
sg23
(lp134
g1
(g25
g3
Ntp135
Rp136
(dp137
g29
V224
p138
sg31
VOctillery
p139
sg33
g34
sg35
V50
p140
sg37
(lp141
Vrock-blast
p142
aVwring-out
p143
aVgunk-shot
p144
aVsoak
p145
asg43
g44
sg45
Vsuction-cups
p146
sbasg70
I00
sg71
g72
sbag1
(g2
g3
Ntp147
Rp148
(dp149
g7
VVSWorker B.png
p150
sg9
VWorker
p151
sg11
VYusif
p152
sg13
V3,200
p153
sg15
g80
sg17
g18
sg19
g20
sg21
g22
sg23
(lp154
g1
(g25
g3
Ntp155
Rp156
(dp157
g29
V476
p158
sg31
VProbopass
p159
sg33
g34
sg35
V50
p160
sg37
(lp161
Vmagnet-bomb
p162
aVstone-edge
p163
aVwide-guard
p164
aVmagnetic-flux
p165
asg43
g44
sg45
Vsturdy
p166
sbasg70
I00
sg71
g72
sbag1
(g2
g3
Ntp167
Rp168
(dp169
g7
VVSBattle Girl.png
p170
sg9
VBattle Girl
p171
sg11
VAndrea
p172
sg13
V2,400
p173
sg15
g101
sg17
g18
sg19
g20
sg21
g22
sg23
(lp174
g1
(g25
g3
Ntp175
Rp176
(dp177
g29
V538
p178
sg31
VThroh
p179
sg33
g34
sg35
V49
p180
sg37
(lp181
Vwide-guard
p182
aVstorm-throw
p183
aVcircle-throw
p184
aVmat-block
p185
asg43
g44
sg45
Vguts
p186
sbag1
(g25
g3
Ntp187
Rp188
(dp189
g29
V534
p190
sg31
VConkeldurr
p191
sg33
g34
sg35
V50
p192
sg37
(lp193
Vwake-up-slap
p194
aVhammer-arm
p195
aVstone-edge
p196
aVchip-away
p197
asg43
g44
sg45
Vguts
p198
sbasg70
I00
sg71
g72
sbag1
(g2
g3
Ntp199
Rp200
(dp201
g7
VVSBlack Belt.png
p202
sg9
VBlack Belt
p203
sg11
VGunnar
p204
sg13
V2,400
p205
sg15
g101
sg17
g18
sg19
g20
sg21
g22
sg23
(lp206
g1
(g25
g3
Ntp207
Rp208
(dp209
g29
V454
p210
sg31
VToxicroak
p211
sg33
g34
sg35
V49
p212
sg37
(lp213
Vnasty-plot
p214
aVmud-bomb
p215
aVvenoshock
p216
aVbelch
p217
asg43
g44
sg45
Vdry-skin
p218
sbag1
(g25
g3
Ntp219
Rp220
(dp221
g29
V539
p222
sg31
VSawk
p223
sg33
g34
sg35
V50
p224
sg37
(lp225
Vclose-combat
p226
aVlow-sweep
p227
aVquick-guard
p228
aVretaliate
p229
asg43
g44
sg45
Vsturdy
p230
sbasg70
I00
sg71
g72
sbag1
(g2
g3
Ntp231
Rp232
(dp233
g7
VVSBattle Girl.png
p234
sg9
VBattle Girl
p235
sg11
VHailey
p236
sg13
V2,448
p237
sg15
g101
sg17
g18
sg19
g20
sg21
g22
sg23
(lp238
g1
(g25
g3
Ntp239
Rp240
(dp241
g29
V308
p242
sg31
VMedicham
p243
sg33
VF
p244
sg35
V48
p245
sg37
(lp246
Vacupressure
p247
aVpower-trick
p248
aVforce-palm
p249
aVzen-headbutt
p250
asg43
g44
sg45
Vpure-power
p251
sbag1
(g25
g3
Ntp252
Rp253
(dp254
g29
V701
p255
sg31
VHawlucha
p256
sg33
g244
sg35
V51
p257
sg37
(lp258
Vfling
p259
aVhone-claws
p260
aVsky-drop
p261
aVflying-press
p262
asg43
g44
sg45
Vunburden
p263
sbasg70
I00
sg71
g72
sbag1
(g2
g3
Ntp264
Rp265
(dp266
g7
VVSBlack Belt.png
p267
sg9
VBlack Belt
p268
sg11
VRicardo
p269
sg13
V2,496
p270
sg15
g80
sg17
g18
sg19
g20
sg21
g22
sg23
(lp271
g1
(g25
g3
Ntp272
Rp273
(dp274
g29
V297
p275
sg31
VHariyama
p276
sg33
g34
sg35
V52
p277
sg37
(lp278
Vbrine
p279
aVclose-combat
p280
aVforce-palm
p281
aVheavy-slam
p282
asg43
g44
sg45
Vguts
p283
sbasg70
I00
sg71
g72
sbag1
(g2
g3
Ntp284
Rp285
(dp286
g7
VVSRangers.png
p287
sg9
VRangers
p288
sg11
VFern & Lee
p289
sg13
V8,160
p290
sg15
g101
sg17
g18
sg19
g20
sg21
g22
sg23
(lp291
g1
(g25
g3
Ntp292
Rp293
(dp294
g29
V031
p295
sg31
VNidoqueen
p296
sg33
g244
sg35
V51
p297
sg37
(lp298
Vsuperpower
p299
ag299
aVearth-power
p300
aVchip-away
p301
asg43
g44
sg45
Vpoison-point
p302
sbag1
(g25
g3
Ntp303
Rp304
(dp305
g29
V034
p306
sg31
VNidoking
p307
sg33
g34
sg35
V51
p308
sg37
(lp309
Vmegahorn
p310
ag310
aVearth-power
p311
aVchip-away
p312
asg43
g44
sg45
Vrivalry
p313
sbasg70
I00
sg71
g72
sba.