(lp0
ccopy_reg
_reconstructor
p1
(c__main__
Trainer
p2
c__builtin__
object
p3
Ntp4
Rp5
(dp6
VtSprite
p7
VSpr FRLG Biker.png
p8
sVtClass
p9
VBiker
p10
sVtName
p11
VGoon
p12
sVtMoney
p13
V740
p14
sVtPokeCount
p15
V2
p16
sVtLocation
p17
Vwiki/Three_Island_(town)
p18
sVtRegion
p19
Vlands
p20
sVtGame
p21
VFRLG
p22
sVtPokes
p23
(lp24
g1
(c__main__
FinishedPokemon
p25
g3
Ntp26
Rp27
(dp28
VpDexNo
p29
V109
p30
sVpSpecies
p31
VKoffing
p32
sVpGender
p33
VM
p34
sVpLevel
p35
V37
p36
sVpMoves
p37
(lp38
Vpoison-gas
p39
aVexplosion
p40
aVdestiny-bond
p41
aVmemento
p42
asVpHold
p43
V
p44
sVpAbility
p45
Vlevitate
p46
sbag1
(g25
g3
Ntp47
Rp48
(dp49
g29
V088
p50
sg31
VGrimer
p51
sg33
g34
sg35
V37
p52
sg37
(lp53
Vpoison-gas
p54
aVacid-armor
p55
aVsludge-bomb
p56
aVmemento
p57
asg43
g44
sg45
Vsticky-hold
p58
sbasVbossFlag
p59
I00
sVtLongGame
p60
Vfirered-leafgreen
p61
sbag1
(g2
g3
Ntp62
Rp63
(dp64
g7
VSpr FRLG Biker.png
p65
sg9
VBiker
p66
sg11
VGoon
p67
sg13
V760
p68
sg15
V1
p69
sg17
g18
sg19
g20
sg21
g22
sg23
(lp70
g1
(g25
g3
Ntp71
Rp72
(dp73
g29
V109
p74
sg31
VKoffing
p75
sg33
g34
sg35
V38
p76
sg37
(lp77
Vpoison-gas
p78
aVexplosion
p79
aVdestiny-bond
p80
aVmemento
p81
asg43
g44
sg45
Vlevitate
p82
sbasg59
I00
sg60
g61
sbag1
(g2
g3
Ntp83
Rp84
(dp85
g7
VSpr FRLG Biker.png
p86
sg9
VBiker
p87
sg11
VGoon
p88
sg13
V760
p89
sg15
g69
sg17
g18
sg19
g20
sg21
g22
sg23
(lp90
g1
(g25
g3
Ntp91
Rp92
(dp93
g29
V088
p94
sg31
VGrimer
p95
sg33
g34
sg35
V38
p96
sg37
(lp97
Vpoison-gas
p98
aVacid-armor
p99
aVsludge-bomb
p100
aVmemento
p101
asg43
g44
sg45
Vsticky-hold
p102
sbasg59
I00
sg60
g61
sbag1
(g2
g3
Ntp103
Rp104
(dp105
g7
VSpr FRLG Cue Ball.png
p106
sg9
VCue Ball
p107
sg11
VPaxton
p108
sg13
V936
p109
sg15
g16
sg17
g18
sg19
g20
sg21
g22
sg23
(lp110
g1
(g25
g3
Ntp111
Rp112
(dp113
g29
V110
p114
sg31
VWeezing
p115
sg33
g34
sg35
V39
p116
sg37
(lp117
Vpoison-gas
p118
aVexplosion
p119
aVdestiny-bond
p120
aVmemento
p121
asg43
g44
sg45
Vlevitate
p122
sbag1
(g25
g3
Ntp123
Rp124
(dp125
g29
V089
p126
sg31
VMuk
p127
sg33
g34
sg35
V39
p128
sg37
(lp129
Vpoison-gas
p130
aVacid-armor
p131
aVsludge-bomb
p132
aVmemento
p133
asg43
g44
sg45
Vstench
p134
sbasg59
I00
sg60
g61
sba.