(lp0
ccopy_reg
_reconstructor
p1
(c__main__
Trainer
p2
c__builtin__
object
p3
Ntp4
Rp5
(dp6
VtSprite
p7
VVSMaster Dojo Student F.png
p8
sVtClass
p9
VMaster Dojo Student
p10
sVtName
p11
V
p12
sVtMoney
p13
g1
(cmwparserfromhell.wikicode
Wikicode
p14
g3
Ntp15
Rp16
(dp17
V_nodes
p18
g1
(cmwparserfromhell.smart_list.smart_list
SmartList
p19
c__builtin__
list
p20
(lp21
g1
(cmwparserfromhell.nodes.text
Text
p22
g3
Ntp23
Rp24
(dp25
V_value
p26
V1,840
p27
sbatp28
Rp29
(dp30
V_children
p31
(dp32
sbsbsVtPokeCount
p33
V1
p34
sVtLocation
p35
Vwiki/Tower_of_Waters
p36
sVtRegion
p37
VGalar
p38
sVtGame
p39
VSM
p40
sVtPokes
p41
(lp42
g1
(c__main__
FinishedPokemon
p43
g3
Ntp44
Rp45
(dp46
VpDexNo
p47
V054
p48
sVpSpecies
p49
VPsyduck
p50
sVpGender
p51
VF
p52
sVpLevel
p53
V23
p54
sVpMoves
p55
(lp56
Vaqua-tail
p57
aVzen-headbutt
p58
aVwonder-room
p59
aVsoak
p60
asVpHold
p61
g12
sVpAbility
p62
Vdamp
p63
sbasVbossFlag
p64
I00
sVtLongGame
p65
Vsun-moon
p66
sbag1
(g2
g3
Ntp67
Rp68
(dp69
g7
VVSMaster Dojo Student M.png
p70
sg9
VMaster Dojo Student
p71
sg11
g12
sg13
g1
(g14
g3
Ntp72
Rp73
(dp74
g18
g1
(g19
g20
(lp75
g1
(g22
g3
Ntp76
Rp77
(dp78
g26
V1,920
p79
sbatp80
Rp81
(dp82
g31
(dp83
sbsbsg33
g34
sg35
g36
sg37
g38
sg39
VSM
p84
sg41
(lp85
g1
(g43
g3
Ntp86
Rp87
(dp88
g47
V098
p89
sg49
VKrabby
p90
sg51
VM
p91
sg53
V24
p92
sg55
(lp93
Vmetal-claw
p94
aVmud-sport
p95
aVmud-shot
p96
aVbrine
p97
asg61
g12
sg62
Vshell-armor
p98
sbasg64
I00
sg65
g66
sbag1
(g2
g3
Ntp99
Rp100
(dp101
g7
VVSMaster Dojo Student F.png
p102
sg9
VMaster Dojo Student
p103
sg11
g12
sg13
g1
(g14
g3
Ntp104
Rp105
(dp106
g18
g1
(g19
g20
(lp107
g1
(g22
g3
Ntp108
Rp109
(dp110
g26
V2,000
p111
sbatp112
Rp113
(dp114
g31
(dp115
sbsbsg33
g34
sg35
g36
sg37
g38
sg39
g40
sg41
(lp116
g1
(g43
g3
Ntp117
Rp118
(dp119
g47
V183
p120
sg49
VMarill
p121
sg51
g52
sg53
V25
p122
sg55
(lp123
Vwater-sport
p124
aVaqua-ring
p125
aVaqua-tail
p126
aVplay-rough
p127
asg61
g12
sg62
Vthick-fat
p128
sbasg64
I00
sg65
g66
sbag1
(g2
g3
Ntp129
Rp130
(dp131
g7
VVSMaster Dojo Student M.png
p132
sg9
VMaster Dojo Student
p133
sg11
g12
sg13
g1
(g14
g3
Ntp134
Rp135
(dp136
g18
g1
(g19
g20
(lp137
g1
(g22
g3
Ntp138
Rp139
(dp140
g26
V2,080
p141
sbatp142
Rp143
(dp144
g31
(dp145
sbsbsg33
g34
sg35
g36
sg37
g38
sg39
g84
sg41
(lp146
g1
(g43
g3
Ntp147
Rp148
(dp149
g47
V061
p150
sg49
VPoliwhirl
p151
sg51
g91
sg53
V26
p152
sg55
(lp153
Vmud-shot
p154
aVwater-sport
p155
aVwake-up-slap
p156
aVmud-bomb
p157
asg61
g12
sg62
Vdamp
p158
sbasg64
I00
sg65
g66
sbag1
(g2
g3
Ntp159
Rp160
(dp161
g7
VVSMustard 2.png
p162
sg9
VDojo Master
p163
sg11
VMustard
p164
sg13
g1
(g14
g3
Ntp165
Rp166
(dp167
g18
g1
(g19
g20
(lp168
g1
(g22
g3
Ntp169
Rp170
(dp171
g26
V6,000
p172
sbatp173
Rp174
(dp175
g31
(dp176
sbsbsg33
I1
sg35
g36
sg37
g38
sg39
VSM
p177
sg41
(lp178
g1
(g43
g3
Ntp179
Rp180
(dp181
g47
I891
sg49
VKubfu
p182
sg51
g91
sg53
g1
(g14
g3
Ntp183
Rp184
(dp185
g18
g1
(g19
g20
(lp186
g1
(g22
g3
Ntp187
Rp188
(dp189
g26
V30
p190
sbatp191
Rp192
(dp193
g31
(dp194
sbsbsg55
(lp195
VAerial Ace
p196
aVFocus Energy
p197
aVBrick Break
p198
asg61
VFocus Sash
p199
sg62
VInner Focus
p200
sbasg64
I01
sg65
g66
sba.