(lp0
ccopy_reg
_reconstructor
p1
(c__main__
Trainer
p2
c__builtin__
object
p3
Ntp4
Rp5
(dp6
VtSprite
p7
VVSMaster Dojo Student M.png
p8
sVtClass
p9
VMaster Dojo Student
p10
sVtName
p11
V
p12
sVtMoney
p13
g1
(cmwparserfromhell.wikicode
Wikicode
p14
g3
Ntp15
Rp16
(dp17
V_nodes
p18
g1
(cmwparserfromhell.smart_list.smart_list
SmartList
p19
c__builtin__
list
p20
(lp21
g1
(cmwparserfromhell.nodes.text
Text
p22
g3
Ntp23
Rp24
(dp25
V_value
p26
V1,840
p27
sbatp28
Rp29
(dp30
V_children
p31
(dp32
sbsbsVtPokeCount
p33
V1
p34
sVtLocation
p35
Vwiki/Tower_of_Darkness
p36
sVtRegion
p37
VGalar
p38
sVtGame
p39
VSM
p40
sVtPokes
p41
(lp42
g1
(c__main__
FinishedPokemon
p43
g3
Ntp44
Rp45
(dp46
VpDexNo
p47
V570
p48
sVpSpecies
p49
VZorua
p50
sVpGender
p51
VM
p52
sVpLevel
p53
V23
p54
sVpMoves
p55
(lp56
Vpunishment
p57
aVnasty-plot
p58
aVfoul-play
p59
aVnight-daze
p60
asVpHold
p61
g12
sVpAbility
p62
Villusion
p63
sbasVbossFlag
p64
I00
sVtLongGame
p65
Vsun-moon
p66
sbag1
(g2
g3
Ntp67
Rp68
(dp69
g7
VVSMaster Dojo Student F.png
p70
sg9
VMaster Dojo Student
p71
sg11
g12
sg13
g1
(g14
g3
Ntp72
Rp73
(dp74
g18
g1
(g19
g20
(lp75
g1
(g22
g3
Ntp76
Rp77
(dp78
g26
V1,920
p79
sbatp80
Rp81
(dp82
g31
(dp83
sbsbsg33
g34
sg35
g36
sg37
g38
sg39
g40
sg41
(lp84
g1
(g43
g3
Ntp85
Rp86
(dp87
g47
V559
p88
sg49
VScraggy
p89
sg51
VF
p90
sg53
V24
p91
sg55
(lp92
Vpayback
p93
aVrock-climb
p94
aVhead-smash
p95
aVchip-away
p96
asg61
g12
sg62
Vmoxie
p97
sbasg64
I00
sg65
g66
sbag1
(g2
g3
Ntp98
Rp99
(dp100
g7
VVSMaster Dojo Student M.png
p101
sg9
VMaster Dojo Student
p102
sg11
g12
sg13
g1
(g14
g3
Ntp103
Rp104
(dp105
g18
g1
(g19
g20
(lp106
g1
(g22
g3
Ntp107
Rp108
(dp109
g26
V2,000
p110
sbatp111
Rp112
(dp113
g31
(dp114
sbsbsg33
g34
sg35
g36
sg37
g38
sg39
g40
sg41
(lp115
g1
(g43
g3
Ntp116
Rp117
(dp118
g47
V686
p119
sg49
VInkay
p120
sg51
g52
sg53
V25
p121
sg55
(lp122
Vswitcheroo
p123
aVpsycho-cut
p124
aVfoul-play
p125
aVtopsy-turvy
p126
asg61
g12
sg62
Vsuction-cups
p127
sbasg64
I00
sg65
g66
sbag1
(g2
g3
Ntp128
Rp129
(dp130
g7
VVSMaster Dojo Student F.png
p131
sg9
VMaster Dojo Student
p132
sg11
g12
sg13
g1
(g14
g3
Ntp133
Rp134
(dp135
g18
g1
(g19
g20
(lp136
g1
(g22
g3
Ntp137
Rp138
(dp139
g26
V2,080
p140
sbatp141
Rp142
(dp143
g31
(dp144
sbsbsg33
g34
sg35
g36
sg37
g38
sg39
g40
sg41
(lp145
g1
(g43
g3
Ntp146
Rp147
(dp148
g47
V552
p149
sg49
VKrokorok
p150
sg51
g90
sg53
V26
p151
sg55
(lp152
Vsand-tomb
p153
aVassurance
p154
aVembargo
p155
aVfoul-play
p156
asg61
g12
sg62
Vmoxie
p157
sbasg64
I00
sg65
g66
sbag1
(g2
g3
Ntp158
Rp159
(dp160
g7
VVSMustard 2.png
p161
sg9
VDojo Master
p162
sg11
VMustard
p163
sg13
g1
(g14
g3
Ntp164
Rp165
(dp166
g18
g1
(g19
g20
(lp167
g1
(g22
g3
Ntp168
Rp169
(dp170
g26
V6,000
p171
sbatp172
Rp173
(dp174
g31
(dp175
sbsbsg33
I1
sg35
g36
sg37
g38
sg39
g40
sg41
(lp176
g1
(g43
g3
Ntp177
Rp178
(dp179
g47
I891
sg49
VKubfu
p180
sg51
g52
sg53
g1
(g14
g3
Ntp181
Rp182
(dp183
g18
g1
(g19
g20
(lp184
g1
(g22
g3
Ntp185
Rp186
(dp187
g26
V30
p188
sbatp189
Rp190
(dp191
g31
(dp192
sbsbsg55
(lp193
VAerial Ace
p194
aVFocus Energy
p195
aVBrick Break
p196
asg61
VFocus Sash
p197
sg62
VInner Focus
p198
sbasg64
I01
sg65
g66
sba.