(lp0
ccopy_reg
_reconstructor
p1
(c__main__
Trainer
p2
c__builtin__
object
p3
Ntp4
Rp5
(dp6
VtSprite
p7
VSpr GS Ethan.png
p8
sVtClass
p9
VPokemon Trainer
p10
sVtName
p11
VCal (game)
p12
sVtMoney
p13
V5000
p14
sVtPokeCount
p15
I3
sVtLocation
p16
Vwiki/Trainer_House
p17
sVtRegion
p18
VKanto
p19
sVtGame
p20
VGS
p21
sVtPokes
p22
(lp23
g1
(c__main__
FinishedPokemon
p24
g3
Ntp25
Rp26
(dp27
VpDexNo
p28
I154
sVpSpecies
p29
VMeganium
p30
sVpGender
p31
VM
p32
sVpLevel
p33
V50
p34
sVpMoves
p35
(lp36
VPoisonPowder
p37
aVSynthesis
p38
aVBody Slam
p39
aVLight Screen
p40
asVpHold
p41
V
p42
sVpAbility
p43
Vovergrow
p44
sbag1
(g24
g3
Ntp45
Rp46
(dp47
g28
I157
sg29
VTyphlosion
p48
sg31
g32
sg33
V50
p49
sg35
(lp50
VEmber
p51
aVQuick Attack
p52
aVSwift
p53
aVFlame Wheel
p54
asg41
g42
sg43
Vblaze
p55
sbag1
(g24
g3
Ntp56
Rp57
(dp58
g28
I160
sg29
VFeraligatr
p59
sg31
g32
sg33
V50
p60
sg35
(lp61
VBite
p62
aVScary Face
p63
aVSlash
p64
aVScreech
p65
asg41
g42
sg43
Vtorrent
p66
sbasVbossFlag
p67
I01
sVtLongGame
p68
Vgold-silver
p69
sbag1
(g2
g3
Ntp70
Rp71
(dp72
g7
VSpr HGSS Ace Trainer M.png
p73
sg9
VAce Trainer
p74
sg11
VCal (game)
p75
sg13
V1{{color2|000000|battle point|bp}}
p76
sg15
I3
sg16
g17
sg18
g19
sg20
VHGSS
p77
sg22
(lp78
g1
(g24
g3
Ntp79
Rp80
(dp81
g28
I154
sg29
VMeganium
p82
sg31
VF
p83
sg33
V50
p84
sg35
(lp85
VEnergy Ball
p86
aVProtect
p87
aVLeech Seed
p88
aVToxic
p89
asg41
VSitrus Berry
p90
sg43
VOvergrow
p91
sbag1
(g24
g3
Ntp92
Rp93
(dp94
g28
I157
sg29
VTyphlosion
p95
sg31
g83
sg33
V50
p96
sg35
(lp97
VEruption
p98
aVFocus Blast
p99
aVFlamethrower
p100
aVSubstitute
p101
asg41
VSalac Berry
p102
sg43
VBlaze
p103
sbag1
(g24
g3
Ntp104
Rp105
(dp106
g28
I160
sg29
VFeraligatr
p107
sg31
g83
sg33
V50
p108
sg35
(lp109
VWaterfall
p110
aVCrunch
p111
aVIce Punch
p112
aVDragon Dance
p113
asg41
VLum Berry
p114
sg43
VTorrent
p115
sbasg67
I01
sg68
Vheartgold-soulsilver
p116
sba.