(lp0
ccopy_reg
_reconstructor
p1
(c__main__
Trainer
p2
c__builtin__
object
p3
Ntp4
Rp5
(dp6
VtSprite
p7
VSpr DP School Kid M.png
p8
sVtClass
p9
VSchool Kid
p10
sVtName
p11
VHarrison
p12
sVtMoney
p13
V120
p14
sVtPokeCount
p15
V1
p16
sVtLocation
p17
Vwiki/Trainers%27_School_(Sinnoh)
p18
sVtRegion
p19
VSinnoh
p20
sVtGame
p21
VDP
p22
sVtPokes
p23
(lp24
g1
(c__main__
FinishedPokemon
p25
g3
Ntp26
Rp27
(dp28
VpDexNo
p29
V063
p30
sVpSpecies
p31
VAbra
p32
sVpGender
p33
VM
p34
sVpLevel
p35
V6
p36
sVpMoves
p37
(lp38
Vteleport
p39
asVpHold
p40
V
p41
sVpAbility
p42
Vinner-focus
p43
sbasVbossFlag
p44
I00
sVtLongGame
p45
Vdiamond-pearl
p46
sbag1
(g2
g3
Ntp47
Rp48
(dp49
g7
VSpr DP School Kid F.png
p50
sg9
VSchool Kid
p51
sg11
VChristine
p52
sg13
V120
p53
sg15
g16
sg17
g18
sg19
g20
sg21
g22
sg23
(lp54
g1
(g25
g3
Ntp55
Rp56
(dp57
g29
V063
p58
sg31
VAbra
p59
sg33
g34
sg35
g36
sg37
(lp60
Vteleport
p61
asg40
g41
sg42
Vinner-focus
p62
sbasg44
I00
sg45
g46
sbag1
(g2
g3
Ntp63
Rp64
(dp65
g7
VSpr DP School Kid M.png
p66
sg9
VSchool Kid
p67
sg11
VHarrison
p68
sg13
V120
p69
sg15
g16
sg17
g18
sg19
g20
sg21
g22
sg23
(lp70
g1
(g25
g3
Ntp71
Rp72
(dp73
g29
V396
p74
sg31
VStarly
p75
sg33
g34
sg35
g36
sg37
(lp76
Vdouble-team
p77
aVendeavor
p78
aVaerial-ace
p79
aVbrave-bird
p80
asg40
g41
sg42
Vkeen-eye
p81
sbasg44
I00
sg45
g46
sbag1
(g2
g3
Ntp82
Rp83
(dp84
g7
VSpr DP School Kid F.png
p85
sg9
VSchool Kid
p86
sg11
VChristine
p87
sg13
V120
p88
sg15
g16
sg17
g18
sg19
g20
sg21
g22
sg23
(lp89
g1
(g25
g3
Ntp90
Rp91
(dp92
g29
V399
p93
sg31
VBidoof
p94
sg33
VF
p95
sg35
g36
sg37
(lp96
Vsuper-fang
p97
aVrollout
p98
aVsuperpower
p99
aVyawn
p100
asg40
g41
sg42
Vsimple
p101
sbasg44
I00
sg45
g46
sba.