(lp0
ccopy_reg
_reconstructor
p1
(c__main__
Trainer
p2
c__builtin__
object
p3
Ntp4
Rp5
(dp6
VtSprite
p7
VSpr FRLG Swimmer F.png
p8
sVtClass
p9
VSwimmer\u2640
p10
sVtName
p11
VAmara
p12
sVtMoney
p13
V144
p14
sVtPokeCount
p15
V3
p16
sVtLocation
p17
Vwiki/Treasure_Beach
p18
sVtRegion
p19
Vlands
p20
sVtGame
p21
VFRLG
p22
sVtPokes
p23
(lp24
g1
(c__main__
FinishedPokemon
p25
g3
Ntp26
Rp27
(dp28
VpDexNo
p29
V086
p30
sVpSpecies
p31
VSeel
p32
sVpGender
p33
VF
p34
sVpLevel
p35
V36
p36
sVpMoves
p37
(lp38
Vaurora-beam
p39
aVrest
p40
aVicy-wind
p41
aVsafeguard
p42
asVpHold
p43
V
p44
sVpAbility
p45
Vthick-fat
p46
sbag1
(g25
g3
Ntp47
Rp48
(dp49
g29
V086
p50
sg31
VSeel
p51
sg33
g34
sg35
V36
p52
sg37
(lp53
Vaurora-beam
p54
aVrest
p55
aVicy-wind
p56
aVsafeguard
p57
asg43
g44
sg45
Vhydration
p58
sbag1
(g25
g3
Ntp59
Rp60
(dp61
g29
V087
p62
sg31
VDewgong
p63
sg33
g34
sg35
V36
p64
sg37
(lp65
Vicy-wind
p66
aVsafeguard
p67
aVsignal-beam
p68
aVsheer-cold
p69
asg43
g44
sg45
Vthick-fat
p70
sbasVbossFlag
p71
I00
sVtLongGame
p72
Vfirered-leafgreen
p73
sba.