(lp0
ccopy_reg
_reconstructor
p1
(c__main__
Trainer
p2
c__builtin__
object
p3
Ntp4
Rp5
(dp6
VtSprite
p7
VSpr BW Biker.png
p8
sVtClass
p9
VBiker
p10
sVtName
p11
VMorgann{{dotw|Fri}}
p12
sVtMoney
p13
V1184
p14
sVtPokeCount
p15
V1
p16
sVtLocation
p17
Vwiki/Tubeline_Bridge
p18
sVtRegion
p19
VUnova
p20
sVtGame
p21
VBW
p22
sVtPokes
p23
(lp24
g1
(c__main__
FinishedPokemon
p25
g3
Ntp26
Rp27
(dp28
VpDexNo
p29
V626
p30
sVpSpecies
p31
VBouffalant
p32
sVpGender
p33
VM
p34
sVpLevel
p35
V37
p36
sVpMoves
p37
(lp38
Vpursuit
p39
aVrevenge
p40
aVgiga-impact
p41
aVhead-charge
p42
asVpHold
p43
V
p44
sVpAbility
p45
Vsap-sipper
p46
sbasVbossFlag
p47
I00
sVtLongGame
p48
Vblack-white
p49
sbag1
(g2
g3
Ntp50
Rp51
(dp52
g7
VSpr BW Biker.png
p53
sg9
VBiker
p54
sg11
VJeremy{{dotw|Fri}}
p55
sg13
V1120
p56
sg15
V3
p57
sg17
g18
sg19
g20
sg21
g22
sg23
(lp58
g1
(g25
g3
Ntp59
Rp60
(dp61
g29
V595
p62
sg31
VJoltik
p63
sg33
g34
sg35
V35
p64
sg37
(lp65
Vdischarge
p66
aVbug-bite
p67
aVelectro-ball
p68
aVelectroweb
p69
asg43
g44
sg45
Vcompound-eyes
p70
sbag1
(g25
g3
Ntp71
Rp72
(dp73
g29
V559
p74
sg31
VScraggy
p75
sg33
g34
sg35
V35
p76
sg37
(lp77
Vpayback
p78
aVrock-climb
p79
aVhead-smash
p80
aVchip-away
p81
asg43
g44
sg45
Vmoxie
p82
sbag1
(g25
g3
Ntp83
Rp84
(dp85
g29
V552
p86
sg31
VKrokorok
p87
sg33
g34
sg35
V35
p88
sg37
(lp89
Vsand-tomb
p90
aVassurance
p91
aVembargo
p92
aVfoul-play
p93
asg43
g44
sg45
Vintimidate
p94
sbasg47
I00
sg48
g49
sba.