(lp0
ccopy_reg
_reconstructor
p1
(c__main__
Trainer
p2
c__builtin__
object
p3
Ntp4
Rp5
(dp6
VtSprite
p7
VSpr BW Hiker.png
p8
sVtClass
p9
VHiker
p10
sVtName
p11
VTerrell
p12
sVtMoney
p13
V1088
p14
sVtPokeCount
p15
V2
p16
sVtLocation
p17
Vwiki/Twist_Mountain
p18
sVtRegion
p19
VUnova
p20
sVtGame
p21
VBW
p22
sVtPokes
p23
(lp24
g1
(c__main__
FinishedPokemon
p25
g3
Ntp26
Rp27
(dp28
VpDexNo
p29
V525
p30
sVpSpecies
p31
VBoldore
p32
sVpGender
p33
VM
p34
sVpLevel
p35
V34
p36
sVpMoves
p37
(lp38
Vpower-gem
p39
aVstone-edge
p40
aVstealth-rock
p41
aVsmack-down
p42
asVpHold
p43
V
p44
sVpAbility
p45
Vweak-armor
p46
sbag1
(g25
g3
Ntp47
Rp48
(dp49
g29
V533
p50
sg31
VGurdurr
p51
sg33
g34
sg35
V34
p52
sg37
(lp53
Vwake-up-slap
p54
aVhammer-arm
p55
aVstone-edge
p56
aVchip-away
p57
asg43
g44
sg45
Vsheer-force
p58
sbasVbossFlag
p59
I00
sVtLongGame
p60
Vblack-white
p61
sbag1
(g2
g3
Ntp62
Rp63
(dp64
g7
VSpr BW Hiker.png
p65
sg9
VHiker
p66
sg11
VDarrell
p67
sg13
V1056
p68
sg15
V3
p69
sg17
g18
sg19
g20
sg21
g22
sg23
(lp70
g1
(g25
g3
Ntp71
Rp72
(dp73
g29
V527
p74
sg31
VWoobat
p75
sg33
g34
sg35
V33
p76
sg37
(lp77
Vcalm-mind
p78
aVassurance
p79
aVair-slash
p80
aVheart-stamp
p81
asg43
g44
sg45
Vklutz
p82
sbag1
(g25
g3
Ntp83
Rp84
(dp85
g29
V533
p86
sg31
VGurdurr
p87
sg33
g34
sg35
V33
p88
sg37
(lp89
Vwake-up-slap
p90
aVhammer-arm
p91
aVstone-edge
p92
aVchip-away
p93
asg43
g44
sg45
Vguts
p94
sbag1
(g25
g3
Ntp95
Rp96
(dp97
g29
V525
p98
sg31
VBoldore
p99
sg33
g34
sg35
V33
p100
sg37
(lp101
Vpower-gem
p102
aVstone-edge
p103
aVstealth-rock
p104
aVsmack-down
p105
asg43
g44
sg45
Vweak-armor
p106
sbasg59
I00
sg60
g61
sbag1
(g2
g3
Ntp107
Rp108
(dp109
g7
VSpr BW Ace Trainer F.png
p110
sg9
VAce Trainer
p111
sg11
VCaroll
p112
sg13
V2100
p113
sg15
g69
sg17
g18
sg19
g20
sg21
g22
sg23
(lp114
g1
(g25
g3
Ntp115
Rp116
(dp117
g29
V583
p118
sg31
VVanillish
p119
sg33
VF
p120
sg35
V35
p121
sg37
(lp122
Vsheer-cold
p123
aVicicle-spear
p124
aVavalanche
p125
aVmirror-shot
p126
asg43
g44
sg45
Vice-body
p127
sbag1
(g25
g3
Ntp128
Rp129
(dp130
g29
V575
p131
sg31
VGothorita
p132
sg33
g120
sg35
V35
p133
sg37
(lp134
Vheal-block
p135
aVpsyshock
p136
aVtelekinesis
p137
aVmagic-room
p138
asg43
g44
sg45
Vfrisk
p139
sbag1
(g25
g3
Ntp140
Rp141
(dp142
g29
V578
p143
sg31
VDuosion
p144
sg33
g120
sg35
V35
p145
sg37
(lp146
Vsnatch
p147
aVheal-block
p148
aVwonder-room
p149
aVpsyshock
p150
asg43
g44
sg45
Vmagic-guard
p151
sbasg59
I00
sg60
g61
sbag1
(g2
g3
Ntp152
Rp153
(dp154
g7
VSpr BW Battle Girl.png
p155
sg9
VBattle Girl
p156
sg11
VSharon
p157
sg13
V1152
p158
sg15
V1
p159
sg17
g18
sg19
g20
sg21
g22
sg23
(lp160
g1
(g25
g3
Ntp161
Rp162
(dp163
g29
V538
p164
sg31
VThroh
p165
sg33
g34
sg35
V36
p166
sg37
(lp167
Vbulk-up
p168
aVwide-guard
p169
aVstorm-throw
p170
aVcircle-throw
p171
asg43
g44
sg45
Vguts
p172
sbasg59
I00
sg60
g61
sbag1
(g2
g3
Ntp173
Rp174
(dp175
g7
VSpr BW Worker.png
p176
sg9
VWorker
p177
sg11
VBrand
p178
sg13
V1360
p179
sg15
g16
sg17
g18
sg19
g20
sg21
g22
sg23
(lp180
g1
(g25
g3
Ntp181
Rp182
(dp183
g29
V525
p184
sg31
VBoldore
p185
sg33
g34
sg35
V34
p186
sg37
(lp187
Vpower-gem
p188
aVstone-edge
p189
aVstealth-rock
p190
aVsmack-down
p191
asg43
g44
sg45
Vweak-armor
p192
sbag1
(g25
g3
Ntp193
Rp194
(dp195
g29
V530
p196
sg31
VExcadrill
p197
sg33
g34
sg35
V34
p198
sg37
(lp199
Vmetal-claw
p200
aVmud-sport
p201
aVhone-claws
p202
aVdrill-run
p203
asg43
g44
sg45
Vsand-force
p204
sbasg59
I00
sg60
g61
sbag1
(g2
g3
Ntp205
Rp206
(dp207
g7
VSpr BW Worker.png
p208
sg9
VWorker
p209
sg11
VHeath
p210
sg13
V1400
p211
sg15
g159
sg17
g18
sg19
g20
sg21
g22
sg23
(lp212
g1
(g25
g3
Ntp213
Rp214
(dp215
g29
V528
p216
sg31
VSwoobat
p217
sg33
g34
sg35
V35
p218
sg37
(lp219
Vassurance
p220
ag220
aVair-slash
p221
aVheart-stamp
p222
asg43
g44
sg45
Vunaware
p223
sbasg59
I00
sg60
g61
sbag1
(g2
g3
Ntp224
Rp225
(dp226
g7
VSpr BW Worker.png
p227
sg9
VWorker
p228
sg11
VRob
p229
sg13
V1320
p230
sg15
g69
sg17
g18
sg19
g20
sg21
g22
sg23
(lp231
g1
(g25
g3
Ntp232
Rp233
(dp234
g29
V525
p235
sg31
VBoldore
p236
sg33
g34
sg35
V33
p237
sg37
(lp238
Vpower-gem
p239
aVstone-edge
p240
aVstealth-rock
p241
aVsmack-down
p242
asg43
g44
sg45
Vsturdy
p243
sbag1
(g25
g3
Ntp244
Rp245
(dp246
g29
V525
p247
sg31
VBoldore
p248
sg33
g34
sg35
V33
p249
sg37
(lp250
Vpower-gem
p251
aVstone-edge
p252
aVstealth-rock
p253
aVsmack-down
p254
asg43
g44
sg45
Vweak-armor
p255
sbag1
(g25
g3
Ntp256
Rp257
(dp258
g29
V525
p259
sg31
VBoldore
p260
sg33
g34
sg35
V33
p261
sg37
(lp262
Vpower-gem
p263
aVstone-edge
p264
aVstealth-rock
p265
aVsmack-down
p266
asg43
g44
sg45
Vsturdy
p267
sbasg59
I00
sg60
g61
sbag1
(g2
g3
Ntp268
Rp269
(dp270
g7
VSpr BW Worker.png
p271
sg9
VWorker
p272
sg11
VCairn
p273
sg13
V1400
p274
sg15
g159
sg17
g18
sg19
g20
sg21
g22
sg23
(lp275
g1
(g25
g3
Ntp276
Rp277
(dp278
g29
V530
p279
sg31
VExcadrill
p280
sg33
g34
sg35
V35
p281
sg37
(lp282
Vmetal-claw
p283
aVmud-sport
p284
aVhone-claws
p285
aVdrill-run
p286
asg43
g44
sg45
Vsand-force
p287
sbasg59
I00
sg60
g61
sbag1
(g2
g3
Ntp288
Rp289
(dp290
g7
VSpr BW Doctor.png
p291
sg9
VDoctor
p292
sg11
VHank
p293
sg13
V2040
p294
sg15
g16
sg17
g18
sg19
g20
sg21
g22
sg23
(lp295
g1
(g25
g3
Ntp296
Rp297
(dp298
g29
V578
p299
sg31
VDuosion
p300
sg33
g34
sg35
V34
p301
sg37
(lp302
Vsnatch
p303
aVheal-block
p304
aVwonder-room
p305
aVpsyshock
p306
asg43
g44
sg45
Vmagic-guard
p307
sbag1
(g25
g3
Ntp308
Rp309
(dp310
g29
V518
p311
sg31
VMusharna
p312
sg33
g34
sg35
V34
p313
sg37
(lp314
Vpsybeam
p315
aVhypnosis
p316
aVdefense-curl
p317
aVlucky-chant
p318
asg43
g44
sg45
Vsynchronize
p319
sbasg59
I00
sg60
g61
sbag1
(g2
g3
Ntp320
Rp321
(dp322
g7
VSpr BW Hiker.png
p323
sg9
VHiker
p324
sg11
VNeil
p325
sg13
V1088
p326
sg15
g16
sg17
g18
sg19
g20
sg21
g22
sg23
(lp327
g1
(g25
g3
Ntp328
Rp329
(dp330
g29
V527
p331
sg31
VWoobat
p332
sg33
g34
sg35
V34
p333
sg37
(lp334
Vcalm-mind
p335
aVassurance
p336
aVair-slash
p337
aVheart-stamp
p338
asg43
g44
sg45
Vklutz
p339
sbag1
(g25
g3
Ntp340
Rp341
(dp342
g29
V525
p343
sg31
VBoldore
p344
sg33
g34
sg35
V34
p345
sg37
(lp346
Vpower-gem
p347
aVstone-edge
p348
aVstealth-rock
p349
aVsmack-down
p350
asg43
g44
sg45
Vweak-armor
p351
sbasg59
I00
sg60
g61
sbag1
(g2
g3
Ntp352
Rp353
(dp354
g7
VSpr BW Black Belt.png
p355
sg9
VBlack Belt
p356
sg11
VTeppei<!--Kept name-->
p357
sg13
V1152
p358
sg15
g159
sg17
g18
sg19
g20
sg21
g22
sg23
(lp359
g1
(g25
g3
Ntp360
Rp361
(dp362
g29
V539
p363
sg31
VSawk
p364
sg33
g34
sg35
V36
p365
sg37
(lp366
Vclose-combat
p367
aVlow-sweep
p368
aVquick-guard
p369
aVretaliate
p370
asg43
g44
sg45
Vsturdy
p371
sbasg59
I00
sg60
g61
sbag1
(g2
g3
Ntp372
Rp373
(dp374
g7
VSpr BW Worker.png
p375
sg9
VWorker
p376
sg11
VRich
p377
sg13
V1360
p378
sg15
g16
sg17
g18
sg19
g20
sg21
g22
sg23
(lp379
g1
(g25
g3
Ntp380
Rp381
(dp382
g29
V533
p383
sg31
VGurdurr
p384
sg33
g34
sg35
V34
p385
sg37
(lp386
Vwake-up-slap
p387
aVhammer-arm
p388
aVstone-edge
p389
aVchip-away
p390
asg43
g44
sg45
Vsheer-force
p391
sbag1
(g25
g3
Ntp392
Rp393
(dp394
g29
V525
p395
sg31
VBoldore
p396
sg33
g34
sg35
V34
p397
sg37
(lp398
Vpower-gem
p399
aVstone-edge
p400
aVstealth-rock
p401
aVsmack-down
p402
asg43
g44
sg45
Vweak-armor
p403
sbasg59
I00
sg60
g61
sbag1
(g2
g3
Ntp404
Rp405
(dp406
g7
VSpr BW Ace Trainer M.png
p407
sg9
VAce Trainer
p408
sg11
VJordan
p409
sg13
V2100
p410
sg15
g69
sg17
g18
sg19
g20
sg21
g22
sg23
(lp411
g1
(g25
g3
Ntp412
Rp413
(dp414
g29
V552
p415
sg31
VKrokorok
p416
sg33
g34
sg35
V35
p417
sg37
(lp418
Vsand-tomb
p419
aVassurance
p420
aVembargo
p421
aVfoul-play
p422
asg43
g44
sg45
Vintimidate
p423
sbag1
(g25
g3
Ntp424
Rp425
(dp426
g29
V536
p427
sg31
VPalpitoad
p428
sg33
g34
sg35
V35
p429
sg37
(lp430
Vaqua-ring
p431
aVround
p432
ag432
aVechoed-voice
p433
asg43
g44
sg45
Vhydration
p434
sbag1
(g25
g3
Ntp435
Rp436
(dp437
g29
V600
p438
sg31
VKlang
p439
sg33
VU
p440
sg35
V35
p441
sg37
(lp442
Vautotomize
p443
aVshift-gear
p444
aVgear-grind
p445
ag445
asg43
g44
sg45
Vplus
p446
sbasg59
I00
sg60
g61
sbag1
(g2
g3
Ntp447
Rp448
(dp449
g7
VSpr B2W2 Worker.png
p450
sg9
VWorker
p451
sg11
VCairn
p452
sg13
g1
(cmwparserfromhell.wikicode
Wikicode
p453
g3
Ntp454
Rp455
(dp456
V_nodes
p457
g1
(cmwparserfromhell.smart_list.smart_list
SmartList
p458
c__builtin__
list
p459
(lp460
g1
(cmwparserfromhell.nodes.text
Text
p461
g3
Ntp462
Rp463
(dp464
V_value
p465
V2400
p466
sbatp467
Rp468
(dp469
V_children
p470
(dp471
sbsbsg15
g69
sg17
g18
sg19
g20
sg21
VB2W2
p472
sg23
(lp473
g1
(g25
g3
Ntp474
Rp475
(dp476
g29
V524
p477
sg31
VRoggenrola
p478
sg33
g34
sg35
V60
p479
sg37
(lp480
Vrock-blast
p481
aVstone-edge
p482
aVstealth-rock
p483
aVsmack-down
p484
asg43
g44
sg45
Vweak-armor
p485
sbag1
(g25
g3
Ntp486
Rp487
(dp488
g29
V075
p489
sg31
VGraveler
p490
sg33
g34
sg35
V60
p491
sg37
(lp492
Vstone-edge
p493
aVstealth-rock
p494
aVsmack-down
p495
aVbulldoze
p496
asg43
g44
sg45
Vrock-head
p497
sbag1
(g25
g3
Ntp498
Rp499
(dp500
g29
V530
p501
sg31
VExcadrill
p502
sg33
g34
sg35
V60
p503
sg37
(lp504
Vmetal-claw
p505
aVmud-sport
p506
aVhone-claws
p507
aVdrill-run
p508
asg43
g44
sg45
Vsand-rush
p509
sbasg59
I00
sg60
Vblack-2-white-2
p510
sbag1
(g2
g3
Ntp511
Rp512
(dp513
g7
VSpr B2W2 Veteran M.png
p514
sg9
VVeteran
p515
sg11
VCarter
p516
sg13
g1
(g453
g3
Ntp517
Rp518
(dp519
g457
g1
(g458
g459
(lp520
g1
(g461
g3
Ntp521
Rp522
(dp523
g465
V5120
p524
sbatp525
Rp526
(dp527
g470
(dp528
sbsbsg15
g69
sg17
g18
sg19
g20
sg21
g472
sg23
(lp529
g1
(g25
g3
Ntp530
Rp531
(dp532
g29
V128
p533
sg31
VTauros
p534
sg33
g34
sg35
V64
p535
sg37
(lp536
Vpayback
p537
aVgiga-impact
p538
aVzen-headbutt
p539
aVwork-up
p540
asg43
g44
sg45
Vintimidate
p541
sbag1
(g25
g3
Ntp542
Rp543
(dp544
g29
V169
p545
sg31
VCrobat
p546
sg33
g34
sg35
V64
p547
sg37
(lp548
Vair-cutter
p549
aVair-slash
p550
aVcross-poison
p551
aVacrobatics
p552
asg43
g44
sg45
Vinner-focus
p553
sbag1
(g25
g3
Ntp554
Rp555
(dp556
g29
V565
p557
sg31
VCarracosta
p558
sg33
g34
sg35
V64
p559
sg37
(lp560
Vaqua-jet
p561
aVwide-guard
p562
aVsmack-down
p563
aVshell-smash
p564
asg43
g44
sg45
Vsolid-rock
p565
sbasg59
I00
sg60
g510
sbag1
(g2
g3
Ntp566
Rp567
(dp568
g7
VSpr B2W2 Veteran F.png
p569
sg9
VVeteran
p570
sg11
VJulia
p571
sg13
g1
(g453
g3
Ntp572
Rp573
(dp574
g457
g1
(g458
g459
(lp575
g1
(g461
g3
Ntp576
Rp577
(dp578
g465
V5040
p579
sbatp580
Rp581
(dp582
g470
(dp583
sbsbsg15
V4
p584
sg17
g18
sg19
g20
sg21
g472
sg23
(lp585
g1
(g25
g3
Ntp586
Rp587
(dp588
g29
V471
p589
sg31
VGlaceon
p590
sg33
g34
sg35
V63
p591
sg37
(lp592
Vhelping-hand
p593
aVlast-resort
p594
aVice-shard
p595
aVice-fang
p596
asg43
g44
sg45
Vsnow-cloak
p597
sbag1
(g25
g3
Ntp598
Rp599
(dp600
g29
V411
p601
sg31
VBastiodon
p602
sg33
g34
sg35
V63
p603
sg37
(lp604
Vblock
p605
aVmetal-burst
p606
aViron-head
p607
aVheavy-slam
p608
asg43
g44
sg45
Vsturdy
p609
sbag1
(g25
g3
Ntp610
Rp611
(dp612
g29
V464
p613
sg31
VRhyperior
p614
sg33
g120
sg35
V63
p615
sg37
(lp616
Vrock-wrecker
p617
aVstone-edge
p618
aVchip-away
p619
aVdrill-run
p620
asg43
g44
sg45
Vsolid-rock
p621
sbag1
(g25
g3
Ntp622
Rp623
(dp624
g29
V452
p625
sg31
VDrapion
p626
sg33
g120
sg35
V63
p627
sg37
(lp628
Vcross-poison
p629
aVbug-bite
p630
aVhone-claws
p631
aVvenoshock
p632
asg43
g44
sg45
Vbattle-armor
p633
sbasg59
I00
sg60
g510
sbag1
(g2
g3
Ntp634
Rp635
(dp636
g7
VSpr B2W2 Hiker.png
p637
sg9
VHiker
p638
sg11
VWade
p639
sg13
g1
(g453
g3
Ntp640
Rp641
(dp642
g457
g1
(g458
g459
(lp643
g1
(g461
g3
Ntp644
Rp645
(dp646
g465
V1952
p647
sbatp648
Rp649
(dp650
g470
(dp651
sbsbsg15
g16
sg17
g18
sg19
g20
sg21
g472
sg23
(lp652
g1
(g25
g3
Ntp653
Rp654
(dp655
g29
V622
p656
sg31
VGolett
p657
sg33
g440
sg35
V61
p658
sg37
(lp659
Vastonish
p660
aVshadow-punch
p661
aViron-defense
p662
aVhammer-arm
p663
asg43
g44
sg45
Viron-fist
p664
sbag1
(g25
g3
Ntp665
Rp666
(dp667
g29
V473
p668
sg31
VMamoswine
p669
sg33
g34
sg35
V61
p670
sg37
(lp671
Vodor-sleuth
p672
aVice-fang
p673
aVmud-bomb
p674
aVdouble-hit
p675
asg43
g44
sg45
Vsnow-cloak
p676
sbasg59
I00
sg60
g510
sbag1
(g2
g3
Ntp677
Rp678
(dp679
g7
VSpr B2W2 Worker.png
p680
sg9
VWorker
p681
sg11
VGus
p682
sg13
g1
(g453
g3
Ntp683
Rp684
(dp685
g457
g1
(g458
g459
(lp686
g1
(g461
g3
Ntp687
Rp688
(dp689
g465
V2400
p690
sbatp691
Rp692
(dp693
g470
(dp694
sbsbsg15
g69
sg17
g18
sg19
g20
sg21
g472
sg23
(lp695
g1
(g25
g3
Ntp696
Rp697
(dp698
g29
V074
p699
sg31
VGeodude
p700
sg33
g34
sg35
V60
p701
sg37
(lp702
Vstone-edge
p703
aVstealth-rock
p704
aVsmack-down
p705
aVbulldoze
p706
asg43
g44
sg45
Vrock-head
p707
sbag1
(g25
g3
Ntp708
Rp709
(dp710
g29
V208
p711
sg31
VSteelix
p712
sg33
g34
sg35
V60
p713
sg37
(lp714
Vstone-edge
p715
aVstealth-rock
p716
aVautotomize
p717
aVsmack-down
p718
asg43
g44
sg45
Vsturdy
p719
sbag1
(g25
g3
Ntp720
Rp721
(dp722
g29
V525
p723
sg31
VBoldore
p724
sg33
g34
sg35
V60
p725
sg37
(lp726
Vpower-gem
p727
aVstone-edge
p728
aVstealth-rock
p729
aVsmack-down
p730
asg43
g44
sg45
Vweak-armor
p731
sbasg59
I00
sg60
g510
sbag1
(g2
g3
Ntp732
Rp733
(dp734
g7
VSpr B2W2 WorkerIce.png
p735
sg9
VWorker
p736
sg11
VPatton
p737
sg13
g1
(g453
g3
Ntp738
Rp739
(dp740
g457
g1
(g458
g459
(lp741
g1
(g461
g3
Ntp742
Rp743
(dp744
g465
V2440
p745
sbatp746
Rp747
(dp748
g470
(dp749
sbsbsg15
g16
sg17
g18
sg19
g20
sg21
g472
sg23
(lp750
g1
(g25
g3
Ntp751
Rp752
(dp753
g29
V067
p754
sg31
VMachoke
p755
sg33
g34
sg35
V61
p756
sg37
(lp757
Vcross-chop
p758
aVrevenge
p759
aVwake-up-slap
p760
aVlow-sweep
p761
asg43
g44
sg45
Vno-guard
p762
sbag1
(g25
g3
Ntp763
Rp764
(dp765
g29
V460
p766
sg31
VAbomasnow
p767
sg33
g34
sg35
V61
p768
sg37
(lp769
Vgrass-whistle
p770
aVsheer-cold
p771
aVice-shard
p772
aVwood-hammer
p773
asg43
g44
sg45
Vsnow-warning
p774
sbasg59
I00
sg60
g510
sbag1
(g2
g3
Ntp775
Rp776
(dp777
g7
VSpr B2W2 Nurse.png
p778
sg9
VNurse
p779
sg11
VCarol
p780
sg13
g1
(g453
g3
Ntp781
Rp782
(dp783
g457
g1
(g458
g459
(lp784
g1
(g461
g3
Ntp785
Rp786
(dp787
g465
V2480
p788
sbatp789
Rp790
(dp791
g470
(dp792
sbsbsg15
g159
sg17
g18
sg19
g20
sg21
g472
sg23
(lp793
g1
(g25
g3
Ntp794
Rp795
(dp796
g29
V242
p797
sg31
VBlissey
p798
sg33
g120
sg35
V62
p799
sg37
(lp800
Vhealing-wish
p801
aVfling
p802
aVheal-pulse
p803
aVbestow
p804
asg43
g44
sg45
Vnatural-cure
p805
sbasg59
I00
sg60
g510
sbag1
(g2
g3
Ntp806
Rp807
(dp808
g7
VSpr B2W2 Veteran F.png
p809
sg9
VVeteran
p810
sg11
VChloris
p811
sg13
g1
(g453
g3
Ntp812
Rp813
(dp814
g457
g1
(g458
g459
(lp815
g1
(g461
g3
Ntp816
Rp817
(dp818
g465
V5120
p819
sbatp820
Rp821
(dp822
g470
(dp823
sbsbsg15
g69
sg17
g18
sg19
g20
sg21
g472
sg23
(lp824
g1
(g25
g3
Ntp825
Rp826
(dp827
g29
V130
p828
sg31
VGyarados
p829
sg33
g120
sg35
V64
p830
sg37
(lp831
Vrain-dance
p832
aVdragon-dance
p833
aVaqua-tail
p834
aVice-fang
p835
asg43
g44
sg45
Vintimidate
p836
sbag1
(g25
g3
Ntp837
Rp838
(dp839
g29
V115
p840
sg31
VKangaskhan
p841
sg33
g120
sg35
V64
p842
sg37
(lp843
Vfake-out
p844
aVsucker-punch
p845
aVdouble-hit
p846
aVchip-away
p847
asg43
g44
sg45
Vscrappy
p848
sbag1
(g25
g3
Ntp849
Rp850
(dp851
g29
V567
p852
sg31
VArcheops
p853
sg33
g34
sg35
V64
p854
sg37
(lp855
Vpluck
p856
aVu-turn
p857
aVquick-guard
p858
aVacrobatics
p859
asg43
g44
sg45
Vdefeatist
p860
sbasg59
I00
sg60
g510
sbag1
(g2
g3
Ntp861
Rp862
(dp863
g7
VSpr B2W2 Worker.png
p864
sg9
VWorker
p865
sg11
VCliff
p866
sg13
g1
(g453
g3
Ntp867
Rp868
(dp869
g457
g1
(g458
g459
(lp870
g1
(g461
g3
Ntp871
Rp872
(dp873
g465
V2480
p874
sbatp875
Rp876
(dp877
g470
(dp878
sbsbsg15
g159
sg17
g18
sg19
g20
sg21
g472
sg23
(lp879
g1
(g25
g3
Ntp880
Rp881
(dp882
g29
V561
p883
sg31
VSigilyph
p884
sg33
g34
sg35
V62
p885
sg37
(lp886
Vmiracle-eye
p887
aVtailwind
p888
aVair-slash
p889
aVsynchronoise
p890
asg43
g44
sg45
Vwonder-skin
p891
sbasg59
I00
sg60
g510
sbag1
(g2
g3
Ntp892
Rp893
(dp894
g7
VSpr B2W2 Hiker.png
p895
sg9
VHiker
p896
sg11
VHunter
p897
sg13
g1
(g453
g3
Ntp898
Rp899
(dp900
g457
g1
(g458
g459
(lp901
g1
(g461
g3
Ntp902
Rp903
(dp904
g465
V1952
p905
sbatp906
Rp907
(dp908
g470
(dp909
sbsbsg15
g16
sg17
g18
sg19
g20
sg21
g472
sg23
(lp910
g1
(g25
g3
Ntp911
Rp912
(dp913
g29
V246
p914
sg31
VLarvitar
p915
sg33
g34
sg35
V61
p916
sg37
(lp917
Vpayback
p918
aVdark-pulse
p919
aVstone-edge
p920
aVchip-away
p921
asg43
g44
sg45
Vguts
p922
sbag1
(g25
g3
Ntp923
Rp924
(dp925
g29
V476
p926
sg31
VProbopass
p927
sg33
g34
sg35
V61
p928
sg37
(lp929
Vdischarge
p930
aVmagnet-bomb
p931
ag931
aVstone-edge
p932
asg43
g44
sg45
Vmagnet-pull
p933
sbasg59
I00
sg60
g510
sbag1
(g2
g3
Ntp934
Rp935
(dp936
g7
VSpr B2W2 WorkerIce.png
p937
sg9
VWorker
p938
sg11
VVictor
p939
sg13
g1
(g453
g3
Ntp940
Rp941
(dp942
g457
g1
(g458
g459
(lp943
g1
(g461
g3
Ntp944
Rp945
(dp946
g465
V2440
p947
sbatp948
Rp949
(dp950
g470
(dp951
sbsbsg15
g16
sg17
g18
sg19
g20
sg21
g472
sg23
(lp952
g1
(g25
g3
Ntp953
Rp954
(dp955
g29
V362
p956
sg31
VGlalie
p957
sg33
g34
sg35
V61
p958
sg37
(lp959
Vcrunch
p960
aVhail
p961
aVsheer-cold
p962
aVice-fang
p963
asg43
g44
sg45
Vice-body
p964
sbag1
(g25
g3
Ntp965
Rp966
(dp967
g29
V614
p968
sg31
VBeartic
p969
sg33
g34
sg35
V61
p970
sg37
(lp971
Vsheer-cold
p972
aVbrine
p973
aVaqua-jet
p974
aVicicle-crash
p975
asg43
g44
sg45
Vslush-rush
p976
sbasg59
I00
sg60
g510
sbag1
(g2
g3
Ntp977
Rp978
(dp979
g7
VSpr B2W2 WorkerIce.png
p980
sg9
VWorker
p981
sg11
VRyan
p982
sg13
g1
(g453
g3
Ntp983
Rp984
(dp985
g457
g1
(g458
g459
(lp986
g1
(g461
g3
Ntp987
Rp988
(dp989
g465
V2400
p990
sbatp991
Rp992
(dp993
g470
(dp994
sbsbsg15
g69
sg17
g18
sg19
g20
sg21
g472
sg23
(lp995
g1
(g25
g3
Ntp996
Rp997
(dp998
g29
V238
p999
sg31
VSmoochum
p1000
sg33
g120
sg35
V60
p1001
sg37
(lp1002
Vlucky-chant
p1003
aVcopycat
p1004
aVavalanche
p1005
aVheart-stamp
p1006
asg43
g44
sg45
Voblivious
p1007
sbag1
(g25
g3
Ntp1008
Rp1009
(dp1010
g29
V344
p1011
sg31
VClaydol
p1012
sg33
g440
sg35
V60
p1013
sg37
(lp1014
Vpower-trick
p1015
aVearth-power
p1016
aVguard-split
p1017
aVpower-split
p1018
asg43
g44
sg45
Vlevitate
p1019
sbag1
(g25
g3
Ntp1020
Rp1021
(dp1022
g29
V064
p1023
sg31
VKadabra
p1024
sg33
g34
sg35
V60
p1025
sg37
(lp1026
Vmiracle-eye
p1027
aVpsycho-cut
p1028
aVtelekinesis
p1029
aVally-switch
p1030
asg43
g44
sg45
Vinner-focus
p1031
sbasg59
I00
sg60
g510
sbag1
(g2
g3
Ntp1032
Rp1033
(dp1034
g7
VSpr B2W2 Veteran M.png
p1035
sg9
VVeteran
p1036
sg11
VZach
p1037
sg13
g1
(g453
g3
Ntp1038
Rp1039
(dp1040
g457
g1
(g458
g459
(lp1041
g1
(g461
g3
Ntp1042
Rp1043
(dp1044
g465
V5040
p1045
sbatp1046
Rp1047
(dp1048
g470
(dp1049
sbsbsg15
g584
sg17
g18
sg19
g20
sg21
g472
sg23
(lp1050
g1
(g25
g3
Ntp1051
Rp1052
(dp1053
g29
V461
p1054
sg31
VWeavile
p1055
sg33
g34
sg35
V63
p1056
sg37
(lp1057
Vdark-pulse
p1058
aVnight-slash
p1059
aVnasty-plot
p1060
aVhone-claws
p1061
asg43
g44
sg45
Vpressure
p1062
sbag1
(g25
g3
Ntp1063
Rp1064
(dp1065
g29
V409
p1066
sg31
VRampardos
p1067
sg33
g34
sg35
V63
p1068
sg37
(lp1069
Vassurance
p1070
aVzen-headbutt
p1071
aVhead-smash
p1072
aVchip-away
p1073
asg43
g44
sg45
Vmold-breaker
p1074
sbag1
(g25
g3
Ntp1075
Rp1076
(dp1077
g29
V454
p1078
sg31
VToxicroak
p1079
sg33
g34
sg35
V63
p1080
sg37
(lp1081
Vpoison-jab
p1082
aVnasty-plot
p1083
aVmud-bomb
p1084
aVvenoshock
p1085
asg43
g44
sg45
Vanticipation
p1086
sbag1
(g25
g3
Ntp1087
Rp1088
(dp1089
g29
V306
p1090
sg31
VAggron
p1091
sg33
g34
sg35
V63
p1092
sg37
(lp1093
Vmetal-burst
p1094
aViron-head
p1095
aVautotomize
p1096
aVheavy-slam
p1097
asg43
g44
sg45
Vsturdy
p1098
sbasg59
I00
sg60
g510
sbag1
(g2
g3
Ntp1099
Rp1100
(dp1101
g7
VSpr BW Cheren.png
p1102
sg9
VPokemon Trainer
p1103
sg11
VCheren
p1104
sg13
V3500
p1105
sg15
I4
sg17
g18
sg19
g20
sg21
g22
sg23
(lp1106
g1
(g25
g3
Ntp1107
Rp1108
(dp1109
g29
I521
sg31
VUnfezant
p1110
sg33
g34
sg35
V33
p1111
sg37
(lp1112
VRoost
p1113
aVDetect
p1114
aVAir Slash
p1115
aVTaunt
p1116
asg43
VScope Lens
p1117
sg45
VSuper Luck
p1118
sbag1
(g25
g3
Ntp1119
Rp1120
(dp1121
g29
I512
sg31
VSimisage
p1122
sg33
g34
sg35
V33
p1123
sg37
(lp1124
VLick
p1125
aVSeed Bomb
p1126
aVLeer
p1127
aVFury Swipes
p1128
asg43
VMiracle Seed
p1129
sg45
VGluttony
p1130
sbag1
(g25
g3
Ntp1131
Rp1132
(dp1133
g29
I510
sg31
VLiepard
p1134
sg33
g34
sg35
V33
p1135
sg37
(lp1136
VAssurance
p1137
aVTorment
p1138
aVFake Out
p1139
aVHone Claws
p1140
asg43
VSitrus Berry
p1141
sg45
VUnburden
p1142
sbag1
(g25
g3
Ntp1143
Rp1144
(dp1145
g29
I499
sg31
VPignite
p1146
sg33
g34
sg35
V35
p1147
sg37
(lp1148
VHeat Crash
p1149
aVRollout
p1150
aVTake Down
p1151
aVSmog
p1152
asg43
VLeftovers
p1153
sg45
VBlaze
p1154
sbasg59
I01
sg60
g61
sbag1
(g2
g3
Ntp1155
Rp1156
(dp1157
g7
VSpr BW Cheren.png
p1158
sg9
VPokemon Trainer
p1159
sg11
VCheren
p1160
sg13
V3500
p1161
sg15
I4
sg17
g18
sg19
g20
sg21
g22
sg23
(lp1162
g1
(g25
g3
Ntp1163
Rp1164
(dp1165
g29
I521
sg31
VUnfezant
p1166
sg33
g34
sg35
V33
p1167
sg37
(lp1168
VRoost
p1169
aVDetect
p1170
aVAir Slash
p1171
aVTaunt
p1172
asg43
VScope Lens
p1173
sg45
VSuper Luck
p1174
sbag1
(g25
g3
Ntp1175
Rp1176
(dp1177
g29
I514
sg31
VSimisear
p1178
sg33
g34
sg35
V33
p1179
sg37
(lp1180
VLick
p1181
aVFlame Burst
p1182
aVLeer
p1183
aVFury Swipes
p1184
asg43
VCharcoal
p1185
sg45
VGluttony
p1186
sbag1
(g25
g3
Ntp1187
Rp1188
(dp1189
g29
I510
sg31
VLiepard
p1190
sg33
g34
sg35
V33
p1191
sg37
(lp1192
VAssurance
p1193
aVTorment
p1194
aVFake Out
p1195
aVHone Claws
p1196
asg43
VSitrus Berry
p1197
sg45
VUnburden
p1198
sbag1
(g25
g3
Ntp1199
Rp1200
(dp1201
g29
I502
sg31
VDewott
p1202
sg33
g34
sg35
V35
p1203
sg37
(lp1204
VFury Cutter
p1205
aVRevenge
p1206
aVAqua Jet
p1207
aVWater Pulse
p1208
asg43
VLeftovers
p1209
sg45
VTorrent
p1210
sbasg59
I01
sg60
g61
sbag1
(g2
g3
Ntp1211
Rp1212
(dp1213
g7
VSpr BW Cheren.png
p1214
sg9
VPokemon Trainer
p1215
sg11
VCheren
p1216
sg13
V3500
p1217
sg15
I4
sg17
g18
sg19
g20
sg21
g22
sg23
(lp1218
g1
(g25
g3
Ntp1219
Rp1220
(dp1221
g29
I521
sg31
VUnfezant
p1222
sg33
g34
sg35
V33
p1223
sg37
(lp1224
VRoost
p1225
aVDetect
p1226
aVAir Slash
p1227
aVTaunt
p1228
asg43
VScope Lens
p1229
sg45
VSuper Luck
p1230
sbag1
(g25
g3
Ntp1231
Rp1232
(dp1233
g29
I516
sg31
VSimipour
p1234
sg33
g34
sg35
V33
p1235
sg37
(lp1236
VLick
p1237
aVScald
p1238
aVLeer
p1239
aVFury Swipes
p1240
asg43
VMystic Water
p1241
sg45
VGluttony
p1242
sbag1
(g25
g3
Ntp1243
Rp1244
(dp1245
g29
I510
sg31
VLiepard
p1246
sg33
g34
sg35
V33
p1247
sg37
(lp1248
VAssurance
p1249
aVTorment
p1250
aVFake Out
p1251
aVHone Claws
p1252
asg43
VSitrus Berry
p1253
sg45
VUnburden
p1254
sbag1
(g25
g3
Ntp1255
Rp1256
(dp1257
g29
I496
sg31
VServine
p1258
sg33
g34
sg35
V35
p1259
sg37
(lp1260
VMega Drain
p1261
aVLeaf Blade
p1262
aVLeech Seed
p1263
aVSlam
p1264
asg43
VLeftovers
p1265
sg45
VOvergrow
p1266
sbasg59
I01
sg60
g61
sba.