(lp0
ccopy_reg
_reconstructor
p1
(c__main__
Trainer
p2
c__builtin__
object
p3
Ntp4
Rp5
(dp6
VtSprite
p7
VVSSwimmer F black SM.png
p8
sVtClass
p9
VSwimmer
p10
sVtName
p11
VSara
p12
sVtMoney
p13
V720
p14
sVtPokeCount
p15
V1
p16
sVtLocation
p17
Vwiki/Ula%27ula_Beach
p18
sVtRegion
p19
VAlola
p20
sVtGame
p21
VSM
p22
sVtPokes
p23
(lp24
g1
(c__main__
FinishedPokemon
p25
g3
Ntp26
Rp27
(dp28
VpDexNo
p29
V594
p30
sVpSpecies
p31
VAlomomola
p32
sVpGender
p33
VF
p34
sVpLevel
p35
V30
p36
sVpMoves
p37
(lp38
Vwide-guard
p39
aVsoak
p40
aVheal-pulse
p41
aVplay-nice
p42
asVpHold
p43
V
p44
sVpAbility
p45
Vhydration
p46
sbasVbossFlag
p47
I00
sVtLongGame
p48
Vsun-moon
p49
sbag1
(g2
g3
Ntp50
Rp51
(dp52
g7
VVSSwimmer M SM.png
p53
sg9
VSwimmer
p54
sg11
VRobert
p55
sg13
V720
p56
sg15
V2
p57
sg17
g18
sg19
g20
sg21
g22
sg23
(lp58
g1
(g25
g3
Ntp59
Rp60
(dp61
g29
V340
p62
sg31
VWhiscash
p63
sg33
VM
p64
sg35
V29
p65
sg37
(lp66
Vaqua-tail
p67
aVmud-bomb
p68
aVzen-headbutt
p69
aVbelch
p70
asg43
g44
sg45
Vanticipation
p71
sbag1
(g25
g3
Ntp72
Rp73
(dp74
g29
V769
p75
sg31
VSandygast
p76
sg33
g64
sg35
V30
p77
sg37
(lp78
Viron-defense
p79
aVearth-power
p80
aVbulldoze
p81
aVshore-up
p82
asg43
g44
sg45
Vwater-compaction
p83
sbasg47
I00
sg48
g49
sba.