(lp0
ccopy_reg
_reconstructor
p1
(c__main__
Trainer
p2
c__builtin__
object
p3
Ntp4
Rp5
(dp6
VtSprite
p7
VSpr BW School Kid M.png
p8
sVtClass
p9
VThe Riches
p10
sVtName
p11
VDraco
p12
sVtMoney
p13
V12000
p14
sVtPokeCount
p15
V1
p16
sVtLocation
p17
Vwiki/Undella_Town
p18
sVtRegion
p19
VUnova
p20
sVtGame
p21
VBW
p22
sVtPokes
p23
(lp24
g1
(c__main__
FinishedPokemon
p25
g3
Ntp26
Rp27
(dp28
VpDexNo
p29
V418
p30
sVpSpecies
p31
VBuizel
p32
sVpGender
p33
VM
p34
sVpLevel
p35
V60
p36
sVpMoves
p37
(lp38
Vwhirlpool
p39
aVwater-sport
p40
aVaqua-tail
p41
aVaqua-jet
p42
asVpHold
p43
V
p44
sVpAbility
p45
Vswift-swim
p46
sbasVbossFlag
p47
I00
sVtLongGame
p48
Vblack-white
p49
sbag1
(g2
g3
Ntp50
Rp51
(dp52
g7
VSpr BW Lady.png
p53
sg9
VThe Riches
p54
sg11
VSusan
p55
sg13
V12200
p56
sg15
V2
p57
sg17
g18
sg19
g20
sg21
g22
sg23
(lp58
g1
(g25
g3
Ntp59
Rp60
(dp61
g29
V216
p62
sg31
VTeddiursa
p63
sg33
VF
p64
sg35
V61
p65
sg37
(lp66
Vsweet-scent
p67
aVfake-tears
p68
aVcovet
p69
aVfling
p70
asg43
g44
sg45
Vpickup
p71
sbag1
(g25
g3
Ntp72
Rp73
(dp74
g29
V428
p75
sg31
VLopunny
p76
sg33
g64
sg35
V61
p77
sg37
(lp78
Vbounce
p79
aVhealing-wish
p80
aVentrainment
p81
aVafter-you
p82
asg43
g44
sg45
Vcute-charm
p83
sbasg47
I00
sg48
g49
sbag1
(g2
g3
Ntp84
Rp85
(dp86
g7
VSpr BW Socialite.png
p87
sg9
VThe Riches
p88
sg11
VClairdonna
p89
sg13
V12400
p90
sg15
V3
p91
sg17
g18
sg19
g20
sg21
g22
sg23
(lp92
g1
(g25
g3
Ntp93
Rp94
(dp95
g29
V436
p96
sg31
VBronzor
p97
sg33
VU
p98
sg35
V62
p99
sg37
(lp100
Vgyro-ball
p101
aVpayback
p102
aVheal-block
p103
aVheavy-slam
p104
asg43
g44
sg45
Vheatproof
p105
sbag1
(g25
g3
Ntp106
Rp107
(dp108
g29
V115
p109
sg31
VKangaskhan
p110
sg33
g64
sg35
V62
p111
sg37
(lp112
Vfake-out
p113
aVsucker-punch
p114
aVdouble-hit
p115
aVchip-away
p116
asg43
g44
sg45
Vearly-bird
p117
sbag1
(g25
g3
Ntp118
Rp119
(dp120
g29
V623
p121
sg31
VGolurk
p122
sg33
g98
sg35
V62
p123
sg37
(lp124
Vshadow-punch
p125
aViron-defense
p126
aVhammer-arm
p127
aVheavy-slam
p128
asg43
g44
sg45
Vklutz
p129
sbasg47
I00
sg48
g49
sbag1
(g2
g3
Ntp130
Rp131
(dp132
g7
VSpr BW Gentleman.png
p133
sg9
VThe Riches
p134
sg11
VZillion
p135
sg13
V12600
p136
sg15
V4
p137
sg17
g18
sg19
g20
sg21
g22
sg23
(lp138
g1
(g25
g3
Ntp139
Rp140
(dp141
g29
V213
p142
sg31
VShuckle
p143
sg33
g34
sg35
V63
p144
sg37
(lp145
Vbug-bite
p146
aVguard-split
p147
aVpower-split
p148
aVstruggle-bug
p149
asg43
g44
sg45
Vsturdy
p150
sbag1
(g25
g3
Ntp151
Rp152
(dp153
g29
V463
p154
sg31
VLickilicky
p155
sg33
g34
sg35
V63
p156
sg37
(lp157
Vwring-out
p158
aVme-first
p159
aVpower-whip
p160
aVchip-away
p161
asg43
g44
sg45
Vown-tempo
p162
sbag1
(g25
g3
Ntp163
Rp164
(dp165
g29
V553
p166
sg31
VKrookodile
p167
sg33
g34
sg35
V63
p168
sg37
(lp169
Vsand-tomb
p170
aVassurance
p171
aVembargo
p172
aVfoul-play
p173
asg43
g44
sg45
Vintimidate
p174
sbag1
(g25
g3
Ntp175
Rp176
(dp177
g29
V186
p178
sg31
VPolitoed
p179
sg33
g34
sg35
V63
p180
sg37
(lp181
Vperish-song
p182
aVswagger
p183
aVhyper-voice
p184
aVbounce
p185
asg43
g44
sg45
Vdamp
p186
sbasg47
I00
sg48
g49
sbag1
(g2
g3
Ntp187
Rp188
(dp189
g7
VSpr BW Veteran F.png
p190
sg9
VThe Riches
p191
sg11
VTrish
p192
sg13
V12800
p193
sg15
V5
p194
sg17
g18
sg19
g20
sg21
g22
sg23
(lp195
g1
(g25
g3
Ntp196
Rp197
(dp198
g29
V461
p199
sg31
VWeavile
p200
sg33
g64
sg35
V64
p201
sg37
(lp202
Vdark-pulse
p203
aVnight-slash
p204
aVnasty-plot
p205
aVhone-claws
p206
asg43
g44
sg45
Vpressure
p207
sbag1
(g25
g3
Ntp208
Rp209
(dp210
g29
V530
p211
sg31
VExcadrill
p212
sg33
g64
sg35
V64
p213
sg37
(lp214
Vmetal-claw
p215
aVmud-sport
p216
aVhone-claws
p217
aVdrill-run
p218
asg43
g44
sg45
Vsand-rush
p219
sbag1
(g25
g3
Ntp220
Rp221
(dp222
g29
V631
p223
sg31
VHeatmor
p224
sg33
g64
sg35
V64
p225
sg37
(lp226
Vbug-bite
p227
aVflame-burst
p228
aVincinerate
p229
aVinferno
p230
asg43
g44
sg45
Vgluttony
p231
sbag1
(g25
g3
Ntp232
Rp233
(dp234
g29
V416
p235
sg31
VVespiquen
p236
sg33
g64
sg35
V64
p237
sg37
(lp238
Vcaptivate
p239
aVattack-order
p240
aVdefend-order
p241
aVheal-order
p242
asg43
g44
sg45
Vpressure
p243
sbag1
(g25
g3
Ntp244
Rp245
(dp246
g29
V230
p247
sg31
VKingdra
p248
sg33
g64
sg35
V64
p249
sg37
(lp250
Vyawn
p251
aVdragon-dance
p252
aVbrine
p253
aVdragon-pulse
p254
asg43
g44
sg45
Vswift-swim
p255
sbasg47
I00
sg48
g49
sbag1
(g2
g3
Ntp256
Rp257
(dp258
g7
VSpr BW Rich Boy.png
p259
sg9
VThe Riches
p260
sg11
VMiles
p261
sg13
V13000
p262
sg15
V6
p263
sg17
g18
sg19
g20
sg21
g22
sg23
(lp264
g1
(g25
g3
Ntp265
Rp266
(dp267
g29
V232
p268
sg31
VDonphan
p269
sg33
g34
sg35
V65
p270
sg37
(lp271
Vgiga-impact
p272
aVthunder-fang
p273
aVfire-fang
p274
aVbulldoze
p275
asg43
g44
sg45
Vsturdy
p276
sbag1
(g25
g3
Ntp277
Rp278
(dp279
g29
V625
p280
sg31
VBisharp
p281
sg33
g34
sg35
V65
p282
sg37
(lp283
Vassurance
p284
aVembargo
p285
aVnight-slash
p286
aViron-head
p287
asg43
g44
sg45
Vinner-focus
p288
sbag1
(g25
g3
Ntp289
Rp290
(dp291
g29
V171
p292
sg31
VLanturn
p293
sg33
g34
sg35
V65
p294
sg37
(lp295
Vsignal-beam
p296
aVaqua-ring
p297
aVdischarge
p298
aVelectro-ball
p299
asg43
g44
sg45
Villuminate
p300
sbag1
(g25
g3
Ntp301
Rp302
(dp303
g29
V465
p304
sg31
VTangrowth
p305
sg33
g34
sg35
V65
p306
sg37
(lp307
Vblock
p308
aVnatural-gift
p309
aVwring-out
p310
aVpower-whip
p311
asg43
g44
sg45
Vchlorophyll
p312
sbag1
(g25
g3
Ntp313
Rp314
(dp315
g29
V628
p316
sg31
VBraviary
p317
sg33
g34
sg35
V65
p318
sg37
(lp319
Vbrave-bird
p320
aVdefog
p321
aVhone-claws
p322
aVsky-drop
p323
asg43
g44
sg45
Vkeen-eye
p324
sbag1
(g25
g3
Ntp325
Rp326
(dp327
g29
V612
p328
sg31
VHaxorus
p329
sg33
g34
sg35
V65
p330
sg37
(lp331
Vassurance
p332
aVdragon-pulse
p333
aVgiga-impact
p334
aVdual-chop
p335
asg43
g44
sg45
Vmold-breaker
p336
sbasg47
I00
sg48
g49
sbag1
(g2
g3
Ntp337
Rp338
(dp339
g7
VSpr BW Cynthia.png
p340
sg9
VPokemon Trainer
p341
sg11
VCynthia
p342
sg13
V15400
p343
sg15
I6
sg17
g18
sg19
g20
sg21
g22
sg23
(lp344
g1
(g25
g3
Ntp345
Rp346
(dp347
g29
I442
sg31
VSpiritomb
p348
sg33
g64
sg35
V75
p349
sg37
(lp350
VSucker Punch
p351
aVShadow Ball
p352
aVWill-O-Wisp
p353
aVDouble Team
p354
asg43
g44
sg45
VPressure
p355
sbag1
(g25
g3
Ntp356
Rp357
(dp358
g29
I604
sg31
VEelektross
p359
sg33
g64
sg35
V75
p360
sg37
(lp361
VCrunch
p362
aVWild Charge
p363
aVDragon Claw
p364
aVFlamethrower
p365
asg43
g44
sg45
VLevitate
p366
sbag1
(g25
g3
Ntp367
Rp368
(dp369
g29
I350
sg31
VMilotic
p370
sg33
g64
sg35
V75
p371
sg37
(lp372
VHydro Pump
p373
aVBlizzard
p374
aVBulldoze
p375
aVDragon Tail
p376
asg43
g44
sg45
VMarvel Scale
p377
sbag1
(g25
g3
Ntp378
Rp379
(dp380
g29
I628
sg31
VBraviary
p381
sg33
g34
sg35
V75
p382
sg37
(lp383
VBrave Bird
p384
aVCrush Claw
p385
aVShadow Claw
p386
aVRetaliate
p387
asg43
g44
sg45
VSheer Force
p388
sbag1
(g25
g3
Ntp389
Rp390
(dp391
g29
I448
sg31
VLucario
p392
sg33
g34
sg35
V75
p393
sg37
(lp394
VExtremeSpeed
p395
aVDragon Pulse
p396
aVClose Combat
p397
aVAura Sphere
p398
asg43
g44
sg45
VSteadfast
p399
sbag1
(g25
g3
Ntp400
Rp401
(dp402
g29
I445
sg31
VGarchomp 
p403
sg33
g64
sg35
V77
p404
sg37
(lp405
VDragon Rush
p406
aVCrunch
p407
aVEarthquake
p408
aVStone Edge
p409
asg43
g44
sg45
VSand Veil
p410
sbasg47
I01
sg48
g49
sbag1
(g2
g3
Ntp411
Rp412
(dp413
g7
VSpr B2W2 Hugh.png
p414
sg9
VPokemon Trainer
p415
sg11
VHugh
p416
sg13
I0
sg15
I3
sg17
g18
sg19
g20
sg21
VB2W2
p417
sg23
(lp418
g1
(g25
g3
Ntp419
Rp420
(dp421
g29
I521
sg31
VUnfezant
p422
sg33
g34
sg35
g1
(cmwparserfromhell.wikicode
Wikicode
p423
g3
Ntp424
Rp425
(dp426
V_nodes
p427
g1
(cmwparserfromhell.smart_list.smart_list
SmartList
p428
c__builtin__
list
p429
(lp430
g1
(cmwparserfromhell.nodes.text
Text
p431
g3
Ntp432
Rp433
(dp434
V_value
p435
V39
p436
sbatp437
Rp438
(dp439
V_children
p440
(dp441
sbsbsg37
(lp442
VTaunt
p443
aVAir Slash
p444
aVRazor Wind
p445
aVDetect
p446
asg43
VScope Lens
p447
sg45
VSuper Luck
p448
sbag1
(g25
g3
Ntp449
Rp450
(dp451
g29
I516
sg31
VSimipour
p452
sg33
g34
sg35
g1
(g423
g3
Ntp453
Rp454
(dp455
g427
g1
(g428
g429
(lp456
g1
(g431
g3
Ntp457
Rp458
(dp459
g435
V39
p460
sbatp461
Rp462
(dp463
g440
(dp464
sbsbsg37
(lp465
VScald
p466
aVLeer
p467
aVLick
p468
aVFury Swipes
p469
asg43
VMystic Water
p470
sg45
VGluttony
p471
sbag1
(g25
g3
Ntp472
Rp473
(dp474
g29
I500
sg31
VEmboar
p475
sg33
g34
sg35
g1
(g423
g3
Ntp476
Rp477
(dp478
g427
g1
(g428
g429
(lp479
g1
(g431
g3
Ntp480
Rp481
(dp482
g435
V41
p483
sbatp484
Rp485
(dp486
g440
(dp487
sbsbsg37
(lp488
VTake Down
p489
aVAssurance
p490
aVHeat Crash
p491
aVRollout
p492
asg43
VCharcoal
p493
sg45
VBlaze
p494
sbasg47
I01
sg48
Vblack-2-white-2
p495
sbag1
(g2
g3
Ntp496
Rp497
(dp498
g7
VSpr B2W2 Hugh.png
p499
sg9
VPokemon Trainer
p500
sg11
VHugh
p501
sg13
I0
sg15
I3
sg17
g18
sg19
g20
sg21
g417
sg23
(lp502
g1
(g25
g3
Ntp503
Rp504
(dp505
g29
I521
sg31
VUnfezant
p506
sg33
g34
sg35
g1
(g423
g3
Ntp507
Rp508
(dp509
g427
g1
(g428
g429
(lp510
g1
(g431
g3
Ntp511
Rp512
(dp513
g435
V39
p514
sbatp515
Rp516
(dp517
g440
(dp518
sbsbsg37
(lp519
VTaunt
p520
aVAir Slash
p521
aVRazor Wind
p522
aVDetect
p523
asg43
VScope Lens
p524
sg45
VSuper Luck
p525
sbag1
(g25
g3
Ntp526
Rp527
(dp528
g29
I512
sg31
VSimisage
p529
sg33
g34
sg35
g1
(g423
g3
Ntp530
Rp531
(dp532
g427
g1
(g428
g429
(lp533
g1
(g431
g3
Ntp534
Rp535
(dp536
g435
V39
p537
sbatp538
Rp539
(dp540
g440
(dp541
sbsbsg37
(lp542
VSeed Bomb
p543
aVLeer
p544
aVLick
p545
aVFury Swipes
p546
asg43
VMiracle Seed
p547
sg45
VGluttony
p548
sbag1
(g25
g3
Ntp549
Rp550
(dp551
g29
I503
sg31
VSamurott
p552
sg33
g34
sg35
g1
(g423
g3
Ntp553
Rp554
(dp555
g427
g1
(g428
g429
(lp556
g1
(g431
g3
Ntp557
Rp558
(dp559
g435
V41
p560
sbatp561
Rp562
(dp563
g440
(dp564
sbsbsg37
(lp565
VAqua Jet
p566
aVEncore
p567
aVRevenge
p568
aVSlash
p569
asg43
VMystic Water
p570
sg45
VTorrent
p571
sbasg47
I01
sg48
g495
sbag1
(g2
g3
Ntp572
Rp573
(dp574
g7
VSpr B2W2 Hugh.png
p575
sg9
VPokemon Trainer
p576
sg11
VHugh
p577
sg13
I0
sg15
I3
sg17
g18
sg19
g20
sg21
g417
sg23
(lp578
g1
(g25
g3
Ntp579
Rp580
(dp581
g29
I521
sg31
VUnfezant
p582
sg33
g34
sg35
g1
(g423
g3
Ntp583
Rp584
(dp585
g427
g1
(g428
g429
(lp586
g1
(g431
g3
Ntp587
Rp588
(dp589
g435
V39
p590
sbatp591
Rp592
(dp593
g440
(dp594
sbsbsg37
(lp595
VTaunt
p596
aVAir Slash
p597
aVRazor Wind
p598
aVDetect
p599
asg43
VScope Lens
p600
sg45
VSuper Luck
p601
sbag1
(g25
g3
Ntp602
Rp603
(dp604
g29
I514
sg31
VSimisear
p605
sg33
g34
sg35
g1
(g423
g3
Ntp606
Rp607
(dp608
g427
g1
(g428
g429
(lp609
g1
(g431
g3
Ntp610
Rp611
(dp612
g435
V39
p613
sbatp614
Rp615
(dp616
g440
(dp617
sbsbsg37
(lp618
VFlame Burst
p619
aVLeer
p620
aVLick
p621
aVFury Swipes
p622
asg43
VCharcoal
p623
sg45
VGluttony
p624
sbag1
(g25
g3
Ntp625
Rp626
(dp627
g29
I497
sg31
VSerperior
p628
sg33
g34
sg35
g1
(g423
g3
Ntp629
Rp630
(dp631
g427
g1
(g428
g429
(lp632
g1
(g431
g3
Ntp633
Rp634
(dp635
g435
V41
p636
sbatp637
Rp638
(dp639
g440
(dp640
sbsbsg37
(lp641
VCoil
p642
aVLeaf Blade
p643
aVSlam
p644
aVMega Drain
p645
asg43
VMiracle Seed
p646
sg45
VOvergrow
p647
sbasg47
I01
sg48
g495
sbag1
(g2
g3
Ntp648
Rp649
(dp650
g7
VSpr B2W2 Hugh.png
p651
sg9
VPokemon Trainer
p652
sg11
VHugh
p653
sg13
I0
sg15
I6
sg17
g18
sg19
g20
sg21
g417
sg23
(lp654
g1
(g25
g3
Ntp655
Rp656
(dp657
g29
I521
sg31
VUnfezant
p658
sg33
g34
sg35
g1
(g423
g3
Ntp659
Rp660
(dp661
g427
g1
(g428
g429
(lp662
g1
(g431
g3
Ntp663
Rp664
(dp665
g435
V62
p666
sbatp667
Rp668
(dp669
g440
(dp670
sbsbsg37
(lp671
VFacade
p672
aVAerial Ace
p673
aVU-turn
p674
aVSwagger
p675
asg43
VScope Lens
p676
sg45
VSuper Luck
p677
sbag1
(g25
g3
Ntp678
Rp679
(dp680
g29
I516
sg31
VSimipour
p681
sg33
g34
sg35
g1
(g423
g3
Ntp682
Rp683
(dp684
g427
g1
(g428
g429
(lp685
g1
(g431
g3
Ntp686
Rp687
(dp688
g435
V62
p689
sbatp690
Rp691
(dp692
g440
(dp693
sbsbsg37
(lp694
VRock Slide
p695
aVCrunch
p696
aVBrick Break
p697
aVSurf
p698
asg43
VMystic Water
p699
sg45
VGluttony
p700
sbag1
(g25
g3
Ntp701
Rp702
(dp703
g29
I626
sg31
VBouffalant
p704
sg33
g34
sg35
g1
(g423
g3
Ntp705
Rp706
(dp707
g427
g1
(g428
g429
(lp708
g1
(g431
g3
Ntp709
Rp710
(dp711
g435
V62
p712
sbatp713
Rp714
(dp715
g440
(dp716
sbsbsg37
(lp717
VHead Charge
p718
aVWild Charge
p719
aVMegahorn
p720
aVEarthquake
p721
asg43
VMuscle Band
p722
sg45
VSap Sipper
p723
sbag1
(g25
g3
Ntp724
Rp725
(dp726
g29
I330
sg31
VFlygon
p727
sg33
g34
sg35
g1
(g423
g3
Ntp728
Rp729
(dp730
g427
g1
(g428
g429
(lp731
g1
(g431
g3
Ntp732
Rp733
(dp734
g435
V62
p735
sbatp736
Rp737
(dp738
g440
(dp739
sbsbsg37
(lp740
VEarthquake
p741
aVFire Blast
p742
aVDragon Claw
p743
aVStone Edge
p744
asg43
VDragon Fang
p745
sg45
VLevitate
p746
sbag1
(g25
g3
Ntp747
Rp748
(dp749
g29
I604
sg31
VEelektross
p750
sg33
g34
sg35
g1
(g423
g3
Ntp751
Rp752
(dp753
g427
g1
(g428
g429
(lp754
g1
(g431
g3
Ntp755
Rp756
(dp757
g435
V62
p758
sbatp759
Rp760
(dp761
g440
(dp762
sbsbsg37
(lp763
VWild Charge
p764
aVFlamethrower
p765
aVDragon Claw
p766
aVCrunch
p767
asg43
VLeftovers
p768
sg45
VLevitate
p769
sbag1
(g25
g3
Ntp770
Rp771
(dp772
g29
I500
sg31
VEmboar
p773
sg33
g34
sg35
g1
(g423
g3
Ntp774
Rp775
(dp776
g427
g1
(g428
g429
(lp777
g1
(g431
g3
Ntp778
Rp779
(dp780
g435
V64
p781
sbatp782
Rp783
(dp784
g440
(dp785
sbsbsg37
(lp786
VFire Blast
p787
aVHead Smash
p788
aVHammer Arm
p789
aVScald
p790
asg43
VCharcoal
p791
sg45
VBlaze
p792
sbasg47
I01
sg48
g495
sbag1
(g2
g3
Ntp793
Rp794
(dp795
g7
VSpr B2W2 Hugh.png
p796
sg9
VPokemon Trainer
p797
sg11
VHugh
p798
sg13
I0
sg15
I6
sg17
g18
sg19
g20
sg21
g417
sg23
(lp799
g1
(g25
g3
Ntp800
Rp801
(dp802
g29
I521
sg31
VUnfezant
p803
sg33
g34
sg35
g1
(g423
g3
Ntp804
Rp805
(dp806
g427
g1
(g428
g429
(lp807
g1
(g431
g3
Ntp808
Rp809
(dp810
g435
V62
p811
sbatp812
Rp813
(dp814
g440
(dp815
sbsbsg37
(lp816
VFacade
p817
aVAerial Ace
p818
aVU-turn
p819
aVSwagger
p820
asg43
VScope Lens
p821
sg45
VSuper Luck
p822
sbag1
(g25
g3
Ntp823
Rp824
(dp825
g29
I512
sg31
VSimisage
p826
sg33
g34
sg35
g1
(g423
g3
Ntp827
Rp828
(dp829
g427
g1
(g428
g429
(lp830
g1
(g431
g3
Ntp831
Rp832
(dp833
g435
V62
p834
sbatp835
Rp836
(dp837
g440
(dp838
sbsbsg37
(lp839
VRock Slide
p840
aVCrunch
p841
aVBrick Break
p842
aVEnergy Ball
p843
asg43
VMiracle Seed
p844
sg45
VGluttony
p845
sbag1
(g25
g3
Ntp846
Rp847
(dp848
g29
I626
sg31
VBouffalant
p849
sg33
g34
sg35
g1
(g423
g3
Ntp850
Rp851
(dp852
g427
g1
(g428
g429
(lp853
g1
(g431
g3
Ntp854
Rp855
(dp856
g435
V62
p857
sbatp858
Rp859
(dp860
g440
(dp861
sbsbsg37
(lp862
VHead Charge
p863
aVWild Charge
p864
aVMegahorn
p865
aVEarthquake
p866
asg43
VMuscle Band
p867
sg45
VSap Sipper
p868
sbag1
(g25
g3
Ntp869
Rp870
(dp871
g29
I330
sg31
VFlygon
p872
sg33
g34
sg35
g1
(g423
g3
Ntp873
Rp874
(dp875
g427
g1
(g428
g429
(lp876
g1
(g431
g3
Ntp877
Rp878
(dp879
g435
V62
p880
sbatp881
Rp882
(dp883
g440
(dp884
sbsbsg37
(lp885
VEarthquake
p886
aVFire Blast
p887
aVDragon Claw
p888
aVStone Edge
p889
asg43
VDragon Fang
p890
sg45
VLevitate
p891
sbag1
(g25
g3
Ntp892
Rp893
(dp894
g29
I604
sg31
VEelektross
p895
sg33
g34
sg35
g1
(g423
g3
Ntp896
Rp897
(dp898
g427
g1
(g428
g429
(lp899
g1
(g431
g3
Ntp900
Rp901
(dp902
g435
V62
p903
sbatp904
Rp905
(dp906
g440
(dp907
sbsbsg37
(lp908
VWild Charge
p909
aVFlamethrower
p910
aVDragon Claw
p911
aVCrunch
p912
asg43
VLeftovers
p913
sg45
VLevitate
p914
sbag1
(g25
g3
Ntp915
Rp916
(dp917
g29
I503
sg31
VSamurott
p918
sg33
g34
sg35
g1
(g423
g3
Ntp919
Rp920
(dp921
g427
g1
(g428
g429
(lp922
g1
(g431
g3
Ntp923
Rp924
(dp925
g435
V64
p926
sbatp927
Rp928
(dp929
g440
(dp930
sbsbsg37
(lp931
VHydro Pump
p932
aVMegahorn
p933
aVIce Beam
p934
aVGrass Knot
p935
asg43
VMystic Water
p936
sg45
VTorrent
p937
sbasg47
I01
sg48
g495
sbag1
(g2
g3
Ntp938
Rp939
(dp940
g7
VSpr B2W2 Hugh.png
p941
sg9
VPokemon Trainer
p942
sg11
VHugh
p943
sg13
I0
sg15
I6
sg17
g18
sg19
g20
sg21
g417
sg23
(lp944
g1
(g25
g3
Ntp945
Rp946
(dp947
g29
I521
sg31
VUnfezant
p948
sg33
g34
sg35
g1
(g423
g3
Ntp949
Rp950
(dp951
g427
g1
(g428
g429
(lp952
g1
(g431
g3
Ntp953
Rp954
(dp955
g435
V62
p956
sbatp957
Rp958
(dp959
g440
(dp960
sbsbsg37
(lp961
VFacade
p962
aVAerial Ace
p963
aVU-turn
p964
aVSwagger
p965
asg43
VScope Lens
p966
sg45
VSuper Luck
p967
sbag1
(g25
g3
Ntp968
Rp969
(dp970
g29
I514
sg31
VSimisear
p971
sg33
g34
sg35
g1
(g423
g3
Ntp972
Rp973
(dp974
g427
g1
(g428
g429
(lp975
g1
(g431
g3
Ntp976
Rp977
(dp978
g435
V62
p979
sbatp980
Rp981
(dp982
g440
(dp983
sbsbsg37
(lp984
VRock Slide
p985
aVCrunch
p986
aVBrick Break
p987
aVFlamethrower
p988
asg43
VCharcoal
p989
sg45
VGluttony
p990
sbag1
(g25
g3
Ntp991
Rp992
(dp993
g29
I626
sg31
VBouffalant
p994
sg33
g34
sg35
g1
(g423
g3
Ntp995
Rp996
(dp997
g427
g1
(g428
g429
(lp998
g1
(g431
g3
Ntp999
Rp1000
(dp1001
g435
V62
p1002
sbatp1003
Rp1004
(dp1005
g440
(dp1006
sbsbsg37
(lp1007
VHead Charge
p1008
aVWild Charge
p1009
aVMegahorn
p1010
aVEarthquake
p1011
asg43
VMuscle Band
p1012
sg45
VSap Sipper
p1013
sbag1
(g25
g3
Ntp1014
Rp1015
(dp1016
g29
I330
sg31
VFlygon
p1017
sg33
g34
sg35
g1
(g423
g3
Ntp1018
Rp1019
(dp1020
g427
g1
(g428
g429
(lp1021
g1
(g431
g3
Ntp1022
Rp1023
(dp1024
g435
V62
p1025
sbatp1026
Rp1027
(dp1028
g440
(dp1029
sbsbsg37
(lp1030
VEarthquake
p1031
aVFire Blast
p1032
aVDragon Claw
p1033
aVStone Edge
p1034
asg43
VDragon Fang
p1035
sg45
VLevitate
p1036
sbag1
(g25
g3
Ntp1037
Rp1038
(dp1039
g29
I604
sg31
VEelektross
p1040
sg33
g34
sg35
g1
(g423
g3
Ntp1041
Rp1042
(dp1043
g427
g1
(g428
g429
(lp1044
g1
(g431
g3
Ntp1045
Rp1046
(dp1047
g435
V62
p1048
sbatp1049
Rp1050
(dp1051
g440
(dp1052
sbsbsg37
(lp1053
VWild Charge
p1054
aVFlamethrower
p1055
aVDragon Claw
p1056
aVCrunch
p1057
asg43
VLeftovers
p1058
sg45
VLevitate
p1059
sbag1
(g25
g3
Ntp1060
Rp1061
(dp1062
g29
I497
sg31
VSerperior
p1063
sg33
g34
sg35
g1
(g423
g3
Ntp1064
Rp1065
(dp1066
g427
g1
(g428
g429
(lp1067
g1
(g431
g3
Ntp1068
Rp1069
(dp1070
g435
V64
p1071
sbatp1072
Rp1073
(dp1074
g440
(dp1075
sbsbsg37
(lp1076
VLeaf Storm
p1077
aVLeaf Blade
p1078
aVDragon Tail
p1079
aVCoil
p1080
asg43
VMiracle Seed
p1081
sg45
VOvergrow
p1082
sbasg47
I01
sg48
g495
sbag1
(g2
g3
Ntp1083
Rp1084
(dp1085
g7
VSpr B2W2 Cynthia.png
p1086
sg9
VPokemon Trainer
p1087
sg11
VCynthia
p1088
sg13
g1
(g423
g3
Ntp1089
Rp1090
(dp1091
g427
g1
(g428
g429
(lp1092
g1
(g431
g3
Ntp1093
Rp1094
(dp1095
g435
V15600
p1096
sbatp1097
Rp1098
(dp1099
g440
(dp1100
sbsbsg15
I6
sg17
g18
sg19
g20
sg21
g417
sg23
(lp1101
g1
(g25
g3
Ntp1102
Rp1103
(dp1104
g29
I442
sg31
VSpiritomb
p1105
sg33
g64
sg35
g1
(g423
g3
Ntp1106
Rp1107
(dp1108
g427
g1
(g428
g429
(lp1109
g1
(g431
g3
Ntp1110
Rp1111
(dp1112
g435
V76
p1113
sbatp1114
Rp1115
(dp1116
g440
(dp1117
sbsbsg37
(lp1118
VDouble Team
p1119
aVShadow Ball
p1120
aVDream Eater
p1121
aVHypnosis
p1122
asg43
g44
sg45
VPressure
p1123
sbag1
(g25
g3
Ntp1124
Rp1125
(dp1126
g29
I350
sg31
VMilotic
p1127
sg33
g64
sg35
g1
(g423
g3
Ntp1128
Rp1129
(dp1130
g427
g1
(g428
g429
(lp1131
g1
(g431
g3
Ntp1132
Rp1133
(dp1134
g435
V76
p1135
sbatp1136
Rp1137
(dp1138
g440
(dp1139
sbsbsg37
(lp1140
VHydro Pump
p1141
aVBlizzard
p1142
aVAttract
p1143
aVRest
p1144
asg43
g44
sg45
VMarvel Scale
p1145
sbag1
(g25
g3
Ntp1146
Rp1147
(dp1148
g29
I468
sg31
VTogekiss
p1149
sg33
g34
sg35
g1
(g423
g3
Ntp1150
Rp1151
(dp1152
g427
g1
(g428
g429
(lp1153
g1
(g431
g3
Ntp1154
Rp1155
(dp1156
g435
V76
p1157
sbatp1158
Rp1159
(dp1160
g440
(dp1161
sbsbsg37
(lp1162
VAura Sphere
p1163
aVExtremeSpeed
p1164
aVAir Slash
p1165
aVThunder Wave
p1166
asg43
g44
sg45
VSerene Grace
p1167
sbag1
(g25
g3
Ntp1168
Rp1169
(dp1170
g29
I448
sg31
VLucario
p1171
sg33
g34
sg35
g1
(g423
g3
Ntp1172
Rp1173
(dp1174
g427
g1
(g428
g429
(lp1175
g1
(g431
g3
Ntp1176
Rp1177
(dp1178
g435
V76
p1179
sbatp1180
Rp1181
(dp1182
g440
(dp1183
sbsbsg37
(lp1184
VPsychic
p1185
aVExtremeSpeed
p1186
aVClose Combat
p1187
aVFlash Cannon
p1188
asg43
g44
sg45
VInner Focus
p1189
sbag1
(g25
g3
Ntp1190
Rp1191
(dp1192
g29
I471
sg31
VGlaceon
p1193
sg33
g64
sg35
g1
(g423
g3
Ntp1194
Rp1195
(dp1196
g427
g1
(g428
g429
(lp1197
g1
(g431
g3
Ntp1198
Rp1199
(dp1200
g435
V76
p1201
sbatp1202
Rp1203
(dp1204
g440
(dp1205
sbsbsg37
(lp1206
VIce Beam
p1207
aVShadow Ball
p1208
aVSignal Beam
p1209
aVBarrier
p1210
asg43
g44
sg45
VSnow Cloak
p1211
sbag1
(g25
g3
Ntp1212
Rp1213
(dp1214
g29
I445
sg31
VGarchomp
p1215
sg33
g64
sg35
g1
(g423
g3
Ntp1216
Rp1217
(dp1218
g427
g1
(g428
g429
(lp1219
g1
(g431
g3
Ntp1220
Rp1221
(dp1222
g435
V78
p1223
sbatp1224
Rp1225
(dp1226
g440
(dp1227
sbsbsg37
(lp1228
VEarthquake
p1229
aVDragon Rush
p1230
aVStone Edge
p1231
aVFire Blast
p1232
asg43
g44
sg45
VSand Veil
p1233
sbasg47
I01
sg48
g495
sba.