(lp0
ccopy_reg
_reconstructor
p1
(c__main__
Trainer
p2
c__builtin__
object
p3
Ntp4
Rp5
(dp6
VtSprite
p7
VSpr BW Swimmer M.png
p8
sVtClass
p9
VSwimmer
p10
sVtName
p11
VBart
p12
sVtMoney
p13
V1008
p14
sVtPokeCount
p15
V3
p16
sVtLocation
p17
Vwiki/Undella_Bay
p18
sVtRegion
p19
VUnova
p20
sVtGame
p21
VBW
p22
sVtPokes
p23
(lp24
g1
(c__main__
FinishedPokemon
p25
g3
Ntp26
Rp27
(dp28
VpDexNo
p29
V120
p30
sVpSpecies
p31
VStaryu
p32
sVpGender
p33
VU
p34
sVpLevel
p35
V63
p36
sVpMoves
p37
(lp38
Vcosmic-power
p39
aVgyro-ball
p40
aVpower-gem
p41
aVreflect-type
p42
asVpHold
p43
V
p44
sVpAbility
p45
Vnatural-cure
p46
sbag1
(g25
g3
Ntp47
Rp48
(dp49
g29
V278
p50
sg31
VWingull
p51
sg33
VM
p52
sg35
V63
p53
sg37
(lp54
Vwater-pulse
p55
aVroost
p56
aVair-slash
p57
aVhurricane
p58
asg43
g44
sg45
Vkeen-eye
p59
sbag1
(g25
g3
Ntp60
Rp61
(dp62
g29
V593
p63
sg31
VJellicent
p64
sg33
g52
sg35
V63
p65
sg37
(lp66
Vbrine
p67
aVwring-out
p68
aVominous-wind
p69
aVhex
p70
asg43
g44
sg45
Vcursed-body
p71
sbasVbossFlag
p72
I00
sVtLongGame
p73
Vblack-white
p74
sbag1
(g2
g3
Ntp75
Rp76
(dp77
g7
VSpr BW Swimmer M.png
p78
sg9
VSwimmer
p79
sg11
VTim
p80
sg13
V1024
p81
sg15
V2
p82
sg17
g18
sg19
g20
sg21
g22
sg23
(lp83
g1
(g25
g3
Ntp84
Rp85
(dp86
g29
V195
p87
sg31
VQuagsire
p88
sg33
g52
sg35
V64
p89
sg37
(lp90
Vmud-sport
p91
aVmuddy-water
p92
aVmud-shot
p93
aVmud-bomb
p94
asg43
g44
sg45
Vdamp
p95
sbag1
(g25
g3
Ntp96
Rp97
(dp98
g29
V055
p99
sg31
VGolduck
p100
sg33
g52
sg35
V64
p101
sg37
(lp102
Vzen-headbutt
p103
aVaqua-jet
p104
aVwonder-room
p105
aVsoak
p106
asg43
g44
sg45
Vdamp
p107
sbasg72
I00
sg73
g74
sbag1
(g2
g3
Ntp108
Rp109
(dp110
g7
VSpr BW Swimmer F.png
p111
sg9
VSwimmer
p112
sg11
VRebecca
p113
sg13
V1008
p114
sg15
g16
sg17
g18
sg19
g20
sg21
g22
sg23
(lp115
g1
(g25
g3
Ntp116
Rp117
(dp118
g29
V090
p119
sg31
VShellder
p120
sg33
VF
p121
sg35
V63
p122
sg37
(lp123
Vbrine
p124
aVice-shard
p125
aVshell-smash
p126
aVrazor-shell
p127
asg43
g44
sg45
Vshell-armor
p128
sbag1
(g25
g3
Ntp129
Rp130
(dp131
g29
V170
p132
sg31
VChinchou
p133
sg33
g121
sg35
V63
p134
sg37
(lp135
Vsignal-beam
p136
aVaqua-ring
p137
aVdischarge
p138
aVelectro-ball
p139
asg43
g44
sg45
Vvolt-absorb
p140
sbag1
(g25
g3
Ntp141
Rp142
(dp143
g29
V593
p144
sg31
VJellicent
p145
sg33
g121
sg35
V63
p146
sg37
(lp147
Vbrine
p148
aVwring-out
p149
aVominous-wind
p150
aVhex
p151
asg43
g44
sg45
Vcursed-body
p152
sbasg72
I00
sg73
g74
sbag1
(g2
g3
Ntp153
Rp154
(dp155
g7
VSpr BW Swimmer F.png
p156
sg9
VSwimmer
p157
sg11
VLarissa
p158
sg13
V1040
p159
sg15
V1
p160
sg17
g18
sg19
g20
sg21
g22
sg23
(lp161
g1
(g25
g3
Ntp162
Rp163
(dp164
g29
V222
p165
sg31
VCorsola
p166
sg33
g121
sg35
V65
p167
sg37
(lp168
Vlucky-chant
p169
aVaqua-ring
p170
aVpower-gem
p171
aVearth-power
p172
asg43
g44
sg45
Vnatural-cure
p173
sbasg72
I00
sg73
g74
sbag1
(g2
g3
Ntp174
Rp175
(dp176
g7
VSpr BW Swimmer M.png
p177
sg9
VSwimmer
p178
sg11
VMatt
p179
sg13
V1024
p180
sg15
g82
sg17
g18
sg19
g20
sg21
g22
sg23
(lp181
g1
(g25
g3
Ntp182
Rp183
(dp184
g29
V320
p185
sg31
VWailmer
p186
sg33
g52
sg35
V64
p187
sg37
(lp188
Vbounce
p189
aVwater-pulse
p190
aVbrine
p191
aVheavy-slam
p192
asg43
g44
sg45
Voblivious
p193
sbag1
(g25
g3
Ntp194
Rp195
(dp196
g29
V320
p197
sg31
VWailmer
p198
sg33
g52
sg35
V64
p199
sg37
(lp200
Vbounce
p201
aVwater-pulse
p202
aVbrine
p203
aVheavy-slam
p204
asg43
g44
sg45
Voblivious
p205
sbasg72
I00
sg73
g74
sbag1
(g2
g3
Ntp206
Rp207
(dp208
g7
VSpr BW Swimmer F.png
p209
sg9
VSwimmer
p210
sg11
VTyra
p211
sg13
V1024
p212
sg15
g82
sg17
g18
sg19
g20
sg21
g22
sg23
(lp213
g1
(g25
g3
Ntp214
Rp215
(dp216
g29
V086
p217
sg31
VSeel
p218
sg33
g121
sg35
V64
p219
sg37
(lp220
Vaqua-ring
p221
aVaqua-tail
p222
aVice-shard
p223
aVaqua-jet
p224
asg43
g44
sg45
Vhydration
p225
sbag1
(g25
g3
Ntp226
Rp227
(dp228
g29
V594
p229
sg31
VAlomomola
p230
sg33
g121
sg35
V64
p231
sg37
(lp232
Vaqua-jet
p233
aVwide-guard
p234
aVsoak
p235
aVheal-pulse
p236
asg43
g44
sg45
Vhealer
p237
sbasg72
I00
sg73
g74
sbag1
(g2
g3
Ntp238
Rp239
(dp240
g7
VSpr B2W2 Swimmer M.png
p241
sg9
VSwimmer
p242
sg11
VMatt
p243
sg13
g1
(cmwparserfromhell.wikicode
Wikicode
p244
g3
Ntp245
Rp246
(dp247
V_nodes
p248
g1
(cmwparserfromhell.smart_list.smart_list
SmartList
p249
c__builtin__
list
p250
(lp251
g1
(cmwparserfromhell.nodes.text
Text
p252
g3
Ntp253
Rp254
(dp255
V_value
p256
V624
p257
sbatp258
Rp259
(dp260
V_children
p261
(dp262
sbsbsg15
g160
sg17
g18
sg19
g20
sg21
VB2W2
p263
sg23
(lp264
g1
(g25
g3
Ntp265
Rp266
(dp267
g29
V458
p268
sg31
VMantyke
p269
sg33
g52
sg35
V39
p270
sg37
(lp271
Vwater-pulse
p272
aVaqua-ring
p273
aVair-slash
p274
aVwide-guard
p275
asg43
g44
sg45
Vwater-absorb
p276
sbasg72
I00
sg73
Vblack-2-white-2
p277
sbag1
(g2
g3
Ntp278
Rp279
(dp280
g7
VSpr B2W2 Swimmer F.png
p281
sg9
VSwimmer
p282
sg11
VArissa
p283
sg13
g1
(g244
g3
Ntp284
Rp285
(dp286
g248
g1
(g249
g250
(lp287
g1
(g252
g3
Ntp288
Rp289
(dp290
g256
V624
p291
sbatp292
Rp293
(dp294
g261
(dp295
sbsbsg15
g160
sg17
g18
sg19
g20
sg21
g263
sg23
(lp296
g1
(g25
g3
Ntp297
Rp298
(dp299
g29
V594
p300
sg31
VAlomomola
p301
sg33
g121
sg35
V39
p302
sg37
(lp303
Vaqua-jet
p304
aVwide-guard
p305
aVsoak
p306
aVheal-pulse
p307
asg43
g44
sg45
Vhealer
p308
sbasg72
I00
sg73
g277
sbag1
(g2
g3
Ntp309
Rp310
(dp311
g7
VSpr B2W2 Ace Trainer F.png
p312
sg9
VAce Trainer
p313
sg11
VSummer
p314
sg13
g1
(g244
g3
Ntp315
Rp316
(dp317
g248
g1
(g249
g250
(lp318
g1
(g252
g3
Ntp319
Rp320
(dp321
g256
V2400
p322
sbatp323
Rp324
(dp325
g261
(dp326
sbsbsg15
g82
sg17
g18
sg19
g20
sg21
g263
sg23
(lp327
g1
(g25
g3
Ntp328
Rp329
(dp330
g29
V279
p331
sg31
VPelipper
p332
sg33
g121
sg35
V40
p333
sg37
(lp334
Vpayback
p335
aVfling
p336
aVsoak
p337
aVhurricane
p338
asg43
g44
sg45
Vdrizzle
p339
sbag1
(g25
g3
Ntp340
Rp341
(dp342
g29
V121
p343
sg31
VStarmie
p344
sg33
g34
sg35
V40
p345
sg37
(lp346
Vrecover
p347
aVconfuse-ray
p348
aVswift
p349
aVrapid-spin
p350
asg43
g44
sg45
Vnatural-cure
p351
sbasg72
I00
sg73
g277
sbag1
(g2
g3
Ntp352
Rp353
(dp354
g7
VSpr B2W2 Swimmer M.png
p355
sg9
VSwimmer
p356
sg11
VBart
p357
sg13
g1
(g244
g3
Ntp358
Rp359
(dp360
g248
g1
(g249
g250
(lp361
g1
(g252
g3
Ntp362
Rp363
(dp364
g256
V624
p365
sbatp366
Rp367
(dp368
g261
(dp369
sbsbsg15
g160
sg17
g18
sg19
g20
sg21
g263
sg23
(lp370
sg72
I00
sg73
g277
sbag1
(g2
g3
Ntp371
Rp372
(dp373
g7
VSpr B2W2 Swimmer F.png
p374
sg9
VSwimmer
p375
sg11
VMitzi
p376
sg13
g1
(g244
g3
Ntp377
Rp378
(dp379
g248
g1
(g249
g250
(lp380
g1
(g252
g3
Ntp381
Rp382
(dp383
g256
V608
p384
sbatp385
Rp386
(dp387
g261
(dp388
sbsbsg15
g82
sg17
g18
sg19
g20
sg21
g263
sg23
(lp389
g1
(g25
g3
Ntp390
Rp391
(dp392
g29
V363
p393
sg31
VSpheal
p394
sg33
g121
sg35
V38
p395
sg37
(lp396
Vencore
p397
aVhail
p398
aVice-ball
p399
aVsheer-cold
p400
asg43
g44
sg45
Vice-body
p401
sbag1
(g25
g3
Ntp402
Rp403
(dp404
g29
V320
p405
sg31
VWailmer
p406
sg33
g121
sg35
V38
p407
sg37
(lp408
Vbounce
p409
aVwater-pulse
p410
aVbrine
p411
aVheavy-slam
p412
asg43
g44
sg45
Voblivious
p413
sbasg72
I00
sg73
g277
sbag1
(g2
g3
Ntp414
Rp415
(dp416
g7
VSpr B2W2 Swimmer M.png
p417
sg9
VSwimmer
p418
sg11
VTim
p419
sg13
g1
(g244
g3
Ntp420
Rp421
(dp422
g248
g1
(g249
g250
(lp423
g1
(g252
g3
Ntp424
Rp425
(dp426
g256
V624
p427
sbatp428
Rp429
(dp430
g261
(dp431
sbsbsg15
g160
sg17
g18
sg19
g20
sg21
g263
sg23
(lp432
g1
(g25
g3
Ntp433
Rp434
(dp435
g29
V364
p436
sg31
VSealeo
p437
sg33
g52
sg35
V39
p438
sg37
(lp439
Vencore
p440
aVhail
p441
aVice-ball
p442
aVsheer-cold
p443
asg43
g44
sg45
Vice-body
p444
sbasg72
I00
sg73
g277
sba.