(lp0
ccopy_reg
_reconstructor
p1
(c__main__
Trainer
p2
c__builtin__
object
p3
Ntp4
Rp5
(dp6
VtSprite
p7
VSpr BW Biker.png
p8
sVtClass
p9
VBiker
p10
sVtName
p11
VPhillip
p12
sVtMoney
p13
V1152
p14
sVtPokeCount
p15
V2
p16
sVtLocation
p17
Vwiki/Unova_Route_9
p18
sVtRegion
p19
VUnova
p20
sVtGame
p21
VBW
p22
sVtPokes
p23
(lp24
g1
(c__main__
FinishedPokemon
p25
g3
Ntp26
Rp27
(dp28
VpDexNo
p29
V552
p30
sVpSpecies
p31
VKrokorok
p32
sVpGender
p33
VM
p34
sVpLevel
p35
V36
p36
sVpMoves
p37
(lp38
Vsand-tomb
p39
aVassurance
p40
aVembargo
p41
aVfoul-play
p42
asVpHold
p43
V
p44
sVpAbility
p45
Vintimidate
p46
sbag1
(g25
g3
Ntp47
Rp48
(dp49
g29
V559
p50
sg31
VScraggy
p51
sg33
g34
sg35
V36
p52
sg37
(lp53
Vpayback
p54
aVrock-climb
p55
aVhead-smash
p56
aVchip-away
p57
asg43
g44
sg45
Vmoxie
p58
sbasVbossFlag
p59
I00
sVtLongGame
p60
Vblack-white
p61
sbag1
(g2
g3
Ntp62
Rp63
(dp64
g7
VSpr BW Roughneck.png
p65
sg9
VRoughneck
p66
sg11
VReese
p67
sg13
V864
p68
sg15
g16
sg17
g18
sg19
g20
sg21
g22
sg23
(lp69
g1
(g25
g3
Ntp70
Rp71
(dp72
g29
V552
p73
sg31
VKrokorok
p74
sg33
g34
sg35
V36
p75
sg37
(lp76
Vsand-tomb
p77
aVassurance
p78
aVembargo
p79
aVfoul-play
p80
asg43
g44
sg45
Vmoxie
p81
sbag1
(g25
g3
Ntp82
Rp83
(dp84
g29
V569
p85
sg31
VGarbodor
p86
sg33
g34
sg35
V36
p87
sg37
(lp88
Vtoxic-spikes
p89
aVgunk-shot
p90
aVacid-spray
p91
aVclear-smog
p92
asg43
g44
sg45
Vweak-armor
p93
sbasg59
I00
sg60
g61
sbag1
(g2
g3
Ntp94
Rp95
(dp96
g7
VSpr BW Hooligans.png
p97
sg9
VHooligans
p98
sg11
VJim & Cas
p99
sg13
V2368
p100
sg15
g16
sg17
g18
sg19
g20
sg21
g22
sg23
(lp101
g1
(g25
g3
Ntp102
Rp103
(dp104
g29
V559
p105
sg31
VScraggy
p106
sg33
g34
sg35
V37
p107
sg37
(lp108
Vpayback
p109
aVrock-climb
p110
aVhead-smash
p111
aVchip-away
p112
asg43
g44
sg45
Vshed-skin
p113
sbag1
(g25
g3
Ntp114
Rp115
(dp116
g29
V559
p117
sg31
VScraggy
p118
sg33
g34
sg35
V37
p119
sg37
(lp120
Vpayback
p121
aVrock-climb
p122
aVhead-smash
p123
aVchip-away
p124
asg43
g44
sg45
Vmoxie
p125
sbasg59
I00
sg60
g61
sbag1
(g2
g3
Ntp126
Rp127
(dp128
g7
VSpr BW Biker.png
p129
sg9
VBiker
p130
sg11
VZeke
p131
sg13
V1184
p132
sg15
V1
p133
sg17
g18
sg19
g20
sg21
g22
sg23
(lp134
g1
(g25
g3
Ntp135
Rp136
(dp137
g29
V624
p138
sg31
VPawniard
p139
sg33
g34
sg35
V37
p140
sg37
(lp141
Vassurance
p142
aVembargo
p143
aVnight-slash
p144
aViron-head
p145
asg43
g44
sg45
Vdefiant
p146
sbasg59
I00
sg60
g61
sbag1
(g2
g3
Ntp147
Rp148
(dp149
g7
VSpr BW Roughneck.png
p150
sg9
VRoughneck
p151
sg11
VChance
p152
sg13
V888
p153
sg15
g133
sg17
g18
sg19
g20
sg21
g22
sg23
(lp154
g1
(g25
g3
Ntp155
Rp156
(dp157
g29
V559
p158
sg31
VScraggy
p159
sg33
g34
sg35
V37
p160
sg37
(lp161
Vpayback
p162
aVrock-climb
p163
aVhead-smash
p164
aVchip-away
p165
asg43
g44
sg45
Vshed-skin
p166
sbasg59
I00
sg60
g61
sbag1
(g2
g3
Ntp167
Rp168
(dp169
g7
VSpr B2W2 Roughneck.png
p170
sg9
VRoughneck
p171
sg11
VChance
p172
sg13
g1
(cmwparserfromhell.wikicode
Wikicode
p173
g3
Ntp174
Rp175
(dp176
V_nodes
p177
g1
(cmwparserfromhell.smart_list.smart_list
SmartList
p178
c__builtin__
list
p179
(lp180
g1
(cmwparserfromhell.nodes.text
Text
p181
g3
Ntp182
Rp183
(dp184
V_value
p185
V1032
p186
sbatp187
Rp188
(dp189
V_children
p190
(dp191
sbsbsg15
g133
sg17
g18
sg19
g20
sg21
VB2W2
p192
sg23
(lp193
g1
(g25
g3
Ntp194
Rp195
(dp196
g29
V559
p197
sg31
VScraggy
p198
sg33
g34
sg35
V43
p199
sg37
(lp200
Vpayback
p201
aVrock-climb
p202
aVhead-smash
p203
aVchip-away
p204
asg43
g44
sg45
Vmoxie
p205
sbasg59
I00
sg60
Vblack-2-white-2
p206
sbag1
(g2
g3
Ntp207
Rp208
(dp209
g7
VSpr B2W2 Biker.png
p210
sg9
VBiker
p211
sg11
VZeke
p212
sg13
g1
(g173
g3
Ntp213
Rp214
(dp215
g177
g1
(g178
g179
(lp216
g1
(g181
g3
Ntp217
Rp218
(dp219
g185
V1376
p220
sbatp221
Rp222
(dp223
g190
(dp224
sbsbsg15
g133
sg17
g18
sg19
g20
sg21
g192
sg23
(lp225
g1
(g25
g3
Ntp226
Rp227
(dp228
g29
V624
p229
sg31
VPawniard
p230
sg33
g34
sg35
V43
p231
sg37
(lp232
Vassurance
p233
aVembargo
p234
aVnight-slash
p235
aViron-head
p236
asg43
g44
sg45
Vinner-focus
p237
sbasg59
I00
sg60
g206
sbag1
(g2
g3
Ntp238
Rp239
(dp240
g7
VSpr B2W2 Biker.png
p241
sg9
VBiker
p242
sg11
VPhillip
p243
sg13
g1
(g173
g3
Ntp244
Rp245
(dp246
g177
g1
(g178
g179
(lp247
g1
(g181
g3
Ntp248
Rp249
(dp250
g185
V1376
p251
sbatp252
Rp253
(dp254
g190
(dp255
sbsbsg15
g133
sg17
g18
sg19
g20
sg21
g192
sg23
(lp256
g1
(g25
g3
Ntp257
Rp258
(dp259
g29
V451
p260
sg31
VSkorupi
p261
sg33
g34
sg35
V43
p262
sg37
(lp263
Vcross-poison
p264
aVbug-bite
p265
aVhone-claws
p266
aVvenoshock
p267
asg43
g44
sg45
Vbattle-armor
p268
sbasg59
I00
sg60
g206
sbag1
(g2
g3
Ntp269
Rp270
(dp271
g7
VSpr B2W2 Hooligans.png
p272
sg9
VHooligans
p273
sg11
VJim & Cas
p274
sg13
g1
(g173
g3
Ntp275
Rp276
(dp277
g177
g1
(g178
g179
(lp278
g1
(g181
g3
Ntp279
Rp280
(dp281
g185
V2688
p282
sbatp283
Rp284
(dp285
g190
(dp286
sbsbsg15
g16
sg17
g18
sg19
g20
sg21
g192
sg23
(lp287
g1
(g25
g3
Ntp288
Rp289
(dp290
g29
V553
p291
sg31
VKrookodile
p292
sg33
g34
sg35
V42
p293
sg37
(lp294
Vsand-tomb
p295
aVassurance
p296
aVembargo
p297
aVfoul-play
p298
asg43
g44
sg45
Vintimidate
p299
sbag1
(g25
g3
Ntp300
Rp301
(dp302
g29
V452
p303
sg31
VDrapion
p304
sg33
g34
sg35
V42
p305
sg37
(lp306
Vcross-poison
p307
aVbug-bite
p308
aVhone-claws
p309
aVvenoshock
p310
asg43
g44
sg45
Vbattle-armor
p311
sbasg59
I00
sg60
g206
sbag1
(g2
g3
Ntp312
Rp313
(dp314
g7
VSpr B2W2 Roughneck.png
p315
sg9
VRoughneck
p316
sg11
VReese
p317
sg13
g1
(g173
g3
Ntp318
Rp319
(dp320
g177
g1
(g178
g179
(lp321
g1
(g181
g3
Ntp322
Rp323
(dp324
g185
V1032
p325
sbatp326
Rp327
(dp328
g190
(dp329
sbsbsg15
g133
sg17
g18
sg19
g20
sg21
g192
sg23
(lp330
g1
(g25
g3
Ntp331
Rp332
(dp333
g29
V552
p334
sg31
VKrokorok
p335
sg33
g34
sg35
V43
p336
sg37
(lp337
Vsand-tomb
p338
aVassurance
p339
aVembargo
p340
aVfoul-play
p341
asg43
g44
sg45
Vmoxie
p342
sbasg59
I00
sg60
g206
sba.