(lp0
ccopy_reg
_reconstructor
p1
(c__main__
Trainer
p2
c__builtin__
object
p3
Ntp4
Rp5
(dp6
VtSprite
p7
VSpr BW Shauntal.png
p8
sVtClass
p9
VElite Four
p10
sVtName
p11
VShauntal
p12
sVtMoney
p13
V6000
p14
sVtPokeCount
p15
I4
sVtLocation
p16
Vwiki/unovaE4
p17
sVtRegion
p18
VUnova
p19
sVtGame
p20
VBW
p21
sVtPokes
p22
(lp23
g1
(c__main__
FinishedPokemon
p24
g3
Ntp25
Rp26
(dp27
VpDexNo
p28
I563
sVpSpecies
p29
VCofagrigus
p30
sVpGender
p31
VF
p32
sVpLevel
p33
V48
p34
sVpMoves
p35
(lp36
VPsychic
p37
aVWill-O-Wisp
p38
aVShadow Ball
p39
aVGrass Knot
p40
asVpHold
p41
V
p42
sVpAbility
p43
VMummy
p44
sbag1
(g24
g3
Ntp45
Rp46
(dp47
g28
I593
sg29
VJellicent
p48
sg31
g32
sg33
V48
p49
sg35
(lp50
VShadow Ball
p51
aVSurf
p52
aVEnergy Ball
p53
aVBrine
p54
asg41
g42
sg43
VCursed Body
p55
sbag1
(g24
g3
Ntp56
Rp57
(dp58
g28
I623
sg29
VGolurk
p59
sg31
VU
p60
sg33
V48
p61
sg35
(lp62
VCurse
p63
aVBrick Break
p64
aVEarthquake
p65
aVShadow Punch
p66
asg41
g42
sg43
VIron Fist
p67
sbag1
(g24
g3
Ntp68
Rp69
(dp70
g28
I609
sg29
VChandelure
p71
sg31
g32
sg33
V50
p72
sg35
(lp73
VFire Blast
p74
aVPsychic
p75
aVShadow Ball
p76
aVPayback
p77
asg41
g42
sg43
VFlame Body
p78
sbasVbossFlag
p79
I01
sVtLongGame
p80
Vblack-white
p81
sbag1
(g2
g3
Ntp82
Rp83
(dp84
g7
VSpr BW Shauntal.png
p85
sg9
VElite Four
p86
sg11
VShauntal
p87
sg13
V8760
p88
sg15
I6
sg16
g17
sg18
g19
sg20
g21
sg22
(lp89
g1
(g24
g3
Ntp90
Rp91
(dp92
g28
I563
sg29
VCofagrigus
p93
sg31
g32
sg33
V71
p94
sg35
(lp95
VShadow Ball
p96
aVWill-O-Wisp
p97
aVPsychic
p98
aVEnergy Ball
p99
asg41
g42
sg43
VMummy
p100
sbag1
(g24
g3
Ntp101
Rp102
(dp103
g28
I593
sg29
VJellicent
p104
sg31
g32
sg33
V71
p105
sg35
(lp106
VSludge Wave
p107
aVHydro Pump
p108
aVPsychic
p109
aVShadow Ball
p110
asg41
g42
sg43
VCursed Body
p111
sbag1
(g24
g3
Ntp112
Rp113
(dp114
g28
I623
sg29
VGolurk
p115
sg31
g60
sg33
V71
p116
sg35
(lp117
VHammer Arm
p118
aVEarthquake
p119
aVShadow Punch
p120
aVCurse
p121
asg41
g42
sg43
VIron Fist
p122
sbag1
(g24
g3
Ntp123
Rp124
(dp125
g28
I478
sg29
VFroslass
p126
sg31
g32
sg33
V71
p127
sg35
(lp128
VBlizzard
p129
aVIce Shard
p130
aVShadow Ball
p131
aVPsychic
p132
asg41
g42
sg43
VSnow Cloak
p133
sbag1
(g24
g3
Ntp134
Rp135
(dp136
g28
I426
sg29
VDrifblim
p137
sg31
g32
sg33
V71
p138
sg35
(lp139
VThunder
p140
aVShadow Ball
p141
aVAcrobatics
p142
aVPsychic
p143
asg41
g42
sg43
VAftermath
p144
sbag1
(g24
g3
Ntp145
Rp146
(dp147
g28
I609
sg29
VChandelure
p148
sg31
g32
sg33
V73
p149
sg35
(lp150
VFire Blast
p151
aVPsychic
p152
aVShadow Ball
p153
aVPayback
p154
asg41
g42
sg43
VFlame Body
p155
sbasg79
I01
sg80
g81
sbag1
(g2
g3
Ntp156
Rp157
(dp158
g7
VSpr B2W2 Shauntal.png
p159
sg9
VElite Four
p160
sg11
VShauntal
p161
sg13
g1
(cmwparserfromhell.wikicode
Wikicode
p162
g3
Ntp163
Rp164
(dp165
V_nodes
p166
g1
(cmwparserfromhell.smart_list.smart_list
SmartList
p167
c__builtin__
list
p168
(lp169
g1
(cmwparserfromhell.nodes.text
Text
p170
g3
Ntp171
Rp172
(dp173
V_value
p174
V6400
p175
sbatp176
Rp177
(dp178
V_children
p179
(dp180
sbsbsg15
I4
sg16
g17
sg18
g19
sg20
VB2W2
p181
sg22
(lp182
g1
(g24
g3
Ntp183
Rp184
(dp185
g28
I563
sg29
VCofagrigus
p186
sg31
g32
sg33
g1
(g162
g3
Ntp187
Rp188
(dp189
g166
g1
(g167
g168
(lp190
g1
(g170
g3
Ntp191
Rp192
(dp193
g174
V52
p194
sbatp195
Rp196
(dp197
g179
(dp198
sbsbsg35
(lp199
VPsychic
p200
aVShadow Ball
p201
aVWill-O-Wisp
p202
aVGrass Knot
p203
asg41
g42
sg43
VMummy
p204
sbag1
(g24
g3
Ntp205
Rp206
(dp207
g28
I426
sg29
VDrifblim
p208
sg31
g32
sg33
g1
(g162
g3
Ntp209
Rp210
(dp211
g166
g1
(g167
g168
(lp212
g1
(g170
g3
Ntp213
Rp214
(dp215
g174
V52
p216
sbatp217
Rp218
(dp219
g179
(dp220
sbsbsg35
(lp221
VAcrobatics
p222
aVThunderbolt
p223
aVShadow Ball
p224
aVPsychic
p225
asg41
g42
sg43
VAftermath
p226
sbag1
(g24
g3
Ntp227
Rp228
(dp229
g28
I623
sg29
VGolurk
p230
sg31
g60
sg33
g1
(g162
g3
Ntp231
Rp232
(dp233
g166
g1
(g167
g168
(lp234
g1
(g170
g3
Ntp235
Rp236
(dp237
g174
V52
p238
sbatp239
Rp240
(dp241
g179
(dp242
sbsbsg35
(lp243
VEarthquake
p244
aVShadow Punch
p245
aVHeavy Slam
p246
aVBrick Break
p247
asg41
g42
sg43
VIron Fist
p248
sbag1
(g24
g3
Ntp249
Rp250
(dp251
g28
I609
sg29
VChandelure
p252
sg31
g32
sg33
g1
(g162
g3
Ntp253
Rp254
(dp255
g166
g1
(g167
g168
(lp256
g1
(g170
g3
Ntp257
Rp258
(dp259
g174
V54
p260
sbatp261
Rp262
(dp263
g179
(dp264
sbsbsg35
(lp265
VFire Blast
p266
aVEnergy Ball
p267
aVShadow Ball
p268
aVPsychic
p269
asg41
VSitrus Berry
p270
sg43
VFlame Body
p271
sbasg79
I01
sg80
Vblack-2-white-2
p272
sbag1
(g2
g3
Ntp273
Rp274
(dp275
g7
VSpr B2W2 Shauntal.png
p276
sg9
VElite Four
p277
sg11
VShauntal
p278
sg13
g1
(g162
g3
Ntp279
Rp280
(dp281
g166
g1
(g167
g168
(lp282
g1
(g170
g3
Ntp283
Rp284
(dp285
g174
V8280
p286
sbatp287
Rp288
(dp289
g179
(dp290
sbsbsg15
I6
sg16
g17
sg18
g19
sg20
g181
sg22
(lp291
g1
(g24
g3
Ntp292
Rp293
(dp294
g28
I563
sg29
VCofagrigus
p295
sg31
g32
sg33
g1
(g162
g3
Ntp296
Rp297
(dp298
g166
g1
(g167
g168
(lp299
g1
(g170
g3
Ntp300
Rp301
(dp302
g174
V68
p303
sbatp304
Rp305
(dp306
g179
(dp307
sbsbsg35
(lp308
VShadow Ball
p309
aVPsychic
p310
aVWill-O-Wisp
p311
aVEnergy Ball
p312
asg41
g42
sg43
VMummy
p313
sbag1
(g24
g3
Ntp314
Rp315
(dp316
g28
I429
sg29
VMismagius
p317
sg31
g32
sg33
g1
(g162
g3
Ntp318
Rp319
(dp320
g166
g1
(g167
g168
(lp321
g1
(g170
g3
Ntp322
Rp323
(dp324
g174
V68
p325
sbatp326
Rp327
(dp328
g179
(dp329
sbsbsg35
(lp330
VShadow Ball
p331
aVPsychic
p332
aVPower Gem
p333
aVPerish Song
p334
asg41
g42
sg43
VLevitate
p335
sbag1
(g24
g3
Ntp336
Rp337
(dp338
g28
I478
sg29
VFroslass
p339
sg31
g32
sg33
g1
(g162
g3
Ntp340
Rp341
(dp342
g166
g1
(g167
g168
(lp343
g1
(g170
g3
Ntp344
Rp345
(dp346
g174
V68
p347
sbatp348
Rp349
(dp350
g179
(dp351
sbsbsg35
(lp352
VShadow Ball
p353
aVPsychic
p354
aVBlizzard
p355
aVIce Shard
p356
asg41
g42
sg43
VSnow Cloak
p357
sbag1
(g24
g3
Ntp358
Rp359
(dp360
g28
I426
sg29
VDrifblim
p361
sg31
g32
sg33
g1
(g162
g3
Ntp362
Rp363
(dp364
g166
g1
(g167
g168
(lp365
g1
(g170
g3
Ntp366
Rp367
(dp368
g174
V68
p369
sbatp370
Rp371
(dp372
g179
(dp373
sbsbsg35
(lp374
VThunder
p375
aVShadow Ball
p376
aVPsychic
p377
aVAcrobatics
p378
asg41
VFlying Gem
p379
sg43
VUnburden
p380
sbag1
(g24
g3
Ntp381
Rp382
(dp383
g28
I623
sg29
VGolurk
p384
sg31
g60
sg33
g1
(g162
g3
Ntp385
Rp386
(dp387
g166
g1
(g167
g168
(lp388
g1
(g170
g3
Ntp389
Rp390
(dp391
g174
V68
p392
sbatp393
Rp394
(dp395
g179
(dp396
sbsbsg35
(lp397
VShadow Punch
p398
aVEarthquake
p399
aVHammer Arm
p400
aVRock Slide
p401
asg41
g42
sg43
VIron Fist
p402
sbag1
(g24
g3
Ntp403
Rp404
(dp405
g28
I609
sg29
VChandelure
p406
sg31
g32
sg33
g1
(g162
g3
Ntp407
Rp408
(dp409
g166
g1
(g167
g168
(lp410
g1
(g170
g3
Ntp411
Rp412
(dp413
g174
V70
p414
sbatp415
Rp416
(dp417
g179
(dp418
sbsbsg35
(lp419
VShadow Ball
p420
aVPsychic
p421
aVFire Blast
p422
aVEnergy Ball
p423
asg41
VSitrus Berry
p424
sg43
VFlame Body
p425
sbasg79
I01
sg80
g272
sbag1
(g2
g3
Ntp426
Rp427
(dp428
g7
VSpr B2W2 Shauntal.png
p429
sg9
VElite Four
p430
sg11
VShauntal
p431
sg13
V7440
p432
sg15
I5
sg16
g17
sg18
g19
sg20
g181
sg22
(lp433
g1
(g24
g3
Ntp434
Rp435
(dp436
g28
I563
sg29
VCofagrigus
p437
sg31
g32
sg33
V60
p438
sg35
(lp439
VGrass Knot
p440
aVShadow Ball
p441
aVWill-O-Wisp
p442
aVPsychic
p443
asg41
VLeftovers
p444
sg43
VMummy
p445
sbag1
(g24
g3
Ntp446
Rp447
(dp448
g28
I426
sg29
VDrifblim
p449
sg31
g32
sg33
V60
p450
sg35
(lp451
VPsychic
p452
aVThunderbolt
p453
aVShadow Ball
p454
aVAcrobatics
p455
asg41
VFlying Gem
p456
sg43
VUnburden
p457
sbag1
(g24
g3
Ntp458
Rp459
(dp460
g28
I623
sg29
VGolurk
p461
sg31
g60
sg33
V60
p462
sg35
(lp463
VHeavy Slam
p464
aVEarthquake
p465
aVBrick Break
p466
aVShadow Punch
p467
asg41
VExpert Belt
p468
sg43
VIron Fist
p469
sbag1
(g24
g3
Ntp470
Rp471
(dp472
g28
I354
sg29
VBanette
p473
sg31
g32
sg33
V60
p474
sg35
(lp475
VShadow Claw
p476
aVWill-O-Wisp
p477
aVPsychic
p478
aVSucker Punch
p479
asg41
VMuscle Band
p480
sg43
VInsomnia
p481
sbag1
(g24
g3
Ntp482
Rp483
(dp484
g28
I609
sg29
VChandelure
p485
sg31
g32
sg33
V62
p486
sg35
(lp487
VFire Blast
p488
aVEnergy Ball
p489
aVShadow Ball
p490
aVPsychic
p491
asg41
VChoice Scarf
p492
sg43
VFlame Body
p493
sbasg79
I01
sg80
g272
sbag1
(g2
g3
Ntp494
Rp495
(dp496
g7
VSpr B2W2 Shauntal.png
p497
sg9
VElite Four
p498
sg11
VShauntal
p499
sg13
V9480
p500
sg15
I6
sg16
g17
sg18
g19
sg20
g181
sg22
(lp501
g1
(g24
g3
Ntp502
Rp503
(dp504
g28
I563
sg29
VCofagrigus
p505
sg31
g32
sg33
V77
p506
sg35
(lp507
VShadow Ball
p508
aVWill-O-Wisp
p509
aVEnergy Ball
p510
aVPsychic
p511
asg41
VLeftovers
p512
sg43
VMummy
p513
sbag1
(g24
g3
Ntp514
Rp515
(dp516
g28
I94
sg29
VGengar
p517
sg31
g32
sg33
V77
p518
sg35
(lp519
VShadow Ball
p520
aVFocus Blast
p521
aVSludge Bomb
p522
aVDark Pulse
p523
asg41
VExpert Belt
p524
sg43
VLevitate
p525
sbag1
(g24
g3
Ntp526
Rp527
(dp528
g28
I478
sg29
VFroslass
p529
sg31
g32
sg33
V77
p530
sg35
(lp531
VPsychic
p532
aVShadow Ball
p533
aVBlizzard
p534
aVIce Shard
p535
asg41
VWise Glasses
p536
sg43
VSnow Cloak
p537
sbag1
(g24
g3
Ntp538
Rp539
(dp540
g28
I426
sg29
VDrifblim
p541
sg31
g32
sg33
V77
p542
sg35
(lp543
VShadow Ball
p544
aVPsychic
p545
aVAcrobatics
p546
aVThunder
p547
asg41
VFlying Gem
p548
sg43
VUnburden
p549
sbag1
(g24
g3
Ntp550
Rp551
(dp552
g28
I623
sg29
VGolurk
p553
sg31
g60
sg33
V77
p554
sg35
(lp555
VShadow Punch
p556
aVEarthquake
p557
aVHammer Arm
p558
aVStone Edge
p559
asg41
VMuscle Band
p560
sg43
VIron Fist
p561
sbag1
(g24
g3
Ntp562
Rp563
(dp564
g28
I609
sg29
VChandelure
p565
sg31
g32
sg33
V79
p566
sg35
(lp567
VFire Blast
p568
aVShadow Ball
p569
aVEnergy Ball
p570
aVPsychic
p571
asg41
VChoice Scarf
p572
sg43
VFlame Body
p573
sbasg79
I01
sg80
g272
sbag1
(g2
g3
Ntp574
Rp575
(dp576
g7
VSpr BW Marshal.png
p577
sg9
VElite Four
p578
sg11
VMarshal
p579
sg13
V6000
p580
sg15
I4
sg16
g17
sg18
g19
sg20
g21
sg22
(lp581
g1
(g24
g3
Ntp582
Rp583
(dp584
g28
I538
sg29
VThroh
p585
sg31
VM
p586
sg33
V48
p587
sg35
(lp588
VStone Edge
p589
aVPayback
p590
aVBulldoze
p591
aVStorm Throw
p592
asg41
g42
sg43
VGuts
p593
sbag1
(g24
g3
Ntp594
Rp595
(dp596
g28
I539
sg29
VSawk
p597
sg31
g586
sg33
V48
p598
sg35
(lp599
VStone Edge
p600
aVKarate Chop
p601
aVGrass Knot
p602
aVRetaliate
p603
asg41
g42
sg43
VSturdy
p604
sbag1
(g24
g3
Ntp605
Rp606
(dp607
g28
I534
sg29
VConkeldurr
p608
sg31
g586
sg33
V48
p609
sg35
(lp610
VStone Edge
p611
aVHammer Arm
p612
aVRetaliate
p613
aVGrass Knot
p614
asg41
g42
sg43
VSheer Force
p615
sbag1
(g24
g3
Ntp616
Rp617
(dp618
g28
I620
sg29
VMienshao
p619
sg31
g586
sg33
V50
p620
sg35
(lp621
VU-turn
p622
aVJump Kick
p623
aVRock Slide
p624
aVRetaliate
p625
asg41
g42
sg43
VInner Focus
p626
sbasg79
I01
sg80
g81
sbag1
(g2
g3
Ntp627
Rp628
(dp629
g7
VSpr BW Marshal.png
p630
sg9
VElite Four
p631
sg11
VMarshal
p632
sg13
V8760
p633
sg15
I6
sg16
g17
sg18
g19
sg20
g21
sg22
(lp634
g1
(g24
g3
Ntp635
Rp636
(dp637
g28
I286
sg29
VBreloom
p638
sg31
g586
sg33
V71
p639
sg35
(lp640
VSpore
p641
aVSky Uppercut
p642
aVMach Punch
p643
aVGrass Knot
p644
asg41
g42
sg43
VEffect Spore
p645
sbag1
(g24
g3
Ntp646
Rp647
(dp648
g28
I538
sg29
VThroh
p649
sg31
g586
sg33
V71
p650
sg35
(lp651
VEarthquake
p652
aVSuperpower
p653
aVRetaliate
p654
aVGrass Knot
p655
asg41
g42
sg43
VGuts
p656
sbag1
(g24
g3
Ntp657
Rp658
(dp659
g28
I539
sg29
VSawk
p660
sg31
g586
sg33
V71
p661
sg35
(lp662
VClose Combat
p663
aVStone Edge
p664
aVPoison Jab
p665
aVRetaliate
p666
asg41
g42
sg43
VSturdy
p667
sbag1
(g24
g3
Ntp668
Rp669
(dp670
g28
I620
sg29
VMienshao
p671
sg31
g586
sg33
V71
p672
sg35
(lp673
VU-turn
p674
aVFake Out
p675
aVAcrobatics
p676
aVHi Jump Kick
p677
asg41
g42
sg43
VInner Focus
p678
sbag1
(g24
g3
Ntp679
Rp680
(dp681
g28
I454
sg29
VToxicroak
p682
sg31
g586
sg33
V71
p683
sg35
(lp684
VEarthquake
p685
aVToxic
p686
aVVenoshock
p687
aVLow Sweep
p688
asg41
g42
sg43
VAnticipation
p689
sbag1
(g24
g3
Ntp690
Rp691
(dp692
g28
I534
sg29
VConkeldurr
p693
sg31
g586
sg33
V73
p694
sg35
(lp695
VHammer Arm
p696
aVEarthquake
p697
aVStone Edge
p698
aVPayback
p699
asg41
g42
sg43
VSheer Force
p700
sbasg79
I01
sg80
g81
sbag1
(g2
g3
Ntp701
Rp702
(dp703
g7
VSpr B2W2 Marshal.png
p704
sg9
VElite Four
p705
sg11
VMarshal
p706
sg13
g1
(g162
g3
Ntp707
Rp708
(dp709
g166
g1
(g167
g168
(lp710
g1
(g170
g3
Ntp711
Rp712
(dp713
g174
V6400
p714
sbatp715
Rp716
(dp717
g179
(dp718
sbsbsg15
I4
sg16
g17
sg18
g19
sg20
g181
sg22
(lp719
g1
(g24
g3
Ntp720
Rp721
(dp722
g28
I538
sg29
VThroh
p723
sg31
g586
sg33
g1
(g162
g3
Ntp724
Rp725
(dp726
g166
g1
(g167
g168
(lp727
g1
(g170
g3
Ntp728
Rp729
(dp730
g174
V52
p731
sbatp732
Rp733
(dp734
g179
(dp735
sbsbsg35
(lp736
VRock Tomb
p737
aVBulldoze
p738
aVStorm Throw
p739
aVPayback
p740
asg41
g42
sg43
VGuts
p741
sbag1
(g24
g3
Ntp742
Rp743
(dp744
g28
I539
sg29
VSawk
p745
sg31
g586
sg33
g1
(g162
g3
Ntp746
Rp747
(dp748
g166
g1
(g167
g168
(lp749
g1
(g170
g3
Ntp750
Rp751
(dp752
g174
V52
p753
sbatp754
Rp755
(dp756
g179
(dp757
sbsbsg35
(lp758
VPayback
p759
aVRock Slide
p760
aVRetaliate
p761
aVBrick Break
p762
asg41
g42
sg43
VSturdy
p763
sbag1
(g24
g3
Ntp764
Rp765
(dp766
g28
I620
sg29
VMienshao
p767
sg31
g586
sg33
g1
(g162
g3
Ntp768
Rp769
(dp770
g166
g1
(g167
g168
(lp771
g1
(g170
g3
Ntp772
Rp773
(dp774
g174
V52
p775
sbatp776
Rp777
(dp778
g179
(dp779
sbsbsg35
(lp780
VHi Jump Kick
p781
aVU-turn
p782
aVBounce
p783
aVRetaliate
p784
asg41
g42
sg43
VRegenerator
p785
sbag1
(g24
g3
Ntp786
Rp787
(dp788
g28
I534
sg29
VConkeldurr
p789
sg31
g586
sg33
g1
(g162
g3
Ntp790
Rp791
(dp792
g166
g1
(g167
g168
(lp793
g1
(g170
g3
Ntp794
Rp795
(dp796
g174
V54
p797
sbatp798
Rp799
(dp800
g179
(dp801
sbsbsg35
(lp802
VStone Edge
p803
aVHammer Arm
p804
aVRetaliate
p805
aVBulk Up
p806
asg41
VSitrus Berry
p807
sg43
VSheer Force
p808
sbasg79
I01
sg80
g272
sbag1
(g2
g3
Ntp809
Rp810
(dp811
g7
VSpr B2W2 Marshal.png
p812
sg9
VElite Four
p813
sg11
VMarshal
p814
sg13
g1
(g162
g3
Ntp815
Rp816
(dp817
g166
g1
(g167
g168
(lp818
g1
(g170
g3
Ntp819
Rp820
(dp821
g174
V8280
p822
sbatp823
Rp824
(dp825
g179
(dp826
sbsbsg15
I6
sg16
g17
sg18
g19
sg20
g181
sg22
(lp827
g1
(g24
g3
Ntp828
Rp829
(dp830
g28
I538
sg29
VThroh
p831
sg31
g586
sg33
g1
(g162
g3
Ntp832
Rp833
(dp834
g166
g1
(g167
g168
(lp835
g1
(g170
g3
Ntp836
Rp837
(dp838
g174
V68
p839
sbatp840
Rp841
(dp842
g179
(dp843
sbsbsg35
(lp844
VPayback
p845
aVSuperpower
p846
aVEarthquake
p847
aVStone Edge
p848
asg41
g42
sg43
VGuts
p849
sbag1
(g24
g3
Ntp850
Rp851
(dp852
g28
I539
sg29
VSawk
p853
sg31
g586
sg33
g1
(g162
g3
Ntp854
Rp855
(dp856
g166
g1
(g167
g168
(lp857
g1
(g170
g3
Ntp858
Rp859
(dp860
g174
V68
p861
sbatp862
Rp863
(dp864
g179
(dp865
sbsbsg35
(lp866
VClose Combat
p867
aVStone Edge
p868
aVRetaliate
p869
aVPoison Jab
p870
asg41
VMuscle Band
p871
sg43
VSturdy
p872
sbag1
(g24
g3
Ntp873
Rp874
(dp875
g28
I448
sg29
VLucario
p876
sg31
g586
sg33
g1
(g162
g3
Ntp877
Rp878
(dp879
g166
g1
(g167
g168
(lp880
g1
(g170
g3
Ntp881
Rp882
(dp883
g174
V68
p884
sbatp885
Rp886
(dp887
g179
(dp888
sbsbsg35
(lp889
VDragon Pulse
p890
aVAura Sphere
p891
aVExtremeSpeed
p892
aVShadow Ball
p893
asg41
g42
sg43
VInner Focus
p894
sbag1
(g24
g3
Ntp895
Rp896
(dp897
g28
I620
sg29
VMienshao
p898
sg31
g586
sg33
g1
(g162
g3
Ntp899
Rp900
(dp901
g166
g1
(g167
g168
(lp902
g1
(g170
g3
Ntp903
Rp904
(dp905
g174
V68
p906
sbatp907
Rp908
(dp909
g179
(dp910
sbsbsg35
(lp911
VHi Jump Kick
p912
aVU-turn
p913
aVFake Out
p914
aVAcrobatics
p915
asg41
g42
sg43
VRegenerator
p916
sbag1
(g24
g3
Ntp917
Rp918
(dp919
g28
I308
sg29
VMedicham
p920
sg31
g586
sg33
g1
(g162
g3
Ntp921
Rp922
(dp923
g166
g1
(g167
g168
(lp924
g1
(g170
g3
Ntp925
Rp926
(dp927
g174
V68
p928
sbatp929
Rp930
(dp931
g179
(dp932
sbsbsg35
(lp933
VHi Jump Kick
p934
aVIce Punch
p935
aVThunderPunch
p936
aVFire Punch
p937
asg41
g42
sg43
VPure Power
p938
sbag1
(g24
g3
Ntp939
Rp940
(dp941
g28
I534
sg29
VConkeldurr
p942
sg31
g586
sg33
g1
(g162
g3
Ntp943
Rp944
(dp945
g166
g1
(g167
g168
(lp946
g1
(g170
g3
Ntp947
Rp948
(dp949
g174
V70
p950
sbatp951
Rp952
(dp953
g179
(dp954
sbsbsg35
(lp955
VHammer Arm
p956
aVBulk Up
p957
aVStone Edge
p958
aVEarthquake
p959
asg41
VSitrus Berry
p960
sg43
VSheer Force
p961
sbasg79
I01
sg80
g272
sbag1
(g2
g3
Ntp962
Rp963
(dp964
g7
VSpr B2W2 Marshal.png
p965
sg9
VElite Four
p966
sg11
VMarshal
p967
sg13
V7440
p968
sg15
I5
sg16
g17
sg18
g19
sg20
g181
sg22
(lp969
g1
(g24
g3
Ntp970
Rp971
(dp972
g28
I538
sg29
VThroh
p973
sg31
g586
sg33
V60
p974
sg35
(lp975
VStorm Throw
p976
aVBulldoze
p977
aVRock Tomb
p978
aVPayback
p979
asg41
VLeftovers
p980
sg43
VGuts
p981
sbag1
(g24
g3
Ntp982
Rp983
(dp984
g28
I539
sg29
VSawk
p985
sg31
g586
sg33
V60
p986
sg35
(lp987
VBrick Break
p988
aVRock Slide
p989
aVRetaliate
p990
aVPayback
p991
asg41
VMuscle Band
p992
sg43
VSturdy
p993
sbag1
(g24
g3
Ntp994
Rp995
(dp996
g28
I620
sg29
VMienshao
p997
sg31
g586
sg33
V60
p998
sg35
(lp999
VHi Jump Kick
p1000
aVU-turn
p1001
aVBounce
p1002
aVRetaliate
p1003
asg41
VExpert Belt
p1004
sg43
VRegenerator
p1005
sbag1
(g24
g3
Ntp1006
Rp1007
(dp1008
g28
I448
sg29
VLucario
p1009
sg31
g586
sg33
V60
p1010
sg35
(lp1011
VShadow Ball
p1012
aVAura Sphere
p1013
aVPsychic
p1014
aVCalm Mind
p1015
asg41
VWise Glasses
p1016
sg43
VInner Focus
p1017
sbag1
(g24
g3
Ntp1018
Rp1019
(dp1020
g28
I534
sg29
VConkeldurr
p1021
sg31
g586
sg33
V62
p1022
sg35
(lp1023
VHammer Arm
p1024
aVBulk Up
p1025
aVStone Edge
p1026
aVEarthquake
p1027
asg41
VFlame Orb
p1028
sg43
VGuts
p1029
sbasg79
I01
sg80
g272
sbag1
(g2
g3
Ntp1030
Rp1031
(dp1032
g7
VSpr B2W2 Marshal.png
p1033
sg9
VElite Four
p1034
sg11
VMarshal
p1035
sg13
V9480
p1036
sg15
I6
sg16
g17
sg18
g19
sg20
g181
sg22
(lp1037
g1
(g24
g3
Ntp1038
Rp1039
(dp1040
g28
I538
sg29
VThroh
p1041
sg31
g586
sg33
V77
p1042
sg35
(lp1043
VSuperpower
p1044
aVStone Edge
p1045
aVEarthquake
p1046
aVPayback
p1047
asg41
VFocus Band
p1048
sg43
VGuts
p1049
sbag1
(g24
g3
Ntp1050
Rp1051
(dp1052
g28
I539
sg29
VSawk
p1053
sg31
g586
sg33
V77
p1054
sg35
(lp1055
VClose Combat
p1056
aVStone Edge
p1057
aVRetaliate
p1058
aVPoison Jab
p1059
asg41
VMuscle Band
p1060
sg43
VSturdy
p1061
sbag1
(g24
g3
Ntp1062
Rp1063
(dp1064
g28
I448
sg29
VLucario
p1065
sg31
g586
sg33
V77
p1066
sg35
(lp1067
VAura Sphere
p1068
aVDragon Pulse
p1069
aVExtremeSpeed
p1070
aVShadow Ball
p1071
asg41
VWise Glasses
p1072
sg43
VInner Focus
p1073
sbag1
(g24
g3
Ntp1074
Rp1075
(dp1076
g28
I620
sg29
VMienshao
p1077
sg31
g586
sg33
V77
p1078
sg35
(lp1079
VHi Jump Kick
p1080
aVAcrobatics
p1081
aVU-turn
p1082
aVFake Out
p1083
asg41
VEject Button
p1084
sg43
VRegenerator
p1085
sbag1
(g24
g3
Ntp1086
Rp1087
(dp1088
g28
I68
sg29
VMachamp
p1089
sg31
g586
sg33
V77
p1090
sg35
(lp1091
VDynamicPunch
p1092
aVStone Edge
p1093
aVDual Chop
p1094
aVThunderPunch
p1095
asg41
VExpert Belt
p1096
sg43
VNo Guard
p1097
sbag1
(g24
g3
Ntp1098
Rp1099
(dp1100
g28
I534
sg29
VConkeldurr
p1101
sg31
g586
sg33
V79
p1102
sg35
(lp1103
VHammer Arm
p1104
aVBulk Up
p1105
aVStone Edge
p1106
aVEarthquake
p1107
asg41
VFlame Orb
p1108
sg43
VSheer Force
p1109
sbasg79
I01
sg80
g272
sbag1
(g2
g3
Ntp1110
Rp1111
(dp1112
g7
VSpr BW Grimsley.png
p1113
sg9
VElite Four
p1114
sg11
VGrimsley
p1115
sg13
V6000
p1116
sg15
I4
sg16
g17
sg18
g19
sg20
g21
sg22
(lp1117
g1
(g24
g3
Ntp1118
Rp1119
(dp1120
g28
I560
sg29
VScrafty
p1121
sg31
g586
sg33
V48
p1122
sg35
(lp1123
VSand-Attack
p1124
aVCrunch
p1125
aVPoison Jab
p1126
aVBrick Break
p1127
asg41
g42
sg43
VMoxie
p1128
sbag1
(g24
g3
Ntp1129
Rp1130
(dp1131
g28
I553
sg29
VKrookodile
p1132
sg31
g32
sg33
V48
p1133
sg35
(lp1134
VCrunch
p1135
aVDragon Claw
p1136
aVFoul Play
p1137
aVEarthquake
p1138
asg41
g42
sg43
VIntimidate
p1139
sbag1
(g24
g3
Ntp1140
Rp1141
(dp1142
g28
I510
sg29
VLiepard
p1143
sg31
g32
sg33
V48
p1144
sg35
(lp1145
VFake Out
p1146
aVNight Slash
p1147
aVAttract
p1148
aVAerial Ace
p1149
asg41
g42
sg43
VLimber
p1150
sbag1
(g24
g3
Ntp1151
Rp1152
(dp1153
g28
I625
sg29
VBisharp
p1154
sg31
g32
sg33
V50
p1155
sg35
(lp1156
VX-Scissor
p1157
aVNight Slash
p1158
aVMetal Claw
p1159
aVAerial Ace
p1160
asg41
g42
sg43
VDefiant
p1161
sbasg79
I01
sg80
g81
sbag1
(g2
g3
Ntp1162
Rp1163
(dp1164
g7
VSpr BW Grimsley.png
p1165
sg9
VElite Four
p1166
sg11
VGrimsley
p1167
sg13
V8760
p1168
sg15
I6
sg16
g17
sg18
g19
sg20
g21
sg22
(lp1169
g1
(g24
g3
Ntp1170
Rp1171
(dp1172
g28
I319
sg29
VSharpedo
p1173
sg31
g586
sg33
V71
p1174
sg35
(lp1175
VWaterfall
p1176
aVNight Slash
p1177
aVEarthquake
p1178
aVAqua Jet
p1179
asg41
g42
sg43
VRough Skin
p1180
sbag1
(g24
g3
Ntp1181
Rp1182
(dp1183
g28
I560
sg29
VScrafty
p1184
sg31
g32
sg33
V71
p1185
sg35
(lp1186
VCrunch
p1187
aVPoison Jab
p1188
aVHead Smash
p1189
aVBrick Break
p1190
asg41
g42
sg43
VMoxie
p1191
sbag1
(g24
g3
Ntp1192
Rp1193
(dp1194
g28
I553
sg29
VKrookodile
p1195
sg31
g32
sg33
V71
p1196
sg35
(lp1197
VOutrage
p1198
aVEarthquake
p1199
aVFoul Play
p1200
aVSmack Down
p1201
asg41
g42
sg43
VIntimidate
p1202
sbag1
(g24
g3
Ntp1203
Rp1204
(dp1205
g28
I510
sg29
VLiepard
p1206
sg31
g32
sg33
V71
p1207
sg35
(lp1208
VNight Slash
p1209
aVFake Out
p1210
aVAerial Ace
p1211
aVSucker Punch
p1212
asg41
g42
sg43
VLimber
p1213
sbag1
(g24
g3
Ntp1214
Rp1215
(dp1216
g28
I452
sg29
VDrapion
p1217
sg31
g32
sg33
V71
p1218
sg35
(lp1219
VPoison Fang
p1220
aVFire Fang
p1221
aVCrunch
p1222
aVThunder Fang
p1223
asg41
g42
sg43
VBattle Armor
p1224
sbag1
(g24
g3
Ntp1225
Rp1226
(dp1227
g28
I625
sg29
VBisharp
p1228
sg31
g32
sg33
V73
p1229
sg35
(lp1230
VX-Scissor
p1231
aVNight Slash
p1232
aVAerial Ace
p1233
aVGuillotine
p1234
asg41
g42
sg43
VDefiant
p1235
sbasg79
I01
sg80
g81
sbag1
(g2
g3
Ntp1236
Rp1237
(dp1238
g7
VSpr B2W2 Grimsley.png
p1239
sg9
VElite Four
p1240
sg11
VGrimsley
p1241
sg13
g1
(g162
g3
Ntp1242
Rp1243
(dp1244
g166
g1
(g167
g168
(lp1245
g1
(g170
g3
Ntp1246
Rp1247
(dp1248
g174
V6400
p1249
sbatp1250
Rp1251
(dp1252
g179
(dp1253
sbsbsg15
I4
sg16
g17
sg18
g19
sg20
g181
sg22
(lp1254
g1
(g24
g3
Ntp1255
Rp1256
(dp1257
g28
I510
sg29
VLiepard
p1258
sg31
g32
sg33
g1
(g162
g3
Ntp1259
Rp1260
(dp1261
g166
g1
(g167
g168
(lp1262
g1
(g170
g3
Ntp1263
Rp1264
(dp1265
g174
V52
p1266
sbatp1267
Rp1268
(dp1269
g179
(dp1270
sbsbsg35
(lp1271
VFake Out
p1272
aVNight Slash
p1273
aVAerial Ace
p1274
aVAttract
p1275
asg41
g42
sg43
VLimber
p1276
sbag1
(g24
g3
Ntp1277
Rp1278
(dp1279
g28
I560
sg29
VScrafty
p1280
sg31
g32
sg33
g1
(g162
g3
Ntp1281
Rp1282
(dp1283
g166
g1
(g167
g168
(lp1284
g1
(g170
g3
Ntp1285
Rp1286
(dp1287
g174
V52
p1288
sbatp1289
Rp1290
(dp1291
g179
(dp1292
sbsbsg35
(lp1293
VRock Tomb
p1294
aVBrick Break
p1295
aVCrunch
p1296
aVPoison Jab
p1297
asg41
g42
sg43
VMoxie
p1298
sbag1
(g24
g3
Ntp1299
Rp1300
(dp1301
g28
I553
sg29
VKrookodile
p1302
sg31
g32
sg33
g1
(g162
g3
Ntp1303
Rp1304
(dp1305
g166
g1
(g167
g168
(lp1306
g1
(g170
g3
Ntp1307
Rp1308
(dp1309
g174
V52
p1310
sbatp1311
Rp1312
(dp1313
g179
(dp1314
sbsbsg35
(lp1315
VCrunch
p1316
aVEarthquake
p1317
aVDragon Claw
p1318
aVRock Tomb
p1319
asg41
g42
sg43
VIntimidate
p1320
sbag1
(g24
g3
Ntp1321
Rp1322
(dp1323
g28
I625
sg29
VBisharp
p1324
sg31
g32
sg33
g1
(g162
g3
Ntp1325
Rp1326
(dp1327
g166
g1
(g167
g168
(lp1328
g1
(g170
g3
Ntp1329
Rp1330
(dp1331
g174
V54
p1332
sbatp1333
Rp1334
(dp1335
g179
(dp1336
sbsbsg35
(lp1337
VAerial Ace
p1338
aVNight Slash
p1339
aVX-Scissor
p1340
aVMetal Claw
p1341
asg41
VSitrus Berry
p1342
sg43
VDefiant
p1343
sbasg79
I01
sg80
g272
sbag1
(g2
g3
Ntp1344
Rp1345
(dp1346
g7
VSpr B2W2 Grimsley.png
p1347
sg9
VElite Four
p1348
sg11
VGrimsley
p1349
sg13
g1
(g162
g3
Ntp1350
Rp1351
(dp1352
g166
g1
(g167
g168
(lp1353
g1
(g170
g3
Ntp1354
Rp1355
(dp1356
g174
V8280
p1357
sbatp1358
Rp1359
(dp1360
g179
(dp1361
sbsbsg15
I6
sg16
g17
sg18
g19
sg20
g181
sg22
(lp1362
g1
(g24
g3
Ntp1363
Rp1364
(dp1365
g28
I510
sg29
VLiepard
p1366
sg31
g32
sg33
g1
(g162
g3
Ntp1367
Rp1368
(dp1369
g166
g1
(g167
g168
(lp1370
g1
(g170
g3
Ntp1371
Rp1372
(dp1373
g174
V68
p1374
sbatp1375
Rp1376
(dp1377
g179
(dp1378
sbsbsg35
(lp1379
VFake Out
p1380
aVAttract
p1381
aVAerial Ace
p1382
aVSucker Punch
p1383
asg41
VNormal Gem
p1384
sg43
VUnburden
p1385
sbag1
(g24
g3
Ntp1386
Rp1387
(dp1388
g28
I430
sg29
VHonchkrow
p1389
sg31
g32
sg33
g1
(g162
g3
Ntp1390
Rp1391
(dp1392
g166
g1
(g167
g168
(lp1393
g1
(g170
g3
Ntp1394
Rp1395
(dp1396
g174
V68
p1397
sbatp1398
Rp1399
(dp1400
g179
(dp1401
sbsbsg35
(lp1402
VNight Slash
p1403
aVAerial Ace
p1404
aVHaze
p1405
aVPsychic
p1406
asg41
g42
sg43
VSuper Luck
p1407
sbag1
(g24
g3
Ntp1408
Rp1409
(dp1410
g28
I560
sg29
VScrafty
p1411
sg31
g32
sg33
g1
(g162
g3
Ntp1412
Rp1413
(dp1414
g166
g1
(g167
g168
(lp1415
g1
(g170
g3
Ntp1416
Rp1417
(dp1418
g174
V68
p1419
sbatp1420
Rp1421
(dp1422
g179
(dp1423
sbsbsg35
(lp1424
VHi Jump Kick
p1425
aVHead Smash
p1426
aVCrunch
p1427
aVPoison Jab
p1428
asg41
g42
sg43
VMoxie
p1429
sbag1
(g24
g3
Ntp1430
Rp1431
(dp1432
g28
I553
sg29
VKrookodile
p1433
sg31
g32
sg33
g1
(g162
g3
Ntp1434
Rp1435
(dp1436
g166
g1
(g167
g168
(lp1437
g1
(g170
g3
Ntp1438
Rp1439
(dp1440
g174
V68
p1441
sbatp1442
Rp1443
(dp1444
g179
(dp1445
sbsbsg35
(lp1446
VEarthquake
p1447
aVOutrage
p1448
aVCrunch
p1449
aVRock Slide
p1450
asg41
g42
sg43
VIntimidate
p1451
sbag1
(g24
g3
Ntp1452
Rp1453
(dp1454
g28
I229
sg29
VHoundoom
p1455
sg31
g586
sg33
g1
(g162
g3
Ntp1456
Rp1457
(dp1458
g166
g1
(g167
g168
(lp1459
g1
(g170
g3
Ntp1460
Rp1461
(dp1462
g174
V68
p1463
sbatp1464
Rp1465
(dp1466
g179
(dp1467
sbsbsg35
(lp1468
VThunder Fang
p1469
aVFire Blast
p1470
aVSludge Bomb
p1471
aVCrunch
p1472
asg41
g42
sg43
VFlash Fire
p1473
sbag1
(g24
g3
Ntp1474
Rp1475
(dp1476
g28
I625
sg29
VBisharp
p1477
sg31
g32
sg33
g1
(g162
g3
Ntp1478
Rp1479
(dp1480
g166
g1
(g167
g168
(lp1481
g1
(g170
g3
Ntp1482
Rp1483
(dp1484
g174
V70
p1485
sbatp1486
Rp1487
(dp1488
g179
(dp1489
sbsbsg35
(lp1490
VGuillotine
p1491
aVNight Slash
p1492
aVX-Scissor
p1493
aVAerial Ace
p1494
asg41
VSitrus Berry
p1495
sg43
VDefiant
p1496
sbasg79
I01
sg80
g272
sbag1
(g2
g3
Ntp1497
Rp1498
(dp1499
g7
VSpr B2W2 Grimsley.png
p1500
sg9
VElite Four
p1501
sg11
VGrimsley
p1502
sg13
V7440
p1503
sg15
I5
sg16
g17
sg18
g19
sg20
g181
sg22
(lp1504
g1
(g24
g3
Ntp1505
Rp1506
(dp1507
g28
I510
sg29
VLiepard
p1508
sg31
g32
sg33
V60
p1509
sg35
(lp1510
VFake Out
p1511
aVNight Slash
p1512
aVAerial Ace
p1513
aVAttract
p1514
asg41
VNormal Gem
p1515
sg43
VUnburden
p1516
sbag1
(g24
g3
Ntp1517
Rp1518
(dp1519
g28
I560
sg29
VScrafty
p1520
sg31
g32
sg33
V60
p1521
sg35
(lp1522
VRock Tomb
p1523
aVCrunch
p1524
aVBrick Break
p1525
aVPoison Jab
p1526
asg41
VLeftovers
p1527
sg43
VMoxie
p1528
sbag1
(g24
g3
Ntp1529
Rp1530
(dp1531
g28
I553
sg29
VKrookodile
p1532
sg31
g32
sg33
V60
p1533
sg35
(lp1534
VCrunch
p1535
aVDragon Claw
p1536
aVRock Tomb
p1537
aVEarthquake
p1538
asg41
VExpert Belt
p1539
sg43
VIntimidate
p1540
sbag1
(g24
g3
Ntp1541
Rp1542
(dp1543
g28
I359
sg29
VAbsol
p1544
sg31
g32
sg33
V60
p1545
sg35
(lp1546
VSwords Dance
p1547
aVNight Slash
p1548
aVPsycho Cut
p1549
aVX-Scissor
p1550
asg41
VMuscle Band
p1551
sg43
VSuper Luck
p1552
sbag1
(g24
g3
Ntp1553
Rp1554
(dp1555
g28
I625
sg29
VBisharp
p1556
sg31
g32
sg33
V62
p1557
sg35
(lp1558
VMetal Claw
p1559
aVAerial Ace
p1560
aVX-Scissor
p1561
aVNight Slash
p1562
asg41
VQuick Claw
p1563
sg43
VDefiant
p1564
sbasg79
I01
sg80
g272
sbag1
(g2
g3
Ntp1565
Rp1566
(dp1567
g7
VSpr B2W2 Grimsley.png
p1568
sg9
VElite Four
p1569
sg11
VGrimsley
p1570
sg13
V9480
p1571
sg15
I6
sg16
g17
sg18
g19
sg20
g181
sg22
(lp1572
g1
(g24
g3
Ntp1573
Rp1574
(dp1575
g28
I430
sg29
VHonchkrow
p1576
sg31
g586
sg33
V77
p1577
sg35
(lp1578
VNight Slash
p1579
aVPsychic
p1580
aVAerial Ace
p1581
aVHaze
p1582
asg41
VScope Lens
p1583
sg43
VSuper Luck
p1584
sbag1
(g24
g3
Ntp1585
Rp1586
(dp1587
g28
I560
sg29
VScrafty
p1588
sg31
g586
sg33
V77
p1589
sg35
(lp1590
VHi Jump Kick
p1591
aVHead Smash
p1592
aVCrunch
p1593
aVPoison Jab
p1594
asg41
VLeftovers
p1595
sg43
VMoxie
p1596
sbag1
(g24
g3
Ntp1597
Rp1598
(dp1599
g28
I553
sg29
VKrookodile
p1600
sg31
g586
sg33
V77
p1601
sg35
(lp1602
VRock Slide
p1603
aVEarthquake
p1604
aVCrunch
p1605
aVOutrage
p1606
asg41
VMuscle Band
p1607
sg43
VIntimidate
p1608
sbag1
(g24
g3
Ntp1609
Rp1610
(dp1611
g28
I229
sg29
VHoundoom
p1612
sg31
g586
sg33
V77
p1613
sg35
(lp1614
VSludge Bomb
p1615
aVThunder Fang
p1616
aVFire Blast
p1617
aVCrunch
p1618
asg41
VWise Glasses
p1619
sg43
VFlash Fire
p1620
sbag1
(g24
g3
Ntp1621
Rp1622
(dp1623
g28
I248
sg29
VTyranitar
p1624
sg31
g586
sg33
V77
p1625
sg35
(lp1626
VDark Pulse
p1627
aVStone Edge
p1628
aVFire Blast
p1629
aVEarthquake
p1630
asg41
VFocus Band
p1631
sg43
VSand Stream
p1632
sbag1
(g24
g3
Ntp1633
Rp1634
(dp1635
g28
I625
sg29
VBisharp
p1636
sg31
g586
sg33
V79
p1637
sg35
(lp1638
VGuillotine
p1639
aVNight Slash
p1640
aVX-Scissor
p1641
aVAerial Ace
p1642
asg41
VQuick Claw
p1643
sg43
VDefiant
p1644
sbasg79
I01
sg80
g272
sbag1
(g2
g3
Ntp1645
Rp1646
(dp1647
g7
VSpr BW Caitlin.png
p1648
sg9
VElite Four
p1649
sg11
VCaitlin
p1650
sg13
V6000
p1651
sg15
I4
sg16
g17
sg18
g19
sg20
g21
sg22
(lp1652
g1
(g24
g3
Ntp1653
Rp1654
(dp1655
g28
I579
sg29
VReuniclus
p1656
sg31
g32
sg33
V48
p1657
sg35
(lp1658
VEnergy Ball
p1659
aVThunder
p1660
aVFocus Blast
p1661
aVPsychic
p1662
asg41
g42
sg43
VMagic Guard
p1663
sbag1
(g24
g3
Ntp1664
Rp1665
(dp1666
g28
I561
sg29
VSigilyph
p1667
sg31
g32
sg33
V48
p1668
sg35
(lp1669
VAir Slash
p1670
aVShadow Ball
p1671
aVIce Beam
p1672
aVPsychic
p1673
asg41
g42
sg43
VWonder Skin
p1674
sbag1
(g24
g3
Ntp1675
Rp1676
(dp1677
g28
I518
sg29
VMusharna
p1678
sg31
g32
sg33
V48
p1679
sg35
(lp1680
VShadow Ball
p1681
aVPsychic
p1682
aVCharge Beam
p1683
aVReflect
p1684
asg41
g42
sg43
VSynchronize
p1685
sbag1
(g24
g3
Ntp1686
Rp1687
(dp1688
g28
I576
sg29
VGothitelle
p1689
sg31
g32
sg33
V50
p1690
sg35
(lp1691
VCalm Mind
p1692
aVThunderbolt
p1693
aVPsychic
p1694
aVShadow Ball
p1695
asg41
g42
sg43
VFrisk
p1696
sbasg79
I01
sg80
g81
sbag1
(g2
g3
Ntp1697
Rp1698
(dp1699
g7
VSpr BW Caitlin.png
p1700
sg9
VElite Four
p1701
sg11
VCaitlin
p1702
sg13
V8760
p1703
sg15
I6
sg16
g17
sg18
g19
sg20
g21
sg22
(lp1704
g1
(g24
g3
Ntp1705
Rp1706
(dp1707
g28
I518
sg29
VMusharna
p1708
sg31
g32
sg33
V71
p1709
sg35
(lp1710
VHypnosis
p1711
aVDream Eater
p1712
aVPsychic
p1713
aVReflect
p1714
asg41
g42
sg43
VSynchronize
p1715
sbag1
(g24
g3
Ntp1716
Rp1717
(dp1718
g28
I561
sg29
VSigilyph
p1719
sg31
g32
sg33
V71
p1720
sg35
(lp1721
VIce Beam
p1722
aVPsychic
p1723
aVAir Slash
p1724
aVFlash Cannon
p1725
asg41
g42
sg43
VWonder Skin
p1726
sbag1
(g24
g3
Ntp1727
Rp1728
(dp1729
g28
I579
sg29
VReuniclus
p1730
sg31
g32
sg33
V71
p1731
sg35
(lp1732
VFocus Blast
p1733
aVPsychic
p1734
aVEnergy Ball
p1735
aVThunder
p1736
asg41
g42
sg43
VMagic Guard
p1737
sbag1
(g24
g3
Ntp1738
Rp1739
(dp1740
g28
I576
sg29
VGothitelle
p1741
sg31
g32
sg33
V71
p1742
sg35
(lp1743
VPayback
p1744
aVPsychic
p1745
aVFlatter
p1746
aVThunderbolt
p1747
asg41
g42
sg43
VFrisk
p1748
sbag1
(g24
g3
Ntp1749
Rp1750
(dp1751
g28
I437
sg29
VBronzong
p1752
sg31
g60
sg33
V71
p1753
sg35
(lp1754
VFlash Cannon
p1755
aVPsychic
p1756
aVPayback
p1757
aVCharge Beam
p1758
asg41
g42
sg43
VLevitate
p1759
sbag1
(g24
g3
Ntp1760
Rp1761
(dp1762
g28
I376
sg29
VMetagross
p1763
sg31
g60
sg33
V73
p1764
sg35
(lp1765
VEarthquake
p1766
aVGiga Impact
p1767
aVBullet Punch
p1768
aVZen Headbutt
p1769
asg41
g42
sg43
VClear Body
p1770
sbasg79
I01
sg80
g81
sbag1
(g2
g3
Ntp1771
Rp1772
(dp1773
g7
VSpr B2W2 Caitlin.png
p1774
sg9
VElite Four
p1775
sg11
VCaitlin
p1776
sg13
g1
(g162
g3
Ntp1777
Rp1778
(dp1779
g166
g1
(g167
g168
(lp1780
g1
(g170
g3
Ntp1781
Rp1782
(dp1783
g174
V6400
p1784
sbatp1785
Rp1786
(dp1787
g179
(dp1788
sbsbsg15
I4
sg16
g17
sg18
g19
sg20
g181
sg22
(lp1789
g1
(g24
g3
Ntp1790
Rp1791
(dp1792
g28
I518
sg29
VMusharna
p1793
sg31
g32
sg33
g1
(g162
g3
Ntp1794
Rp1795
(dp1796
g166
g1
(g167
g168
(lp1797
g1
(g170
g3
Ntp1798
Rp1799
(dp1800
g174
V52
p1801
sbatp1802
Rp1803
(dp1804
g179
(dp1805
sbsbsg35
(lp1806
VReflect
p1807
aVYawn
p1808
aVDream Eater
p1809
aVCharge Beam
p1810
asg41
g42
sg43
VSynchronize 
p1811
sbag1
(g24
g3
Ntp1812
Rp1813
(dp1814
g28
I561
sg29
VSigilyph
p1815
sg31
g32
sg33
g1
(g162
g3
Ntp1816
Rp1817
(dp1818
g166
g1
(g167
g168
(lp1819
g1
(g170
g3
Ntp1820
Rp1821
(dp1822
g174
V52
p1823
sbatp1824
Rp1825
(dp1826
g179
(dp1827
sbsbsg35
(lp1828
VPsychic
p1829
aVShadow Ball
p1830
aVIce Beam
p1831
aVAir Slash
p1832
asg41
g42
sg43
VWonder Skin
p1833
sbag1
(g24
g3
Ntp1834
Rp1835
(dp1836
g28
I579
sg29
VReuniclus
p1837
sg31
g32
sg33
g1
(g162
g3
Ntp1838
Rp1839
(dp1840
g166
g1
(g167
g168
(lp1841
g1
(g170
g3
Ntp1842
Rp1843
(dp1844
g174
V52
p1845
sbatp1846
Rp1847
(dp1848
g179
(dp1849
sbsbsg35
(lp1850
VFocus Blast
p1851
aVPsychic
p1852
aVEnergy Ball
p1853
aVRecover
p1854
asg41
g42
sg43
VMagic Guard
p1855
sbag1
(g24
g3
Ntp1856
Rp1857
(dp1858
g28
I576
sg29
VGothitelle
p1859
sg31
g32
sg33
g1
(g162
g3
Ntp1860
Rp1861
(dp1862
g166
g1
(g167
g168
(lp1863
g1
(g170
g3
Ntp1864
Rp1865
(dp1866
g174
V54
p1867
sbatp1868
Rp1869
(dp1870
g179
(dp1871
sbsbsg35
(lp1872
VCalm Mind
p1873
aVPsychic
p1874
aVShadow Ball
p1875
aVThunderbolt
p1876
asg41
VSitrus Berry
p1877
sg43
VFrisk
p1878
sbasg79
I01
sg80
g272
sbag1
(g2
g3
Ntp1879
Rp1880
(dp1881
g7
VSpr B2W2 Caitlin.png
p1882
sg9
VElite Four
p1883
sg11
VCaitlin
p1884
sg13
g1
(g162
g3
Ntp1885
Rp1886
(dp1887
g166
g1
(g167
g168
(lp1888
g1
(g170
g3
Ntp1889
Rp1890
(dp1891
g174
V8280
p1892
sbatp1893
Rp1894
(dp1895
g179
(dp1896
sbsbsg15
I6
sg16
g17
sg18
g19
sg20
g181
sg22
(lp1897
g1
(g24
g3
Ntp1898
Rp1899
(dp1900
g28
I518
sg29
VMusharna
p1901
sg31
g32
sg33
g1
(g162
g3
Ntp1902
Rp1903
(dp1904
g166
g1
(g167
g168
(lp1905
g1
(g170
g3
Ntp1906
Rp1907
(dp1908
g174
V68
p1909
sbatp1910
Rp1911
(dp1912
g179
(dp1913
sbsbsg35
(lp1914
VYawn
p1915
aVDream Eater
p1916
aVCharge Beam
p1917
aVReflect
p1918
asg41
g42
sg43
VSynchronize
p1919
sbag1
(g24
g3
Ntp1920
Rp1921
(dp1922
g28
I561
sg29
VSigilyph
p1923
sg31
g32
sg33
g1
(g162
g3
Ntp1924
Rp1925
(dp1926
g166
g1
(g167
g168
(lp1927
g1
(g170
g3
Ntp1928
Rp1929
(dp1930
g174
V68
p1931
sbatp1932
Rp1933
(dp1934
g179
(dp1935
sbsbsg35
(lp1936
VAir Slash
p1937
aVPsychic
p1938
aVFlash Cannon
p1939
aVIce Beam
p1940
asg41
g42
sg43
VWonder Skin
p1941
sbag1
(g24
g3
Ntp1942
Rp1943
(dp1944
g28
I576
sg29
VGothitelle
p1945
sg31
g32
sg33
g1
(g162
g3
Ntp1946
Rp1947
(dp1948
g166
g1
(g167
g168
(lp1949
g1
(g170
g3
Ntp1950
Rp1951
(dp1952
g174
V68
p1953
sbatp1954
Rp1955
(dp1956
g179
(dp1957
sbsbsg35
(lp1958
VPsychic
p1959
aVShadow Ball
p1960
aVFlatter
p1961
aVThunderbolt
p1962
asg41
g42
sg43
VFrisk
p1963
sbag1
(g24
g3
Ntp1964
Rp1965
(dp1966
g28
I475
sg29
VGallade
p1967
sg31
g586
sg33
g1
(g162
g3
Ntp1968
Rp1969
(dp1970
g166
g1
(g167
g168
(lp1971
g1
(g170
g3
Ntp1972
Rp1973
(dp1974
g174
V68
p1975
sbatp1976
Rp1977
(dp1978
g179
(dp1979
sbsbsg35
(lp1980
VClose Combat
p1981
aVPsycho Cut
p1982
aVLeaf Blade
p1983
aVNight Slash
p1984
asg41
g42
sg43
VSteadfast
p1985
sbag1
(g24
g3
Ntp1986
Rp1987
(dp1988
g28
I579
sg29
VReuniclus
p1989
sg31
g32
sg33
g1
(g162
g3
Ntp1990
Rp1991
(dp1992
g166
g1
(g167
g168
(lp1993
g1
(g170
g3
Ntp1994
Rp1995
(dp1996
g174
V68
p1997
sbatp1998
Rp1999
(dp2000
g179
(dp2001
sbsbsg35
(lp2002
VPsychic
p2003
aVThunder
p2004
aVRecover
p2005
aVFocus Blast
p2006
asg41
VLeftovers
p2007
sg43
VMagic Guard
p2008
sbag1
(g24
g3
Ntp2009
Rp2010
(dp2011
g28
I376
sg29
VMetagross
p2012
sg31
g60
sg33
g1
(g162
g3
Ntp2013
Rp2014
(dp2015
g166
g1
(g167
g168
(lp2016
g1
(g170
g3
Ntp2017
Rp2018
(dp2019
g174
V70
p2020
sbatp2021
Rp2022
(dp2023
g179
(dp2024
sbsbsg35
(lp2025
VHammer Arm
p2026
aVBullet Punch
p2027
aVZen Headbutt
p2028
aVEarthquake
p2029
asg41
VSitrus Berry
p2030
sg43
VClear Body
p2031
sbasg79
I01
sg80
g272
sbag1
(g2
g3
Ntp2032
Rp2033
(dp2034
g7
VSpr B2W2 Caitlin.png
p2035
sg9
VElite Four
p2036
sg11
VCaitlin
p2037
sg13
V7440
p2038
sg15
I5
sg16
g17
sg18
g19
sg20
g181
sg22
(lp2039
g1
(g24
g3
Ntp2040
Rp2041
(dp2042
g28
I518
sg29
VMusharna
p2043
sg31
g32
sg33
V60
p2044
sg35
(lp2045
VReflect
p2046
aVHypnosis
p2047
aVDream Eater
p2048
aVCharge Beam
p2049
asg41
VZoom Lens
p2050
sg43
VSynchronize
p2051
sbag1
(g24
g3
Ntp2052
Rp2053
(dp2054
g28
I561
sg29
VSigilyph
p2055
sg31
g32
sg33
V60
p2056
sg35
(lp2057
VPsychic
p2058
aVShadow Ball
p2059
aVIce Beam
p2060
aVAir Slash
p2061
asg41
VExpert Belt
p2062
sg43
VWonder Skin
p2063
sbag1
(g24
g3
Ntp2064
Rp2065
(dp2066
g28
I579
sg29
VReuniclus
p2067
sg31
g32
sg33
V60
p2068
sg35
(lp2069
VPsychic
p2070
aVEnergy Ball
p2071
aVFocus Blast
p2072
aVRecover
p2073
asg41
VLeftovers
p2074
sg43
VMagic Guard
p2075
sbag1
(g24
g3
Ntp2076
Rp2077
(dp2078
g28
I576
sg29
VGothitelle
p2079
sg31
g32
sg33
V60
p2080
sg35
(lp2081
VCalm Mind
p2082
aVPsychic
p2083
aVShadow Ball
p2084
aVThunderbolt
p2085
asg41
VWise Glasses
p2086
sg43
VFrisk
p2087
sbag1
(g24
g3
Ntp2088
Rp2089
(dp2090
g28
I376
sg29
VMetagross
p2091
sg31
g60
sg33
V62
p2092
sg35
(lp2093
VZen Headbutt
p2094
aVBullet Punch
p2095
aVHammer Arm
p2096
aVShadow Ball
p2097
asg41
VLife Orb
p2098
sg43
VClear Body
p2099
sbasg79
I01
sg80
g272
sbag1
(g2
g3
Ntp2100
Rp2101
(dp2102
g7
VSpr B2W2 Caitlin.png
p2103
sg9
VElite Four
p2104
sg11
VCaitlin
p2105
sg13
V9480
p2106
sg15
I6
sg16
g17
sg18
g19
sg20
g181
sg22
(lp2107
g1
(g24
g3
Ntp2108
Rp2109
(dp2110
g28
I518
sg29
VMusharna
p2111
sg31
g32
sg33
V77
p2112
sg35
(lp2113
VReflect
p2114
aVCharge Beam
p2115
aVDream Eater
p2116
aVHypnosis
p2117
asg41
VZoom Lens
p2118
sg43
VSynchronize
p2119
sbag1
(g24
g3
Ntp2120
Rp2121
(dp2122
g28
I65
sg29
VAlakazam
p2123
sg31
g586
sg33
V77
p2124
sg35
(lp2125
VShadow Ball
p2126
aVFocus Blast
p2127
aVPsychic
p2128
aVCharge Beam
p2129
asg41
VExpert Belt
p2130
sg43
VSynchronize
p2131
sbag1
(g24
g3
Ntp2132
Rp2133
(dp2134
g28
I576
sg29
VGothitelle
p2135
sg31
g32
sg33
V77
p2136
sg35
(lp2137
VPsychic
p2138
aVFlatter
p2139
aVShadow Ball
p2140
aVThunderbolt
p2141
asg41
VWise Glasses
p2142
sg43
VFrisk
p2143
sbag1
(g24
g3
Ntp2144
Rp2145
(dp2146
g28
I475
sg29
VGallade
p2147
sg31
g586
sg33
V77
p2148
sg35
(lp2149
VClose Combat
p2150
aVNight Slash
p2151
aVLeaf Blade
p2152
aVPsycho Cut
p2153
asg41
VMuscle Band
p2154
sg43
VSteadfast
p2155
sbag1
(g24
g3
Ntp2156
Rp2157
(dp2158
g28
I579
sg29
VReuniclus
p2159
sg31
g32
sg33
V77
p2160
sg35
(lp2161
VPsychic
p2162
aVThunder
p2163
aVRecover
p2164
aVFocus Blast
p2165
asg41
VLeftovers
p2166
sg43
VMagic Guard
p2167
sbag1
(g24
g3
Ntp2168
Rp2169
(dp2170
g28
I376
sg29
VMetagross
p2171
sg31
g60
sg33
V79
p2172
sg35
(lp2173
VZen Headbutt
p2174
aVBullet Punch
p2175
aVEarthquake
p2176
aVHammer Arm
p2177
asg41
VLife Orb
p2178
sg43
VClear Body
p2179
sbasg79
I01
sg80
g272
sbag1
(g2
g3
Ntp2180
Rp2181
(dp2182
g7
VSpr BW Alder.png
p2183
sg9
VChampion
p2184
sg11
VAlder
p2185
sg13
V15400
p2186
sg15
I6
sg16
g17
sg18
g19
sg20
g21
sg22
(lp2187
g1
(g24
g3
Ntp2188
Rp2189
(dp2190
g28
I617
sg29
VAccelgor
p2191
sg31
g586
sg33
V75
p2192
sg35
(lp2193
VBug Buzz
p2194
aVFocus Blast
p2195
aVMe First
p2196
aVEnergy Ball
p2197
asg41
g42
sg43
VHydration
p2198
sbag1
(g24
g3
Ntp2199
Rp2200
(dp2201
g28
I626
sg29
VBouffalant
p2202
sg31
g586
sg33
V75
p2203
sg35
(lp2204
VHead Charge
p2205
aVMegahorn
p2206
aVStone Edge
p2207
aVEarthquake
p2208
asg41
g42
sg43
VSap Sipper
p2209
sbag1
(g24
g3
Ntp2210
Rp2211
(dp2212
g28
I621
sg29
VDruddigon
p2213
sg31
g586
sg33
V75
p2214
sg35
(lp2215
VNight Slash
p2216
aVOutrage
p2217
aVSuperpower
p2218
aVPayback
p2219
asg41
g42
sg43
VRough Skin
p2220
sbag1
(g24
g3
Ntp2221
Rp2222
(dp2223
g28
I584
sg29
VVanilluxe
p2224
sg31
g586
sg33
V75
p2225
sg35
(lp2226
VBlizzard
p2227
aVLight Screen
p2228
aVFlash Cannon
p2229
aVAcid Armor
p2230
asg41
g42
sg43
VIce Body
p2231
sbag1
(g24
g3
Ntp2232
Rp2233
(dp2234
g28
I589
sg29
VEscavalier
p2235
sg31
g586
sg33
V75
p2236
sg35
(lp2237
VX-Scissor
p2238
aVGiga Impact
p2239
aVIron Head
p2240
aVAerial Ace
p2241
asg41
g42
sg43
VSwarm
p2242
sbag1
(g24
g3
Ntp2243
Rp2244
(dp2245
g28
I637
sg29
VVolcarona
p2246
sg31
g586
sg33
V77
p2247
sg35
(lp2248
VOverheat
p2249
aVBug Buzz
p2250
aVQuiver Dance
p2251
aVHyper Beam
p2252
asg41
g42
sg43
VFlame Body
p2253
sbasg79
I01
sg80
g81
sbag1
(g2
g3
Ntp2254
Rp2255
(dp2256
g7
VSpr B2W2 Iris.png
p2257
sg9
VChampion
p2258
sg11
VIris
p2259
sg13
g1
(g162
g3
Ntp2260
Rp2261
(dp2262
g166
g1
(g167
g168
(lp2263
g1
(g170
g3
Ntp2264
Rp2265
(dp2266
g174
V11000
p2267
sbatp2268
Rp2269
(dp2270
g179
(dp2271
sbsbsg15
I6
sg16
g17
sg18
g19
sg20
g181
sg22
(lp2272
g1
(g24
g3
Ntp2273
Rp2274
(dp2275
g28
I635
sg29
VHydreigon
p2276
sg31
g32
sg33
g1
(g162
g3
Ntp2277
Rp2278
(dp2279
g166
g1
(g167
g168
(lp2280
g1
(g170
g3
Ntp2281
Rp2282
(dp2283
g174
V53
p2284
sbatp2285
Rp2286
(dp2287
g179
(dp2288
sbsbsg35
(lp2289
VDragon Pulse
p2290
aVSurf
p2291
aVFlamethrower
p2292
aVCharge Beam
p2293
asg41
g42
sg43
VLevitate
p2294
sbag1
(g24
g3
Ntp2295
Rp2296
(dp2297
g28
I621
sg29
VDruddigon
p2298
sg31
g32
sg33
g1
(g162
g3
Ntp2299
Rp2300
(dp2301
g166
g1
(g167
g168
(lp2302
g1
(g170
g3
Ntp2303
Rp2304
(dp2305
g174
V53
p2306
sbatp2307
Rp2308
(dp2309
g179
(dp2310
sbsbsg35
(lp2311
VDragon Tail
p2312
aVRock Slide
p2313
aVFlamethrower
p2314
aVFocus Blast
p2315
asg41
VLife Orb
p2316
sg43
VSheer Force
p2317
sbag1
(g24
g3
Ntp2318
Rp2319
(dp2320
g28
I306
sg29
VAggron
p2321
sg31
g32
sg33
g1
(g162
g3
Ntp2322
Rp2323
(dp2324
g166
g1
(g167
g168
(lp2325
g1
(g170
g3
Ntp2326
Rp2327
(dp2328
g174
V53
p2329
sbatp2330
Rp2331
(dp2332
g179
(dp2333
sbsbsg35
(lp2334
VDouble-Edge
p2335
aVRock Slide
p2336
aVEarthquake
p2337
aVAutotomize
p2338
asg41
g42
sg43
VRock Head
p2339
sbag1
(g24
g3
Ntp2340
Rp2341
(dp2342
g28
I567
sg29
VArcheops
p2343
sg31
g586
sg33
g1
(g162
g3
Ntp2344
Rp2345
(dp2346
g166
g1
(g167
g168
(lp2347
g1
(g170
g3
Ntp2348
Rp2349
(dp2350
g174
V53
p2351
sbatp2352
Rp2353
(dp2354
g179
(dp2355
sbsbsg35
(lp2356
VAcrobatics
p2357
aVRock Slide
p2358
aVDragon Claw
p2359
aVEndeavor
p2360
asg41
g42
sg43
VDefeatist
p2361
sbag1
(g24
g3
Ntp2362
Rp2363
(dp2364
g28
I131
sg29
VLapras
p2365
sg31
g32
sg33
g1
(g162
g3
Ntp2366
Rp2367
(dp2368
g166
g1
(g167
g168
(lp2369
g1
(g170
g3
Ntp2370
Rp2371
(dp2372
g174
V53
p2373
sbatp2374
Rp2375
(dp2376
g179
(dp2377
sbsbsg35
(lp2378
VSurf
p2379
aVIce Beam
p2380
aVThunderbolt
p2381
aVSing
p2382
asg41
g42
sg43
VWater Absorb
p2383
sbag1
(g24
g3
Ntp2384
Rp2385
(dp2386
g28
I612
sg29
VHaxorus
p2387
sg31
g32
sg33
g1
(g162
g3
Ntp2388
Rp2389
(dp2390
g166
g1
(g167
g168
(lp2391
g1
(g170
g3
Ntp2392
Rp2393
(dp2394
g174
V55
p2395
sbatp2396
Rp2397
(dp2398
g179
(dp2399
sbsbsg35
(lp2400
VDual Chop
p2401
aVDragon Dance
p2402
aVEarthquake
p2403
aVX-Scissor
p2404
asg41
VFocus Sash
p2405
sg43
VMold Breaker
p2406
sbasg79
I01
sg80
g272
sbag1
(g2
g3
Ntp2407
Rp2408
(dp2409
g7
VSpr B2W2 Iris.png
p2410
sg9
VChampion
p2411
sg11
VIris
p2412
sg13
g1
(g162
g3
Ntp2413
Rp2414
(dp2415
g166
g1
(g167
g168
(lp2416
g1
(g170
g3
Ntp2417
Rp2418
(dp2419
g174
V14600
p2420
sbatp2421
Rp2422
(dp2423
g179
(dp2424
sbsbsg15
I6
sg16
g17
sg18
g19
sg20
g181
sg22
(lp2425
g1
(g24
g3
Ntp2426
Rp2427
(dp2428
g28
I635
sg29
VHydreigon
p2429
sg31
g32
sg33
g1
(g162
g3
Ntp2430
Rp2431
(dp2432
g166
g1
(g167
g168
(lp2433
g1
(g170
g3
Ntp2434
Rp2435
(dp2436
g174
V71
p2437
sbatp2438
Rp2439
(dp2440
g179
(dp2441
sbsbsg35
(lp2442
VDragon Pulse
p2443
aVSurf
p2444
aVFire Blast
p2445
aVFocus Blast
p2446
asg41
g42
sg43
VLevitate
p2447
sbag1
(g24
g3
Ntp2448
Rp2449
(dp2450
g28
I621
sg29
VDruddigon
p2451
sg31
g32
sg33
g1
(g162
g3
Ntp2452
Rp2453
(dp2454
g166
g1
(g167
g168
(lp2455
g1
(g170
g3
Ntp2456
Rp2457
(dp2458
g174
V71
p2459
sbatp2460
Rp2461
(dp2462
g179
(dp2463
sbsbsg35
(lp2464
VOutrage
p2465
aVFire Punch
p2466
aVThunderPunch
p2467
aVFocus Blast
p2468
asg41
VLife Orb
p2469
sg43
VSheer Force
p2470
sbag1
(g24
g3
Ntp2471
Rp2472
(dp2473
g28
I306
sg29
VAggron
p2474
sg31
g32
sg33
g1
(g162
g3
Ntp2475
Rp2476
(dp2477
g166
g1
(g167
g168
(lp2478
g1
(g170
g3
Ntp2479
Rp2480
(dp2481
g174
V71
p2482
sbatp2483
Rp2484
(dp2485
g179
(dp2486
sbsbsg35
(lp2487
VHead Smash
p2488
aVDouble-Edge
p2489
aVEarthquake
p2490
aVAutotomize
p2491
asg41
g42
sg43
VRock Head
p2492
sbag1
(g24
g3
Ntp2493
Rp2494
(dp2495
g28
I567
sg29
VArcheops
p2496
sg31
g586
sg33
g1
(g162
g3
Ntp2497
Rp2498
(dp2499
g166
g1
(g167
g168
(lp2500
g1
(g170
g3
Ntp2501
Rp2502
(dp2503
g174
V71
p2504
sbatp2505
Rp2506
(dp2507
g179
(dp2508
sbsbsg35
(lp2509
VAcrobatics
p2510
aVStone Edge
p2511
aVDragon Claw
p2512
aVEndeavor
p2513
asg41
g42
sg43
VDefeatist
p2514
sbag1
(g24
g3
Ntp2515
Rp2516
(dp2517
g28
I131
sg29
VLapras
p2518
sg31
g32
sg33
g1
(g162
g3
Ntp2519
Rp2520
(dp2521
g166
g1
(g167
g168
(lp2522
g1
(g170
g3
Ntp2523
Rp2524
(dp2525
g174
V71
p2526
sbatp2527
Rp2528
(dp2529
g179
(dp2530
sbsbsg35
(lp2531
VHydro Pump
p2532
aVBlizzard
p2533
aVThunder
p2534
aVSing
p2535
asg41
g42
sg43
VWater Absorb
p2536
sbag1
(g24
g3
Ntp2537
Rp2538
(dp2539
g28
I612
sg29
VHaxorus
p2540
sg31
g32
sg33
g1
(g162
g3
Ntp2541
Rp2542
(dp2543
g166
g1
(g167
g168
(lp2544
g1
(g170
g3
Ntp2545
Rp2546
(dp2547
g174
V73
p2548
sbatp2549
Rp2550
(dp2551
g179
(dp2552
sbsbsg35
(lp2553
VOutrage
p2554
aVDragon Dance
p2555
aVEarthquake
p2556
aVGuillotine
p2557
asg41
VFocus Sash
p2558
sg43
VMold Breaker
p2559
sbasg79
I01
sg80
g272
sbag1
(g2
g3
Ntp2560
Rp2561
(dp2562
g7
VSpr B2W2 Iris.png
p2563
sg9
VChampion
p2564
sg11
VIris
p2565
sg13
V12600
p2566
sg15
I6
sg16
g17
sg18
g19
sg20
g181
sg22
(lp2567
g1
(g24
g3
Ntp2568
Rp2569
(dp2570
g28
I635
sg29
VHydreigon
p2571
sg31
g32
sg33
V61
p2572
sg35
(lp2573
VDragon Pulse
p2574
aVSurf
p2575
aVFire Blast
p2576
aVFocus Blast
p2577
asg41
VWise Glasses
p2578
sg43
VLevitate
p2579
sbag1
(g24
g3
Ntp2580
Rp2581
(dp2582
g28
I621
sg29
VDruddigon
p2583
sg31
g32
sg33
V61
p2584
sg35
(lp2585
VOutrage
p2586
aVFire Punch
p2587
aVThunderPunch
p2588
aVFocus Blast
p2589
asg41
VLife Orb
p2590
sg43
VSheer Force
p2591
sbag1
(g24
g3
Ntp2592
Rp2593
(dp2594
g28
I306
sg29
VAggron
p2595
sg31
g32
sg33
V61
p2596
sg35
(lp2597
VHead Smash
p2598
aVDouble-Edge
p2599
aVEarthquake
p2600
aVAutotomize
p2601
asg41
VMuscle Band
p2602
sg43
VRock Head
p2603
sbag1
(g24
g3
Ntp2604
Rp2605
(dp2606
g28
I567
sg29
VArcheops
p2607
sg31
g586
sg33
V61
p2608
sg35
(lp2609
VAcrobatics
p2610
aVStone Edge
p2611
aVDragon Claw
p2612
aVEndeavor
p2613
asg41
VFlying Gem
p2614
sg43
VDefeatist
p2615
sbag1
(g24
g3
Ntp2616
Rp2617
(dp2618
g28
I131
sg29
VLapras
p2619
sg31
g32
sg33
V61
p2620
sg35
(lp2621
VHydro Pump
p2622
aVBlizzard
p2623
aVThunder
p2624
aVSing
p2625
asg41
VWide Lens
p2626
sg43
VWater Absorb
p2627
sbag1
(g24
g3
Ntp2628
Rp2629
(dp2630
g28
I612
sg29
VHaxorus
p2631
sg31
g32
sg33
V63
p2632
sg35
(lp2633
VOutrage
p2634
aVDragon Dance
p2635
aVEarthquake
p2636
aVX-Scissor
p2637
asg41
VFocus Sash
p2638
sg43
VMold Breaker
p2639
sbasg79
I01
sg80
g272
sbag1
(g2
g3
Ntp2640
Rp2641
(dp2642
g7
VSpr B2W2 Iris.png
p2643
sg9
VChampion
p2644
sg11
VIris
p2645
sg13
V16600
p2646
sg15
I6
sg16
g17
sg18
g19
sg20
g181
sg22
(lp2647
g1
(g24
g3
Ntp2648
Rp2649
(dp2650
g28
I635
sg29
VHydreigon
p2651
sg31
g32
sg33
V81
p2652
sg35
(lp2653
VDragon Pulse
p2654
aVSurf
p2655
aVFire Blast
p2656
aVFocus Blast
p2657
asg41
VWise Glasses
p2658
sg43
VLevitate
p2659
sbag1
(g24
g3
Ntp2660
Rp2661
(dp2662
g28
I373
sg29
VSalamence
p2663
sg31
g32
sg33
V81
p2664
sg35
(lp2665
VDraco Meteor
p2666
aVFire Blast
p2667
aVEarthquake
p2668
aVCrunch
p2669
asg41
VLife Orb
p2670
sg43
VIntimidate
p2671
sbag1
(g24
g3
Ntp2672
Rp2673
(dp2674
g28
I306
sg29
VAggron
p2675
sg31
g32
sg33
V81
p2676
sg35
(lp2677
VHead Smash
p2678
aVDouble-Edge
p2679
aVEarthquake
p2680
aVAutotomize
p2681
asg41
VMuscle Band
p2682
sg43
VRock Head
p2683
sbag1
(g24
g3
Ntp2684
Rp2685
(dp2686
g28
I567
sg29
VArcheops
p2687
sg31
g586
sg33
V81
p2688
sg35
(lp2689
VAcrobatics
p2690
aVStone Edge
p2691
aVDragon Claw
p2692
aVEndeavor
p2693
asg41
VFlying Gem
p2694
sg43
VDefeatist
p2695
sbag1
(g24
g3
Ntp2696
Rp2697
(dp2698
g28
I131
sg29
VLapras
p2699
sg31
g32
sg33
V81
p2700
sg35
(lp2701
VHydro Pump
p2702
aVBlizzard
p2703
aVThunder
p2704
aVSing
p2705
asg41
VZoom Lens
p2706
sg43
VWater Absorb
p2707
sbag1
(g24
g3
Ntp2708
Rp2709
(dp2710
g28
I612
sg29
VHaxorus
p2711
sg31
g32
sg33
V83
p2712
sg35
(lp2713
VOutrage
p2714
aVDragon Dance
p2715
aVEarthquake
p2716
aVGuillotine
p2717
asg41
VFocus Sash
p2718
sg43
VMold Breaker
p2719
sbasg79
I01
sg80
g272
sba.