(lp0
ccopy_reg
_reconstructor
p1
(c__main__
Trainer
p2
c__builtin__
object
p3
Ntp4
Rp5
(dp6
VtSprite
p7
VSpr BW Hiker.png
p8
sVtClass
p9
VHiker
p10
sVtName
p11
VJeremiah
p12
sVtMoney
p13
V1088
p14
sVtPokeCount
p15
V2
p16
sVtLocation
p17
Vwiki/Unova_Route_18
p18
sVtRegion
p19
VUnova
p20
sVtGame
p21
VBW
p22
sVtPokes
p23
(lp24
g1
(c__main__
FinishedPokemon
p25
g3
Ntp26
Rp27
(dp28
VpDexNo
p29
V525
p30
sVpSpecies
p31
VBoldore
p32
sVpGender
p33
VM
p34
sVpLevel
p35
V34
p36
sVpMoves
p37
(lp38
Vpower-gem
p39
aVstone-edge
p40
aVstealth-rock
p41
aVsmack-down
p42
asVpHold
p43
V
p44
sVpAbility
p45
Vweak-armor
p46
sbag1
(g25
g3
Ntp47
Rp48
(dp49
g29
V558
p50
sg31
VCrustle
p51
sg33
g34
sg35
V34
p52
sg37
(lp53
Vbug-bite
p54
aVsmack-down
p55
aVshell-smash
p56
ag56
asg43
g44
sg45
Vshell-armor
p57
sbasVbossFlag
p58
I00
sVtLongGame
p59
Vblack-white
p60
sbag1
(g2
g3
Ntp61
Rp62
(dp63
g7
VSpr BW Backpacker F.png
p64
sg9
VBackpacker
p65
sg11
VKumiko
p66
sg13
V840
p67
sg15
V1
p68
sg17
g18
sg19
g20
sg21
g22
sg23
(lp69
g1
(g25
g3
Ntp70
Rp71
(dp72
g29
V587
p73
sg31
VEmolga
p74
sg33
VF
p75
sg35
V35
p76
sg37
(lp77
Vdischarge
p78
aVelectro-ball
p79
aVacrobatics
p80
aVvolt-switch
p81
asg43
g44
sg45
Vstatic
p82
sbasg58
I00
sg59
g60
sbag1
(g2
g3
Ntp83
Rp84
(dp85
g7
VSpr BW Backpacker M.png
p86
sg9
VBackpacker
p87
sg11
VSam
p88
sg13
V840<br><small>Requires {{m|Strength}}</small>
p89
sg15
g68
sg17
g18
sg19
g20
sg21
g22
sg23
(lp90
g1
(g25
g3
Ntp91
Rp92
(dp93
g29
V547
p94
sg31
VWhimsicott
p95
sg33
g34
sg35
V35
p96
sg37
(lp97
Vgrowth
p98
aVcotton-spore
p99
aVtailwind
p100
aVhurricane
p101
asg43
g44
sg45
Vprankster
p102
sbasg58
I00
sg59
g60
sbag1
(g2
g3
Ntp103
Rp104
(dp105
g7
VSpr BW Veteran M.png
p106
sg9
VVeteran
p107
sg11
VRay
p108
sg13
V2880
p109
sg15
V3
p110
sg17
g18
sg19
g20
sg21
g22
sg23
(lp111
sg58
I00
sg59
g60
sbag1
(g2
g3
Ntp112
Rp113
(dp114
g7
VSpr BW Battle Girl.png
p115
sg9
VBattle Girl
p116
sg11
VHillary
p117
sg13
V1120
p118
sg15
g16
sg17
g18
sg19
g20
sg21
g22
sg23
(lp119
g1
(g25
g3
Ntp120
Rp121
(dp122
g29
V559
p123
sg31
VScraggy
p124
sg33
g75
sg35
V35
p125
sg37
(lp126
Vpayback
p127
aVrock-climb
p128
aVhead-smash
p129
aVchip-away
p130
asg43
g44
sg45
Vshed-skin
p131
sbag1
(g25
g3
Ntp132
Rp133
(dp134
g29
V533
p135
sg31
VGurdurr
p136
sg33
g34
sg35
V35
p137
sg37
(lp138
Vwake-up-slap
p139
aVhammer-arm
p140
aVstone-edge
p141
aVchip-away
p142
asg43
g44
sg45
Vguts
p143
sbasg58
I00
sg59
g60
sbag1
(g2
g3
Ntp144
Rp145
(dp146
g7
VSpr B2W2 Veteran F.png
p147
sg9
VVeteran
p148
sg11
VGina
p149
sg13
g1
(cmwparserfromhell.wikicode
Wikicode
p150
g3
Ntp151
Rp152
(dp153
V_nodes
p154
g1
(cmwparserfromhell.smart_list.smart_list
SmartList
p155
c__builtin__
list
p156
(lp157
g1
(cmwparserfromhell.nodes.text
Text
p158
g3
Ntp159
Rp160
(dp161
V_value
p162
V5440
p163
sbatp164
Rp165
(dp166
V_children
p167
(dp168
sbsbsg15
g110
sg17
g18
sg19
g20
sg21
VB2W2
p169
sg23
(lp170
g1
(g25
g3
Ntp171
Rp172
(dp173
g29
V230
p174
sg31
VKingdra
p175
sg33
g75
sg35
V68
p176
sg37
(lp177
Vyawn
p178
aVdragon-dance
p179
aVbrine
p180
aVdragon-pulse
p181
asg43
g44
sg45
Vswift-swim
p182
sbag1
(g25
g3
Ntp183
Rp184
(dp185
g29
V227
p186
sg31
VSkarmory
p187
sg33
g75
sg35
V68
p188
sg37
(lp189
Vfeint
p190
aVnight-slash
p191
aVair-slash
p192
aVautotomize
p193
asg43
g44
sg45
Vkeen-eye
p194
sbag1
(g25
g3
Ntp195
Rp196
(dp197
g29
V232
p198
sg31
VDonphan
p199
sg33
g75
sg35
V68
p200
sg37
(lp201
Vgiga-impact
p202
aVthunder-fang
p203
aVfire-fang
p204
aVbulldoze
p205
asg43
g44
sg45
Vsturdy
p206
sbasg58
I00
sg59
Vblack-2-white-2
p207
sbag1
(g2
g3
Ntp208
Rp209
(dp210
g7
VSpr B2W2 Black Belt.png
p211
sg9
VBlack Belt
p212
sg11
VZachary
p213
sg13
g1
(g150
g3
Ntp214
Rp215
(dp216
g154
g1
(g155
g156
(lp217
g1
(g158
g3
Ntp218
Rp219
(dp220
g162
V2080
p221
sbatp222
Rp223
(dp224
g167
(dp225
sbsbsg15
g110
sg17
g18
sg19
g20
sg21
g169
sg23
(lp226
g1
(g25
g3
Ntp227
Rp228
(dp229
g29
V297
p230
sg31
VHariyama
p231
sg33
g34
sg35
V65
p232
sg37
(lp233
Vbrine
p234
aVclose-combat
p235
aVforce-palm
p236
aVheavy-slam
p237
asg43
g44
sg45
Vthick-fat
p238
sbag1
(g25
g3
Ntp239
Rp240
(dp241
g29
V538
p242
sg31
VThroh
p243
sg33
g34
sg35
V65
p244
sg37
(lp245
Vbulk-up
p246
aVwide-guard
p247
aVstorm-throw
p248
aVcircle-throw
p249
asg43
g44
sg45
Vguts
p250
sbag1
(g25
g3
Ntp251
Rp252
(dp253
g29
V237
p254
sg31
VHitmontop
p255
sg33
g34
sg35
V65
p256
sg37
(lp257
Vfeint
p258
aVclose-combat
p259
aVwide-guard
p260
aVquick-guard
p261
asg43
g44
sg45
Vtechnician
p262
sbasg58
I00
sg59
g207
sbag1
(g2
g3
Ntp263
Rp264
(dp265
g7
VSpr B2W2 Hiker.png
p266
sg9
VHiker
p267
sg11
VStephen
p268
sg13
g1
(g150
g3
Ntp269
Rp270
(dp271
g154
g1
(g155
g156
(lp272
g1
(g158
g3
Ntp273
Rp274
(dp275
g162
V2048
p276
sbatp277
Rp278
(dp279
g167
(dp280
sbsbsg15
g110
sg17
g18
sg19
g20
sg21
g169
sg23
(lp281
g1
(g25
g3
Ntp282
Rp283
(dp284
g29
V449
p285
sg31
VHippopotas
p286
sg33
g34
sg35
V64
p287
sg37
(lp288
Vdig
p289
aVcrunch
p290
aVyawn
p291
aVsand-tomb
p292
asg43
g44
sg45
Vsand-stream
p293
sbag1
(g25
g3
Ntp294
Rp295
(dp296
g29
V558
p297
sg31
VCrustle
p298
sg33
g34
sg35
V64
p299
sg37
(lp300
Vbug-bite
p301
aVsmack-down
p302
aVshell-smash
p303
ag303
asg43
g44
sg45
Vshell-armor
p304
sbag1
(g25
g3
Ntp305
Rp306
(dp307
g29
V450
p308
sg31
VHippowdon
p309
sg33
g34
sg35
V64
p310
sg37
(lp311
Vsand-tomb
p312
aVthunder-fang
p313
aVice-fang
p314
aVfire-fang
p315
asg43
g44
sg45
Vsand-stream
p316
sbasg58
I00
sg59
g207
sbag1
(g2
g3
Ntp317
Rp318
(dp319
g7
VSpr B2W2 Veteran M.png
p320
sg9
VVeteran
p321
sg11
VVincent
p322
sg13
g1
(g150
g3
Ntp323
Rp324
(dp325
g154
g1
(g155
g156
(lp326
g1
(g158
g3
Ntp327
Rp328
(dp329
g162
V5600
p330
sbatp331
Rp332
(dp333
g167
(dp334
sbsbsg15
g68
sg17
g18
sg19
g20
sg21
g169
sg23
(lp335
g1
(g25
g3
Ntp336
Rp337
(dp338
g29
V248
p339
sg31
VTyranitar
p340
sg33
g34
sg35
V70
p341
sg37
(lp342
Vice-fang
p343
aVfire-fang
p344
aVstone-edge
p345
aVchip-away
p346
asg43
g44
sg45
Vsand-stream
p347
sbasg58
I00
sg59
g207
sbag1
(g2
g3
Ntp348
Rp349
(dp350
g7
VSpr B2W2 Veteran F.png
p351
sg9
VVeteran
p352
sg11
VMaya
p353
sg13
g1
(g150
g3
Ntp354
Rp355
(dp356
g154
g1
(g155
g156
(lp357
g1
(g158
g3
Ntp358
Rp359
(dp360
g162
V5600
p361
sbatp362
Rp363
(dp364
g167
(dp365
sbsbsg15
g68
sg17
g18
sg19
g20
sg21
g169
sg23
(lp366
g1
(g25
g3
Ntp367
Rp368
(dp369
g29
V373
p370
sg31
VSalamence
p371
sg33
g75
sg35
V70
p372
sg37
(lp373
Vthunder-fang
p374
aVfire-fang
p375
aVzen-headbutt
p376
aVdragon-tail
p377
asg43
g44
sg45
Vintimidate
p378
sbasg58
I00
sg59
g207
sbag1
(g2
g3
Ntp379
Rp380
(dp381
g7
VSpr B2W2 Veteran M.png
p382
sg9
VVeteran
p383
sg11
VChester
p384
sg13
g1
(g150
g3
Ntp385
Rp386
(dp387
g154
g1
(g155
g156
(lp388
g1
(g158
g3
Ntp389
Rp390
(dp391
g162
V5440
p392
sbatp393
Rp394
(dp395
g167
(dp396
sbsbsg15
g110
sg17
g18
sg19
g20
sg21
g169
sg23
(lp397
g1
(g25
g3
Ntp398
Rp399
(dp400
g29
V398
p401
sg31
VStaraptor
p402
sg33
g34
sg35
V68
p403
sg37
(lp404
Vaerial-ace
p405
aVclose-combat
p406
aVbrave-bird
p407
aVfinal-gambit
p408
asg43
g44
sg45
Vintimidate
p409
sbag1
(g25
g3
Ntp410
Rp411
(dp412
g29
V369
p413
sg31
VRelicanth
p414
sg33
g34
sg35
V68
p415
sg37
(lp416
Vdive
p417
aVmud-sport
p418
aVrock-tomb
p419
aVhead-smash
p420
asg43
g44
sg45
Vswift-swim
p421
sbag1
(g25
g3
Ntp422
Rp423
(dp424
g29
V553
p425
sg31
VKrookodile
p426
sg33
g34
sg35
V68
p427
sg37
(lp428
Vsand-tomb
p429
aVassurance
p430
aVembargo
p431
aVfoul-play
p432
asg43
g44
sg45
Vintimidate
p433
sbasg58
I00
sg59
g207
sbag1
(g2
g3
Ntp434
Rp435
(dp436
g7
VSpr B2W2 Battle Girl.png
p437
sg9
VBattle Girl
p438
sg11
VWendy
p439
sg13
g1
(g150
g3
Ntp440
Rp441
(dp442
g154
g1
(g155
g156
(lp443
g1
(g158
g3
Ntp444
Rp445
(dp446
g162
V2080
p447
sbatp448
Rp449
(dp450
g167
(dp451
sbsbsg15
g110
sg17
g18
sg19
g20
sg21
g169
sg23
(lp452
g1
(g25
g3
Ntp453
Rp454
(dp455
g29
V062
p456
sg31
VPoliwrath
p457
sg33
g75
sg35
V65
p458
sg37
(lp459
Vhypnosis
p460
aVmind-reader
p461
aVdynamic-punch
p462
aVcircle-throw
p463
asg43
g44
sg45
Vdamp
p464
sbag1
(g25
g3
Ntp465
Rp466
(dp467
g29
V539
p468
sg31
VSawk
p469
sg33
g34
sg35
V65
p470
sg37
(lp471
Vclose-combat
p472
aVlow-sweep
p473
aVquick-guard
p474
aVretaliate
p475
asg43
g44
sg45
Vinner-focus
p476
sbag1
(g25
g3
Ntp477
Rp478
(dp479
g29
V308
p480
sg31
VMedicham
p481
sg33
g75
sg35
V65
p482
sg37
(lp483
Vfeint
p484
aVacupressure
p485
aVpower-trick
p486
aVforce-palm
p487
asg43
g44
sg45
Vpure-power
p488
sbasg58
I00
sg59
g207
sba.