(lp0
ccopy_reg
_reconstructor
p1
(c__main__
Trainer
p2
c__builtin__
object
p3
Ntp4
Rp5
(dp6
VtSprite
p7
VSpr BW Policeman.png
p8
sVtClass
p9
VPoliceman
p10
sVtName
p11
VDaniel
p12
sVtMoney
p13
V960
p14
sVtPokeCount
p15
V1
p16
sVtLocation
p17
Vwiki/Unova_Route_16
p18
sVtRegion
p19
VUnova
p20
sVtGame
p21
VBW
p22
sVtPokes
p23
(lp24
g1
(c__main__
FinishedPokemon
p25
g3
Ntp26
Rp27
(dp28
VpDexNo
p29
V507
p30
sVpSpecies
p31
VHerdier
p32
sVpGender
p33
VM
p34
sVpLevel
p35
V24
p36
sVpMoves
p37
(lp38
Vlast-resort
p39
aVgiga-impact
p40
aVretaliate
p41
aVwork-up
p42
asVpHold
p43
V
p44
sVpAbility
p45
Vintimidate
p46
sbasVbossFlag
p47
I00
sVtLongGame
p48
Vblack-white
p49
sbag1
(g2
g3
Ntp50
Rp51
(dp52
g7
VSpr BW Cyclist F.png
p53
sg9
VCyclist
p54
sg11
VKrissa
p55
sg13
V704
p56
sg15
V2
p57
sg17
g18
sg19
g20
sg21
g22
sg23
(lp58
g1
(g25
g3
Ntp59
Rp60
(dp61
g29
V580
p62
sg31
VDucklett
p63
sg33
VF
p64
sg35
V22
p65
sg37
(lp66
Vair-slash
p67
aVbrave-bird
p68
aVdefog
p69
aVhurricane
p70
asg43
g44
sg45
Vkeen-eye
p71
sbag1
(g25
g3
Ntp72
Rp73
(dp74
g29
V510
p75
sg31
VLiepard
p76
sg33
g64
sg35
V22
p77
sg37
(lp78
Vsucker-punch
p79
aVnight-slash
p80
aVnasty-plot
p81
aVhone-claws
p82
asg43
g44
sg45
Vlimber
p83
sbasg47
I00
sg48
g49
sbag1
(g2
g3
Ntp84
Rp85
(dp86
g7
VSpr BW Backpacker M.png
p87
sg9
VBackpacker
p88
sg11
VStephen
p89
sg13
V552
p90
sg15
g16
sg17
g18
sg19
g20
sg21
g22
sg23
(lp91
g1
(g25
g3
Ntp92
Rp93
(dp94
g29
V529
p95
sg31
VDrilbur
p96
sg33
g34
sg35
V23
p97
sg37
(lp98
Vmetal-claw
p99
aVmud-sport
p100
aVhone-claws
p101
aVdrill-run
p102
asg43
g44
sg45
Vsand-rush
p103
sbasg47
I00
sg48
g49
sbag1
(g2
g3
Ntp104
Rp105
(dp106
g7
VSpr BW Backpacker M.png
p107
sg9
VBackpacker
p108
sg11
VPeter
p109
sg13
V552
p110
sg15
g16
sg17
g18
sg19
g20
sg21
g22
sg23
(lp111
g1
(g25
g3
Ntp112
Rp113
(dp114
g29
V559
p115
sg31
VScraggy
p116
sg33
g34
sg35
V23
p117
sg37
(lp118
Vpayback
p119
aVrock-climb
p120
aVhead-smash
p121
aVchip-away
p122
asg43
g44
sg45
Vmoxie
p123
sbasg47
I00
sg48
g49
sbag1
(g2
g3
Ntp124
Rp125
(dp126
g7
VSpr BW Cyclist M.png
p127
sg9
VCyclist
p128
sg11
VHector
p129
sg13
V704
p130
sg15
g57
sg17
g18
sg19
g20
sg21
g22
sg23
(lp131
g1
(g25
g3
Ntp132
Rp133
(dp134
g29
V544
p135
sg31
VWhirlipede
p136
sg33
g34
sg35
V22
p137
sg37
(lp138
Vrock-climb
p139
aVbug-bite
p140
aVvenoshock
p141
aVsteamroller
p142
asg43
g44
sg45
Vswarm
p143
sbag1
(g25
g3
Ntp144
Rp145
(dp146
g29
V544
p147
sg31
VWhirlipede
p148
sg33
g34
sg35
V22
p149
sg37
(lp150
Vrock-climb
p151
aVbug-bite
p152
aVvenoshock
p153
aVsteamroller
p154
asg43
g44
sg45
Vswarm
p155
sbasg47
I00
sg48
g49
sbag1
(g2
g3
Ntp156
Rp157
(dp158
g7
VSpr BW Backpacker F.png
p159
sg9
VBackpacker
p160
sg11
VLora
p161
sg13
V552
p162
sg15
g16
sg17
g18
sg19
g20
sg21
g22
sg23
(lp163
g1
(g25
g3
Ntp164
Rp165
(dp166
g29
V541
p167
sg31
VSwadloon
p168
sg33
g64
sg35
V23
p169
sg37
(lp170
Vstring-shot
p171
aVprotect
p172
aVgrass-whistle
p173
aVbug-bite
p174
asg43
g44
sg45
Vleaf-guard
p175
sbasg47
I00
sg48
g49
sbag1
(g2
g3
Ntp176
Rp177
(dp178
g7
VSpr B2W2 Depot Agent.png
p179
sg9
VDepot Agent
p180
sg11
VHank
p181
sg13
g1
(cmwparserfromhell.wikicode
Wikicode
p182
g3
Ntp183
Rp184
(dp185
V_nodes
p186
g1
(cmwparserfromhell.smart_list.smart_list
SmartList
p187
c__builtin__
list
p188
(lp189
g1
(cmwparserfromhell.nodes.text
Text
p190
g3
Ntp191
Rp192
(dp193
V_value
p194
V1000
p195
sbatp196
Rp197
(dp198
V_children
p199
(dp200
sbsbsg15
g16
sg17
g18
sg19
g20
sg21
VB2W2
p201
sg23
(lp202
g1
(g25
g3
Ntp203
Rp204
(dp205
g29
V529
p206
sg31
VDrilbur
p207
sg33
g34
sg35
V25
p208
sg37
(lp209
Vmetal-claw
p210
aVmud-sport
p211
aVhone-claws
p212
aVdrill-run
p213
asg43
g44
sg45
Vsand-rush
p214
sbasg47
I00
sg48
Vblack-2-white-2
p215
sbag1
(g2
g3
Ntp216
Rp217
(dp218
g7
VSpr B2W2 Cyclist M.png
p219
sg9
VCyclist
p220
sg11
VHector
p221
sg13
g1
(g182
g3
Ntp222
Rp223
(dp224
g186
g1
(g187
g188
(lp225
g1
(g190
g3
Ntp226
Rp227
(dp228
g194
V800
p229
sbatp230
Rp231
(dp232
g199
(dp233
sbsbsg15
g16
sg17
g18
sg19
g20
sg21
g201
sg23
(lp234
g1
(g25
g3
Ntp235
Rp236
(dp237
g29
V520
p238
sg31
VTranquill
p239
sg33
g34
sg35
V25
p240
sg37
(lp241
Vair-cutter
p242
aVroost
p243
aVtailwind
p244
aVair-slash
p245
asg43
g44
sg45
Vbig-pecks
p246
sbasg47
I00
sg48
g215
sbag1
(g2
g3
Ntp247
Rp248
(dp249
g7
VSpr B2W2 Backpacker M.png
p250
sg9
VBackpacker
p251
sg11
VIvan
p252
sg13
g1
(g182
g3
Ntp253
Rp254
(dp255
g186
g1
(g187
g188
(lp256
g1
(g190
g3
Ntp257
Rp258
(dp259
g194
V600
p260
sbatp261
Rp262
(dp263
g199
(dp264
sbsbsg15
g16
sg17
g18
sg19
g20
sg21
g201
sg23
(lp265
g1
(g25
g3
Ntp266
Rp267
(dp268
g29
V505
p269
sg31
VWatchog
p270
sg33
g34
sg35
V25
p271
sg37
(lp272
Vbaton-pass
p273
aVcrunch
p274
aVpsych-up
p275
aVafter-you
p276
asg43
g44
sg45
Vkeen-eye
p277
sbasg47
I00
sg48
g215
sbag1
(g2
g3
Ntp278
Rp279
(dp280
g7
VSpr B2W2 Backers M.png
p281
sg9
VBackers
p282
sg11
VStu & Art
p283
sg13
g1
(g182
g3
Ntp284
Rp285
(dp286
g186
g1
(g187
g188
(lp287
g1
(g190
g3
Ntp288
Rp289
(dp290
g194
V1152
p291
sbatp292
Rp293
(dp294
g199
(dp295
sbsbsg15
g57
sg17
g18
sg19
g20
sg21
g201
sg23
(lp296
g1
(g25
g3
Ntp297
Rp298
(dp299
g29
V559
p300
sg31
VScraggy
p301
sg33
g34
sg35
V24
p302
sg37
(lp303
Vpayback
p304
aVrock-climb
p305
aVhead-smash
p306
aVchip-away
p307
asg43
g44
sg45
Vmoxie
p308
sbag1
(g25
g3
Ntp309
Rp310
(dp311
g29
V559
p312
sg31
VScraggy
p313
sg33
g34
sg35
V24
p314
sg37
(lp315
Vpayback
p316
aVrock-climb
p317
aVhead-smash
p318
aVchip-away
p319
asg43
g44
sg45
Vshed-skin
p320
sbasg47
I00
sg48
g215
sbag1
(g2
g3
Ntp321
Rp322
(dp323
g7
VSpr B2W2 Cyclist F.png
p324
sg9
VCyclist
p325
sg11
VKrissa
p326
sg13
g1
(g182
g3
Ntp327
Rp328
(dp329
g186
g1
(g187
g188
(lp330
g1
(g190
g3
Ntp331
Rp332
(dp333
g194
V800
p334
sbatp335
Rp336
(dp337
g199
(dp338
sbsbsg15
g16
sg17
g18
sg19
g20
sg21
g201
sg23
(lp339
g1
(g25
g3
Ntp340
Rp341
(dp342
g29
V544
p343
sg31
VWhirlipede
p344
sg33
g64
sg35
V25
p345
sg37
(lp346
Vrock-climb
p347
aVbug-bite
p348
aVvenoshock
p349
aVsteamroller
p350
asg43
g44
sg45
Vpoison-point
p351
sbasg47
I00
sg48
g215
sbag1
(g2
g3
Ntp352
Rp353
(dp354
g7
VSpr B2W2 Backpacker F.png
p355
sg9
VBackpacker
p356
sg11
VBlossom
p357
sg13
g1
(g182
g3
Ntp358
Rp359
(dp360
g186
g1
(g187
g188
(lp361
g1
(g190
g3
Ntp362
Rp363
(dp364
g194
V600
p365
sbatp366
Rp367
(dp368
g199
(dp369
sbsbsg15
g16
sg17
g18
sg19
g20
sg21
g201
sg23
(lp370
g1
(g25
g3
Ntp371
Rp372
(dp373
g29
V510
p374
sg31
VLiepard
p375
sg33
g64
sg35
V25
p376
sg37
(lp377
Vsucker-punch
p378
aVnight-slash
p379
aVnasty-plot
p380
aVhone-claws
p381
asg43
g44
sg45
Vlimber
p382
sbasg47
I00
sg48
g215
sba.