(lp0
ccopy_reg
_reconstructor
p1
(c__main__
Trainer
p2
c__builtin__
object
p3
Ntp4
Rp5
(dp6
VtSprite
p7
VSpr BW Battle Girl.png
p8
sVtClass
p9
VBattle Girl
p10
sVtName
p11
VAmy
p12
sVtMoney
p13
V1248
p14
sVtPokeCount
p15
V2
p16
sVtLocation
p17
Vwiki/Unova_Route_10
p18
sVtRegion
p19
VUnova
p20
sVtGame
p21
VBW
p22
sVtPokes
p23
(lp24
g1
(c__main__
FinishedPokemon
p25
g3
Ntp26
Rp27
(dp28
VpDexNo
p29
V560
p30
sVpSpecies
p31
VScrafty
p32
sVpGender
p33
VF
p34
sVpLevel
p35
V39
p36
sVpMoves
p37
(lp38
Vpayback
p39
aVrock-climb
p40
aVhead-smash
p41
aVchip-away
p42
asVpHold
p43
V
p44
sVpAbility
p45
Vmoxie
p46
sbag1
(g25
g3
Ntp47
Rp48
(dp49
g29
V619
p50
sg31
VMienfoo
p51
sg33
g34
sg35
V39
p52
sg37
(lp53
Vforce-palm
p54
aVaura-sphere
p55
aVdrain-punch
p56
aVquick-guard
p57
asg43
g44
sg45
Vregenerator
p58
sbasVbossFlag
p59
I00
sVtLongGame
p60
Vblack-white
p61
sbag1
(g2
g3
Ntp62
Rp63
(dp64
g7
VSpr BW Ace Trainer M.png
p65
sg9
VAce Trainer
p66
sg11
VJohan
p67
sg13
V2340
p68
sg15
V3
p69
sg17
g18
sg19
g20
sg21
g22
sg23
(lp70
g1
(g25
g3
Ntp71
Rp72
(dp73
g29
V611
p74
sg31
VFraxure
p75
sg33
VM
p76
sg35
V39
p77
sg37
(lp78
Vassurance
p79
aVdragon-pulse
p80
aVgiga-impact
p81
aVdual-chop
p82
asg43
g44
sg45
Vmold-breaker
p83
sbag1
(g25
g3
Ntp84
Rp85
(dp86
g29
V603
p87
sg31
VEelektrik
p88
sg33
g76
sg35
V39
p89
sg37
(lp90
Vcharge-beam
p91
aVcoil
p92
aVacid-spray
p93
aVwild-charge
p94
asg43
g44
sg45
Vlevitate
p95
sbag1
(g25
g3
Ntp96
Rp97
(dp98
g29
V617
p99
sg31
VAccelgor
p100
sg33
g76
sg35
V39
p101
sg37
(lp102
Vacid-spray
p103
ag103
aVfinal-gambit
p104
aVstruggle-bug
p105
asg43
g44
sg45
Vsticky-hold
p106
sbasg59
I00
sg60
g61
sbag1
(g2
g3
Ntp107
Rp108
(dp109
g7
VSpr BW Veteran F.png
p110
sg9
VVeteran
p111
sg11
VKarla
p112
sg13
V3200
p113
sg15
g69
sg17
g18
sg19
g20
sg21
g22
sg23
(lp114
g1
(g25
g3
Ntp115
Rp116
(dp117
g29
V556
p118
sg31
VMaractus
p119
sg33
g34
sg35
V39
p120
sg37
(lp121
Vacupressure
p122
aVsucker-punch
p123
aVafter-you
p124
aVcotton-guard
p125
asg43
g44
sg45
Vchlorophyll
p126
sbag1
(g25
g3
Ntp127
Rp128
(dp129
g29
V594
p130
sg31
VAlomomola
p131
sg33
g34
sg35
V39
p132
sg37
(lp133
Vaqua-jet
p134
aVwide-guard
p135
aVsoak
p136
aVheal-pulse
p137
asg43
g44
sg45
Vhealer
p138
sbag1
(g25
g3
Ntp139
Rp140
(dp141
g29
V615
p142
sg31
VCryogonal
p143
sg33
VU
p144
sg35
V40
p145
sg37
(lp146
Vrapid-spin
p147
aVsheer-cold
p148
aVnight-slash
p149
aVice-shard
p150
asg43
g44
sg45
Vlevitate
p151
sbasg59
I00
sg60
g61
sbag1
(g2
g3
Ntp152
Rp153
(dp154
g7
VSpr BW Black Belt.png
p155
sg9
VBlack Belt
p156
sg11
VCorey
p157
sg13
V1280
p158
sg15
V1
p159
sg17
g18
sg19
g20
sg21
g22
sg23
(lp160
g1
(g25
g3
Ntp161
Rp162
(dp163
g29
V539
p164
sg31
VSawk
p165
sg33
g76
sg35
V40
p166
sg37
(lp167
Vclose-combat
p168
aVlow-sweep
p169
aVquick-guard
p170
aVretaliate
p171
asg43
g44
sg45
Vsturdy
p172
sbasg59
I00
sg60
g61
sbag1
(g2
g3
Ntp173
Rp174
(dp175
g7
VSpr BW Hiker.png
p176
sg9
VHiker
p177
sg11
VBret
p178
sg13
V1216
p179
sg15
g16
sg17
g18
sg19
g20
sg21
g22
sg23
(lp180
g1
(g25
g3
Ntp181
Rp182
(dp183
g29
V533
p184
sg31
VGurdurr
p185
sg33
g76
sg35
V38
p186
sg37
(lp187
Vwake-up-slap
p188
aVhammer-arm
p189
aVstone-edge
p190
aVchip-away
p191
asg43
g44
sg45
Vsheer-force
p192
sbag1
(g25
g3
Ntp193
Rp194
(dp195
g29
V525
p196
sg31
VBoldore
p197
sg33
g76
sg35
V38
p198
sg37
(lp199
Vpower-gem
p200
aVstone-edge
p201
aVstealth-rock
p202
aVsmack-down
p203
asg43
g44
sg45
Vweak-armor
p204
sbasg59
I00
sg60
g61
sbag1
(g2
g3
Ntp205
Rp206
(dp207
g7
VSpr BW Ace Trainer F.png
p208
sg9
VAce Trainer
p209
sg11
VCheyenne
p210
sg13
V2400
p211
sg15
g16
sg17
g18
sg19
g20
sg21
g22
sg23
(lp212
g1
(g25
g3
Ntp213
Rp214
(dp215
g29
V586
p216
sg31
VSawsbuck
p217
sg33
g34
sg35
V40
p218
sg37
(lp219
Vcamouflage
p220
aVaromatherapy
p221
aVenergy-ball
p222
aVhorn-leech
p223
asg43
g44
sg45
Vsap-sipper
p224
sbag1
(g25
g3
Ntp225
Rp226
(dp227
g29
V593
p228
sg31
VJellicent
p229
sg33
g34
sg35
V40
p230
sg37
(lp231
Vbrine
p232
aVwring-out
p233
aVominous-wind
p234
aVhex
p235
asg43
g44
sg45
Vcursed-body
p236
sbasg59
I00
sg60
g61
sbag1
(g2
g3
Ntp237
Rp238
(dp239
g7
VSpr BW Veteran M.png
p240
sg9
VVeteran
p241
sg11
VChester
p242
sg13
V3200
p243
sg15
g69
sg17
g18
sg19
g20
sg21
g22
sg23
(lp244
g1
(g25
g3
Ntp245
Rp246
(dp247
g29
V614
p248
sg31
VBeartic
p249
sg33
g76
sg35
V39
p250
sg37
(lp251
Vsuperpower
p252
aVsheer-cold
p253
aVbrine
p254
aVicicle-crash
p255
asg43
g44
sg45
Vsnow-cloak
p256
sbag1
(g25
g3
Ntp257
Rp258
(dp259
g29
V537
p260
sg31
VSeismitoad
p261
sg33
g76
sg35
V39
p262
sg37
(lp263
Vdrain-punch
p264
aVround
p265
ag265
aVechoed-voice
p266
asg43
g44
sg45
Vswift-swim
p267
sbag1
(g25
g3
Ntp268
Rp269
(dp270
g29
V589
p271
sg31
VEscavalier
p272
sg33
g76
sg35
V40
p273
sg37
(lp274
Vgiga-impact
p275
aViron-head
p276
aVquick-guard
p277
ag277
asg43
g44
sg45
Vshell-armor
p278
sbasg59
I00
sg60
g61
sbag1
(g2
g3
Ntp279
Rp280
(dp281
g7
VSpr BW Cheren.png
p282
sg9
VPokemon Trainer
p283
sg11
VCheren
p284
sg13
V4500
p285
sg15
I4
sg17
g18
sg19
g20
sg21
g22
sg23
(lp286
g1
(g25
g3
Ntp287
Rp288
(dp289
g29
I521
sg31
VUnfezant
p290
sg33
g76
sg35
V43
p291
sg37
(lp292
VRazor Wind
p293
aVDetect
p294
aVAir Slash
p295
aVTaunt
p296
asg43
VScope Lens
p297
sg45
VSuper Luck
p298
sbag1
(g25
g3
Ntp299
Rp300
(dp301
g29
I512
sg31
VSimisage
p302
sg33
g76
sg35
V43
p303
sg37
(lp304
VLick
p305
aVSeed Bomb
p306
aVLeer
p307
aVFury Swipes
p308
asg43
VMiracle Seed
p309
sg45
VGluttony
p310
sbag1
(g25
g3
Ntp311
Rp312
(dp313
g29
I510
sg31
VLiepard
p314
sg33
g76
sg35
V43
p315
sg37
(lp316
VAssurance
p317
aVNight Slash
p318
aVSlash
p319
aVTaunt
p320
asg43
VSitrus Berry
p321
sg45
VUnburden
p322
sbag1
(g25
g3
Ntp323
Rp324
(dp325
g29
I500
sg31
VEmboar
p326
sg33
g76
sg35
V45
p327
sg37
(lp328
VHeat Crash
p329
aVAssurance
p330
aVTake Down
p331
aVFlamethrower
p332
asg43
VLeftovers
p333
sg45
VBlaze
p334
sbasg59
I01
sg60
g61
sbag1
(g2
g3
Ntp335
Rp336
(dp337
g7
VSpr BW Cheren.png
p338
sg9
VPokemon Trainer
p339
sg11
VCheren
p340
sg13
V4500
p341
sg15
I4
sg17
g18
sg19
g20
sg21
g22
sg23
(lp342
g1
(g25
g3
Ntp343
Rp344
(dp345
g29
I521
sg31
VUnfezant
p346
sg33
g76
sg35
V43
p347
sg37
(lp348
VRazor Wind
p349
aVDetect
p350
aVAir Slash
p351
aVTaunt
p352
asg43
VScope Lens
p353
sg45
VSuper Luck
p354
sbag1
(g25
g3
Ntp355
Rp356
(dp357
g29
I514
sg31
VSimisear
p358
sg33
g76
sg35
V43
p359
sg37
(lp360
VLick
p361
aVFlame Burst
p362
aVLeer
p363
aVFury Swipes
p364
asg43
VCharcoal
p365
sg45
VGluttony
p366
sbag1
(g25
g3
Ntp367
Rp368
(dp369
g29
I510
sg31
VLiepard
p370
sg33
g76
sg35
V43
p371
sg37
(lp372
VAssurance
p373
aVNight Slash
p374
aVSlash
p375
aVTaunt
p376
asg43
VSitrus Berry
p377
sg45
VUnburden
p378
sbag1
(g25
g3
Ntp379
Rp380
(dp381
g29
I503
sg31
VSamurott
p382
sg33
g76
sg35
V45
p383
sg37
(lp384
VAqua Tail
p385
aVSlash
p386
aVAqua Jet
p387
aVEncore
p388
asg43
VLeftovers
p389
sg45
VTorrent
p390
sbasg59
I01
sg60
g61
sbag1
(g2
g3
Ntp391
Rp392
(dp393
g7
VSpr BW Cheren.png
p394
sg9
VPokemon Trainer
p395
sg11
VCheren
p396
sg13
V4500
p397
sg15
I4
sg17
g18
sg19
g20
sg21
g22
sg23
(lp398
g1
(g25
g3
Ntp399
Rp400
(dp401
g29
I521
sg31
VUnfezant
p402
sg33
g76
sg35
V43
p403
sg37
(lp404
VRazor Wind
p405
aVDetect
p406
aVAir Slash
p407
aVTaunt
p408
asg43
VScope Lens
p409
sg45
VSuper Luck
p410
sbag1
(g25
g3
Ntp411
Rp412
(dp413
g29
I516
sg31
VSimipour
p414
sg33
g76
sg35
V43
p415
sg37
(lp416
VLick
p417
aVScald
p418
aVLeer
p419
aVFury Swipes
p420
asg43
VMystic Water
p421
sg45
VGluttony
p422
sbag1
(g25
g3
Ntp423
Rp424
(dp425
g29
I510
sg31
VLiepard
p426
sg33
g76
sg35
V43
p427
sg37
(lp428
VAssurance
p429
aVNight Slash
p430
aVSlash
p431
aVTaunt
p432
asg43
VSitrus Berry
p433
sg45
VUnburden
p434
sbag1
(g25
g3
Ntp435
Rp436
(dp437
g29
I497
sg31
VSerperior
p438
sg33
g76
sg35
V45
p439
sg37
(lp440
VGiga Drain
p441
aVLeaf Blade
p442
aVCoil
p443
aVSlam
p444
asg43
VLeftovers
p445
sg45
VOvergrow
p446
sbasg59
I01
sg60
g61
sba.