(lp0
ccopy_reg
_reconstructor
p1
(c__main__
Trainer
p2
c__builtin__
object
p3
Ntp4
Rp5
(dp6
VtSprite
p7
VSpr BW Fisherman.png
p8
sVtClass
p9
VFisherman
p10
sVtName
p11
VLydon
p12
sVtMoney
p13
V1088
p14
sVtPokeCount
p15
V2
p16
sVtLocation
p17
Vwiki/Unova_Route_17
p18
sVtRegion
p19
VUnova
p20
sVtGame
p21
VBW
p22
sVtPokes
p23
(lp24
sVbossFlag
p25
I00
sVtLongGame
p26
Vblack-white
p27
sbag1
(g2
g3
Ntp28
Rp29
(dp30
g7
VSpr BW Swimmer F.png
p31
sg9
VSwimmer
p32
sg11
VJoyce
p33
sg13
V560
p34
sg15
V1
p35
sg17
g18
sg19
g20
sg21
g22
sg23
(lp36
g1
(c__main__
FinishedPokemon
p37
g3
Ntp38
Rp39
(dp40
VpDexNo
p41
V594
p42
sVpSpecies
p43
VAlomomola
p44
sVpGender
p45
VF
p46
sVpLevel
p47
V35
p48
sVpMoves
p49
(lp50
Vaqua-jet
p51
aVwide-guard
p52
aVsoak
p53
aVheal-pulse
p54
asVpHold
p55
V
p56
sVpAbility
p57
Vhealer
p58
sbasg25
I00
sg26
g27
sbag1
(g2
g3
Ntp59
Rp60
(dp61
g7
VSpr BW Swimmer M.png
p62
sg9
VSwimmer
p63
sg11
VWright
p64
sg13
V512
p65
sg15
V4
p66
sg17
g18
sg19
g20
sg21
g22
sg23
(lp67
sg25
I00
sg26
g27
sbag1
(g2
g3
Ntp68
Rp69
(dp70
g7
VSpr BW Swimmer M.png
p71
sg9
VSwimmer
p72
sg11
VBerke
p73
sg13
V544
p74
sg15
g16
sg17
g18
sg19
g20
sg21
g22
sg23
(lp75
g1
(g37
g3
Ntp76
Rp77
(dp78
g41
V592
p79
sg43
VFrillish
p80
sg45
VM
p81
sg47
V34
p82
sg49
(lp83
Vbrine
p84
aVwring-out
p85
aVominous-wind
p86
aVhex
p87
asg55
g56
sg57
Vcursed-body
p88
sbag1
(g37
g3
Ntp89
Rp90
(dp91
g41
V516
p92
sg43
VSimipour
p93
sg45
g81
sg47
V34
p94
sg49
(lp95
Vleer
p96
aVlick
p97
aVfury-swipes
p98
aVscald
p99
asg55
g56
sg57
Vgluttony
p100
sbasg25
I00
sg26
g27
sbag1
(g2
g3
Ntp101
Rp102
(dp103
g7
VSpr BW Swimmer F.png
p104
sg9
VSwimmer
p105
sg11
VCaroline
p106
sg13
V544
p107
sg15
g16
sg17
g18
sg19
g20
sg21
g22
sg23
(lp108
g1
(g37
g3
Ntp109
Rp110
(dp111
g41
V580
p112
sg43
VDucklett
p113
sg45
g46
sg47
V34
p114
sg49
(lp115
Vair-slash
p116
aVbrave-bird
p117
aVdefog
p118
aVhurricane
p119
asg55
g56
sg57
Vbig-pecks
p120
sbag1
(g37
g3
Ntp121
Rp122
(dp123
g41
V592
p124
sg43
VFrillish
p125
sg45
g46
sg47
V34
p126
sg49
(lp127
Vbrine
p128
aVwring-out
p129
aVominous-wind
p130
aVhex
p131
asg55
g56
sg57
Vwater-absorb
p132
sbasg25
I00
sg26
g27
sbag1
(g2
g3
Ntp133
Rp134
(dp135
g7
VSpr B2W2 Fisherman.png
p136
sg9
VFisherman
p137
sg11
VLydon
p138
sg13
g1
(cmwparserfromhell.wikicode
Wikicode
p139
g3
Ntp140
Rp141
(dp142
V_nodes
p143
g1
(cmwparserfromhell.smart_list.smart_list
SmartList
p144
c__builtin__
list
p145
(lp146
g1
(cmwparserfromhell.nodes.text
Text
p147
g3
Ntp148
Rp149
(dp150
V_value
p151
V2048
p152
sbatp153
Rp154
(dp155
V_children
p156
(dp157
sbsbsg15
V3
p158
sg17
g18
sg19
g20
sg21
VB2W2
p159
sg23
(lp160
g1
(g37
g3
Ntp161
Rp162
(dp163
g41
V349
p164
sg43
VFeebas
p165
sg45
g81
sg47
V64
p166
sg49
(lp167
Vtackle
p168
aVsplash
p169
aVflail
p170
asg55
g56
sg57
Voblivious
p171
sbag1
(g37
g3
Ntp172
Rp173
(dp174
g41
V456
p175
sg43
VFinneon
p176
sg45
g81
sg47
V64
p177
sg49
(lp178
Vu-turn
p179
aVaqua-ring
p180
aVcaptivate
p181
aVsoak
p182
asg55
g56
sg57
Vstorm-drain
p183
sbag1
(g37
g3
Ntp184
Rp185
(dp186
g41
V457
p187
sg43
VLumineon
p188
sg45
g81
sg47
V64
p189
sg49
(lp190
Vu-turn
p191
aVaqua-ring
p192
aVcaptivate
p193
aVsoak
p194
asg55
g56
sg57
Vswift-swim
p195
sbasg25
I00
sg26
Vblack-2-white-2
p196
sbag1
(g2
g3
Ntp197
Rp198
(dp199
g7
VSpr B2W2 Swimmer M.png
p200
sg9
VSwimmer
p201
sg11
VJeffery
p202
sg13
g1
(g139
g3
Ntp203
Rp204
(dp205
g143
g1
(g144
g145
(lp206
g1
(g147
g3
Ntp207
Rp208
(dp209
g151
V1040
p210
sbatp211
Rp212
(dp213
g156
(dp214
sbsbsg15
g16
sg17
g18
sg19
g20
sg21
g159
sg23
(lp215
g1
(g37
g3
Ntp216
Rp217
(dp218
g41
V072
p219
sg43
VTentacool
p220
sg45
g81
sg47
V65
p221
sg49
(lp222
Vpoison-jab
p223
aVsludge-wave
p224
aVacid-spray
p225
aVhex
p226
asg55
g56
sg57
Vclear-body
p227
sbag1
(g37
g3
Ntp228
Rp229
(dp230
g41
V367
p231
sg43
VHuntail
p232
sg45
g81
sg47
V65
p233
sg49
(lp234
Vwater-pulse
p235
aVbrine
p236
aVaqua-tail
p237
aVice-fang
p238
asg55
g56
sg57
Vswift-swim
p239
sbasg25
I00
sg26
g196
sbag1
(g2
g3
Ntp240
Rp241
(dp242
g7
VSpr B2W2 Swimmer F.png
p243
sg9
VSwimmer
p244
sg11
VRuth
p245
sg13
g1
(g139
g3
Ntp246
Rp247
(dp248
g143
g1
(g144
g145
(lp249
g1
(g147
g3
Ntp250
Rp251
(dp252
g151
V1040
p253
sbatp254
Rp255
(dp256
g156
(dp257
sbsbsg15
g16
sg17
g18
sg19
g20
sg21
g159
sg23
(lp258
g1
(g37
g3
Ntp259
Rp260
(dp261
g41
V366
p262
sg43
VClamperl
p263
sg45
g46
sg47
V65
p264
sg49
(lp265
Vclamp
p266
aVwhirlpool
p267
aViron-defense
p268
aVshell-smash
p269
asg55
g56
sg57
Vshell-armor
p270
sbag1
(g37
g3
Ntp271
Rp272
(dp273
g41
V090
p274
sg43
VShellder
p275
sg45
g46
sg47
V65
p276
sg49
(lp277
Vbrine
p278
aVice-shard
p279
aVshell-smash
p280
aVrazor-shell
p281
asg55
g56
sg57
Vshell-armor
p282
sbasg25
I00
sg26
g196
sbag1
(g2
g3
Ntp283
Rp284
(dp285
g7
VSpr B2W2 Fisherman.png
p286
sg9
VFisherman
p287
sg11
VBucky
p288
sg13
g1
(g139
g3
Ntp289
Rp290
(dp291
g143
g1
(g144
g145
(lp292
g1
(g147
g3
Ntp293
Rp294
(dp295
g151
V2048
p296
sbatp297
Rp298
(dp299
g156
(dp300
sbsbsg15
g158
sg17
g18
sg19
g20
sg21
g159
sg23
(lp301
g1
(g37
g3
Ntp302
Rp303
(dp304
g41
V098
p305
sg43
VKrabby
p306
sg45
g81
sg47
V64
p307
sg49
(lp308
Vmetal-claw
p309
aVmud-sport
p310
aVmud-shot
p311
aVbrine
p312
asg55
g56
sg57
Vshell-armor
p313
sbag1
(g37
g3
Ntp314
Rp315
(dp316
g41
V211
p317
sg43
VQwilfish
p318
sg45
g81
sg47
V64
p319
sg49
(lp320
Vbrine
p321
aVtoxic-spikes
p322
aVpoison-jab
p323
aVaqua-tail
p324
asg55
g56
sg57
Vswift-swim
p325
sbag1
(g37
g3
Ntp326
Rp327
(dp328
g41
V099
p329
sg43
VKingler
p330
sg45
g81
sg47
V64
p331
sg49
(lp332
Vmud-sport
p333
aVmud-shot
p334
aVbrine
p335
aVwide-guard
p336
asg55
g56
sg57
Vhyper-cutter
p337
sbasg25
I00
sg26
g196
sbag1
(g2
g3
Ntp338
Rp339
(dp340
g7
VSpr B2W2 Swimmer M.png
p341
sg9
VSwimmer
p342
sg11
VWright
p343
sg13
g1
(g139
g3
Ntp344
Rp345
(dp346
g143
g1
(g144
g145
(lp347
g1
(g147
g3
Ntp348
Rp349
(dp350
g151
V1040
p351
sbatp352
Rp353
(dp354
g156
(dp355
sbsbsg15
g16
sg17
g18
sg19
g20
sg21
g159
sg23
(lp356
g1
(g37
g3
Ntp357
Rp358
(dp359
g41
V318
p360
sg43
VCarvanha
p361
sg45
g81
sg47
V65
p362
sg49
(lp363
Vcrunch
p364
aVassurance
p365
aVice-fang
p366
aVaqua-jet
p367
asg55
g56
sg57
Vrough-skin
p368
sbag1
(g37
g3
Ntp369
Rp370
(dp371
g41
V319
p372
sg43
VSharpedo
p373
sg45
g81
sg47
V65
p374
sg49
(lp375
Vassurance
p376
aVnight-slash
p377
aVice-fang
p378
aVaqua-jet
p379
asg55
g56
sg57
Vrough-skin
p380
sbasg25
I00
sg26
g196
sbag1
(g2
g3
Ntp381
Rp382
(dp383
g7
VSpr B2W2 Swimmer F.png
p384
sg9
VSwimmer
p385
sg11
VDara
p386
sg13
g1
(g139
g3
Ntp387
Rp388
(dp389
g143
g1
(g144
g145
(lp390
g1
(g147
g3
Ntp391
Rp392
(dp393
g151
V1040
p394
sbatp395
Rp396
(dp397
g156
(dp398
sbsbsg15
g16
sg17
g18
sg19
g20
sg21
g159
sg23
(lp399
g1
(g37
g3
Ntp400
Rp401
(dp402
g41
V170
p403
sg43
VChinchou
p404
sg45
g46
sg47
V65
p405
sg49
(lp406
Vsignal-beam
p407
aVaqua-ring
p408
aVdischarge
p409
aVelectro-ball
p410
asg55
g56
sg57
Villuminate
p411
sbag1
(g37
g3
Ntp412
Rp413
(dp414
g41
V368
p415
sg43
VGorebyss
p416
sg45
g46
sg47
V65
p417
sg49
(lp418
Vwater-pulse
p419
aVaqua-ring
p420
aVaqua-tail
p421
aVcaptivate
p422
asg55
g56
sg57
Vswift-swim
p423
sbasg25
I00
sg26
g196
sba.