(lp0
ccopy_reg
_reconstructor
p1
(c__main__
Trainer
p2
c__builtin__
object
p3
Ntp4
Rp5
(dp6
VtSprite
p7
VSpr BW Fisherman.png
p8
sVtClass
p9
VFisherman
p10
sVtName
p11
VSid
p12
sVtMoney
p13
V1984
p14
sVtPokeCount
p15
V4
p16
sVtLocation
p17
Vwiki/Unova_Route_14
p18
sVtRegion
p19
VUnova
p20
sVtGame
p21
VBW
p22
sVtPokes
p23
(lp24
g1
(c__main__
FinishedPokemon
p25
g3
Ntp26
Rp27
(dp28
VpDexNo
p29
V339
p30
sVpSpecies
p31
VBarboach
p32
sVpGender
p33
VM
p34
sVpLevel
p35
V62
p36
sVpMoves
p37
(lp38
Vwater-sport
p39
aVwater-pulse
p40
aVaqua-tail
p41
aVmud-bomb
p42
asVpHold
p43
V
p44
sVpAbility
p45
Voblivious
p46
sbag1
(g25
g3
Ntp47
Rp48
(dp49
g29
V341
p50
sg31
VCorphish
p51
sg33
g34
sg35
V62
p52
sg37
(lp53
Vcrunch
p54
aVtaunt
p55
aVknock-off
p56
aVnight-slash
p57
asg43
g44
sg45
Vshell-armor
p58
sbag1
(g25
g3
Ntp59
Rp60
(dp61
g29
V340
p62
sg31
VWhiscash
p63
sg33
g34
sg35
V62
p64
sg37
(lp65
Vwater-pulse
p66
aVaqua-tail
p67
aVmud-bomb
p68
aVzen-headbutt
p69
asg43
g44
sg45
Vanticipation
p70
sbag1
(g25
g3
Ntp71
Rp72
(dp73
g29
V318
p74
sg31
VCarvanha
p75
sg33
g34
sg35
V62
p76
sg37
(lp77
Vcrunch
p78
aVassurance
p79
aVice-fang
p80
aVaqua-jet
p81
asg43
g44
sg45
Vrough-skin
p82
sbasVbossFlag
p83
I00
sVtLongGame
p84
Vblack-white
p85
sbag1
(g2
g3
Ntp86
Rp87
(dp88
g7
VSpr BW Black Belt.png
p89
sg9
VBlack Belt
p90
sg11
VJay
p91
sg13
V2048
p92
sg15
V3
p93
sg17
g18
sg19
g20
sg21
g22
sg23
(lp94
g1
(g25
g3
Ntp95
Rp96
(dp97
g29
V057
p98
sg31
VPrimeape
p99
sg33
g34
sg35
V64
p100
sg37
(lp101
Vassurance
p102
aVfling
p103
aVpunishment
p104
aVfinal-gambit
p105
asg43
g44
sg45
Vanger-point
p106
sbag1
(g25
g3
Ntp107
Rp108
(dp109
g29
V560
p110
sg31
VScrafty
p111
sg33
g34
sg35
V64
p112
sg37
(lp113
Vpayback
p114
aVrock-climb
p115
aVhead-smash
p116
aVchip-away
p117
asg43
g44
sg45
Vshed-skin
p118
sbag1
(g25
g3
Ntp119
Rp120
(dp121
g29
V062
p122
sg31
VPoliwrath
p123
sg33
g34
sg35
V64
p124
sg37
(lp125
Vhypnosis
p126
aVmind-reader
p127
aVdynamic-punch
p128
aVcircle-throw
p129
asg43
g44
sg45
Vdamp
p130
sbasg83
I00
sg84
g85
sbag1
(g2
g3
Ntp131
Rp132
(dp133
g7
VSpr BW Backpacker F.png
p134
sg9
VBackpacker
p135
sg11
VVicki
p136
sg13
V1560
p137
sg15
V1
p138
sg17
g18
sg19
g20
sg21
g22
sg23
(lp139
g1
(g25
g3
Ntp140
Rp141
(dp142
g29
V322
p143
sg31
VNumel
p144
sg33
VF
p145
sg35
V65
p146
sg37
(lp147
Vmagnitude
p148
aVearth-power
p149
aVlava-plume
p150
aVflame-burst
p151
asg43
g44
sg45
Voblivious
p152
sbasg83
I00
sg84
g85
sbag1
(g2
g3
Ntp153
Rp154
(dp155
g7
VSpr BW Ace Trainer F.png
p156
sg9
VAce Trainer
p157
sg11
VJunko
p158
sg13
V4080
p159
sg15
g93
sg17
g18
sg19
g20
sg21
g22
sg23
(lp160
g1
(g25
g3
Ntp161
Rp162
(dp163
g29
V432
p164
sg31
VPurugly
p165
sg33
g145
sg35
V68
p166
sg37
(lp167
Vfake-out
p168
aVassist
p169
aVcaptivate
p170
aVhone-claws
p171
asg43
g44
sg45
Vown-tempo
p172
sbag1
(g25
g3
Ntp173
Rp174
(dp175
g29
V196
p176
sg31
VEspeon
p177
sg33
g34
sg35
V68
p178
sg37
(lp179
Vfuture-sight
p180
aVhelping-hand
p181
aVpower-swap
p182
aVlast-resort
p183
asg43
g44
sg45
Vsynchronize
p184
sbag1
(g25
g3
Ntp185
Rp186
(dp187
g29
V131
p188
sg31
VLapras
p189
sg33
g145
sg35
V68
p190
sg37
(lp191
Vsheer-cold
p192
aVwater-pulse
p193
aVbrine
p194
aVice-shard
p195
asg43
g44
sg45
Vwater-absorb
p196
sbasg83
I00
sg84
g85
sbag1
(g2
g3
Ntp197
Rp198
(dp199
g7
VSpr BW Hiker.png
p200
sg9
VHiker
p201
sg11
VJebediah
p202
sg13
V2016
p203
sg15
g93
sg17
g18
sg19
g20
sg21
g22
sg23
(lp204
g1
(g25
g3
Ntp205
Rp206
(dp207
g29
V449
p208
sg31
VHippopotas
p209
sg33
g34
sg35
V63
p210
sg37
(lp211
Vdig
p212
aVcrunch
p213
aVyawn
p214
aVsand-tomb
p215
asg43
g44
sg45
Vsand-stream
p216
sbag1
(g25
g3
Ntp217
Rp218
(dp219
g29
V221
p220
sg31
VPiloswine
p221
sg33
g34
sg35
V63
p222
sg37
(lp223
Vmud-sport
p224
aVodor-sleuth
p225
aVice-fang
p226
aVmud-bomb
p227
asg43
g44
sg45
Vsnow-cloak
p228
sbag1
(g25
g3
Ntp229
Rp230
(dp231
g29
V476
p232
sg31
VProbopass
p233
sg33
g34
sg35
V63
p234
sg37
(lp235
Vdischarge
p236
aVmagnet-bomb
p237
ag237
aVstone-edge
p238
asg43
g44
sg45
Vsturdy
p239
sbasg83
I00
sg84
g85
sbag1
(g2
g3
Ntp240
Rp241
(dp242
g7
VSpr BW Ace Trainer M.png
p243
sg9
VAce Trainer
p244
sg11
VKipp
p245
sg13
V4080
p246
sg15
g93
sg17
g18
sg19
g20
sg21
g22
sg23
(lp247
g1
(g25
g3
Ntp248
Rp249
(dp250
g29
V359
p251
sg31
VAbsol
p252
sg33
g34
sg35
V68
p253
sg37
(lp254
Vme-first
p255
aVsucker-punch
p256
aVnight-slash
p257
aVpsycho-cut
p258
asg43
g44
sg45
Vpressure
p259
sbag1
(g25
g3
Ntp260
Rp261
(dp262
g29
V085
p263
sg31
VDodrio
p264
sg33
g34
sg35
V68
p265
sg37
(lp266
Vuproar
p267
aVendeavor
p268
aVpluck
p269
aVacupressure
p270
asg43
g44
sg45
Vearly-bird
p271
sbag1
(g25
g3
Ntp272
Rp273
(dp274
g29
V365
p275
sg31
VWalrein
p276
sg33
g34
sg35
V68
p277
sg37
(lp278
Vhail
p279
aVice-ball
p280
aVsheer-cold
p281
aVice-fang
p282
asg43
g44
sg45
Vthick-fat
p283
sbasg83
I00
sg84
g85
sbag1
(g2
g3
Ntp284
Rp285
(dp286
g7
VSpr B2W2 Socialite.png
p287
sg9
VSocialite
p288
sg11
VMarian
p289
sg13
g1
(cmwparserfromhell.wikicode
Wikicode
p290
g3
Ntp291
Rp292
(dp293
V_nodes
p294
g1
(cmwparserfromhell.smart_list.smart_list
SmartList
p295
c__builtin__
list
p296
(lp297
g1
(cmwparserfromhell.nodes.text
Text
p298
g3
Ntp299
Rp300
(dp301
V_value
p302
V7800
p303
sbatp304
Rp305
(dp306
V_children
p307
(dp308
sbsbsg15
g138
sg17
g18
sg19
g20
sg21
VB2W2
p309
sg23
(lp310
g1
(g25
g3
Ntp311
Rp312
(dp313
g29
V428
p314
sg31
VLopunny
p315
sg33
g145
sg35
V39
p316
sg37
(lp317
Vbounce
p318
aVhealing-wish
p319
aVentrainment
p320
aVafter-you
p321
asg43
g44
sg45
Vklutz
p322
sbasg83
I00
sg84
Vblack-2-white-2
p323
sbag1
(g2
g3
Ntp324
Rp325
(dp326
g7
VSpr B2W2 Gentleman.png
p327
sg9
VGentleman
p328
sg11
VSheldon
p329
sg13
g1
(g290
g3
Ntp330
Rp331
(dp332
g294
g1
(g295
g296
(lp333
g1
(g298
g3
Ntp334
Rp335
(dp336
g302
V7800
p337
sbatp338
Rp339
(dp340
g307
(dp341
sbsbsg15
g138
sg17
g18
sg19
g20
sg21
g309
sg23
(lp342
g1
(g25
g3
Ntp343
Rp344
(dp345
g29
V301
p346
sg31
VDelcatty
p347
sg33
g145
sg35
V39
p348
sg37
(lp349
Vdouble-slap
p350
aVsing
p351
aVattract
p352
aVfake-out
p353
asg43
g44
sg45
Vnormalize
p354
sbasg83
I00
sg84
g323
sbag1
(g2
g3
Ntp355
Rp356
(dp357
g7
VSpr B2W2 Battle Girl.png
p358
sg9
VBattle Girl
p359
sg11
VGlinda
p360
sg13
g1
(g290
g3
Ntp361
Rp362
(dp363
g294
g1
(g295
g296
(lp364
g1
(g298
g3
Ntp365
Rp366
(dp367
g302
V1280
p368
sbatp369
Rp370
(dp371
g307
(dp372
sbsbsg15
g138
sg17
g18
sg19
g20
sg21
g309
sg23
(lp373
g1
(g25
g3
Ntp374
Rp375
(dp376
g29
V533
p377
sg31
VGurdurr
p378
sg33
g34
sg35
V40
p379
sg37
(lp380
Vwake-up-slap
p381
aVhammer-arm
p382
aVstone-edge
p383
aVchip-away
p384
asg43
g44
sg45
Vsheer-force
p385
sbasg83
I00
sg84
g323
sbag1
(g2
g3
Ntp386
Rp387
(dp388
g7
VSpr B2W2 Ace Trainer F.png
p389
sg9
VAce Trainer
p390
sg11
VJunko
p391
sg13
g1
(g290
g3
Ntp392
Rp393
(dp394
g294
g1
(g295
g296
(lp395
g1
(g298
g3
Ntp396
Rp397
(dp398
g302
V2340
p399
sbatp400
Rp401
(dp402
g307
(dp403
sbsbsg15
g93
sg17
g18
sg19
g20
sg21
g309
sg23
(lp404
g1
(g25
g3
Ntp405
Rp406
(dp407
g29
V207
p408
sg31
VGligar
p409
sg33
g145
sg35
V39
p410
sg37
(lp411
Vsky-uppercut
p412
aVu-turn
p413
aVx-scissor
p414
aVacrobatics
p415
asg43
g44
sg45
Vsand-veil
p416
sbag1
(g25
g3
Ntp417
Rp418
(dp419
g29
V549
p420
sg31
VLilligant
p421
sg33
g145
sg35
V39
p422
sg37
(lp423
Vpetal-dance
p424
aVsynthesis
p425
aVteeter-dance
p426
aVquiver-dance
p427
asg43
g44
sg45
Vown-tempo
p428
sbasg83
I00
sg84
g323
sbag1
(g2
g3
Ntp429
Rp430
(dp431
g7
VSpr B2W2 Fisherman.png
p432
sg9
VFisherman
p433
sg11
VSid
p434
sg13
g1
(g290
g3
Ntp435
Rp436
(dp437
g294
g1
(g295
g296
(lp438
g1
(g298
g3
Ntp439
Rp440
(dp441
g302
V1216
p442
sbatp443
Rp444
(dp445
g307
(dp446
sbsbsg15
V2
p447
sg17
g18
sg19
g20
sg21
g309
sg23
(lp448
g1
(g25
g3
Ntp449
Rp450
(dp451
g29
V120
p452
sg31
VStaryu
p453
sg33
VU
p454
sg35
V38
p455
sg37
(lp456
Vgyro-ball
p457
aVbrine
p458
aVpower-gem
p459
aVreflect-type
p460
asg43
g44
sg45
Villuminate
p461
sbag1
(g25
g3
Ntp462
Rp463
(dp464
g29
V418
p465
sg31
VBuizel
p466
sg33
g34
sg35
V38
p467
sg37
(lp468
Vwater-sport
p469
aVaqua-tail
p470
aVaqua-jet
p471
aVdouble-hit
p472
asg43
g44
sg45
Vswift-swim
p473
sbasg83
I00
sg84
g323
sbag1
(g2
g3
Ntp474
Rp475
(dp476
g7
VSpr B2W2 Ace Trainer M.png
p477
sg9
VAce Trainer
p478
sg11
VKipp
p479
sg13
g1
(g290
g3
Ntp480
Rp481
(dp482
g294
g1
(g295
g296
(lp483
g1
(g298
g3
Ntp484
Rp485
(dp486
g302
V2340
p487
sbatp488
Rp489
(dp490
g307
(dp491
sbsbsg15
g93
sg17
g18
sg19
g20
sg21
g309
sg23
(lp492
g1
(g25
g3
Ntp493
Rp494
(dp495
g29
V114
p496
sg31
VTangela
p497
sg33
g34
sg35
V39
p498
sg37
(lp499
Vtickle
p500
aVnatural-gift
p501
aVwring-out
p502
aVpower-whip
p503
asg43
g44
sg45
Vchlorophyll
p504
sbag1
(g25
g3
Ntp505
Rp506
(dp507
g29
V523
p508
sg31
VZebstrika
p509
sg33
g34
sg35
V39
p510
sg37
(lp511
Vshock-wave
p512
aVdischarge
p513
aVflame-charge
p514
aVwild-charge
p515
asg43
g44
sg45
Vmotor-drive
p516
sbag1
(g25
g3
Ntp517
Rp518
(dp519
g29
V227
p520
sg31
VSkarmory
p521
sg33
g34
sg35
V39
p522
sg37
(lp523
Vfeint
p524
aVnight-slash
p525
aVair-slash
p526
aVautotomize
p527
asg43
g44
sg45
Vkeen-eye
p528
sbasg83
I00
sg84
g323
sbag1
(g2
g3
Ntp529
Rp530
(dp531
g7
VSpr B2W2 Backpacker M.png
p532
sg9
VBackpacker
p533
sg11
VReece
p534
sg13
g1
(g290
g3
Ntp535
Rp536
(dp537
g294
g1
(g295
g296
(lp538
g1
(g298
g3
Ntp539
Rp540
(dp541
g302
V912
p542
sbatp543
Rp544
(dp545
g307
(dp546
sbsbsg15
g447
sg17
g18
sg19
g20
sg21
g309
sg23
(lp547
g1
(g25
g3
Ntp548
Rp549
(dp550
g29
V451
p551
sg31
VSkorupi
p552
sg33
g34
sg35
V38
p553
sg37
(lp554
Vcross-poison
p555
aVbug-bite
p556
aVhone-claws
p557
aVvenoshock
p558
asg43
g44
sg45
Vsniper
p559
sbag1
(g25
g3
Ntp560
Rp561
(dp562
g29
V127
p563
sg31
VPinsir
p564
sg33
g34
sg35
V38
p565
sg37
(lp566
Vrevenge
p567
aVbrick-break
p568
aVx-scissor
p569
aVstorm-throw
p570
asg43
g44
sg45
Vmold-breaker
p571
sbasg83
I00
sg84
g323
sbag1
(g2
g3
Ntp572
Rp573
(dp574
g7
VSpr B2W2 Black Belt.png
p575
sg9
VBlack Belt
p576
sg11
VJay
p577
sg13
g1
(g290
g3
Ntp578
Rp579
(dp580
g294
g1
(g295
g296
(lp581
g1
(g298
g3
Ntp582
Rp583
(dp584
g302
V1664
p585
sbatp586
Rp587
(dp588
g307
(dp589
sbsbsg15
g93
sg17
g18
sg19
g20
sg21
g309
sg23
(lp590
g1
(g25
g3
Ntp591
Rp592
(dp593
g29
V214
p594
sg31
VHeracross
p595
sg33
g34
sg35
V52
p596
sg37
(lp597
Vfeint
p598
aVclose-combat
p599
aVnight-slash
p600
aVchip-away
p601
asg43
g44
sg45
Vguts
p602
sbag1
(g25
g3
Ntp603
Rp604
(dp605
g29
V534
p606
sg31
VConkeldurr
p607
sg33
g34
sg35
V52
p608
sg37
(lp609
Vwake-up-slap
p610
aVhammer-arm
p611
aVstone-edge
p612
aVchip-away
p613
asg43
g44
sg45
Vsheer-force
p614
sbag1
(g25
g3
Ntp615
Rp616
(dp617
g29
V526
p618
sg31
VGigalith
p619
sg33
g34
sg35
V52
p620
sg37
(lp621
Vpower-gem
p622
aVstone-edge
p623
aVstealth-rock
p624
aVsmack-down
p625
asg43
g44
sg45
Vsand-stream
p626
sbasg83
I00
sg84
g323
sba.