(lp0
ccopy_reg
_reconstructor
p1
(c__main__
Trainer
p2
c__builtin__
object
p3
Ntp4
Rp5
(dp6
VtSprite
p7
VSpr BW Youngster.png
p8
sVtClass
p9
VYoungster
p10
sVtName
p11
VJimmy
p12
sVtMoney
p13
V112
p14
sVtPokeCount
p15
V1
p16
sVtLocation
p17
Vwiki/Unova_Route_2
p18
sVtRegion
p19
VUnova
p20
sVtGame
p21
VBW
p22
sVtPokes
p23
(lp24
g1
(c__main__
FinishedPokemon
p25
g3
Ntp26
Rp27
(dp28
VpDexNo
p29
V504
p30
sVpSpecies
p31
VPatrat
p32
sVpGender
p33
VM
p34
sVpLevel
p35
V7
p36
sVpMoves
p37
(lp38
Vbaton-pass
p39
aVcrunch
p40
aVafter-you
p41
aVwork-up
p42
asVpHold
p43
V
p44
sVpAbility
p45
Vkeen-eye
p46
sbasVbossFlag
p47
I00
sVtLongGame
p48
Vblack-white
p49
sbag1
(g2
g3
Ntp50
Rp51
(dp52
g7
VSpr BW Lass.png
p53
sg9
VLass
p54
sg11
VMali
p55
sg13
V112
p56
sg15
g16
sg17
g18
sg19
g20
sg21
g22
sg23
(lp57
g1
(g25
g3
Ntp58
Rp59
(dp60
g29
V509
p61
sg31
VPurrloin
p62
sg33
VF
p63
sg35
g36
sg37
(lp64
Vnight-slash
p65
aVnasty-plot
p66
aVcaptivate
p67
aVhone-claws
p68
asg43
g44
sg45
Vlimber
p69
sbasg47
I00
sg48
g49
sbag1
(g2
g3
Ntp70
Rp71
(dp72
g7
VSpr BW Youngster.png
p73
sg9
VYoungster
p74
sg11
VRoland
p75
sg13
V112
p76
sg15
g16
sg17
g18
sg19
g20
sg21
g22
sg23
(lp77
g1
(g25
g3
Ntp78
Rp79
(dp80
g29
V506
p81
sg31
VLillipup
p82
sg33
g34
sg35
g36
sg37
(lp83
Vlast-resort
p84
aVgiga-impact
p85
aVretaliate
p86
aVwork-up
p87
asg43
g44
sg45
Vvital-spirit
p88
sbasg47
I00
sg48
g49
sbag1
(g2
g3
Ntp89
Rp90
(dp91
g7
VSpr B2W2 Youngster.png
p92
sg9
VYoungster
p93
sg11
VMikey
p94
sg13
g1
(cmwparserfromhell.wikicode
Wikicode
p95
g3
Ntp96
Rp97
(dp98
V_nodes
p99
g1
(cmwparserfromhell.smart_list.smart_list
SmartList
p100
c__builtin__
list
p101
(lp102
g1
(cmwparserfromhell.nodes.text
Text
p103
g3
Ntp104
Rp105
(dp106
V_value
p107
V976
p108
sbatp109
Rp110
(dp111
V_children
p112
(dp113
sbsbsg15
V5
p114
sg17
g18
sg19
g20
sg21
VB2W2
p115
sg23
(lp116
g1
(g25
g3
Ntp117
Rp118
(dp119
g29
V015
p120
sg31
VBeedrill
p121
sg33
g34
sg35
V61
p122
sg37
(lp123
Vendeavor
p124
aVassurance
p125
aVtoxic-spikes
p126
aVpoison-jab
p127
asg43
g44
sg45
Vswarm
p128
sbag1
(g25
g3
Ntp129
Rp130
(dp131
g29
V269
p132
sg31
VDustox
p133
sg33
g34
sg35
V61
p134
sg37
(lp135
Vmoonlight
p136
aVsilver-wind
p137
aVbug-buzz
p138
aVquiver-dance
p139
asg43
g44
sg45
Vshield-dust
p140
sbag1
(g25
g3
Ntp141
Rp142
(dp143
g29
V313
p144
sg31
VVolbeat
p145
sg33
g34
sg35
V61
p146
sg37
(lp147
Vtail-glow
p148
aVsignal-beam
p149
aVbug-buzz
p150
aVzen-headbutt
p151
asg43
g44
sg45
Vswarm
p152
sbag1
(g25
g3
Ntp153
Rp154
(dp155
g29
V414
p156
sg31
VMothim
p157
sg33
g34
sg35
V61
p158
sg37
(lp159
Vair-slash
p160
aVbug-buzz
p161
aVbug-bite
p162
aVquiver-dance
p163
asg43
g44
sg45
Vswarm
p164
sbag1
(g25
g3
Ntp165
Rp166
(dp167
g29
V545
p168
sg31
VScolipede
p169
sg33
g34
sg35
V61
p170
sg37
(lp171
Vrock-climb
p172
aVbug-bite
p173
aVvenoshock
p174
aVsteamroller
p175
asg43
g44
sg45
Vpoison-point
p176
sbasg47
I00
sg48
Vblack-2-white-2
p177
sbag1
(g2
g3
Ntp178
Rp179
(dp180
g7
VSpr B2W2 Lass.png
p181
sg9
VLass
p182
sg11
VHenrietta
p183
sg13
g1
(g95
g3
Ntp184
Rp185
(dp186
g99
g1
(g100
g101
(lp187
g1
(g103
g3
Ntp188
Rp189
(dp190
g107
V976
p191
sbatp192
Rp193
(dp194
g112
(dp195
sbsbsg15
g114
sg17
g18
sg19
g20
sg21
g115
sg23
(lp196
g1
(g25
g3
Ntp197
Rp198
(dp199
g29
V012
p200
sg31
VButterfree
p201
sg33
g63
sg35
V61
p202
sg37
(lp203
Vbug-buzz
p204
aVcaptivate
p205
aVrage-powder
p206
aVquiver-dance
p207
asg43
g44
sg45
Vcompound-eyes
p208
sbag1
(g25
g3
Ntp209
Rp210
(dp211
g29
V267
p212
sg31
VBeautifly
p213
sg33
g63
sg35
V61
p214
sg37
(lp215
Vmorning-sun
p216
aVsilver-wind
p217
aVbug-buzz
p218
aVquiver-dance
p219
asg43
g44
sg45
Vswarm
p220
sbag1
(g25
g3
Ntp221
Rp222
(dp223
g29
V314
p224
sg31
VIllumise
p225
sg33
g63
sg35
V61
p226
sg37
(lp227
Vwish
p228
aVcovet
p229
aVbug-buzz
p230
aVzen-headbutt
p231
asg43
g44
sg45
Voblivious
p232
sbasg47
I00
sg48
g177
sbag1
(g2
g3
Ntp233
Rp234
(dp235
g7
VSpr B2W2 Youngster.png
p236
sg9
VYoungster
p237
sg11
VJimmy
p238
sg13
g1
(g95
g3
Ntp239
Rp240
(dp241
g99
g1
(g100
g101
(lp242
g1
(g103
g3
Ntp243
Rp244
(dp245
g107
V976
p246
sbatp247
Rp248
(dp249
g112
(dp250
sbsbsg15
g114
sg17
g18
sg19
g20
sg21
g115
sg23
(lp251
g1
(g25
g3
Ntp252
Rp253
(dp254
g29
V019
p255
sg31
VRattata
p256
sg33
g63
sg35
V61
p257
sg37
(lp258
Vcrunch
p259
aVendeavor
p260
aVassurance
p261
aVsucker-punch
p262
asg43
g44
sg45
Vguts
p263
sbag1
(g25
g3
Ntp264
Rp265
(dp266
g29
V161
p267
sg31
VSentret
p268
sg33
g34
sg35
V61
p269
sg37
(lp270
Vhelping-hand
p271
aVhyper-voice
p272
aVme-first
p273
aVsucker-punch
p274
asg43
g44
sg45
Vkeen-eye
p275
sbag1
(g25
g3
Ntp276
Rp277
(dp278
g29
V263
p279
sg31
VZigzagoon
p280
sg33
g34
sg35
V61
p281
sg37
(lp282
Vodor-sleuth
p283
aVcovet
p284
aVfling
p285
aVbestow
p286
asg43
g44
sg45
Vgluttony
p287
sbag1
(g25
g3
Ntp288
Rp289
(dp290
g29
V399
p291
sg31
VBidoof
p292
sg33
g63
sg35
V61
p293
sg37
(lp294
Vcurse
p295
aVrollout
p296
aVsuperpower
p297
aVyawn
p298
asg43
g44
sg45
Vsimple
p299
sbag1
(g25
g3
Ntp300
Rp301
(dp302
g29
V505
p303
sg31
VWatchog
p304
sg33
g63
sg35
V61
p305
sg37
(lp306
Vbaton-pass
p307
aVcrunch
p308
aVpsych-up
p309
aVafter-you
p310
asg43
g44
sg45
Vkeen-eye
p311
sbasg47
I00
sg48
g177
sbag1
(g2
g3
Ntp312
Rp313
(dp314
g7
VSpr B2W2 Veteran M.png
p315
sg9
VVeteran
p316
sg11
VRayne
p317
sg13
g1
(g95
g3
Ntp318
Rp319
(dp320
g99
g1
(g100
g101
(lp321
g1
(g103
g3
Ntp322
Rp323
(dp324
g107
V5280
p325
sbatp326
Rp327
(dp328
g112
(dp329
sbsbsg15
V4
p330
sg17
g18
sg19
g20
sg21
g115
sg23
(lp331
g1
(g25
g3
Ntp332
Rp333
(dp334
g29
V284
p335
sg31
VMasquerain
p336
sg33
g63
sg35
V66
p337
sg37
(lp338
Vair-slash
p339
aVbug-buzz
p340
aVominous-wind
p341
aVquiver-dance
p342
asg43
g44
sg45
Vintimidate
p343
sbag1
(g25
g3
Ntp344
Rp345
(dp346
g29
V462
p347
sg31
VMagnezone
p348
sg33
VU
p349
sg35
V66
p350
sg37
(lp351
Vflash-cannon
p352
aVdischarge
p353
aVmagnet-bomb
p354
aVelectro-ball
p355
asg43
g44
sg45
Vmagnet-pull
p356
sbag1
(g25
g3
Ntp357
Rp358
(dp359
g29
V148
p360
sg31
VDragonair
p361
sg33
g63
sg35
V66
p362
sg37
(lp363
Vdragon-dance
p364
aVaqua-tail
p365
aVdragon-rush
p366
aVdragon-tail
p367
asg43
g44
sg45
Vshed-skin
p368
sbag1
(g25
g3
Ntp369
Rp370
(dp371
g29
V080
p372
sg31
VSlowbro
p373
sg33
g34
sg35
V66
p374
sg37
(lp375
Vslack-off
p376
aVwater-pulse
p377
aVzen-headbutt
p378
aVheal-pulse
p379
asg43
g44
sg45
Voblivious
p380
sbasg47
I00
sg48
g177
sbag1
(g2
g3
Ntp381
Rp382
(dp383
g7
VSpr B2W2 Lass.png
p384
sg9
VLass
p385
sg11
VMali
p386
sg13
g1
(g95
g3
Ntp387
Rp388
(dp389
g99
g1
(g100
g101
(lp390
g1
(g103
g3
Ntp391
Rp392
(dp393
g107
V976
p394
sbatp395
Rp396
(dp397
g112
(dp398
sbsbsg15
g114
sg17
g18
sg19
g20
sg21
g115
sg23
(lp399
g1
(g25
g3
Ntp400
Rp401
(dp402
g29
V016
p403
sg31
VPidgey
p404
sg33
g63
sg35
V61
p405
sg37
(lp406
Vroost
p407
aVtailwind
p408
aVair-slash
p409
aVhurricane
p410
asg43
g44
sg45
Vtangled-feet
p411
sbag1
(g25
g3
Ntp412
Rp413
(dp414
g29
V163
p415
sg31
VHoothoot
p416
sg33
g63
sg35
V61
p417
sg37
(lp418
Vair-slash
p419
aVzen-headbutt
p420
aVsynchronoise
p421
aVechoed-voice
p422
asg43
g44
sg45
Vkeen-eye
p423
sbag1
(g25
g3
Ntp424
Rp425
(dp426
g29
V276
p427
sg31
VTaillow
p428
sg33
g63
sg35
V61
p429
sg37
(lp430
Vfocus-energy
p431
aVendeavor
p432
aVaerial-ace
p433
aVair-slash
p434
asg43
g44
sg45
Vguts
p435
sbag1
(g25
g3
Ntp436
Rp437
(dp438
g29
V396
p439
sg31
VStarly
p440
sg33
g63
sg35
V61
p441
sg37
(lp442
Vendeavor
p443
aVaerial-ace
p444
aVbrave-bird
p445
aVfinal-gambit
p446
asg43
g44
sg45
Vkeen-eye
p447
sbag1
(g25
g3
Ntp448
Rp449
(dp450
g29
V521
p451
sg31
VUnfezant
p452
sg33
g63
sg35
V61
p453
sg37
(lp454
Vair-cutter
p455
aVroost
p456
aVtailwind
p457
aVair-slash
p458
asg43
g44
sg45
Vsuper-luck
p459
sbasg47
I00
sg48
g177
sbag1
(g2
g3
Ntp460
Rp461
(dp462
g7
VSpr B2W2 Veteran F.png
p463
sg9
VVeteran
p464
sg11
VOriana
p465
sg13
g1
(g95
g3
Ntp466
Rp467
(dp468
g99
g1
(g100
g101
(lp469
g1
(g103
g3
Ntp470
Rp471
(dp472
g107
V5280
p473
sbatp474
Rp475
(dp476
g112
(dp477
sbsbsg15
g330
sg17
g18
sg19
g20
sg21
g115
sg23
(lp478
sg47
I00
sg48
g177
sbag1
(g2
g3
Ntp479
Rp480
(dp481
g7
VSpr BW Bianca.png
p482
sg9
VPokemon Trainer
p483
sg11
VBianca
p484
sg13
V700
p485
sg15
I2
sg17
g18
sg19
g20
sg21
g22
sg23
(lp486
g1
(g25
g3
Ntp487
Rp488
(dp489
g29
I506
sg31
VLillipup
p490
sg33
g63
sg35
V6
p491
sg37
(lp492
VLeer
p493
aVTackle
p494
aVOdor Sleuth
p495
asg43
g44
sg45
VVital Spirit
p496
sbag1
(g25
g3
Ntp497
Rp498
(dp499
g29
I501
sg31
VOshawott
p500
sg33
g34
sg35
g36
sg37
(lp501
VTackle
p502
aVTail Whip
p503
aVWater Gun
p504
asg43
g44
sg45
VTorrent
p505
sbasg47
I01
sg48
g49
sbag1
(g2
g3
Ntp506
Rp507
(dp508
g7
VSpr BW Bianca.png
p509
sg9
VPokemon Trainer
p510
sg11
VBianca
p511
sg13
V700
p512
sg15
I2
sg17
g18
sg19
g20
sg21
g22
sg23
(lp513
g1
(g25
g3
Ntp514
Rp515
(dp516
g29
I506
sg31
VLillipup
p517
sg33
g63
sg35
g491
sg37
(lp518
VLeer
p519
aVTackle
p520
aVOdor Sleuth
p521
asg43
g44
sg45
VVital Spirit
p522
sbag1
(g25
g3
Ntp523
Rp524
(dp525
g29
I495
sg31
VSnivy
p526
sg33
g34
sg35
g36
sg37
(lp527
VTackle
p528
aVLeer
p529
aVVine Whip
p530
asg43
g44
sg45
VOvergrow
p531
sbasg47
I01
sg48
g49
sbag1
(g2
g3
Ntp532
Rp533
(dp534
g7
VSpr BW Bianca.png
p535
sg9
VPokemon Trainer
p536
sg11
VBianca
p537
sg13
V700
p538
sg15
I2
sg17
g18
sg19
g20
sg21
g22
sg23
(lp539
g1
(g25
g3
Ntp540
Rp541
(dp542
g29
I506
sg31
VLillipup
p543
sg33
g63
sg35
g491
sg37
(lp544
VLeer
p545
aVTackle
p546
aVOdor Sleuth
p547
asg43
g44
sg45
VVital Spirit
p548
sbag1
(g25
g3
Ntp549
Rp550
(dp551
g29
I498
sg31
VTepig
p552
sg33
g34
sg35
g36
sg37
(lp553
VTackle
p554
aVTail Whip
p555
aVEmber
p556
asg43
g44
sg45
VBlaze
p557
sbasg47
I01
sg48
g49
sba.