(lp0
ccopy_reg
_reconstructor
p1
(c__main__
Trainer
p2
c__builtin__
object
p3
Ntp4
Rp5
(dp6
VtSprite
p7
VSpr B2W2 Swimmer F.png
p8
sVtClass
p9
VSwimmer
p10
sVtName
p11
VDesiree
p12
sVtMoney
p13
g1
(cmwparserfromhell.wikicode
Wikicode
p14
g3
Ntp15
Rp16
(dp17
V_nodes
p18
g1
(cmwparserfromhell.smart_list.smart_list
SmartList
p19
c__builtin__
list
p20
(lp21
g1
(cmwparserfromhell.nodes.text
Text
p22
g3
Ntp23
Rp24
(dp25
V_value
p26
V736
p27
sbatp28
Rp29
(dp30
V_children
p31
(dp32
sbsbsVtPokeCount
p33
V1
p34
sVtLocation
p35
Vwiki/Unova_Route_21
p36
sVtRegion
p37
VUnova
p38
sVtGame
p39
VB2W2
p40
sVtPokes
p41
(lp42
g1
(c__main__
FinishedPokemon
p43
g3
Ntp44
Rp45
(dp46
VpDexNo
p47
V321
p48
sVpSpecies
p49
VWailord
p50
sVpGender
p51
VF
p52
sVpLevel
p53
V46
p54
sVpMoves
p55
(lp56
Vbounce
p57
aVwater-pulse
p58
aVbrine
p59
aVheavy-slam
p60
asVpHold
p61
V
p62
sVpAbility
p63
Voblivious
p64
sbasVbossFlag
p65
I00
sVtLongGame
p66
Vblack-2-white-2
p67
sbag1
(g2
g3
Ntp68
Rp69
(dp70
g7
VSpr B2W2 Swimmer F.png
p71
sg9
VSwimmer
p72
sg11
VKaoru
p73
sg13
g1
(g14
g3
Ntp74
Rp75
(dp76
g18
g1
(g19
g20
(lp77
g1
(g22
g3
Ntp78
Rp79
(dp80
g26
V720
p81
sbatp82
Rp83
(dp84
g31
(dp85
sbsbsg33
V2
p86
sg35
g36
sg37
g38
sg39
g40
sg41
(lp87
g1
(g43
g3
Ntp88
Rp89
(dp90
g47
V223
p91
sg49
VRemoraid
p92
sg51
g52
sg53
V45
p93
sg55
(lp94
Vsignal-beam
p95
aVbullet-seed
p96
aVwater-pulse
p97
aVsoak
p98
asg61
g62
sg63
Vsniper
p99
sbag1
(g43
g3
Ntp100
Rp101
(dp102
g47
V223
p103
sg49
VRemoraid
p104
sg51
g52
sg53
V45
p105
sg55
(lp106
Vsignal-beam
p107
aVbullet-seed
p108
aVwater-pulse
p109
aVsoak
p110
asg61
g62
sg63
Vhustle
p111
sbasg65
I00
sg66
g67
sbag1
(g2
g3
Ntp112
Rp113
(dp114
g7
VSpr B2W2 Swimmer M.png
p115
sg9
VSwimmer
p116
sg11
VHarold
p117
sg13
g1
(g14
g3
Ntp118
Rp119
(dp120
g18
g1
(g19
g20
(lp121
g1
(g22
g3
Ntp122
Rp123
(dp124
g26
V736
p125
sbatp126
Rp127
(dp128
g31
(dp129
sbsbsg33
g34
sg35
g36
sg37
g38
sg39
g40
sg41
(lp130
g1
(g43
g3
Ntp131
Rp132
(dp133
g47
V224
p134
sg49
VOctillery
p135
sg51
VM
p136
sg53
V46
p137
sg55
(lp138
Vrock-blast
p139
aVwring-out
p140
aVgunk-shot
p141
aVsoak
p142
asg61
g62
sg63
Vsniper
p143
sbasg65
I00
sg66
g67
sbag1
(g2
g3
Ntp144
Rp145
(dp146
g7
VSpr B2W2 Black Belt.png
p147
sg9
VBlack Belt
p148
sg11
VKenneth
p149
sg13
g1
(g14
g3
Ntp150
Rp151
(dp152
g18
g1
(g19
g20
(lp153
g1
(g22
g3
Ntp154
Rp155
(dp156
g26
V1504
p157
sbatp158
Rp159
(dp160
g31
(dp161
sbsbsg33
g34
sg35
g36
sg37
g38
sg39
g40
sg41
(lp162
g1
(g43
g3
Ntp163
Rp164
(dp165
g47
V558
p166
sg49
VCrustle
p167
sg51
g136
sg53
V47
p168
sg55
(lp169
Vbug-bite
p170
aVsmack-down
p171
aVshell-smash
p172
ag172
asg61
g62
sg63
Vsturdy
p173
sbasg65
I00
sg66
g67
sbag1
(g2
g3
Ntp174
Rp175
(dp176
g7
VSpr B2W2 Swimmer M.png
p177
sg9
VSwimmer
p178
sg11
VKyle
p179
sg13
g1
(g14
g3
Ntp180
Rp181
(dp182
g18
g1
(g19
g20
(lp183
g1
(g22
g3
Ntp184
Rp185
(dp186
g26
V720
p187
sbatp188
Rp189
(dp190
g31
(dp191
sbsbsg33
g86
sg35
g36
sg37
g38
sg39
g40
sg41
(lp192
g1
(g43
g3
Ntp193
Rp194
(dp195
g47
V278
p196
sg49
VWingull
p197
sg51
g136
sg53
V45
p198
sg55
(lp199
Vwater-pulse
p200
aVroost
p201
aVair-slash
p202
aVhurricane
p203
asg61
g62
sg63
Vhydration
p204
sbag1
(g43
g3
Ntp205
Rp206
(dp207
g47
V278
p208
sg49
VWingull
p209
sg51
g136
sg53
V45
p210
sg55
(lp211
Vwater-pulse
p212
aVroost
p213
aVair-slash
p214
aVhurricane
p215
asg61
g62
sg63
Vkeen-eye
p216
sbasg65
I00
sg66
g67
sbag1
(g2
g3
Ntp217
Rp218
(dp219
g7
VSpr B2W2 Doctor.png
p220
sg9
VDoctor
p221
sg11
VBraid
p222
sg13
g1
(g14
g3
Ntp223
Rp224
(dp225
g18
g1
(g19
g20
(lp226
g1
(g22
g3
Ntp227
Rp228
(dp229
g26
V2760
p230
sbatp231
Rp232
(dp233
g31
(dp234
sbsbsg33
g34
sg35
g36
sg37
g38
sg39
g40
sg41
(lp235
g1
(g43
g3
Ntp236
Rp237
(dp238
g47
V594
p239
sg49
VAlomomola
p240
sg51
g136
sg53
V46
p241
sg55
(lp242
Vaqua-jet
p243
aVwide-guard
p244
aVsoak
p245
aVheal-pulse
p246
asg61
g62
sg63
Vhealer
p247
sbasg65
I00
sg66
g67
sbag1
(g2
g3
Ntp248
Rp249
(dp250
g7
VSpr B2W2 Fisherman.png
p251
sg9
VFisherman
p252
sg11
VKenzo
p253
sg13
g1
(g14
g3
Ntp254
Rp255
(dp256
g18
g1
(g19
g20
(lp257
g1
(g22
g3
Ntp258
Rp259
(dp260
g26
V1408
p261
sbatp262
Rp263
(dp264
g31
(dp265
sbsbsg33
V3
p266
sg35
g36
sg37
g38
sg39
g40
sg41
(lp267
g1
(g43
g3
Ntp268
Rp269
(dp270
g47
V592
p271
sg49
VFrillish
p272
sg51
g136
sg53
V44
p273
sg55
(lp274
Vbrine
p275
aVwring-out
p276
aVominous-wind
p277
aVhex
p278
asg61
g62
sg63
Vwater-absorb
p279
sbag1
(g43
g3
Ntp280
Rp281
(dp282
g47
V592
p283
sg49
VFrillish
p284
sg51
g52
sg53
V44
p285
sg55
(lp286
Vbrine
p287
aVwring-out
p288
aVominous-wind
p289
aVhex
p290
asg61
g62
sg63
Vwater-absorb
p291
sbag1
(g43
g3
Ntp292
Rp293
(dp294
g47
V592
p295
sg49
VFrillish
p296
sg51
g52
sg53
V44
p297
sg55
(lp298
Vbrine
p299
aVwring-out
p300
aVominous-wind
p301
aVhex
p302
asg61
g62
sg63
Vwater-absorb
p303
sbasg65
I00
sg66
g67
sba.