(lp0
ccopy_reg
_reconstructor
p1
(c__main__
Trainer
p2
c__builtin__
object
p3
Ntp4
Rp5
(dp6
VtSprite
p7
VSpr DP Galactic Grunt M.png
p8
sVtClass
p9
VGalactic Grunt
p10
sVtName
p11
V
p12
sVtMoney
p13
V440
p14
sVtPokeCount
p15
V1
p16
sVtLocation
p17
Vwiki/Valley_Windworks
p18
sVtRegion
p19
VSinnoh
p20
sVtGame
p21
VDP
p22
sVtPokes
p23
(lp24
g1
(c__main__
FinishedPokemon
p25
g3
Ntp26
Rp27
(dp28
VpDexNo
p29
V431
p30
sVpSpecies
p31
VGlameow
p32
sVpGender
p33
VF
p34
sVpLevel
p35
V11
p36
sVpMoves
p37
(lp38
Vfake-out
p39
aVassist
p40
aVsucker-punch
p41
aVcaptivate
p42
asVpHold
p43
g12
sVpAbility
p44
Vown-tempo
p45
sbasVbossFlag
p46
I00
sVtLongGame
p47
Vdiamond-pearl
p48
sbag1
(g2
g3
Ntp49
Rp50
(dp51
g7
VSpr DP Galactic Grunt M.png
p52
sg9
VGalactic Grunt
p53
sg11
g12
sg13
V440
p54
sg15
g16
sg17
g18
sg19
g20
sg21
g22
sg23
(lp55
g1
(g25
g3
Ntp56
Rp57
(dp58
g29
V268
p59
sg31
VCascoon
p60
sg33
VM
p61
sg35
V11
p62
sg37
(lp63
Vharden
p64
ag64
asg43
g12
sg44
Vshed-skin
p65
sbasg46
I00
sg47
g48
sbag1
(g2
g3
Ntp66
Rp67
(dp68
g7
VSpr DP Galactic Grunt M.png
p69
sg9
VGalactic Grunt
p70
sg11
g12
sg13
V400
p71
sg15
V2
p72
sg17
g18
sg19
g20
sg21
g22
sg23
(lp73
g1
(g25
g3
Ntp74
Rp75
(dp76
g29
V265
p77
sg31
VWurmple
p78
sg33
g61
sg35
V10
p79
sg37
(lp80
Vtackle
p81
aVpoison-sting
p82
aVstring-shot
p83
asg43
g12
sg44
Vshield-dust
p84
sbag1
(g25
g3
Ntp85
Rp86
(dp87
g29
V431
p88
sg31
VGlameow
p89
sg33
g34
sg35
V10
p90
sg37
(lp91
Vfake-out
p92
aVassist
p93
aVsucker-punch
p94
aVcaptivate
p95
asg43
g12
sg44
Vlimber
p96
sbasg46
I00
sg47
g48
sbag1
(g2
g3
Ntp97
Rp98
(dp99
g7
VSpr DP Galactic Grunt M.png
p100
sg9
VGalactic Grunt
p101
sg11
g12
sg13
V520
p102
sg15
g16
sg17
g18
sg19
g20
sg21
g22
sg23
(lp103
g1
(g25
g3
Ntp104
Rp105
(dp106
g29
V431
p107
sg31
VGlameow
p108
sg33
g34
sg35
V13
p109
sg37
(lp110
Vfake-out
p111
aVassist
p112
aVsucker-punch
p113
aVcaptivate
p114
asg43
g12
sg44
Vlimber
p115
sbasg46
I00
sg47
g48
sbag1
(g2
g3
Ntp116
Rp117
(dp118
g7
VSpr DP Galactic Grunt M.png
p119
sg9
VGalactic Grunt
p120
sg11
g12
sg13
V520
p121
sg15
g16
sg17
g18
sg19
g20
sg21
g22
sg23
(lp122
g1
(g25
g3
Ntp123
Rp124
(dp125
g29
V041
p126
sg31
VZubat
p127
sg33
g61
sg35
V13
p128
sg37
(lp129
Vpoison-fang
p130
aVastonish
p131
aVair-cutter
p132
aVair-slash
p133
asg43
g12
sg44
Vinner-focus
p134
sbasg46
I00
sg47
g48
sbag1
(g2
g3
Ntp135
Rp136
(dp137
g7
VSpr DP Galactic Grunt M.png
p138
sg9
VGalactic Grunt
p139
sg11
g12
sg13
V440
p140
sg15
g72
sg17
g18
sg19
g20
sg21
g22
sg23
(lp141
g1
(g25
g3
Ntp142
Rp143
(dp144
g29
V431
p145
sg31
VGlameow
p146
sg33
g34
sg35
V11
p147
sg37
(lp148
Vfake-out
p149
aVassist
p150
aVsucker-punch
p151
aVcaptivate
p152
asg43
g12
sg44
Vown-tempo
p153
sbag1
(g25
g3
Ntp154
Rp155
(dp156
g29
V434
p157
sg31
VStunky
p158
sg33
g61
sg35
V11
p159
sg37
(lp160
Vfury-swipes
p161
aVslash
p162
aVmemento
p163
aVnight-slash
p164
asg43
g12
sg44
Vaftermath
p165
sbasg46
I00
sg47
g48
sbag1
(g2
g3
Ntp166
Rp167
(dp168
g7
VSpr DP Mars.png 
p169
sg9
VCommander
p170
sg11
VMars
p171
sg13
V1280
p172
sg15
I2
sg17
g18
sg19
g20
sg21
g22
sg23
(lp173
g1
(g25
g3
Ntp174
Rp175
(dp176
g29
I41
sg31
VZubat
p177
sg33
g34
sg35
V14
p178
sg37
(lp179
VBite
p180
aVLeech Life
p181
aVToxic
p182
asg43
g12
sg44
VInner Focus
p183
sbag1
(g25
g3
Ntp184
Rp185
(dp186
g29
I432
sg31
VPurugly
p187
sg33
g34
sg35
V16
p188
sg37
(lp189
VFake Out
p190
aVScratch
p191
aVFaint Attack
p192
asg43
VOran Berry
p193
sg44
VThick Fat
p194
sbasg46
I01
sg47
g48
sbag1
(g2
g3
Ntp195
Rp196
(dp197
g7
VSpr DP Mars.png
p198
sg9
VCommander
p199
sg11
VMars
p200
sg13
V1360
p201
sg15
I2
sg17
g18
sg19
g20
sg21
g22
sg23
(lp202
g1
(g25
g3
Ntp203
Rp204
(dp205
g29
I41
sg31
VZubat
p206
sg33
g34
sg35
V15
p207
sg37
(lp208
VBite
p209
aVLeech Life
p210
aVToxic
p211
asg43
g12
sg44
VInner Focus
p212
sbag1
(g25
g3
Ntp213
Rp214
(dp215
g29
I432
sg31
VPurugly
p216
sg33
g34
sg35
V17
p217
sg37
(lp218
VFake Out
p219
aVScratch
p220
aVFaint Attack
p221
asg43
VOran Berry
p222
sg44
VThick Fat
p223
sbasg46
I01
sg47
g48
sba.