(lp0
ccopy_reg
_reconstructor
p1
(c__main__
Trainer
p2
c__builtin__
object
p3
Ntp4
Rp5
(dp6
VtSprite
p7
VSpr DP Galactic Grunt M.png
p8
sVtClass
p9
VGalactic Grunt
p10
sVtName
p11
V
p12
sVtMoney
p13
V1000
p14
sVtPokeCount
p15
V1
p16
sVtLocation
p17
Vwiki/Valor_Lakefront
p18
sVtRegion
p19
VSinnoh
p20
sVtGame
p21
VDP
p22
sVtPokes
p23
(lp24
g1
(c__main__
FinishedPokemon
p25
g3
Ntp26
Rp27
(dp28
VpDexNo
p29
V431
p30
sVpSpecies
p31
VGlameow
p32
sVpGender
p33
VF
p34
sVpLevel
p35
V25
p36
sVpMoves
p37
(lp38
Vfake-out
p39
aVassist
p40
aVsucker-punch
p41
aVcaptivate
p42
asVpHold
p43
g12
sVpAbility
p44
Vlimber
p45
sbasVbossFlag
p46
I00
sVtLongGame
p47
Vdiamond-pearl
p48
sbag1
(g2
g3
Ntp49
Rp50
(dp51
g7
VSpr DP Galactic Grunt M.png
p52
sg9
VGalactic Grunt
p53
sg11
g12
sg13
V1240
p54
sg15
g16
sg17
g18
sg19
g20
sg21
g22
sg23
(lp55
g1
(g25
g3
Ntp56
Rp57
(dp58
g29
V453
p59
sg31
VCroagunk
p60
sg33
VM
p61
sg35
V31
p62
sg37
(lp63
Vsucker-punch
p64
aVpoison-jab
p65
aVnasty-plot
p66
aVmud-bomb
p67
asg43
g12
sg44
Vdry-skin
p68
sbasg46
I00
sg47
g48
sba.