(lp0
ccopy_reg
_reconstructor
p1
(c__main__
Trainer
p2
c__builtin__
object
p3
Ntp4
Rp5
(dp6
VtSprite
p7
VSpr DP Galactic Grunt M.png
p8
sVtClass
p9
VGalactic Grunt
p10
sVtName
p11
V
p12
sVtMoney
p13
V1000<br><sup>[[Double Battle]] with the following Grunt</sup>
p14
sVtPokeCount
p15
V2
p16
sVtLocation
p17
Vwiki/Veilstone_City
p18
sVtRegion
p19
VSinnoh
p20
sVtGame
p21
VDP
p22
sVtPokes
p23
(lp24
g1
(c__main__
FinishedPokemon
p25
g3
Ntp26
Rp27
(dp28
VpDexNo
p29
V267
p30
sVpSpecies
p31
VBeautifly
p32
sVpGender
p33
VM
p34
sVpLevel
p35
V25
p36
sVpMoves
p37
(lp38
Vattract
p39
aVmorning-sun
p40
aVsilver-wind
p41
aVbug-buzz
p42
asVpHold
p43
g12
sVpAbility
p44
Vswarm
p45
sbag1
(g25
g3
Ntp46
Rp47
(dp48
g29
V434
p49
sg31
VStunky
p50
sg33
g34
sg35
V25
p51
sg37
(lp52
Vfury-swipes
p53
aVslash
p54
aVmemento
p55
aVnight-slash
p56
asg43
g12
sg44
Vstench
p57
sbasVbossFlag
p58
I00
sVtLongGame
p59
Vdiamond-pearl
p60
sbag1
(g2
g3
Ntp61
Rp62
(dp63
g7
VSpr DP Galactic Grunt M.png
p64
sg9
VGalactic Grunt
p65
sg11
g12
sg13
V1000<br><sup>[[Double Battle]] with the previous Grunt</sup>
p66
sg15
g16
sg17
g18
sg19
g20
sg21
g22
sg23
(lp67
g1
(g25
g3
Ntp68
Rp69
(dp70
g29
V269
p71
sg31
VDustox
p72
sg33
g34
sg35
V25
p73
sg37
(lp74
Vprotect
p75
aVmoonlight
p76
aVsilver-wind
p77
aVbug-buzz
p78
asg43
g12
sg44
Vshield-dust
p79
sbag1
(g25
g3
Ntp80
Rp81
(dp82
g29
V453
p83
sg31
VCroagunk
p84
sg33
g34
sg35
V25
p85
sg37
(lp86
Vsucker-punch
p87
aVpoison-jab
p88
aVnasty-plot
p89
aVmud-bomb
p90
asg43
g12
sg44
Vdry-skin
p91
sbasg58
I00
sg59
g60
sbag1
(g2
g3
Ntp92
Rp93
(dp94
g7
VSpr DP Galactic Grunt M.png
p95
sg9
VGalactic Grunt
p96
sg11
g12
sg13
V1040<br><sup>[[Double Battle]] with the following Grunt</sup>
p97
sg15
g16
sg17
g18
sg19
g20
sg21
g22
sg23
(lp98
g1
(g25
g3
Ntp99
Rp100
(dp101
g29
V041
p102
sg31
VZubat
p103
sg33
g34
sg35
V24
p104
sg37
(lp105
Vpoison-fang
p106
aVastonish
p107
aVair-cutter
p108
aVair-slash
p109
asg43
g12
sg44
Vinner-focus
p110
sbag1
(g25
g3
Ntp111
Rp112
(dp113
g29
V434
p114
sg31
VStunky
p115
sg33
g34
sg35
V26
p116
sg37
(lp117
Vfury-swipes
p118
aVslash
p119
aVmemento
p120
aVnight-slash
p121
asg43
g12
sg44
Vstench
p122
sbasg58
I00
sg59
g60
sbag1
(g2
g3
Ntp123
Rp124
(dp125
g7
VSpr DP Galactic Grunt M.png
p126
sg9
VGalactic Grunt
p127
sg11
g12
sg13
V1040<br><sup>[[Double Battle]] with the previous Grunt</sup>
p128
sg15
g16
sg17
g18
sg19
g20
sg21
g22
sg23
(lp129
g1
(g25
g3
Ntp130
Rp131
(dp132
g29
V041
p133
sg31
VZubat
p134
sg33
g34
sg35
V24
p135
sg37
(lp136
Vpoison-fang
p137
aVastonish
p138
aVair-cutter
p139
aVair-slash
p140
asg43
g12
sg44
Vinner-focus
p141
sbag1
(g25
g3
Ntp142
Rp143
(dp144
g29
V453
p145
sg31
VCroagunk
p146
sg33
g34
sg35
V26
p147
sg37
(lp148
Vsucker-punch
p149
aVpoison-jab
p150
aVnasty-plot
p151
aVmud-bomb
p152
asg43
g12
sg44
Vdry-skin
p153
sbasg58
I00
sg59
g60
sbag1
(g2
g3
Ntp154
Rp155
(dp156
g7
VSpr DP Interviewers.png
p157
sg9
VInterviewers
p158
sg11
V[[Roxy and Oli|Roxy & Oli]]
p159
sg13
g1
(cmwparserfromhell.wikicode
Wikicode
p160
g3
Ntp161
Rp162
(dp163
V_nodes
p164
g1
(cmwparserfromhell.smart_list.smart_list
SmartList
p165
c__builtin__
list
p166
(lp167
g1
(cmwparserfromhell.nodes.text
Text
p168
g3
Ntp169
Rp170
(dp171
V_value
p172
V864
p173
sbatp174
Rp175
(dp176
V_children
p177
(dp178
sbsbsg15
g16
sg17
g18
sg19
g20
sg21
g22
sg23
(lp179
g1
(g25
g3
Ntp180
Rp181
(dp182
g29
V081
p183
sg31
VMagnemite
p184
sg33
VU
p185
sg35
V6
p186
sg37
(lp187
Vmagnet-rise
p188
aVmirror-shot
p189
aVdischarge
p190
aVmagnet-bomb
p191
asg43
g12
sg44
Vmagnet-pull
p192
sbag1
(g25
g3
Ntp193
Rp194
(dp195
g29
V280
p196
sg31
VRalts
p197
sg33
g34
sg35
g186
sg37
(lp198
Vimprison
p199
aVmagical-leaf
p200
aVcalm-mind
p201
aVlucky-chant
p202
asg43
g12
sg44
Vsynchronize
p203
sbasg58
I00
sg59
g60
sbag1
(g2
g3
Ntp204
Rp205
(dp206
g7
VSpr DP Interviewers.png
p207
sg9
VInterviewers
p208
sg11
V[[Roxy and Oli|Roxy & Oli]]{{tt|*|Second rematch}}
p209
sg13
V5040
p210
sg15
g16
sg17
g18
sg19
g20
sg21
g22
sg23
(lp211
g1
(g25
g3
Ntp212
Rp213
(dp214
g29
V081
p215
sg31
VMagnemite
p216
sg33
g185
sg35
V35
p217
sg37
(lp218
Vmagnet-rise
p219
aVmirror-shot
p220
aVdischarge
p221
aVmagnet-bomb
p222
asg43
g12
sg44
Vmagnet-pull
p223
sbag1
(g25
g3
Ntp224
Rp225
(dp226
g29
V281
p227
sg31
VKirlia
p228
sg33
g34
sg35
V35
p229
sg37
(lp230
Vimprison
p231
aVmagical-leaf
p232
aVcalm-mind
p233
aVlucky-chant
p234
asg43
g12
sg44
Vtrace
p235
sbasg58
I00
sg59
g60
sbag1
(g2
g3
Ntp236
Rp237
(dp238
g7
VSpr DP Interviewers.png
p239
sg9
VInterviewers
p240
sg11
V[[Roxy and Oli|Roxy & Oli]]{{tt|*|Third rematch}}
p241
sg13
V6768
p242
sg15
g16
sg17
g18
sg19
g20
sg21
g22
sg23
(lp243
g1
(g25
g3
Ntp244
Rp245
(dp246
g29
V082
p247
sg31
VMagneton
p248
sg33
g185
sg35
V47
p249
sg37
(lp250
Vmagnet-rise
p251
aVmirror-shot
p252
aVdischarge
p253
aVmagnet-bomb
p254
asg43
g12
sg44
Vmagnet-pull
p255
sbag1
(g25
g3
Ntp256
Rp257
(dp258
g29
V282
p259
sg31
VGardevoir
p260
sg33
g34
sg35
V47
p261
sg37
(lp262
Vmagical-leaf
p263
aVcalm-mind
p264
aVhealing-wish
p265
aVcaptivate
p266
asg43
g12
sg44
Vsynchronize
p267
sbasg58
I00
sg59
g60
sbag1
(g2
g3
Ntp268
Rp269
(dp270
g7
VSpr DP Interviewers.png
p271
sg9
VInterviewers
p272
sg11
V[[Roxy and Oli|Roxy & Oli]]
p273
sg13
g1
(g160
g3
Ntp274
Rp275
(dp276
g164
g1
(g165
g166
(lp277
g1
(g168
g3
Ntp278
Rp279
(dp280
g172
V7632
p281
sbatp282
Rp283
(dp284
g177
(dp285
sbsbsg15
g16
sg17
g18
sg19
g20
sg21
g22
sg23
(lp286
g1
(g25
g3
Ntp287
Rp288
(dp289
g29
V462
p290
sg31
VMagnezone
p291
sg33
g185
sg35
V53
p292
sg37
(lp293
Vmagnet-rise
p294
aVmirror-shot
p295
aVdischarge
p296
aVmagnet-bomb
p297
asg43
g12
sg44
Vmagnet-pull
p298
sbag1
(g25
g3
Ntp299
Rp300
(dp301
g29
V282
p302
sg31
VGardevoir
p303
sg33
g34
sg35
V53
p304
sg37
(lp305
Vmagical-leaf
p306
aVcalm-mind
p307
aVhealing-wish
p308
aVcaptivate
p309
asg43
g12
sg44
Vtrace
p310
sbasg58
I00
sg59
g60
sbag1
(g2
g3
Ntp311
Rp312
(dp313
g7
VDP Lucas Back.png
p314
sg9
VPokemon Trainer
p315
sg11
VLucas (game)
p316
sg13
Vn/a
p317
sg15
I3
sg17
g18
sg19
g20
sg21
VSM
p318
sg23
(lp319
g1
(g25
g3
Ntp320
Rp321
(dp322
g29
I35
sg31
VClefairy
p323
sg33
VF
p324
sg35
V25
p325
sg37
(lp326
VMetronome
p327
aVSing
p328
aVGravity
p329
aVWake-Up Slap
p330
asg43
g12
sg44
VCute Charm
p331
sbag1
(g25
g3
Ntp332
Rp333
(dp334
g29
I64
sg31
VKadabra
p335
sg33
g34
sg35
V25
p336
sg37
(lp337
VPsybeam
p338
aVPsycho Cut
p339
aVReflect
p340
aVLight Screen
p341
asg43
g12
sg44
VSynchronize
p342
sbag1
(g25
g3
Ntp343
Rp344
(dp345
g29
I394
sg31
VPrinplup
p346
sg33
g185
sg35
V28
p347
sg37
(lp348
VBubbleBeam
p349
aVPeck
p350
aVFury Attack
p351
aVMetal Claw
p352
asg43
g12
sg44
VTorrent
p353
sbasg58
I01
sg59
Vsun-moon
p354
sbag1
(g2
g3
Ntp355
Rp356
(dp357
g7
VDP Dawn Back.png
p358
sg9
VPokemon Trainer
p359
sg11
VDawn (game)
p360
sg13
Vn/a
p361
sg15
I3
sg17
g18
sg19
g20
sg21
VSM
p362
sg23
(lp363
g1
(g25
g3
Ntp364
Rp365
(dp366
g29
I35
sg31
VClefairy
p367
sg33
g324
sg35
V25
p368
sg37
(lp369
VMetronome
p370
aVSing
p371
aVGravity
p372
aVWake-Up Slap
p373
asg43
g12
sg44
VCute Charm
p374
sbag1
(g25
g3
Ntp375
Rp376
(dp377
g29
I64
sg31
VKadabra
p378
sg33
g34
sg35
V25
p379
sg37
(lp380
VPsybeam
p381
aVPsycho Cut
p382
aVReflect
p383
aVLight Screen
p384
asg43
g12
sg44
VSynchronize
p385
sbag1
(g25
g3
Ntp386
Rp387
(dp388
g29
I394
sg31
VPrinplup
p389
sg33
g185
sg35
V28
p390
sg37
(lp391
VBubbleBeam
p392
aVPeck
p393
aVFury Attack
p394
aVMetal Claw
p395
asg43
g12
sg44
VTorrent
p396
sbasg58
I01
sg59
g354
sbag1
(g2
g3
Ntp397
Rp398
(dp399
g7
VDP Lucas Back.png
p400
sg9
VPokemon Trainer
p401
sg11
VLucas (game)
p402
sg13
Vn/a
p403
sg15
I3
sg17
g18
sg19
g20
sg21
g318
sg23
(lp404
g1
(g25
g3
Ntp405
Rp406
(dp407
g29
I35
sg31
VClefairy
p408
sg33
g324
sg35
V25
p409
sg37
(lp410
VMetronome
p411
aVSing
p412
aVGravity
p413
aVWake-Up Slap
p414
asg43
g12
sg44
VCute Charm
p415
sbag1
(g25
g3
Ntp416
Rp417
(dp418
g29
I64
sg31
VKadabra
p419
sg33
g34
sg35
V25
p420
sg37
(lp421
VPsybeam
p422
aVPsycho Cut
p423
aVReflect
p424
aVLight Screen
p425
asg43
g12
sg44
VSynchronize
p426
sbag1
(g25
g3
Ntp427
Rp428
(dp429
g29
I388
sg31
VGrotle
p430
sg33
g185
sg35
V28
p431
sg37
(lp432
VRazor Leaf
p433
aVMega Drain
p434
aVBite
p435
aVCurse
p436
asg43
g12
sg44
VOvergrow
p437
sbasg58
I01
sg59
g354
sbag1
(g2
g3
Ntp438
Rp439
(dp440
g7
VDP Dawn Back.png
p441
sg9
VPokemon Trainer
p442
sg11
VDawn (game)
p443
sg13
Vn/a
p444
sg15
I3
sg17
g18
sg19
g20
sg21
g362
sg23
(lp445
g1
(g25
g3
Ntp446
Rp447
(dp448
g29
I35
sg31
VClefairy
p449
sg33
g324
sg35
V25
p450
sg37
(lp451
VMetronome
p452
aVSing
p453
aVGravity
p454
aVWake-Up Slap
p455
asg43
g12
sg44
VCute Charm
p456
sbag1
(g25
g3
Ntp457
Rp458
(dp459
g29
I64
sg31
VKadabra
p460
sg33
g34
sg35
V25
p461
sg37
(lp462
VPsybeam
p463
aVPsycho Cut
p464
aVReflect
p465
aVLight Screen
p466
asg43
g12
sg44
VSynchronize
p467
sbag1
(g25
g3
Ntp468
Rp469
(dp470
g29
I388
sg31
VGrotle
p471
sg33
g185
sg35
V28
p472
sg37
(lp473
VRazor Leaf
p474
aVMega Drain
p475
aVBite
p476
aVCurse
p477
asg43
g12
sg44
VOvergrow
p478
sbasg58
I01
sg59
g354
sbag1
(g2
g3
Ntp479
Rp480
(dp481
g7
VDP Lucas Back.png
p482
sg9
VPokemon Trainer
p483
sg11
VLucas (game)
p484
sg13
Vn/a
p485
sg15
I3
sg17
g18
sg19
g20
sg21
g318
sg23
(lp486
g1
(g25
g3
Ntp487
Rp488
(dp489
g29
I35
sg31
VClefairy
p490
sg33
g324
sg35
V25
p491
sg37
(lp492
VMetronome
p493
aVSing
p494
aVGravity
p495
aVWake-Up Slap
p496
asg43
g12
sg44
VCute Charm
p497
sbag1
(g25
g3
Ntp498
Rp499
(dp500
g29
I64
sg31
VKadabra
p501
sg33
g34
sg35
V25
p502
sg37
(lp503
VPsybeam
p504
aVPsycho Cut
p505
aVReflect
p506
aVLight Screen
p507
asg43
g12
sg44
VSynchronize
p508
sbag1
(g25
g3
Ntp509
Rp510
(dp511
g29
I391
sg31
VMonferno
p512
sg33
g185
sg35
V28
p513
sg37
(lp514
VFlame Wheel
p515
aVEmber
p516
aVMach Punch
p517
aVFury Swipes
p518
asg43
g12
sg44
VBlaze
p519
sbasg58
I01
sg59
g354
sbag1
(g2
g3
Ntp520
Rp521
(dp522
g7
VDP Dawn Back.png
p523
sg9
VPokemon Trainer
p524
sg11
VDawn (game)
p525
sg13
Vn/a
p526
sg15
I3
sg17
g18
sg19
g20
sg21
g362
sg23
(lp527
g1
(g25
g3
Ntp528
Rp529
(dp530
g29
I35
sg31
VClefairy
p531
sg33
g324
sg35
V25
p532
sg37
(lp533
VMetronome
p534
aVSing
p535
aVGravity
p536
aVWake-Up Slap
p537
asg43
g12
sg44
VCute Charm
p538
sbag1
(g25
g3
Ntp539
Rp540
(dp541
g29
I64
sg31
VKadabra
p542
sg33
g34
sg35
V25
p543
sg37
(lp544
VPsybeam
p545
aVPsycho Cut
p546
aVReflect
p547
aVLight Screen
p548
asg43
g12
sg44
VSynchronize
p549
sbag1
(g25
g3
Ntp550
Rp551
(dp552
g29
I391
sg31
VMonferno
p553
sg33
g185
sg35
V28
p554
sg37
(lp555
VFlame Wheel
p556
aVEmber
p557
aVMach Punch
p558
aVFury Swipes
p559
asg43
g12
sg44
VBlaze
p560
sbasg58
I01
sg59
g354
sbag1
(g2
g3
Ntp561
Rp562
(dp563
g7
VPt Lucas Back.png
p564
sg9
VPokemon Trainer
p565
sg11
VLucas (game)
p566
sg13
Vn/a
p567
sg15
I3
sg17
g18
sg19
g20
sg21
VSM
p568
sg23
(lp569
g1
(g25
g3
Ntp570
Rp571
(dp572
g29
I35
sg31
VClefairy
p573
sg33
g324
sg35
V25
p574
sg37
(lp575
VMetronome
p576
aVSing
p577
aVGravity
p578
aVWake-Up Slap
p579
asg43
g12
sg44
VCute Charm
p580
sbag1
(g25
g3
Ntp581
Rp582
(dp583
g29
I64
sg31
VKadabra
p584
sg33
g34
sg35
V25
p585
sg37
(lp586
VPsybeam
p587
aVPsycho Cut
p588
aVReflect
p589
aVLight Screen
p590
asg43
g12
sg44
VSynchronize
p591
sbag1
(g25
g3
Ntp592
Rp593
(dp594
g29
I394
sg31
VPrinplup
p595
sg33
g185
sg35
V27
p596
sg37
(lp597
VBubbleBeam
p598
aVPeck
p599
aVFury Attack
p600
aVMetal Claw
p601
asg43
g12
sg44
VTorrent
p602
sbasg58
I01
sg59
g354
sbag1
(g2
g3
Ntp603
Rp604
(dp605
g7
VPt Dawn Back.png
p606
sg9
VPokemon Trainer
p607
sg11
VDawn (game)
p608
sg13
Vn/a
p609
sg15
I3
sg17
g18
sg19
g20
sg21
VSM
p610
sg23
(lp611
g1
(g25
g3
Ntp612
Rp613
(dp614
g29
I35
sg31
VClefairy
p615
sg33
g324
sg35
V25
p616
sg37
(lp617
VMetronome
p618
aVSing
p619
aVGravity
p620
aVWake-Up Slap
p621
asg43
g12
sg44
VCute Charm
p622
sbag1
(g25
g3
Ntp623
Rp624
(dp625
g29
I64
sg31
VKadabra
p626
sg33
g34
sg35
V25
p627
sg37
(lp628
VPsybeam
p629
aVPsycho Cut
p630
aVReflect
p631
aVLight Screen
p632
asg43
g12
sg44
VSynchronize
p633
sbag1
(g25
g3
Ntp634
Rp635
(dp636
g29
I394
sg31
VPrinplup
p637
sg33
g185
sg35
V27
p638
sg37
(lp639
VBubbleBeam
p640
aVPeck
p641
aVFury Attack
p642
aVMetal Claw
p643
asg43
g12
sg44
VTorrent
p644
sbasg58
I01
sg59
g354
sbag1
(g2
g3
Ntp645
Rp646
(dp647
g7
VPt Lucas Back.png
p648
sg9
VPokemon Trainer
p649
sg11
VLucas (game)
p650
sg13
Vn/a
p651
sg15
I3
sg17
g18
sg19
g20
sg21
g568
sg23
(lp652
g1
(g25
g3
Ntp653
Rp654
(dp655
g29
I35
sg31
VClefairy
p656
sg33
g324
sg35
V25
p657
sg37
(lp658
VMetronome
p659
aVSing
p660
aVGravity
p661
aVWake-Up Slap
p662
asg43
g12
sg44
VCute Charm
p663
sbag1
(g25
g3
Ntp664
Rp665
(dp666
g29
I64
sg31
VKadabra
p667
sg33
g34
sg35
V25
p668
sg37
(lp669
VPsybeam
p670
aVPsycho Cut
p671
aVReflect
p672
aVLight Screen
p673
asg43
g12
sg44
VSynchronize
p674
sbag1
(g25
g3
Ntp675
Rp676
(dp677
g29
I388
sg31
VGrotle
p678
sg33
g185
sg35
V27
p679
sg37
(lp680
VRazor Leaf
p681
aVMega Drain
p682
aVBite
p683
aVCurse
p684
asg43
g12
sg44
VOvergrow
p685
sbasg58
I01
sg59
g354
sbag1
(g2
g3
Ntp686
Rp687
(dp688
g7
VPt Dawn Back.png
p689
sg9
VPokemon Trainer
p690
sg11
VDawn (game)
p691
sg13
Vn/a
p692
sg15
I3
sg17
g18
sg19
g20
sg21
g610
sg23
(lp693
g1
(g25
g3
Ntp694
Rp695
(dp696
g29
I35
sg31
VClefairy
p697
sg33
g324
sg35
V25
p698
sg37
(lp699
VMetronome
p700
aVSing
p701
aVGravity
p702
aVWake-Up Slap
p703
asg43
g12
sg44
VCute Charm
p704
sbag1
(g25
g3
Ntp705
Rp706
(dp707
g29
I64
sg31
VKadabra
p708
sg33
g34
sg35
V25
p709
sg37
(lp710
VPsybeam
p711
aVPsycho Cut
p712
aVReflect
p713
aVLight Screen
p714
asg43
g12
sg44
VSynchronize
p715
sbag1
(g25
g3
Ntp716
Rp717
(dp718
g29
I388
sg31
VGrotle
p719
sg33
g185
sg35
V27
p720
sg37
(lp721
VRazor Leaf
p722
aVMega Drain
p723
aVBite
p724
aVCurse
p725
asg43
g12
sg44
VOvergrow
p726
sbasg58
I01
sg59
g354
sbag1
(g2
g3
Ntp727
Rp728
(dp729
g7
VPt Lucas Back.png
p730
sg9
VPokemon Trainer
p731
sg11
VLucas (game)
p732
sg13
Vn/a
p733
sg15
I3
sg17
g18
sg19
g20
sg21
g568
sg23
(lp734
g1
(g25
g3
Ntp735
Rp736
(dp737
g29
I35
sg31
VClefairy
p738
sg33
g324
sg35
V25
p739
sg37
(lp740
VMetronome
p741
aVSing
p742
aVGravity
p743
aVWake-Up Slap
p744
asg43
g12
sg44
VCute Charm
p745
sbag1
(g25
g3
Ntp746
Rp747
(dp748
g29
I64
sg31
VKadabra
p749
sg33
g34
sg35
V25
p750
sg37
(lp751
VPsybeam
p752
aVPsycho Cut
p753
aVReflect
p754
aVLight Screen
p755
asg43
g12
sg44
VSynchronize
p756
sbag1
(g25
g3
Ntp757
Rp758
(dp759
g29
I391
sg31
VMonferno
p760
sg33
g185
sg35
V27
p761
sg37
(lp762
VFlame Wheel
p763
aVEmber
p764
aVMach Punch
p765
aVFury Swipes
p766
asg43
g12
sg44
VBlaze
p767
sbasg58
I01
sg59
g354
sbag1
(g2
g3
Ntp768
Rp769
(dp770
g7
VPt Dawn Back.png
p771
sg9
VPokemon Trainer
p772
sg11
VDawn (game)
p773
sg13
Vn/a
p774
sg15
I3
sg17
g18
sg19
g20
sg21
g610
sg23
(lp775
g1
(g25
g3
Ntp776
Rp777
(dp778
g29
I35
sg31
VClefairy
p779
sg33
g324
sg35
V25
p780
sg37
(lp781
VMetronome
p782
aVSing
p783
aVGravity
p784
aVWake-Up Slap
p785
asg43
g12
sg44
VCute Charm
p786
sbag1
(g25
g3
Ntp787
Rp788
(dp789
g29
I64
sg31
VKadabra
p790
sg33
g34
sg35
V25
p791
sg37
(lp792
VPsybeam
p793
aVPsycho Cut
p794
aVReflect
p795
aVLight Screen
p796
asg43
g12
sg44
VSynchronize
p797
sbag1
(g25
g3
Ntp798
Rp799
(dp800
g29
I391
sg31
VMonferno
p801
sg33
g185
sg35
V27
p802
sg37
(lp803
VFlame Wheel
p804
aVEmber
p805
aVMach Punch
p806
aVFury Swipes
p807
asg43
g12
sg44
VBlaze
p808
sbasg58
I01
sg59
g354
sba.