(lp0
ccopy_reg
_reconstructor
p1
(c__main__
Trainer
p2
c__builtin__
object
p3
Ntp4
Rp5
(dp6
VtSprite
p7
VSpr DP Black Belt.png
p8
sVtClass
p9
VBlack Belt
p10
sVtName
p11
VDarren
p12
sVtMoney
p13
V600
p14
sVtPokeCount
p15
V3
p16
sVtLocation
p17
Vwiki/Veilstone_Gym
p18
sVtRegion
p19
VSinnoh
p20
sVtGame
p21
VDP
p22
sVtPokes
p23
(lp24
g1
(c__main__
FinishedPokemon
p25
g3
Ntp26
Rp27
(dp28
VpDexNo
p29
V067
p30
sVpSpecies
p31
VMachoke
p32
sVpGender
p33
VM
p34
sVpLevel
p35
V25
p36
sVpMoves
p37
(lp38
Vvital-throw
p39
aVcross-chop
p40
aVrevenge
p41
aVwake-up-slap
p42
asVpHold
p43
V
p44
sVpAbility
p45
Vno-guard
p46
sbag1
(g25
g3
Ntp47
Rp48
(dp49
g29
V066
p50
sg31
VMachop
p51
sg33
g34
sg35
V25
p52
sg37
(lp53
Vvital-throw
p54
aVcross-chop
p55
aVrevenge
p56
aVwake-up-slap
p57
asg43
g44
sg45
Vguts
p58
sbag1
(g25
g3
Ntp59
Rp60
(dp61
g29
V067
p62
sg31
VMachoke
p63
sg33
g34
sg35
V25
p64
sg37
(lp65
Vvital-throw
p66
aVcross-chop
p67
aVrevenge
p68
aVwake-up-slap
p69
asg43
g44
sg45
Vno-guard
p70
sbasVbossFlag
p71
I00
sVtLongGame
p72
Vdiamond-pearl
p73
sbag1
(g2
g3
Ntp74
Rp75
(dp76
g7
VSpr DP Black Belt.png
p77
sg9
VBlack Belt
p78
sg11
VJeffery
p79
sg13
V624
p80
sg15
V2
p81
sg17
g18
sg19
g20
sg21
g22
sg23
(lp82
g1
(g25
g3
Ntp83
Rp84
(dp85
g29
V067
p86
sg31
VMachoke
p87
sg33
g34
sg35
V26
p88
sg37
(lp89
Vvital-throw
p90
aVcross-chop
p91
aVrevenge
p92
aVwake-up-slap
p93
asg43
g44
sg45
Vguts
p94
sbag1
(g25
g3
Ntp95
Rp96
(dp97
g29
V307
p98
sg31
VMeditite
p99
sg33
g34
sg35
V26
p100
sg37
(lp101
Vcalm-mind
p102
aVfeint
p103
aVpower-trick
p104
aVforce-palm
p105
asg43
g44
sg45
Vpure-power
p106
sbasg71
I00
sg72
g73
sbag1
(g2
g3
Ntp107
Rp108
(dp109
g7
VSpr DP Black Belt.png
p110
sg9
VBlack Belt
p111
sg11
VRafael
p112
sg13
V672
p113
sg15
V1
p114
sg17
g18
sg19
g20
sg21
g22
sg23
(lp115
g1
(g25
g3
Ntp116
Rp117
(dp118
g29
V307
p119
sg31
VMeditite
p120
sg33
g34
sg35
V28
p121
sg37
(lp122
Vcalm-mind
p123
aVfeint
p124
aVpower-trick
p125
aVforce-palm
p126
asg43
g44
sg45
Vpure-power
p127
sbasg71
I00
sg72
g73
sbag1
(g2
g3
Ntp128
Rp129
(dp130
g7
VSpr DP Black Belt.png
p131
sg9
VBlack Belt
p132
sg11
VColby
p133
sg13
V600
p134
sg15
g16
sg17
g18
sg19
g20
sg21
g22
sg23
(lp135
g1
(g25
g3
Ntp136
Rp137
(dp138
g29
V067
p139
sg31
VMachoke
p140
sg33
g34
sg35
V25
p141
sg37
(lp142
Vvital-throw
p143
aVcross-chop
p144
aVrevenge
p145
aVwake-up-slap
p146
asg43
g44
sg45
Vno-guard
p147
sbag1
(g25
g3
Ntp148
Rp149
(dp150
g29
V067
p151
sg31
VMachoke
p152
sg33
g34
sg35
V25
p153
sg37
(lp154
Vvital-throw
p155
aVcross-chop
p156
aVrevenge
p157
aVwake-up-slap
p158
asg43
g44
sg45
Vno-guard
p159
sbag1
(g25
g3
Ntp160
Rp161
(dp162
g29
V067
p163
sg31
VMachoke
p164
sg33
g34
sg35
V25
p165
sg37
(lp166
Vvital-throw
p167
aVcross-chop
p168
aVrevenge
p169
aVwake-up-slap
p170
asg43
g44
sg45
Vno-guard
p171
sbasg71
I00
sg72
g73
sbag1
(g2
g3
Ntp172
Rp173
(dp174
g7
VSpr DP Black Belt.png
p175
sg9
VBlack Belt
p176
sg11
VColby
p177
sg13
V648
p178
sg15
g16
sg17
g18
sg19
g20
sg21
g22
sg23
(lp179
g1
(g25
g3
Ntp180
Rp181
(dp182
g29
V067
p183
sg31
VMachoke
p184
sg33
g34
sg35
V23
p185
sg37
(lp186
Vvital-throw
p187
aVcross-chop
p188
aVrevenge
p189
aVwake-up-slap
p190
asg43
g44
sg45
Vguts
p191
sbag1
(g25
g3
Ntp192
Rp193
(dp194
g29
V067
p195
sg31
VMachoke
p196
sg33
g34
sg35
V25
p197
sg37
(lp198
Vvital-throw
p199
aVcross-chop
p200
aVrevenge
p201
aVwake-up-slap
p202
asg43
g44
sg45
Vguts
p203
sbag1
(g25
g3
Ntp204
Rp205
(dp206
g29
V067
p207
sg31
VMachoke
p208
sg33
g34
sg35
V27
p209
sg37
(lp210
Vvital-throw
p211
aVcross-chop
p212
aVrevenge
p213
aVwake-up-slap
p214
asg43
g44
sg45
Vguts
p215
sbasg71
I00
sg72
g73
sbag1
(g2
g3
Ntp216
Rp217
(dp218
g7
VSpr DP Black Belt.png
p219
sg9
VBlack Belt
p220
sg11
VDarren
p221
sg13
V600
p222
sg15
g16
sg17
g18
sg19
g20
sg21
g22
sg23
(lp223
g1
(g25
g3
Ntp224
Rp225
(dp226
g29
V066
p227
sg31
VMachop
p228
sg33
g34
sg35
V25
p229
sg37
(lp230
Vvital-throw
p231
aVcross-chop
p232
aVrevenge
p233
aVwake-up-slap
p234
asg43
g44
sg45
Vno-guard
p235
sbag1
(g25
g3
Ntp236
Rp237
(dp238
g29
V307
p239
sg31
VMeditite
p240
sg33
g34
sg35
V25
p241
sg37
(lp242
Vcalm-mind
p243
aVfeint
p244
aVpower-trick
p245
aVforce-palm
p246
asg43
g44
sg45
Vpure-power
p247
sbag1
(g25
g3
Ntp248
Rp249
(dp250
g29
V067
p251
sg31
VMachoke
p252
sg33
g34
sg35
V25
p253
sg37
(lp254
Vvital-throw
p255
aVcross-chop
p256
aVrevenge
p257
aVwake-up-slap
p258
asg43
g44
sg45
Vguts
p259
sbasg71
I00
sg72
g73
sbag1
(g2
g3
Ntp260
Rp261
(dp262
g7
VSpr DP Black Belt.png
p263
sg9
VBlack Belt
p264
sg11
VRafael
p265
sg13
V624
p266
sg15
g81
sg17
g18
sg19
g20
sg21
g22
sg23
(lp267
g1
(g25
g3
Ntp268
Rp269
(dp270
g29
V453
p271
sg31
VCroagunk
p272
sg33
g34
sg35
V26
p273
sg37
(lp274
Vsucker-punch
p275
aVpoison-jab
p276
aVnasty-plot
p277
aVmud-bomb
p278
asg43
g44
sg45
Vanticipation
p279
sbag1
(g25
g3
Ntp280
Rp281
(dp282
g29
V067
p283
sg31
VMachoke
p284
sg33
g34
sg35
V26
p285
sg37
(lp286
Vvital-throw
p287
aVcross-chop
p288
aVrevenge
p289
aVwake-up-slap
p290
asg43
g44
sg45
Vno-guard
p291
sbasg71
I00
sg72
g73
sbag1
(g2
g3
Ntp292
Rp293
(dp294
g7
VSpr DP Black Belt.png
p295
sg9
VBlack Belt
p296
sg11
VJeffery
p297
sg13
V672
p298
sg15
g114
sg17
g18
sg19
g20
sg21
g22
sg23
(lp299
g1
(g25
g3
Ntp300
Rp301
(dp302
g29
V214
p303
sg31
VHeracross
p304
sg33
g34
sg35
V28
p305
sg37
(lp306
Vaerial-ace
p307
aVfeint
p308
aVclose-combat
p309
aVnight-slash
p310
asg43
g44
sg45
Vguts
p311
sbasg71
I00
sg72
g73
sbag1
(g2
g3
Ntp312
Rp313
(dp314
g7
VSpr DP Maylene.png
p315
sg9
VLeader
p316
sg11
VMaylene
p317
sg13
V3600
p318
sg15
I3
sg17
g18
sg19
g20
sg21
g22
sg23
(lp319
g1
(g25
g3
Ntp320
Rp321
(dp322
g29
I307
sg31
VMeditite
p323
sg33
VF
p324
sg35
V27
p325
sg37
(lp326
VDrain Punch
p327
aVConfusion
p328
aVDetect
p329
aVMeditate
p330
asg43
g44
sg45
VPure Power
p331
sbag1
(g25
g3
Ntp332
Rp333
(dp334
g29
I67
sg31
VMachoke
p335
sg33
g34
sg35
V27
p336
sg37
(lp337
VBrick Break
p338
aVLeer
p339
aVForesight
p340
aVRock Tomb
p341
asg43
g44
sg45
VGuts
p342
sbag1
(g25
g3
Ntp343
Rp344
(dp345
g29
I448
sg31
VLucario
p346
sg33
g34
sg35
V30
p347
sg37
(lp348
VDrain Punch
p349
aVMetal Claw
p350
aVBone Rush
p351
aVForce Palm
p352
asg43
VSitrus Berry
p353
sg45
VSteadfast
p354
sbasg71
I01
sg72
g73
sbag1
(g2
g3
Ntp355
Rp356
(dp357
g7
VSpr Pt Maylene.png
p358
sg9
VLeader
p359
sg11
VMaylene
p360
sg13
V3840
p361
sg15
I3
sg17
g18
sg19
g20
sg21
VPt
p362
sg23
(lp363
g1
(g25
g3
Ntp364
Rp365
(dp366
g29
I307
sg31
VMeditite
p367
sg33
g324
sg35
V28
p368
sg37
(lp369
VDrain Punch
p370
aVConfusion
p371
aVFake Out
p372
aVRock Tomb
p373
asg43
g44
sg45
VPure Power
p374
sbag1
(g25
g3
Ntp375
Rp376
(dp377
g29
I67
sg31
VMachoke
p378
sg33
g34
sg35
V29
p379
sg37
(lp380
VKarate Chop
p381
aVStrength
p382
aVFocus Energy
p383
aVRock Tomb
p384
asg43
g44
sg45
VGuts
p385
sbag1
(g25
g3
Ntp386
Rp387
(dp388
g29
I448
sg31
VLucario
p389
sg33
g34
sg35
V32
p390
sg37
(lp391
VDrain Punch
p392
aVMetal Claw
p393
aVBone Rush
p394
aVForce Palm
p395
asg43
g44
sg45
VSteadfast
p396
sbasg71
I01
sg72
Vplatinum
p397
sba.