(lp0
ccopy_reg
_reconstructor
p1
(c__main__
Trainer
p2
c__builtin__
object
p3
Ntp4
Rp5
(dp6
VtSprite
p7
VVSTeam Skull Grunt M.png
p8
sVtClass
p9
VTeam Skull
p10
sVtName
p11
V000
p12
sVtMoney
p13
V352
p14
sVtPokeCount
p15
I1
sVtLocation
p16
Vwiki/Verdant_Cavern
p17
sVtRegion
p18
VAlola
p19
sVtGame
p20
VSM
p21
sVtPokes
p22
(lp23
g1
(c__main__
FinishedPokemon
p24
g3
Ntp25
Rp26
(dp27
VpDexNo
p28
I96
sVpSpecies
p29
VDrowzee
p30
sVpGender
p31
VM
p32
sVpLevel
p33
V11
p34
sVpMoves
p35
(lp36
VPound
p37
asVpHold
p38
V
p39
sVpAbility
p40
VInsomnia
p41
sbasVbossFlag
p42
I01
sVtLongGame
p43
Vsun-moon
p44
sba.