(lp0
ccopy_reg
_reconstructor
p1
(c__main__
Trainer
p2
c__builtin__
object
p3
Ntp4
Rp5
(dp6
VtSprite
p7
VSpr RG Sailor.png
p8
sVtClass
p9
VSailor
p10
sVtName
p11
V
p12
sVtMoney
p13
V630
p14
sVtPokeCount
p15
V2
p16
sVtLocation
p17
Vwiki/Vermilion_Gym
p18
sVtRegion
p19
VKanto
p20
sVtGame
p21
VRGB
p22
sVtPokes
p23
(lp24
g1
(c__main__
FinishedPokemon
p25
g3
Ntp26
Rp27
(dp28
VpDexNo
p29
V025
p30
sVpSpecies
p31
VPikachu
p32
sVpGender
p33
VU
p34
sVpLevel
p35
V21
p36
sVpMoves
p37
(lp38
Vthunder
p39
aVagility
p40
aVquick-attack
p41
aVswift
p42
asVpHold
p43
g12
sVpAbility
p44
Vstatic
p45
sbag1
(g25
g3
Ntp46
Rp47
(dp48
g29
V025
p49
sg31
VPikachu
p50
sg33
g34
sg35
V21
p51
sg37
(lp52
Vthunder
p53
aVagility
p54
aVquick-attack
p55
aVswift
p56
asg43
g12
sg44
Vstatic
p57
sbasVbossFlag
p58
I00
sVtLongGame
p59
Vred-blue
p60
sbag1
(g2
g3
Ntp61
Rp62
(dp63
g7
VSpr RG Rocker.png
p64
sg9
VRocker
p65
sg11
g12
sg13
V500
p66
sg15
V3
p67
sg17
g18
sg19
g20
sg21
g22
sg23
(lp68
g1
(g25
g3
Ntp69
Rp70
(dp71
g29
V100
p72
sg31
VVoltorb
p73
sg33
g34
sg35
V20
p74
sg37
(lp75
Vlight-screen
p76
aVself-destruct
p77
aVswift
p78
aVexplosion
p79
asg43
g12
sg44
Vsoundproof
p80
sbag1
(g25
g3
Ntp81
Rp82
(dp83
g29
V081
p84
sg31
VMagnemite
p85
sg33
g34
sg35
V20
p86
sg37
(lp87
Vthunder-shock
p88
aVthunder-wave
p89
aVscreech
p90
aVswift
p91
asg43
g12
sg44
Vmagnet-pull
p92
sbag1
(g25
g3
Ntp93
Rp94
(dp95
g29
V100
p96
sg31
VVoltorb
p97
sg33
g34
sg35
V20
p98
sg37
(lp99
Vlight-screen
p100
aVself-destruct
p101
aVswift
p102
aVexplosion
p103
asg43
g12
sg44
Vstatic
p104
sbasg58
I00
sg59
g60
sbag1
(g2
g3
Ntp105
Rp106
(dp107
g7
VSpr RG Gentleman.png
p108
sg9
VGentleman
p109
sg11
g12
sg13
V1610
p110
sg15
V1
p111
sg17
g18
sg19
g20
sg21
g22
sg23
(lp112
g1
(g25
g3
Ntp113
Rp114
(dp115
g29
V025
p116
sg31
VPikachu
p117
sg33
g34
sg35
V23
p118
sg37
(lp119
Vthunder
p120
aVagility
p121
aVquick-attack
p122
aVswift
p123
asg43
g12
sg44
Vstatic
p124
sbasg58
I00
sg59
g60
sbag1
(g2
g3
Ntp125
Rp126
(dp127
g7
VSpr Y Sailor.png
p128
sg9
VSailor
p129
sg11
g12
sg13
V720
p130
sg15
g111
sg17
g18
sg19
g20
sg21
VY
p131
sg23
(lp132
g1
(g25
g3
Ntp133
Rp134
(dp135
g29
V081
p136
sg31
VMagnemite
p137
sg33
g34
sg35
V24
p138
sg37
(lp139
Vthunder-shock
p140
aVthunder-wave
p141
aVscreech
p142
aVswift
p143
asg43
g12
sg44
Vmagnet-pull
p144
sbasg58
I00
sg59
Vyellow
p145
sbag1
(g2
g3
Ntp146
Rp147
(dp148
g7
VSpr Y Rocker.png
p149
sg9
VRocker
p150
sg11
g12
sg13
V500
p151
sg15
g67
sg17
g18
sg19
g20
sg21
g131
sg23
(lp152
g1
(g25
g3
Ntp153
Rp154
(dp155
g29
V100
p156
sg31
VVoltorb
p157
sg33
g34
sg35
V20
p158
sg37
(lp159
Vlight-screen
p160
aVself-destruct
p161
aVswift
p162
aVexplosion
p163
asg43
g12
sg44
Vstatic
p164
sbag1
(g25
g3
Ntp165
Rp166
(dp167
g29
V100
p168
sg31
VVoltorb
p169
sg33
g34
sg35
V20
p170
sg37
(lp171
Vlight-screen
p172
aVself-destruct
p173
aVswift
p174
aVexplosion
p175
asg43
g12
sg44
Vsoundproof
p176
sbag1
(g25
g3
Ntp177
Rp178
(dp179
g29
V100
p180
sg31
VVoltorb
p181
sg33
g34
sg35
V20
p182
sg37
(lp183
Vlight-screen
p184
aVself-destruct
p185
aVswift
p186
aVexplosion
p187
asg43
g12
sg44
Vstatic
p188
sbasg58
I00
sg59
g145
sbag1
(g2
g3
Ntp189
Rp190
(dp191
g7
VSpr Y Gentleman.png
p192
sg9
VGentleman
p193
sg11
g12
sg13
V1540
p194
sg15
g16
sg17
g18
sg19
g20
sg21
g131
sg23
(lp195
g1
(g25
g3
Ntp196
Rp197
(dp198
g29
V100
p199
sg31
VVoltorb
p200
sg33
g34
sg35
V22
p201
sg37
(lp202
Vlight-screen
p203
aVself-destruct
p204
aVswift
p205
aVexplosion
p206
asg43
g12
sg44
Vstatic
p207
sbag1
(g25
g3
Ntp208
Rp209
(dp210
g29
V081
p211
sg31
VMagnemite
p212
sg33
g34
sg35
V22
p213
sg37
(lp214
Vthunder-shock
p215
aVthunder-wave
p216
aVscreech
p217
aVswift
p218
asg43
g12
sg44
Vmagnet-pull
p219
sbasg58
I00
sg59
g145
sbag1
(g2
g3
Ntp220
Rp221
(dp222
g7
VSpr GS Juggler.png
p223
sg9
VJuggler
p224
sg11
VHorton
p225
sg13
V1320
p226
sg15
V4
p227
sg17
g18
sg19
g20
sg21
VGS
p228
sg23
(lp229
g1
(g25
g3
Ntp230
Rp231
(dp232
g29
V101
p233
sg31
VElectrode
p234
sg33
g34
sg35
V33
p235
sg37
(lp236
Vswift
p237
aVexplosion
p238
aVrollout
p239
aVmirror-coat
p240
asg43
g12
sg44
Vstatic
p241
sbag1
(g25
g3
Ntp242
Rp243
(dp244
g29
V101
p245
sg31
VElectrode
p246
sg33
g34
sg35
V33
p247
sg37
(lp248
Vswift
p249
aVexplosion
p250
aVrollout
p251
aVmirror-coat
p252
asg43
g12
sg44
Vsoundproof
p253
sbag1
(g25
g3
Ntp254
Rp255
(dp256
g29
V101
p257
sg31
VElectrode
p258
sg33
g34
sg35
V33
p259
sg37
(lp260
Vswift
p261
aVexplosion
p262
aVrollout
p263
aVmirror-coat
p264
asg43
g12
sg44
Vstatic
p265
sbag1
(g25
g3
Ntp266
Rp267
(dp268
g29
V101
p269
sg31
VElectrode
p270
sg33
g34
sg35
V33
p271
sg37
(lp272
Vswift
p273
aVexplosion
p274
aVrollout
p275
aVmirror-coat
p276
asg43
g12
sg44
Vstatic
p277
sbasg58
I00
sg59
Vgold-silver
p278
sbag1
(g2
g3
Ntp279
Rp280
(dp281
g7
VSpr GS Guitarist.png
p282
sg9
VGuitarist
p283
sg11
VVincent
p284
sg13
V1024
p285
sg15
g227
sg17
g18
sg19
g20
sg21
g228
sg23
(lp286
g1
(g25
g3
Ntp287
Rp288
(dp289
g29
V081
p290
sg31
VMagnemite
p291
sg33
g34
sg35
V27
p292
sg37
(lp293
Vscreech
p294
aVswift
p295
aVzap-cannon
p296
aVlock-on
p297
asg43
g12
sg44
Vmagnet-pull
p298
sbag1
(g25
g3
Ntp299
Rp300
(dp301
g29
V100
p302
sg31
VVoltorb
p303
sg33
g34
sg35
V33
p304
sg37
(lp305
Vswift
p306
aVexplosion
p307
aVrollout
p308
aVmirror-coat
p309
asg43
g12
sg44
Vsoundproof
p310
sbag1
(g25
g3
Ntp311
Rp312
(dp313
g29
V081
p314
sg31
VMagnemite
p315
sg33
g34
sg35
V32
p316
sg37
(lp317
Vscreech
p318
aVswift
p319
aVzap-cannon
p320
aVlock-on
p321
asg43
g12
sg44
Vsturdy
p322
sbag1
(g25
g3
Ntp323
Rp324
(dp325
g29
V081
p326
sg31
VMagnemite
p327
sg33
g34
sg35
V32
p328
sg37
(lp329
Vscreech
p330
aVswift
p331
aVzap-cannon
p332
aVlock-on
p333
asg43
g12
sg44
Vmagnet-pull
p334
sbasg58
I00
sg59
g278
sbag1
(g2
g3
Ntp335
Rp336
(dp337
g7
VSpr GS Gentleman.png
p338
sg9
VGentleman
p339
sg11
VGregory
p340
sg13
V2376
p341
sg15
g16
sg17
g18
sg19
g20
sg21
g228
sg23
(lp342
g1
(g25
g3
Ntp343
Rp344
(dp345
g29
V025
p346
sg31
VPikachu
p347
sg33
VM
p348
sg35
V37
p349
sg37
(lp350
Vagility
p351
aVquick-attack
p352
aVdouble-team
p353
aVlight-screen
p354
asg43
g12
sg44
Vstatic
p355
sbag1
(g25
g3
Ntp356
Rp357
(dp358
g29
V180
p359
sg31
VFlaaffy
p360
sg33
g348
sg35
V33
p361
sg37
(lp362
Vthunder-wave
p363
aVthunder
p364
aVlight-screen
p365
aVcotton-spore
p366
asg43
g12
sg44
Vstatic
p367
sbasg58
I00
sg59
g278
sbag1
(g2
g3
Ntp368
Rp369
(dp370
g7
VSpr FRLG Sailor.png
p371
sg9
VSailor
p372
sg11
VDwayne
p373
sg13
V672
p374
sg15
g16
sg17
g18
sg19
g20
sg21
VFRLG
p375
sg23
(lp376
g1
(g25
g3
Ntp377
Rp378
(dp379
g29
V025
p380
sg31
VPikachu
p381
sg33
g348
sg35
V21
p382
sg37
(lp383
Vagility
p384
aVquick-attack
p385
aVdouble-team
p386
aVlight-screen
p387
asg43
g12
sg44
Vstatic
p388
sbag1
(g25
g3
Ntp389
Rp390
(dp391
g29
V025
p392
sg31
VPikachu
p393
sg33
g348
sg35
V21
p394
sg37
(lp395
Vagility
p396
aVquick-attack
p397
aVdouble-team
p398
aVlight-screen
p399
asg43
g12
sg44
Vstatic
p400
sbasg58
I00
sg59
Vfirered-leafgreen
p401
sbag1
(g2
g3
Ntp402
Rp403
(dp404
g7
VSpr FRLG Engineer.png
p405
sg9
VEngineer
p406
sg11
VBaily
p407
sg13
V1008
p408
sg15
g16
sg17
g18
sg19
g20
sg21
g375
sg23
(lp409
g1
(g25
g3
Ntp410
Rp411
(dp412
g29
V100
p413
sg31
VVoltorb
p414
sg33
g34
sg35
V21
p415
sg37
(lp416
Vrollout
p417
aVspark
p418
aVmirror-coat
p419
aVcharge
p420
asg43
g12
sg44
Vsoundproof
p421
sbag1
(g25
g3
Ntp422
Rp423
(dp424
g29
V081
p425
sg31
VMagnemite
p426
sg33
g34
sg35
V21
p427
sg37
(lp428
Vzap-cannon
p429
aVlock-on
p430
aVspark
p431
aVmetal-sound
p432
asg43
g12
sg44
Vmagnet-pull
p433
sbasg58
I00
sg59
g401
sbag1
(g2
g3
Ntp434
Rp435
(dp436
g7
VSpr FRLG Gentleman.png
p437
sg9
VGentleman
p438
sg11
VTucker
p439
sg13
V1656
p440
sg15
g111
sg17
g18
sg19
g20
sg21
g375
sg23
(lp441
g1
(g25
g3
Ntp442
Rp443
(dp444
g29
V025
p445
sg31
VPikachu
p446
sg33
g348
sg35
V23
p447
sg37
(lp448
Vagility
p449
aVquick-attack
p450
aVdouble-team
p451
aVlight-screen
p452
asg43
g12
sg44
Vstatic
p453
sbasg58
I00
sg59
g401
sbag1
(g2
g3
Ntp454
Rp455
(dp456
g7
VSpr HGSS Juggler.png
p457
sg9
VJuggler
p458
sg11
VHorton
p459
sg13
V1376<br><small>Potential [[Double Battle]] with Vincent</small>
p460
sg15
g67
sg17
g18
sg19
g20
sg21
VHGSS
p461
sg23
(lp462
g1
(g25
g3
Ntp463
Rp464
(dp465
g29
V101
p466
sg31
VElectrode
p467
sg33
g34
sg35
V43
p468
sg37
(lp469
Vcharge
p470
aVgyro-ball
p471
aVmagnet-rise
p472
aVcharge-beam
p473
asg43
g12
sg44
Vstatic
p474
sbag1
(g25
g3
Ntp475
Rp476
(dp477
g29
V101
p478
sg31
VElectrode
p479
sg33
g34
sg35
V43
p480
sg37
(lp481
Vcharge
p482
aVgyro-ball
p483
aVmagnet-rise
p484
aVcharge-beam
p485
asg43
g12
sg44
Vstatic
p486
sbag1
(g25
g3
Ntp487
Rp488
(dp489
g29
V101
p490
sg31
VElectrode
p491
sg33
g34
sg35
V43
p492
sg37
(lp493
Vcharge
p494
aVgyro-ball
p495
aVmagnet-rise
p496
aVcharge-beam
p497
asg43
g12
sg44
Vsoundproof
p498
sbasg58
I00
sg59
Vheartgold-soulsilver
p499
sbag1
(g2
g3
Ntp500
Rp501
(dp502
g7
VSpr DP Guitarist.png
p503
sg9
VGuitarist
p504
sg11
VVincent
p505
sg13
V1008<br><small>Potential [[Double Battle]] with Horton or Gregory</small>
p506
sg15
g67
sg17
g18
sg19
g20
sg21
VDP
p507
sg23
(lp508
g1
(g25
g3
Ntp509
Rp510
(dp511
g29
V135
p512
sg31
VJolteon
p513
sg33
g348
sg35
V45
p514
sg37
(lp515
Vquick-attack
p516
aVhelping-hand
p517
aVlast-resort
p518
aVthunder-fang
p519
asg43
g12
sg44
Vvolt-absorb
p520
sbag1
(g25
g3
Ntp521
Rp522
(dp523
g29
V100
p524
sg31
VVoltorb
p525
sg33
g34
sg35
V43
p526
sg37
(lp527
Vcharge
p528
aVgyro-ball
p529
aVmagnet-rise
p530
aVcharge-beam
p531
asg43
g12
sg44
Vstatic
p532
sbag1
(g25
g3
Ntp533
Rp534
(dp535
g29
V081
p536
sg31
VMagnemite
p537
sg33
g34
sg35
V42
p538
sg37
(lp539
Vmagnet-rise
p540
aVmirror-shot
p541
aVdischarge
p542
aVmagnet-bomb
p543
asg43
g12
sg44
Vsturdy
p544
sbasg58
I00
sg59
Vdiamond-pearl
p545
sbag1
(g2
g3
Ntp546
Rp547
(dp548
g7
VSpr HGSS Gentleman.png
p549
sg9
VGentleman
p550
sg11
VGregory
p551
sg13
V8400<br><small>Potential [[Double Battle]] with Vincent</small>
p552
sg15
g67
sg17
g18
sg19
g20
sg21
g461
sg23
(lp553
g1
(g25
g3
Ntp554
Rp555
(dp556
g29
V025
p557
sg31
VPikachu
p558
sg33
g348
sg35
V46
p559
sg37
(lp560
Vdouble-team
p561
aVlight-screen
p562
aVfeint
p563
aVdischarge
p564
asg43
g12
sg44
Vstatic
p565
sbag1
(g25
g3
Ntp566
Rp567
(dp568
g29
V180
p569
sg31
VFlaaffy
p570
sg33
g348
sg35
V43
p571
sg37
(lp572
Vcharge
p573
aVsignal-beam
p574
aVpower-gem
p575
aVdischarge
p576
asg43
g12
sg44
Vstatic
p577
sbag1
(g25
g3
Ntp578
Rp579
(dp580
g29
V309
p581
sg31
VElectrike
p582
sg33
g348
sg35
V42
p583
sg37
(lp584
Vodor-sleuth
p585
aVhowl
p586
aVthunder-fang
p587
aVdischarge
p588
asg43
g12
sg44
Vstatic
p589
sbasg58
I00
sg59
g499
sbag1
(g2
g3
Ntp590
Rp591
(dp592
g7
VVSSailor PE.png
p593
sg9
VSailor
p594
sg11
VDwayne
p595
sg13
V1,320
p596
sg15
g111
sg17
g18
sg19
g20
sg21
VLGPE
p597
sg23
(lp598
g1
(g25
g3
Ntp599
Rp600
(dp601
g29
V081
p602
sg31
VMagnemite
p603
sg33
g34
sg35
V22
p604
sg37
(lp605
Vflash-cannon
p606
aVdischarge
p607
aVmagnet-bomb
p608
aVelectro-ball
p609
asg43
g12
sg44
Vsturdy
p610
sbasg58
I00
sg59
Vsun-moon
p611
sbag1
(g2
g3
Ntp612
Rp613
(dp614
g7
VVSRocker PE.png
p615
sg9
VRocker
p616
sg11
VBaily
p617
sg13
V616
p618
sg15
g16
sg17
g18
sg19
g20
sg21
g597
sg23
(lp619
g1
(g25
g3
Ntp620
Rp621
(dp622
g29
V100
p623
sg31
VVoltorb
p624
sg33
g34
sg35
V22
p625
sg37
(lp626
Vdischarge
p627
aVcharge-beam
p628
aVelectro-ball
p629
aVeerie-impulse
p630
asg43
g12
sg44
Vstatic
p631
sbag1
(g25
g3
Ntp632
Rp633
(dp634
g29
V100
p635
sg31
VVoltorb
p636
sg33
g34
sg35
V22
p637
sg37
(lp638
Vdischarge
p639
aVcharge-beam
p640
aVelectro-ball
p641
aVeerie-impulse
p642
asg43
g12
sg44
Vstatic
p643
sbasg58
I00
sg59
g611
sbag1
(g2
g3
Ntp644
Rp645
(dp646
g7
VVSGentleman PE.png
p647
sg9
VGentleman
p648
sg11
VTucker
p649
sg13
V2,640
p650
sg15
g111
sg17
g18
sg19
g20
sg21
g597
sg23
(lp651
g1
(g25
g3
Ntp652
Rp653
(dp654
g29
V025
p655
sg31
VPikachu
p656
sg33
g348
sg35
V22
p657
sg37
(lp658
Velectro-ball
p659
aVwild-charge
p660
aVplay-nice
p661
aVnuzzle
p662
asg43
g12
sg44
Vstatic
p663
sbasg58
I00
sg59
g611
sbag1
(g2
g3
Ntp664
Rp665
(dp666
g7
VSpr RG Lt Surge.png
p667
sg9
VLeader
p668
sg11
VLt. Surge
p669
sg13
V2376
p670
sg15
I3
sg17
g18
sg19
g20
sg21
g22
sg23
(lp671
g1
(g25
g3
Ntp672
Rp673
(dp674
g29
I100
sg31
VVoltorb
p675
sg33
g34
sg35
V21
p676
sg37
(lp677
VTackle
p678
aVScreech
p679
aVSonicBoom
p680
asg43
g12
sg44
Vsoundproof
p681
sbag1
(g25
g3
Ntp682
Rp683
(dp684
g29
I25
sg31
VPikachu
p685
sg33
g34
sg35
V18
p686
sg37
(lp687
VThunderShock
p688
aVGrowl
p689
aVThunder Wave
p690
aVQuick Attack
p691
asg43
g12
sg44
Vstatic
p692
sbag1
(g25
g3
Ntp693
Rp694
(dp695
g29
I26
sg31
VRaichu
p696
sg33
g34
sg35
V24
p697
sg37
(lp698
VThunderShock
p699
aVGrowl
p700
aVThunderbolt
p701
asg43
g12
sg44
Vstatic
p702
sbasg58
I01
sg59
g60
sbag1
(g2
g3
Ntp703
Rp704
(dp705
g7
VSpr Y Lt Surge.png\u200e
p706
sg9
g668
sg11
VLt. Surge
p707
sg13
V2772
p708
sg15
I1
sg17
g18
sg19
g20
sg21
g131
sg23
(lp709
g1
(g25
g3
Ntp710
Rp711
(dp712
g29
I26
sg31
VRaichu
p713
sg33
g34
sg35
V28
p714
sg37
(lp715
VThunderbolt
p716
aVMega Punch
p717
aVMega Kick
p718
aVGrowl
p719
asg43
g12
sg44
Vstatic
p720
sbasg58
I01
sg59
g145
sbag1
(g2
g3
Ntp721
Rp722
(dp723
g7
VSpr GS Lt Surge.png\u200e
p724
sg9
VLeader
p725
sg11
VLt. Surge
p726
sg13
V4600
p727
sg15
I5
sg17
g18
sg19
g20
sg21
g228
sg23
(lp728
g1
(g25
g3
Ntp729
Rp730
(dp731
g29
I26
sg31
VRaichu
p732
sg33
g348
sg35
V44
p733
sg37
(lp734
VThunderbolt
p735
aVThunder
p736
aVThunder Wave
p737
aVQuick Attack
p738
asg43
g12
sg44
Vstatic
p739
sbag1
(g25
g3
Ntp740
Rp741
(dp742
g29
I82
sg31
VMagneton
p743
sg33
g34
sg35
V40
p744
sg37
(lp745
VZap Cannon
p746
aVLock-On
p747
aVDouble Team
p748
aVSwift
p749
asg43
g12
sg44
Vmagnet-pull
p750
sbag1
(g25
g3
Ntp751
Rp752
(dp753
g29
I101
sg31
VElectrode
p754
sg33
g34
sg35
V40
p755
sg37
(lp756
VScreech
p757
aVDouble Team
p758
aVSwift
p759
aVExplosion
p760
asg43
g12
sg44
Vstatic
p761
sbag1
(g25
g3
Ntp762
Rp763
(dp764
g29
I101
sg31
VElectrode
p765
sg33
g34
sg35
V40
p766
sg37
(lp767
VScreech
p768
aVDouble Team
p769
aVSwift
p770
aVExplosion
p771
asg43
g12
sg44
Vsoundproof
p772
sbag1
(g25
g3
Ntp773
Rp774
(dp775
g29
I125
sg31
VElectabuzz
p776
sg33
g348
sg35
V46
p777
sg37
(lp778
VThunderPunch
p779
aVThunder
p780
aVLight Screen
p781
aVQuick Attack
p782
asg43
g12
sg44
Vstatic
p783
sbasg58
I01
sg59
g278
sbag1
(g2
g3
Ntp784
Rp785
(dp786
g7
VSpr FRLG Lt Surge.png
p787
sg9
VLeader
p788
sg11
VLt. Surge
p789
sg13
V2400
p790
sg15
I3
sg17
g18
sg19
g20
sg21
g375
sg23
(lp791
g1
(g25
g3
Ntp792
Rp793
(dp794
g29
I100
sg31
VVoltorb
p795
sg33
g34
sg35
V21
p796
sg37
(lp797
VShock Wave
p798
aVTackle
p799
aVScreech
p800
aVSonicBoom
p801
asg43
g12
sg44
VSoundproof
p802
sbag1
(g25
g3
Ntp803
Rp804
(dp805
g29
I25
sg31
VPikachu
p806
sg33
g348
sg35
V18
p807
sg37
(lp808
VShock Wave
p809
aVThunder Wave
p810
aVQuick Attack
p811
aVDouble Team
p812
asg43
g12
sg44
VStatic
p813
sbag1
(g25
g3
Ntp814
Rp815
(dp816
g29
I26
sg31
VRaichu
p817
sg33
g348
sg35
V24
p818
sg37
(lp819
VShock Wave
p820
aVThunder Wave
p821
aVQuick Attack
p822
aVDouble Team
p823
asg43
g12
sg44
VStatic
p824
sbasg58
I01
sg59
g401
sbag1
(g2
g3
Ntp825
Rp826
(dp827
g7
VSpr HGSS Lt Surge.png
p828
sg9
VLeader
p829
sg11
VLt. Surge
p830
sg13
V6360
p831
sg15
I5
sg17
g18
sg19
g20
sg21
g461
sg23
(lp832
g1
(g25
g3
Ntp833
Rp834
(dp835
g29
I26
sg31
VRaichu
p836
sg33
g348
sg35
V51
p837
sg37
(lp838
VThunder Wave
p839
aVShock Wave
p840
aVQuick Attack
p841
aVDouble Team
p842
asg43
g12
sg44
VStatic
p843
sbag1
(g25
g3
Ntp844
Rp845
(dp846
g29
I101
sg31
VElectrode
p847
sg33
g34
sg35
V47
p848
sg37
(lp849
VThunder Wave
p850
aVDouble Team
p851
aVShock Wave
p852
aVLight Screen
p853
asg43
g12
sg44
VStatic
p854
sbag1
(g25
g3
Ntp855
Rp856
(dp857
g29
I101
sg31
VElectrode
p858
sg33
g34
sg35
V47
p859
sg37
(lp860
VScreech
p861
aVDouble Team
p862
aVSelfdestruct
p863
aVCharge Beam
p864
asg43
g12
sg44
VStatic
p865
sbag1
(g25
g3
Ntp866
Rp867
(dp868
g29
I82
sg31
VMagneton
p869
sg33
g34
sg35
V47
p870
sg37
(lp871
VSupersonic
p872
aVDouble Team
p873
aVShock Wave
p874
aVMirror Shot
p875
asg43
g12
sg44
VSturdy
p876
sbag1
(g25
g3
Ntp877
Rp878
(dp879
g29
I125
sg31
VElectabuzz
p880
sg33
g348
sg35
V53
p881
sg37
(lp882
VQuick Attack
p883
aVShock Wave
p884
aVLight Screen
p885
aVLow Kick
p886
asg43
VSitrus Berry
p887
sg44
VStatic
p888
sbasg58
I01
sg59
g499
sbag1
(g2
g3
Ntp889
Rp890
(dp891
g7
VVSLt Surge PE.png
p892
sg9
VGym Leader
p893
sg11
VLt. Surge
p894
sg13
V4,160
p895
sg15
I3
sg17
g18
sg19
g20
sg21
g597
sg23
(lp896
g1
(g25
g3
Ntp897
Rp898
(dp899
g29
I100
sg31
VVoltorb
p900
sg33
g34
sg35
V25
p901
sg37
(lp902
VThunderbolt
p903
aVSwift
p904
aVLight Screen
p905
asg43
g12
sg44
Vstatic
p906
sbag1
(g25
g3
Ntp907
Rp908
(dp909
g29
I81
sg31
VMagnemite
p910
sg33
g34
sg35
V25
p911
sg37
(lp912
VThunderbolt
p913
aVSonic Boom
p914
asg43
g12
sg44
Vsturdy
p915
sbag1
(g25
g3
Ntp916
Rp917
(dp918
g29
I26
sg31
VRaichu
p919
sg33
g348
sg35
V26
p920
sg37
(lp921
VThunderbolt
p922
aVQuick Attack
p923
aVDouble Kick
p924
asg43
g12
sg44
Vstatic
p925
sbasg58
I01
sg59
g611
sbag1
(g2
g3
Ntp926
Rp927
(dp928
g7
VVSLt Surge PE.png
p929
sg9
VGym Leader
p930
sg11
VLt. Surge
p931
sg13
V13,680
p932
sg15
I5
sg17
g18
sg19
g20
sg21
g597
sg23
(lp933
g1
(g25
g3
Ntp934
Rp935
(dp936
g29
I101
sg31
VElectrode
p937
sg33
g34
sg35
V56
p938
sg37
(lp939
VMirror Coat
p940
aVExplosion
p941
aVThunderbolt
p942
aVFoul Play
p943
asg43
g12
sg44
Vsoundproof
p944
sbag1
(g25
g3
Ntp945
Rp946
(dp947
g29
I135
sg31
VJolteon
p948
sg33
VF
p949
sg35
V56
p950
sg37
(lp951
VThunder
p952
aVShadow Ball
p953
aVReflect
p954
aVQuick Attack
p955
asg43
g12
sg44
Vvolt-absorb
p956
sbag1
(g25
g3
Ntp957
Rp958
(dp959
g29
I125
sg31
VElectabuzz
p960
sg33
g348
sg35
V56
p961
sg37
(lp962
VThunder Punch
p963
aVIce Punch
p964
aVFire Punch
p965
aVBrick Break
p966
asg43
g12
sg44
Vstatic
p967
sbag1
(g25
g3
Ntp968
Rp969
(dp970
g29
I82
sg31
VMagneton
p971
sg33
g34
sg35
V56
p972
sg37
(lp973
VThunder
p974
aVFlash Cannon
p975
aVTri Attack
p976
aVHyper Beam
p977
asg43
g12
sg44
Vmagnet-pull
p978
sbag1
(g25
g3
Ntp979
Rp980
(dp981
g29
I26
sg31
VRaichu
p982
sg33
g348
sg35
V57
p983
sg37
(lp984
VThunder Punch
p985
aVIron Tail
p986
aVBrick Break
p987
aVQuick Attack
p988
asg43
g12
sg44
Vstatic
p989
sbasg58
I01
sg59
g611
sba.