(lp0
ccopy_reg
_reconstructor
p1
(c__main__
Trainer
p2
c__builtin__
object
p3
Ntp4
Rp5
(dp6
VtSprite
p7
VSpr DP Psychic M.png
p8
sVtClass
p9
VPsychic
p10
sVtName
p11
VBryce
p12
sVtMoney
p13
V1472
p14
sVtPokeCount
p15
V3
p16
sVtLocation
p17
Vwiki/Victory_Road_(Sinnoh)
p18
sVtRegion
p19
VSinnoh
p20
sVtGame
p21
VDP
p22
sVtPokes
p23
(lp24
g1
(c__main__
FinishedPokemon
p25
g3
Ntp26
Rp27
(dp28
VpDexNo
p29
V093
p30
sVpSpecies
p31
VHaunter
p32
sVpGender
p33
VM
p34
sVpLevel
p35
V43
p36
sVpMoves
p37
(lp38
Vshadow-punch
p39
aVpayback
p40
aVsucker-punch
p41
aVdark-pulse
p42
asVpHold
p43
V
p44
sVpAbility
p45
Vlevitate
p46
sbag1
(g25
g3
Ntp47
Rp48
(dp49
g29
V065
p50
sg31
VAlakazam
p51
sg33
g34
sg35
V46
p52
sg37
(lp53
Vtrick
p54
aVcalm-mind
p55
aVmiracle-eye
p56
aVpsycho-cut
p57
asg43
g44
sg45
Vinner-focus
p58
sbag1
(g25
g3
Ntp59
Rp60
(dp61
g29
V094
p62
sg31
VGengar
p63
sg33
g34
sg35
V46
p64
sg37
(lp65
Vshadow-punch
p66
aVpayback
p67
aVsucker-punch
p68
aVdark-pulse
p69
asg43
g44
sg45
Vcursed-body
p70
sbasVbossFlag
p71
I00
sVtLongGame
p72
Vdiamond-pearl
p73
sbag1
(g2
g3
Ntp74
Rp75
(dp76
g7
VSpr DP Bird Keeper.png
p77
sg9
VBird Keeper
p78
sg11
VHana
p79
sg13
V1536
p80
sg15
V2
p81
sg17
g18
sg19
g20
sg21
g22
sg23
(lp82
g1
(g25
g3
Ntp83
Rp84
(dp85
g29
V164
p86
sg31
VNoctowl
p87
sg33
VF
p88
sg35
V46
p89
sg37
(lp90
Vroost
p91
aVpsycho-shift
p92
aVair-slash
p93
aVzen-headbutt
p94
asg43
g44
sg45
Vkeen-eye
p95
sbag1
(g25
g3
Ntp96
Rp97
(dp98
g29
V398
p99
sg31
VStaraptor
p100
sg33
g88
sg35
V48
p101
sg37
(lp102
Vendeavor
p103
aVaerial-ace
p104
aVclose-combat
p105
aVbrave-bird
p106
asg43
g44
sg45
Vintimidate
p107
sbasg71
I00
sg72
g73
sbag1
(g2
g3
Ntp108
Rp109
(dp110
g7
VSpr DP Ace Trainer F 1.png
p111
sg9
VAce Trainer
p112
sg11
VMariah
p113
sg13
V2880
p114
sg15
g81
sg17
g18
sg19
g20
sg21
g22
sg23
(lp115
g1
(g25
g3
Ntp116
Rp117
(dp118
g29
V055
p119
sg31
VGolduck
p120
sg33
g88
sg35
V46
p121
sg37
(lp122
Vpsych-up
p123
aVwater-sport
p124
aVwater-pulse
p125
aVzen-headbutt
p126
asg43
g44
sg45
Vcloud-nine
p127
sbag1
(g25
g3
Ntp128
Rp129
(dp130
g29
V242
p131
sg31
VBlissey
p132
sg33
g88
sg35
V48
p133
sg37
(lp134
Vsoft-boiled
p135
aVrefresh
p136
aVhealing-wish
p137
aVfling
p138
asg43
g44
sg45
Vserene-grace
p139
sbasg71
I00
sg72
g73
sbag1
(g2
g3
Ntp140
Rp141
(dp142
g7
VSpr DP Ace Trainer M 1.png
p143
sg9
VAce Trainer
p144
sg11
VOmar
p145
sg13
V2880
p146
sg15
g16
sg17
g18
sg19
g20
sg21
g22
sg23
(lp147
g1
(g25
g3
Ntp148
Rp149
(dp150
g29
V078
p151
sg31
VRapidash
p152
sg33
g34
sg35
V45
p153
sg37
(lp154
Vmegahorn
p155
aVbounce
p156
aVflare-blitz
p157
aVpoison-jab
p158
asg43
g44
sg45
Vrun-away
p159
sbag1
(g25
g3
Ntp160
Rp161
(dp162
g29
V455
p163
sg31
VCarnivine
p164
sg33
g34
sg35
V45
p165
sg37
(lp166
Vswallow
p167
aVingrain
p168
aVwring-out
p169
aVpower-whip
p170
asg43
g44
sg45
Vlevitate
p171
sbag1
(g25
g3
Ntp172
Rp173
(dp174
g29
V409
p175
sg31
VRampardos
p176
sg33
g34
sg35
V48
p177
sg37
(lp178
Vendeavor
p179
aVassurance
p180
aVzen-headbutt
p181
aVhead-smash
p182
asg43
g44
sg45
Vmold-breaker
p183
sbasg71
I00
sg72
g73
sbag1
(g2
g3
Ntp184
Rp185
(dp186
g7
VSpr DP Ace Trainer F 1.png
p187
sg9
VAce Trainer
p188
sg11
VSydney
p189
sg13
V2880
p190
sg15
g81
sg17
g18
sg19
g20
sg21
g22
sg23
(lp191
g1
(g25
g3
Ntp192
Rp193
(dp194
g29
V036
p195
sg31
VClefable
p196
sg33
g88
sg35
V46
p197
sg37
(lp198
Vdouble-slap
p199
aVsing
p200
aVminimize
p201
aVmetronome
p202
asg43
g44
sg45
Vcute-charm
p203
sbag1
(g25
g3
Ntp204
Rp205
(dp206
g29
V389
p207
sg31
VTorterra
p208
sg33
g34
sg35
V48
p209
sg37
(lp210
Vsynthesis
p211
aVcrunch
p212
aVleaf-storm
p213
aVwood-hammer
p214
asg43
g44
sg45
Vovergrow
p215
sbasg71
I00
sg72
g73
sbag1
(g2
g3
Ntp216
Rp217
(dp218
g7
VSpr DP Veteran.png
p219
sg9
VVeteran
p220
sg11
VClayton
p221
sg13
V3760
p222
sg15
g81
sg17
g18
sg19
g20
sg21
g22
sg23
(lp223
g1
(g25
g3
Ntp224
Rp225
(dp226
g29
V398
p227
sg31
VStaraptor
p228
sg33
g34
sg35
V47
p229
sg37
(lp230
Vendeavor
p231
aVaerial-ace
p232
aVclose-combat
p233
aVbrave-bird
p234
asg43
g44
sg45
Vintimidate
p235
sbag1
(g25
g3
Ntp236
Rp237
(dp238
g29
V450
p239
sg31
VHippowdon
p240
sg33
g34
sg35
V47
p241
sg37
(lp242
Vsand-tomb
p243
aVthunder-fang
p244
aVice-fang
p245
aVfire-fang
p246
asg43
g44
sg45
Vsand-stream
p247
sbasg71
I00
sg72
g73
sbag1
(g2
g3
Ntp248
Rp249
(dp250
g7
VSpr DP Double Team.png
p251
sg9
VDouble Team
p252
sg11
VAl & Kay
p253
sg13
V11280
p254
sg15
g81
sg17
g18
sg19
g20
sg21
g22
sg23
(lp255
g1
(g25
g3
Ntp256
Rp257
(dp258
g29
V398
p259
sg31
VStaraptor
p260
sg33
g34
sg35
V47
p261
sg37
(lp262
Vendeavor
p263
aVaerial-ace
p264
aVclose-combat
p265
aVbrave-bird
p266
asg43
g44
sg45
Vintimidate
p267
sbag1
(g25
g3
Ntp268
Rp269
(dp270
g29
V340
p271
sg31
VWhiscash
p272
sg33
g34
sg35
V47
p273
sg37
(lp274
Vwater-pulse
p275
aVaqua-tail
p276
aVmud-bomb
p277
aVzen-headbutt
p278
asg43
g44
sg45
Voblivious
p279
sbasg71
I00
sg72
g73
sbag1
(g2
g3
Ntp280
Rp281
(dp282
g7
VSpr DP Black Belt.png
p283
sg9
VBlack Belt
p284
sg11
VMiles
p285
sg13
V1176
p286
sg15
V1
p287
sg17
g18
sg19
g20
sg21
g22
sg23
(lp288
g1
(g25
g3
Ntp289
Rp290
(dp291
g29
V068
p292
sg31
VMachamp
p293
sg33
g34
sg35
V49
p294
sg37
(lp295
Vvital-throw
p296
aVcross-chop
p297
aVrevenge
p298
aVwake-up-slap
p299
asg43
g44
sg45
Vguts
p300
sbasg71
I00
sg72
g73
sbag1
(g2
g3
Ntp301
Rp302
(dp303
g7
VSpr DP Psychic F.png
p304
sg9
VPsychic
p305
sg11
VValencia
p306
sg13
V1536
p307
sg15
g81
sg17
g18
sg19
g20
sg21
g22
sg23
(lp308
g1
(g25
g3
Ntp309
Rp310
(dp311
g29
V433
p312
sg31
VChingling
p313
sg33
g88
sg35
V44
p314
sg37
(lp315
Vconfusion
p316
aVuproar
p317
aVastonish
p318
aVlast-resort
p319
asg43
g44
sg45
Vlevitate
p320
sbag1
(g25
g3
Ntp321
Rp322
(dp323
g29
V358
p324
sg31
VChimecho
p325
sg33
g88
sg35
V48
p326
sg37
(lp327
Vyawn
p328
aVastonish
p329
aVextrasensory
p330
aVhealing-wish
p331
asg43
g44
sg45
Vlevitate
p332
sbasg71
I00
sg72
g73
sbag1
(g2
g3
Ntp333
Rp334
(dp335
g7
VSpr DP Double Team.png
p336
sg9
VDouble Team
p337
sg11
VJo & Pat
p338
sg13
V11280
p339
sg15
g81
sg17
g18
sg19
g20
sg21
g22
sg23
(lp340
g1
(g25
g3
Ntp341
Rp342
(dp343
g29
V130
p344
sg31
VGyarados
p345
sg33
g34
sg35
V47
p346
sg37
(lp347
Vrain-dance
p348
aVdragon-dance
p349
aVaqua-tail
p350
aVice-fang
p351
asg43
g44
sg45
Vintimidate
p352
sbag1
(g25
g3
Ntp353
Rp354
(dp355
g29
V308
p356
sg31
VMedicham
p357
sg33
g34
sg35
V47
p358
sg37
(lp359
Vcalm-mind
p360
aVfeint
p361
aVpower-trick
p362
aVforce-palm
p363
asg43
g44
sg45
Vpure-power
p364
sbasg71
I00
sg72
g73
sbag1
(g2
g3
Ntp365
Rp366
(dp367
g7
VSpr DP Ace Trainer M 1.png
p368
sg9
VAce Trainer
p369
sg11
VHenry
p370
sg13
V2940
p371
sg15
g287
sg17
g18
sg19
g20
sg21
g22
sg23
(lp372
g1
(g25
g3
Ntp373
Rp374
(dp375
g29
V430
p376
sg31
VHonchkrow
p377
sg33
g34
sg35
V49
p378
sg37
(lp379
Vastonish
p380
aVdark-pulse
p381
aVnight-slash
p382
aVnasty-plot
p383
asg43
g44
sg45
Vinsomnia
p384
sbasg71
I00
sg72
g73
sbag1
(g2
g3
Ntp385
Rp386
(dp387
g7
VSpr DP Dragon Tamer.png
p388
sg9
VDragon Tamer
p389
sg11
VOndrej
p390
sg13
V1568
p391
sg15
g287
sg17
g18
sg19
g20
sg21
g22
sg23
(lp392
g1
(g25
g3
Ntp393
Rp394
(dp395
g29
V444
p396
sg31
VGabite
p397
sg33
g34
sg35
V49
p398
sg37
(lp399
Vsandstorm
p400
aVsand-tomb
p401
aVdragon-claw
p402
aVdragon-rush
p403
asg43
g44
sg45
Vsand-veil
p404
sbasg71
I00
sg72
g73
sbag1
(g2
g3
Ntp405
Rp406
(dp407
g7
VSpr DP Veteran.png
p408
sg9
VVeteran
p409
sg11
VEdgar
p410
sg13
V3840
p411
sg15
g16
sg17
g18
sg19
g20
sg21
g22
sg23
(lp412
g1
(g25
g3
Ntp413
Rp414
(dp415
g29
V073
p416
sg31
VTentacruel
p417
sg33
g34
sg35
V45
p418
sg37
(lp419
Vwater-pulse
p420
aVwring-out
p421
aVtoxic-spikes
p422
aVpoison-jab
p423
asg43
g44
sg45
Vclear-body
p424
sbag1
(g25
g3
Ntp425
Rp426
(dp427
g29
V076
p428
sg31
VGolem
p429
sg33
g34
sg35
V45
p430
sg37
(lp431
Vrock-blast
p432
aVrock-polish
p433
ag433
aVstone-edge
p434
asg43
g44
sg45
Vrock-head
p435
sbag1
(g25
g3
Ntp436
Rp437
(dp438
g29
V395
p439
sg31
VEmpoleon
p440
sg33
g34
sg35
V48
p441
sg37
(lp442
Vmetal-claw
p443
aVwhirlpool
p444
aVbrine
p445
aVaqua-jet
p446
asg43
g44
sg45
Vtorrent
p447
sbasg71
I00
sg72
g73
sbag1
(g2
g3
Ntp448
Rp449
(dp450
g7
VSpr DP Dragon Tamer.png
p451
sg9
VDragon Tamer
p452
sg11
VClinton
p453
sg13
V1472
p454
sg15
g16
sg17
g18
sg19
g20
sg21
g22
sg23
(lp455
g1
(g25
g3
Ntp456
Rp457
(dp458
g29
V443
p459
sg31
VGible
p460
sg33
g34
sg35
V46
p461
sg37
(lp462
Vsandstorm
p463
aVsand-tomb
p464
aVdragon-claw
p465
aVdragon-rush
p466
asg43
g44
sg45
Vsand-veil
p467
sbag1
(g25
g3
Ntp468
Rp469
(dp470
g29
V130
p471
sg31
VGyarados
p472
sg33
g34
sg35
V49
p473
sg37
(lp474
Vrain-dance
p475
aVdragon-dance
p476
aVaqua-tail
p477
aVice-fang
p478
asg43
g44
sg45
Vintimidate
p479
sbag1
(g25
g3
Ntp480
Rp481
(dp482
g29
V443
p483
sg31
VGible
p484
sg33
g34
sg35
V46
p485
sg37
(lp486
Vsandstorm
p487
aVsand-tomb
p488
aVdragon-claw
p489
aVdragon-rush
p490
asg43
g44
sg45
Vsand-veil
p491
sbasg71
I00
sg72
g73
sbag1
(g2
g3
Ntp492
Rp493
(dp494
g7
VSpr DP Ace Trainer M 1.png
p495
sg9
VAce Trainer
p496
sg11
VMicah
p497
sg13
V3240<br><small>Potential [[Double Battle]] with Brandi</small>
p498
sg15
g16
sg17
g18
sg19
g20
sg21
g22
sg23
(lp499
g1
(g25
g3
Ntp500
Rp501
(dp502
g29
V400
p503
sg31
VBibarel
p504
sg33
g34
sg35
V54
p505
sg37
(lp506
Vsuper-fang
p507
aVrollout
p508
aVsuperpower
p509
aVyawn
p510
asg43
g44
sg45
Vsimple
p511
sbag1
(g25
g3
Ntp512
Rp513
(dp514
g29
V078
p515
sg31
VRapidash
p516
sg33
g34
sg35
V54
p517
sg37
(lp518
Vmegahorn
p519
aVbounce
p520
aVflare-blitz
p521
aVpoison-jab
p522
asg43
g44
sg45
Vflash-fire
p523
sbag1
(g25
g3
Ntp524
Rp525
(dp526
g29
V267
p527
sg31
VBeautifly
p528
sg33
g34
sg35
V54
p529
sg37
(lp530
Vattract
p531
aVmorning-sun
p532
aVsilver-wind
p533
aVbug-buzz
p534
asg43
g44
sg45
Vswarm
p535
sbasg71
I00
sg72
g73
sbag1
(g2
g3
Ntp536
Rp537
(dp538
g7
VSpr DP Ace Trainer F 1.png
p539
sg9
VAce Trainer
p540
sg11
VBrandi
p541
sg13
V3240<br><small>Potential [[Double Battle]] with Micah</small>
p542
sg15
g16
sg17
g18
sg19
g20
sg21
g22
sg23
(lp543
g1
(g25
g3
Ntp544
Rp545
(dp546
g29
V417
p547
sg31
VPachirisu
p548
sg33
g88
sg35
V54
p549
sg37
(lp550
Vcharm
p551
aVspark
p552
aVlast-resort
p553
aVdischarge
p554
asg43
g44
sg45
Vrun-away
p555
sbag1
(g25
g3
Ntp556
Rp557
(dp558
g29
V184
p559
sg31
VAzumarill
p560
sg33
g88
sg35
V54
p561
sg37
(lp562
Vrollout
p563
aVrain-dance
p564
aVaqua-ring
p565
aVaqua-tail
p566
asg43
g44
sg45
Vthick-fat
p567
sbag1
(g25
g3
Ntp568
Rp569
(dp570
g29
V242
p571
sg31
VBlissey
p572
sg33
g88
sg35
V54
p573
sg37
(lp574
Vsoft-boiled
p575
aVrefresh
p576
aVhealing-wish
p577
aVfling
p578
asg43
g44
sg45
Vserene-grace
p579
sbasg71
I00
sg72
g73
sbag1
(g2
g3
Ntp580
Rp581
(dp582
g7
VSpr DP Psychic F.png
p583
sg9
VPsychic
p584
sg11
VDesiree
p585
sg13
V1728<br><small>Potential [[Double Battle]] with Landon</small>
p586
sg15
g81
sg17
g18
sg19
g20
sg21
g22
sg23
(lp587
g1
(g25
g3
Ntp588
Rp589
(dp590
g29
V064
p591
sg31
VKadabra
p592
sg33
g34
sg35
V54
p593
sg37
(lp594
Vtrick
p595
aVrole-play
p596
aVmiracle-eye
p597
aVpsycho-cut
p598
asg43
g44
sg45
Vinner-focus
p599
sbag1
(g25
g3
Ntp600
Rp601
(dp602
g29
V064
p603
sg31
VKadabra
p604
sg33
g34
sg35
V54
p605
sg37
(lp606
Vtrick
p607
aVrole-play
p608
aVmiracle-eye
p609
aVpsycho-cut
p610
asg43
g44
sg45
Vsynchronize
p611
sbasg71
I00
sg72
g73
sbag1
(g2
g3
Ntp612
Rp613
(dp614
g7
VSpr DP Psychic M.png
p615
sg9
VPsychic
p616
sg11
VLandon
p617
sg13
V1792<br><small>Potential [[Double Battle]] with Desiree</small>
p618
sg15
g287
sg17
g18
sg19
g20
sg21
g22
sg23
(lp619
g1
(g25
g3
Ntp620
Rp621
(dp622
g29
V122
p623
sg31
VMr. Mime
p624
sg33
g34
sg35
V56
p625
sg37
(lp626
Vmagical-leaf
p627
aVcopycat
p628
aVpower-swap
p629
aVguard-swap
p630
asg43
g44
sg45
Vfilter
p631
sbasg71
I00
sg72
g73
sbag1
(g2
g3
Ntp632
Rp633
(dp634
g7
VSpr DP Black Belt.png
p635
sg9
VBlack Belt
p636
sg11
VEddie
p637
sg13
V1392<br><small>Potential [[Double Battle]] with Terrell</small>
p638
sg15
g81
sg17
g18
sg19
g20
sg21
g22
sg23
(lp639
g1
(g25
g3
Ntp640
Rp641
(dp642
g29
V067
p643
sg31
VMachoke
p644
sg33
g34
sg35
V52
p645
sg37
(lp646
Vvital-throw
p647
aVcross-chop
p648
aVrevenge
p649
aVwake-up-slap
p650
asg43
g44
sg45
Vno-guard
p651
sbag1
(g25
g3
Ntp652
Rp653
(dp654
g29
V068
p655
sg31
VMachamp
p656
sg33
g34
sg35
V58
p657
sg37
(lp658
Vvital-throw
p659
aVcross-chop
p660
aVrevenge
p661
aVwake-up-slap
p662
asg43
g44
sg45
Vno-guard
p663
sbasg71
I00
sg72
g73
sbag1
(g2
g3
Ntp664
Rp665
(dp666
g7
VSpr DP Veteran.png
p667
sg9
VVeteran
p668
sg11
VTerrell
p669
sg13
V4320<br><small>Potential [[Double Battle]] with Eddie</small>
p670
sg15
g16
sg17
g18
sg19
g20
sg21
g22
sg23
(lp671
g1
(g25
g3
Ntp672
Rp673
(dp674
g29
V402
p675
sg31
VKricketune
p676
sg33
g34
sg35
V54
p677
sg37
(lp678
Vperish-song
p679
aVfury-cutter
p680
aVx-scissor
p681
aVbug-buzz
p682
asg43
g44
sg45
Vswarm
p683
sbag1
(g25
g3
Ntp684
Rp685
(dp686
g29
V195
p687
sg31
VQuagsire
p688
sg33
g34
sg35
V54
p689
sg37
(lp690
Vmud-sport
p691
aVmuddy-water
p692
aVmud-shot
p693
aVmud-bomb
p694
asg43
g44
sg45
Vwater-absorb
p695
sbag1
(g25
g3
Ntp696
Rp697
(dp698
g29
V094
p699
sg31
VGengar
p700
sg33
g34
sg35
V54
p701
sg37
(lp702
Vshadow-punch
p703
aVpayback
p704
aVsucker-punch
p705
aVdark-pulse
p706
asg43
g44
sg45
Vcursed-body
p707
sbasg71
I00
sg72
g73
sbag1
(g2
g3
Ntp708
Rp709
(dp710
g7
VSpr DP Dragon Tamer.png
p711
sg9
VDragon Tamer
p712
sg11
VJoe
p713
sg13
V1792<br><small>Potential [[Double Battle]] with Autumn</small>
p714
sg15
g81
sg17
g18
sg19
g20
sg21
g22
sg23
(lp715
g1
(g25
g3
Ntp716
Rp717
(dp718
g29
V444
p719
sg31
VGabite
p720
sg33
g34
sg35
V56
p721
sg37
(lp722
Vsandstorm
p723
aVsand-tomb
p724
aVdragon-claw
p725
aVdragon-rush
p726
asg43
g44
sg45
Vsand-veil
p727
sbag1
(g25
g3
Ntp728
Rp729
(dp730
g29
V130
p731
sg31
VGyarados
p732
sg33
g34
sg35
V56
p733
sg37
(lp734
Vrain-dance
p735
aVdragon-dance
p736
aVaqua-tail
p737
aVice-fang
p738
asg43
g44
sg45
Vintimidate
p739
sbasg71
I00
sg72
g73
sbag1
(g2
g3
Ntp740
Rp741
(dp742
g7
VSpr DP Bird Keeper.png
p743
sg9
VBird Keeper
p744
sg11
VAutumn
p745
sg13
V1824<br><small>Potential [[Double Battle]] with Joe</small>
p746
sg15
g81
sg17
g18
sg19
g20
sg21
g22
sg23
(lp747
g1
(g25
g3
Ntp748
Rp749
(dp750
g29
V198
p751
sg31
VMurkrow
p752
sg33
g88
sg35
V53
p753
sg37
(lp754
Vtaunt
p755
aVastonish
p756
aVassurance
p757
aVsucker-punch
p758
asg43
g44
sg45
Vsuper-luck
p759
sbag1
(g25
g3
Ntp760
Rp761
(dp762
g29
V430
p763
sg31
VHonchkrow
p764
sg33
g88
sg35
V57
p765
sg37
(lp766
Vastonish
p767
aVdark-pulse
p768
aVnight-slash
p769
aVnasty-plot
p770
asg43
g44
sg45
Vsuper-luck
p771
sbasg71
I00
sg72
g73
sbag1
(g2
g3
Ntp772
Rp773
(dp774
g7
VSpr DP Psychic M.png
p775
sg9
VPsychic
p776
sg11
VDeandre
p777
sg13
V1792<br><small>Potential [[Double Battle]] with Kendra</small>
p778
sg15
g287
sg17
g18
sg19
g20
sg21
g22
sg23
(lp779
g1
(g25
g3
Ntp780
Rp781
(dp782
g29
V203
p783
sg31
VGirafarig
p784
sg33
g34
sg35
V56
p785
sg37
(lp786
Vpower-swap
p787
aVguard-swap
p788
aVzen-headbutt
p789
aVdouble-hit
p790
asg43
g44
sg45
Vearly-bird
p791
sbasg71
I00
sg72
g73
sbag1
(g2
g3
Ntp792
Rp793
(dp794
g7
VSpr DP Psychic F.png
p795
sg9
VPsychic
p796
sg11
VKendra
p797
sg13
V1760<br><small>Potential [[Double Battle]] with Deandre</small>
p798
sg15
g81
sg17
g18
sg19
g20
sg21
g22
sg23
(lp799
g1
(g25
g3
Ntp800
Rp801
(dp802
g29
V433
p803
sg31
VChingling
p804
sg33
g88
sg35
V53
p805
sg37
(lp806
Vconfusion
p807
aVuproar
p808
aVastonish
p809
aVlast-resort
p810
asg43
g44
sg45
Vlevitate
p811
sbag1
(g25
g3
Ntp812
Rp813
(dp814
g29
V358
p815
sg31
VChimecho
p816
sg33
g88
sg35
V55
p817
sg37
(lp818
Vyawn
p819
aVastonish
p820
aVextrasensory
p821
aVhealing-wish
p822
asg43
g44
sg45
Vlevitate
p823
sbasg71
I00
sg72
g73
sbag1
(g2
g3
Ntp824
Rp825
(dp826
g7
VSpr DP Black Belt.png
p827
sg9
VBlack Belt
p828
sg11
VWillie
p829
sg13
V1344<br><small>Potential [[Double Battle]] with Brenden</small>
p830
sg15
g81
sg17
g18
sg19
g20
sg21
g22
sg23
(lp831
g1
(g25
g3
Ntp832
Rp833
(dp834
g29
V095
p835
sg31
VOnix
p836
sg33
g34
sg35
V54
p837
sg37
(lp838
Vrock-tomb
p839
aVsand-tomb
p840
aVrock-polish
p841
aVstone-edge
p842
asg43
g44
sg45
Vsturdy
p843
sbag1
(g25
g3
Ntp844
Rp845
(dp846
g29
V068
p847
sg31
VMachamp
p848
sg33
g34
sg35
V56
p849
sg37
(lp850
Vvital-throw
p851
aVcross-chop
p852
aVrevenge
p853
aVwake-up-slap
p854
asg43
g44
sg45
Vno-guard
p855
sbasg71
I00
sg72
g73
sbag1
(g2
g3
Ntp856
Rp857
(dp858
g7
VSpr DP Veteran.png
p859
sg9
VVeteran
p860
sg11
VBrenden
p861
sg13
V4320<br><small>Potential [[Double Battle]] with Willie</small>
p862
sg15
g16
sg17
g18
sg19
g20
sg21
g22
sg23
(lp863
g1
(g25
g3
Ntp864
Rp865
(dp866
g29
V432
p867
sg31
VPurugly
p868
sg33
g88
sg35
V54
p869
sg37
(lp870
Vattract
p871
aVfake-out
p872
aVassist
p873
aVcaptivate
p874
asg43
g44
sg45
Vown-tempo
p875
sbag1
(g25
g3
Ntp876
Rp877
(dp878
g29
V075
p879
sg31
VGraveler
p880
sg33
g34
sg35
V54
p881
sg37
(lp882
Vrock-blast
p883
aVrock-polish
p884
ag884
aVstone-edge
p885
asg43
g44
sg45
Vsturdy
p886
sbag1
(g25
g3
Ntp887
Rp888
(dp889
g29
V042
p890
sg31
VGolbat
p891
sg33
g34
sg35
V54
p892
sg37
(lp893
Vastonish
p894
ag894
aVair-cutter
p895
aVair-slash
p896
asg43
g44
sg45
Vinner-focus
p897
sbasg71
I00
sg72
g73
sbag1
(g2
g3
Ntp898
Rp899
(dp900
g7
VSpr DP Ace Trainer M 1.png
p901
sg9
VAce Trainer
p902
sg11
VArthur
p903
sg13
V3300<br><small>Potential [[Double Battle]] with Clarice</small>
p904
sg15
g81
sg17
g18
sg19
g20
sg21
g22
sg23
(lp905
g1
(g25
g3
Ntp906
Rp907
(dp908
g29
V026
p909
sg31
VRaichu
p910
sg33
g34
sg35
V55
p911
sg37
(lp912
Vtail-whip
p913
aVthunder-shock
p914
aVthunderbolt
p915
aVquick-attack
p916
asg43
g44
sg45
Vstatic
p917
sbag1
(g25
g3
Ntp918
Rp919
(dp920
g29
V423
p921
sg31
VGastrodon
p922
sg33
g34
sg35
V55
p923
sg37
(lp924
Vmuddy-water
p925
aVwater-pulse
p926
ag926
aVmud-bomb
p927
asg43
g44
sg45
Vsticky-hold
p928
sbasg71
I00
sg72
g73
sbag1
(g2
g3
Ntp929
Rp930
(dp931
g7
VSpr DP Ace Trainer F 1.png
p932
sg9
VAce Trainer
p933
sg11
VClarice
p934
sg13
V3240<br><small>Potential [[Double Battle]] with Arthur</small>
p935
sg15
g16
sg17
g18
sg19
g20
sg21
g22
sg23
(lp936
g1
(g25
g3
Ntp937
Rp938
(dp939
g29
V428
p940
sg31
VLopunny
p941
sg33
g88
sg35
V54
p942
sg37
(lp943
Vmirror-coat
p944
aVmagic-coat
p945
aVbounce
p946
aVhealing-wish
p947
asg43
g44
sg45
Vklutz
p948
sbag1
(g25
g3
Ntp949
Rp950
(dp951
g29
V279
p952
sg31
VPelipper
p953
sg33
g88
sg35
V54
p954
sg37
(lp955
Vroost
p956
aVtailwind
p957
aVpayback
p958
aVfling
p959
asg43
g44
sg45
Vdrizzle
p960
sbag1
(g25
g3
Ntp961
Rp962
(dp963
g29
V195
p964
sg31
VQuagsire
p965
sg33
g88
sg35
V54
p966
sg37
(lp967
Vmud-sport
p968
aVmuddy-water
p969
aVmud-shot
p970
aVmud-bomb
p971
asg43
g44
sg45
Vdamp
p972
sbasg71
I00
sg72
g73
sbag1
(g2
g3
Ntp973
Rp974
(dp975
g7
VSpr DP Psychic M.png
p976
sg9
VPsychic
p977
sg11
VBryce
p978
sg13
V1472
p979
sg15
g16
sg17
g18
sg19
g20
sg21
g22
sg23
(lp980
g1
(g25
g3
Ntp981
Rp982
(dp983
g29
V093
p984
sg31
VHaunter
p985
sg33
g34
sg35
V43
p986
sg37
(lp987
Vshadow-punch
p988
aVpayback
p989
aVsucker-punch
p990
aVdark-pulse
p991
asg43
g44
sg45
Vlevitate
p992
sbag1
(g25
g3
Ntp993
Rp994
(dp995
g29
V094
p996
sg31
VGengar
p997
sg33
g34
sg35
V46
p998
sg37
(lp999
Vshadow-punch
p1000
aVpayback
p1001
aVsucker-punch
p1002
aVdark-pulse
p1003
asg43
g44
sg45
Vcursed-body
p1004
sbag1
(g25
g3
Ntp1005
Rp1006
(dp1007
g29
V282
p1008
sg31
VGardevoir
p1009
sg33
g34
sg35
V46
p1010
sg37
(lp1011
Vmagical-leaf
p1012
aVcalm-mind
p1013
aVhealing-wish
p1014
aVcaptivate
p1015
asg43
g44
sg45
Vsynchronize
p1016
sbasg71
I00
sg72
g73
sbag1
(g2
g3
Ntp1017
Rp1018
(dp1019
g7
VSpr DP Bird Keeper.png
p1020
sg9
VBird Keeper
p1021
sg11
VHana
p1022
sg13
V1504
p1023
sg15
g81
sg17
g18
sg19
g20
sg21
g22
sg23
(lp1024
g1
(g25
g3
Ntp1025
Rp1026
(dp1027
g29
V164
p1028
sg31
VNoctowl
p1029
sg33
g88
sg35
V45
p1030
sg37
(lp1031
Vroost
p1032
aVpsycho-shift
p1033
aVair-slash
p1034
aVzen-headbutt
p1035
asg43
g44
sg45
Vinsomnia
p1036
sbag1
(g25
g3
Ntp1037
Rp1038
(dp1039
g29
V176
p1040
sg31
VTogetic
p1041
sg33
g34
sg35
V47
p1042
sg37
(lp1043
Vwish
p1044
aVyawn
p1045
aVmagical-leaf
p1046
aVlast-resort
p1047
asg43
g44
sg45
Vserene-grace
p1048
sbasg71
I00
sg72
g73
sbag1
(g2
g3
Ntp1049
Rp1050
(dp1051
g7
VSpr DP Ace Trainer F 1.png
p1052
sg9
VAce Trainer
p1053
sg11
VMariah
p1054
sg13
V2880
p1055
sg15
g16
sg17
g18
sg19
g20
sg21
g22
sg23
(lp1056
g1
(g25
g3
Ntp1057
Rp1058
(dp1059
g29
V242
p1060
sg31
VBlissey
p1061
sg33
g88
sg35
V45
p1062
sg37
(lp1063
Vsoft-boiled
p1064
aVrefresh
p1065
aVhealing-wish
p1066
aVfling
p1067
asg43
g44
sg45
Vnatural-cure
p1068
sbag1
(g25
g3
Ntp1069
Rp1070
(dp1071
g29
V362
p1072
sg31
VGlalie
p1073
sg33
g88
sg35
V46
p1074
sg37
(lp1075
Vcrunch
p1076
aVhail
p1077
aVsheer-cold
p1078
aVice-fang
p1079
asg43
g44
sg45
Vinner-focus
p1080
sbag1
(g25
g3
Ntp1081
Rp1082
(dp1083
g29
V462
p1084
sg31
VMagnezone
p1085
sg33
VU
p1086
sg35
V48
p1087
sg37
(lp1088
Vmagnet-rise
p1089
aVmirror-shot
p1090
aVdischarge
p1091
aVmagnet-bomb
p1092
asg43
g44
sg45
Vmagnet-pull
p1093
sbasg71
I00
sg72
g73
sbag1
(g2
g3
Ntp1094
Rp1095
(dp1096
g7
VSpr DP Ace Trainer M 1.png
p1097
sg9
VAce Trainer
p1098
sg11
VOmar
p1099
sg13
V2880
p1100
sg15
g16
sg17
g18
sg19
g20
sg21
g22
sg23
(lp1101
g1
(g25
g3
Ntp1102
Rp1103
(dp1104
g29
V473
p1105
sg31
VMamoswine
p1106
sg33
g34
sg35
V45
p1107
sg37
(lp1108
Vodor-sleuth
p1109
aVice-fang
p1110
aVmud-bomb
p1111
aVdouble-hit
p1112
asg43
g44
sg45
Voblivious
p1113
sbag1
(g25
g3
Ntp1114
Rp1115
(dp1116
g29
V414
p1117
sg31
VMothim
p1118
sg33
g34
sg35
V46
p1119
sg37
(lp1120
Vcamouflage
p1121
aVsilver-wind
p1122
aVair-slash
p1123
aVbug-buzz
p1124
asg43
g44
sg45
Vswarm
p1125
sbag1
(g25
g3
Ntp1126
Rp1127
(dp1128
g29
V409
p1129
sg31
VRampardos
p1130
sg33
g34
sg35
V48
p1131
sg37
(lp1132
Vendeavor
p1133
aVassurance
p1134
aVzen-headbutt
p1135
aVhead-smash
p1136
asg43
g44
sg45
Vmold-breaker
p1137
sbasg71
I00
sg72
g73
sbag1
(g2
g3
Ntp1138
Rp1139
(dp1140
g7
VSpr DP Ace Trainer F 1.png
p1141
sg9
VAce Trainer
p1142
sg11
VSydney
p1143
sg13
V2880
p1144
sg15
g81
sg17
g18
sg19
g20
sg21
g22
sg23
(lp1145
g1
(g25
g3
Ntp1146
Rp1147
(dp1148
g29
V036
p1149
sg31
VClefable
p1150
sg33
g88
sg35
V47
p1151
sg37
(lp1152
Vdouble-slap
p1153
aVsing
p1154
aVminimize
p1155
aVmetronome
p1156
asg43
g44
sg45
Vcute-charm
p1157
sbag1
(g25
g3
Ntp1158
Rp1159
(dp1160
g29
V389
p1161
sg31
VTorterra
p1162
sg33
g34
sg35
V48
p1163
sg37
(lp1164
Vsynthesis
p1165
aVcrunch
p1166
aVleaf-storm
p1167
aVwood-hammer
p1168
asg43
g44
sg45
Vovergrow
p1169
sbasg71
I00
sg72
g73
sbag1
(g2
g3
Ntp1170
Rp1171
(dp1172
g7
VSpr DP Veteran.png
p1173
sg9
VVeteran
p1174
sg11
VClayton
p1175
sg13
V3760
p1176
sg15
g81
sg17
g18
sg19
g20
sg21
g22
sg23
(lp1177
g1
(g25
g3
Ntp1178
Rp1179
(dp1180
g29
V398
p1181
sg31
VStaraptor
p1182
sg33
g34
sg35
V47
p1183
sg37
(lp1184
Vendeavor
p1185
aVaerial-ace
p1186
aVclose-combat
p1187
aVbrave-bird
p1188
asg43
g44
sg45
Vintimidate
p1189
sbag1
(g25
g3
Ntp1190
Rp1191
(dp1192
g29
V463
p1193
sg31
VLickilicky
p1194
sg33
g34
sg35
V47
p1195
sg37
(lp1196
Vgyro-ball
p1197
aVwring-out
p1198
aVme-first
p1199
aVpower-whip
p1200
asg43
g44
sg45
Vown-tempo
p1201
sbasg71
I00
sg72
g73
sbag1
(g2
g3
Ntp1202
Rp1203
(dp1204
g7
VSpr DP Double Team.png
p1205
sg9
VDouble Team
p1206
sg11
VAl & Kay
p1207
sg13
V12000
p1208
sg15
g81
sg17
g18
sg19
g20
sg21
g22
sg23
(lp1209
g1
(g25
g3
Ntp1210
Rp1211
(dp1212
g29
V398
p1213
sg31
VStaraptor
p1214
sg33
g34
sg35
V50
p1215
sg37
(lp1216
Vendeavor
p1217
aVaerial-ace
p1218
aVclose-combat
p1219
aVbrave-bird
p1220
asg43
g44
sg45
Vintimidate
p1221
sbag1
(g25
g3
Ntp1222
Rp1223
(dp1224
g29
V424
p1225
sg31
VAmbipom
p1226
sg33
g34
sg35
V50
p1227
sg37
(lp1228
Vfling
p1229
aVlast-resort
p1230
aVnasty-plot
p1231
aVdouble-hit
p1232
asg43
g44
sg45
Vpickup
p1233
sbasg71
I00
sg72
g73
sbag1
(g2
g3
Ntp1234
Rp1235
(dp1236
g7
VSpr DP Black Belt.png
p1237
sg9
VBlack Belt
p1238
sg11
VMiles
p1239
sg13
V1152
p1240
sg15
g287
sg17
g18
sg19
g20
sg21
g22
sg23
(lp1241
g1
(g25
g3
Ntp1242
Rp1243
(dp1244
g29
V068
p1245
sg31
VMachamp
p1246
sg33
g34
sg35
V48
p1247
sg37
(lp1248
Vvital-throw
p1249
aVcross-chop
p1250
aVrevenge
p1251
aVwake-up-slap
p1252
asg43
g44
sg45
Vguts
p1253
sbasg71
I00
sg72
g73
sbag1
(g2
g3
Ntp1254
Rp1255
(dp1256
g7
VSpr DP Psychic F.png
p1257
sg9
VPsychic
p1258
sg11
VValencia
p1259
sg13
V1472
p1260
sg15
g16
sg17
g18
sg19
g20
sg21
g22
sg23
(lp1261
g1
(g25
g3
Ntp1262
Rp1263
(dp1264
g29
V358
p1265
sg31
VChimecho
p1266
sg33
g88
sg35
V44
p1267
sg37
(lp1268
Vyawn
p1269
aVastonish
p1270
aVextrasensory
p1271
aVhealing-wish
p1272
asg43
g44
sg45
Vlevitate
p1273
sbag1
(g25
g3
Ntp1274
Rp1275
(dp1276
g29
V359
p1277
sg31
VAbsol
p1278
sg33
g88
sg35
V45
p1279
sg37
(lp1280
Vme-first
p1281
aVsucker-punch
p1282
aVnight-slash
p1283
aVpsycho-cut
p1284
asg43
g44
sg45
Vpressure
p1285
sbag1
(g25
g3
Ntp1286
Rp1287
(dp1288
g29
V477
p1289
sg31
VDusknoir
p1290
sg33
g88
sg35
V46
p1291
sg37
(lp1292
Vshadow-punch
p1293
aVgravity
p1294
aVpayback
p1295
aVshadow-sneak
p1296
asg43
g44
sg45
Vpressure
p1297
sbasg71
I00
sg72
g73
sbag1
(g2
g3
Ntp1298
Rp1299
(dp1300
g7
VSpr DP Double Team.png
p1301
sg9
VDouble Team
p1302
sg11
VPat & Jo
p1303
sg13
V12000
p1304
sg15
g81
sg17
g18
sg19
g20
sg21
g22
sg23
(lp1305
g1
(g25
g3
Ntp1306
Rp1307
(dp1308
g29
V457
p1309
sg31
VLumineon
p1310
sg33
g34
sg35
V50
p1311
sg37
(lp1312
Vwater-pulse
p1313
aVu-turn
p1314
aVaqua-ring
p1315
aVcaptivate
p1316
asg43
g44
sg45
Vstorm-drain
p1317
sbag1
(g25
g3
Ntp1318
Rp1319
(dp1320
g29
V078
p1321
sg31
VRapidash
p1322
sg33
g34
sg35
V50
p1323
sg37
(lp1324
Vmegahorn
p1325
aVbounce
p1326
aVflare-blitz
p1327
aVpoison-jab
p1328
asg43
g44
sg45
Vrun-away
p1329
sbasg71
I00
sg72
g73
sbag1
(g2
g3
Ntp1330
Rp1331
(dp1332
g7
VSpr DP Ace Trainer M 1.png
p1333
sg9
VAce Trainer
p1334
sg11
VHenry
p1335
sg13
V2880
p1336
sg15
g81
sg17
g18
sg19
g20
sg21
g22
sg23
(lp1337
g1
(g25
g3
Ntp1338
Rp1339
(dp1340
g29
V112
p1341
sg31
VRhydon
p1342
sg33
g34
sg35
V47
p1343
sg37
(lp1344
Vmegahorn
p1345
aVrock-blast
p1346
aVhammer-arm
p1347
aVstone-edge
p1348
asg43
g44
sg45
Vlightning-rod
p1349
sbag1
(g25
g3
Ntp1350
Rp1351
(dp1352
g29
V455
p1353
sg31
VCarnivine
p1354
sg33
g34
sg35
V48
p1355
sg37
(lp1356
Vswallow
p1357
aVingrain
p1358
aVwring-out
p1359
aVpower-whip
p1360
asg43
g44
sg45
Vlevitate
p1361
sbasg71
I00
sg72
g73
sbag1
(g2
g3
Ntp1362
Rp1363
(dp1364
g7
VSpr DP Dragon Tamer.png
p1365
sg9
VDragon Tamer
p1366
sg11
VOndrej
p1367
sg13
V1504
p1368
sg15
g81
sg17
g18
sg19
g20
sg21
g22
sg23
(lp1369
g1
(g25
g3
Ntp1370
Rp1371
(dp1372
g29
V334
p1373
sg31
VAltaria
p1374
sg33
g34
sg35
V45
p1375
sg37
(lp1376
Vdragon-dance
p1377
aVnatural-gift
p1378
aVpluck
p1379
aVdragon-pulse
p1380
asg43
g44
sg45
Vnatural-cure
p1381
sbag1
(g25
g3
Ntp1382
Rp1383
(dp1384
g29
V444
p1385
sg31
VGabite
p1386
sg33
g34
sg35
V47
p1387
sg37
(lp1388
Vsandstorm
p1389
aVsand-tomb
p1390
aVdragon-claw
p1391
aVdragon-rush
p1392
asg43
g44
sg45
Vsand-veil
p1393
sbasg71
I00
sg72
g73
sbag1
(g2
g3
Ntp1394
Rp1395
(dp1396
g7
VSpr DP Veteran.png
p1397
sg9
VVeteran
p1398
sg11
VEdgar
p1399
sg13
V3680
p1400
sg15
g16
sg17
g18
sg19
g20
sg21
g22
sg23
(lp1401
g1
(g25
g3
Ntp1402
Rp1403
(dp1404
g29
V474
p1405
sg31
VPorygon-Z
p1406
sg33
g1086
sg35
V46
p1407
sg37
(lp1408
Vmagnet-rise
p1409
aVnasty-plot
p1410
aVtrick-room
p1411
aVdischarge
p1412
asg43
g44
sg45
Vadaptability
p1413
sbag1
(g25
g3
Ntp1414
Rp1415
(dp1416
g29
V465
p1417
sg31
VTangrowth
p1418
sg33
g34
sg35
V46
p1419
sg37
(lp1420
Vblock
p1421
aVnatural-gift
p1422
aVwring-out
p1423
aVpower-whip
p1424
asg43
g44
sg45
Vleaf-guard
p1425
sbag1
(g25
g3
Ntp1426
Rp1427
(dp1428
g29
V395
p1429
sg31
VEmpoleon
p1430
sg33
g34
sg35
V46
p1431
sg37
(lp1432
Vmetal-claw
p1433
aVwhirlpool
p1434
aVbrine
p1435
aVaqua-jet
p1436
asg43
g44
sg45
Vtorrent
p1437
sbasg71
I00
sg72
g73
sbag1
(g2
g3
Ntp1438
Rp1439
(dp1440
g7
VSpr DP Dragon Tamer.png
p1441
sg9
VDragon Tamer
p1442
sg11
VClinton
p1443
sg13
V1504
p1444
sg15
g16
sg17
g18
sg19
g20
sg21
g22
sg23
(lp1445
g1
(g25
g3
Ntp1446
Rp1447
(dp1448
g29
V443
p1449
sg31
VGible
p1450
sg33
g34
sg35
V43
p1451
sg37
(lp1452
Vsandstorm
p1453
aVsand-tomb
p1454
aVdragon-claw
p1455
aVdragon-rush
p1456
asg43
g44
sg45
Vsand-veil
p1457
sbag1
(g25
g3
Ntp1458
Rp1459
(dp1460
g29
V333
p1461
sg31
VSwablu
p1462
sg33
g34
sg35
V45
p1463
sg37
(lp1464
Vrefresh
p1465
aVastonish
p1466
aVnatural-gift
p1467
aVdragon-pulse
p1468
asg43
g44
sg45
Vnatural-cure
p1469
sbag1
(g25
g3
Ntp1470
Rp1471
(dp1472
g29
V444
p1473
sg31
VGabite
p1474
sg33
g34
sg35
V47
p1475
sg37
(lp1476
Vsandstorm
p1477
aVsand-tomb
p1478
aVdragon-claw
p1479
aVdragon-rush
p1480
asg43
g44
sg45
Vsand-veil
p1481
sbasg71
I00
sg72
g73
sbag1
(g2
g3
Ntp1482
Rp1483
(dp1484
g7
VSpr DP Ace Trainer M 1.png
p1485
sg9
VAce Trainer
p1486
sg11
VMicah
p1487
sg13
V3360<br><small>Potential [[Double Battle]] with Brandi</small>
p1488
sg15
g81
sg17
g18
sg19
g20
sg21
g22
sg23
(lp1489
g1
(g25
g3
Ntp1490
Rp1491
(dp1492
g29
V375
p1493
sg31
VMetang
p1494
sg33
g1086
sg35
V55
p1495
sg37
(lp1496
Viron-defense
p1497
aVmagnet-rise
p1498
aVbullet-punch
p1499
aVzen-headbutt
p1500
asg43
g44
sg45
Vclear-body
p1501
sbag1
(g25
g3
Ntp1502
Rp1503
(dp1504
g29
V272
p1505
sg31
VLudicolo
p1506
sg33
g34
sg35
V56
p1507
sg37
(lp1508
Vgrowl
p1509
aVmega-drain
p1510
aVnature-power
p1511
aVastonish
p1512
asg43
g44
sg45
Vswift-swim
p1513
sbasg71
I00
sg72
g73
sbag1
(g2
g3
Ntp1514
Rp1515
(dp1516
g7
VSpr DP Ace Trainer F 1.png
p1517
sg9
VAce Trainer
p1518
sg11
VBrandi
p1519
sg13
V3420<br><small>Potential [[Double Battle]] with Micah</small>
p1520
sg15
g81
sg17
g18
sg19
g20
sg21
g22
sg23
(lp1521
g1
(g25
g3
Ntp1522
Rp1523
(dp1524
g29
V105
p1525
sg31
VMarowak
p1526
sg33
g88
sg35
V54
p1527
sg37
(lp1528
Vbone-rush
p1529
aVfalse-swipe
p1530
aVendeavor
p1531
aVfling
p1532
asg43
g44
sg45
Vrock-head
p1533
sbag1
(g25
g3
Ntp1534
Rp1535
(dp1536
g29
V115
p1537
sg31
VKangaskhan
p1538
sg33
g88
sg35
V57
p1539
sg37
(lp1540
Vcrunch
p1541
aVfake-out
p1542
aVsucker-punch
p1543
aVdouble-hit
p1544
asg43
g44
sg45
Vscrappy
p1545
sbasg71
I00
sg72
g73
sbag1
(g2
g3
Ntp1546
Rp1547
(dp1548
g7
VSpr DP Psychic F.png
p1549
sg9
VPsychic
p1550
sg11
VDesiree
p1551
sg13
V1728<br><small>Potential [[Double Battle]] with Landon</small>
p1552
sg15
g81
sg17
g18
sg19
g20
sg21
g22
sg23
(lp1553
g1
(g25
g3
Ntp1554
Rp1555
(dp1556
g29
V122
p1557
sg31
VMr. Mime
p1558
sg33
g88
sg35
V54
p1559
sg37
(lp1560
Vmagical-leaf
p1561
aVcopycat
p1562
aVpower-swap
p1563
aVguard-swap
p1564
asg43
g44
sg45
Vsoundproof
p1565
sbag1
(g25
g3
Ntp1566
Rp1567
(dp1568
g29
V429
p1569
sg31
VMismagius
p1570
sg33
g88
sg35
V54
p1571
sg37
(lp1572
Vspite
p1573
aVastonish
p1574
aVmagical-leaf
p1575
aVlucky-chant
p1576
asg43
g44
sg45
Vlevitate
p1577
sbasg71
I00
sg72
g73
sbag1
(g2
g3
Ntp1578
Rp1579
(dp1580
g7
VSpr DP Psychic M.png
p1581
sg9
VPsychic
p1582
sg11
VLandon
p1583
sg13
V1760<br><small>Potential [[Double Battle]] with Desiree</small>
p1584
sg15
g81
sg17
g18
sg19
g20
sg21
g22
sg23
(lp1585
g1
(g25
g3
Ntp1586
Rp1587
(dp1588
g29
V353
p1589
sg31
VShuppet
p1590
sg33
g34
sg35
V53
p1591
sg37
(lp1592
Vsnatch
p1593
aVembargo
p1594
aVsucker-punch
p1595
aVshadow-sneak
p1596
asg43
g44
sg45
Vinsomnia
p1597
sbag1
(g25
g3
Ntp1598
Rp1599
(dp1600
g29
V065
p1601
sg31
VAlakazam
p1602
sg33
g34
sg35
V55
p1603
sg37
(lp1604
Vtrick
p1605
aVcalm-mind
p1606
aVmiracle-eye
p1607
aVpsycho-cut
p1608
asg43
g44
sg45
Vsynchronize
p1609
sbasg71
I00
sg72
g73
sbag1
(g2
g3
Ntp1610
Rp1611
(dp1612
g7
VSpr DP Black Belt.png
p1613
sg9
VBlack Belt
p1614
sg11
VEddie
p1615
sg13
V1320<br><small>Potential [[Double Battle]] with Terrell</small>
p1616
sg15
g16
sg17
g18
sg19
g20
sg21
g22
sg23
(lp1617
g1
(g25
g3
Ntp1618
Rp1619
(dp1620
g29
V056
p1621
sg31
VMankey
p1622
sg33
g34
sg35
V51
p1623
sg37
(lp1624
Vcovet
p1625
aVclose-combat
p1626
aVassurance
p1627
aVpunishment
p1628
asg43
g44
sg45
Vanger-point
p1629
sbag1
(g25
g3
Ntp1630
Rp1631
(dp1632
g29
V067
p1633
sg31
VMachoke
p1634
sg33
g34
sg35
V53
p1635
sg37
(lp1636
Vvital-throw
p1637
aVcross-chop
p1638
aVrevenge
p1639
aVwake-up-slap
p1640
asg43
g44
sg45
Vguts
p1641
sbag1
(g25
g3
Ntp1642
Rp1643
(dp1644
g29
V392
p1645
sg31
VInfernape
p1646
sg33
g34
sg35
V55
p1647
sg37
(lp1648
Vfeint
p1649
aVclose-combat
p1650
aVpunishment
p1651
aVflare-blitz
p1652
asg43
g44
sg45
Vblaze
p1653
sbasg71
I00
sg72
g73
sbag1
(g2
g3
Ntp1654
Rp1655
(dp1656
g7
VSpr DP Veteran.png
p1657
sg9
VVeteran
p1658
sg11
VTerrell
p1659
sg13
V4400<br><small>Potential [[Double Battle]] with Eddie</small>
p1660
sg15
g16
sg17
g18
sg19
g20
sg21
g22
sg23
(lp1661
g1
(g25
g3
Ntp1662
Rp1663
(dp1664
g29
V047
p1665
sg31
VParasect
p1666
sg33
g34
sg35
V53
p1667
sg37
(lp1668
Vgiga-drain
p1669
aVaromatherapy
p1670
aVx-scissor
p1671
aVcross-poison
p1672
asg43
g44
sg45
Veffect-spore
p1673
sbag1
(g25
g3
Ntp1674
Rp1675
(dp1676
g29
V112
p1677
sg31
VRhydon
p1678
sg33
g34
sg35
V54
p1679
sg37
(lp1680
Vmegahorn
p1681
aVrock-blast
p1682
aVhammer-arm
p1683
aVstone-edge
p1684
asg43
g44
sg45
Vlightning-rod
p1685
sbag1
(g25
g3
Ntp1686
Rp1687
(dp1688
g29
V126
p1689
sg31
VMagmar
p1690
sg33
g34
sg35
V55
p1691
sg37
(lp1692
Vfire-blast
p1693
aVfeint-attack
p1694
aVsunny-day
p1695
aVlava-plume
p1696
asg43
g44
sg45
Vflame-body
p1697
sbasg71
I00
sg72
g73
sbag1
(g2
g3
Ntp1698
Rp1699
(dp1700
g7
VSpr DP Dragon Tamer.png
p1701
sg9
VDragon Tamer
p1702
sg11
VJoe
p1703
sg13
V1792<br><small>Potential [[Double Battle]] with Autumn</small>
p1704
sg15
g81
sg17
g18
sg19
g20
sg21
g22
sg23
(lp1705
g1
(g25
g3
Ntp1706
Rp1707
(dp1708
g29
V147
p1709
sg31
VDratini
p1710
sg33
g34
sg35
V52
p1711
sg37
(lp1712
Vtwister
p1713
aVdragon-dance
p1714
aVaqua-tail
p1715
aVdragon-rush
p1716
asg43
g44
sg45
Vshed-skin
p1717
sbag1
(g25
g3
Ntp1718
Rp1719
(dp1720
g29
V444
p1721
sg31
VGabite
p1722
sg33
g34
sg35
V56
p1723
sg37
(lp1724
Vsandstorm
p1725
aVsand-tomb
p1726
aVdragon-claw
p1727
aVdragon-rush
p1728
asg43
g44
sg45
Vsand-veil
p1729
sbasg71
I00
sg72
g73
sbag1
(g2
g3
Ntp1730
Rp1731
(dp1732
g7
VSpr DP Bird Keeper.png
p1733
sg9
VBird Keeper
p1734
sg11
VAutumn
p1735
sg13
V1728<br><small>Potential [[Double Battle]] with Joe</small> 
p1736
sg15
g81
sg17
g18
sg19
g20
sg21
g22
sg23
(lp1737
g1
(g25
g3
Ntp1738
Rp1739
(dp1740
g29
V198
p1741
sg31
VMurkrow
p1742
sg33
g88
sg35
V54
p1743
sg37
(lp1744
Vtaunt
p1745
aVastonish
p1746
aVassurance
p1747
aVsucker-punch
p1748
asg43
g44
sg45
Vinsomnia
p1749
sbag1
(g25
g3
Ntp1750
Rp1751
(dp1752
g29
V178
p1753
sg31
VXatu
p1754
sg33
g88
sg35
V54
p1755
sg37
(lp1756
Vme-first
p1757
aVpower-swap
p1758
aVguard-swap
p1759
aVominous-wind
p1760
asg43
g44
sg45
Vsynchronize
p1761
sbasg71
I00
sg72
g73
sbag1
(g2
g3
Ntp1762
Rp1763
(dp1764
g7
VSpr DP Psychic M.png
p1765
sg9
VPsychic
p1766
sg11
VDeandre
p1767
sg13
V1792<br><small>Potential [[Double Battle]] with Kendra</small>
p1768
sg15
g287
sg17
g18
sg19
g20
sg21
g22
sg23
(lp1769
g1
(g25
g3
Ntp1770
Rp1771
(dp1772
g29
V477
p1773
sg31
VDusknoir
p1774
sg33
g34
sg35
V56
p1775
sg37
(lp1776
Vshadow-punch
p1777
aVgravity
p1778
aVpayback
p1779
aVshadow-sneak
p1780
asg43
g44
sg45
Vpressure
p1781
sbasg71
I00
sg72
g73
sbag1
(g2
g3
Ntp1782
Rp1783
(dp1784
g7
VSpr DP Psychic F.png
p1785
sg9
VPsychic
p1786
sg11
VKendra
p1787
sg13
V1760<br><small>Potential [[Double Battle]] with Deandre</small>
p1788
sg15
g16
sg17
g18
sg19
g20
sg21
g22
sg23
(lp1789
g1
(g25
g3
Ntp1790
Rp1791
(dp1792
g29
V358
p1793
sg31
VChimecho
p1794
sg33
g88
sg35
V52
p1795
sg37
(lp1796
Vyawn
p1797
aVastonish
p1798
aVextrasensory
p1799
aVhealing-wish
p1800
asg43
g44
sg45
Vlevitate
p1801
sbag1
(g25
g3
Ntp1802
Rp1803
(dp1804
g29
V093
p1805
sg31
VHaunter
p1806
sg33
g88
sg35
V52
p1807
sg37
(lp1808
Vshadow-punch
p1809
aVpayback
p1810
aVsucker-punch
p1811
aVdark-pulse
p1812
asg43
g44
sg45
Vlevitate
p1813
sbag1
(g25
g3
Ntp1814
Rp1815
(dp1816
g29
V094
p1817
sg31
VGengar
p1818
sg33
g88
sg35
V55
p1819
sg37
(lp1820
Vshadow-punch
p1821
aVpayback
p1822
aVsucker-punch
p1823
aVdark-pulse
p1824
asg43
g44
sg45
Vcursed-body
p1825
sbasg71
I00
sg72
g73
sbag1
(g2
g3
Ntp1826
Rp1827
(dp1828
g7
VSpr DP Black Belt.png
p1829
sg9
VBlack Belt
p1830
sg11
VWillie
p1831
sg13
V1296<br><small>Potential [[Double Battle]] with Brenden</small>
p1832
sg15
g81
sg17
g18
sg19
g20
sg21
g22
sg23
(lp1833
g1
(g25
g3
Ntp1834
Rp1835
(dp1836
g29
V214
p1837
sg31
VHeracross
p1838
sg33
g34
sg35
V54
p1839
sg37
(lp1840
Vaerial-ace
p1841
aVfeint
p1842
aVclose-combat
p1843
aVnight-slash
p1844
asg43
g44
sg45
Vswarm
p1845
sbag1
(g25
g3
Ntp1846
Rp1847
(dp1848
g29
V068
p1849
sg31
VMachamp
p1850
sg33
g34
sg35
V54
p1851
sg37
(lp1852
Vvital-throw
p1853
aVcross-chop
p1854
aVrevenge
p1855
aVwake-up-slap
p1856
asg43
g44
sg45
Vguts
p1857
sbasg71
I00
sg72
g73
sbag1
(g2
g3
Ntp1858
Rp1859
(dp1860
g7
VSpr DP Veteran.png
p1861
sg9
VVeteran
p1862
sg11
VBrenden
p1863
sg13
V4320<br><small>Potential [[Double Battle]] with Willie</small>
p1864
sg15
g16
sg17
g18
sg19
g20
sg21
g22
sg23
(lp1865
g1
(g25
g3
Ntp1866
Rp1867
(dp1868
g29
V205
p1869
sg31
VForretress
p1870
sg33
g34
sg35
V54
p1871
sg37
(lp1872
Vpayback
p1873
aVtoxic-spikes
p1874
aVmagnet-rise
p1875
aVmirror-shot
p1876
asg43
g44
sg45
Vsturdy
p1877
sbag1
(g25
g3
Ntp1878
Rp1879
(dp1880
g29
V130
p1881
sg31
VGyarados
p1882
sg33
g34
sg35
V54
p1883
sg37
(lp1884
Vrain-dance
p1885
aVdragon-dance
p1886
aVaqua-tail
p1887
aVice-fang
p1888
asg43
g44
sg45
Vintimidate
p1889
sbag1
(g25
g3
Ntp1890
Rp1891
(dp1892
g29
V450
p1893
sg31
VHippowdon
p1894
sg33
g34
sg35
V54
p1895
sg37
(lp1896
Vsand-tomb
p1897
aVthunder-fang
p1898
aVice-fang
p1899
aVfire-fang
p1900
asg43
g44
sg45
Vsand-stream
p1901
sbasg71
I00
sg72
g73
sbag1
(g2
g3
Ntp1902
Rp1903
(dp1904
g7
VSpr DP Ace Trainer M 1.png
p1905
sg9
VAce Trainer
p1906
sg11
VArthur
p1907
sg13
V3300<br><small>Potential [[Double Battle]] with Clarice</small>
p1908
sg15
g16
sg17
g18
sg19
g20
sg21
g22
sg23
(lp1909
g1
(g25
g3
Ntp1910
Rp1911
(dp1912
g29
V423
p1913
sg31
VGastrodon
p1914
sg33
g34
sg35
V54
p1915
sg37
(lp1916
Vmuddy-water
p1917
aVwater-pulse
p1918
ag1918
aVmud-bomb
p1919
asg43
g44
sg45
Vstorm-drain
p1920
sbag1
(g25
g3
Ntp1921
Rp1922
(dp1923
g29
V015
p1924
sg31
VBeedrill
p1925
sg33
g34
sg35
V54
p1926
sg37
(lp1927
Vendeavor
p1928
aVassurance
p1929
aVtoxic-spikes
p1930
aVpoison-jab
p1931
asg43
g44
sg45
Vswarm
p1932
sbag1
(g25
g3
Ntp1933
Rp1934
(dp1935
g29
V101
p1936
sg31
VElectrode
p1937
sg33
g1086
sg35
V55
p1938
sg37
(lp1939
Vcharge
p1940
aVgyro-ball
p1941
aVmagnet-rise
p1942
aVcharge-beam
p1943
asg43
g44
sg45
Vstatic
p1944
sbasg71
I00
sg72
g73
sbag1
(g2
g3
Ntp1945
Rp1946
(dp1947
g7
VSpr DP Ace Trainer F 1.png
p1948
sg9
VAce Trainer
p1949
sg11
VClarice
p1950
sg13
V3360<br><small>Potential [[Double Battle]] with Arthur</small>
p1951
sg15
g16
sg17
g18
sg19
g20
sg21
g22
sg23
(lp1952
g1
(g25
g3
Ntp1953
Rp1954
(dp1955
g29
V317
p1956
sg31
VSwalot
p1957
sg33
g88
sg35
V53
p1958
sg37
(lp1959
Vyawn
p1960
aVwring-out
p1961
aVgastro-acid
p1962
aVgunk-shot
p1963
asg43
g44
sg45
Vsticky-hold
p1964
sbag1
(g25
g3
Ntp1965
Rp1966
(dp1967
g29
V038
p1968
sg31
VNinetales
p1969
sg33
g88
sg35
V54
p1970
sg37
(lp1971
Vquick-attack
p1972
aVconfuse-ray
p1973
aVsafeguard
p1974
aVnasty-plot
p1975
asg43
g44
sg45
Vflash-fire
p1976
sbag1
(g25
g3
Ntp1977
Rp1978
(dp1979
g29
V462
p1980
sg31
VMagnezone
p1981
sg33
g1086
sg35
V56
p1982
sg37
(lp1983
Vmagnet-rise
p1984
aVmirror-shot
p1985
aVdischarge
p1986
aVmagnet-bomb
p1987
asg43
g44
sg45
Vmagnet-pull
p1988
sbasg71
I00
sg72
g73
sbag1
(g2
g3
Ntp1989
Rp1990
(dp1991
g7
VDP Marley Back.png
p1992
sg9
VPokemon Trainer
p1993
sg11
VMarley
p1994
sg13
Vn/a
p1995
sg15
I1
sg17
g18
sg19
g20
sg21
VSM
p1996
sg23
(lp1997
g1
(g25
g3
Ntp1998
Rp1999
(dp2000
g29
I59
sg31
VArcanine
p2001
sg33
g34
sg35
g1
(cmwparserfromhell.wikicode
Wikicode
p2002
g3
Ntp2003
Rp2004
(dp2005
V_nodes
p2006
g1
(cmwparserfromhell.smart_list.smart_list
SmartList
p2007
c__builtin__
list
p2008
(lp2009
g1
(cmwparserfromhell.nodes.text
Text
p2010
g3
Ntp2011
Rp2012
(dp2013
V_value
p2014
V57
p2015
sbatp2016
Rp2017
(dp2018
V_children
p2019
(dp2020
sbsbsg37
(lp2021
VFire Fang
p2022
aVExtremeSpeed
p2023
aVHelping Hand
p2024
aVAgility
p2025
asg43
g44
sg45
VIntimidate
p2026
sbasg71
I01
sg72
Vsun-moon
p2027
sba.