(lp0
ccopy_reg
_reconstructor
p1
(c__main__
Trainer
p2
c__builtin__
object
p3
Ntp4
Rp5
(dp6
VtSprite
p7
VSpr BW School Kid F.png
p8
sVtClass
p9
VSchool Kid
p10
sVtName
p11
VSerena
p12
sVtMoney
p13
V1200
p14
sVtPokeCount
p15
V6
p16
sVtLocation
p17
Vwiki/Village_Bridge
p18
sVtRegion
p19
VUnova
p20
sVtGame
p21
VBW
p22
sVtPokes
p23
(lp24
g1
(c__main__
FinishedPokemon
p25
g3
Ntp26
Rp27
(dp28
VpDexNo
p29
V041
p30
sVpSpecies
p31
VZubat
p32
sVpGender
p33
VF
p34
sVpLevel
p35
V60
p36
sVpMoves
p37
(lp38
Vastonish
p39
aVair-cutter
p40
aVair-slash
p41
aVacrobatics
p42
asVpHold
p43
V
p44
sVpAbility
p45
Vinner-focus
p46
sbag1
(g25
g3
Ntp47
Rp48
(dp49
g29
V084
p50
sg31
VDoduo
p51
sg33
g34
sg35
V60
p52
sg37
(lp53
Vuproar
p54
aVendeavor
p55
aVacupressure
p56
aVdouble-hit
p57
asg43
g44
sg45
Vearly-bird
p58
sbag1
(g25
g3
Ntp59
Rp60
(dp61
g29
V218
p62
sg31
VSlugma
p63
sg33
g34
sg35
V60
p64
sg37
(lp65
Vyawn
p66
aVearth-power
p67
aVlava-plume
p68
aVflame-burst
p69
asg43
g44
sg45
Vmagma-armor
p70
sbag1
(g25
g3
Ntp71
Rp72
(dp73
g29
V261
p74
sg31
VPoochyena
p75
sg33
g34
sg35
V60
p76
sg37
(lp77
Vhowl
p78
aVassurance
p79
aVembargo
p80
aVsucker-punch
p81
asg43
g44
sg45
Vrun-away
p82
sbag1
(g25
g3
Ntp83
Rp84
(dp85
g29
V309
p86
sg31
VElectrike
p87
sg33
g34
sg35
V60
p88
sg37
(lp89
Vhowl
p90
aVthunder-fang
p91
aVdischarge
p92
aVwild-charge
p93
asg43
g44
sg45
Vlightning-rod
p94
sbag1
(g25
g3
Ntp95
Rp96
(dp97
g29
V299
p98
sg31
VNosepass
p99
sg33
g34
sg35
V60
p100
sg37
(lp101
Vpower-gem
p102
aVearth-power
p103
aVdischarge
p104
aVstone-edge
p105
asg43
g44
sg45
Vmagnet-pull
p106
sbasVbossFlag
p107
I00
sVtLongGame
p108
Vblack-white
p109
sbag1
(g2
g3
Ntp110
Rp111
(dp112
g7
VSpr BW Scientist F.png
p113
sg9
VScientist
p114
sg11
VShannon
p115
sg13
V2976
p116
sg15
V4
p117
sg17
g18
sg19
g20
sg21
g22
sg23
(lp118
g1
(g25
g3
Ntp119
Rp120
(dp121
g29
V591
p122
sg31
VAmoonguss
p123
sg33
g34
sg35
V62
p124
sg37
(lp125
Vastonish
p126
ag126
aVrage-powder
p127
aVclear-smog
p128
asg43
g44
sg45
Veffect-spore
p129
sbag1
(g25
g3
Ntp130
Rp131
(dp132
g29
V023
p133
sg31
VEkans
p134
sg33
g34
sg35
V62
p135
sg37
(lp136
Vmud-bomb
p137
aVgunk-shot
p138
aVcoil
p139
aVacid-spray
p140
asg43
g44
sg45
Vshed-skin
p141
sbag1
(g25
g3
Ntp142
Rp143
(dp144
g29
V336
p145
sg31
VSeviper
p146
sg33
g34
sg35
V62
p147
sg37
(lp148
Vpoison-jab
p149
aVnight-slash
p150
aVvenoshock
p151
aVcoil
p152
asg43
g44
sg45
Vshed-skin
p153
sbag1
(g25
g3
Ntp154
Rp155
(dp156
g29
V088
p157
sg31
VGrimer
p158
sg33
g34
sg35
V62
p159
sg37
(lp160
Vfling
p161
aVmud-bomb
p162
aVgunk-shot
p163
aVsludge-wave
p164
asg43
g44
sg45
Vsticky-hold
p165
sbasg107
I00
sg108
g109
sbag1
(g2
g3
Ntp166
Rp167
(dp168
g7
VSpr BW Baker.png
p169
sg9
VBaker
p170
sg11
VChris
p171
sg13
V2560
p172
sg15
V2
p173
sg17
g18
sg19
g20
sg21
g22
sg23
(lp174
g1
(g25
g3
Ntp175
Rp176
(dp177
g29
V415
p178
sg31
VCombee
p179
sg33
VM
p180
sg35
V64
p181
sg37
(lp182
Vgust
p183
aVsweet-scent
p184
aVbug-bite
p185
asg43
g44
sg45
Vhoney-gather
p186
sbag1
(g25
g3
Ntp187
Rp188
(dp189
g29
V217
p190
sg31
VUrsaring
p191
sg33
g34
sg35
V64
p192
sg37
(lp193
Vsweet-scent
p194
aVfake-tears
p195
aVcovet
p196
aVhammer-arm
p197
asg43
g44
sg45
Vguts
p198
sbasg107
I00
sg108
g109
sbag1
(g2
g3
Ntp199
Rp200
(dp201
g7
VSpr B2W2 Smasher.png
p202
sg9
VSmasher
p203
sg11
VLizzy
p204
sg13
g1
(cmwparserfromhell.wikicode
Wikicode
p205
g3
Ntp206
Rp207
(dp208
V_nodes
p209
g1
(cmwparserfromhell.smart_list.smart_list
SmartList
p210
c__builtin__
list
p211
(lp212
g1
(cmwparserfromhell.nodes.text
Text
p213
g3
Ntp214
Rp215
(dp216
V_value
p217
V4400
p218
sbatp219
Rp220
(dp221
V_children
p222
(dp223
sbsbsg15
V1
p224
sg17
g18
sg19
g20
sg21
VB2W2
p225
sg23
(lp226
g1
(g25
g3
Ntp227
Rp228
(dp229
g29
V547
p230
sg31
VWhimsicott
p231
sg33
g34
sg35
V44
p232
sg37
(lp233
Vgrowth
p234
aVcotton-spore
p235
aVtailwind
p236
aVhurricane
p237
asg43
g44
sg45
Vprankster
p238
sbasg107
I00
sg108
Vblack-2-white-2
p239
sbag1
(g2
g3
Ntp240
Rp241
(dp242
g7
VSpr B2W2 Smasher.png
p243
sg9
VSmasher
p244
sg11
VAmy
p245
sg13
g1
(g205
g3
Ntp246
Rp247
(dp248
g209
g1
(g210
g211
(lp249
g1
(g213
g3
Ntp250
Rp251
(dp252
g217
V4400
p253
sbatp254
Rp255
(dp256
g222
(dp257
sbsbsg15
g224
sg17
g18
sg19
g20
sg21
g225
sg23
(lp258
g1
(g25
g3
Ntp259
Rp260
(dp261
g29
V549
p262
sg31
VLilligant
p263
sg33
g34
sg35
V44
p264
sg37
(lp265
Vpetal-dance
p266
aVsynthesis
p267
aVteeter-dance
p268
aVquiver-dance
p269
asg43
g44
sg45
Vchlorophyll
p270
sbasg107
I00
sg108
g239
sbag1
(g2
g3
Ntp271
Rp272
(dp273
g7
VSpr B2W2 Gentleman.png
p274
sg9
VGentleman
p275
sg11
VStonewall
p276
sg13
g1
(g205
g3
Ntp277
Rp278
(dp279
g209
g1
(g210
g211
(lp280
g1
(g213
g3
Ntp281
Rp282
(dp283
g217
V8600
p284
sbatp285
Rp286
(dp287
g222
(dp288
sbsbsg15
g173
sg17
g18
sg19
g20
sg21
g225
sg23
(lp289
g1
(g25
g3
Ntp290
Rp291
(dp292
g29
V632
p293
sg31
VDurant
p294
sg33
g180
sg35
V43
p295
sg37
(lp296
Vx-scissor
p297
aViron-head
p298
aVbug-bite
p299
aVentrainment
p300
asg43
g44
sg45
Vswarm
p301
sbag1
(g25
g3
Ntp302
Rp303
(dp304
g29
V448
p305
sg31
VLucario
p306
sg33
g180
sg35
V43
p307
sg37
(lp308
Vdark-pulse
p309
aVdragon-pulse
p310
aVquick-guard
p311
aVheal-pulse
p312
asg43
g44
sg45
Vinner-focus
p313
sbasg107
I00
sg108
g239
sbag1
(g2
g3
Ntp314
Rp315
(dp316
g7
VSpr B2W2 Artist.png
p317
sg9
VArtist
p318
sg11
VGough
p319
sg13
g1
(g205
g3
Ntp320
Rp321
(dp322
g209
g1
(g210
g211
(lp323
g1
(g213
g3
Ntp324
Rp325
(dp326
g217
V2016
p327
sbatp328
Rp329
(dp330
g222
(dp331
sbsbsg15
g224
sg17
g18
sg19
g20
sg21
g225
sg23
(lp332
g1
(g25
g3
Ntp333
Rp334
(dp335
g29
V192
p336
sg31
VSunflora
p337
sg33
g180
sg35
V42
p338
sg37
(lp339
Vbullet-seed
p340
aVnatural-gift
p341
aVworry-seed
p342
aVleaf-storm
p343
asg43
g44
sg45
Vsolar-power
p344
sbasg107
I00
sg108
g239
sbag1
(g2
g3
Ntp345
Rp346
(dp347
g7
VSpr B2W2 Youngster.png
p348
sg9
VYoungster
p349
sg11
VKarl
p350
sg13
g1
(g205
g3
Ntp351
Rp352
(dp353
g209
g1
(g210
g211
(lp354
g1
(g213
g3
Ntp355
Rp356
(dp357
g217
V672
p358
sbatp359
Rp360
(dp361
g222
(dp362
sbsbsg15
g224
sg17
g18
sg19
g20
sg21
g225
sg23
(lp363
g1
(g25
g3
Ntp364
Rp365
(dp366
g29
V028
p367
sg31
VSandslash
p368
sg33
g180
sg35
V42
p369
sg37
(lp370
Vrapid-spin
p371
aVcrush-claw
p372
aVsand-tomb
p373
aVgyro-ball
p374
asg43
g44
sg45
Vsand-veil
p375
sbasg107
I00
sg108
g239
sbag1
(g2
g3
Ntp376
Rp377
(dp378
g7
VSpr B2W2 Baker.png
p379
sg9
VBaker
p380
sg11
VChris
p381
sg13
g1
(g205
g3
Ntp382
Rp383
(dp384
g209
g1
(g210
g211
(lp385
g1
(g213
g3
Ntp386
Rp387
(dp388
g217
V1680
p389
sbatp390
Rp391
(dp392
g222
(dp393
sbsbsg15
g224
sg17
g18
sg19
g20
sg21
g225
sg23
(lp394
g1
(g25
g3
Ntp395
Rp396
(dp397
g29
V631
p398
sg31
VHeatmor
p399
sg33
g34
sg35
V42
p400
sg37
(lp401
Vbug-bite
p402
aVflame-burst
p403
aVincinerate
p404
aVinferno
p405
asg43
g44
sg45
Vgluttony
p406
sbasg107
I00
sg108
g239
sbag1
(g2
g3
Ntp407
Rp408
(dp409
g7
VSpr B2W2 Fisherman.png
p410
sg9
VFisherman
p411
sg11
VDean
p412
sg13
g1
(g205
g3
Ntp413
Rp414
(dp415
g209
g1
(g210
g211
(lp416
g1
(g213
g3
Ntp417
Rp418
(dp419
g217
V1344
p420
sbatp421
Rp422
(dp423
g222
(dp424
sbsbsg15
g224
sg17
g18
sg19
g20
sg21
g225
sg23
(lp425
sg107
I00
sg108
g239
sbag1
(g2
g3
Ntp426
Rp427
(dp428
g7
VSpr B2W2 Hoopster.png
p429
sg9
VHoopster
p430
sg11
VNicolas
p431
sg13
g1
(g205
g3
Ntp432
Rp433
(dp434
g209
g1
(g210
g211
(lp435
g1
(g213
g3
Ntp436
Rp437
(dp438
g217
V4200
p439
sbatp440
Rp441
(dp442
g222
(dp443
sbsbsg15
V3
p444
sg17
g18
sg19
g20
sg21
g225
sg23
(lp445
g1
(g25
g3
Ntp446
Rp447
(dp448
g29
V240
p449
sg31
VMagby
p450
sg33
g180
sg35
V42
p451
sg37
(lp452
Vsunny-day
p453
aVlava-plume
p454
aVflame-burst
p455
aVclear-smog
p456
asg43
g44
sg45
Vflame-body
p457
sbag1
(g25
g3
Ntp458
Rp459
(dp460
g29
V126
p461
sg31
VMagmar
p462
sg33
g180
sg35
V42
p463
sg37
(lp464
Vsunny-day
p465
aVlava-plume
p466
aVflame-burst
p467
aVclear-smog
p468
asg43
g44
sg45
Vflame-body
p469
sbag1
(g25
g3
Ntp470
Rp471
(dp472
g29
V240
p473
sg31
VMagby
p474
sg33
g180
sg35
V42
p475
sg37
(lp476
Vsunny-day
p477
aVlava-plume
p478
aVflame-burst
p479
aVclear-smog
p480
asg43
g44
sg45
Vflame-body
p481
sbasg107
I00
sg108
g239
sbag1
(g2
g3
Ntp482
Rp483
(dp484
g7
VSpr B2W2 Hoopster.png
p485
sg9
VHoopster
p486
sg11
VDerrick
p487
sg13
g1
(g205
g3
Ntp488
Rp489
(dp490
g209
g1
(g210
g211
(lp491
g1
(g213
g3
Ntp492
Rp493
(dp494
g217
V4200
p495
sbatp496
Rp497
(dp498
g222
(dp499
sbsbsg15
g444
sg17
g18
sg19
g20
sg21
g225
sg23
(lp500
g1
(g25
g3
Ntp501
Rp502
(dp503
g29
V239
p504
sg31
VElekid
p505
sg33
g180
sg35
V42
p506
sg37
(lp507
Vswift
p508
aVshock-wave
p509
aVdischarge
p510
aVelectro-ball
p511
asg43
g44
sg45
Vstatic
p512
sbag1
(g25
g3
Ntp513
Rp514
(dp515
g29
V125
p516
sg31
VElectabuzz
p517
sg33
g180
sg35
V42
p518
sg37
(lp519
Vswift
p520
aVshock-wave
p521
aVdischarge
p522
aVelectro-ball
p523
asg43
g44
sg45
Vstatic
p524
sbag1
(g25
g3
Ntp525
Rp526
(dp527
g29
V239
p528
sg31
VElekid
p529
sg33
g180
sg35
V42
p530
sg37
(lp531
Vswift
p532
aVshock-wave
p533
aVdischarge
p534
aVelectro-ball
p535
asg43
g44
sg45
Vstatic
p536
sbasg107
I00
sg108
g239
sba.