(lp0
ccopy_reg
_reconstructor
p1
(c__main__
Trainer
p2
c__builtin__
object
p3
Ntp4
Rp5
(dp6
VtSprite
p7
VSpr GS_Bird Keeper.png
p8
sVtClass
p9
VBird Keeper
p10
sVtName
p11
VAbe
p12
sVtMoney
p13
V216
p14
sVtPokeCount
p15
V1
p16
sVtLocation
p17
Vwiki/Violet_Gym
p18
sVtRegion
p19
VJohto
p20
sVtGame
p21
VGS
p22
sVtPokes
p23
(lp24
g1
(c__main__
FinishedPokemon
p25
g3
Ntp26
Rp27
(dp28
VpDexNo
p29
V021
p30
sVpSpecies
p31
VSpearow
p32
sVpGender
p33
VM
p34
sVpLevel
p35
V9
p36
sVpMoves
p37
(lp38
Vdrill-peck
p39
aVagility
p40
aVmirror-move
p41
aVpursuit
p42
asVpHold
p43
V
p44
sVpAbility
p45
Vkeen-eye
p46
sbasVbossFlag
p47
I00
sVtLongGame
p48
Vgold-silver
p49
sbag1
(g2
g3
Ntp50
Rp51
(dp52
g7
VSpr GS_Bird Keeper.png
p53
sg9
VBird Keeper
p54
sg11
VRod
p55
sg13
V168
p56
sg15
V2
p57
sg17
g18
sg19
g20
sg21
g22
sg23
(lp58
g1
(g25
g3
Ntp59
Rp60
(dp61
g29
V016
p62
sg31
VPidgey
p63
sg33
g34
sg35
V7
p64
sg37
(lp65
Vtackle
p66
aVagility
p67
aVquick-attack
p68
aVmirror-move
p69
asg43
g44
sg45
Vkeen-eye
p70
sbag1
(g25
g3
Ntp71
Rp72
(dp73
g29
V016
p74
sg31
VPidgey
p75
sg33
g34
sg35
g64
sg37
(lp76
Vtackle
p77
aVagility
p78
aVquick-attack
p79
aVmirror-move
p80
asg43
g44
sg45
Vtangled-feet
p81
sbasg47
I00
sg48
g49
sbag1
(g2
g3
Ntp82
Rp83
(dp84
g7
VSpr HGSS Bird Keeper.png
p85
sg9
VBird Keeper
p86
sg11
VAbe
p87
sg13
V288
p88
sg15
g16
sg17
g18
sg19
g20
sg21
VHGSS
p89
sg23
(lp90
g1
(g25
g3
Ntp91
Rp92
(dp93
g29
V021
p94
sg31
VSpearow
p95
sg33
g34
sg35
g36
sg37
(lp96
Vpursuit
p97
aVaerial-ace
p98
aVroost
p99
aVassurance
p100
asg43
g44
sg45
Vkeen-eye
p101
sbasg47
I00
sg48
Vheartgold-soulsilver
p102
sbag1
(g2
g3
Ntp103
Rp104
(dp105
g7
VSpr HGSS Bird Keeper.png
p106
sg9
VBird Keeper
p107
sg11
VRod
p108
sg13
V224
p109
sg15
g57
sg17
g18
sg19
g20
sg21
g89
sg23
(lp110
g1
(g25
g3
Ntp111
Rp112
(dp113
g29
V016
p114
sg31
VPidgey
p115
sg33
g34
sg35
g64
sg37
(lp116
Vfeather-dance
p117
aVroost
p118
aVtailwind
p119
aVair-slash
p120
asg43
g44
sg45
Vtangled-feet
p121
sbag1
(g25
g3
Ntp122
Rp123
(dp124
g29
V016
p125
sg31
VPidgey
p126
sg33
g34
sg35
g64
sg37
(lp127
Vfeather-dance
p128
aVroost
p129
aVtailwind
p130
aVair-slash
p131
asg43
g44
sg45
Vkeen-eye
p132
sbasg47
I00
sg48
g102
sbag1
(g2
g3
Ntp133
Rp134
(dp135
g7
VSpr GS Falkner.png
p136
sg9
VLeader
p137
sg11
VFalkner
p138
sg13
V900
p139
sg15
I2
sg17
g18
sg19
g20
sg21
g22
sg23
(lp140
g1
(g25
g3
Ntp141
Rp142
(dp143
g29
I16
sg31
VPidgey
p144
sg33
g34
sg35
g64
sg37
(lp145
VTackle
p146
aVMud-Slap
p147
asg43
g44
sg45
Vtangled-feet
p148
sbag1
(g25
g3
Ntp149
Rp150
(dp151
g29
I17
sg31
VPidgeotto
p152
sg33
g34
sg35
g36
sg37
(lp153
VTackle
p154
aVMud-Slap
p155
aVGust
p156
asg43
g44
sg45
Vtangled-feet
p157
sbasg47
I01
sg48
g49
sbag1
(g2
g3
Ntp158
Rp159
(dp160
g7
VSpr HGSS Falkner.png
p161
sg9
VLeader
p162
sg11
VFalkner
p163
sg13
V1560
p164
sg15
I2
sg17
g18
sg19
g20
sg21
g89
sg23
(lp165
g1
(g25
g3
Ntp166
Rp167
(dp168
g29
I16
sg31
VPidgey
p169
sg33
g34
sg35
g36
sg37
(lp170
VTackle
p171
aVSand-Attack
p172
asg43
g44
sg45
VKeen Eye
p173
sbag1
(g25
g3
Ntp174
Rp175
(dp176
g29
I17
sg31
VPidgeotto
p177
sg33
g34
sg35
V13
p178
sg37
(lp179
VTackle
p180
aVRoost
p181
aVGust
p182
asg43
g44
sg45
VKeen Eye
p183
sbasg47
I01
sg48
g102
sba.