(lp0
ccopy_reg
_reconstructor
p1
(c__main__
Trainer
p2
c__builtin__
object
p3
Ntp4
Rp5
(dp6
VtSprite
p7
VSpr B2W2 Youngster.png
p8
sVtClass
p9
VYoungster
p10
sVtName
p11
VMasahiro
p12
sVtMoney
p13
g1
(cmwparserfromhell.wikicode
Wikicode
p14
g3
Ntp15
Rp16
(dp17
V_nodes
p18
g1
(cmwparserfromhell.smart_list.smart_list
SmartList
p19
c__builtin__
list
p20
(lp21
g1
(cmwparserfromhell.nodes.text
Text
p22
g3
Ntp23
Rp24
(dp25
V_value
p26
V208
p27
sbatp28
Rp29
(dp30
V_children
p31
(dp32
sbsbsVtPokeCount
p33
V1
p34
sVtLocation
p35
Vwiki/Virbank_Complex
p36
sVtRegion
p37
VUnova
p38
sVtGame
p39
VB2W2
p40
sVtPokes
p41
(lp42
g1
(c__main__
FinishedPokemon
p43
g3
Ntp44
Rp45
(dp46
VpDexNo
p47
V506
p48
sVpSpecies
p49
VLillipup
p50
sVpGender
p51
VM
p52
sVpLevel
p53
V13
p54
sVpMoves
p55
(lp56
Vlast-resort
p57
aVgiga-impact
p58
aVretaliate
p59
aVwork-up
p60
asVpHold
p61
V
p62
sVpAbility
p63
Vvital-spirit
p64
sbasVbossFlag
p65
I00
sVtLongGame
p66
Vblack-2-white-2
p67
sbag1
(g2
g3
Ntp68
Rp69
(dp70
g7
VSpr B2W2 Worker.png
p71
sg9
VWorker
p72
sg11
VMitchell
p73
sg13
g1
(g14
g3
Ntp74
Rp75
(dp76
g18
g1
(g19
g20
(lp77
g1
(g22
g3
Ntp78
Rp79
(dp80
g26
V480
p81
sbatp82
Rp83
(dp84
g31
(dp85
sbsbsg33
V2
p86
sg35
g36
sg37
g38
sg39
g40
sg41
(lp87
g1
(g43
g3
Ntp88
Rp89
(dp90
g47
V504
p91
sg49
VPatrat
p92
sg51
g52
sg53
V12
p93
sg55
(lp94
Vbaton-pass
p95
aVcrunch
p96
aVafter-you
p97
aVwork-up
p98
asg61
g62
sg63
Vrun-away
p99
sbag1
(g43
g3
Ntp100
Rp101
(dp102
g47
V239
p103
sg49
VElekid
p104
sg51
g52
sg53
V12
p105
sg55
(lp106
Vswift
p107
aVshock-wave
p108
aVdischarge
p109
aVelectro-ball
p110
asg61
g62
sg63
Vstatic
p111
sbasg65
I00
sg66
g67
sbag1
(g2
g3
Ntp112
Rp113
(dp114
g7
VSpr B2W2 Youngster.png
p115
sg9
VYoungster
p116
sg11
VWaylon
p117
sg13
g1
(g14
g3
Ntp118
Rp119
(dp120
g18
g1
(g19
g20
(lp121
g1
(g22
g3
Ntp122
Rp123
(dp124
g26
V208
p125
sbatp126
Rp127
(dp128
g31
(dp129
sbsbsg33
g34
sg35
g36
sg37
g38
sg39
g40
sg41
(lp130
g1
(g43
g3
Ntp131
Rp132
(dp133
g47
V504
p134
sg49
VPatrat
p135
sg51
g52
sg53
V13
p136
sg55
(lp137
Vbaton-pass
p138
aVcrunch
p139
aVafter-you
p140
aVwork-up
p141
asg61
g62
sg63
Vkeen-eye
p142
sbasg65
I00
sg66
g67
sbag1
(g2
g3
Ntp143
Rp144
(dp145
g7
VSpr B2W2 Worker.png
p146
sg9
VWorker
p147
sg11
VNathan
p148
sg13
g1
(g14
g3
Ntp149
Rp150
(dp151
g18
g1
(g19
g20
(lp152
g1
(g22
g3
Ntp153
Rp154
(dp155
g26
V480
p156
sbatp157
Rp158
(dp159
g31
(dp160
sbsbsg33
g86
sg35
g36
sg37
g38
sg39
g40
sg41
(lp161
g1
(g43
g3
Ntp162
Rp163
(dp164
g47
V447
p165
sg49
VRiolu
p166
sg51
g52
sg53
V12
p167
sg55
(lp168
Vcopycat
p169
aVforce-palm
p170
aVnasty-plot
p171
aVfinal-gambit
p172
asg61
g62
sg63
Vsteadfast
p173
sbag1
(g43
g3
Ntp174
Rp175
(dp176
g47
V506
p177
sg49
VLillipup
p178
sg51
g52
sg53
V12
p179
sg55
(lp180
Vlast-resort
p181
aVgiga-impact
p182
aVretaliate
p183
aVwork-up
p184
asg61
g62
sg63
Vvital-spirit
p185
sbasg65
I00
sg66
g67
sbag1
(g2
g3
Ntp186
Rp187
(dp188
g7
VSpr B2W2 Worker.png
p189
sg9
VWorker
p190
sg11
VIsaac
p191
sg13
g1
(g14
g3
Ntp192
Rp193
(dp194
g18
g1
(g19
g20
(lp195
g1
(g22
g3
Ntp196
Rp197
(dp198
g26
V480
p199
sbatp200
Rp201
(dp202
g31
(dp203
sbsbsg33
g86
sg35
g36
sg37
g38
sg39
g40
sg41
(lp204
g1
(g43
g3
Ntp205
Rp206
(dp207
g47
V240
p208
sg49
VMagby
p209
sg51
g52
sg53
V12
p210
sg55
(lp211
Vsunny-day
p212
aVlava-plume
p213
aVflame-burst
p214
aVclear-smog
p215
asg61
g62
sg63
Vflame-body
p216
sbag1
(g43
g3
Ntp217
Rp218
(dp219
g47
V109
p220
sg49
VKoffing
p221
sg51
g52
sg53
V12
p222
sg55
(lp223
Vmemento
p224
aVgyro-ball
p225
aVassurance
p226
aVclear-smog
p227
asg61
g62
sg63
Vlevitate
p228
sbasg65
I00
sg66
g67
sbag1
(g2
g3
Ntp229
Rp230
(dp231
g7
VSpr B2W2 Lass.png
p232
sg9
VLass
p233
sg11
VDaya
p234
sg13
g1
(g14
g3
Ntp235
Rp236
(dp237
g18
g1
(g19
g20
(lp238
g1
(g22
g3
Ntp239
Rp240
(dp241
g26
V208
p242
sbatp243
Rp244
(dp245
g31
(dp246
sbsbsg33
g34
sg35
g36
sg37
g38
sg39
g40
sg41
(lp247
g1
(g43
g3
Ntp248
Rp249
(dp250
g47
V527
p251
sg49
VWoobat
p252
sg51
VF
p253
sg53
V13
p254
sg55
(lp255
Vcalm-mind
p256
aVassurance
p257
aVair-slash
p258
aVheart-stamp
p259
asg61
g62
sg63
Vunaware
p260
sbasg65
I00
sg66
g67
sba.