(lp0
ccopy_reg
_reconstructor
p1
(c__main__
Trainer
p2
c__builtin__
object
p3
Ntp4
Rp5
(dp6
VtSprite
p7
VSpr B2W2 Plasma Grunt M.png
p8
sVtClass
p9
VTeam Plasma Grunt
p10
sVtName
p11
V
p12
sVtMoney
p13
g1
(cmwparserfromhell.wikicode
Wikicode
p14
g3
Ntp15
Rp16
(dp17
V_nodes
p18
g1
(cmwparserfromhell.smart_list.smart_list
SmartList
p19
c__builtin__
list
p20
(lp21
g1
(cmwparserfromhell.nodes.text
Text
p22
g3
Ntp23
Rp24
(dp25
V_value
p26
V560
p27
sbatp28
Rp29
(dp30
V_children
p31
(dp32
sbsbsVtPokeCount
p33
V1
p34
sVtLocation
p35
Vwiki/Virbank_City
p36
sVtRegion
p37
VUnova
p38
sVtGame
p39
VB2W2
p40
sVtPokes
p41
(lp42
g1
(c__main__
FinishedPokemon
p43
g3
Ntp44
Rp45
(dp46
VpDexNo
p47
V504
p48
sVpSpecies
p49
VPatrat
p50
sVpGender
p51
VM
p52
sVpLevel
p53
V14
p54
sVpMoves
p55
(lp56
Vbaton-pass
p57
aVcrunch
p58
aVafter-you
p59
aVwork-up
p60
asVpHold
p61
g12
sVpAbility
p62
Vrun-away
p63
sbasVbossFlag
p64
I00
sVtLongGame
p65
Vblack-2-white-2
p66
sba.