(lp0
ccopy_reg
_reconstructor
p1
(c__main__
Trainer
p2
c__builtin__
object
p3
Ntp4
Rp5
(dp6
VtSprite
p7
VSpr B2W2 Roughneck.png
p8
sVtClass
p9
VRoughneck
p10
sVtName
p11
V{{un|Nicky}}
p12
sVtMoney
p13
g1
(cmwparserfromhell.wikicode
Wikicode
p14
g3
Ntp15
Rp16
(dp17
V_nodes
p18
g1
(cmwparserfromhell.smart_list.smart_list
SmartList
p19
c__builtin__
list
p20
(lp21
g1
(cmwparserfromhell.nodes.text
Text
p22
g3
Ntp23
Rp24
(dp25
V_value
p26
V336
p27
sbatp28
Rp29
(dp30
V_children
p31
(dp32
sbsbsVtPokeCount
p33
V2
p34
sVtLocation
p35
Vwiki/Virbank_Gym
p36
sVtRegion
p37
VUnova
p38
sVtGame
p39
VB2W2
p40
sVtPokes
p41
(lp42
g1
(c__main__
FinishedPokemon
p43
g3
Ntp44
Rp45
(dp46
VpDexNo
p47
V088
p48
sVpSpecies
p49
VGrimer
p50
sVpGender
p51
VM
p52
sVpLevel
p53
V14
p54
sVpMoves
p55
(lp56
Vfling
p57
aVmud-bomb
p58
aVgunk-shot
p59
aVsludge-wave
p60
asVpHold
p61
V
p62
sVpAbility
p63
Vsticky-hold
p64
sbag1
(g43
g3
Ntp65
Rp66
(dp67
g47
V109
p68
sg49
VKoffing
p69
sg51
g52
sg53
V14
p70
sg55
(lp71
Vmemento
p72
aVgyro-ball
p73
aVassurance
p74
aVclear-smog
p75
asg61
g62
sg63
Vlevitate
p76
sbasVbossFlag
p77
I00
sVtLongGame
p78
Vblack-2-white-2
p79
sbag1
(g2
g3
Ntp80
Rp81
(dp82
g7
VSpr B2W2 Guitarist.png
p83
sg9
VGuitarist
p84
sg11
V[[Billy Jo]]
p85
sg13
g1
(g14
g3
Ntp86
Rp87
(dp88
g18
g1
(g19
g20
(lp89
g1
(g22
g3
Ntp90
Rp91
(dp92
g26
V448
p93
sbatp94
Rp95
(dp96
g31
(dp97
sbsbsg33
g34
sg35
g36
sg37
g38
sg39
g40
sg41
(lp98
g1
(g43
g3
Ntp99
Rp100
(dp101
g47
V543
p102
sg49
VVenipede
p103
sg51
VF
p104
sg53
V14
p105
sg55
(lp106
Vrock-climb
p107
aVbug-bite
p108
aVvenoshock
p109
aVsteamroller
p110
asg61
g62
sg63
Vpoison-point
p111
sbag1
(g43
g3
Ntp112
Rp113
(dp114
g47
V109
p115
sg49
VKoffing
p116
sg51
g104
sg53
V14
p117
sg55
(lp118
Vmemento
p119
aVgyro-ball
p120
aVassurance
p121
aVclear-smog
p122
asg61
g62
sg63
Vlevitate
p123
sbasg77
I00
sg78
g79
sbag1
(g2
g3
Ntp124
Rp125
(dp126
g7
VSpr B2W2 Roxie.png
p127
sg9
VLeader
p128
sg11
VRoxie
p129
sg13
g1
(g14
g3
Ntp130
Rp131
(dp132
g18
g1
(g19
g20
(lp133
g1
(g22
g3
Ntp134
Rp135
(dp136
g26
V2040
p137
sbatp138
Rp139
(dp140
g31
(dp141
sbsbsg33
I2
sg35
g36
sg37
g38
sg39
g40
sg41
(lp142
g1
(g43
g3
Ntp143
Rp144
(dp145
g47
I109
sg49
VKoffing
p146
sg51
g104
sg53
g1
(g14
g3
Ntp147
Rp148
(dp149
g18
g1
(g19
g20
(lp150
g1
(g22
g3
Ntp151
Rp152
(dp153
g26
V15
p154
sbatp155
Rp156
(dp157
g31
(dp158
sbsbsg55
(lp159
VAssurance
p160
aVTackle
p161
aVSmog
p162
asg61
g62
sg63
VLevitate
p163
sbag1
(g43
g3
Ntp164
Rp165
(dp166
g47
I544
sg49
VWhirlipede
p167
sg51
g104
sg53
g1
(g14
g3
Ntp168
Rp169
(dp170
g18
g1
(g19
g20
(lp171
g1
(g22
g3
Ntp172
Rp173
(dp174
g26
V17
p175
sbatp176
Rp177
(dp178
g31
(dp179
sbsbsg55
(lp180
VVenoshock
p181
aVProtect
p182
aVPoison Sting
p183
aVPursuit
p184
asg61
g62
sg63
VPoison Point
p185
sbasg77
I01
sg78
g79
sbag1
(g2
g3
Ntp186
Rp187
(dp188
g7
VSpr B2W2 Roxie.png
p189
sg9
VLeader
p190
sg11
VRoxie
p191
sg13
V2280
p192
sg33
I3
sg35
g36
sg37
g38
sg39
g40
sg41
(lp193
g1
(g43
g3
Ntp194
Rp195
(dp196
g47
I109
sg49
VKoffing
p197
sg51
g104
sg53
V17
p198
sg55
(lp199
VAssurance
p200
aVTackle
p201
aVSmog
p202
aVVenoshock
p203
asg61
VOran Berry
p204
sg63
VLevitate
p205
sbag1
(g43
g3
Ntp206
Rp207
(dp208
g47
I88
sg49
VGrimer
p209
sg51
g104
sg53
V17
p210
sg55
(lp211
VVenoshock
p212
aVMud-Slap
p213
aVPoison Gas
p214
aVDisable
p215
asg61
g62
sg63
VStench
p216
sbag1
(g43
g3
Ntp217
Rp218
(dp219
g47
I544
sg49
VWhirlipede
p220
sg51
g104
sg53
V19
p221
sg55
(lp222
VVenoshock
p223
aVProtect
p224
aVPoison Sting
p225
aVRollout
p226
asg61
VSitrus Berry
p227
sg63
VPoison Point
p228
sbasg77
I01
sg78
g79
sba.