(lp0
ccopy_reg
_reconstructor
p1
(c__main__
Trainer
p2
c__builtin__
object
p3
Ntp4
Rp5
(dp6
VtSprite
p7
VSpr RG Tamer.png
p8
sVtClass
p9
VTamer
p10
sVtName
p11
V
p12
sVtMoney
p13
V1560
p14
sVtPokeCount
p15
V2
p16
sVtLocation
p17
Vwiki/Viridian_Gym
p18
sVtRegion
p19
VKanto
p20
sVtGame
p21
VRGB
p22
sVtPokes
p23
(lp24
g1
(c__main__
FinishedPokemon
p25
g3
Ntp26
Rp27
(dp28
VpDexNo
p29
V024
p30
sVpSpecies
p31
VArbok
p32
sVpGender
p33
VU
p34
sVpLevel
p35
V39
p36
sVpMoves
p37
(lp38
Vbite
p39
aVacid
p40
aVscreech
p41
aVglare
p42
asVpHold
p43
g12
sVpAbility
p44
Vintimidate
p45
sbag1
(g25
g3
Ntp46
Rp47
(dp48
g29
V128
p49
sg31
VTauros
p50
sg33
g34
sg35
V39
p51
sg37
(lp52
Vtake-down
p53
aVtail-whip
p54
aVleer
p55
aVrage
p56
asg43
g12
sg44
Vintimidate
p57
sbasVbossFlag
p58
I00
sVtLongGame
p59
Vred-blue
p60
sbag1
(g2
g3
Ntp61
Rp62
(dp63
g7
VSpr RG Blackbelt.png
p64
sg9
VBlackbelt
p65
sg11
g12
sg13
V1075
p66
sg15
V1
p67
sg17
g18
sg19
g20
sg21
g22
sg23
(lp68
g1
(g25
g3
Ntp69
Rp70
(dp71
g29
V067
p72
sg31
VMachoke
p73
sg33
g34
sg35
V43
p74
sg37
(lp75
Vlow-kick
p76
ag76
aVseismic-toss
p77
aVfocus-energy
p78
asg43
g12
sg44
Vguts
p79
sbasg58
I00
sg59
g60
sbag1
(g2
g3
Ntp80
Rp81
(dp82
g7
VSpr RG Cooltrainer M.png
p83
sg9
VCooltrainer
p84
sg11
g12
sg13
V1365
p85
sg15
g16
sg17
g18
sg19
g20
sg21
g22
sg23
(lp86
g1
(g25
g3
Ntp87
Rp88
(dp89
g29
V033
p90
sg31
VNidorino
p91
sg33
g34
sg35
V39
p92
sg37
(lp93
Vtackle
p94
aVpoison-sting
p95
aVleer
p96
aVfocus-energy
p97
asg43
g12
sg44
Vrivalry
p98
sbag1
(g25
g3
Ntp99
Rp100
(dp101
g29
V034
p102
sg31
VNidoking
p103
sg33
g34
sg35
V39
p104
sg37
(lp105
Vthrash
p106
ag106
aVpoison-sting
p107
ag107
asg43
g12
sg44
Vrivalry
p108
sbasg58
I00
sg59
g60
sbag1
(g2
g3
Ntp109
Rp110
(dp111
g7
VSpr RG Tamer.png
p112
sg9
VTamer
p113
sg11
g12
sg13
V1720
p114
sg15
g67
sg17
g18
sg19
g20
sg21
g22
sg23
(lp115
g1
(g25
g3
Ntp116
Rp117
(dp118
g29
V111
p119
sg31
VRhyhorn
p120
sg33
g34
sg35
V43
p121
sg37
(lp122
Vhorn-drill
p123
aVtake-down
p124
aVtail-whip
p125
aVleer
p126
asg43
g12
sg44
Vrock-head
p127
sbasg58
I00
sg59
g60
sbag1
(g2
g3
Ntp128
Rp129
(dp130
g7
VSpr RG Blackbelt.png
p131
sg9
VBlackbelt
p132
sg11
g12
sg13
V1000
p133
sg15
g16
sg17
g18
sg19
g20
sg21
g22
sg23
(lp134
g1
(g25
g3
Ntp135
Rp136
(dp137
g29
V066
p138
sg31
VMachop
p139
sg33
g34
sg35
V40
p140
sg37
(lp141
Vsubmission
p142
aVlow-kick
p143
aVseismic-toss
p144
aVfocus-energy
p145
asg43
g12
sg44
Vno-guard
p146
sbag1
(g25
g3
Ntp147
Rp148
(dp149
g29
V067
p150
sg31
VMachoke
p151
sg33
g34
sg35
V40
p152
sg37
(lp153
Vlow-kick
p154
ag154
aVseismic-toss
p155
aVfocus-energy
p156
asg43
g12
sg44
Vno-guard
p157
sbasg58
I00
sg59
g60
sbag1
(g2
g3
Ntp158
Rp159
(dp160
g7
VSpr RG Cooltrainer M.png
p161
sg9
VCooltrainer
p162
sg11
g12
sg13
V1365
p163
sg15
g16
sg17
g18
sg19
g20
sg21
g22
sg23
(lp164
g1
(g25
g3
Ntp165
Rp166
(dp167
g29
V028
p168
sg31
VSandslash
p169
sg33
g34
sg35
V39
p170
sg37
(lp171
Vpoison-sting
p172
aVswift
p173
aVfury-swipes
p174
aVslash
p175
asg43
g12
sg44
Vsand-veil
p176
sbag1
(g25
g3
Ntp177
Rp178
(dp179
g29
V051
p180
sg31
VDugtrio
p181
sg33
g34
sg35
V39
p182
sg37
(lp183
Vearthquake
p184
aVdig
p185
ag185
aVslash
p186
asg43
g12
sg44
Varena-trap
p187
sbasg58
I00
sg59
g60
sbag1
(g2
g3
Ntp188
Rp189
(dp190
g7
VSpr RG Cooltrainer M.png
p191
sg9
VCooltrainer
p192
sg11
g12
sg13
V1505
p193
sg15
g67
sg17
g18
sg19
g20
sg21
g22
sg23
(lp194
g1
(g25
g3
Ntp195
Rp196
(dp197
g29
V111
p198
sg31
VRhyhorn
p199
sg33
g34
sg35
V43
p200
sg37
(lp201
Vhorn-drill
p202
aVtake-down
p203
aVtail-whip
p204
aVleer
p205
asg43
g12
sg44
Vrock-head
p206
sbasg58
I00
sg59
g60
sbag1
(g2
g3
Ntp207
Rp208
(dp209
g7
VSpr RG Blackbelt.png
p210
sg9
VBlackbelt
p211
sg11
g12
sg13
V950
p212
sg15
V3
p213
sg17
g18
sg19
g20
sg21
g22
sg23
(lp214
g1
(g25
g3
Ntp215
Rp216
(dp217
g29
V067
p218
sg31
VMachoke
p219
sg33
g34
sg35
V38
p220
sg37
(lp221
Vlow-kick
p222
ag222
aVseismic-toss
p223
aVfocus-energy
p224
asg43
g12
sg44
Vno-guard
p225
sbag1
(g25
g3
Ntp226
Rp227
(dp228
g29
V066
p229
sg31
VMachop
p230
sg33
g34
sg35
V38
p231
sg37
(lp232
Vsubmission
p233
aVlow-kick
p234
aVseismic-toss
p235
aVfocus-energy
p236
asg43
g12
sg44
Vguts
p237
sbag1
(g25
g3
Ntp238
Rp239
(dp240
g29
V067
p241
sg31
VMachoke
p242
sg33
g34
sg35
V38
p243
sg37
(lp244
Vlow-kick
p245
ag245
aVseismic-toss
p246
aVfocus-energy
p247
asg43
g12
sg44
Vno-guard
p248
sbasg58
I00
sg59
g60
sbag1
(g2
g3
Ntp249
Rp250
(dp251
g7
VSpr FRLG Tamer.png
p252
sg9
VTamer
p253
sg11
VCole
p254
sg13
V1560
p255
sg15
g16
sg17
g18
sg19
g20
sg21
VFRLG
p256
sg23
(lp257
g1
(g25
g3
Ntp258
Rp259
(dp260
g29
V024
p261
sg31
VArbok
p262
sg33
VM
p263
sg35
V39
p264
sg37
(lp265
Vglare
p266
aVstockpile
p267
aVspit-up
p268
aVswallow
p269
asg43
g12
sg44
Vshed-skin
p270
sbag1
(g25
g3
Ntp271
Rp272
(dp273
g29
V128
p274
sg31
VTauros
p275
sg33
g263
sg35
V39
p276
sg37
(lp277
Vrest
p278
aVscary-face
p279
aVswagger
p280
aVpursuit
p281
asg43
g12
sg44
Vanger-point
p282
sbasg58
I00
sg59
Vfirered-leafgreen
p283
sbag1
(g2
g3
Ntp284
Rp285
(dp286
g7
VSpr FRLG Black Belt.png
p287
sg9
VBlack Belt
p288
sg11
VKiyo
p289
sg13
V1032
p290
sg15
g67
sg17
g18
sg19
g20
sg21
g256
sg23
(lp291
g1
(g25
g3
Ntp292
Rp293
(dp294
g29
V067
p295
sg31
VMachoke
p296
sg33
g263
sg35
V43
p297
sg37
(lp298
Vdynamic-punch
p299
aVvital-throw
p300
aVcross-chop
p301
aVrevenge
p302
asg43
g12
sg44
Vno-guard
p303
sbasg58
I00
sg59
g283
sbag1
(g2
g3
Ntp304
Rp305
(dp306
g7
VSpr FRLG Cooltrainer M.png
p307
sg9
VCooltrainer
p308
sg11
VSamuel
p309
sg13
V1404
p310
sg15
V5
p311
sg17
g18
sg19
g20
sg21
g256
sg23
(lp312
g1
(g25
g3
Ntp313
Rp314
(dp315
g29
V028
p316
sg31
VSandslash
p317
sg33
g263
sg35
V37
p318
sg37
(lp319
Vfury-swipes
p320
aVslash
p321
aVsandstorm
p322
aVsand-tomb
p323
asg43
g12
sg44
Vsand-veil
p324
sbag1
(g25
g3
Ntp325
Rp326
(dp327
g29
V028
p328
sg31
VSandslash
p329
sg33
g263
sg35
V37
p330
sg37
(lp331
Vfury-swipes
p332
aVslash
p333
aVsandstorm
p334
aVsand-tomb
p335
asg43
g12
sg44
Vsand-veil
p336
sbag1
(g25
g3
Ntp337
Rp338
(dp339
g29
V111
p340
sg31
VRhyhorn
p341
sg33
g263
sg35
V38
p342
sg37
(lp343
Vearthquake
p344
aVscary-face
p345
aVmegahorn
p346
aVrock-blast
p347
asg43
g12
sg44
Vlightning-rod
p348
sbag1
(g25
g3
Ntp349
Rp350
(dp351
g29
V033
p352
sg31
VNidorino
p353
sg33
g263
sg35
V39
p354
sg37
(lp355
Vpeck
p356
aVfocus-energy
p357
aVflatter
p358
aVhelping-hand
p359
asg43
g12
sg44
Vrivalry
p360
sbag1
(g25
g3
Ntp361
Rp362
(dp363
g29
V034
p364
sg31
VNidoking
p365
sg33
g263
sg35
V39
p366
sg37
(lp367
Vpoison-sting
p368
aVpeck
p369
aVfocus-energy
p370
aVmegahorn
p371
asg43
g12
sg44
Vrivalry
p372
sbasg58
I00
sg59
g283
sbag1
(g2
g3
Ntp373
Rp374
(dp375
g7
VSpr FRLG Cooltrainer M.png
p376
sg9
VCooltrainer
p377
sg11
VYuji
p378
sg13
V1368
p379
sg15
g311
sg17
g18
sg19
g20
sg21
g256
sg23
(lp380
g1
(g25
g3
Ntp381
Rp382
(dp383
g29
V028
p384
sg31
VSandslash
p385
sg33
g263
sg35
V38
p386
sg37
(lp387
Vfury-swipes
p388
aVslash
p389
aVsandstorm
p390
aVsand-tomb
p391
asg43
g12
sg44
Vsand-veil
p392
sbag1
(g25
g3
Ntp393
Rp394
(dp395
g29
V075
p396
sg31
VGraveler
p397
sg33
g263
sg35
V38
p398
sg37
(lp399
Vmagnitude
p400
aVmud-sport
p401
ag401
aVrock-blast
p402
asg43
g12
sg44
Vsturdy
p403
sbag1
(g25
g3
Ntp404
Rp405
(dp406
g29
V095
p407
sg31
VOnix
p408
sg33
g263
sg35
V38
p409
sg37
(lp410
Vsandstorm
p411
aVdragon-breath
p412
aViron-tail
p413
aVsand-tomb
p414
asg43
g12
sg44
Vrock-head
p415
sbag1
(g25
g3
Ntp416
Rp417
(dp418
g29
V075
p419
sg31
VGraveler
p420
sg33
g263
sg35
V38
p421
sg37
(lp422
Vmagnitude
p423
aVmud-sport
p424
ag424
aVrock-blast
p425
asg43
g12
sg44
Vrock-head
p426
sbag1
(g25
g3
Ntp427
Rp428
(dp429
g29
V105
p430
sg31
VMarowak
p431
sg33
g263
sg35
V38
p432
sg37
(lp433
Vbone-club
p434
aVbonemerang
p435
aVbone-rush
p436
aVfalse-swipe
p437
asg43
g12
sg44
Vrock-head
p438
sbasg58
I00
sg59
g283
sbag1
(g2
g3
Ntp439
Rp440
(dp441
g7
VSpr FRLG Black Belt.png
p442
sg9
VBlack Belt
p443
sg11
VAtsushi
p444
sg13
V960
p445
sg15
g16
sg17
g18
sg19
g20
sg21
g256
sg23
(lp446
g1
(g25
g3
Ntp447
Rp448
(dp449
g29
V066
p450
sg31
VMachop
p451
sg33
g263
sg35
V40
p452
sg37
(lp453
Vdynamic-punch
p454
aVvital-throw
p455
aVcross-chop
p456
aVrevenge
p457
asg43
g12
sg44
Vguts
p458
sbag1
(g25
g3
Ntp459
Rp460
(dp461
g29
V067
p462
sg31
VMachoke
p463
sg33
g263
sg35
V40
p464
sg37
(lp465
Vdynamic-punch
p466
aVvital-throw
p467
aVcross-chop
p468
aVrevenge
p469
asg43
g12
sg44
Vno-guard
p470
sbasg58
I00
sg59
g283
sbag1
(g2
g3
Ntp471
Rp472
(dp473
g7
VSpr FRLG Tamer.png
p474
sg9
VTamer
p475
sg11
VJason
p476
sg13
V1720
p477
sg15
g67
sg17
g18
sg19
g20
sg21
g256
sg23
(lp478
g1
(g25
g3
Ntp479
Rp480
(dp481
g29
V111
p482
sg31
VRhyhorn
p483
sg33
g263
sg35
V43
p484
sg37
(lp485
Vearthquake
p486
aVscary-face
p487
aVmegahorn
p488
aVrock-blast
p489
asg43
g12
sg44
Vrock-head
p490
sbasg58
I00
sg59
g283
sbag1
(g2
g3
Ntp491
Rp492
(dp493
g7
VSpr FRLG Cooltrainer M.png
p494
sg9
VCooltrainer
p495
sg11
VWarren
p496
sg13
V1404
p497
sg15
g311
sg17
g18
sg19
g20
sg21
g256
sg23
(lp498
g1
(g25
g3
Ntp499
Rp500
(dp501
g29
V105
p502
sg31
VMarowak
p503
sg33
g263
sg35
V37
p504
sg37
(lp505
Vbone-club
p506
aVbonemerang
p507
aVbone-rush
p508
aVfalse-swipe
p509
asg43
g12
sg44
Vrock-head
p510
sbag1
(g25
g3
Ntp511
Rp512
(dp513
g29
V105
p514
sg31
VMarowak
p515
sg33
g263
sg35
V37
p516
sg37
(lp517
Vbone-club
p518
aVbonemerang
p519
aVbone-rush
p520
aVfalse-swipe
p521
asg43
g12
sg44
Vlightning-rod
p522
sbag1
(g25
g3
Ntp523
Rp524
(dp525
g29
V111
p526
sg31
VRhyhorn
p527
sg33
g263
sg35
V38
p528
sg37
(lp529
Vearthquake
p530
aVscary-face
p531
aVmegahorn
p532
aVrock-blast
p533
asg43
g12
sg44
Vrock-head
p534
sbag1
(g25
g3
Ntp535
Rp536
(dp537
g29
V030
p538
sg31
VNidorina
p539
sg33
VF
p540
sg35
V39
p541
sg37
(lp542
Vfury-swipes
p543
aVcrunch
p544
aVflatter
p545
aVhelping-hand
p546
asg43
g12
sg44
Vpoison-point
p547
sbag1
(g25
g3
Ntp548
Rp549
(dp550
g29
V031
p551
sg31
VNidoqueen
p552
sg33
g540
sg35
V39
p553
sg37
(lp554
Vbody-slam
p555
aVtail-whip
p556
aVpoison-sting
p557
aVsuperpower
p558
asg43
g12
sg44
Vpoison-point
p559
sbasg58
I00
sg59
g283
sbag1
(g2
g3
Ntp560
Rp561
(dp562
g7
VSpr FRLG Black Belt.png
p563
sg9
VBlack Belt
p564
sg11
VTakashi
p565
sg13
V912
p566
sg15
g213
sg17
g18
sg19
g20
sg21
g256
sg23
(lp567
g1
(g25
g3
Ntp568
Rp569
(dp570
g29
V067
p571
sg31
VMachoke
p572
sg33
g263
sg35
V38
p573
sg37
(lp574
Vdynamic-punch
p575
aVvital-throw
p576
aVcross-chop
p577
aVrevenge
p578
asg43
g12
sg44
Vguts
p579
sbag1
(g25
g3
Ntp580
Rp581
(dp582
g29
V066
p583
sg31
VMachop
p584
sg33
g263
sg35
V38
p585
sg37
(lp586
Vdynamic-punch
p587
aVvital-throw
p588
aVcross-chop
p589
aVrevenge
p590
asg43
g12
sg44
Vno-guard
p591
sbag1
(g25
g3
Ntp592
Rp593
(dp594
g29
V067
p595
sg31
VMachoke
p596
sg33
g263
sg35
V38
p597
sg37
(lp598
Vdynamic-punch
p599
aVvital-throw
p600
aVcross-chop
p601
aVrevenge
p602
asg43
g12
sg44
Vno-guard
p603
sbasg58
I00
sg59
g283
sbag1
(g2
g3
Ntp604
Rp605
(dp606
g7
VSpr HGSS Ace Trainer M.png
p607
sg9
VAce Trainer
p608
sg11
VArabella
p609
sg13
V3120
p610
sg15
g16
sg17
g18
sg19
g20
sg21
VHGSS
p611
sg23
(lp612
g1
(g25
g3
Ntp613
Rp614
(dp615
g29
V234
p616
sg31
VStantler
p617
sg33
g263
sg35
V53
p618
sg37
(lp619
Vcalm-mind
p620
aVme-first
p621
aVzen-headbutt
p622
aVcaptivate
p623
asg43
g12
sg44
Vfrisk
p624
sbag1
(g25
g3
Ntp625
Rp626
(dp627
g29
V128
p628
sg31
VTauros
p629
sg33
g263
sg35
V52
p630
sg37
(lp631
Vpursuit
p632
aVpayback
p633
aVgiga-impact
p634
aVzen-headbutt
p635
asg43
g12
sg44
Vanger-point
p636
sbasg58
I00
sg59
Vheartgold-soulsilver
p637
sbag1
(g2
g3
Ntp638
Rp639
(dp640
g7
VSpr HGSS Ace Trainer F.png
p641
sg9
VAce Trainer
p642
sg11
VSalma
p643
sg13
V3180
p644
sg15
g16
sg17
g18
sg19
g20
sg21
g611
sg23
(lp645
g1
(g25
g3
Ntp646
Rp647
(dp648
g29
V199
p649
sg31
VSlowking
p650
sg33
g540
sg35
V50
p651
sg37
(lp652
Vtrump-card
p653
aVpower-gem
p654
aVnasty-plot
p655
aVzen-headbutt
p656
asg43
g12
sg44
Voblivious
p657
sbag1
(g25
g3
Ntp658
Rp659
(dp660
g29
V463
p661
sg31
VLickilicky
p662
sg33
g540
sg35
V53
p663
sg37
(lp664
Vgyro-ball
p665
aVwring-out
p666
aVme-first
p667
aVpower-whip
p668
asg43
g12
sg44
Vown-tempo
p669
sbasg58
I00
sg59
g637
sbag1
(g2
g3
Ntp670
Rp671
(dp672
g7
VSpr HGSS Ace Trainer M.png
p673
sg9
VAce Trainer
p674
sg11
VBonita
p675
sg13
V3120
p676
sg15
g16
sg17
g18
sg19
g20
sg21
g611
sg23
(lp677
g1
(g25
g3
Ntp678
Rp679
(dp680
g29
V327
p681
sg31
VSpinda
p682
sg33
g263
sg35
V50
p683
sg37
(lp684
Vuproar
p685
aVteeter-dance
p686
aVcopycat
p687
aVsucker-punch
p688
asg43
g12
sg44
Vown-tempo
p689
sbag1
(g25
g3
Ntp690
Rp691
(dp692
g29
V185
p693
sg31
VSudowoodo
p694
sg33
g263
sg35
V52
p695
sg37
(lp696
Vhammer-arm
p697
aVcopycat
p698
aVsucker-punch
p699
aVwood-hammer
p700
asg43
g12
sg44
Vrock-head
p701
sbasg58
I00
sg59
g637
sbag1
(g2
g3
Ntp702
Rp703
(dp704
g7
VSpr HGSS Double Team.png
p705
sg9
VDouble Team
p706
sg11
VElan & Ida
p707
sg13
V12000
p708
sg15
g16
sg17
g18
sg19
g20
sg21
g611
sg23
(lp709
g1
(g25
g3
Ntp710
Rp711
(dp712
g29
V233
p713
sg31
VPorygon2
p714
sg33
g34
sg35
V52
p715
sg37
(lp716
Vrecycle
p717
aVsignal-beam
p718
aVmagnet-rise
p719
aVdischarge
p720
asg43
g12
sg44
Vtrace
p721
sbag1
(g25
g3
Ntp722
Rp723
(dp724
g29
V184
p725
sg31
VAzumarill
p726
sg33
g263
sg35
V50
p727
sg37
(lp728
Vrollout
p729
aVrain-dance
p730
aVaqua-ring
p731
aVaqua-tail
p732
asg43
g12
sg44
Vhuge-power
p733
sbasg58
I00
sg59
g637
sbag1
(g2
g3
Ntp734
Rp735
(dp736
g7
VVSAce Trainer M PE.png
p737
sg9
VAce Trainer
p738
sg11
VSamuel
p739
sg13
V4,800
p740
sg15
g67
sg17
g18
sg19
g20
sg21
VLGPE
p741
sg23
(lp742
g1
(g25
g3
Ntp743
Rp744
(dp745
g29
V034
p746
sg31
VNidoking
p747
sg33
g263
sg35
V48
p748
sg37
(lp749
Vmegahorn
p750
ag750
aVearth-power
p751
aVchip-away
p752
asg43
g12
sg44
Vrivalry
p753
sbasg58
I00
sg59
Vsun-moon
p754
sbag1
(g2
g3
Ntp755
Rp756
(dp757
g7
VVSTamer PE.png
p758
sg9
VTamer
p759
sg11
VCole
p760
sg13
V2,820
p761
sg15
g16
sg17
g18
sg19
g20
sg21
g741
sg23
(lp762
g1
(g25
g3
Ntp763
Rp764
(dp765
g29
V033
p766
sg31
VNidorino
p767
sg33
g263
sg35
V47
p768
sg37
(lp769
Vhelping-hand
p770
aVtoxic-spikes
p771
aVpoison-jab
p772
aVcaptivate
p773
asg43
g12
sg44
Vpoison-point
p774
sbag1
(g25
g3
Ntp775
Rp776
(dp777
g29
V111
p778
sg31
VRhyhorn
p779
sg33
g263
sg35
V47
p780
sg37
(lp781
Vsmack-down
p782
aVchip-away
p783
aVbulldoze
p784
aVdrill-run
p785
asg43
g12
sg44
Vlightning-rod
p786
sbasg58
I00
sg59
g754
sbag1
(g2
g3
Ntp787
Rp788
(dp789
g7
VVSAce Trainer F PE.png
p790
sg9
VAce Trainer
p791
sg11
VKelly
p792
sg13
V4,800
p793
sg15
g67
sg17
g18
sg19
g20
sg21
g741
sg23
(lp794
g1
(g25
g3
Ntp795
Rp796
(dp797
g29
V031
p798
sg31
VNidoqueen
p799
sg33
g540
sg35
V48
p800
sg37
(lp801
Vsuperpower
p802
ag802
aVearth-power
p803
aVchip-away
p804
asg43
g12
sg44
Vpoison-point
p805
sbasg58
I00
sg59
g754
sbag1
(g2
g3
Ntp806
Rp807
(dp808
g7
VVSAce Trainer M PE.png
p809
sg9
VAce Trainer
p810
sg11
VYuji
p811
sg13
V4,800
p812
sg15
g16
sg17
g18
sg19
g20
sg21
g741
sg23
(lp813
g1
(g25
g3
Ntp814
Rp815
(dp816
g29
V051
p817
sg31
VDugtrio
p818
sg33
g263
sg35
V47
p819
sg37
(lp820
Vearth-power
p821
aVmud-bomb
p822
aVbulldoze
p823
aVrototiller
p824
asg43
g12
sg44
Varena-trap
p825
sbag1
(g25
g3
Ntp826
Rp827
(dp828
g29
V111
p829
sg31
VRhyhorn
p830
sg33
g263
sg35
V48
p831
sg37
(lp832
Vsmack-down
p833
aVchip-away
p834
aVbulldoze
p835
aVdrill-run
p836
asg43
g12
sg44
Vlightning-rod
p837
sbasg58
I00
sg59
g754
sbag1
(g2
g3
Ntp838
Rp839
(dp840
g7
VVSTamer PE.png
p841
sg9
VTamer
p842
sg11
VJason
p843
sg13
V2,820
p844
sg15
g67
sg17
g18
sg19
g20
sg21
g741
sg23
(lp845
g1
(g25
g3
Ntp846
Rp847
(dp848
g29
V028
p849
sg31
VSandslash
p850
sg33
g540
sg35
V47
p851
sg37
(lp852
Vrapid-spin
p853
aVcrush-claw
p854
aVsand-tomb
p855
aVgyro-ball
p856
asg43
g12
sg44
Vsand-veil
p857
sbasg58
I00
sg59
g754
sbag1
(g2
g3
Ntp858
Rp859
(dp860
g7
VVSBlack Belt PE.png
p861
sg9
VBlack Belt
p862
sg11
VTakashi
p863
sg13
V1,316
p864
sg15
g67
sg17
g18
sg19
g20
sg21
g741
sg23
(lp865
g1
(g25
g3
Ntp866
Rp867
(dp868
g29
V075
p869
sg31
VGraveler
p870
sg33
g263
sg35
V47
p871
sg37
(lp872
Vstone-edge
p873
aVstealth-rock
p874
aVsmack-down
p875
aVbulldoze
p876
asg43
g12
sg44
Vrock-head
p877
sbasg58
I00
sg59
g754
sbag1
(g2
g3
Ntp878
Rp879
(dp880
g7
VSpr RG Giovanni.png
p881
sg9
VLeader
p882
sg11
VGiovanni
p883
sg13
V4950<!--gen i had no classes-->
p884
sg15
I5
sg17
g18
sg19
g20
sg21
g22
sg23
(lp885
g1
(g25
g3
Ntp886
Rp887
(dp888
g29
I111
sg31
VRhyhorn
p889
sg33
g34
sg35
V45
p890
sg37
(lp891
VStomp
p892
aVTail Whip
p893
aVFury Attack
p894
aVHorn Attack
p895
asg43
g12
sg44
Vlightning-rod
p896
sbag1
(g25
g3
Ntp897
Rp898
(dp899
g29
I51
sg31
VDugtrio
p900
sg33
g34
sg35
V42
p901
sg37
(lp902
VGrowl
p903
aVDig
p904
aVSand-Attack
p905
aVSlash
p906
asg43
g12
sg44
Varena-trap
p907
sbag1
(g25
g3
Ntp908
Rp909
(dp910
g29
I31
sg31
VNidoqueen
p911
sg33
g34
sg35
V44
p912
sg37
(lp913
VScratch
p914
aVTail Whip
p915
aVBody Slam
p916
aVPoison Sting
p917
asg43
g12
sg44
Vpoison-point
p918
sbag1
(g25
g3
Ntp919
Rp920
(dp921
g29
I34
sg31
VNidoking
p922
sg33
g34
sg35
V45
p923
sg37
(lp924
VTackle
p925
aVHorn Attack
p926
aVPoison Sting
p927
aVThrash
p928
asg43
g12
sg44
Vpoison-point
p929
sbag1
(g25
g3
Ntp930
Rp931
(dp932
g29
I112
sg31
VRhydon
p933
sg33
g34
sg35
V50
p934
sg37
(lp935
VStomp
p936
aVTail Whip
p937
aVFissure
p938
aVHorn Drill
p939
asg43
g12
sg44
Vrock-head
p940
sbasg58
I01
sg59
g60
sbag1
(g2
g3
Ntp941
Rp942
(dp943
g7
VSpr Y Giovanni.png
p944
sg9
g882
sg11
VGiovanni
p945
sg13
V5445<!--gen i had no classes-->
p946
sg15
I5
sg17
g18
sg19
g20
sg21
VY
p947
sg23
(lp948
g1
(g25
g3
Ntp949
Rp950
(dp951
g29
I51
sg31
VDugtrio
p952
sg33
g34
sg35
V50
p953
sg37
(lp954
VSand-Attack
p955
aVDig
p956
aVFissure
p957
aVEarthquake
p958
asg43
g12
sg44
Vsand-veil
p959
sbag1
(g25
g3
Ntp960
Rp961
(dp962
g29
I53
sg31
VPersian
p963
sg33
g34
sg35
V53
p964
sg37
(lp965
VScreech
p966
aVSlash
p967
aVFury Swipes
p968
aVDouble Team
p969
asg43
g12
sg44
Vlimber
p970
sbag1
(g25
g3
Ntp971
Rp972
(dp973
g29
I31
sg31
VNidoqueen
p974
sg33
g34
sg35
V53
p975
sg37
(lp976
VTail Whip
p977
aVEarthquake
p978
aVDouble Kick
p979
aVThunder
p980
asg43
g12
sg44
Vrivalry
p981
sbag1
(g25
g3
Ntp982
Rp983
(dp984
g29
I34
sg31
VNidoking
p985
sg33
g34
sg35
V55
p986
sg37
(lp987
VThunder
p988
aVLeer
p989
aVEarthquake
p990
aVDouble Kick
p991
asg43
g12
sg44
Vrivalry
p992
sbag1
(g25
g3
Ntp993
Rp994
(dp995
g29
I112
sg31
VRhydon
p996
sg33
g34
sg35
V55
p997
sg37
(lp998
VRock Slide
p999
aVFury Attack
p1000
aVEarthquake
p1001
aVHorn Drill
p1002
asg43
g12
sg44
Vrock-head
p1003
sbasg58
I01
sg59
Vyellow
p1004
sbag1
(g2
g3
Ntp1005
Rp1006
(dp1007
g7
VSpr GS Blue.png
p1008
sg9
VLeader
p1009
sg11
VBlue (game)
p1010
sg13
V5800
p1011
sg15
I6
sg17
g18
sg19
g20
sg21
VGS
p1012
sg23
(lp1013
g1
(g25
g3
Ntp1014
Rp1015
(dp1016
g29
I18
sg31
VPidgeot
p1017
sg33
g263
sg35
V56
p1018
sg37
(lp1019
VQuick Attack
p1020
aVWhirlwind
p1021
aVWing Attack
p1022
aVMirror Move
p1023
asg43
g12
sg44
Vkeen-eye
p1024
sbag1
(g25
g3
Ntp1025
Rp1026
(dp1027
g29
I65
sg31
VAlakazam
p1028
sg33
g263
sg35
V54
p1029
sg37
(lp1030
VDisable
p1031
aVRecover
p1032
aVPsychic
p1033
aVReflect
p1034
asg43
g12
sg44
Vinner-focus
p1035
sbag1
(g25
g3
Ntp1036
Rp1037
(dp1038
g29
I112
sg31
VRhydon
p1039
sg33
g263
sg35
V56
p1040
sg37
(lp1041
VFury Attack
p1042
aVSandstorm
p1043
aVRock Slide
p1044
aVEarthquake
p1045
asg43
g12
sg44
Vrock-head
p1046
sbag1
(g25
g3
Ntp1047
Rp1048
(dp1049
g29
I130
sg31
VGyarados
p1050
sg33
g263
sg35
V58
p1051
sg37
(lp1052
VTwister
p1053
aVHydro Pump
p1054
aVRain Dance
p1055
aVHyper Beam
p1056
asg43
g12
sg44
Vintimidate
p1057
sbag1
(g25
g3
Ntp1058
Rp1059
(dp1060
g29
I103
sg31
VExeggutor
p1061
sg33
g263
sg35
V58
p1062
sg37
(lp1063
VSunny Day
p1064
aVLeech Seed
p1065
aVEgg Bomb
p1066
aVSolarBeam
p1067
asg43
g12
sg44
Vchlorophyll
p1068
sbag1
(g25
g3
Ntp1069
Rp1070
(dp1071
g29
I59
sg31
VArcanine
p1072
sg33
g263
sg35
V58
p1073
sg37
(lp1074
VRoar
p1075
aVSwift
p1076
aVFlamethrower
p1077
aVExtremeSpeed
p1078
asg43
g12
sg44
Vflash-fire
p1079
sbasg58
I01
sg59
Vgold-silver
p1080
sbag1
(g2
g3
Ntp1081
Rp1082
(dp1083
g7
VSpr FRLG Giovanni.png
p1084
sg9
VLeader
p1085
sg11
VGiovanni
p1086
sg13
V5000
p1087
sg15
I5
sg17
g18
sg19
g20
sg21
g256
sg23
(lp1088
g1
(g25
g3
Ntp1089
Rp1090
(dp1091
g29
I111
sg31
VRhyhorn
p1092
sg33
g263
sg35
V45
p1093
sg37
(lp1094
VTake Down
p1095
aVRock Blast
p1096
aVScary Face
p1097
aVEarthquake
p1098
asg43
g12
sg44
VLightningrod
p1099
sbag1
(g25
g3
Ntp1100
Rp1101
(dp1102
g29
I51
sg31
VDugtrio
p1103
sg33
g263
sg35
V42
p1104
sg37
(lp1105
VSlash
p1106
aVSand Tomb
p1107
aVMud-Slap
p1108
aVEarthquake
p1109
asg43
g12
sg44
VSand Veil
p1110
sbag1
(g25
g3
Ntp1111
Rp1112
(dp1113
g29
I31
sg31
VNidoqueen
p1114
sg33
g540
sg35
V44
p1115
sg37
(lp1116
VDouble Kick
p1117
aVEarthquake
p1118
aVPoison Sting
p1119
aVBody Slam
p1120
asg43
g12
sg44
VPoison Point
p1121
sbag1
(g25
g3
Ntp1122
Rp1123
(dp1124
g29
I34
sg31
VNidoking
p1125
sg33
g263
sg35
V45
p1126
sg37
(lp1127
VDouble Kick
p1128
aVEarthquake
p1129
aVPoison Sting
p1130
aVThrash
p1131
asg43
g12
sg44
VPoison Point
p1132
sbag1
(g25
g3
Ntp1133
Rp1134
(dp1135
g29
I111
sg31
VRhyhorn
p1136
sg33
g263
sg35
V50
p1137
sg37
(lp1138
VTake Down
p1139
aVRock Blast
p1140
aVScary Face
p1141
aVEarthquake
p1142
asg43
g12
sg44
VLightningrod
p1143
sbasg58
I01
sg59
g283
sbag1
(g2
g3
Ntp1144
Rp1145
(dp1146
g7
VSpr HGSS Blue.png
p1147
sg9
VLeader
p1148
sg11
VBlue (game)
p1149
sg13
V9600
p1150
sg15
I6
sg17
g18
sg19
g20
sg21
g611
sg23
(lp1151
g1
(g25
g3
Ntp1152
Rp1153
(dp1154
g29
I103
sg31
VExeggutor
p1155
sg33
g263
sg35
V55
p1156
sg37
(lp1157
VPsychic
p1158
aVHypnosis
p1159
aVLeaf Storm
p1160
aVTrick Room
p1161
asg43
g12
sg44
VChlorophyll
p1162
sbag1
(g25
g3
Ntp1163
Rp1164
(dp1165
g29
I112
sg31
VRhydon
p1166
sg33
g263
sg35
V58
p1167
sg37
(lp1168
VEarthquake
p1169
aVStone Edge
p1170
aVMegahorn
p1171
aVThunder Fang
p1172
asg43
g12
sg44
VRock Head
p1173
sbag1
(g25
g3
Ntp1174
Rp1175
(dp1176
g29
I68
sg31
VMachamp
p1177
sg33
g263
sg35
V56
p1178
sg37
(lp1179
VThunderPunch
p1180
aVDynamicPunch
p1181
aVStone Edge
p1182
aVEarthquake
p1183
asg43
g12
sg44
VNo Guard
p1184
sbag1
(g25
g3
Ntp1185
Rp1186
(dp1187
g29
I130
sg31
VGyarados
p1188
sg33
g263
sg35
V52
p1189
sg37
(lp1190
VWaterfall
p1191
aVIce Fang
p1192
aVDragon Dance
p1193
aVReturn
p1194
asg43
g12
sg44
VIntimidate
p1195
sbag1
(g25
g3
Ntp1196
Rp1197
(dp1198
g29
I59
sg31
VArcanine
p1199
sg33
g263
sg35
V58
p1200
sg37
(lp1201
VExtremeSpeed
p1202
aVFlare Blitz
p1203
aVDragon Pulse
p1204
aVRoar
p1205
asg43
g12
sg44
VIntimidate
p1206
sbag1
(g25
g3
Ntp1207
Rp1208
(dp1209
g29
I18
sg31
VPidgeot
p1210
sg33
g263
sg35
V60
p1211
sg37
(lp1212
VWhirlwind
p1213
aVMirror Move
p1214
aVReturn
p1215
aVAir Slash
p1216
asg43
VSitrus Berry
p1217
sg44
VTangled Feet
p1218
sbasg58
I01
sg59
g637
sbag1
(g2
g3
Ntp1219
Rp1220
(dp1221
g7
VVSGiovanni PE.png
p1222
sg9
VGym Leader
p1223
sg11
VGiovanni
p1224
sg13
V8,000
p1225
sg15
I4
sg17
g18
sg19
g20
sg21
g741
sg23
(lp1226
g1
(g25
g3
Ntp1227
Rp1228
(dp1229
g29
I51
sg31
VDugtrio
p1230
sg33
g263
sg35
V49
p1231
sg37
(lp1232
VSlash
p1233
aVSucker Punch
p1234
aVEarthquake
p1235
asg43
g12
sg44
Vsand-veil
p1236
sbag1
(g25
g3
Ntp1237
Rp1238
(dp1239
g29
I31
sg31
VNidoqueen
p1240
sg33
g540
sg35
V49
p1241
sg37
(lp1242
VSuper Fang
p1243
aVEarthquake
p1244
aVCrunch
p1245
asg43
g12
sg44
Vrivalry
p1246
sbag1
(g25
g3
Ntp1247
Rp1248
(dp1249
g29
I34
sg31
VNidoking
p1250
sg33
g263
sg35
V49
p1251
sg37
(lp1252
VMegahorn
p1253
aVEarthquake
p1254
aVPoison Jab
p1255
aVHorn Drill
p1256
asg43
g12
sg44
Vpoison-point
p1257
sbag1
(g25
g3
Ntp1258
Rp1259
(dp1260
g29
I112
sg31
VRhydon
p1261
sg33
g263
sg35
V50
p1262
sg37
(lp1263
VEarthquake
p1264
aVRock Slide
p1265
aVMegahorn
p1266
asg43
g12
sg44
Vlightning-rod
p1267
sbasg58
I01
sg59
g754
sbag1
(g2
g3
Ntp1268
Rp1269
(dp1270
g7
VVSBlue PE.png
p1271
sg9
VGym Leader
p1272
sg11
VBlue (game)
p1273
sg13
V19,040
p1274
sg15
I6
sg17
g18
sg19
g20
sg21
g741
sg23
(lp1275
g1
(g25
g3
Ntp1276
Rp1277
(dp1278
g29
I128
sg31
VTauros
p1279
sg33
g263
sg35
V66
p1280
sg37
(lp1281
VDouble-Edge
p1282
aVRock Slide
p1283
aVEarthquake
p1284
aVIron Tail
p1285
asg43
g12
sg44
Vintimidate
p1286
sbag1
(g25
g3
Ntp1287
Rp1288
(dp1289
g29
I65
sg31
VAlakazam
p1290
sg33
g263
sg35
V66
p1291
sg37
(lp1292
VDazzling Gleam
p1293
aVPsychic
p1294
aVReflect
p1295
aVFoul Play
p1296
asg43
g12
sg44
Vsynchronize
p1297
sbag1
(g25
g3
Ntp1298
Rp1299
(dp1300
g29
I130
sg31
VGyarados
p1301
sg33
g263
sg35
V66
p1302
sg37
(lp1303
VWaterfall
p1304
aVCrunch 
p1305
aVEarthquake
p1306
aVOutrage
p1307
asg43
g12
sg44
Vintimidate
p1308
sbag1
(g25
g3
Ntp1309
Rp1310
(dp1311
g29
I103
sg31
VExeggutor
p1312
sg33
g263
sg35
V66
p1313
sg37
(lp1314
VPower Whip
p1315
aVLight Screen
p1316
aVStomp
p1317
aVPsychic
p1318
asg43
g12
sg44
Vchlorophyll
p1319
sbag1
(g25
g3
Ntp1320
Rp1321
(dp1322
g29
I142
sg31
VAerodactyl
p1323
sg33
g263
sg35
V66
p1324
sg37
(lp1325
VRock Slide
p1326
aVEarthquake
p1327
aVIron Tail
p1328
aVCrunch
p1329
asg43
g12
sg44
Vpressure
p1330
sbag1
(g25
g3
Ntp1331
Rp1332
(dp1333
g29
I6
sg31
VCharizard
p1334
sg33
g263
sg35
V68
p1335
sg37
(lp1336
VFire Blast
p1337
aVDragon Pulse
p1338
aVHyper Beam
p1339
aVAir Slash
p1340
asg43
g12
sg44
Vblaze
p1341
sbasg58
I01
sg59
g754
sba.