(lp0
ccopy_reg
_reconstructor
p1
(c__main__
Trainer
p2
c__builtin__
object
p3
Ntp4
Rp5
(dp6
VtSprite
p7
VSpr FRLG Juggler.png
p8
sVtClass
p9
VJuggler
p10
sVtName
p11
VEdward
p12
sVtMoney
p13
V1920
p14
sVtPokeCount
p15
V4
p16
sVtLocation
p17
Vwiki/Water_Path
p18
sVtRegion
p19
Vlands
p20
sVtGame
p21
VFRLG
p22
sVtPokes
p23
(lp24
g1
(c__main__
FinishedPokemon
p25
g3
Ntp26
Rp27
(dp28
VpDexNo
p29
V100
p30
sVpSpecies
p31
VVoltorb
p32
sVpGender
p33
VU
p34
sVpLevel
p35
V46
p36
sVpMoves
p37
(lp38
Vrollout
p39
aVspark
p40
aVmirror-coat
p41
aVcharge
p42
asVpHold
p43
V
p44
sVpAbility
p45
Vstatic
p46
sbag1
(g25
g3
Ntp47
Rp48
(dp49
g29
V100
p50
sg31
VVoltorb
p51
sg33
g34
sg35
V46
p52
sg37
(lp53
Vrollout
p54
aVspark
p55
aVmirror-coat
p56
aVcharge
p57
asg43
g44
sg45
Vsoundproof
p58
sbag1
(g25
g3
Ntp59
Rp60
(dp61
g29
V101
p62
sg31
VElectrode
p63
sg33
g34
sg35
V47
p64
sg37
(lp65
Vrollout
p66
aVspark
p67
aVmirror-coat
p68
aVcharge
p69
asg43
g44
sg45
Vstatic
p70
sbag1
(g25
g3
Ntp71
Rp72
(dp73
g29
V122
p74
sg31
VMr. Mime
p75
sg33
VM
p76
sg35
V48
p77
sg37
(lp78
Vtrick
p79
aVrole-play
p80
aVrecycle
p81
aVmagical-leaf
p82
asg43
g44
sg45
Vsoundproof
p83
sbasVbossFlag
p84
I00
sVtLongGame
p85
Vfirered-leafgreen
p86
sbag1
(g2
g3
Ntp87
Rp88
(dp89
g7
VSpr FRLG Hiker.png
p90
sg9
VHiker
p91
sg11
VEarl
p92
sg13
V1764
p93
sg15
V2
p94
sg17
g18
sg19
g20
sg21
g22
sg23
(lp95
g1
(g25
g3
Ntp96
Rp97
(dp98
g29
V095
p99
sg31
VOnix
p100
sg33
g76
sg35
V49
p101
sg37
(lp102
Vsandstorm
p103
aVdragon-breath
p104
aViron-tail
p105
aVsand-tomb
p106
asg43
g44
sg45
Vsturdy
p107
sbag1
(g25
g3
Ntp108
Rp109
(dp110
g29
V067
p111
sg31
VMachoke
p112
sg33
g76
sg35
V49
p113
sg37
(lp114
Vdynamic-punch
p115
aVvital-throw
p116
aVcross-chop
p117
aVrevenge
p118
asg43
g44
sg45
Vguts
p119
sbasg84
I00
sg85
g86
sbag1
(g2
g3
Ntp120
Rp121
(dp122
g7
VSpr FRLG Swimmer F.png
p123
sg9
VSwimmer\u2640
p124
sg11
VDenise
p125
sg13
V196
p126
sg15
g94
sg17
g18
sg19
g20
sg21
g22
sg23
(lp127
g1
(g25
g3
Ntp128
Rp129
(dp130
g29
V170
p131
sg31
VChinchou
p132
sg33
VF
p133
sg35
V49
p134
sg37
(lp135
Vbubble
p136
aVflail
p137
aVspark
p138
aVcharge
p139
asg43
g44
sg45
Villuminate
p140
sbag1
(g25
g3
Ntp141
Rp142
(dp143
g29
V171
p144
sg31
VLanturn
p145
sg33
g133
sg35
V49
p146
sg37
(lp147
Vbubble
p148
aVflail
p149
aVspark
p150
aVcharge
p151
asg43
g44
sg45
Villuminate
p152
sbasg84
I00
sg85
g86
sbag1
(g2
g3
Ntp153
Rp154
(dp155
g7
VSpr FRLG Swimmer M.png
p156
sg9
VSwimmer\u2642
p157
sg11
VSamir
p158
sg13
V200
p159
sg15
V1
p160
sg17
g18
sg19
g20
sg21
g22
sg23
(lp161
g1
(g25
g3
Ntp162
Rp163
(dp164
g29
V130
p165
sg31
VGyarados
p166
sg33
g76
sg35
V50
p167
sg37
(lp168
Vdragon-rage
p169
aVtwister
p170
aVrain-dance
p171
aVdragon-dance
p172
asg43
g44
sg45
Vintimidate
p173
sbasg84
I00
sg85
g86
sbag1
(g2
g3
Ntp174
Rp175
(dp176
g7
VSpr FRLG Twins.png
p177
sg9
VTwins
p178
sg11
VMiu & Mia
p179
sg13
V1200
p180
sg15
g94
sg17
g18
sg19
g20
sg21
g22
sg23
(lp181
g1
(g25
g3
Ntp182
Rp183
(dp184
g29
V025
p185
sg31
VPikachu
p186
sg33
g76
sg35
V50
p187
sg37
(lp188
Vagility
p189
aVquick-attack
p190
aVdouble-team
p191
aVlight-screen
p192
asg43
g44
sg45
Vstatic
p193
sbag1
(g25
g3
Ntp194
Rp195
(dp196
g29
V025
p197
sg31
VPikachu
p198
sg33
g76
sg35
V50
p199
sg37
(lp200
Vagility
p201
aVquick-attack
p202
aVdouble-team
p203
aVlight-screen
p204
asg43
g44
sg45
Vstatic
p205
sbasg84
I00
sg85
g86
sbag1
(g2
g3
Ntp206
Rp207
(dp208
g7
VSpr FRLG Aroma Lady.png
p209
sg9
VAroma Lady
p210
sg11
VRose
p211
sg13
V1372
p212
sg15
g94
sg17
g18
sg19
g20
sg21
g22
sg23
(lp213
g1
(g25
g3
Ntp214
Rp215
(dp216
g29
V191
p217
sg31
VSunkern
p218
sg33
g133
sg35
V49
p219
sg37
(lp220
Vsynthesis
p221
aVsunny-day
p222
aVingrain
p223
aVendeavor
p224
asg43
g44
sg45
Vchlorophyll
p225
sbag1
(g25
g3
Ntp226
Rp227
(dp228
g29
V192
p229
sg31
VSunflora
p230
sg33
g133
sg35
V49
p231
sg37
(lp232
Vpetal-dance
p233
aVsunny-day
p234
aVingrain
p235
aVbullet-seed
p236
asg43
g44
sg45
Vsolar-power
p237
sbasg84
I00
sg85
g86
sbag1
(g2
g3
Ntp238
Rp239
(dp240
g7
VSpr FRLG Hiker.png
p241
sg9
VHiker
p242
sg11
VEarl
p243
sg13
V1944
p244
sg15
g94
sg17
g18
sg19
g20
sg21
g22
sg23
(lp245
g1
(g25
g3
Ntp246
Rp247
(dp248
g29
V095
p249
sg31
VOnix
p250
sg33
g76
sg35
V54
p251
sg37
(lp252
Vsandstorm
p253
aVdragon-breath
p254
aViron-tail
p255
aVsand-tomb
p256
asg43
g44
sg45
Vrock-head
p257
sbag1
(g25
g3
Ntp258
Rp259
(dp260
g29
V068
p261
sg31
VMachamp
p262
sg33
g76
sg35
V54
p263
sg37
(lp264
Vdynamic-punch
p265
aVvital-throw
p266
aVcross-chop
p267
aVrevenge
p268
asg43
g44
sg45
Vno-guard
p269
sbasg84
I00
sg85
g86
sbag1
(g2
g3
Ntp270
Rp271
(dp272
g7
VSpr FRLG Swimmer M.png
p273
sg9
VSwimmer\u2642
p274
sg11
VSamir
p275
sg13
V220
p276
sg15
g160
sg17
g18
sg19
g20
sg21
g22
sg23
(lp277
g1
(g25
g3
Ntp278
Rp279
(dp280
g29
V130
p281
sg31
VGyarados
p282
sg33
g76
sg35
V55
p283
sg37
(lp284
Vdragon-rage
p285
aVtwister
p286
aVrain-dance
p287
aVdragon-dance
p288
asg43
g44
sg45
Vintimidate
p289
sbasg84
I00
sg85
g86
sba.