(lp0
ccopy_reg
_reconstructor
p1
(c__main__
Trainer
p2
c__builtin__
object
p3
Ntp4
Rp5
(dp6
VtSprite
p7
VSpr DP Hiker.png
p8
sVtClass
p9
VHiker
p10
sVtName
p11
VReginald
p12
sVtMoney
p13
V480<br><small>Potential [[Double Battle]] with Lorenzo</small>
p14
sVtPokeCount
p15
V2
p16
sVtLocation
p17
Vwiki/Wayward_Cave
p18
sVtRegion
p19
VSinnoh
p20
sVtGame
p21
VDP
p22
sVtPokes
p23
(lp24
g1
(c__main__
FinishedPokemon
p25
g3
Ntp26
Rp27
(dp28
VpDexNo
p29
V074
p30
sVpSpecies
p31
VGeodude
p32
sVpGender
p33
VM
p34
sVpLevel
p35
V15
p36
sVpMoves
p37
(lp38
Vmud-sport
p39
aVrock-blast
p40
aVrock-polish
p41
aVstone-edge
p42
asVpHold
p43
V
p44
sVpAbility
p45
Vrock-head
p46
sbag1
(g25
g3
Ntp47
Rp48
(dp49
g29
V066
p50
sg31
VMachop
p51
sg33
g34
sg35
V15
p52
sg37
(lp53
Vvital-throw
p54
aVcross-chop
p55
aVrevenge
p56
aVwake-up-slap
p57
asg43
g44
sg45
Vguts
p58
sbasVbossFlag
p59
I00
sVtLongGame
p60
Vdiamond-pearl
p61
sbag1
(g2
g3
Ntp62
Rp63
(dp64
g7
VSpr DP Hiker.png
p65
sg9
VHiker
p66
sg11
VLorenzo
p67
sg13
V544<br><small>Potential [[Double Battle]] with Reginald</small>
p68
sg15
V1
p69
sg17
g18
sg19
g20
sg21
g22
sg23
(lp70
g1
(g25
g3
Ntp71
Rp72
(dp73
g29
V095
p74
sg31
VOnix
p75
sg33
g34
sg35
V17
p76
sg37
(lp77
Vrock-tomb
p78
aVsand-tomb
p79
aVrock-polish
p80
aVstone-edge
p81
asg43
g44
sg45
Vsturdy
p82
sbasg59
I00
sg60
g61
sbag1
(g2
g3
Ntp83
Rp84
(dp85
g7
VSpr DP Lass.png
p86
sg9
VLass
p87
sg11
VCassidy
p88
sg13
V272<br><small>Potential [[Double Battle]] with Wayne</small>
p89
sg15
g69
sg17
g18
sg19
g20
sg21
g22
sg23
(lp90
g1
(g25
g3
Ntp91
Rp92
(dp93
g29
V427
p94
sg31
VBuneary
p95
sg33
VF
p96
sg35
V17
p97
sg37
(lp98
Vfrustration
p99
aVbaton-pass
p100
aVbounce
p101
aVhealing-wish
p102
asg43
g44
sg45
Vrun-away
p103
sbasg59
I00
sg60
g61
sbag1
(g2
g3
Ntp104
Rp105
(dp106
g7
VSpr DP Youngster.png
p107
sg9
VYoungster
p108
sg11
VWayne
p109
sg13
V240<br><small>Potential [[Double Battle]] with Cassidy</small>
p110
sg15
V3
p111
sg17
g18
sg19
g20
sg21
g22
sg23
(lp112
g1
(g25
g3
Ntp113
Rp114
(dp115
g29
V399
p116
sg31
VBidoof
p117
sg33
g34
sg35
V13
p118
sg37
(lp119
Vsuper-fang
p120
aVrollout
p121
aVsuperpower
p122
aVyawn
p123
asg43
g44
sg45
Vsimple
p124
sbag1
(g25
g3
Ntp125
Rp126
(dp127
g29
V041
p128
sg31
VZubat
p129
sg33
g34
sg35
V14
p130
sg37
(lp131
Vpoison-fang
p132
aVastonish
p133
aVair-cutter
p134
aVair-slash
p135
asg43
g44
sg45
Vinner-focus
p136
sbag1
(g25
g3
Ntp137
Rp138
(dp139
g29
V190
p140
sg31
VAipom
p141
sg33
g34
sg35
V15
p142
sg37
(lp143
Vfling
p144
aVlast-resort
p145
aVnasty-plot
p146
aVdouble-hit
p147
asg43
g44
sg45
Vpickup
p148
sbasg59
I00
sg60
g61
sbag1
(g2
g3
Ntp149
Rp150
(dp151
g7
VSpr DP Picnicker.png
p152
sg9
VPicnicker
p153
sg11
VTori
p154
sg13
V240<br><small>Potential [[Double Battle]] with Diego</small>
p155
sg15
g16
sg17
g18
sg19
g20
sg21
g22
sg23
(lp156
g1
(g25
g3
Ntp157
Rp158
(dp159
g29
V266
p160
sg31
VSilcoon
p161
sg33
g96
sg35
V15
p162
sg37
(lp163
Vharden
p164
ag164
asg43
g44
sg45
Vshed-skin
p165
sbag1
(g25
g3
Ntp166
Rp167
(dp168
g29
V267
p169
sg31
VBeautifly
p170
sg33
g96
sg35
V15
p171
sg37
(lp172
Vattract
p173
aVmorning-sun
p174
aVsilver-wind
p175
aVbug-buzz
p176
asg43
g44
sg45
Vswarm
p177
sbasg59
I00
sg60
g61
sbag1
(g2
g3
Ntp178
Rp179
(dp180
g7
VSpr DP Camper.png
p181
sg9
VCamper
p182
sg11
VDiego
p183
sg13
V272<br><small>Potential [[Double Battle]] with Tori</small>
p184
sg15
g16
sg17
g18
sg19
g20
sg21
g22
sg23
(lp185
g1
(g25
g3
Ntp186
Rp187
(dp188
g29
V268
p189
sg31
VCascoon
p190
sg33
g34
sg35
V13
p191
sg37
(lp192
Vharden
p193
ag193
asg43
g44
sg45
Vshed-skin
p194
sbag1
(g25
g3
Ntp195
Rp196
(dp197
g29
V269
p198
sg31
VDustox
p199
sg33
g34
sg35
V17
p200
sg37
(lp201
Vprotect
p202
aVmoonlight
p203
aVsilver-wind
p204
aVbug-buzz
p205
asg43
g44
sg45
Vshield-dust
p206
sbasg59
I00
sg60
g61
sbag1
(g2
g3
Ntp207
Rp208
(dp209
g7
VSpr DP Picnicker.png
p210
sg9
VPicnicker
p211
sg11
VAna
p212
sg13
V272<br><small>Potential [[Double Battle]] with Parker</small>
p213
sg15
g69
sg17
g18
sg19
g20
sg21
g22
sg23
(lp214
g1
(g25
g3
Ntp215
Rp216
(dp217
g29
V307
p218
sg31
VMeditite
p219
sg33
g96
sg35
V17
p220
sg37
(lp221
Vcalm-mind
p222
aVfeint
p223
aVpower-trick
p224
aVforce-palm
p225
asg43
g44
sg45
Vpure-power
p226
sbasg59
I00
sg60
g61
sbag1
(g2
g3
Ntp227
Rp228
(dp229
g7
VSpr DP Camper.png
p230
sg9
VCamper
p231
sg11
VParker
p232
sg13
V240<br><small>Potential [[Double Battle]] with Ana</small>
p233
sg15
g16
sg17
g18
sg19
g20
sg21
g22
sg23
(lp234
g1
(g25
g3
Ntp235
Rp236
(dp237
g29
V418
p238
sg31
VBuizel
p239
sg33
g34
sg35
V15
p240
sg37
(lp241
Vpursuit
p242
aVwhirlpool
p243
aVwater-sport
p244
aVaqua-jet
p245
asg43
g44
sg45
Vswift-swim
p246
sbag1
(g25
g3
Ntp247
Rp248
(dp249
g29
V403
p250
sg31
VShinx
p251
sg33
g34
sg35
V15
p252
sg37
(lp253
Vcrunch
p254
aVcharge
p255
aVthunder-fang
p256
aVdischarge
p257
asg43
g44
sg45
Vintimidate
p258
sbasg59
I00
sg60
g61
sbag1
(g2
g3
Ntp259
Rp260
(dp261
g7
VSpr DP Collector.png
p262
sg9
VCollector
p263
sg11
VTerry
p264
sg13
V1088<br><small>Potential [[Double Battle]] with Gerald</small>
p265
sg15
g111
sg17
g18
sg19
g20
sg21
g22
sg23
(lp266
g1
(g25
g3
Ntp267
Rp268
(dp269
g29
V092
p270
sg31
VGastly
p271
sg33
g34
sg35
V12
p272
sg37
(lp273
Vshadow-ball
p274
aVpayback
p275
aVsucker-punch
p276
aVdark-pulse
p277
asg43
g44
sg45
Vlevitate
p278
sbag1
(g25
g3
Ntp279
Rp280
(dp281
g29
V092
p282
sg31
VGastly
p283
sg33
g34
sg35
V13
p284
sg37
(lp285
Vshadow-ball
p286
aVpayback
p287
aVsucker-punch
p288
aVdark-pulse
p289
asg43
g44
sg45
Vlevitate
p290
sbag1
(g25
g3
Ntp291
Rp292
(dp293
g29
V092
p294
sg31
VGastly
p295
sg33
g34
sg35
V17
p296
sg37
(lp297
Vshadow-ball
p298
aVpayback
p299
aVsucker-punch
p300
aVdark-pulse
p301
asg43
g44
sg45
Vlevitate
p302
sbasg59
I00
sg60
g61
sbag1
(g2
g3
Ntp303
Rp304
(dp305
g7
VSpr DP Ruin Maniac.png
p306
sg9
VRuin Maniac
p307
sg11
VGerald
p308
sg13
V816<br><small>Potential [[Double Battle]] with Terry</small>
p309
sg15
g16
sg17
g18
sg19
g20
sg21
g22
sg23
(lp310
g1
(g25
g3
Ntp311
Rp312
(dp313
g29
V074
p314
sg31
VGeodude
p315
sg33
g34
sg35
V15
p316
sg37
(lp317
Vmud-sport
p318
aVrock-blast
p319
aVrock-polish
p320
aVstone-edge
p321
asg43
g44
sg45
Vsturdy
p322
sbag1
(g25
g3
Ntp323
Rp324
(dp325
g29
V436
p326
sg31
VBronzor
p327
sg33
VU
p328
sg35
V17
p329
sg37
(lp330
Viron-defense
p331
aVgyro-ball
p332
aVpayback
p333
aVheal-block
p334
asg43
g44
sg45
Vlevitate
p335
sbasg59
I00
sg60
g61
sbag1
(g2
g3
Ntp336
Rp337
(dp338
g7
VSpr DP Hiker.png
p339
sg9
VHiker
p340
sg11
VReginald
p341
sg13
V640<br><small>Potential [[Double Battle]] with Lorenzo</small>
p342
sg15
g16
sg17
g18
sg19
g20
sg21
g22
sg23
(lp343
g1
(g25
g3
Ntp344
Rp345
(dp346
g29
V074
p347
sg31
VGeodude
p348
sg33
g34
sg35
V20
p349
sg37
(lp350
Vmud-sport
p351
aVrock-blast
p352
aVrock-polish
p353
aVstone-edge
p354
asg43
g44
sg45
Vsturdy
p355
sbag1
(g25
g3
Ntp356
Rp357
(dp358
g29
V074
p359
sg31
VGeodude
p360
sg33
g34
sg35
V20
p361
sg37
(lp362
Vmud-sport
p363
aVrock-blast
p364
aVrock-polish
p365
aVstone-edge
p366
asg43
g44
sg45
Vrock-head
p367
sbasg59
I00
sg60
g61
sbag1
(g2
g3
Ntp368
Rp369
(dp370
g7
VSpr DP Hiker.png
p371
sg9
VHiker
p372
sg11
VLorenzo
p373
sg13
V704<br><small>Potential [[Double Battle]] with Reginald</small>
p374
sg15
g69
sg17
g18
sg19
g20
sg21
g22
sg23
(lp375
g1
(g25
g3
Ntp376
Rp377
(dp378
g29
V095
p379
sg31
VOnix
p380
sg33
g34
sg35
V22
p381
sg37
(lp382
Vrock-tomb
p383
aVsand-tomb
p384
aVrock-polish
p385
aVstone-edge
p386
asg43
g44
sg45
Vrock-head
p387
sbasg59
I00
sg60
g61
sbag1
(g2
g3
Ntp388
Rp389
(dp390
g7
VSpr DP Lass.png
p391
sg9
VLass
p392
sg11
VCassidy
p393
sg13
V352<br><small>Potential [[Double Battle]] with Wayne</small>
p394
sg15
g69
sg17
g18
sg19
g20
sg21
g22
sg23
(lp395
g1
(g25
g3
Ntp396
Rp397
(dp398
g29
V427
p399
sg31
VBuneary
p400
sg33
g96
sg35
V22
p401
sg37
(lp402
Vfrustration
p403
aVbaton-pass
p404
aVbounce
p405
aVhealing-wish
p406
asg43
g44
sg45
Vrun-away
p407
sbasg59
I00
sg60
g61
sbag1
(g2
g3
Ntp408
Rp409
(dp410
g7
VSpr DP Youngster.png
p411
sg9
VYoungster
p412
sg11
VWayne
p413
sg13
V320<br><small>Potential [[Double Battle]] with Cassidy</small>
p414
sg15
g111
sg17
g18
sg19
g20
sg21
g22
sg23
(lp415
g1
(g25
g3
Ntp416
Rp417
(dp418
g29
V397
p419
sg31
VStaravia
p420
sg33
g34
sg35
V17
p421
sg37
(lp422
Vdouble-team
p423
aVendeavor
p424
aVaerial-ace
p425
aVbrave-bird
p426
asg43
g44
sg45
Vintimidate
p427
sbag1
(g25
g3
Ntp428
Rp429
(dp430
g29
V077
p431
sg31
VPonyta
p432
sg33
g34
sg35
V20
p433
sg37
(lp434
Vagility
p435
aVfire-blast
p436
aVbounce
p437
aVflare-blitz
p438
asg43
g44
sg45
Vflash-fire
p439
sbag1
(g25
g3
Ntp440
Rp441
(dp442
g29
V422
p443
sg31
VShellos
p444
sg33
g34
sg35
V20
p445
sg37
(lp446
Vmud-sport
p447
aVmuddy-water
p448
aVwater-pulse
p449
aVmud-bomb
p450
asg43
g44
sg45
Vsticky-hold
p451
sbasg59
I00
sg60
g61
sbag1
(g2
g3
Ntp452
Rp453
(dp454
g7
VSpr DP Picnicker.png
p455
sg9
VPicnicker
p456
sg11
VTori
p457
sg13
V352<br><small>Potential [[Double Battle]] with Diego</small>
p458
sg15
g69
sg17
g18
sg19
g20
sg21
g22
sg23
(lp459
g1
(g25
g3
Ntp460
Rp461
(dp462
g29
V054
p463
sg31
VPsyduck
p464
sg33
g96
sg35
V22
p465
sg37
(lp466
Vpsych-up
p467
aVwater-sport
p468
aVwater-pulse
p469
aVzen-headbutt
p470
asg43
g44
sg45
Vcloud-nine
p471
sbasg59
I00
sg60
g61
sbag1
(g2
g3
Ntp472
Rp473
(dp474
g7
VSpr DP Camper.png
p475
sg9
VCamper
p476
sg11
VDiego
p477
sg13
V352<br><small>Potential [[Double Battle]] with Tori</small>
p478
sg15
g69
sg17
g18
sg19
g20
sg21
g22
sg23
(lp479
g1
(g25
g3
Ntp480
Rp481
(dp482
g29
V190
p483
sg31
VAipom
p484
sg33
g34
sg35
V22
p485
sg37
(lp486
Vfling
p487
aVlast-resort
p488
aVnasty-plot
p489
aVdouble-hit
p490
asg43
g44
sg45
Vpickup
p491
sbasg59
I00
sg60
g61
sbag1
(g2
g3
Ntp492
Rp493
(dp494
g7
Vspr DP Picnicker.png
p495
sg9
VPicnicker
p496
sg11
VAna
p497
sg13
V352<br><small>Potential [[Double Battle]] with Parker</small>
p498
sg15
g69
sg17
g18
sg19
g20
sg21
g22
sg23
(lp499
g1
(g25
g3
Ntp500
Rp501
(dp502
g29
V163
p503
sg31
VHoothoot
p504
sg33
g96
sg35
V22
p505
sg37
(lp506
Vroost
p507
aVpsycho-shift
p508
aVair-slash
p509
aVzen-headbutt
p510
asg43
g44
sg45
Vkeen-eye
p511
sbasg59
I00
sg60
g61
sbag1
(g2
g3
Ntp512
Rp513
(dp514
g7
VSpr DP Camper.png
p515
sg9
VCamper
p516
sg11
VParker
p517
sg13
V320<br><small>Potential [[Double Battle]] with Ana</small>
p518
sg15
g16
sg17
g18
sg19
g20
sg21
g22
sg23
(lp519
g1
(g25
g3
Ntp520
Rp521
(dp522
g29
V418
p523
sg31
VBuizel
p524
sg33
g34
sg35
V20
p525
sg37
(lp526
Vpursuit
p527
aVwhirlpool
p528
aVwater-sport
p529
aVaqua-jet
p530
asg43
g44
sg45
Vswift-swim
p531
sbag1
(g25
g3
Ntp532
Rp533
(dp534
g29
V403
p535
sg31
VShinx
p536
sg33
g34
sg35
V20
p537
sg37
(lp538
Vcrunch
p539
aVcharge
p540
aVthunder-fang
p541
aVdischarge
p542
asg43
g44
sg45
Vintimidate
p543
sbasg59
I00
sg60
g61
sbag1
(g2
g3
Ntp544
Rp545
(dp546
g7
VSpr DP Collector.png
p547
sg9
VCollector
p548
sg11
VTerry
p549
sg13
V1408<br><small>Potential [[Double Battle]] with Gerald</small>
p550
sg15
g69
sg17
g18
sg19
g20
sg21
g22
sg23
(lp551
g1
(g25
g3
Ntp552
Rp553
(dp554
g29
V443
p555
sg31
VGible
p556
sg33
g34
sg35
V22
p557
sg37
(lp558
Vsandstorm
p559
aVsand-tomb
p560
aVdragon-claw
p561
aVdragon-rush
p562
asg43
g44
sg45
Vsand-veil
p563
sbasg59
I00
sg60
g61
sbag1
(g2
g3
Ntp564
Rp565
(dp566
g7
VSpr DP Ruin Maniac.png
p567
sg9
VRuin Maniac
p568
sg11
VGerald
p569
sg13
V1008<br><small>Potential [[Double Battle]] with Terry</small>
p570
sg15
g16
sg17
g18
sg19
g20
sg21
g22
sg23
(lp571
g1
(g25
g3
Ntp572
Rp573
(dp574
g29
V074
p575
sg31
VGeodude
p576
sg33
g34
sg35
V19
p577
sg37
(lp578
Vmud-sport
p579
aVrock-blast
p580
aVrock-polish
p581
aVstone-edge
p582
asg43
g44
sg45
Vsturdy
p583
sbag1
(g25
g3
Ntp584
Rp585
(dp586
g29
V436
p587
sg31
VBronzor
p588
sg33
g328
sg35
V21
p589
sg37
(lp590
Viron-defense
p591
aVgyro-ball
p592
aVpayback
p593
aVheal-block
p594
asg43
g44
sg45
Vheatproof
p595
sbasg59
I00
sg60
g61
sbag1
(g2
g3
Ntp596
Rp597
(dp598
g7
VDP Mira Back.png
p599
sg9
VPokemon Trainer
p600
sg11
VMira
p601
sg13
Vn/a
p602
sg15
I1
sg17
g18
sg19
g20
sg21
VSM
p603
sg23
(lp604
g1
(g25
g3
Ntp605
Rp606
(dp607
g29
I64
sg31
VKadabra
p608
sg33
g34
sg35
g1
(cmwparserfromhell.wikicode
Wikicode
p609
g3
Ntp610
Rp611
(dp612
V_nodes
p613
g1
(cmwparserfromhell.smart_list.smart_list
SmartList
p614
c__builtin__
list
p615
(lp616
g1
(cmwparserfromhell.nodes.text
Text
p617
g3
Ntp618
Rp619
(dp620
V_value
p621
V18
p622
sbatp623
Rp624
(dp625
V_children
p626
(dp627
sbsbsg37
(lp628
VShock Wave
p629
aVKinesis
p630
aVConfusion
p631
aVFlash
p632
asg43
g44
sg45
VSynchronize
p633
sbasg59
I01
sg60
Vsun-moon
p634
sba.