(lp0
ccopy_reg
_reconstructor
p1
(c__main__
Trainer
p2
c__builtin__
object
p3
Ntp4
Rp5
(dp6
VtSprite
p7
VSpr RS Team Magma Grunt F.png
p8
sVtClass
p9
VTeam Magma Grunt
p10
sVtName
p11
V
p12
sVtMoney
p13
V560
p14
sVtPokeCount
p15
V1
p16
sVtLocation
p17
Vwiki/Weather_Institute
p18
sVtRegion
p19
VHoenn
p20
sVtGame
p21
VRS
p22
sVtPokes
p23
(lp24
g1
(c__main__
FinishedPokemon
p25
g3
Ntp26
Rp27
(dp28
VpDexNo
p29
V322
p30
sVpSpecies
p31
VNumel
p32
sVpGender
p33
VF
p34
sVpLevel
p35
V28
p36
sVpMoves
p37
(lp38
Vearthquake
p39
aVfocus-energy
p40
aVamnesia
p41
aVmagnitude
p42
asVpHold
p43
g12
sVpAbility
p44
Voblivious
p45
sbasVbossFlag
p46
I00
sVtLongGame
p47
Vruby-sapphire
p48
sbag1
(g2
g3
Ntp49
Rp50
(dp51
g7
VSpr RS Team Magma Grunt M.png
p52
sg9
VTeam Magma Grunt
p53
sg11
g12
sg13
V540
p54
sg15
V2
p55
sg17
g18
sg19
g20
sg21
g22
sg23
(lp56
g1
(g25
g3
Ntp57
Rp58
(dp59
g29
V041
p60
sg31
VZubat
p61
sg33
VM
p62
sg35
V27
p63
sg37
(lp64
Vmean-look
p65
aVpoison-fang
p66
aVastonish
p67
aVair-cutter
p68
asg43
g12
sg44
Vinner-focus
p69
sbag1
(g25
g3
Ntp70
Rp71
(dp72
g29
V261
p73
sg31
VPoochyena
p74
sg33
g62
sg35
V27
p75
sg37
(lp76
Vcrunch
p77
aVtaunt
p78
aVodor-sleuth
p79
aVhowl
p80
asg43
g12
sg44
Vquick-feet
p81
sbasg46
I00
sg47
g48
sbag1
(g2
g3
Ntp82
Rp83
(dp84
g7
VSpr RS Team Magma Grunt M.png
p85
sg9
VTeam Magma Grunt
p86
sg11
g12
sg13
V540
p87
sg15
g55
sg17
g18
sg19
g20
sg21
g22
sg23
(lp88
g1
(g25
g3
Ntp89
Rp90
(dp91
g29
V261
p92
sg31
VPoochyena
p93
sg33
g62
sg35
V27
p94
sg37
(lp95
Vcrunch
p96
aVtaunt
p97
aVodor-sleuth
p98
aVhowl
p99
asg43
g12
sg44
Vquick-feet
p100
sbag1
(g25
g3
Ntp101
Rp102
(dp103
g29
V322
p104
sg31
VNumel
p105
sg33
g62
sg35
V27
p106
sg37
(lp107
Vearthquake
p108
aVfocus-energy
p109
aVamnesia
p110
aVmagnitude
p111
asg43
g12
sg44
Vsimple
p112
sbasg46
I00
sg47
g48
sbag1
(g2
g3
Ntp113
Rp114
(dp115
g7
VSpr RS Team Magma Grunt M.png
p116
sg9
VTeam Magma Grunt
p117
sg11
g12
sg13
V520
p118
sg15
V3
p119
sg17
g18
sg19
g20
sg21
g22
sg23
(lp120
g1
(g25
g3
Ntp121
Rp122
(dp123
g29
V261
p124
sg31
VPoochyena
p125
sg33
g62
sg35
V26
p126
sg37
(lp127
Vcrunch
p128
aVtaunt
p129
aVodor-sleuth
p130
aVhowl
p131
asg43
g12
sg44
Vrun-away
p132
sbag1
(g25
g3
Ntp133
Rp134
(dp135
g29
V041
p136
sg31
VZubat
p137
sg33
g62
sg35
V26
p138
sg37
(lp139
Vmean-look
p140
aVpoison-fang
p141
aVastonish
p142
aVair-cutter
p143
asg43
g12
sg44
Vinner-focus
p144
sbag1
(g25
g3
Ntp145
Rp146
(dp147
g29
V322
p148
sg31
VNumel
p149
sg33
g62
sg35
V26
p150
sg37
(lp151
Vearthquake
p152
aVfocus-energy
p153
aVamnesia
p154
aVmagnitude
p155
asg43
g12
sg44
Voblivious
p156
sbasg46
I00
sg47
g48
sbag1
(g2
g3
Ntp157
Rp158
(dp159
g7
VSpr RS Team Aqua Grunt F.png
p160
sg9
VTeam Aqua Grunt
p161
sg11
g12
sg13
V560
p162
sg15
g16
sg17
g18
sg19
g20
sg21
g22
sg23
(lp163
g1
(g25
g3
Ntp164
Rp165
(dp166
g29
V318
p167
sg31
VCarvanha
p168
sg33
g34
sg35
V28
p169
sg37
(lp170
Vfocus-energy
p171
aVscary-face
p172
aVswagger
p173
aVcrunch
p174
asg43
g12
sg44
Vrough-skin
p175
sbasg46
I00
sg47
g48
sbag1
(g2
g3
Ntp176
Rp177
(dp178
g7
VSpr RS Team Aqua Grunt M.png
p179
sg9
VTeam Aqua Grunt
p180
sg11
g12
sg13
V540
p181
sg15
g55
sg17
g18
sg19
g20
sg21
g22
sg23
(lp182
g1
(g25
g3
Ntp183
Rp184
(dp185
g29
V041
p186
sg31
VZubat
p187
sg33
g62
sg35
V27
p188
sg37
(lp189
Vmean-look
p190
aVpoison-fang
p191
aVastonish
p192
aVair-cutter
p193
asg43
g12
sg44
Vinner-focus
p194
sbag1
(g25
g3
Ntp195
Rp196
(dp197
g29
V261
p198
sg31
VPoochyena
p199
sg33
g62
sg35
V27
p200
sg37
(lp201
Vcrunch
p202
aVtaunt
p203
aVodor-sleuth
p204
aVhowl
p205
asg43
g12
sg44
Vquick-feet
p206
sbasg46
I00
sg47
g48
sbag1
(g2
g3
Ntp207
Rp208
(dp209
g7
VSpr RS Team Aqua Grunt M.png
p210
sg9
VTeam Aqua Grunt
p211
sg11
g12
sg13
V540
p212
sg15
g55
sg17
g18
sg19
g20
sg21
g22
sg23
(lp213
g1
(g25
g3
Ntp214
Rp215
(dp216
g29
V261
p217
sg31
VPoochyena
p218
sg33
g62
sg35
V27
p219
sg37
(lp220
Vcrunch
p221
aVtaunt
p222
aVodor-sleuth
p223
aVhowl
p224
asg43
g12
sg44
Vrun-away
p225
sbag1
(g25
g3
Ntp226
Rp227
(dp228
g29
V318
p229
sg31
VCarvanha
p230
sg33
g62
sg35
V27
p231
sg37
(lp232
Vfocus-energy
p233
aVscary-face
p234
aVswagger
p235
aVcrunch
p236
asg43
g12
sg44
Vrough-skin
p237
sbasg46
I00
sg47
g48
sbag1
(g2
g3
Ntp238
Rp239
(dp240
g7
VSpr RS Team Aqua Grunt M.png
p241
sg9
VTeam Aqua Grunt
p242
sg11
g12
sg13
V520
p243
sg15
g119
sg17
g18
sg19
g20
sg21
g22
sg23
(lp244
g1
(g25
g3
Ntp245
Rp246
(dp247
g29
V261
p248
sg31
VPoochyena
p249
sg33
g62
sg35
V26
p250
sg37
(lp251
Vcrunch
p252
aVtaunt
p253
aVodor-sleuth
p254
aVhowl
p255
asg43
g12
sg44
Vrun-away
p256
sbag1
(g25
g3
Ntp257
Rp258
(dp259
g29
V041
p260
sg31
VZubat
p261
sg33
g62
sg35
V26
p262
sg37
(lp263
Vmean-look
p264
aVpoison-fang
p265
aVastonish
p266
aVair-cutter
p267
asg43
g12
sg44
Vinner-focus
p268
sbag1
(g25
g3
Ntp269
Rp270
(dp271
g29
V318
p272
sg31
VCarvanha
p273
sg33
g62
sg35
V26
p274
sg37
(lp275
Vfocus-energy
p276
aVscary-face
p277
aVswagger
p278
aVcrunch
p279
asg43
g12
sg44
Vrough-skin
p280
sbasg46
I00
sg47
g48
sbag1
(g2
g3
Ntp281
Rp282
(dp283
g7
VSpr RS Team Aqua Grunt F.png
p284
sg9
VTeam Aqua Grunt
p285
sg11
g12
sg13
V560
p286
sg15
g16
sg17
g18
sg19
g20
sg21
g22
sg23
(lp287
g1
(g25
g3
Ntp288
Rp289
(dp290
g29
V318
p291
sg31
VCarvanha
p292
sg33
g34
sg35
V28
p293
sg37
(lp294
Vfocus-energy
p295
aVscary-face
p296
aVswagger
p297
aVcrunch
p298
asg43
g12
sg44
Vrough-skin
p299
sbasg46
I00
sg47
g48
sbag1
(g2
g3
Ntp300
Rp301
(dp302
g7
VSpr RS Team Aqua Grunt M.png
p303
sg9
VTeam Aqua Grunt
p304
sg11
g12
sg13
V540
p305
sg15
g55
sg17
g18
sg19
g20
sg21
g22
sg23
(lp306
g1
(g25
g3
Ntp307
Rp308
(dp309
g29
V041
p310
sg31
VZubat
p311
sg33
g62
sg35
V27
p312
sg37
(lp313
Vmean-look
p314
aVpoison-fang
p315
aVastonish
p316
aVair-cutter
p317
asg43
g12
sg44
Vinner-focus
p318
sbag1
(g25
g3
Ntp319
Rp320
(dp321
g29
V261
p322
sg31
VPoochyena
p323
sg33
g62
sg35
V27
p324
sg37
(lp325
Vcrunch
p326
aVtaunt
p327
aVodor-sleuth
p328
aVhowl
p329
asg43
g12
sg44
Vrun-away
p330
sbasg46
I00
sg47
g48
sbag1
(g2
g3
Ntp331
Rp332
(dp333
g7
VSpr RS Team Aqua Grunt M.png
p334
sg9
VTeam Aqua Grunt
p335
sg11
g12
sg13
V540<br/><small>Potential [[Double Battle]] with the following Grunt</small>
p336
sg15
g55
sg17
g18
sg19
g20
sg21
g22
sg23
(lp337
g1
(g25
g3
Ntp338
Rp339
(dp340
g29
V261
p341
sg31
VPoochyena
p342
sg33
g62
sg35
V27
p343
sg37
(lp344
Vcrunch
p345
aVtaunt
p346
aVodor-sleuth
p347
aVhowl
p348
asg43
g12
sg44
Vquick-feet
p349
sbag1
(g25
g3
Ntp350
Rp351
(dp352
g29
V318
p353
sg31
VCarvanha
p354
sg33
g62
sg35
V27
p355
sg37
(lp356
Vfocus-energy
p357
aVscary-face
p358
aVswagger
p359
aVcrunch
p360
asg43
g12
sg44
Vrough-skin
p361
sbasg46
I00
sg47
g48
sbag1
(g2
g3
Ntp362
Rp363
(dp364
g7
VSpr RS Team Aqua Grunt F.png
p365
sg9
VTeam Aqua Grunt
p366
sg11
g12
sg13
V540<br/><small>Potential [[Double Battle]] with the previous Grunt</small>
p367
sg15
g55
sg17
g18
sg19
g20
sg21
g22
sg23
(lp368
g1
(g25
g3
Ntp369
Rp370
(dp371
g29
V041
p372
sg31
VZubat
p373
sg33
g34
sg35
V27
p374
sg37
(lp375
Vmean-look
p376
aVpoison-fang
p377
aVastonish
p378
aVair-cutter
p379
asg43
g12
sg44
Vinner-focus
p380
sbag1
(g25
g3
Ntp381
Rp382
(dp383
g29
V261
p384
sg31
VPoochyena
p385
sg33
g34
sg35
V27
p386
sg37
(lp387
Vcrunch
p388
aVtaunt
p389
aVodor-sleuth
p390
aVhowl
p391
asg43
g12
sg44
Vquick-feet
p392
sbasg46
I00
sg47
g48
sbag1
(g2
g3
Ntp393
Rp394
(dp395
g7
VSpr RS Team Aqua Grunt M.png
p396
sg9
VTeam Aqua Grunt
p397
sg11
g12
sg13
V520
p398
sg15
g119
sg17
g18
sg19
g20
sg21
g22
sg23
(lp399
g1
(g25
g3
Ntp400
Rp401
(dp402
g29
V261
p403
sg31
VPoochyena
p404
sg33
g62
sg35
V26
p405
sg37
(lp406
Vcrunch
p407
aVtaunt
p408
aVodor-sleuth
p409
aVhowl
p410
asg43
g12
sg44
Vquick-feet
p411
sbag1
(g25
g3
Ntp412
Rp413
(dp414
g29
V041
p415
sg31
VZubat
p416
sg33
g62
sg35
V26
p417
sg37
(lp418
Vmean-look
p419
aVpoison-fang
p420
aVastonish
p421
aVair-cutter
p422
asg43
g12
sg44
Vinner-focus
p423
sbag1
(g25
g3
Ntp424
Rp425
(dp426
g29
V318
p427
sg31
VCarvanha
p428
sg33
g62
sg35
V26
p429
sg37
(lp430
Vfocus-energy
p431
aVscary-face
p432
aVswagger
p433
aVcrunch
p434
asg43
g12
sg44
Vrough-skin
p435
sbasg46
I00
sg47
g48
sbag1
(g2
g3
Ntp436
Rp437
(dp438
g7
VVSTeam Magma Grunt M.png
p439
sg9
VTeam Magma Grunt
p440
sg11
g12
sg13
V1,160
p441
sg15
g55
sg17
g18
sg19
g20
sg21
VSM
p442
sg23
(lp443
g1
(g25
g3
Ntp444
Rp445
(dp446
g29
V262
p447
sg31
VMightyena
p448
sg33
g62
sg35
V29
p449
sg37
(lp450
Vice-fang
p451
aVfire-fang
p452
aVsnarl
p453
aVplay-rough
p454
asg43
g12
sg44
Vintimidate
p455
sbag1
(g25
g3
Ntp456
Rp457
(dp458
g29
V042
p459
sg31
VGolbat
p460
sg33
g62
sg35
V29
p461
sg37
(lp462
Vair-cutter
p463
aVair-slash
p464
aVvenoshock
p465
aVquick-guard
p466
asg43
g12
sg44
Vinner-focus
p467
sbasg46
I00
sg47
Vsun-moon
p468
sbag1
(g2
g3
Ntp469
Rp470
(dp471
g7
VVSTeam Magma Grunt M.png
p472
sg9
VTeam Magma Grunt
p473
sg11
g12
sg13
V1,200
p474
sg15
g16
sg17
g18
sg19
g20
sg21
g442
sg23
(lp475
g1
(g25
g3
Ntp476
Rp477
(dp478
g29
V109
p479
sg31
VKoffing
p480
sg33
g62
sg35
V30
p481
sg37
(lp482
Vgyro-ball
p483
aVassurance
p484
aVclear-smog
p485
aVbelch
p486
asg43
g12
sg44
Vlevitate
p487
sbasg46
I00
sg47
g468
sbag1
(g2
g3
Ntp488
Rp489
(dp490
g7
VVSTeam Magma Grunt M.png
p491
sg9
VTeam Magma Grunt
p492
sg11
g12
sg13
V1,120
p493
sg15
g55
sg17
g18
sg19
g20
sg21
g442
sg23
(lp494
g1
(g25
g3
Ntp495
Rp496
(dp497
g29
V322
p498
sg31
VNumel
p499
sg33
g62
sg35
V28
p500
sg37
(lp501
Vyawn
p502
aVearth-power
p503
aVlava-plume
p504
aVflame-burst
p505
asg43
g12
sg44
Voblivious
p506
sbag1
(g25
g3
Ntp507
Rp508
(dp509
g29
V262
p510
sg31
VMightyena
p511
sg33
g62
sg35
V28
p512
sg37
(lp513
Vice-fang
p514
aVfire-fang
p515
aVsnarl
p516
aVplay-rough
p517
asg43
g12
sg44
Vintimidate
p518
sbasg46
I00
sg47
g468
sbag1
(g2
g3
Ntp519
Rp520
(dp521
g7
VVSTeam Magma Grunt F.png
p522
sg9
VTeam Magma Grunt
p523
sg11
g12
sg13
V1,200
p524
sg15
g16
sg17
g18
sg19
g20
sg21
g442
sg23
(lp525
g1
(g25
g3
Ntp526
Rp527
(dp528
g29
V042
p529
sg31
VGolbat
p530
sg33
g34
sg35
V30
p531
sg37
(lp532
Vair-cutter
p533
aVair-slash
p534
aVvenoshock
p535
aVquick-guard
p536
asg43
g12
sg44
Vinner-focus
p537
sbasg46
I00
sg47
g468
sbag1
(g2
g3
Ntp538
Rp539
(dp540
g7
VVSTeam Aqua Grunt M.png
p541
sg9
VTeam Aqua Grunt
p542
sg11
g12
sg13
V1,120
p543
sg15
g55
sg17
g18
sg19
g20
sg21
g442
sg23
(lp544
g1
(g25
g3
Ntp545
Rp546
(dp547
g29
V262
p548
sg31
VMightyena
p549
sg33
g62
sg35
V28
p550
sg37
(lp551
Vice-fang
p552
aVfire-fang
p553
aVsnarl
p554
aVplay-rough
p555
asg43
g12
sg44
Vintimidate
p556
sbag1
(g25
g3
Ntp557
Rp558
(dp559
g29
V042
p560
sg31
VGolbat
p561
sg33
g62
sg35
V28
p562
sg37
(lp563
Vair-cutter
p564
aVair-slash
p565
aVvenoshock
p566
aVquick-guard
p567
asg43
g12
sg44
Vinner-focus
p568
sbasg46
I00
sg47
g468
sbag1
(g2
g3
Ntp569
Rp570
(dp571
g7
VVSTeam Aqua Grunt M.png
p572
sg9
VTeam Aqua Grunt
p573
sg11
g12
sg13
V1,200
p574
sg15
g16
sg17
g18
sg19
g20
sg21
g442
sg23
(lp575
g1
(g25
g3
Ntp576
Rp577
(dp578
g29
V088
p579
sg31
VGrimer
p580
sg33
g62
sg35
V30
p581
sg37
(lp582
Vmud-bomb
p583
aVgunk-shot
p584
aVsludge-wave
p585
aVbelch
p586
asg43
g12
sg44
Vstench
p587
sbasg46
I00
sg47
g468
sbag1
(g2
g3
Ntp588
Rp589
(dp590
g7
VVSTeam Aqua Grunt M.png
p591
sg9
VTeam Aqua Grunt
p592
sg11
g12
sg13
V1,120
p593
sg15
g55
sg17
g18
sg19
g20
sg21
g442
sg23
(lp594
g1
(g25
g3
Ntp595
Rp596
(dp597
g29
V318
p598
sg31
VCarvanha
p599
sg33
g62
sg35
V28
p600
sg37
(lp601
Vpoison-fang
p602
aVassurance
p603
aVice-fang
p604
aVaqua-jet
p605
asg43
g12
sg44
Vrough-skin
p606
sbag1
(g25
g3
Ntp607
Rp608
(dp609
g29
V262
p610
sg31
VMightyena
p611
sg33
g62
sg35
V28
p612
sg37
(lp613
Vice-fang
p614
aVfire-fang
p615
aVsnarl
p616
aVplay-rough
p617
asg43
g12
sg44
Vintimidate
p618
sbasg46
I00
sg47
g468
sbag1
(g2
g3
Ntp619
Rp620
(dp621
g7
VVSTeam Aqua Grunt F.png
p622
sg9
VTeam Aqua Grunt
p623
sg11
g12
sg13
V1,200
p624
sg15
g16
sg17
g18
sg19
g20
sg21
g442
sg23
(lp625
g1
(g25
g3
Ntp626
Rp627
(dp628
g29
V042
p629
sg31
VGolbat
p630
sg33
g34
sg35
V30
p631
sg37
(lp632
Vair-cutter
p633
aVair-slash
p634
aVvenoshock
p635
aVquick-guard
p636
asg43
g12
sg44
Vinner-focus
p637
sbasg46
I00
sg47
g468
sbag1
(g2
g3
Ntp638
Rp639
(dp640
g7
VSpr RS Courtney.png
p641
sg9
VMagma Admin
p642
sg11
VCourtney
p643
sg13
V1120
p644
sg15
I2
sg17
g18
sg19
g20
sg21
g22
sg23
(lp645
g1
(g25
g3
Ntp646
Rp647
(dp648
g29
I322
sg31
VNumel
p649
sg33
g34
sg35
V28
p650
sg37
(lp651
VTackle
p652
aVEmber
p653
aVMagnitude
p654
aVFocus Energy
p655
asg43
g12
sg44
VOblivious
p656
sbag1
(g25
g3
Ntp657
Rp658
(dp659
g29
I262
sg31
VMightyena
p660
sg33
g34
sg35
V28
p661
sg37
(lp662
VBite
p663
aVOdor Sleuth
p664
aVRoar
p665
aVSwagger
p666
asg43
g12
sg44
VIntimidate
p667
sbasg46
I01
sg47
g48
sbag1
(g2
g3
Ntp668
Rp669
(dp670
g7
VSpr RS Shelly.png
p671
sg9
VAqua Admin
p672
sg11
VShelly
p673
sg13
V1120
p674
sg15
I2
sg17
g18
sg19
g20
sg21
g22
sg23
(lp675
g1
(g25
g3
Ntp676
Rp677
(dp678
g29
I318
sg31
VCarvanha
p679
sg33
g34
sg35
V28
p680
sg37
(lp681
VScreech
p682
aVFocus Energy
p683
aVCrunch
p684
aVScary Face
p685
asg43
g12
sg44
VRough Skin
p686
sbag1
(g25
g3
Ntp687
Rp688
(dp689
g29
I262
sg31
VMightyena
p690
sg33
g34
sg35
V28
p691
sg37
(lp692
VBite
p693
aVRoar
p694
aVSwagger
p695
aVOdor Sleuth
p696
asg43
g12
sg44
VIntimidate
p697
sbasg46
I01
sg47
g48
sbag1
(g2
g3
Ntp698
Rp699
(dp700
g7
VSpr RS Shelly.png
p701
sg9
VAqua Admin
p702
sg11
VShelly
p703
sg13
V1120
p704
sg15
I2
sg17
g18
sg19
g20
sg21
g22
sg23
(lp705
g1
(g25
g3
Ntp706
Rp707
(dp708
g29
I318
sg31
VCarvanha
p709
sg33
g34
sg35
V28
p710
sg37
(lp711
VFocus Energy
p712
aVScary Face
p713
aVCrunch
p714
aVScreech
p715
asg43
g12
sg44
VRough Skin
p716
sbag1
(g25
g3
Ntp717
Rp718
(dp719
g29
I262
sg31
VMightyena
p720
sg33
g34
sg35
V28
p721
sg37
(lp722
VBite
p723
aVOdor Sleuth
p724
aVRoar
p725
aVSwagger
p726
asg43
g12
sg44
VIntimidate
p727
sbasg46
I01
sg47
g48
sbag1
(g2
g3
Ntp728
Rp729
(dp730
g7
VVSTabitha.png
p731
sg9
VMagma Admin
p732
sg11
VTabitha
p733
sg13
V3,200
p734
sg15
I1
sg17
g18
sg19
g20
sg21
g442
sg23
(lp735
g1
(g25
g3
Ntp736
Rp737
(dp738
g29
I323
sg31
VCamerupt
p739
sg33
g62
sg35
V32
p740
sg37
(lp741
VLava Plume
p742
aVEarth Power
p743
aVCurse
p744
aVTake Down
p745
asg43
g12
sg44
VSolid Rock
p746
sbasg46
I01
sg47
g468
sbag1
(g2
g3
Ntp747
Rp748
(dp749
g7
VVSShelly.png
p750
sg9
VAqua Admin
p751
sg11
VShelly
p752
sg13
V3,200
p753
sg15
I1
sg17
g18
sg19
g20
sg21
g442
sg23
(lp754
g1
(g25
g3
Ntp755
Rp756
(dp757
g29
I319
sg31
VSharpedo
p758
sg33
g34
sg35
V32
p759
sg37
(lp760
VSwagger
p761
aVIce Fang
p762
aVScary Face
p763
aVSlash
p764
asg43
g12
sg44
VRough Skin
p765
sbasg46
I01
sg47
g468
sba.