(lp0
ccopy_reg
_reconstructor
p1
(c__main__
Trainer
p2
c__builtin__
object
p3
Ntp4
Rp5
(dp6
VtSprite
p7
VVSSightseer F SM.png
p8
sVtClass
p9
VSightseer
p10
sVtName
p11
VMariah
p12
sVtMoney
p13
V1,140
p14
sVtPokeCount
p15
V1
p16
sVtLocation
p17
Vwiki/Wela_Volcano_Park
p18
sVtRegion
p19
VAlola
p20
sVtGame
p21
VSM
p22
sVtPokes
p23
(lp24
g1
(c__main__
FinishedPokemon
p25
g3
Ntp26
Rp27
(dp28
VpDexNo
p29
V052
p30
sVpSpecies
p31
VMeowth
p32
sVpGender
p33
VF
p34
sVpLevel
p35
V19
p36
sVpMoves
p37
(lp38
Vassurance
p39
aVnight-slash
p40
aVnasty-plot
p41
aVcaptivate
p42
asVpHold
p43
V
p44
sVpAbility
p45
Vpickup
p46
sbasVbossFlag
p47
I00
sVtLongGame
p48
Vsun-moon
p49
sbag1
(g2
g3
Ntp50
Rp51
(dp52
g7
VVSAce Trainer M SM.png
p53
sg9
VAce Trainer
p54
sg11
VJim
p55
sg13
V1,428
p56
sg15
g16
sg17
g18
sg19
g20
sg21
g22
sg23
(lp57
g1
(g25
g3
Ntp58
Rp59
(dp60
g29
V064
p61
sg31
VKadabra
p62
sg33
VM
p63
sg35
V21
p64
sg37
(lp65
Vmiracle-eye
p66
aVpsycho-cut
p67
aVtelekinesis
p68
aVally-switch
p69
asg43
g44
sg45
Vinner-focus
p70
sbasg47
I00
sg48
g49
sbag1
(g2
g3
Ntp71
Rp72
(dp73
g7
VVSHiker SM.png
p74
sg9
VHiker
p75
sg11
VCalhoun
p76
sg13
V608
p77
sg15
V2
p78
sg17
g18
sg19
g20
sg21
g22
sg23
(lp79
g1
(g25
g3
Ntp80
Rp81
(dp82
g29
V524
p83
sg31
VRoggenrola
p84
sg33
g63
sg35
V18
p85
sg37
(lp86
Vrock-blast
p87
aVstone-edge
p88
aVstealth-rock
p89
aVsmack-down
p90
asg43
g44
sg45
Vweak-armor
p91
sbag1
(g25
g3
Ntp92
Rp93
(dp94
g29
V066
p95
sg31
VMachop
p96
sg33
g63
sg35
V19
p97
sg37
(lp98
Vbulk-up
p99
aVwake-up-slap
p100
aVlow-sweep
p101
aVdual-chop
p102
asg43
g44
sg45
Vno-guard
p103
sbasg47
I00
sg48
g49
sbag1
(g2
g3
Ntp104
Rp105
(dp106
g7
VVSSightseer F SM.png
p107
sg9
VSightseer
p108
sg11
VMariah
p109
sg13
V1,140
p110
sg15
g16
sg17
g18
sg19
g20
sg21
g22
sg23
(lp111
g1
(g25
g3
Ntp112
Rp113
(dp114
g29
V052
p115
sg31
VMeowth
p116
sg33
g34
sg35
V19
p117
sg37
(lp118
Vassurance
p119
aVnight-slash
p120
aVnasty-plot
p121
aVcaptivate
p122
asg43
g44
sg45
Vtechnician
p123
sbasg47
I00
sg48
g49
sbag1
(g2
g3
Ntp124
Rp125
(dp126
g7
VVSAce Trainer M SM.png
p127
sg9
VAce Trainer
p128
sg11
VJim
p129
sg13
V1,428
p130
sg15
g78
sg17
g18
sg19
g20
sg21
g22
sg23
(lp131
g1
(g25
g3
Ntp132
Rp133
(dp134
g29
V714
p135
sg31
VNoibat
p136
sg33
g63
sg35
V20
p137
sg37
(lp138
Vroost
p139
aVtailwind
p140
aVair-slash
p141
aVhurricane
p142
asg43
g44
sg45
Vfrisk
p143
sbag1
(g25
g3
Ntp144
Rp145
(dp146
g29
V064
p147
sg31
VKadabra
p148
sg33
g63
sg35
V21
p149
sg37
(lp150
Vmiracle-eye
p151
aVpsycho-cut
p152
aVtelekinesis
p153
aVally-switch
p154
asg43
g44
sg45
Vinner-focus
p155
sbasg47
I00
sg48
g49
sbag1
(g2
g3
Ntp156
Rp157
(dp158
g7
VVSHiker SM.png
p159
sg9
VHiker
p160
sg11
VCalhoun
p161
sg13
V608
p162
sg15
g16
sg17
g18
sg19
g20
sg21
g22
sg23
(lp163
g1
(g25
g3
Ntp164
Rp165
(dp166
g29
V524
p167
sg31
VRoggenrola
p168
sg33
g63
sg35
V19
p169
sg37
(lp170
Vrock-blast
p171
aVstone-edge
p172
aVstealth-rock
p173
aVsmack-down
p174
asg43
g44
sg45
Vweak-armor
p175
sbasg47
I00
sg48
g49
sbag1
(g2
g3
Ntp176
Rp177
(dp178
g7
VVSHiker SM.png
p179
sg9
VHiker
p180
sg11
VDavid
p181
sg13
V1,536
p182
sg15
g16
sg17
g18
sg19
g20
sg21
g22
sg23
(lp183
g1
(g25
g3
Ntp184
Rp185
(dp186
g29
V126
p187
sg31
VMagmar
p188
sg33
g63
sg35
V48
p189
sg37
(lp190
Vsunny-day
p191
aVlava-plume
p192
aVflame-burst
p193
aVclear-smog
p194
asg43
g44
sg45
Vflame-body
p195
sbasg47
I00
sg48
g49
sbag1
(g2
g3
Ntp196
Rp197
(dp198
g7
VVSHiker SM.png
p199
sg9
VHiker
p200
sg11
VDavid
p201
sg13
V608
p202
sg15
I1
sg17
g18
sg19
g20
sg21
g22
sg23
(lp203
g1
(g25
g3
Ntp204
Rp205
(dp206
g29
I126
sg31
VMagmar
p207
sg33
g63
sg35
V19
p208
sg37
(lp209
VSmokescreen
p210
aVFeint Attack
p211
aVFire Spin
p212
aVClear Smog
p213
asg43
g44
sg45
VFlame Body
p214
sbasg47
I01
sg48
g49
sbag1
(g2
g3
Ntp215
Rp216
(dp217
g7
VVSKiawe.png
p218
sg9
VCaptain
p219
sg11
VKiawe
p220
sg13
V6,120
p221
sg15
I3
sg17
g18
sg19
g20
sg21
g22
sg23
(lp222
g1
(g25
g3
Ntp223
Rp224
(dp225
g29
I59
sg31
VArcanine
p226
sg33
g63
sg35
V51
p227
sg37
(lp228
VCrunch
p229
aVFlare Blitz
p230
aVExtreme Speed
p231
asg43
g44
sg45
VIntimidate
p232
sbag1
(g25
g3
Ntp233
Rp234
(dp235
g29
I663
sg31
VTalonflame
p236
sg33
g63
sg35
V51
p237
sg37
(lp238
VQuick Attack
p239
aVFlame Charge
p240
aVBrave Bird
p241
asg43
g44
sg45
VFlame Body
p242
sbag1
(g25
g3
Ntp243
Rp244
(dp245
g29
I105
sg31
VMarowak
p246
sg33
g63
sg35
V51
p247
sg37
(lp248
VFlame Wheel
p249
aVShadow Bone
p250
aVBonemerang
p251
asg43
VFirium Z
p252
sg45
VCursed Body
p253
sbasg47
I01
sg48
g49
sba.