(lp0
ccopy_reg
_reconstructor
p1
(c__main__
Trainer
p2
c__builtin__
object
p3
Ntp4
Rp5
(dp6
VtSprite
p7
VSpr BW Plasma Grunt M.png
p8
sVtClass
p9
VTeam Plasma Grunt
p10
sVtName
p11
V
p12
sVtMoney
p13
V480
p14
sVtPokeCount
p15
V1
p16
sVtLocation
p17
Vwiki/Wellspring_Cave
p18
sVtRegion
p19
VUnova
p20
sVtGame
p21
VBW
p22
sVtPokes
p23
(lp24
g1
(c__main__
FinishedPokemon
p25
g3
Ntp26
Rp27
(dp28
VpDexNo
p29
V504
p30
sVpSpecies
p31
VPatrat
p32
sVpGender
p33
VM
p34
sVpLevel
p35
V12
p36
sVpMoves
p37
(lp38
Vbaton-pass
p39
aVcrunch
p40
aVafter-you
p41
aVwork-up
p42
asVpHold
p43
g12
sVpAbility
p44
Vkeen-eye
p45
sbasVbossFlag
p46
I00
sVtLongGame
p47
Vblack-white
p48
sbag1
(g2
g3
Ntp49
Rp50
(dp51
g7
VSpr BW Plasma Grunt M.png
p52
sg9
VTeam Plasma Grunt
p53
sg11
g12
sg13
V480<br><small>[[Double Battle]] with the following Grunt</small>
p54
sg15
g16
sg17
g18
sg19
g20
sg21
g22
sg23
(lp55
g1
(g25
g3
Ntp56
Rp57
(dp58
g29
V504
p59
sg31
VPatrat
p60
sg33
g34
sg35
V12
p61
sg37
(lp62
Vbaton-pass
p63
aVcrunch
p64
aVafter-you
p65
aVwork-up
p66
asg43
g12
sg44
Vrun-away
p67
sbasg46
I00
sg47
g48
sbag1
(g2
g3
Ntp68
Rp69
(dp70
g7
VSpr BW Plasma Grunt M.png
p71
sg9
VTeam Plasma Grunt
p72
sg11
g12
sg13
V480<br><small>[[Double Battle]] with the previous Grunt</small>
p73
sg15
g16
sg17
g18
sg19
g20
sg21
g22
sg23
(lp74
g1
(g25
g3
Ntp75
Rp76
(dp77
g29
V504
p78
sg31
VPatrat
p79
sg33
g34
sg35
V12
p80
sg37
(lp81
Vbaton-pass
p82
aVcrunch
p83
aVafter-you
p84
aVwork-up
p85
asg43
g12
sg44
Vrun-away
p86
sbasg46
I00
sg47
g48
sbag1
(g2
g3
Ntp87
Rp88
(dp89
g7
VSpr BW Black Belt.png
p90
sg9
VBlack Belt
p91
sg11
VEdward
p92
sg13
V1088
p93
sg15
V3
p94
sg17
g18
sg19
g20
sg21
g22
sg23
(lp95
g1
(g25
g3
Ntp96
Rp97
(dp98
g29
V559
p99
sg31
VScraggy
p100
sg33
g34
sg35
V34
p101
sg37
(lp102
Vpayback
p103
aVrock-climb
p104
aVhead-smash
p105
aVchip-away
p106
asg43
g12
sg44
Vmoxie
p107
sbag1
(g25
g3
Ntp108
Rp109
(dp110
g29
V538
p111
sg31
VThroh
p112
sg33
g34
sg35
V34
p113
sg37
(lp114
Vbulk-up
p115
aVwide-guard
p116
aVstorm-throw
p117
aVcircle-throw
p118
asg43
g12
sg44
Vguts
p119
sbag1
(g25
g3
Ntp120
Rp121
(dp122
g29
V539
p123
sg31
VSawk
p124
sg33
g34
sg35
V34
p125
sg37
(lp126
Vclose-combat
p127
aVlow-sweep
p128
aVquick-guard
p129
aVretaliate
p130
asg43
g12
sg44
Vsturdy
p131
sbasg46
I00
sg47
g48
sbag1
(g2
g3
Ntp132
Rp133
(dp134
g7
VSpr BW Battle Girl.png
p135
sg9
VBattle Girl
p136
sg11
VMaggie
p137
sg13
V1120
p138
sg15
V2
p139
sg17
g18
sg19
g20
sg21
g22
sg23
(lp140
g1
(g25
g3
Ntp141
Rp142
(dp143
g29
V533
p144
sg31
VGurdurr
p145
sg33
g34
sg35
V35
p146
sg37
(lp147
Vwake-up-slap
p148
aVhammer-arm
p149
aVstone-edge
p150
aVchip-away
p151
asg43
g12
sg44
Vsheer-force
p152
sbag1
(g25
g3
Ntp153
Rp154
(dp155
g29
V539
p156
sg31
VSawk
p157
sg33
g34
sg35
V35
p158
sg37
(lp159
Vclose-combat
p160
aVlow-sweep
p161
aVquick-guard
p162
aVretaliate
p163
asg43
g12
sg44
Vsturdy
p164
sbasg46
I00
sg47
g48
sbag1
(g2
g3
Ntp165
Rp166
(dp167
g7
VSpr BW Battle Girl.png
p168
sg9
VBattle Girl
p169
sg11
VXiao
p170
sg13
V1120
p171
sg15
g139
sg17
g18
sg19
g20
sg21
g22
sg23
(lp172
g1
(g25
g3
Ntp173
Rp174
(dp175
g29
V533
p176
sg31
VGurdurr
p177
sg33
g34
sg35
V35
p178
sg37
(lp179
Vwake-up-slap
p180
aVhammer-arm
p181
aVstone-edge
p182
aVchip-away
p183
asg43
g12
sg44
Vguts
p184
sbag1
(g25
g3
Ntp185
Rp186
(dp187
g29
V538
p188
sg31
VThroh
p189
sg33
g34
sg35
V35
p190
sg37
(lp191
Vbulk-up
p192
aVwide-guard
p193
aVstorm-throw
p194
aVcircle-throw
p195
asg43
g12
sg44
Vinner-focus
p196
sbasg46
I00
sg47
g48
sbag1
(g2
g3
Ntp197
Rp198
(dp199
g7
VSpr B2W2 Hiker.png
p200
sg9
VHiker
p201
sg11
VZaiem
p202
sg13
g1
(cmwparserfromhell.wikicode
Wikicode
p203
g3
Ntp204
Rp205
(dp206
V_nodes
p207
g1
(cmwparserfromhell.smart_list.smart_list
SmartList
p208
c__builtin__
list
p209
(lp210
g1
(cmwparserfromhell.nodes.text
Text
p211
g3
Ntp212
Rp213
(dp214
V_value
p215
V1952
p216
sbatp217
Rp218
(dp219
V_children
p220
(dp221
sbsbsg15
g94
sg17
g18
sg19
g20
sg21
VB2W2
p222
sg23
(lp223
g1
(g25
g3
Ntp224
Rp225
(dp226
g29
V450
p227
sg31
VHippowdon
p228
sg33
g34
sg35
V61
p229
sg37
(lp230
Vsand-tomb
p231
aVthunder-fang
p232
aVice-fang
p233
aVfire-fang
p234
asg43
g12
sg44
Vsand-stream
p235
sbag1
(g25
g3
Ntp236
Rp237
(dp238
g29
V105
p239
sg31
VMarowak
p240
sg33
g34
sg35
V61
p241
sg37
(lp242
Vfalse-swipe
p243
aVendeavor
p244
aVfling
p245
aVretaliate
p246
asg43
g12
sg44
Vlightning-rod
p247
sbag1
(g25
g3
Ntp248
Rp249
(dp250
g29
V112
p251
sg31
VRhydon
p252
sg33
g34
sg35
V61
p253
sg37
(lp254
Vstone-edge
p255
aVchip-away
p256
aVbulldoze
p257
aVdrill-run
p258
asg43
g12
sg44
Vrock-head
p259
sbasg46
I00
sg47
Vblack-2-white-2
p260
sbag1
(g2
g3
Ntp261
Rp262
(dp263
g7
VSpr B2W2 Battle Girl.png
p264
sg9
VBattle Girl
p265
sg11
VMaggie
p266
sg13
g1
(g203
g3
Ntp267
Rp268
(dp269
g207
g1
(g208
g209
(lp270
g1
(g211
g3
Ntp271
Rp272
(dp273
g215
V1984
p274
sbatp275
Rp276
(dp277
g220
(dp278
sbsbsg15
g94
sg17
g18
sg19
g20
sg21
g222
sg23
(lp279
g1
(g25
g3
Ntp280
Rp281
(dp282
g29
V308
p283
sg31
VMedicham
p284
sg33
g34
sg35
V62
p285
sg37
(lp286
Vfeint
p287
aVacupressure
p288
aVpower-trick
p289
aVforce-palm
p290
asg43
g12
sg44
Vpure-power
p291
sbag1
(g25
g3
Ntp292
Rp293
(dp294
g29
V620
p295
sg31
VMienshao
p296
sg33
VF
p297
sg35
V62
p298
sg37
(lp299
Vforce-palm
p300
aVaura-sphere
p301
aVdrain-punch
p302
aVwide-guard
p303
asg43
g12
sg44
Vregenerator
p304
sbag1
(g25
g3
Ntp305
Rp306
(dp307
g29
V106
p308
sg31
VHitmonlee
p309
sg33
g34
sg35
V62
p310
sg37
(lp311
Vblaze-kick
p312
aVfeint
p313
aVclose-combat
p314
aVwide-guard
p315
asg43
g12
sg44
Vreckless
p316
sbasg46
I00
sg47
g260
sbag1
(g2
g3
Ntp317
Rp318
(dp319
g7
VSpr B2W2 Black Belt.png
p320
sg9
VBlack Belt
p321
sg11
VThomas
p322
sg13
g1
(g203
g3
Ntp323
Rp324
(dp325
g207
g1
(g208
g209
(lp326
g1
(g211
g3
Ntp327
Rp328
(dp329
g215
V1984
p330
sbatp331
Rp332
(dp333
g220
(dp334
sbsbsg15
g94
sg17
g18
sg19
g20
sg21
g222
sg23
(lp335
g1
(g25
g3
Ntp336
Rp337
(dp338
g29
V539
p339
sg31
VSawk
p340
sg33
g34
sg35
V62
p341
sg37
(lp342
Vclose-combat
p343
aVlow-sweep
p344
aVquick-guard
p345
aVretaliate
p346
asg43
g12
sg44
Vsturdy
p347
sbag1
(g25
g3
Ntp348
Rp349
(dp350
g29
V534
p351
sg31
VConkeldurr
p352
sg33
g34
sg35
V62
p353
sg37
(lp354
Vwake-up-slap
p355
aVhammer-arm
p356
aVstone-edge
p357
aVchip-away
p358
asg43
g12
sg44
Vsheer-force
p359
sbag1
(g25
g3
Ntp360
Rp361
(dp362
g29
V286
p363
sg31
VBreloom
p364
sg33
g34
sg35
V62
p365
sg37
(lp366
Vdynamic-punch
p367
aVsky-uppercut
p368
aVforce-palm
p369
aVseed-bomb
p370
asg43
g12
sg44
Veffect-spore
p371
sbasg46
I00
sg47
g260
sbag1
(g2
g3
Ntp372
Rp373
(dp374
g7
VSpr B2W2 Battle Girl.png
p375
sg9
VBattle Girl
p376
sg11
VXiao
p377
sg13
g1
(g203
g3
Ntp378
Rp379
(dp380
g207
g1
(g208
g209
(lp381
g1
(g211
g3
Ntp382
Rp383
(dp384
g215
V1984
p385
sbatp386
Rp387
(dp388
g220
(dp389
sbsbsg15
g94
sg17
g18
sg19
g20
sg21
g222
sg23
(lp390
g1
(g25
g3
Ntp391
Rp392
(dp393
g29
V057
p394
sg31
VPrimeape
p395
sg33
g297
sg35
V62
p396
sg37
(lp397
Vassurance
p398
aVfling
p399
aVpunishment
p400
aVfinal-gambit
p401
asg43
g12
sg44
Vanger-point
p402
sbag1
(g25
g3
Ntp403
Rp404
(dp405
g29
V560
p406
sg31
VScrafty
p407
sg33
g297
sg35
V62
p408
sg37
(lp409
Vpayback
p410
aVrock-climb
p411
aVhead-smash
p412
aVchip-away
p413
asg43
g12
sg44
Vshed-skin
p414
sbag1
(g25
g3
Ntp415
Rp416
(dp417
g29
V107
p418
sg31
VHitmonchan
p419
sg33
g34
sg35
V62
p420
sg37
(lp421
Vclose-combat
p422
aVvacuum-wave
p423
aVbullet-punch
p424
aVquick-guard
p425
asg43
g12
sg44
Viron-fist
p426
sbasg46
I00
sg47
g260
sbag1
(g2
g3
Ntp427
Rp428
(dp429
g7
VSpr B2W2 Black Belt.png
p430
sg9
VBlack Belt
p431
sg11
VEdward
p432
sg13
g1
(g203
g3
Ntp433
Rp434
(dp435
g207
g1
(g208
g209
(lp436
g1
(g211
g3
Ntp437
Rp438
(dp439
g215
V1984
p440
sbatp441
Rp442
(dp443
g220
(dp444
sbsbsg15
g94
sg17
g18
sg19
g20
sg21
g222
sg23
(lp445
g1
(g25
g3
Ntp446
Rp447
(dp448
g29
V538
p449
sg31
VThroh
p450
sg33
g34
sg35
V62
p451
sg37
(lp452
Vbulk-up
p453
aVwide-guard
p454
aVstorm-throw
p455
aVcircle-throw
p456
asg43
g12
sg44
Vinner-focus
p457
sbag1
(g25
g3
Ntp458
Rp459
(dp460
g29
V068
p461
sg31
VMachamp
p462
sg33
g34
sg35
V62
p463
sg37
(lp464
Vrevenge
p465
aVwake-up-slap
p466
aVwide-guard
p467
aVlow-sweep
p468
asg43
g12
sg44
Vno-guard
p469
sbag1
(g25
g3
Ntp470
Rp471
(dp472
g29
V237
p473
sg31
VHitmontop
p474
sg33
g34
sg35
V62
p475
sg37
(lp476
Vfeint
p477
aVclose-combat
p478
aVwide-guard
p479
aVquick-guard
p480
asg43
g12
sg44
Vintimidate
p481
sbasg46
I00
sg47
g260
sbag1
(g2
g3
Ntp482
Rp483
(dp484
g7
VSpr B2W2 Veteran M.png
p485
sg9
VVeteran
p486
sg11
VShaun
p487
sg13
g1
(g203
g3
Ntp488
Rp489
(dp490
g207
g1
(g208
g209
(lp491
g1
(g211
g3
Ntp492
Rp493
(dp494
g215
V4960
p495
sbatp496
Rp497
(dp498
g220
(dp499
sbsbsg15
V6
p500
sg17
g18
sg19
g20
sg21
g222
sg23
(lp501
g1
(g25
g3
Ntp502
Rp503
(dp504
g29
V130
p505
sg31
VGyarados
p506
sg33
g34
sg35
V62
p507
sg37
(lp508
Vrain-dance
p509
aVdragon-dance
p510
aVaqua-tail
p511
aVice-fang
p512
asg43
g12
sg44
Vintimidate
p513
sbag1
(g25
g3
Ntp514
Rp515
(dp516
g29
V143
p517
sg31
VSnorlax
p518
sg33
g34
sg35
V62
p519
sg37
(lp520
Vblock
p521
aVgiga-impact
p522
aVheavy-slam
p523
aVchip-away
p524
asg43
g12
sg44
Vthick-fat
p525
sbag1
(g25
g3
Ntp526
Rp527
(dp528
g29
V169
p529
sg31
VCrobat
p530
sg33
g34
sg35
V62
p531
sg37
(lp532
Vair-cutter
p533
aVair-slash
p534
aVcross-poison
p535
aVacrobatics
p536
asg43
g12
sg44
Vinner-focus
p537
sbag1
(g25
g3
Ntp538
Rp539
(dp540
g29
V621
p541
sg31
VDruddigon
p542
sg33
g34
sg35
V62
p543
sg37
(lp544
Vrock-climb
p545
aVhone-claws
p546
aVchip-away
p547
aVdragon-tail
p548
asg43
g12
sg44
Vrough-skin
p549
sbag1
(g25
g3
Ntp550
Rp551
(dp552
g29
V530
p553
sg31
VExcadrill
p554
sg33
g34
sg35
V62
p555
sg37
(lp556
Vmetal-claw
p557
aVmud-sport
p558
aVhone-claws
p559
aVdrill-run
p560
asg43
g12
sg44
Vsand-rush
p561
sbag1
(g25
g3
Ntp562
Rp563
(dp564
g29
V526
p565
sg31
VGigalith
p566
sg33
g34
sg35
V62
p567
sg37
(lp568
Vpower-gem
p569
aVstone-edge
p570
aVstealth-rock
p571
aVsmack-down
p572
asg43
g12
sg44
Vsturdy
p573
sbasg46
I00
sg47
g260
sbag1
(g2
g3
Ntp574
Rp575
(dp576
g7
VBW Cheren Back.png
p577
sg9
VPokemon Trainer
p578
sg11
VCheren
p579
sg13
Vn/a
p580
sg15
I2
sg17
g18
sg19
g20
sg21
VSM
p581
sg23
(lp582
g1
(g25
g3
Ntp583
Rp584
(dp585
g29
I498
sg31
VTepig
p586
sg33
g34
sg35
V14
p587
sg37
(lp588
VEmber
p589
aVDefense Curl
p590
aVOdor Sleuth
p591
asg43
VOran Berry
p592
sg44
VBlaze
p593
sbag1
(g25
g3
Ntp594
Rp595
(dp596
g29
I509
sg31
VPurrloin
p597
sg33
g34
sg35
V12
p598
sg37
(lp599
VScratch
p600
aVGrowl
p601
aVAssist
p602
aVSand-Attack
p603
asg43
g12
sg44
VUnburden
p604
sbasg46
I01
sg47
Vsun-moon
p605
sbag1
(g2
g3
Ntp606
Rp607
(dp608
g7
VBW Cheren Back.png
p609
sg9
VPokemon Trainer
p610
sg11
VCheren
p611
sg13
Vn/a
p612
sg15
I2
sg17
g18
sg19
g20
sg21
g581
sg23
(lp613
g1
(g25
g3
Ntp614
Rp615
(dp616
g29
I501
sg31
VOshawott
p617
sg33
g34
sg35
V14
p618
sg37
(lp619
VWater Gun
p620
aVTail Whip
p621
aVWater Sport
p622
asg43
VOran Berry
p623
sg44
VTorrent
p624
sbag1
(g25
g3
Ntp625
Rp626
(dp627
g29
I509
sg31
VPurrloin
p628
sg33
g34
sg35
V12
p629
sg37
(lp630
VScratch
p631
aVGrowl
p632
aVAssist
p633
aVSand-Attack
p634
asg43
g12
sg44
VUnburden
p635
sbasg46
I01
sg47
g605
sbag1
(g2
g3
Ntp636
Rp637
(dp638
g7
VBW Cheren Back.png
p639
sg9
VPokemon Trainer
p640
sg11
VCheren
p641
sg13
Vn/a
p642
sg15
I2
sg17
g18
sg19
g20
sg21
g581
sg23
(lp643
g1
(g25
g3
Ntp644
Rp645
(dp646
g29
I495
sg31
VSnivy
p647
sg33
g34
sg35
V14
p648
sg37
(lp649
VTackle
p650
aVLeer
p651
aVVine Whip
p652
aVGrowth
p653
asg43
VOran Berry
p654
sg44
VOvergrow
p655
sbag1
(g25
g3
Ntp656
Rp657
(dp658
g29
I509
sg31
VPurrloin
p659
sg33
g34
sg35
V12
p660
sg37
(lp661
VScratch
p662
aVGrowl
p663
aVAssist
p664
aVSand-Attack
p665
asg43
g12
sg44
VUnburden
p666
sbasg46
I01
sg47
g605
sba.