(lp0
ccopy_reg
_reconstructor
p1
(c__main__
Trainer
p2
c__builtin__
object
p3
Ntp4
Rp5
(dp6
VtSprite
p7
VSpr BW School Kid M.png
p8
sVtClass
p9
VSchool Kid
p10
sVtName
p11
VShaye
p12
sVtMoney
p13
V1300<br><small>[[Triple Battle]]</small>
p14
sVtPokeCount
p15
V3
p16
sVtLocation
p17
Vwiki/White_Forest
p18
sVtRegion
p19
VUnova
p20
sVtGame
p21
VBW
p22
sVtPokes
p23
(lp24
g1
(c__main__
FinishedPokemon
p25
g3
Ntp26
Rp27
(dp28
VpDexNo
p29
V560
p30
sVpSpecies
p31
VScrafty
p32
sVpGender
p33
VM
p34
sVpLevel
p35
V65
p36
sVpMoves
p37
(lp38
Vpayback
p39
aVrock-climb
p40
aVhead-smash
p41
aVchip-away
p42
asVpHold
p43
V
p44
sVpAbility
p45
Vmoxie
p46
sbag1
(g25
g3
Ntp47
Rp48
(dp49
g29
V563
p50
sg31
VCofagrigus
p51
sg33
g34
sg35
V65
p52
sg37
(lp53
Vominous-wind
p54
aVguard-split
p55
aVpower-split
p56
aVhex
p57
asg43
g44
sg45
Vmummy
p58
sbag1
(g25
g3
Ntp59
Rp60
(dp61
g29
V579
p62
sg31
VReuniclus
p63
sg33
g34
sg35
V65
p64
sg37
(lp65
Vsnatch
p66
aVheal-block
p67
aVwonder-room
p68
aVpsyshock
p69
asg43
g44
sg45
Vmagic-guard
p70
sbasVbossFlag
p71
I00
sVtLongGame
p72
Vblack-white
p73
sbag1
(g2
g3
Ntp74
Rp75
(dp76
g7
VSpr BW Nursery Aide.png
p77
sg9
VNursery Aide
p78
sg11
VBriana
p79
sg13
V2600<br><small>[[Triple Battle]]</small>
p80
sg15
g16
sg17
g18
sg19
g20
sg21
g22
sg23
(lp81
g1
(g25
g3
Ntp82
Rp83
(dp84
g29
V609
p85
sg31
VChandelure
p86
sg33
VF
p87
sg35
V65
p88
sg37
(lp89
Vconfuse-ray
p90
aVsmog
p91
aVflame-burst
p92
aVhex
p93
asg43
g44
sg45
Vflash-fire
p94
sbag1
(g25
g3
Ntp95
Rp96
(dp97
g29
V573
p98
sg31
VCinccino
p99
sg33
g87
sg35
V65
p100
sg37
(lp101
Vtickle
p102
aVbullet-seed
p103
aVrock-blast
p104
aVtail-slap
p105
asg43
g44
sg45
Vcute-charm
p106
sbag1
(g25
g3
Ntp107
Rp108
(dp109
g29
V584
p110
sg31
VVanilluxe
p111
sg33
g87
sg35
V65
p112
sg37
(lp113
Vsheer-cold
p114
aVicicle-spear
p115
aVavalanche
p116
aVmirror-shot
p117
asg43
g44
sg45
Vsnow-warning
p118
sbasg71
I00
sg72
g73
sba.