(lp0
ccopy_reg
_reconstructor
p1
(c__main__
Trainer
p2
c__builtin__
object
p3
Ntp4
Rp5
(dp6
VtSprite
p7
VVSLeague Staff M.png
p8
sVtClass
p9
VLeague Staff
p10
sVtName
p11
VIsaac
p12
sVtMoney
p13
V3,400
p14
sVtPokeCount
p15
V3
p16
sVtLocation
p17
Vwiki/Wyndon
p18
sVtRegion
p19
VGalar
p20
sVtGame
p21
VSM
p22
sVtPokes
p23
(lp24
g1
(c__main__
FinishedPokemon
p25
g3
Ntp26
Rp27
(dp28
VpDexNo
p29
V479L
p30
sVpSpecies
p31
VRotom
p32
sVpGender
p33
VU
p34
sVpLevel
p35
V34
p36
sVpMoves
p37
(lp38
Vdischarge
p39
aVominous-wind
p40
aVelectro-ball
p41
aVhex
p42
asVpHold
p43
V
p44
sVpAbility
p45
Vlevitate
p46
sbag1
(g25
g3
Ntp47
Rp48
(dp49
g29
V479W
p50
sg31
VRotom
p51
sg33
g34
sg35
V34
p52
sg37
(lp53
Vdischarge
p54
aVominous-wind
p55
aVelectro-ball
p56
aVhex
p57
asg43
g44
sg45
Vlevitate
p58
sbag1
(g25
g3
Ntp59
Rp60
(dp61
g29
V479O
p62
sg31
VRotom
p63
sg33
g34
sg35
V34
p64
sg37
(lp65
Vdischarge
p66
aVominous-wind
p67
aVelectro-ball
p68
aVhex
p69
asg43
g44
sg45
Vlevitate
p70
sbasVbossFlag
p71
I00
sVtLongGame
p72
Vsun-moon
p73
sbag1
(g2
g3
Ntp74
Rp75
(dp76
g7
VVSMacro Cosmos's M.png{{!}}x85px
p77
sg9
VMacro Cosmos's
p78
sg11
VEric
p79
sg13
V4,700
p80
sg15
V2
p81
sg17
g18
sg19
g20
sg21
g22
sg23
(lp82
g1
(g25
g3
Ntp83
Rp84
(dp85
g29
V052G
p86
sg31
VMeowth
p87
sg33
VM
p88
sg35
V47
p89
sg37
(lp90
Vassurance
p91
aVnight-slash
p92
aVnasty-plot
p93
aVcaptivate
p94
asg43
g44
sg45
Vpickup
p95
sbag1
(g25
g3
Ntp96
Rp97
(dp98
g29
V632
p99
sg31
VDurant
p100
sg33
g88
sg35
V47
p101
sg37
(lp102
Vx-scissor
p103
aViron-head
p104
aVbug-bite
p105
aVentrainment
p106
asg43
g44
sg45
Vswarm
p107
sbasg71
I00
sg72
g73
sbag1
(g2
g3
Ntp108
Rp109
(dp110
g7
VVSMacro Cosmos's M.png{{!}}x85px
p111
sg9
VMacro Cosmos's
p112
sg11
VEric
p113
sg13
V4,700
p114
sg15
g81
sg17
g18
sg19
g20
sg21
g22
sg23
(lp115
g1
(g25
g3
Ntp116
Rp117
(dp118
g29
V303
p119
sg31
VMawile
p120
sg33
VF
p121
sg35
V47
p122
sg37
(lp123
Viron-head
p124
aVplay-rough
p125
ag125
aVfairy-wind
p126
asg43
g44
sg45
Vhyper-cutter
p127
sbag1
(g25
g3
Ntp128
Rp129
(dp130
g29
V530
p131
sg31
VExcadrill
p132
sg33
g121
sg35
V47
p133
sg37
(lp134
Vmud-sport
p135
aVhone-claws
p136
aVdrill-run
p137
aVrototiller
p138
asg43
g44
sg45
Vsand-rush
p139
sbasg71
I00
sg72
g73
sbag1
(g2
g3
Ntp140
Rp141
(dp142
g7
VVSMacro Cosmos's M.png{{!}}x85px
p143
sg9
VMacro Cosmos's
p144
sg11
VEric
p145
sg13
V4,700
p146
sg15
g81
sg17
g18
sg19
g20
sg21
g22
sg23
(lp147
g1
(g25
g3
Ntp148
Rp149
(dp150
g29
V597
p151
sg31
VFerroseed
p152
sg33
g88
sg35
V47
p153
sg37
(lp154
Vpayback
p155
aVmirror-shot
p156
aVflash-cannon
p157
aViron-head
p158
asg43
g44
sg45
Viron-barbs
p159
sbag1
(g25
g3
Ntp160
Rp161
(dp162
g29
V208
p163
sg31
VSteelix
p164
sg33
g88
sg35
V47
p165
sg37
(lp166
Vstone-edge
p167
aVstealth-rock
p168
aVautotomize
p169
aVsmack-down
p170
asg43
g44
sg45
Vsturdy
p171
sbasg71
I00
sg72
g73
sba.