(lp0
ccopy_reg
_reconstructor
p1
(c__main__
WildPokemon
p2
c__builtin__
object
p3
Ntp4
Rp5
(dp6
VpDexNo
p7
V072
p8
sVpSpecies
p9
VTentacool
p10
sVpGames
p11
VRu,S,E,
p12
sVpArea
p13
VSurf
p14
sVpMinLevel
p15
V5
p16
sVpMaxLevel
p17
V35
p18
sVpRate
p19
V99
p20
sbag1
(g2
g3
Ntp21
Rp22
(dp23
g7
V073
p24
sg9
VTentacruel
p25
sg11
VRu,S,E,
p26
sg13
VSurf
p27
sg15
V30
p28
sg17
V35
p29
sg19
V1
p30
sbag1
(g2
g3
Ntp31
Rp32
(dp33
g7
V072
p34
sg9
VTentacool
p35
sg11
VRu,S,E,
p36
sg13
VFish Old
p37
sg15
g16
sg17
V10
p38
sg19
V30
p39
sbag1
(g2
g3
Ntp40
Rp41
(dp42
g7
V129
p43
sg9
VMagikarp
p44
sg11
VRu,S,E,
p45
sg13
VFish Old
p46
sg15
g16
sg17
V10
p47
sg19
V70
p48
sbag1
(g2
g3
Ntp49
Rp50
(dp51
g7
V072
p52
sg9
VTentacool
p53
sg11
VRu,S,E,
p54
sg13
VFish Good
p55
sg15
V10
p56
sg17
V30
p57
sg19
V40
p58
sbag1
(g2
g3
Ntp59
Rp60
(dp61
g7
V129
p62
sg9
VMagikarp
p63
sg11
VRu,S,E,
p64
sg13
VFish Good
p65
sg15
V10
p66
sg17
V30
p67
sg19
V60
p68
sbag1
(g2
g3
Ntp69
Rp70
(dp71
g7
V072
p72
sg9
VTentacool
p73
sg11
VRu,S,E,
p74
sg13
VFish Super
p75
sg15
V25
p76
sg17
V35
p77
sg19
V80
p78
sbag1
(g2
g3
Ntp79
Rp80
(dp81
g7
V073
p82
sg9
VTentacruel
p83
sg11
VRu,S,E,
p84
sg13
VFish Super
p85
sg15
V20
p86
sg17
V35
p87
sg19
V20
p88
sba.