(lp0
ccopy_reg
_reconstructor
p1
(c__main__
WildPokemon
p2
c__builtin__
object
p3
Ntp4
Rp5
(dp6
VpDexNo
p7
V037
p8
sVpSpecies
p9
VVulpix
p10
sVpGames
p11
VB,W,
p12
sVpArea
p13
VGrass
p14
sVpMinLevel
p15
V47
p16
sVpMaxLevel
p17
g16
sVpRate
p18
V20
p19
sbag1
(g2
g3
Ntp20
Rp21
(dp22
g7
V164
p23
sg9
VNoctowl
p24
sg11
VB,W,
p25
sg13
VGrass
p26
sg15
V48
p27
sg17
V50
p28
sg18
V15
p29
sbag1
(g2
g3
Ntp30
Rp31
(dp32
g7
V198
p33
sg9
VMurkrow
p34
sg11
VB,
p35
sg13
VGrass
p36
sg15
V48
p37
sg17
g37
sg18
V5
p38
sbag1
(g2
g3
Ntp39
Rp40
(dp41
g7
V200
p42
sg9
VMisdreavus
p43
sg11
VW,
p44
sg13
VGrass
p45
sg15
V48
p46
sg17
g46
sg18
V5
p47
sbag1
(g2
g3
Ntp48
Rp49
(dp50
g7
V234
p51
sg9
VStantler
p52
sg11
VB,W,
p53
sg13
VGrass
p54
sg15
V48
p55
sg17
g55
sg18
V10
p56
sbag1
(g2
g3
Ntp57
Rp58
(dp59
g7
V358
p60
sg9
VChimecho
p61
sg11
VB,W,
p62
sg13
VGrass
p63
sg15
V47
p64
sg17
V49
p65
sg18
V30
p66
sbag1
(g2
g3
Ntp67
Rp68
(dp69
g7
V437
p70
sg9
VBronzong
p71
sg11
VB,W,
p72
sg13
VGrass
p73
sg15
V48
p74
sg17
V50
p75
sg18
V10
p76
sbag1
(g2
g3
Ntp77
Rp78
(dp79
g7
V546
p80
sg9
VCottonee
p81
sg11
g35
sg13
VGrass
p82
sg15
V48
p83
sg17
g83
sg18
V10
p84
sbag1
(g2
g3
Ntp85
Rp86
(dp87
g7
V548
p88
sg9
VPetilil
p89
sg11
g44
sg13
VGrass
p90
sg15
V48
p91
sg17
g91
sg18
V10
p92
sbag1
(g2
g3
Ntp93
Rp94
(dp95
g7
V037
p96
sg9
VVulpix
p97
sg11
VB,W,
p98
sg13
VDark
p99
sg15
V57
p100
sg17
g100
sg18
V20
p101
sbag1
(g2
g3
Ntp102
Rp103
(dp104
g7
V164
p105
sg9
VNoctowl
p106
sg11
VB,W,
p107
sg13
VDark
p108
sg15
V58
p109
sg17
V60
p110
sg18
V15
p111
sbag1
(g2
g3
Ntp112
Rp113
(dp114
g7
V198
p115
sg9
VMurkrow
p116
sg11
g35
sg13
VDark
p117
sg15
V58
p118
sg17
g118
sg18
V5
p119
sbag1
(g2
g3
Ntp120
Rp121
(dp122
g7
V200
p123
sg9
VMisdreavus
p124
sg11
g44
sg13
VDark
p125
sg15
V58
p126
sg17
g126
sg18
V5
p127
sbag1
(g2
g3
Ntp128
Rp129
(dp130
g7
V234
p131
sg9
VStantler
p132
sg11
VB,W,
p133
sg13
VDark
p134
sg15
V58
p135
sg17
g135
sg18
V10
p136
sbag1
(g2
g3
Ntp137
Rp138
(dp139
g7
V358
p140
sg9
VChimecho
p141
sg11
VB,W,
p142
sg13
VDark
p143
sg15
V57
p144
sg17
V59
p145
sg18
V30
p146
sbag1
(g2
g3
Ntp147
Rp148
(dp149
g7
V437
p150
sg9
VBronzong
p151
sg11
VB,W,
p152
sg13
VDark
p153
sg15
V58
p154
sg17
V60
p155
sg18
V10
p156
sbag1
(g2
g3
Ntp157
Rp158
(dp159
g7
V546
p160
sg9
VCottonee
p161
sg11
g35
sg13
VDark
p162
sg15
V58
p163
sg17
g163
sg18
V10
p164
sbag1
(g2
g3
Ntp165
Rp166
(dp167
g7
V548
p168
sg9
VPetilil
p169
sg11
g44
sg13
VDark
p170
sg15
V58
p171
sg17
g171
sg18
V10
p172
sbag1
(g2
g3
Ntp173
Rp174
(dp175
g7
V038
p176
sg9
VNinetales
p177
sg11
VB,W,
p178
sg13
VRustling
p179
sg15
V47
p180
sg17
V50
p181
sg18
V5
p182
sbag1
(g2
g3
Ntp183
Rp184
(dp185
g7
V429
p186
sg9
VMismagius
p187
sg11
g44
sg13
VRustling
p188
sg15
V50
p189
sg17
g189
sg18
V5
p190
sbag1
(g2
g3
Ntp191
Rp192
(dp193
g7
V430
p194
sg9
VHonchkrow
p195
sg11
g35
sg13
VRustling
p196
sg15
V50
p197
sg17
g197
sg18
V5
p198
sbag1
(g2
g3
Ntp199
Rp200
(dp201
g7
V531
p202
sg9
VAudino
p203
sg11
VB,W,
p204
sg13
VRustling
p205
sg15
V47
p206
sg17
V50
p207
sg18
V75
p208
sbag1
(g2
g3
Ntp209
Rp210
(dp211
g7
V547
p212
sg9
VWhimsicott
p213
sg11
g35
sg13
VRustling
p214
sg15
V50
p215
sg17
g215
sg18
V5
p216
sbag1
(g2
g3
Ntp217
Rp218
(dp219
g7
V549
p220
sg9
VLilligant
p221
sg11
g44
sg13
VRustling
p222
sg15
V50
p223
sg17
g223
sg18
V5
p224
sbag1
(g2
g3
Ntp225
Rp226
(dp227
g7
V587
p228
sg9
VEmolga
p229
sg11
VB,W,
p230
sg13
VRustling
p231
sg15
V48
p232
sg17
g232
sg18
V10
p233
sbag1
(g2
g3
Ntp234
Rp235
(dp236
g7
V079
p237
sg9
VSlowpoke
p238
sg11
VB,W,
p239
sg13
VSurf
p240
sg15
V25
p241
sg17
V55
p242
sg18
V30
p243
sbag1
(g2
g3
Ntp244
Rp245
(dp246
g7
V550
p247
sg9
VBasculin
p248
sg11
g35
sg13
VSurf
p249
sg15
V25
p250
sg17
V55
p251
sg18
V70
p252
sbag1
(g2
g3
Ntp253
Rp254
(dp255
g7
V550
p256
sg9
VBasculin
p257
sg11
g44
sg13
VSurf
p258
sg15
V25
p259
sg17
V55
p260
sg18
V70
p261
sbag1
(g2
g3
Ntp262
Rp263
(dp264
g7
V079
p265
sg9
VSlowpoke
p266
sg11
VB,W,
p267
sg13
VRippling
p268
sg15
V25
p269
sg17
V60
p270
sg18
V60
p271
sbag1
(g2
g3
Ntp272
Rp273
(dp274
g7
V080
p275
sg9
VSlowbro
p276
sg11
VB,W,
p277
sg13
VRippling
p278
sg15
V35
p279
sg17
V70
p280
sg18
V5
p281
sbag1
(g2
g3
Ntp282
Rp283
(dp284
g7
V199
p285
sg9
VSlowking
p286
sg11
VB,W,
p287
sg13
VRippling
p288
sg15
V35
p289
sg17
V70
p290
sg18
V5
p291
sbag1
(g2
g3
Ntp292
Rp293
(dp294
g7
V550
p295
sg9
VBasculin
p296
sg11
g35
sg13
VRippling
p297
sg15
V25
p298
sg17
V60
p299
sg18
V30
p300
sbag1
(g2
g3
Ntp301
Rp302
(dp303
g7
V550
p304
sg9
VBasculin
p305
sg11
g44
sg13
VRippling
p306
sg15
V25
p307
sg17
V60
p308
sg18
V30
p309
sbag1
(g2
g3
Ntp310
Rp311
(dp312
g7
V118
p313
sg9
VGoldeen
p314
sg11
VB,W,
p315
sg13
VFish Super
p316
sg15
V35
p317
sg17
V55
p318
sg18
V70
p319
sbag1
(g2
g3
Ntp320
Rp321
(dp322
g7
V550
p323
sg9
VBasculin
p324
sg11
g35
sg13
VFish Super
p325
sg15
V35
p326
sg17
V55
p327
sg18
V30
p328
sbag1
(g2
g3
Ntp329
Rp330
(dp331
g7
V550
p332
sg9
VBasculin
p333
sg11
g44
sg13
VFish Super
p334
sg15
V35
p335
sg17
V55
p336
sg18
V30
p337
sbag1
(g2
g3
Ntp338
Rp339
(dp340
g7
V118
p341
sg9
VGoldeen
p342
sg11
VB,W,
p343
sg13
VRippling
p344
sg15
V35
p345
sg17
V60
p346
sg18
V60
p347
sbag1
(g2
g3
Ntp348
Rp349
(dp350
g7
V119
p351
sg9
VSeaking
p352
sg11
VB,W,
p353
sg13
VRippling
p354
sg15
V45
p355
sg17
V70
p356
sg18
V10
p357
sbag1
(g2
g3
Ntp358
Rp359
(dp360
g7
V550
p361
sg9
VBasculin
p362
sg11
g44
sg13
VRippling
p363
sg15
V35
p364
sg17
V60
p365
sg18
V30
p366
sbag1
(g2
g3
Ntp367
Rp368
(dp369
g7
V550
p370
sg9
VBasculin
p371
sg11
g35
sg13
VRippling
p372
sg15
V35
p373
sg17
V60
p374
sg18
V30
p375
sbag1
(g2
g3
Ntp376
Rp377
(dp378
g7
V645
p379
sg9
VLandorus
p380
sg11
VB,W,
p381
sg13
VSpecial
p382
sg15
V70
p383
sg17
g383
sg18
V0
p384
sbag1
(g2
g3
Ntp385
Rp386
(dp387
g7
V037
p388
sg9
VVulpix
p389
sg11
VB2,W2,
p390
sg13
VGrass
p391
sg15
V34
p392
sg17
g392
sg18
V10
p393
sbag1
(g2
g3
Ntp394
Rp395
(dp396
g7
V055
p397
sg9
VGolduck
p398
sg11
VB2,W2,
p399
sg13
VGrass
p400
sg15
V34
p401
sg17
g401
sg18
V10
p402
sbag1
(g2
g3
Ntp403
Rp404
(dp405
g7
V183
p406
sg9
VMarill
p407
sg11
VB2,W2,
p408
sg13
VGrass
p409
sg15
V34
p410
sg17
g410
sg18
V10
p411
sbag1
(g2
g3
Ntp412
Rp413
(dp414
g7
V333
p415
sg9
VSwablu
p416
sg11
VB2,W2,
p417
sg13
VGrass
p418
sg15
V33
p419
sg17
g419
sg18
V20
p420
sbag1
(g2
g3
Ntp421
Rp422
(dp423
g7
V334
p424
sg9
VAltaria
p425
sg11
VB2,W2,
p426
sg13
VGrass
p427
sg15
V36
p428
sg17
g428
sg18
V5
p429
sbag1
(g2
g3
Ntp430
Rp431
(dp432
g7
V436
p433
sg9
VBronzor
p434
sg11
VB2,W2,
p435
sg13
VGrass
p436
sg15
V32
p437
sg17
g437
sg18
V15
p438
sbag1
(g2
g3
Ntp439
Rp440
(dp441
g7
V546
p442
sg9
VCottonee
p443
sg11
VB2,
p444
sg13
VGrass
p445
sg15
V33
p446
sg17
V35
p447
sg18
V30
p448
sbag1
(g2
g3
Ntp449
Rp450
(dp451
g7
V548
p452
sg9
VPetilil
p453
sg11
VW2,
p454
sg13
VGrass
p455
sg15
V33
p456
sg17
V35
p457
sg18
V30
p458
sbag1
(g2
g3
Ntp459
Rp460
(dp461
g7
V037
p462
sg9
VVulpix
p463
sg11
VB2,W2,
p464
sg13
VDark
p465
sg15
V37
p466
sg17
g466
sg18
V20
p467
sbag1
(g2
g3
Ntp468
Rp469
(dp470
g7
V055
p471
sg9
VGolduck
p472
sg11
VB2,W2,
p473
sg13
VDark
p474
sg15
V38
p475
sg17
g475
sg18
V10
p476
sbag1
(g2
g3
Ntp477
Rp478
(dp479
g7
V183
p480
sg9
VMarill
p481
sg11
VB2,W2,
p482
sg13
VDark
p483
sg15
V38
p484
sg17
g484
sg18
V10
p485
sbag1
(g2
g3
Ntp486
Rp487
(dp488
g7
V334
p489
sg9
VAltaria
p490
sg11
VB2,W2,
p491
sg13
VDark
p492
sg15
V38
p493
sg17
V40
p494
sg18
V15
p495
sbag1
(g2
g3
Ntp496
Rp497
(dp498
g7
V437
p499
sg9
VBronzong
p500
sg11
VB2,W2,
p501
sg13
VDark
p502
sg15
V36
p503
sg17
g503
sg18
V10
p504
sbag1
(g2
g3
Ntp505
Rp506
(dp507
g7
V546
p508
sg9
VCottonee
p509
sg11
g444
sg13
VDark
p510
sg15
V37
p511
sg17
V39
p512
sg18
V35
p513
sbag1
(g2
g3
Ntp514
Rp515
(dp516
g7
V548
p517
sg9
VPetilil
p518
sg11
g454
sg13
VDark
p519
sg15
V37
p520
sg17
V39
p521
sg18
V35
p522
sbag1
(g2
g3
Ntp523
Rp524
(dp525
g7
V038
p526
sg9
VNinetales
p527
sg11
VB2,W2,
p528
sg13
VRustling
p529
sg15
V36
p530
sg17
g530
sg18
V5
p531
sbag1
(g2
g3
Ntp532
Rp533
(dp534
g7
V184
p535
sg9
VAzumarill
p536
sg11
VB2,W2,
p537
sg13
VRustling
p538
sg15
V36
p539
sg17
g539
sg18
V5
p540
sbag1
(g2
g3
Ntp541
Rp542
(dp543
g7
V531
p544
sg9
VAudino
p545
sg11
VB2,W2,
p546
sg13
VRustling
p547
sg15
V33
p548
sg17
V36
p549
sg18
V75
p550
sbag1
(g2
g3
Ntp551
Rp552
(dp553
g7
V547
p554
sg9
VWhimsicott
p555
sg11
g444
sg13
VRustling
p556
sg15
V36
p557
sg17
g557
sg18
V5
p558
sbag1
(g2
g3
Ntp559
Rp560
(dp561
g7
V549
p562
sg9
VLilligant
p563
sg11
g454
sg13
VRustling
p564
sg15
V36
p565
sg17
g565
sg18
V5
p566
sbag1
(g2
g3
Ntp567
Rp568
(dp569
g7
V587
p570
sg9
VEmolga
p571
sg11
VB2,W2,
p572
sg13
VRustling
p573
sg15
V34
p574
sg17
g574
sg18
V10
p575
sbag1
(g2
g3
Ntp576
Rp577
(dp578
g7
V183
p579
sg9
VMarill
p580
sg11
VB2,W2,
p581
sg13
VSurf
p582
sg15
V25
p583
sg17
V40
p584
sg18
V30
p585
sbag1
(g2
g3
Ntp586
Rp587
(dp588
g7
V550
p589
sg9
VBasculin
p590
sg11
g444
sg13
VSurf
p591
sg15
V25
p592
sg17
V40
p593
sg18
V70
p594
sbag1
(g2
g3
Ntp595
Rp596
(dp597
g7
V550
p598
sg9
VBasculin
p599
sg11
g454
sg13
VSurf
p600
sg15
V25
p601
sg17
V40
p602
sg18
V70
p603
sbag1
(g2
g3
Ntp604
Rp605
(dp606
g7
V183
p607
sg9
VMarill
p608
sg11
VB2,W2,
p609
sg13
VRippling
p610
sg15
V25
p611
sg17
V40
p612
sg18
V60
p613
sbag1
(g2
g3
Ntp614
Rp615
(dp616
g7
V184
p617
sg9
VAzumarill
p618
sg11
VB2,W2,
p619
sg13
VRippling
p620
sg15
V30
p621
sg17
V40
p622
sg18
V5
p623
sbag1
(g2
g3
Ntp624
Rp625
(dp626
g7
V550
p627
sg9
VBasculin
p628
sg11
g444
sg13
VRippling
p629
sg15
V25
p630
sg17
V40
p631
sg18
V35
p632
sbag1
(g2
g3
Ntp633
Rp634
(dp635
g7
V550
p636
sg9
VBasculin
p637
sg11
g454
sg13
VRippling
p638
sg15
V25
p639
sg17
V40
p640
sg18
V35
p641
sbag1
(g2
g3
Ntp642
Rp643
(dp644
g7
V118
p645
sg9
VGoldeen
p646
sg11
VB2,W2,
p647
sg13
VFish Super
p648
sg15
V40
p649
sg17
V70
p650
sg18
V70
p651
sbag1
(g2
g3
Ntp652
Rp653
(dp654
g7
V550
p655
sg9
VBasculin
p656
sg11
g444
sg13
VFish Super
p657
sg15
V40
p658
sg17
V60
p659
sg18
V30
p660
sbag1
(g2
g3
Ntp661
Rp662
(dp663
g7
V550
p664
sg9
VBasculin
p665
sg11
g454
sg13
VFish Super
p666
sg15
V40
p667
sg17
V60
p668
sg18
V30
p669
sbag1
(g2
g3
Ntp670
Rp671
(dp672
g7
V118
p673
sg9
VGoldeen
p674
sg11
VB2,W2,
p675
sg13
VRippling
p676
sg15
V40
p677
sg17
V60
p678
sg18
V60
p679
sbag1
(g2
g3
Ntp680
Rp681
(dp682
g7
V119
p683
sg9
VSeaking
p684
sg11
VB2,W2,
p685
sg13
VRippling
p686
sg15
V50
p687
sg17
V70
p688
sg18
V10
p689
sbag1
(g2
g3
Ntp690
Rp691
(dp692
g7
V550
p693
sg9
VBasculin
p694
sg11
g444
sg13
VRippling
p695
sg15
V40
p696
sg17
V60
p697
sg18
V30
p698
sbag1
(g2
g3
Ntp699
Rp700
(dp701
g7
V550
p702
sg9
VBasculin
p703
sg11
g454
sg13
VRippling
p704
sg15
V40
p705
sg17
V60
p706
sg18
V30
p707
sbag1
(g2
g3
Ntp708
Rp709
(dp710
g7
V079
p711
sg9
VSlowpoke
p712
sg11
VB2,W2,
p713
sg13
VGrass
p714
sg15
V40
p715
sg17
V55
p716
sg18
V40
p717
sbag1
(g2
g3
Ntp718
Rp719
(dp720
g7
V037
p721
sg9
VVulpix
p722
sg11
VB2,W2,
p723
sg13
VGrotto
p724
sg15
V35
p725
sg17
V40
p726
sg18
V0
p727
sbag1
(g2
g3
Ntp728
Rp729
(dp730
g7
V436
p731
sg9
VBronzor
p732
sg11
VB2,W2,
p733
sg13
VGrotto
p734
sg15
V35
p735
sg17
V40
p736
sg18
V0
p737
sbag1
(g2
g3
Ntp738
Rp739
(dp740
g7
V591
p741
sg9
VAmoonguss
p742
sg11
VB2,W2,
p743
sg13
VGrotto
p744
sg15
V35
p745
sg17
V40
p746
sg18
V0
p747
sbag1
(g2
g3
Ntp748
Rp749
(dp750
g7
V055
p751
sg9
VGolduck
p752
sg11
VB2,W2,
p753
sg13
VGrotto
p754
sg15
V35
p755
sg17
V40
p756
sg18
V0
p757
sbag1
(g2
g3
Ntp758
Rp759
(dp760
g7
V333
p761
sg9
VSwablu
p762
sg11
VB2,W2,
p763
sg13
VGrotto
p764
sg15
V35
p765
sg17
V40
p766
sg18
V0
p767
sbag1
(g2
g3
Ntp768
Rp769
(dp770
g7
V591
p771
sg9
VAmoonguss
p772
sg11
VB2,W2,
p773
sg13
VGrotto
p774
sg15
V35
p775
sg17
V40
p776
sg18
V0
p777
sba.