(lp0
ccopy_reg
_reconstructor
p1
(c__main__
WildPokemon
p2
c__builtin__
object
p3
Ntp4
Rp5
(dp6
VpDexNo
p7
V793
p8
sVpSpecies
p9
VNihilego
p10
sVpGames
p11
VSu,M,
p12
sVpArea
p13
VSpecial
p14
sVpMinLevel
p15
V27
p16
sVpMaxLevel
p17
g16
sVpRate
p18
V0
p19
sbag1
(g2
g3
Ntp20
Rp21
(dp22
g7
V772
p23
sg9
VType: Null
p24
sg11
VSu,M,
p25
sg13
VGift
p26
sg15
V40
p27
sg17
g27
sg18
V0
p28
sbag1
(g2
g3
Ntp29
Rp30
(dp31
g7
V793
p32
sg9
VNihilego
p33
sg11
VUS,UM,
p34
sg13
VSpecial
p35
sg15
V27
p36
sg17
g36
sg18
V0
p37
sba.