(lp0
ccopy_reg
_reconstructor
p1
(c__main__
WildPokemon
p2
c__builtin__
object
p3
Ntp4
Rp5
(dp6
VpDexNo
p7
V137
p8
sVpSpecies
p9
VPorygon
p10
sVpGames
p11
VSu,M,
p12
sVpArea
p13
VGift
p14
sVpMinLevel
p15
V30
p16
sVpMaxLevel
p17
g16
sVpRate
p18
V0
p19
sbag1
(g2
g3
Ntp20
Rp21
(dp22
g7
V137
p23
sg9
VPorygon
p24
sg11
VUS,UM,
p25
sg13
VGift
p26
sg15
V30
p27
sg17
g27
sg18
V0
p28
sba.