(lp0
ccopy_reg
_reconstructor
p1
(c__main__
WildPokemon
p2
c__builtin__
object
p3
Ntp4
Rp5
(dp6
VpDexNo
p7
V020
p8
sVpSpecies
p9
VRaticate
p10
sVpGames
p11
VSu,M,
p12
sVpArea
p13
VGrass
p14
sVpMinLevel
p15
V31
p16
sVpMaxLevel
p17
V34
p18
sVpRate
p19
V30
p20
sbag1
(g2
g3
Ntp21
Rp22
(dp23
g7
V022
p24
sg9
VFearow
p25
sg11
VSu,M,
p26
sg13
VGrass
p27
sg15
V31
p28
sg17
V34
p29
sg19
V30
p30
sbag1
(g2
g3
Ntp31
Rp32
(dp33
g7
V166
p34
sg9
VLedian
p35
sg11
VSu,M,
p36
sg13
VGrass
p37
sg15
V31
p38
sg17
V34
p39
sg19
V30
p40
sbag1
(g2
g3
Ntp41
Rp42
(dp43
g7
V168
p44
sg9
VAriados
p45
sg11
VSu,M,
p46
sg13
VGrass
p47
sg15
V31
p48
sg17
V34
p49
sg19
V20
p50
sbag1
(g2
g3
Ntp51
Rp52
(dp53
g7
V674
p54
sg9
VPancham
p55
sg11
VSu,M,
p56
sg13
VGrass
p57
sg15
V31
p58
sg17
V34
p59
sg19
V20
p60
sbag1
(g2
g3
Ntp61
Rp62
(dp63
g7
V735
p64
sg9
VGumshoos
p65
sg11
VSu,M,
p66
sg13
VGrass
p67
sg15
V31
p68
sg17
V34
p69
sg19
V30
p70
sbag1
(g2
g3
Ntp71
Rp72
(dp73
g7
V020
p74
sg9
VRaticate
p75
sg11
VSu,M,
p76
sg13
VBrown grass
p77
sg15
V31
p78
sg17
V34
p79
sg19
V30
p80
sbag1
(g2
g3
Ntp81
Rp82
(dp83
g7
V022
p84
sg9
VFearow
p85
sg11
VSu,M,
p86
sg13
VBrown grass
p87
sg15
V31
p88
sg17
V34
p89
sg19
V30
p90
sbag1
(g2
g3
Ntp91
Rp92
(dp93
g7
V075
p94
sg9
VGraveler
p95
sg11
VSu,M,
p96
sg13
VBrown grass
p97
sg15
V31
p98
sg17
V34
p99
sg19
V20
p100
sbag1
(g2
g3
Ntp101
Rp102
(dp103
g7
V227
p104
sg9
VSkarmory
p105
sg11
VSu,M,
p106
sg13
VBrown grass
p107
sg15
V31
p108
sg17
V34
p109
sg19
V10
p110
sbag1
(g2
g3
Ntp111
Rp112
(dp113
g7
V674
p114
sg9
VPancham
p115
sg11
VSu,M,
p116
sg13
VBrown grass
p117
sg15
V31
p118
sg17
V34
p119
sg19
V10
p120
sbag1
(g2
g3
Ntp121
Rp122
(dp123
g7
V735
p124
sg9
VGumshoos
p125
sg11
VSu,M,
p126
sg13
VBrown grass
p127
sg15
V31
p128
sg17
V34
p129
sg19
V30
p130
sbag1
(g2
g3
Ntp131
Rp132
(dp133
g7
V000
p134
sg9
VAny
p135
sg11
VSu,M,
p136
sg13
VGrass
p137
sg15
V31
p138
sg17
V34
p139
sg19
V10
p140
sbag1
(g2
g3
Ntp141
Rp142
(dp143
g7
V000
p144
sg9
VAny
p145
sg11
VSu,M,
p146
sg13
VGrass
p147
sg15
V31
p148
sg17
V34
p149
sg19
V1
p150
sbag1
(g2
g3
Ntp151
Rp152
(dp153
g7
V000
p154
sg9
VAny
p155
sg11
VSu,M,
p156
sg13
VGrass
p157
sg15
V31
p158
sg17
V34
p159
sg19
V11
p160
sbag1
(g2
g3
Ntp161
Rp162
(dp163
g7
V739
p164
sg9
VCrabrawler
p165
sg11
VSu,M,
p166
sg13
VBerry pile
p167
sg15
V31
p168
sg17
V34
p169
sg19
V100
p170
sbag1
(g2
g3
Ntp171
Rp172
(dp173
g7
V798
p174
sg9
VKartana
p175
sg11
VSu,
p176
sg13
VGrass
p177
sg15
V60
p178
sg17
g178
sg19
V0
p179
sbag1
(g2
g3
Ntp180
Rp181
(dp182
g7
V020
p183
sg9
VRaticate
p184
sg11
VUS,UM,
p185
sg13
VGrass
p186
sg15
V33
p187
sg17
V36
p188
sg19
V20
p189
sbag1
(g2
g3
Ntp190
Rp191
(dp192
g7
V022
p193
sg9
VFearow
p194
sg11
VUS,UM,
p195
sg13
VGrass
p196
sg15
V33
p197
sg17
V36
p198
sg19
V20
p199
sbag1
(g2
g3
Ntp200
Rp201
(dp202
g7
V166
p203
sg9
VLedian
p204
sg11
VUS,UM,
p205
sg13
VGrass
p206
sg15
V33
p207
sg17
V36
p208
sg19
V20
p209
sbag1
(g2
g3
Ntp210
Rp211
(dp212
g7
V168
p213
sg9
VAriados
p214
sg11
VUS,UM,
p215
sg13
VGrass
p216
sg15
V33
p217
sg17
V36
p218
sg19
V20
p219
sbag1
(g2
g3
Ntp220
Rp221
(dp222
g7
V559
p223
sg9
VScraggy
p224
sg11
VUS,UM,
p225
sg13
VGrass
p226
sg15
V33
p227
sg17
V36
p228
sg19
V40
p229
sbag1
(g2
g3
Ntp230
Rp231
(dp232
g7
V559
p233
sg9
VScraggy
p234
sg11
VUS,UM,
p235
sg13
VGrass
p236
sg15
V33
p237
sg17
V36
p238
sg19
V10
p239
sbag1
(g2
g3
Ntp240
Rp241
(dp242
g7
V735
p243
sg9
VGumshoos
p244
sg11
VUS,UM,
p245
sg13
VGrass
p246
sg15
V33
p247
sg17
V36
p248
sg19
V20
p249
sbag1
(g2
g3
Ntp250
Rp251
(dp252
g7
V020
p253
sg9
VRaticate
p254
sg11
VUS,UM,
p255
sg13
VBrown grass
p256
sg15
V33
p257
sg17
V36
p258
sg19
V20
p259
sbag1
(g2
g3
Ntp260
Rp261
(dp262
g7
V022
p263
sg9
VFearow
p264
sg11
VUS,UM,
p265
sg13
VBrown grass
p266
sg15
V33
p267
sg17
V36
p268
sg19
V20
p269
sbag1
(g2
g3
Ntp270
Rp271
(dp272
g7
V075
p273
sg9
VGraveler
p274
sg11
VUS,UM,
p275
sg13
VBrown grass
p276
sg15
V33
p277
sg17
V36
p278
sg19
V20
p279
sbag1
(g2
g3
Ntp280
Rp281
(dp282
g7
V227
p283
sg9
VSkarmory
p284
sg11
VUS,UM,
p285
sg13
VBrown grass
p286
sg15
V33
p287
sg17
V36
p288
sg19
V15
p289
sbag1
(g2
g3
Ntp290
Rp291
(dp292
g7
V559
p293
sg9
VScraggy
p294
sg11
VUS,UM,
p295
sg13
VBrown grass
p296
sg15
V33
p297
sg17
V36
p298
sg19
V20
p299
sbag1
(g2
g3
Ntp300
Rp301
(dp302
g7
V625
p303
sg9
VBisharp
p304
sg11
VUS,UM,
p305
sg13
VBrown grass
p306
sg15
V33
p307
sg17
V36
p308
sg19
V5
p309
sbag1
(g2
g3
Ntp310
Rp311
(dp312
g7
V735
p313
sg9
VGumshoos
p314
sg11
VUS,UM,
p315
sg13
VBrown grass
p316
sg15
V33
p317
sg17
V36
p318
sg19
V20
p319
sbag1
(g2
g3
Ntp320
Rp321
(dp322
g7
V000
p323
sg9
VAny
p324
sg11
VUS,UM,
p325
sg13
VGrass
p326
sg15
V33
p327
sg17
V36
p328
sg19
V10
p329
sbag1
(g2
g3
Ntp330
Rp331
(dp332
g7
V000
p333
sg9
VAny
p334
sg11
VUS,UM,
p335
sg13
VGrass
p336
sg15
V33
p337
sg17
V36
p338
sg19
V1
p339
sbag1
(g2
g3
Ntp340
Rp341
(dp342
g7
V000
p343
sg9
VAny
p344
sg11
VUS,UM,
p345
sg13
VGrass
p346
sg15
V33
p347
sg17
V36
p348
sg19
V11
p349
sbag1
(g2
g3
Ntp350
Rp351
(dp352
g7
V739
p353
sg9
VCrabrawler
p354
sg11
VUS,UM,
p355
sg13
VBerry pile
p356
sg15
V33
p357
sg17
V36
p358
sg19
V100
p359
sba.