(lp0
ccopy_reg
_reconstructor
p1
(c__main__
WildPokemon
p2
c__builtin__
object
p3
Ntp4
Rp5
(dp6
VpDexNo
p7
V074
p8
sVpSpecies
p9
VGeodude
p10
sVpGames
p11
VSu,M,
p12
sVpArea
p13
VBrown grass
p14
sVpMinLevel
p15
V26
p16
sVpMaxLevel
p17
V29
p18
sVpRate
p19
V40
p20
sbag1
(g2
g3
Ntp21
Rp22
(dp23
g7
V239
p24
sg9
VElekid
p25
sg11
VSu,M,
p26
sg13
VBrown grass
p27
sg15
V26
p28
sg17
V29
p29
sg19
V10
p30
sbag1
(g2
g3
Ntp31
Rp32
(dp33
g7
V324
p34
sg9
VTorkoal
p35
sg11
VSu,M,
p36
sg13
VBrown grass
p37
sg15
V26
p38
sg17
V29
p39
sg19
V20
p40
sbag1
(g2
g3
Ntp41
Rp42
(dp43
g7
V749
p44
sg9
VMudbray
p45
sg11
VSu,M,
p46
sg13
VBrown grass
p47
sg15
V26
p48
sg17
V29
p49
sg19
V30
p50
sbag1
(g2
g3
Ntp51
Rp52
(dp53
g7
V074
p54
sg9
VGeodude
p55
sg11
VSu,M,
p56
sg13
VBrown grass
p57
sg15
V25
p58
sg17
V28
p59
sg19
V40
p60
sbag1
(g2
g3
Ntp61
Rp62
(dp63
g7
V239
p64
sg9
VElekid
p65
sg11
VSu,M,
p66
sg13
VBrown grass
p67
sg15
V25
p68
sg17
V28
p69
sg19
V10
p70
sbag1
(g2
g3
Ntp71
Rp72
(dp73
g7
V324
p74
sg9
VTorkoal
p75
sg11
VSu,M,
p76
sg13
VBrown grass
p77
sg15
V25
p78
sg17
V28
p79
sg19
V20
p80
sbag1
(g2
g3
Ntp81
Rp82
(dp83
g7
V749
p84
sg9
VMudbray
p85
sg11
VSu,M,
p86
sg13
VBrown grass
p87
sg15
V25
p88
sg17
V28
p89
sg19
V30
p90
sbag1
(g2
g3
Ntp91
Rp92
(dp93
g7
V075
p94
sg9
VGraveler
p95
sg11
VUS,UM,
p96
sg13
VBrown grass
p97
sg15
V29
p98
sg17
V32
p99
sg19
V30
p100
sbag1
(g2
g3
Ntp101
Rp102
(dp103
g7
V229
p104
sg9
VHoundoom
p105
sg11
VUS,
p106
sg13
VBrown grass
p107
sg15
V29
p108
sg17
V32
p109
sg19
V20
p110
sbag1
(g2
g3
Ntp111
Rp112
(dp113
g7
V310
p114
sg9
VManectric
p115
sg11
VUM,
p116
sg13
VBrown grass
p117
sg15
V29
p118
sg17
V32
p119
sg19
V20
p120
sbag1
(g2
g3
Ntp121
Rp122
(dp123
g7
V324
p124
sg9
VTorkoal
p125
sg11
VUS,UM,
p126
sg13
VBrown grass
p127
sg15
V29
p128
sg17
V32
p129
sg19
V20
p130
sbag1
(g2
g3
Ntp131
Rp132
(dp133
g7
V749
p134
sg9
VMudbray
p135
sg11
VUS,UM,
p136
sg13
VBrown grass
p137
sg15
V29
p138
sg17
V32
p139
sg19
V30
p140
sba.