(lp0
ccopy_reg
_reconstructor
p1
(c__main__
WildPokemon
p2
c__builtin__
object
p3
Ntp4
Rp5
(dp6
VpDexNo
p7
V020
p8
sVpSpecies
p9
VRaticate
p10
sVpGames
p11
VSu,M,
p12
sVpArea
p13
VGrass
p14
sVpMinLevel
p15
V30
p16
sVpMaxLevel
p17
V33
p18
sVpRate
p19
V30
p20
sbag1
(g2
g3
Ntp21
Rp22
(dp23
g7
V079
p24
sg9
VSlowpoke
p25
sg11
VSu,M,
p26
sg13
VGrass
p27
sg15
V30
p28
sg17
V33
p29
sg19
V20
p30
sbag1
(g2
g3
Ntp31
Rp32
(dp33
g7
V279
p34
sg9
VPelipper
p35
sg11
VSu,M,
p36
sg13
VGrass
p37
sg15
V30
p38
sg17
V33
p39
sg19
V50
p40
sbag1
(g2
g3
Ntp41
Rp42
(dp43
g7
V735
p44
sg9
VGumshoos
p45
sg11
VSu,M,
p46
sg13
VGrass
p47
sg15
V30
p48
sg17
V33
p49
sg19
V30
p50
sbag1
(g2
g3
Ntp51
Rp52
(dp53
g7
V072
p54
sg9
VTentacool
p55
sg11
VSu,M,
p56
sg13
VSurf
p57
sg15
V30
p58
sg17
V33
p59
sg19
V40
p60
sbag1
(g2
g3
Ntp61
Rp62
(dp63
g7
V279
p64
sg9
VPelipper
p65
sg11
VSu,M,
p66
sg13
VSurf
p67
sg15
V30
p68
sg17
V33
p69
sg19
V20
p70
sbag1
(g2
g3
Ntp71
Rp72
(dp73
g7
V456
p74
sg9
VFinneon
p75
sg11
VSu,M,
p76
sg13
VSurf
p77
sg15
V30
p78
sg17
V33
p79
sg19
V40
p80
sbag1
(g2
g3
Ntp81
Rp82
(dp83
g7
V129
p84
sg9
VMagikarp
p85
sg11
VSu,M,
p86
sg13
VFish
p87
sg15
V10
p88
sg17
V33
p89
sg19
V79
p90
sbag1
(g2
g3
Ntp91
Rp92
(dp93
g7
V746
p94
sg9
VWishiwashi
p95
sg11
VSu,M,
p96
sg13
VFish
p97
sg15
V10
p98
sg17
V33
p99
sg19
V20
p100
sbag1
(g2
g3
Ntp101
Rp102
(dp103
g7
V779
p104
sg9
VBruxish
p105
sg11
VSu,M,
p106
sg13
VFish
p107
sg15
V10
p108
sg17
V33
p109
sg19
V1
p110
sbag1
(g2
g3
Ntp111
Rp112
(dp113
g7
V129
p114
sg9
VMagikarp
p115
sg11
VSu,M,
p116
sg13
VFish
p117
sg15
V10
p118
sg17
V33
p119
sg19
V50
p120
sbag1
(g2
g3
Ntp121
Rp122
(dp123
g7
V746
p124
sg9
VWishiwashi
p125
sg11
VSu,M,
p126
sg13
VFish
p127
sg15
V10
p128
sg17
V33
p129
sg19
V30
p130
sbag1
(g2
g3
Ntp131
Rp132
(dp133
g7
V779
p134
sg9
VBruxish
p135
sg11
VSu,M,
p136
sg13
VFish
p137
sg15
V10
p138
sg17
V33
p139
sg19
V20
p140
sbag1
(g2
g3
Ntp141
Rp142
(dp143
g7
V020
p144
sg9
VRaticate
p145
sg11
VUS,UM,
p146
sg13
VGrass
p147
sg15
V30
p148
sg17
V33
p149
sg19
V30
p150
sbag1
(g2
g3
Ntp151
Rp152
(dp153
g7
V079
p154
sg9
VSlowpoke
p155
sg11
VUS,UM,
p156
sg13
VGrass
p157
sg15
V30
p158
sg17
V33
p159
sg19
V20
p160
sbag1
(g2
g3
Ntp161
Rp162
(dp163
g7
V279
p164
sg9
VPelipper
p165
sg11
VUS,UM,
p166
sg13
VGrass
p167
sg15
V30
p168
sg17
V33
p169
sg19
V50
p170
sbag1
(g2
g3
Ntp171
Rp172
(dp173
g7
V735
p174
sg9
VGumshoos
p175
sg11
VUS,UM,
p176
sg13
VGrass
p177
sg15
V30
p178
sg17
V33
p179
sg19
V30
p180
sbag1
(g2
g3
Ntp181
Rp182
(dp183
g7
V073
p184
sg9
VTentacruel
p185
sg11
VUS,UM,
p186
sg13
VSurf
p187
sg15
V32
p188
sg17
V35
p189
sg19
V40
p190
sbag1
(g2
g3
Ntp191
Rp192
(dp193
g7
V279
p194
sg9
VPelipper
p195
sg11
VUS,UM,
p196
sg13
VSurf
p197
sg15
V32
p198
sg17
V35
p199
sg19
V20
p200
sbag1
(g2
g3
Ntp201
Rp202
(dp203
g7
V456
p204
sg9
VFinneon
p205
sg11
VUS,UM,
p206
sg13
VSurf
p207
sg15
V32
p208
sg17
V35
p209
sg19
V40
p210
sbag1
(g2
g3
Ntp211
Rp212
(dp213
g7
V129
p214
sg9
VMagikarp
p215
sg11
VUS,UM,
p216
sg13
VFish
p217
sg15
V10
p218
sg17
V35
p219
sg19
V50
p220
sbag1
(g2
g3
Ntp221
Rp222
(dp223
g7
V366
p224
sg9
VClamperl
p225
sg11
VUS,UM,
p226
sg13
VFish
p227
sg15
V10
p228
sg17
V35
p229
sg19
V30
p230
sbag1
(g2
g3
Ntp231
Rp232
(dp233
g7
V366
p234
sg9
VClamperl
p235
sg11
VUS,UM,
p236
sg13
VFish
p237
sg15
V10
p238
sg17
V35
p239
sg19
V5
p240
sbag1
(g2
g3
Ntp241
Rp242
(dp243
g7
V746
p244
sg9
VWishiwashi
p245
sg11
VUS,UM,
p246
sg13
VFish
p247
sg15
V10
p248
sg17
V35
p249
sg19
V40
p250
sbag1
(g2
g3
Ntp251
Rp252
(dp253
g7
V779
p254
sg9
VBruxish
p255
sg11
VUS,UM,
p256
sg13
VFish
p257
sg15
V10
p258
sg17
V35
p259
sg19
V5
p260
sbag1
(g2
g3
Ntp261
Rp262
(dp263
g7
V129
p264
sg9
VMagikarp
p265
sg11
VUS,UM,
p266
sg13
VFish
p267
sg15
V10
p268
sg17
V40
p269
sg19
V20
p270
sbag1
(g2
g3
Ntp271
Rp272
(dp273
g7
V366
p274
sg9
VClamperl
p275
sg11
VUS,UM,
p276
sg13
VFish
p277
sg15
V10
p278
sg17
V40
p279
sg19
V35
p280
sbag1
(g2
g3
Ntp281
Rp282
(dp283
g7
V366
p284
sg9
VClamperl
p285
sg11
VUS,UM,
p286
sg13
VFish
p287
sg15
V10
p288
sg17
V40
p289
sg19
V35
p290
sbag1
(g2
g3
Ntp291
Rp292
(dp293
g7
V746
p294
sg9
VWishiwashi
p295
sg11
VUS,UM,
p296
sg13
VFish
p297
sg15
V10
p298
sg17
V40
p299
sg19
V10
p300
sbag1
(g2
g3
Ntp301
Rp302
(dp303
g7
V779
p304
sg9
VBruxish
p305
sg11
VUS,UM,
p306
sg13
VFish
p307
sg15
V10
p308
sg17
V40
p309
sg19
V35
p310
sbag1
(g2
g3
Ntp311
Rp312
(dp313
g7
V769
p314
sg9
VSandygast
p315
sg11
VUM,
p316
sg13
VSpecial
p317
sg15
V30
p318
sg17
g318
sg19
V0
p319
sba.