(lp0
ccopy_reg
_reconstructor
p1
(c__main__
WildPokemon
p2
c__builtin__
object
p3
Ntp4
Rp5
(dp6
VpDexNo
p7
V019
p8
sVpSpecies
p9
VRattata
p10
sVpGames
p11
VSu,M,
p12
sVpArea
p13
VGrass
p14
sVpMinLevel
p15
V11
p16
sVpMaxLevel
p17
V14
p18
sVpRate
p19
V10
p20
sbag1
(g2
g3
Ntp21
Rp22
(dp23
g7
V133
p24
sg9
VEevee
p25
sg11
VSu,M,
p26
sg13
VGrass
p27
sg15
V11
p28
sg17
V14
p29
sg19
V10
p30
sbag1
(g2
g3
Ntp31
Rp32
(dp33
g7
V133
p34
sg9
VEevee
p35
sg11
VSu,M,
p36
sg13
VGrass
p37
sg15
V11
p38
sg17
V14
p39
sg19
V5
p40
sbag1
(g2
g3
Ntp41
Rp42
(dp43
g7
V174
p44
sg9
VIgglybuff
p45
sg11
VSu,M,
p46
sg13
VGrass
p47
sg15
V11
p48
sg17
V14
p49
sg19
V10
p50
sbag1
(g2
g3
Ntp51
Rp52
(dp53
g7
V506
p54
sg9
VLillipup
p55
sg11
VSu,M,
p56
sg13
VGrass
p57
sg15
V11
p58
sg17
V14
p59
sg19
V30
p60
sbag1
(g2
g3
Ntp61
Rp62
(dp63
g7
V731
p64
sg9
VPikipek
p65
sg11
VSu,M,
p66
sg13
VGrass
p67
sg15
V11
p68
sg17
V14
p69
sg19
V25
p70
sbag1
(g2
g3
Ntp71
Rp72
(dp73
g7
V734
p74
sg9
VYungoos
p75
sg11
VSu,M,
p76
sg13
VGrass
p77
sg15
V11
p78
sg17
V14
p79
sg19
V25
p80
sbag1
(g2
g3
Ntp81
Rp82
(dp83
g7
V736
p84
sg9
VGrubbin
p85
sg11
VSu,M,
p86
sg13
VGrass
p87
sg15
V11
p88
sg17
V14
p89
sg19
V10
p90
sbag1
(g2
g3
Ntp91
Rp92
(dp93
g7
V749
p94
sg9
VMudbray
p95
sg11
VSu,M,
p96
sg13
VGrass
p97
sg15
V11
p98
sg17
V14
p99
sg19
V20
p100
sbag1
(g2
g3
Ntp101
Rp102
(dp103
g7
V739
p104
sg9
VCrabrawler
p105
sg11
VSu,M,
p106
sg13
VBerry pile
p107
sg15
V11
p108
sg17
V14
p109
sg19
V100
p110
sbag1
(g2
g3
Ntp111
Rp112
(dp113
g7
V543
p114
sg9
VVenipede
p115
sg11
VSu,M,
p116
sg13
VGrass
p117
sg15
V14
p118
sg17
g118
sg19
V0
p119
sbag1
(g2
g3
Ntp120
Rp121
(dp122
g7
V019
p123
sg9
VRattata
p124
sg11
VUS,UM,
p125
sg13
VGrass
p126
sg15
V11
p127
sg17
V14
p128
sg19
V10
p129
sbag1
(g2
g3
Ntp130
Rp131
(dp132
g7
V133
p133
sg9
VEevee
p134
sg11
VUS,UM,
p135
sg13
VGrass
p136
sg15
V11
p137
sg17
V14
p138
sg19
V10
p139
sbag1
(g2
g3
Ntp140
Rp141
(dp142
g7
V133
p143
sg9
VEevee
p144
sg11
VUS,UM,
p145
sg13
VGrass
p146
sg15
V11
p147
sg17
V14
p148
sg19
V5
p149
sbag1
(g2
g3
Ntp150
Rp151
(dp152
g7
V174
p153
sg9
VIgglybuff
p154
sg11
VUS,UM,
p155
sg13
VGrass
p156
sg15
V11
p157
sg17
V14
p158
sg19
V20
p159
sbag1
(g2
g3
Ntp160
Rp161
(dp162
g7
V506
p163
sg9
VLillipup
p164
sg11
VUS,UM,
p165
sg13
VGrass
p166
sg15
V11
p167
sg17
V14
p168
sg19
V30
p169
sbag1
(g2
g3
Ntp170
Rp171
(dp172
g7
V731
p173
sg9
VPikipek
p174
sg11
VUS,UM,
p175
sg13
VGrass
p176
sg15
V11
p177
sg17
V14
p178
sg19
V25
p179
sbag1
(g2
g3
Ntp180
Rp181
(dp182
g7
V734
p183
sg9
VYungoos
p184
sg11
VUS,UM,
p185
sg13
VGrass
p186
sg15
V11
p187
sg17
V14
p188
sg19
V25
p189
sbag1
(g2
g3
Ntp190
Rp191
(dp192
g7
V736
p193
sg9
VGrubbin
p194
sg11
VUS,UM,
p195
sg13
VGrass
p196
sg15
V11
p197
sg17
V14
p198
sg19
V10
p199
sbag1
(g2
g3
Ntp200
Rp201
(dp202
g7
V749
p203
sg9
VMudbray
p204
sg11
VUS,UM,
p205
sg13
VGrass
p206
sg15
V11
p207
sg17
V14
p208
sg19
V20
p209
sbag1
(g2
g3
Ntp210
Rp211
(dp212
g7
V739
p213
sg9
VCrabrawler
p214
sg11
VUS,UM,
p215
sg13
VBerry pile
p216
sg15
V11
p217
sg17
V14
p218
sg19
V100
p219
sbag1
(g2
g3
Ntp220
Rp221
(dp222
g7
V015
p223
sg9
VBeedrill
p224
sg11
VUS,UM,
p225
sg13
VGrass
p226
sg15
V14
p227
sg17
g227
sg19
V0
p228
sba.