(lp0
ccopy_reg
_reconstructor
p1
(c__main__
WildPokemon
p2
c__builtin__
object
p3
Ntp4
Rp5
(dp6
VpDexNo
p7
V010
p8
sVpSpecies
p9
VCaterpie
p10
sVpGames
p11
VSu,M,
p12
sVpArea
p13
VGrass
p14
sVpMinLevel
p15
V2
p16
sVpMaxLevel
p17
V3
p18
sVpRate
p19
V20
p20
sbag1
(g2
g3
Ntp21
Rp22
(dp23
g7
V019
p24
sg9
VRattata
p25
sg11
VSu,M,
p26
sg13
VGrass
p27
sg15
g16
sg17
g18
sg19
V30
p28
sbag1
(g2
g3
Ntp29
Rp30
(dp31
g7
V165
p32
sg9
VLedyba
p33
sg11
VSu,M,
p34
sg13
VGrass
p35
sg15
g16
sg17
g18
sg19
V30
p36
sbag1
(g2
g3
Ntp37
Rp38
(dp39
g7
V167
p40
sg9
VSpinarak
p41
sg11
VSu,M,
p42
sg13
VGrass
p43
sg15
g16
sg17
g18
sg19
V20
p44
sbag1
(g2
g3
Ntp45
Rp46
(dp47
g7
V731
p48
sg9
VPikipek
p49
sg11
VSu,M,
p50
sg13
VGrass
p51
sg15
g16
sg17
g18
sg19
V30
p52
sbag1
(g2
g3
Ntp53
Rp54
(dp55
g7
V734
p56
sg9
VYungoos
p57
sg11
VSu,M,
p58
sg13
VGrass
p59
sg15
g16
sg17
g18
sg19
V30
p60
sbag1
(g2
g3
Ntp61
Rp62
(dp63
g7
V010
p64
sg9
VCaterpie
p65
sg11
VSu,M,
p66
sg13
VGrass
p67
sg15
g16
sg17
V4
p68
sg19
V20
p69
sbag1
(g2
g3
Ntp70
Rp71
(dp72
g7
V019
p73
sg9
VRattata
p74
sg11
VSu,M,
p75
sg13
VGrass
p76
sg15
g16
sg17
g68
sg19
V30
p77
sbag1
(g2
g3
Ntp78
Rp79
(dp80
g7
V165
p81
sg9
VLedyba
p82
sg11
VSu,M,
p83
sg13
VGrass
p84
sg15
g16
sg17
g68
sg19
V30
p85
sbag1
(g2
g3
Ntp86
Rp87
(dp88
g7
V167
p89
sg9
VSpinarak
p90
sg11
VSu,M,
p91
sg13
VGrass
p92
sg15
g16
sg17
g68
sg19
V20
p93
sbag1
(g2
g3
Ntp94
Rp95
(dp96
g7
V731
p97
sg9
VPikipek
p98
sg11
VSu,M,
p99
sg13
VGrass
p100
sg15
g16
sg17
g68
sg19
V30
p101
sbag1
(g2
g3
Ntp102
Rp103
(dp104
g7
V734
p105
sg9
VYungoos
p106
sg11
VSu,M,
p107
sg13
VGrass
p108
sg15
g16
sg17
g68
sg19
V30
p109
sbag1
(g2
g3
Ntp110
Rp111
(dp112
g7
V010
p113
sg9
VCaterpie
p114
sg11
VSu,M,
p115
sg13
VGrass
p116
sg15
g18
sg17
V5
p117
sg19
V10
p118
sbag1
(g2
g3
Ntp119
Rp120
(dp121
g7
V011
p122
sg9
VMetapod
p123
sg11
VSu,M,
p124
sg13
VGrass
p125
sg15
g18
sg17
g117
sg19
V10
p126
sbag1
(g2
g3
Ntp127
Rp128
(dp129
g7
V019
p130
sg9
VRattata
p131
sg11
VSu,M,
p132
sg13
VGrass
p133
sg15
g18
sg17
g117
sg19
V30
p134
sbag1
(g2
g3
Ntp135
Rp136
(dp137
g7
V165
p138
sg9
VLedyba
p139
sg11
VSu,M,
p140
sg13
VGrass
p141
sg15
g18
sg17
g117
sg19
V30
p142
sbag1
(g2
g3
Ntp143
Rp144
(dp145
g7
V167
p146
sg9
VSpinarak
p147
sg11
VSu,M,
p148
sg13
VGrass
p149
sg15
g18
sg17
g117
sg19
V15
p150
sbag1
(g2
g3
Ntp151
Rp152
(dp153
g7
V172
p154
sg9
VPichu
p155
sg11
VSu,M,
p156
sg13
VGrass
p157
sg15
g18
sg17
g117
sg19
V5
p158
sbag1
(g2
g3
Ntp159
Rp160
(dp161
g7
V731
p162
sg9
VPikipek
p163
sg11
VSu,M,
p164
sg13
VGrass
p165
sg15
g18
sg17
g117
sg19
V20
p166
sbag1
(g2
g3
Ntp167
Rp168
(dp169
g7
V734
p170
sg9
VYungoos
p171
sg11
VSu,M,
p172
sg13
VGrass
p173
sg15
g18
sg17
g117
sg19
V30
p174
sbag1
(g2
g3
Ntp175
Rp176
(dp177
g7
V736
p178
sg9
VGrubbin
p179
sg11
VSu,M,
p180
sg13
VGrass
p181
sg15
g18
sg17
g117
sg19
V10
p182
sbag1
(g2
g3
Ntp183
Rp184
(dp185
g7
V010
p186
sg9
VCaterpie
p187
sg11
VSu,M,
p188
sg13
VGrass
p189
sg15
V10
p190
sg17
V13
p191
sg19
V10
p192
sbag1
(g2
g3
Ntp193
Rp194
(dp195
g7
V011
p196
sg9
VMetapod
p197
sg11
VSu,M,
p198
sg13
VGrass
p199
sg15
V10
p200
sg17
V13
p201
sg19
V10
p202
sbag1
(g2
g3
Ntp203
Rp204
(dp205
g7
V019
p206
sg9
VRattata
p207
sg11
VSu,M,
p208
sg13
VGrass
p209
sg15
V10
p210
sg17
V13
p211
sg19
V30
p212
sbag1
(g2
g3
Ntp213
Rp214
(dp215
g7
V165
p216
sg9
VLedyba
p217
sg11
VSu,M,
p218
sg13
VGrass
p219
sg15
V10
p220
sg17
V13
p221
sg19
V30
p222
sbag1
(g2
g3
Ntp223
Rp224
(dp225
g7
V167
p226
sg9
VSpinarak
p227
sg11
VSu,M,
p228
sg13
VGrass
p229
sg15
V10
p230
sg17
V13
p231
sg19
V10
p232
sbag1
(g2
g3
Ntp233
Rp234
(dp235
g7
V438
p236
sg9
VBonsly
p237
sg11
VSu,M,
p238
sg13
VGrass
p239
sg15
V10
p240
sg17
V13
p241
sg19
V15
p242
sbag1
(g2
g3
Ntp243
Rp244
(dp245
g7
V446
p246
sg9
VMunchlax
p247
sg11
VSu,M,
p248
sg13
VGrass
p249
sg15
V10
p250
sg17
V13
p251
sg19
V5
p252
sbag1
(g2
g3
Ntp253
Rp254
(dp255
g7
V731
p256
sg9
VPikipek
p257
sg11
VSu,M,
p258
sg13
VGrass
p259
sg15
V10
p260
sg17
V13
p261
sg19
V20
p262
sbag1
(g2
g3
Ntp263
Rp264
(dp265
g7
V734
p266
sg9
VYungoos
p267
sg11
VSu,M,
p268
sg13
VGrass
p269
sg15
V10
p270
sg17
V13
p271
sg19
V30
p272
sbag1
(g2
g3
Ntp273
Rp274
(dp275
g7
V019
p276
sg9
VRattata
p277
sg11
VSu,M,
p278
sg13
VGrass
p279
sg15
g117
sg17
V7
p280
sg19
V30
p281
sbag1
(g2
g3
Ntp282
Rp283
(dp284
g7
V079
p285
sg9
VSlowpoke
p286
sg11
VSu,M,
p287
sg13
VGrass
p288
sg15
g117
sg17
g280
sg19
V20
p289
sbag1
(g2
g3
Ntp290
Rp291
(dp292
g7
V278
p293
sg9
VWingull
p294
sg11
VSu,M,
p295
sg13
VGrass
p296
sg15
g117
sg17
g280
sg19
V50
p297
sbag1
(g2
g3
Ntp298
Rp299
(dp300
g7
V734
p301
sg9
VYungoos
p302
sg11
VSu,M,
p303
sg13
VGrass
p304
sg15
g117
sg17
g280
sg19
V30
p305
sbag1
(g2
g3
Ntp306
Rp307
(dp308
g7
V072
p309
sg9
VTentacool
p310
sg11
VSu,M,
p311
sg13
VSurf
p312
sg15
V15
p313
sg17
V18
p314
sg19
V40
p315
sbag1
(g2
g3
Ntp316
Rp317
(dp318
g7
V278
p319
sg9
VWingull
p320
sg11
VSu,M,
p321
sg13
VSurf
p322
sg15
V15
p323
sg17
V18
p324
sg19
V20
p325
sbag1
(g2
g3
Ntp326
Rp327
(dp328
g7
V456
p329
sg9
VFinneon
p330
sg11
VSu,M,
p331
sg13
VSurf
p332
sg15
V15
p333
sg17
V18
p334
sg19
V40
p335
sbag1
(g2
g3
Ntp336
Rp337
(dp338
g7
V010
p339
sg9
VCaterpie
p340
sg11
VUS,UM,
p341
sg13
VGrass
p342
sg15
g16
sg17
g18
sg19
V10
p343
sbag1
(g2
g3
Ntp344
Rp345
(dp346
g7
V019
p347
sg9
VRattata
p348
sg11
VUS,UM,
p349
sg13
VGrass
p350
sg15
g16
sg17
g18
sg19
V20
p351
sbag1
(g2
g3
Ntp352
Rp353
(dp354
g7
V165
p355
sg9
VLedyba
p356
sg11
VUS,UM,
p357
sg13
VGrass
p358
sg15
g16
sg17
g18
sg19
V20
p359
sbag1
(g2
g3
Ntp360
Rp361
(dp362
g7
V167
p363
sg9
VSpinarak
p364
sg11
VUS,UM,
p365
sg13
VGrass
p366
sg15
g16
sg17
g18
sg19
V20
p367
sbag1
(g2
g3
Ntp368
Rp369
(dp370
g7
V172
p371
sg9
VPichu
p372
sg11
VUS,UM,
p373
sg13
VGrass
p374
sg15
g16
sg17
g18
sg19
V5
p375
sbag1
(g2
g3
Ntp376
Rp377
(dp378
g7
V427
p379
sg9
VBuneary
p380
sg11
VUS,UM,
p381
sg13
VGrass
p382
sg15
g16
sg17
g18
sg19
V10
p383
sbag1
(g2
g3
Ntp384
Rp385
(dp386
g7
V731
p387
sg9
VPikipek
p388
sg11
VUS,UM,
p389
sg13
VGrass
p390
sg15
g16
sg17
g18
sg19
V20
p391
sbag1
(g2
g3
Ntp392
Rp393
(dp394
g7
V734
p395
sg9
VYungoos
p396
sg11
VUS,UM,
p397
sg13
VGrass
p398
sg15
g16
sg17
g18
sg19
V20
p399
sbag1
(g2
g3
Ntp400
Rp401
(dp402
g7
V736
p403
sg9
VGrubbin
p404
sg11
VUS,UM,
p405
sg13
VGrass
p406
sg15
g16
sg17
g18
sg19
V15
p407
sbag1
(g2
g3
Ntp408
Rp409
(dp410
g7
V010
p411
sg9
VCaterpie
p412
sg11
VUS,UM,
p413
sg13
VGrass
p414
sg15
g16
sg17
g68
sg19
V10
p415
sbag1
(g2
g3
Ntp416
Rp417
(dp418
g7
V019
p419
sg9
VRattata
p420
sg11
VUS,UM,
p421
sg13
VGrass
p422
sg15
g16
sg17
g68
sg19
V20
p423
sbag1
(g2
g3
Ntp424
Rp425
(dp426
g7
V165
p427
sg9
VLedyba
p428
sg11
VUS,UM,
p429
sg13
VGrass
p430
sg15
g16
sg17
g68
sg19
V20
p431
sbag1
(g2
g3
Ntp432
Rp433
(dp434
g7
V167
p435
sg9
VSpinarak
p436
sg11
VUS,UM,
p437
sg13
VGrass
p438
sg15
g16
sg17
g68
sg19
V20
p439
sbag1
(g2
g3
Ntp440
Rp441
(dp442
g7
V172
p443
sg9
VPichu
p444
sg11
VUS,UM,
p445
sg13
VGrass
p446
sg15
g16
sg17
g68
sg19
V5
p447
sbag1
(g2
g3
Ntp448
Rp449
(dp450
g7
V427
p451
sg9
VBuneary
p452
sg11
VUS,UM,
p453
sg13
VGrass
p454
sg15
g16
sg17
g68
sg19
V10
p455
sbag1
(g2
g3
Ntp456
Rp457
(dp458
g7
V731
p459
sg9
VPikipek
p460
sg11
VUS,UM,
p461
sg13
VGrass
p462
sg15
g16
sg17
g68
sg19
V20
p463
sbag1
(g2
g3
Ntp464
Rp465
(dp466
g7
V734
p467
sg9
VYungoos
p468
sg11
VUS,UM,
p469
sg13
VGrass
p470
sg15
g16
sg17
g68
sg19
V20
p471
sbag1
(g2
g3
Ntp472
Rp473
(dp474
g7
V736
p475
sg9
VGrubbin
p476
sg11
VUS,UM,
p477
sg13
VGrass
p478
sg15
g16
sg17
g68
sg19
V15
p479
sbag1
(g2
g3
Ntp480
Rp481
(dp482
g7
V010
p483
sg9
VCaterpie
p484
sg11
VUS,UM,
p485
sg13
VGrass
p486
sg15
g16
sg17
g18
sg19
V35
p487
sbag1
(g2
g3
Ntp488
Rp489
(dp490
g7
V019
p491
sg9
VRattata
p492
sg11
VUS,UM,
p493
sg13
VGrass
p494
sg15
g16
sg17
g18
sg19
V35
p495
sbag1
(g2
g3
Ntp496
Rp497
(dp498
g7
V427
p499
sg9
VBuneary
p500
sg11
VUS,UM,
p501
sg13
VGrass
p502
sg15
g16
sg17
g18
sg19
V30
p503
sbag1
(g2
g3
Ntp504
Rp505
(dp506
g7
V734
p507
sg9
VYungoos
p508
sg11
VUS,UM,
p509
sg13
VGrass
p510
sg15
g16
sg17
g18
sg19
V35
p511
sbag1
(g2
g3
Ntp512
Rp513
(dp514
g7
V019
p515
sg9
VRattata
p516
sg11
VUS,UM,
p517
sg13
VGrass
p518
sg15
V11
p519
sg17
V14
p520
sg19
V20
p521
sbag1
(g2
g3
Ntp522
Rp523
(dp524
g7
V438
p525
sg9
VBonsly
p526
sg11
VUS,UM,
p527
sg13
VGrass
p528
sg15
V11
p529
sg17
V14
p530
sg19
V30
p531
sbag1
(g2
g3
Ntp532
Rp533
(dp534
g7
V446
p535
sg9
VMunchlax
p536
sg11
VUS,UM,
p537
sg13
VGrass
p538
sg15
V11
p539
sg17
V14
p540
sg19
V10
p541
sbag1
(g2
g3
Ntp542
Rp543
(dp544
g7
V731
p545
sg9
VPikipek
p546
sg11
VUS,UM,
p547
sg13
VGrass
p548
sg15
V11
p549
sg17
V14
p550
sg19
V20
p551
sbag1
(g2
g3
Ntp552
Rp553
(dp554
g7
V734
p555
sg9
VYungoos
p556
sg11
VUS,UM,
p557
sg13
VGrass
p558
sg15
V11
p559
sg17
V14
p560
sg19
V20
p561
sbag1
(g2
g3
Ntp562
Rp563
(dp564
g7
V744
p565
sg9
VRockruff
p566
sg11
VUS,UM,
p567
sg13
VGrass
p568
sg15
V11
p569
sg17
V14
p570
sg19
V20
p571
sbag1
(g2
g3
Ntp572
Rp573
(dp574
g7
V722
p575
sg9
VRowlet
p576
sg11
VUS,UM,
p577
sg13
VStarter
p578
sg15
g117
sg17
g117
sg19
V0
p579
sbag1
(g2
g3
Ntp580
Rp581
(dp582
g7
V725
p583
sg9
VLitten
p584
sg11
VUS,UM,
p585
sg13
VStarter
p586
sg15
g117
sg17
g117
sg19
V0
p587
sbag1
(g2
g3
Ntp588
Rp589
(dp590
g7
V728
p591
sg9
VPopplio
p592
sg11
VUS,UM,
p593
sg13
VStarter
p594
sg15
g117
sg17
g117
sg19
V0
p595
sbag1
(g2
g3
Ntp596
Rp597
(dp598
g7
V079
p599
sg9
VSlowpoke
p600
sg11
VUS,UM,
p601
sg13
VGrass
p602
sg15
g68
sg17
g280
sg19
V20
p603
sbag1
(g2
g3
Ntp604
Rp605
(dp606
g7
V278
p607
sg9
VWingull
p608
sg11
VUS,UM,
p609
sg13
VGrass
p610
sg15
g68
sg17
g280
sg19
V50
p611
sbag1
(g2
g3
Ntp612
Rp613
(dp614
g7
V686
p615
sg9
VInkay
p616
sg11
VUS,UM,
p617
sg13
VGrass
p618
sg15
g68
sg17
g280
sg19
V30
p619
sbag1
(g2
g3
Ntp620
Rp621
(dp622
g7
V072
p623
sg9
VTentacool
p624
sg11
VUS,UM,
p625
sg13
VSurf
p626
sg15
V15
p627
sg17
V18
p628
sg19
V40
p629
sbag1
(g2
g3
Ntp630
Rp631
(dp632
g7
V278
p633
sg9
VWingull
p634
sg11
VUS,UM,
p635
sg13
VSurf
p636
sg15
V15
p637
sg17
V18
p638
sg19
V20
p639
sbag1
(g2
g3
Ntp640
Rp641
(dp642
g7
V458
p643
sg9
VMantyke
p644
sg11
VUS,UM,
p645
sg13
VSurf
p646
sg15
V15
p647
sg17
V18
p648
sg19
V20
p649
sbag1
(g2
g3
Ntp650
Rp651
(dp652
g7
V456
p653
sg9
VFinneon
p654
sg11
VUS,UM,
p655
sg13
VSurf
p656
sg15
V15
p657
sg17
V18
p658
sg19
V20
p659
sba.