(lp0
ccopy_reg
_reconstructor
p1
(c__main__
WildPokemon
p2
c__builtin__
object
p3
Ntp4
Rp5
(dp6
VpDexNo
p7
V019
p8
sVpSpecies
p9
VRattata
p10
sVpGames
p11
VSu,M,
p12
sVpArea
p13
VGrass
p14
sVpMinLevel
p15
V7
p16
sVpMaxLevel
p17
V10
p18
sVpRate
p19
V10
p20
sbag1
(g2
g3
Ntp21
Rp22
(dp23
g7
V052
p24
sg9
VMeowth
p25
sg11
VSu,M,
p26
sg13
VGrass
p27
sg15
g16
sg17
V10
p28
sg19
V30
p29
sbag1
(g2
g3
Ntp30
Rp31
(dp32
g7
V063
p33
sg9
VAbra
p34
sg11
VSu,M,
p35
sg13
VGrass
p36
sg15
g16
sg17
V10
p37
sg19
V20
p38
sbag1
(g2
g3
Ntp39
Rp40
(dp41
g7
V096
p42
sg9
VDrowzee
p43
sg11
VSu,M,
p44
sg13
VGrass
p45
sg15
g16
sg17
V10
p46
sg19
V20
p47
sbag1
(g2
g3
Ntp48
Rp49
(dp50
g7
V235
p51
sg9
VSmeargle
p52
sg11
VSu,M,
p53
sg13
VGrass
p54
sg15
g16
sg17
V10
p55
sg19
V20
p56
sbag1
(g2
g3
Ntp57
Rp58
(dp59
g7
V734
p60
sg9
VYungoos
p61
sg11
VSu,M,
p62
sg13
VGrass
p63
sg15
g16
sg17
V10
p64
sg19
V10
p65
sbag1
(g2
g3
Ntp66
Rp67
(dp68
g7
V019
p69
sg9
VRattata
p70
sg11
VSu,M,
p71
sg13
VGrass
p72
sg15
g16
sg17
V10
p73
sg19
V10
p74
sbag1
(g2
g3
Ntp75
Rp76
(dp77
g7
V021
p78
sg9
VSpearow
p79
sg11
VSu,M,
p80
sg13
VGrass
p81
sg15
g16
sg17
V10
p82
sg19
V40
p83
sbag1
(g2
g3
Ntp84
Rp85
(dp86
g7
V058
p87
sg9
VGrowlithe
p88
sg11
VSu,M,
p89
sg13
VGrass
p90
sg15
g16
sg17
V10
p91
sg19
V20
p92
sbag1
(g2
g3
Ntp93
Rp94
(dp95
g7
V235
p96
sg9
VSmeargle
p97
sg11
VSu,M,
p98
sg13
VGrass
p99
sg15
g16
sg17
V10
p100
sg19
V10
p101
sbag1
(g2
g3
Ntp102
Rp103
(dp104
g7
V734
p105
sg9
VYungoos
p106
sg11
VSu,M,
p107
sg13
VGrass
p108
sg15
g16
sg17
V10
p109
sg19
V10
p110
sbag1
(g2
g3
Ntp111
Rp112
(dp113
g7
V742
p114
sg9
VCutiefly
p115
sg11
VSu,M,
p116
sg13
VGrass
p117
sg15
g16
sg17
V10
p118
sg19
V20
p119
sbag1
(g2
g3
Ntp120
Rp121
(dp122
g7
V019
p123
sg9
VRattata
p124
sg11
VSu,M,
p125
sg13
VRustling grass
p126
sg15
V9
p127
sg17
V10
p128
sg19
V70
p129
sbag1
(g2
g3
Ntp130
Rp131
(dp132
g7
V296
p133
sg9
VMakuhita
p134
sg11
VSu,M,
p135
sg13
VRustling grass
p136
sg15
g127
sg17
V10
p137
sg19
V30
p138
sbag1
(g2
g3
Ntp139
Rp140
(dp141
g7
V734
p142
sg9
VYungoos
p143
sg11
VSu,M,
p144
sg13
VRustling grass
p145
sg15
g127
sg17
V10
p146
sg19
V70
p147
sbag1
(g2
g3
Ntp148
Rp149
(dp150
g7
V739
p151
sg9
VCrabrawler
p152
sg11
VSu,M,
p153
sg13
VBerry pile
p154
sg15
g16
sg17
V10
p155
sg19
V100
p156
sbag1
(g2
g3
Ntp157
Rp158
(dp159
g7
V066
p160
sg9
VMachop
p161
sg11
VSu,M,
p162
sg13
VTrade
p163
sg15
g127
sg17
g127
sg19
V0
p164
sbag1
(g2
g3
Ntp165
Rp166
(dp167
g7
V152
p168
sg9
VChikorita
p169
sg11
VSu,M,
p170
sg13
VGrass
p171
sg15
V10
p172
sg17
g172
sg19
V0
p173
sbag1
(g2
g3
Ntp174
Rp175
(dp176
g7
V019
p177
sg9
VRattata
p178
sg11
VUS,UM,
p179
sg13
VGrass
p180
sg15
V6
p181
sg17
g127
sg19
V10
p182
sbag1
(g2
g3
Ntp183
Rp184
(dp185
g7
V023
p186
sg9
VEkans
p187
sg11
VUS,UM,
p188
sg13
VGrass
p189
sg15
g181
sg17
g127
sg19
V20
p190
sbag1
(g2
g3
Ntp191
Rp192
(dp193
g7
V052
p194
sg9
VMeowth
p195
sg11
VUS,UM,
p196
sg13
VGrass
p197
sg15
g181
sg17
g127
sg19
V10
p198
sbag1
(g2
g3
Ntp199
Rp200
(dp201
g7
V063
p202
sg9
VAbra
p203
sg11
VUS,UM,
p204
sg13
VGrass
p205
sg15
g181
sg17
g127
sg19
V10
p206
sbag1
(g2
g3
Ntp207
Rp208
(dp209
g7
V096
p210
sg9
VDrowzee
p211
sg11
VUS,UM,
p212
sg13
VGrass
p213
sg15
g181
sg17
g127
sg19
V20
p214
sbag1
(g2
g3
Ntp215
Rp216
(dp217
g7
V235
p218
sg9
VSmeargle
p219
sg11
VUS,UM,
p220
sg13
VGrass
p221
sg15
g181
sg17
g127
sg19
V10
p222
sbag1
(g2
g3
Ntp223
Rp224
(dp225
g7
V296
p226
sg9
VMakuhita
p227
sg11
VUS,UM,
p228
sg13
VGrass
p229
sg15
g181
sg17
g127
sg19
V20
p230
sbag1
(g2
g3
Ntp231
Rp232
(dp233
g7
V676
p234
sg9
VFurfrou
p235
sg11
VUS,UM,
p236
sg13
VGrass
p237
sg15
g181
sg17
g127
sg19
V10
p238
sbag1
(g2
g3
Ntp239
Rp240
(dp241
g7
V734
p242
sg9
VYungoos
p243
sg11
VUS,UM,
p244
sg13
VGrass
p245
sg15
g181
sg17
g127
sg19
V10
p246
sbag1
(g2
g3
Ntp247
Rp248
(dp249
g7
V019
p250
sg9
VRattata
p251
sg11
VUS,UM,
p252
sg13
VGrass
p253
sg15
g16
sg17
V10
p254
sg19
V10
p255
sbag1
(g2
g3
Ntp256
Rp257
(dp258
g7
V021
p259
sg9
VSpearow
p260
sg11
VUS,UM,
p261
sg13
VGrass
p262
sg15
g16
sg17
V10
p263
sg19
V10
p264
sbag1
(g2
g3
Ntp265
Rp266
(dp267
g7
V023
p268
sg9
VEkans
p269
sg11
VUS,UM,
p270
sg13
VGrass
p271
sg15
g16
sg17
V10
p272
sg19
V20
p273
sbag1
(g2
g3
Ntp274
Rp275
(dp276
g7
V058
p277
sg9
VGrowlithe
p278
sg11
VUS,UM,
p279
sg13
VGrass
p280
sg15
g16
sg17
V10
p281
sg19
V10
p282
sbag1
(g2
g3
Ntp283
Rp284
(dp285
g7
V096
p286
sg9
VDrowzee
p287
sg11
VUS,UM,
p288
sg13
VGrass
p289
sg15
g16
sg17
V10
p290
sg19
V20
p291
sbag1
(g2
g3
Ntp292
Rp293
(dp294
g7
V235
p295
sg9
VSmeargle
p296
sg11
VUS,UM,
p297
sg13
VGrass
p298
sg15
g16
sg17
V10
p299
sg19
V10
p300
sbag1
(g2
g3
Ntp301
Rp302
(dp303
g7
V296
p304
sg9
VMakuhita
p305
sg11
VUS,UM,
p306
sg13
VGrass
p307
sg15
g16
sg17
V10
p308
sg19
V20
p309
sbag1
(g2
g3
Ntp310
Rp311
(dp312
g7
V734
p313
sg9
VYungoos
p314
sg11
VUS,UM,
p315
sg13
VGrass
p316
sg15
g16
sg17
V10
p317
sg19
V10
p318
sbag1
(g2
g3
Ntp319
Rp320
(dp321
g7
V742
p322
sg9
VCutiefly
p323
sg11
VUS,UM,
p324
sg13
VGrass
p325
sg15
g16
sg17
V10
p326
sg19
V10
p327
sbag1
(g2
g3
Ntp328
Rp329
(dp330
g7
V019
p331
sg9
VRattata
p332
sg11
VUS,UM,
p333
sg13
VGrass
p334
sg15
g16
sg17
V10
p335
sg19
V20
p336
sbag1
(g2
g3
Ntp337
Rp338
(dp339
g7
V021
p340
sg9
VSpearow
p341
sg11
VUS,UM,
p342
sg13
VGrass
p343
sg15
g16
sg17
V10
p344
sg19
V30
p345
sbag1
(g2
g3
Ntp346
Rp347
(dp348
g7
V058
p349
sg9
VGrowlithe
p350
sg11
VUS,UM,
p351
sg13
VGrass
p352
sg15
g16
sg17
V10
p353
sg19
V10
p354
sbag1
(g2
g3
Ntp355
Rp356
(dp357
g7
V235
p358
sg9
VSmeargle
p359
sg11
VUS,UM,
p360
sg13
VGrass
p361
sg15
g16
sg17
V10
p362
sg19
V10
p363
sbag1
(g2
g3
Ntp364
Rp365
(dp366
g7
V734
p367
sg9
VYungoos
p368
sg11
VUS,UM,
p369
sg13
VGrass
p370
sg15
g16
sg17
V10
p371
sg19
V20
p372
sbag1
(g2
g3
Ntp373
Rp374
(dp375
g7
V742
p376
sg9
VCutiefly
p377
sg11
VUS,UM,
p378
sg13
VGrass
p379
sg15
g16
sg17
V10
p380
sg19
V30
p381
sbag1
(g2
g3
Ntp382
Rp383
(dp384
g7
V023
p385
sg9
VEkans
p386
sg11
VUS,UM,
p387
sg13
VRustling grass
p388
sg15
g16
sg17
V10
p389
sg19
V50
p390
sbag1
(g2
g3
Ntp391
Rp392
(dp393
g7
V096
p394
sg9
VDrowzee
p395
sg11
VUS,UM,
p396
sg13
VRustling grass
p397
sg15
g16
sg17
V10
p398
sg19
V30
p399
sbag1
(g2
g3
Ntp400
Rp401
(dp402
g7
V206
p403
sg9
VDunsparce
p404
sg11
VUS,UM,
p405
sg13
VRustling grass
p406
sg15
g16
sg17
V11
p407
sg19
V15
p408
sbag1
(g2
g3
Ntp409
Rp410
(dp411
g7
V296
p412
sg9
VMakuhita
p413
sg11
VUS,UM,
p414
sg13
VRustling grass
p415
sg15
g16
sg17
V11
p416
sg19
V30
p417
sbag1
(g2
g3
Ntp418
Rp419
(dp420
g7
V739
p421
sg9
VCrabrawler
p422
sg11
VUS,UM,
p423
sg13
VBerry pile
p424
sg15
V8
p425
sg17
V11
p426
sg19
V100
p427
sbag1
(g2
g3
Ntp428
Rp429
(dp430
g7
V701
p431
sg9
VHawlucha
p432
sg11
VUS,UM,
p433
sg13
VTrade
p434
sg15
g425
sg17
g425
sg19
V0
p435
sbag1
(g2
g3
Ntp436
Rp437
(dp438
g7
V001
p439
sg9
VBulbasaur
p440
sg11
VUS,UM,
p441
sg13
VGrass
p442
sg15
V10
p443
sg17
g443
sg19
V0
p444
sba.