(lp0
ccopy_reg
_reconstructor
p1
(c__main__
WildPokemon
p2
c__builtin__
object
p3
Ntp4
Rp5
(dp6
VpDexNo
p7
V072
p8
sVpSpecies
p9
VTentacool
p10
sVpGames
p11
VSu,M,
p12
sVpArea
p13
VSurf
p14
sVpMinLevel
p15
V28
p16
sVpMaxLevel
p17
V31
p18
sVpRate
p19
V40
p20
sbag1
(g2
g3
Ntp21
Rp22
(dp23
g7
V279
p24
sg9
VPelipper
p25
sg11
VSu,M,
p26
sg13
VSurf
p27
sg15
V28
p28
sg17
V31
p29
sg19
V20
p30
sbag1
(g2
g3
Ntp31
Rp32
(dp33
g7
V456
p34
sg9
VFinneon
p35
sg11
VSu,M,
p36
sg13
VSurf
p37
sg15
V28
p38
sg17
V31
p39
sg19
V40
p40
sbag1
(g2
g3
Ntp41
Rp42
(dp43
g7
V129
p44
sg9
VMagikarp
p45
sg11
VSu,M,
p46
sg13
VFish
p47
sg15
V10
p48
sg17
V31
p49
sg19
V79
p50
sbag1
(g2
g3
Ntp51
Rp52
(dp53
g7
V746
p54
sg9
VWishiwashi
p55
sg11
VSu,M,
p56
sg13
VFish
p57
sg15
V10
p58
sg17
V31
p59
sg19
V20
p60
sbag1
(g2
g3
Ntp61
Rp62
(dp63
g7
V779
p64
sg9
VBruxish
p65
sg11
VSu,M,
p66
sg13
VFish
p67
sg15
V10
p68
sg17
V31
p69
sg19
V1
p70
sbag1
(g2
g3
Ntp71
Rp72
(dp73
g7
V129
p74
sg9
VMagikarp
p75
sg11
VSu,M,
p76
sg13
VFish
p77
sg15
V10
p78
sg17
V31
p79
sg19
V50
p80
sbag1
(g2
g3
Ntp81
Rp82
(dp83
g7
V746
p84
sg9
VWishiwashi
p85
sg11
VSu,M,
p86
sg13
VFish
p87
sg15
V10
p88
sg17
V31
p89
sg19
V30
p90
sbag1
(g2
g3
Ntp91
Rp92
(dp93
g7
V779
p94
sg9
VBruxish
p95
sg11
VSu,M,
p96
sg13
VFish
p97
sg15
V10
p98
sg17
V31
p99
sg19
V20
p100
sbag1
(g2
g3
Ntp101
Rp102
(dp103
g7
V073
p104
sg9
VTentacruel
p105
sg11
VUS,UM,
p106
sg13
VSurf
p107
sg15
V30
p108
sg17
V33
p109
sg19
V30
p110
sbag1
(g2
g3
Ntp111
Rp112
(dp113
g7
V279
p114
sg9
VPelipper
p115
sg11
VUS,UM,
p116
sg13
VSurf
p117
sg15
V30
p118
sg17
V33
p119
sg19
V20
p120
sbag1
(g2
g3
Ntp121
Rp122
(dp123
g7
V456
p124
sg9
VFinneon
p125
sg11
VUS,UM,
p126
sg13
VSurf
p127
sg15
V30
p128
sg17
V33
p129
sg19
V30
p130
sbag1
(g2
g3
Ntp131
Rp132
(dp133
g7
V592
p134
sg9
VFrillish
p135
sg11
VUS,UM,
p136
sg13
VSurf
p137
sg15
V30
p138
sg17
V33
p139
sg19
V20
p140
sbag1
(g2
g3
Ntp141
Rp142
(dp143
g7
V129
p144
sg9
VMagikarp
p145
sg11
VUS,UM,
p146
sg13
VFish
p147
sg15
V10
p148
sg17
V34
p149
sg19
V55
p150
sbag1
(g2
g3
Ntp151
Rp152
(dp153
g7
V746
p154
sg9
VWishiwashi
p155
sg11
VUS,UM,
p156
sg13
VFish
p157
sg15
V10
p158
sg17
V34
p159
sg19
V40
p160
sbag1
(g2
g3
Ntp161
Rp162
(dp163
g7
V779
p164
sg9
VBruxish
p165
sg11
VUS,UM,
p166
sg13
VFish
p167
sg15
V10
p168
sg17
V34
p169
sg19
V5
p170
sbag1
(g2
g3
Ntp171
Rp172
(dp173
g7
V129
p174
sg9
VMagikarp
p175
sg11
VUS,UM,
p176
sg13
VFish
p177
sg15
V10
p178
sg17
V39
p179
sg19
V40
p180
sbag1
(g2
g3
Ntp181
Rp182
(dp183
g7
V746
p184
sg9
VWishiwashi
p185
sg11
VUS,UM,
p186
sg13
VFish
p187
sg15
V10
p188
sg17
V39
p189
sg19
V35
p190
sbag1
(g2
g3
Ntp191
Rp192
(dp193
g7
V779
p194
sg9
VBruxish
p195
sg11
VUS,UM,
p196
sg13
VFish
p197
sg15
V10
p198
sg17
V39
p199
sg19
V25
p200
sbag1
(g2
g3
Ntp201
Rp202
(dp203
g7
V592
p204
sg9
VFrillish
p205
sg11
VUS,UM,
p206
sg13
VSpecial
p207
sg15
V34
p208
sg17
g208
sg19
V0
p209
sba.