(lp0
ccopy_reg
_reconstructor
p1
(c__main__
WildPokemon
p2
c__builtin__
object
p3
Ntp4
Rp5
(dp6
VpDexNo
p7
V019
p8
sVpSpecies
p9
VRattata
p10
sVpGames
p11
VSu,M,
p12
sVpArea
p13
VGrass
p14
sVpMinLevel
p15
V9
p16
sVpMaxLevel
p17
V12
p18
sVpRate
p19
V10
p20
sbag1
(g2
g3
Ntp21
Rp22
(dp23
g7
V021
p24
sg9
VSpearow
p25
sg11
VSu,M,
p26
sg13
VGrass
p27
sg15
g16
sg17
V12
p28
sg19
V40
p29
sbag1
(g2
g3
Ntp30
Rp31
(dp32
g7
V056
p33
sg9
VMankey
p34
sg11
VSu,M,
p35
sg13
VGrass
p36
sg15
g16
sg17
V12
p37
sg19
V20
p38
sbag1
(g2
g3
Ntp39
Rp40
(dp41
g7
V225
p42
sg9
VDelibird
p43
sg11
VSu,M,
p44
sg13
VGrass
p45
sg15
g16
sg17
V12
p46
sg19
V10
p47
sbag1
(g2
g3
Ntp48
Rp49
(dp50
g7
V734
p51
sg9
VYungoos
p52
sg11
VSu,M,
p53
sg13
VGrass
p54
sg15
g16
sg17
V12
p55
sg19
V10
p56
sbag1
(g2
g3
Ntp57
Rp58
(dp59
g7
V742
p60
sg9
VCutiefly
p61
sg11
VSu,M,
p62
sg13
VGrass
p63
sg15
g16
sg17
V12
p64
sg19
V20
p65
sbag1
(g2
g3
Ntp66
Rp67
(dp68
g7
V019
p69
sg9
VRattata
p70
sg11
VSu,M,
p71
sg13
VGrass
p72
sg15
g16
sg17
V12
p73
sg19
V10
p74
sbag1
(g2
g3
Ntp75
Rp76
(dp77
g7
V021
p78
sg9
VSpearow
p79
sg11
VSu,M,
p80
sg13
VGrass
p81
sg15
g16
sg17
V12
p82
sg19
V49
p83
sbag1
(g2
g3
Ntp84
Rp85
(dp86
g7
V056
p87
sg9
VMankey
p88
sg11
VSu,M,
p89
sg13
VGrass
p90
sg15
g16
sg17
V12
p91
sg19
V20
p92
sbag1
(g2
g3
Ntp93
Rp94
(dp95
g7
V371
p96
sg9
VBagon
p97
sg11
VSu,M,
p98
sg13
VGrass
p99
sg15
g16
sg17
V12
p100
sg19
V1
p101
sbag1
(g2
g3
Ntp102
Rp103
(dp104
g7
V734
p105
sg9
VYungoos
p106
sg11
VSu,M,
p107
sg13
VGrass
p108
sg15
g16
sg17
V12
p109
sg19
V10
p110
sbag1
(g2
g3
Ntp111
Rp112
(dp113
g7
V742
p114
sg9
VCutiefly
p115
sg11
VSu,M,
p116
sg13
VGrass
p117
sg15
g16
sg17
V12
p118
sg19
V20
p119
sbag1
(g2
g3
Ntp120
Rp121
(dp122
g7
V021
p123
sg9
VSpearow
p124
sg11
VSu,M,
p125
sg13
VShadow
p126
sg15
V11
p127
sg17
V12
p128
sg19
V70
p129
sbag1
(g2
g3
Ntp130
Rp131
(dp132
g7
V627
p133
sg9
VRufflet
p134
sg11
VSu,
p135
sg13
VShadow
p136
sg15
V11
p137
sg17
V12
p138
sg19
V30
p139
sbag1
(g2
g3
Ntp140
Rp141
(dp142
g7
V629
p143
sg9
VVullaby
p144
sg11
VM,
p145
sg13
VShadow
p146
sg15
V11
p147
sg17
V12
p148
sg19
V30
p149
sbag1
(g2
g3
Ntp150
Rp151
(dp152
g7
V739
p153
sg9
VCrabrawler
p154
sg11
VSu,M,
p155
sg13
VBerry pile
p156
sg15
g16
sg17
V12
p157
sg19
V100
p158
sbag1
(g2
g3
Ntp159
Rp160
(dp161
g7
V155
p162
sg9
VCyndaquil
p163
sg11
VSu,M,
p164
sg13
VGrass
p165
sg15
V12
p166
sg17
g166
sg19
V0
p167
sbag1
(g2
g3
Ntp168
Rp169
(dp170
g7
V021
p171
sg9
VSpearow
p172
sg11
VUS,UM,
p173
sg13
VGrass
p174
sg15
g16
sg17
V12
p175
sg19
V30
p176
sbag1
(g2
g3
Ntp177
Rp178
(dp179
g7
V056
p180
sg9
VMankey
p181
sg11
VUS,UM,
p182
sg13
VGrass
p183
sg15
g16
sg17
V12
p184
sg19
V30
p185
sbag1
(g2
g3
Ntp186
Rp187
(dp188
g7
V701
p189
sg9
VHawlucha
p190
sg11
VUS,UM,
p191
sg13
VGrass
p192
sg15
g16
sg17
V12
p193
sg19
V10
p194
sbag1
(g2
g3
Ntp195
Rp196
(dp197
g7
V742
p198
sg9
VCutiefly
p199
sg11
VUS,UM,
p200
sg13
VGrass
p201
sg15
g16
sg17
V12
p202
sg19
V30
p203
sbag1
(g2
g3
Ntp204
Rp205
(dp206
g7
V021
p207
sg9
VSpearow
p208
sg11
VUS,UM,
p209
sg13
VGrass
p210
sg15
g16
sg17
V12
p211
sg19
V29
p212
sbag1
(g2
g3
Ntp213
Rp214
(dp215
g7
V056
p216
sg9
VMankey
p217
sg11
VUS,UM,
p218
sg13
VGrass
p219
sg15
g16
sg17
V12
p220
sg19
V30
p221
sbag1
(g2
g3
Ntp222
Rp223
(dp224
g7
V371
p225
sg9
VBagon
p226
sg11
VUS,UM,
p227
sg13
VGrass
p228
sg15
g16
sg17
V12
p229
sg19
V1
p230
sbag1
(g2
g3
Ntp231
Rp232
(dp233
g7
V701
p234
sg9
VHawlucha
p235
sg11
VUS,UM,
p236
sg13
VGrass
p237
sg15
g16
sg17
V12
p238
sg19
V10
p239
sbag1
(g2
g3
Ntp240
Rp241
(dp242
g7
V742
p243
sg9
VCutiefly
p244
sg11
VUS,UM,
p245
sg13
VGrass
p246
sg15
g16
sg17
V12
p247
sg19
V30
p248
sbag1
(g2
g3
Ntp249
Rp250
(dp251
g7
V021
p252
sg9
VSpearow
p253
sg11
VUS,UM,
p254
sg13
VShadow
p255
sg15
V10
p256
sg17
V13
p257
sg19
V70
p258
sbag1
(g2
g3
Ntp259
Rp260
(dp261
g7
V627
p262
sg9
VRufflet
p263
sg11
VUS,
p264
sg13
VShadow
p265
sg15
V10
p266
sg17
V13
p267
sg19
V30
p268
sbag1
(g2
g3
Ntp269
Rp270
(dp271
g7
V629
p272
sg9
VVullaby
p273
sg11
VUM,
p274
sg13
VShadow
p275
sg15
V10
p276
sg17
V13
p277
sg19
V30
p278
sbag1
(g2
g3
Ntp279
Rp280
(dp281
g7
V739
p282
sg9
VCrabrawler
p283
sg11
VUS,UM,
p284
sg13
VBerry pile
p285
sg15
V10
p286
sg17
V13
p287
sg19
V100
p288
sbag1
(g2
g3
Ntp289
Rp290
(dp291
g7
V004
p292
sg9
VCharmander
p293
sg11
VUS,UM,
p294
sg13
VGrass
p295
sg15
V12
p296
sg17
g296
sg19
V0
p297
sba.