(lp0
ccopy_reg
_reconstructor
p1
(c__main__
WildPokemon
p2
c__builtin__
object
p3
Ntp4
Rp5
(dp6
VpDexNo
p7
V020
p8
sVpSpecies
p9
VRaticate
p10
sVpGames
p11
VSu,M,
p12
sVpArea
p13
VGrass
p14
sVpMinLevel
p15
V30
p16
sVpMaxLevel
p17
V33
p18
sVpRate
p19
V30
p20
sbag1
(g2
g3
Ntp21
Rp22
(dp23
g7
V079
p24
sg9
VSlowpoke
p25
sg11
VSu,M,
p26
sg13
VGrass
p27
sg15
V30
p28
sg17
V33
p29
sg19
V20
p30
sbag1
(g2
g3
Ntp31
Rp32
(dp33
g7
V279
p34
sg9
VPelipper
p35
sg11
VSu,M,
p36
sg13
VGrass
p37
sg15
V30
p38
sg17
V33
p39
sg19
V50
p40
sbag1
(g2
g3
Ntp41
Rp42
(dp43
g7
V735
p44
sg9
VGumshoos
p45
sg11
VSu,M,
p46
sg13
VGrass
p47
sg15
V30
p48
sg17
V33
p49
sg19
V30
p50
sbag1
(g2
g3
Ntp51
Rp52
(dp53
g7
V739
p54
sg9
VCrabrawler
p55
sg11
VSu,M,
p56
sg13
VBerry pile
p57
sg15
V30
p58
sg17
V33
p59
sg19
V100
p60
sbag1
(g2
g3
Ntp61
Rp62
(dp63
g7
V718
p64
sg9
VZygarde
p65
sg11
VSu,M,
p66
sg13
VGift
p67
sg15
V30
p68
sg17
g68
sg19
V0
p69
sbag1
(g2
g3
Ntp70
Rp71
(dp72
g7
V718
p73
sg9
VZygarde
p74
sg11
VSu,M,
p75
sg13
VGift
p76
sg15
V30
p77
sg17
g77
sg19
V0
p78
sbag1
(g2
g3
Ntp79
Rp80
(dp81
g7
V718
p82
sg9
VZygarde
p83
sg11
VSu,M,
p84
sg13
VGift
p85
sg15
V50
p86
sg17
g86
sg19
V0
p87
sbag1
(g2
g3
Ntp88
Rp89
(dp90
g7
V718
p91
sg9
VZygarde
p92
sg11
VSu,M,
p93
sg13
VGift
p94
sg15
V50
p95
sg17
g95
sg19
V0
p96
sbag1
(g2
g3
Ntp97
Rp98
(dp99
g7
V578
p100
sg9
VDuosion
p101
sg11
VSu,M,
p102
sg13
VGrass
p103
sg15
V33
p104
sg17
g104
sg19
V0
p105
sbag1
(g2
g3
Ntp106
Rp107
(dp108
g7
V020
p109
sg9
VRaticate
p110
sg11
VUS,UM,
p111
sg13
VGrass
p112
sg15
V32
p113
sg17
V35
p114
sg19
V20
p115
sbag1
(g2
g3
Ntp116
Rp117
(dp118
g7
V079
p119
sg9
VSlowpoke
p120
sg11
VUS,UM,
p121
sg13
VGrass
p122
sg15
V32
p123
sg17
V35
p124
sg19
V20
p125
sbag1
(g2
g3
Ntp126
Rp127
(dp128
g7
V279
p129
sg9
VPelipper
p130
sg11
VUS,UM,
p131
sg13
VGrass
p132
sg15
V32
p133
sg17
V35
p134
sg19
V30
p135
sbag1
(g2
g3
Ntp136
Rp137
(dp138
g7
V559
p139
sg9
VScraggy
p140
sg11
VUS,UM,
p141
sg13
VGrass
p142
sg15
V32
p143
sg17
V35
p144
sg19
V30
p145
sbag1
(g2
g3
Ntp146
Rp147
(dp148
g7
V735
p149
sg9
VGumshoos
p150
sg11
VUS,UM,
p151
sg13
VGrass
p152
sg15
V32
p153
sg17
V35
p154
sg19
V20
p155
sbag1
(g2
g3
Ntp156
Rp157
(dp158
g7
V739
p159
sg9
VCrabrawler
p160
sg11
VUS,UM,
p161
sg13
VBerry pile
p162
sg15
V32
p163
sg17
V35
p164
sg19
V100
p165
sbag1
(g2
g3
Ntp166
Rp167
(dp168
g7
V718
p169
sg9
VZygarde
p170
sg11
VUS,UM,
p171
sg13
VGift
p172
sg15
V63
p173
sg17
g173
sg19
V0
p174
sbag1
(g2
g3
Ntp175
Rp176
(dp177
g7
V394
p178
sg9
VPrinplup
p179
sg11
VUS,UM,
p180
sg13
VGrass
p181
sg15
V35
p182
sg17
g182
sg19
V0
p183
sba.