(lp0
ccopy_reg
_reconstructor
p1
(c__main__
WildPokemon
p2
c__builtin__
object
p3
Ntp4
Rp5
(dp6
VpDexNo
p7
V019
p8
sVpSpecies
p9
VRattata
p10
sVpGames
p11
VSu,M,
p12
sVpArea
p13
VGrass
p14
sVpMinLevel
p15
V17
p16
sVpMaxLevel
p17
V20
p18
sVpRate
p19
V30
p20
sbag1
(g2
g3
Ntp21
Rp22
(dp23
g7
V662
p24
sg9
VFletchinder
p25
sg11
VSu,M,
p26
sg13
VGrass
p27
sg15
V17
p28
sg17
V20
p29
sg19
V15
p30
sbag1
(g2
g3
Ntp31
Rp32
(dp33
g7
V732
p34
sg9
VTrumbeak
p35
sg11
VSu,M,
p36
sg13
VGrass
p37
sg15
V17
p38
sg17
V20
p39
sg19
V30
p40
sbag1
(g2
g3
Ntp41
Rp42
(dp43
g7
V734
p44
sg9
VYungoos
p45
sg11
VSu,M,
p46
sg13
VGrass
p47
sg15
V17
p48
sg17
V20
p49
sg19
V30
p50
sbag1
(g2
g3
Ntp51
Rp52
(dp53
g7
V757
p54
sg9
VSalandit
p55
sg11
VSu,M,
p56
sg13
VGrass
p57
sg15
V17
p58
sg17
V20
p59
sg19
V20
p60
sbag1
(g2
g3
Ntp61
Rp62
(dp63
g7
V759
p64
sg9
VStufful
p65
sg11
VSu,M,
p66
sg13
VGrass
p67
sg15
V17
p68
sg17
V20
p69
sg19
V5
p70
sbag1
(g2
g3
Ntp71
Rp72
(dp73
g7
V739
p74
sg9
VCrabrawler
p75
sg11
VSu,M,
p76
sg13
VBerry pile
p77
sg15
V17
p78
sg17
V20
p79
sg19
V100
p80
sbag1
(g2
g3
Ntp81
Rp82
(dp83
g7
V767
p84
sg9
VWimpod
p85
sg11
VSu,M,
p86
sg13
VChase
p87
sg15
V17
p88
sg17
V20
p89
sg19
V100
p90
sbag1
(g2
g3
Ntp91
Rp92
(dp93
g7
V072
p94
sg9
VTentacool
p95
sg11
VSu,M,
p96
sg13
VSurf
p97
sg15
V17
p98
sg17
V20
p99
sg19
V40
p100
sbag1
(g2
g3
Ntp101
Rp102
(dp103
g7
V278
p104
sg9
VWingull
p105
sg11
VSu,M,
p106
sg13
VSurf
p107
sg15
V17
p108
sg17
V20
p109
sg19
V20
p110
sbag1
(g2
g3
Ntp111
Rp112
(dp113
g7
V456
p114
sg9
VFinneon
p115
sg11
VSu,M,
p116
sg13
VSurf
p117
sg15
V17
p118
sg17
V20
p119
sg19
V40
p120
sbag1
(g2
g3
Ntp121
Rp122
(dp123
g7
V129
p124
sg9
VMagikarp
p125
sg11
VSu,M,
p126
sg13
VFish
p127
sg15
V10
p128
sg17
V20
p129
sg19
V79
p130
sbag1
(g2
g3
Ntp131
Rp132
(dp133
g7
V170
p134
sg9
VChinchou
p135
sg11
VSu,M,
p136
sg13
VFish
p137
sg15
V10
p138
sg17
V20
p139
sg19
V1
p140
sbag1
(g2
g3
Ntp141
Rp142
(dp143
g7
V746
p144
sg9
VWishiwashi
p145
sg11
VSu,M,
p146
sg13
VFish
p147
sg15
V10
p148
sg17
V20
p149
sg19
V20
p150
sbag1
(g2
g3
Ntp151
Rp152
(dp153
g7
V129
p154
sg9
VMagikarp
p155
sg11
VSu,M,
p156
sg13
VFish
p157
sg15
V10
p158
sg17
V20
p159
sg19
V60
p160
sbag1
(g2
g3
Ntp161
Rp162
(dp163
g7
V170
p164
sg9
VChinchou
p165
sg11
VSu,M,
p166
sg13
VFish
p167
sg15
V10
p168
sg17
V20
p169
sg19
V20
p170
sbag1
(g2
g3
Ntp171
Rp172
(dp173
g7
V746
p174
sg9
VWishiwashi
p175
sg11
VSu,M,
p176
sg13
VFish
p177
sg15
V10
p178
sg17
V20
p179
sg19
V20
p180
sbag1
(g2
g3
Ntp181
Rp182
(dp183
g7
V404
p184
sg9
VLuxio
p185
sg11
VSu,M,
p186
sg13
VGrass
p187
sg15
V20
p188
sg17
g188
sg19
V0
p189
sbag1
(g2
g3
Ntp190
Rp191
(dp192
g7
V408
p193
sg9
VCranidos
p194
sg11
VSu,M,
p195
sg13
VSkull
p196
sg15
V15
p197
sg17
g197
sg19
V0
p198
sbag1
(g2
g3
Ntp199
Rp200
(dp201
g7
V410
p202
sg9
VShieldon
p203
sg11
VSu,M,
p204
sg13
VArmor
p205
sg15
V15
p206
sg17
g206
sg19
V0
p207
sbag1
(g2
g3
Ntp208
Rp209
(dp210
g7
V564
p211
sg9
VTirtouga
p212
sg11
VSu,M,
p213
sg13
VCover
p214
sg15
V15
p215
sg17
g215
sg19
V0
p216
sbag1
(g2
g3
Ntp217
Rp218
(dp219
g7
V566
p220
sg9
VArchen
p221
sg11
VSu,M,
p222
sg13
VPlume
p223
sg15
V15
p224
sg17
g224
sg19
V0
p225
sbag1
(g2
g3
Ntp226
Rp227
(dp228
g7
V019
p229
sg9
VRattata
p230
sg11
VUS,UM,
p231
sg13
VGrass
p232
sg15
V17
p233
sg17
V20
p234
sg19
V30
p235
sbag1
(g2
g3
Ntp236
Rp237
(dp238
g7
V661
p239
sg9
VFletchling
p240
sg11
VUS,UM,
p241
sg13
VGrass
p242
sg15
V17
p243
sg17
V20
p244
sg19
V15
p245
sbag1
(g2
g3
Ntp246
Rp247
(dp248
g7
V732
p249
sg9
VTrumbeak
p250
sg11
VUS,UM,
p251
sg13
VGrass
p252
sg15
V17
p253
sg17
V20
p254
sg19
V30
p255
sbag1
(g2
g3
Ntp256
Rp257
(dp258
g7
V734
p259
sg9
VYungoos
p260
sg11
VUS,UM,
p261
sg13
VGrass
p262
sg15
V17
p263
sg17
V20
p264
sg19
V30
p265
sbag1
(g2
g3
Ntp266
Rp267
(dp268
g7
V757
p269
sg9
VSalandit
p270
sg11
VUS,UM,
p271
sg13
VGrass
p272
sg15
V17
p273
sg17
V20
p274
sg19
V15
p275
sbag1
(g2
g3
Ntp276
Rp277
(dp278
g7
V757
p279
sg9
VSalandit
p280
sg11
VUS,UM,
p281
sg13
VGrass
p282
sg15
V17
p283
sg17
V20
p284
sg19
V1
p285
sbag1
(g2
g3
Ntp286
Rp287
(dp288
g7
V759
p289
sg9
VStufful
p290
sg11
VUS,UM,
p291
sg13
VGrass
p292
sg15
V17
p293
sg17
V20
p294
sg19
V10
p295
sbag1
(g2
g3
Ntp296
Rp297
(dp298
g7
V739
p299
sg9
VCrabrawler
p300
sg11
VUS,UM,
p301
sg13
VBerry pile
p302
sg15
V17
p303
sg17
V20
p304
sg19
V100
p305
sbag1
(g2
g3
Ntp306
Rp307
(dp308
g7
V767
p309
sg9
VWimpod
p310
sg11
VUS,UM,
p311
sg13
VChase
p312
sg15
V17
p313
sg17
V20
p314
sg19
V100
p315
sbag1
(g2
g3
Ntp316
Rp317
(dp318
g7
V072
p319
sg9
VTentacool
p320
sg11
VUS,UM,
p321
sg13
VSurf
p322
sg15
V17
p323
sg17
V20
p324
sg19
V40
p325
sbag1
(g2
g3
Ntp326
Rp327
(dp328
g7
V278
p329
sg9
VWingull
p330
sg11
VUS,UM,
p331
sg13
VSurf
p332
sg15
V17
p333
sg17
V20
p334
sg19
V20
p335
sbag1
(g2
g3
Ntp336
Rp337
(dp338
g7
V456
p339
sg9
VFinneon
p340
sg11
VUS,UM,
p341
sg13
VSurf
p342
sg15
V17
p343
sg17
V20
p344
sg19
V20
p345
sbag1
(g2
g3
Ntp346
Rp347
(dp348
g7
V458
p349
sg9
VMantyke
p350
sg11
VUS,UM,
p351
sg13
VSurf
p352
sg15
V17
p353
sg17
V20
p354
sg19
V20
p355
sbag1
(g2
g3
Ntp356
Rp357
(dp358
g7
V129
p359
sg9
VMagikarp
p360
sg11
VUS,UM,
p361
sg13
VFish
p362
sg15
V10
p363
sg17
V20
p364
sg19
V50
p365
sbag1
(g2
g3
Ntp366
Rp367
(dp368
g7
V170
p369
sg9
VChinchou
p370
sg11
VUS,UM,
p371
sg13
VFish
p372
sg15
V10
p373
sg17
V20
p374
sg19
V5
p375
sbag1
(g2
g3
Ntp376
Rp377
(dp378
g7
V223
p379
sg9
VRemoraid
p380
sg11
VUS,UM,
p381
sg13
VFish
p382
sg15
V10
p383
sg17
V20
p384
sg19
V15
p385
sbag1
(g2
g3
Ntp386
Rp387
(dp388
g7
V746
p389
sg9
VWishiwashi
p390
sg11
VUS,UM,
p391
sg13
VFish
p392
sg15
V10
p393
sg17
V20
p394
sg19
V30
p395
sbag1
(g2
g3
Ntp396
Rp397
(dp398
g7
V129
p399
sg9
VMagikarp
p400
sg11
VUS,UM,
p401
sg13
VFish
p402
sg15
V10
p403
sg17
V25
p404
sg19
V40
p405
sbag1
(g2
g3
Ntp406
Rp407
(dp408
g7
V170
p409
sg9
VChinchou
p410
sg11
VUS,UM,
p411
sg13
VFish
p412
sg15
V10
p413
sg17
V25
p414
sg19
V35
p415
sbag1
(g2
g3
Ntp416
Rp417
(dp418
g7
V223
p419
sg9
VRemoraid
p420
sg11
VUS,UM,
p421
sg13
VFish
p422
sg15
V10
p423
sg17
V25
p424
sg19
V5
p425
sbag1
(g2
g3
Ntp426
Rp427
(dp428
g7
V746
p429
sg9
VWishiwashi
p430
sg11
VUS,UM,
p431
sg13
VFish
p432
sg15
V10
p433
sg17
V25
p434
sg19
V20
p435
sbag1
(g2
g3
Ntp436
Rp437
(dp438
g7
V024
p439
sg9
VArbok
p440
sg11
VUS,UM,
p441
sg13
VTrade
p442
sg15
V22
p443
sg17
g443
sg19
V0
p444
sbag1
(g2
g3
Ntp445
Rp446
(dp447
g7
V256
p448
sg9
VCombusken
p449
sg11
VUS,UM,
p450
sg13
VGrass
p451
sg15
V20
p452
sg17
g452
sg19
V0
p453
sbag1
(g2
g3
Ntp454
Rp455
(dp456
g7
V138
p457
sg9
VOmanyte
p458
sg11
VUS,UM,
p459
sg13
VHelix
p460
sg15
V15
p461
sg17
g461
sg19
V0
p462
sbag1
(g2
g3
Ntp463
Rp464
(dp465
g7
V140
p466
sg9
VKabuto
p467
sg11
VUS,UM,
p468
sg13
VDome
p469
sg15
V15
p470
sg17
g470
sg19
V0
p471
sbag1
(g2
g3
Ntp472
Rp473
(dp474
g7
V345
p475
sg9
VLileep
p476
sg11
VUS,UM,
p477
sg13
VRoot
p478
sg15
V15
p479
sg17
g479
sg19
V0
p480
sbag1
(g2
g3
Ntp481
Rp482
(dp483
g7
V347
p484
sg9
VAnorith
p485
sg11
VUS,UM,
p486
sg13
VClaw
p487
sg15
V15
p488
sg17
g488
sg19
V0
p489
sbag1
(g2
g3
Ntp490
Rp491
(dp492
g7
V408
p493
sg9
VCranidos
p494
sg11
VUS,UM,
p495
sg13
VSkull
p496
sg15
V15
p497
sg17
g497
sg19
V0
p498
sbag1
(g2
g3
Ntp499
Rp500
(dp501
g7
V410
p502
sg9
VShieldon
p503
sg11
VUS,UM,
p504
sg13
VArmor
p505
sg15
V15
p506
sg17
g506
sg19
V0
p507
sbag1
(g2
g3
Ntp508
Rp509
(dp510
g7
V564
p511
sg9
VTirtouga
p512
sg11
VUS,UM,
p513
sg13
VCover
p514
sg15
V15
p515
sg17
g515
sg19
V0
p516
sbag1
(g2
g3
Ntp517
Rp518
(dp519
g7
V566
p520
sg9
VArchen
p521
sg11
VUS,UM,
p522
sg13
VPlume
p523
sg15
V15
p524
sg17
g524
sg19
V0
p525
sbag1
(g2
g3
Ntp526
Rp527
(dp528
g7
V696
p529
sg9
VTyrunt
p530
sg11
VUS,UM,
p531
sg13
VJaw
p532
sg15
V15
p533
sg17
g533
sg19
V0
p534
sbag1
(g2
g3
Ntp535
Rp536
(dp537
g7
V698
p538
sg9
VAmaura
p539
sg11
VUS,UM,
p540
sg13
VSail
p541
sg15
V15
p542
sg17
g542
sg19
V0
p543
sba.