(lp0
ccopy_reg
_reconstructor
p1
(c__main__
WildPokemon
p2
c__builtin__
object
p3
Ntp4
Rp5
(dp6
VpDexNo
p7
V020
p8
sVpSpecies
p9
VRaticate
p10
sVpGames
p11
VSu,M,
p12
sVpArea
p13
VGrass
p14
sVpMinLevel
p15
V24
p16
sVpMaxLevel
p17
V27
p18
sVpRate
p19
V20
p20
sbag1
(g2
g3
Ntp21
Rp22
(dp23
g7
V046
p24
sg9
VParas
p25
sg11
VSu,M,
p26
sg13
VGrass
p27
sg15
V24
p28
sg17
V27
p29
sg19
V20
p30
sbag1
(g2
g3
Ntp31
Rp32
(dp33
g7
V166
p34
sg9
VLedian
p35
sg11
VSu,M,
p36
sg13
VGrass
p37
sg15
V24
p38
sg17
V27
p39
sg19
V20
p40
sbag1
(g2
g3
Ntp41
Rp42
(dp43
g7
V168
p44
sg9
VAriados
p45
sg11
VSu,M,
p46
sg13
VGrass
p47
sg15
V24
p48
sg17
V27
p49
sg19
V20
p50
sbag1
(g2
g3
Ntp51
Rp52
(dp53
g7
V674
p54
sg9
VPancham
p55
sg11
VSu,M,
p56
sg13
VGrass
p57
sg15
V24
p58
sg17
V27
p59
sg19
V20
p60
sbag1
(g2
g3
Ntp61
Rp62
(dp63
g7
V732
p64
sg9
VTrumbeak
p65
sg11
VSu,M,
p66
sg13
VGrass
p67
sg15
V24
p68
sg17
V27
p69
sg19
V20
p70
sbag1
(g2
g3
Ntp71
Rp72
(dp73
g7
V735
p74
sg9
VGumshoos
p75
sg11
VSu,M,
p76
sg13
VGrass
p77
sg15
V24
p78
sg17
V27
p79
sg19
V20
p80
sbag1
(g2
g3
Ntp81
Rp82
(dp83
g7
V755
p84
sg9
VMorelull
p85
sg11
VSu,M,
p86
sg13
VGrass
p87
sg15
V24
p88
sg17
V27
p89
sg19
V10
p90
sbag1
(g2
g3
Ntp91
Rp92
(dp93
g7
V775
p94
sg9
VKomala
p95
sg11
VSu,M,
p96
sg13
VGrass
p97
sg15
V24
p98
sg17
V27
p99
sg19
V10
p100
sbag1
(g2
g3
Ntp101
Rp102
(dp103
g7
V288
p104
sg9
VVigoroth
p105
sg11
VSu,M,
p106
sg13
VGrass
p107
sg15
V27
p108
sg17
g108
sg19
V0
p109
sbag1
(g2
g3
Ntp110
Rp111
(dp112
g7
V047
p113
sg9
VParasect
p114
sg11
VUS,UM,
p115
sg13
VGrass
p116
sg15
V26
p117
sg17
V29
p118
sg19
V10
p119
sbag1
(g2
g3
Ntp120
Rp121
(dp122
g7
V166
p123
sg9
VLedian
p124
sg11
VUS,UM,
p125
sg13
VGrass
p126
sg15
V26
p127
sg17
V29
p128
sg19
V20
p129
sbag1
(g2
g3
Ntp130
Rp131
(dp132
g7
V168
p133
sg9
VAriados
p134
sg11
VUS,UM,
p135
sg13
VGrass
p136
sg15
V26
p137
sg17
V29
p138
sg19
V20
p139
sbag1
(g2
g3
Ntp140
Rp141
(dp142
g7
V674
p143
sg9
VPancham
p144
sg11
VUS,UM,
p145
sg13
VGrass
p146
sg15
V26
p147
sg17
V29
p148
sg19
V20
p149
sbag1
(g2
g3
Ntp150
Rp151
(dp152
g7
V732
p153
sg9
VTrumbeak
p154
sg11
VUS,UM,
p155
sg13
VGrass
p156
sg15
V26
p157
sg17
V29
p158
sg19
V20
p159
sbag1
(g2
g3
Ntp160
Rp161
(dp162
g7
V756
p163
sg9
VShiinotic
p164
sg11
VUS,UM,
p165
sg13
VGrass
p166
sg15
V26
p167
sg17
V29
p168
sg19
V10
p169
sbag1
(g2
g3
Ntp170
Rp171
(dp172
g7
V775
p173
sg9
VKomala
p174
sg11
VUS,UM,
p175
sg13
VGrass
p176
sg15
V26
p177
sg17
V29
p178
sg19
V30
p179
sbag1
(g2
g3
Ntp180
Rp181
(dp182
g7
V391
p183
sg9
VMonferno
p184
sg11
VUS,UM,
p185
sg13
VGrass
p186
sg15
V29
p187
sg17
g187
sg19
V0
p188
sba.