(lp0
ccopy_reg
_reconstructor
p1
(c__main__
WildPokemon
p2
c__builtin__
object
p3
Ntp4
Rp5
(dp6
VpDexNo
p7
V019
p8
sVpSpecies
p9
VRattata
p10
sVpGames
p11
VSu,M,
p12
sVpArea
p13
VGrass
p14
sVpMinLevel
p15
V14
p16
sVpMaxLevel
p17
V17
p18
sVpRate
p19
V10
p20
sbag1
(g2
g3
Ntp21
Rp22
(dp23
g7
V133
p24
sg9
VEevee
p25
sg11
VSu,M,
p26
sg13
VGrass
p27
sg15
V14
p28
sg17
V17
p29
sg19
V10
p30
sbag1
(g2
g3
Ntp31
Rp32
(dp33
g7
V133
p34
sg9
VEevee
p35
sg11
VSu,M,
p36
sg13
VGrass
p37
sg15
V14
p38
sg17
V17
p39
sg19
V5
p40
sbag1
(g2
g3
Ntp41
Rp42
(dp43
g7
V174
p44
sg9
VIgglybuff
p45
sg11
VSu,M,
p46
sg13
VGrass
p47
sg15
V14
p48
sg17
V17
p49
sg19
V10
p50
sbag1
(g2
g3
Ntp51
Rp52
(dp53
g7
V506
p54
sg9
VLillipup
p55
sg11
VSu,M,
p56
sg13
VGrass
p57
sg15
V14
p58
sg17
V17
p59
sg19
V30
p60
sbag1
(g2
g3
Ntp61
Rp62
(dp63
g7
V731
p64
sg9
VPikipek
p65
sg11
VSu,M,
p66
sg13
VGrass
p67
sg15
V14
p68
sg17
V17
p69
sg19
V25
p70
sbag1
(g2
g3
Ntp71
Rp72
(dp73
g7
V734
p74
sg9
VYungoos
p75
sg11
VSu,M,
p76
sg13
VGrass
p77
sg15
V14
p78
sg17
V17
p79
sg19
V25
p80
sbag1
(g2
g3
Ntp81
Rp82
(dp83
g7
V736
p84
sg9
VGrubbin
p85
sg11
VSu,M,
p86
sg13
VGrass
p87
sg15
V14
p88
sg17
V17
p89
sg19
V10
p90
sbag1
(g2
g3
Ntp91
Rp92
(dp93
g7
V749
p94
sg9
VMudbray
p95
sg11
VSu,M,
p96
sg13
VGrass
p97
sg15
V14
p98
sg17
V17
p99
sg19
V20
p100
sbag1
(g2
g3
Ntp101
Rp102
(dp103
g7
V019
p104
sg9
VRattata
p105
sg11
VSu,M,
p106
sg13
VGrass
p107
sg15
V14
p108
sg17
V17
p109
sg19
V10
p110
sbag1
(g2
g3
Ntp111
Rp112
(dp113
g7
V133
p114
sg9
VEevee
p115
sg11
VSu,M,
p116
sg13
VGrass
p117
sg15
V14
p118
sg17
V17
p119
sg19
V10
p120
sbag1
(g2
g3
Ntp121
Rp122
(dp123
g7
V133
p124
sg9
VEevee
p125
sg11
VSu,M,
p126
sg13
VGrass
p127
sg15
V14
p128
sg17
V17
p129
sg19
V5
p130
sbag1
(g2
g3
Ntp131
Rp132
(dp133
g7
V174
p134
sg9
VIgglybuff
p135
sg11
VSu,M,
p136
sg13
VGrass
p137
sg15
V14
p138
sg17
V17
p139
sg19
V10
p140
sbag1
(g2
g3
Ntp141
Rp142
(dp143
g7
V506
p144
sg9
VLillipup
p145
sg11
VSu,M,
p146
sg13
VGrass
p147
sg15
V14
p148
sg17
V17
p149
sg19
V30
p150
sbag1
(g2
g3
Ntp151
Rp152
(dp153
g7
V731
p154
sg9
VPikipek
p155
sg11
VSu,M,
p156
sg13
VGrass
p157
sg15
V14
p158
sg17
V17
p159
sg19
V25
p160
sbag1
(g2
g3
Ntp161
Rp162
(dp163
g7
V734
p164
sg9
VYungoos
p165
sg11
VSu,M,
p166
sg13
VGrass
p167
sg15
V14
p168
sg17
V17
p169
sg19
V25
p170
sbag1
(g2
g3
Ntp171
Rp172
(dp173
g7
V736
p174
sg9
VGrubbin
p175
sg11
VSu,M,
p176
sg13
VGrass
p177
sg15
V14
p178
sg17
V17
p179
sg19
V10
p180
sbag1
(g2
g3
Ntp181
Rp182
(dp183
g7
V741
p184
sg9
VOricorio
p185
sg11
VSu,M,
p186
sg13
VGrass
p187
sg15
V14
p188
sg17
V17
p189
sg19
V20
p190
sbag1
(g2
g3
Ntp191
Rp192
(dp193
g7
V574
p194
sg9
VGothita
p195
sg11
VSu,M,
p196
sg13
VGrass
p197
sg15
V17
p198
sg17
g198
sg19
V0
p199
sbag1
(g2
g3
Ntp200
Rp201
(dp202
g7
V019
p203
sg9
VRattata
p204
sg11
VUS,UM,
p205
sg13
VGrass
p206
sg15
V14
p207
sg17
V17
p208
sg19
V10
p209
sbag1
(g2
g3
Ntp210
Rp211
(dp212
g7
V133
p213
sg9
VEevee
p214
sg11
VUS,UM,
p215
sg13
VGrass
p216
sg15
V14
p217
sg17
V17
p218
sg19
V10
p219
sbag1
(g2
g3
Ntp220
Rp221
(dp222
g7
V133
p223
sg9
VEevee
p224
sg11
VUS,UM,
p225
sg13
VGrass
p226
sg15
V14
p227
sg17
V17
p228
sg19
V5
p229
sbag1
(g2
g3
Ntp230
Rp231
(dp232
g7
V174
p233
sg9
VIgglybuff
p234
sg11
VUS,UM,
p235
sg13
VGrass
p236
sg15
V14
p237
sg17
V17
p238
sg19
V20
p239
sbag1
(g2
g3
Ntp240
Rp241
(dp242
g7
V506
p243
sg9
VLillipup
p244
sg11
VUS,UM,
p245
sg13
VGrass
p246
sg15
V14
p247
sg17
V17
p248
sg19
V30
p249
sbag1
(g2
g3
Ntp250
Rp251
(dp252
g7
V731
p253
sg9
VPikipek
p254
sg11
VUS,UM,
p255
sg13
VGrass
p256
sg15
V14
p257
sg17
V17
p258
sg19
V25
p259
sbag1
(g2
g3
Ntp260
Rp261
(dp262
g7
V734
p263
sg9
VYungoos
p264
sg11
VUS,UM,
p265
sg13
VGrass
p266
sg15
V14
p267
sg17
V17
p268
sg19
V25
p269
sbag1
(g2
g3
Ntp270
Rp271
(dp272
g7
V736
p273
sg9
VGrubbin
p274
sg11
VUS,UM,
p275
sg13
VGrass
p276
sg15
V14
p277
sg17
V17
p278
sg19
V10
p279
sbag1
(g2
g3
Ntp280
Rp281
(dp282
g7
V749
p283
sg9
VMudbray
p284
sg11
VUS,UM,
p285
sg13
VGrass
p286
sg15
V14
p287
sg17
V17
p288
sg19
V20
p289
sbag1
(g2
g3
Ntp290
Rp291
(dp292
g7
V019
p293
sg9
VRattata
p294
sg11
VUS,UM,
p295
sg13
VGrass
p296
sg15
V14
p297
sg17
V17
p298
sg19
V10
p299
sbag1
(g2
g3
Ntp300
Rp301
(dp302
g7
V133
p303
sg9
VEevee
p304
sg11
VUS,UM,
p305
sg13
VGrass
p306
sg15
V14
p307
sg17
V17
p308
sg19
V10
p309
sbag1
(g2
g3
Ntp310
Rp311
(dp312
g7
V133
p313
sg9
VEevee
p314
sg11
VUS,UM,
p315
sg13
VGrass
p316
sg15
V14
p317
sg17
V17
p318
sg19
V5
p319
sbag1
(g2
g3
Ntp320
Rp321
(dp322
g7
V174
p323
sg9
VIgglybuff
p324
sg11
VUS,UM,
p325
sg13
VGrass
p326
sg15
V14
p327
sg17
V17
p328
sg19
V20
p329
sbag1
(g2
g3
Ntp330
Rp331
(dp332
g7
V506
p333
sg9
VLillipup
p334
sg11
VUS,UM,
p335
sg13
VGrass
p336
sg15
V14
p337
sg17
V17
p338
sg19
V30
p339
sbag1
(g2
g3
Ntp340
Rp341
(dp342
g7
V731
p343
sg9
VPikipek
p344
sg11
VUS,UM,
p345
sg13
VGrass
p346
sg15
V14
p347
sg17
V17
p348
sg19
V25
p349
sbag1
(g2
g3
Ntp350
Rp351
(dp352
g7
V734
p353
sg9
VYungoos
p354
sg11
VUS,UM,
p355
sg13
VGrass
p356
sg15
V14
p357
sg17
V17
p358
sg19
V25
p359
sbag1
(g2
g3
Ntp360
Rp361
(dp362
g7
V736
p363
sg9
VGrubbin
p364
sg11
VUS,UM,
p365
sg13
VGrass
p366
sg15
V14
p367
sg17
V17
p368
sg19
V10
p369
sbag1
(g2
g3
Ntp370
Rp371
(dp372
g7
V741
p373
sg9
VOricorio
p374
sg11
VUS,UM,
p375
sg13
VGrass
p376
sg15
V14
p377
sg17
V17
p378
sg19
V20
p379
sbag1
(g2
g3
Ntp380
Rp381
(dp382
g7
V280
p383
sg9
VRalts
p384
sg11
VUS,UM,
p385
sg13
VGrass
p386
sg15
V17
p387
sg17
g387
sg19
V0
p388
sba.