(lp0
ccopy_reg
_reconstructor
p1
(c__main__
WildPokemon
p2
c__builtin__
object
p3
Ntp4
Rp5
(dp6
VpDexNo
p7
V020
p8
sVpSpecies
p9
VRaticate
p10
sVpGames
p11
VSu,M,
p12
sVpArea
p13
VGrass
p14
sVpMinLevel
p15
V40
p16
sVpMaxLevel
p17
V43
p18
sVpRate
p19
V30
p20
sbag1
(g2
g3
Ntp21
Rp22
(dp23
g7
V102
p24
sg9
VExeggcute
p25
sg11
VSu,M,
p26
sg13
VGrass
p27
sg15
V40
p28
sg17
V43
p29
sg19
V10
p30
sbag1
(g2
g3
Ntp31
Rp32
(dp33
g7
V210
p34
sg9
VGranbull
p35
sg11
VSu,M,
p36
sg13
VGrass
p37
sg15
V40
p38
sg17
V43
p39
sg19
V20
p40
sbag1
(g2
g3
Ntp41
Rp42
(dp43
g7
V279
p44
sg9
VPelipper
p45
sg11
VSu,M,
p46
sg13
VGrass
p47
sg15
V40
p48
sg17
V43
p49
sg19
V30
p50
sbag1
(g2
g3
Ntp51
Rp52
(dp53
g7
V423
p54
sg9
VGastrodon
p55
sg11
VSu,M,
p56
sg13
VGrass
p57
sg15
V40
p58
sg17
V43
p59
sg19
V10
p60
sbag1
(g2
g3
Ntp61
Rp62
(dp63
g7
V735
p64
sg9
VGumshoos
p65
sg11
VSu,M,
p66
sg13
VGrass
p67
sg15
V40
p68
sg17
V43
p69
sg19
V30
p70
sbag1
(g2
g3
Ntp71
Rp72
(dp73
g7
V500
p74
sg9
VEmboar
p75
sg11
VSu,M,
p76
sg13
VGrass
p77
sg15
V43
p78
sg17
g78
sg19
V0
p79
sbag1
(g2
g3
Ntp80
Rp81
(dp82
g7
V210
p83
sg9
VGranbull
p84
sg11
VUS,UM,
p85
sg13
VGrass
p86
sg15
V41
p87
sg17
V44
p88
sg19
V20
p89
sbag1
(g2
g3
Ntp90
Rp91
(dp92
g7
V279
p93
sg9
VPelipper
p94
sg11
VUS,UM,
p95
sg13
VGrass
p96
sg15
V41
p97
sg17
V44
p98
sg19
V30
p99
sbag1
(g2
g3
Ntp100
Rp101
(dp102
g7
V423
p103
sg9
VGastrodon
p104
sg11
VUS,UM,
p105
sg13
VGrass
p106
sg15
V41
p107
sg17
V44
p108
sg19
V10
p109
sbag1
(g2
g3
Ntp110
Rp111
(dp112
g7
V676
p113
sg9
VFurfrou
p114
sg11
VUS,UM,
p115
sg13
VGrass
p116
sg15
V41
p117
sg17
V44
p118
sg19
V20
p119
sbag1
(g2
g3
Ntp120
Rp121
(dp122
g7
V686
p123
sg9
VInkay
p124
sg11
VUS,UM,
p125
sg13
VGrass
p126
sg15
V41
p127
sg17
V44
p128
sg19
V20
p129
sbag1
(g2
g3
Ntp130
Rp131
(dp132
g7
V772
p133
sg9
VType: Null
p134
sg11
VUS,UM,
p135
sg13
VGift
p136
sg15
V60
p137
sg17
g137
sg19
V0
p138
sbag1
(g2
g3
Ntp139
Rp140
(dp141
g7
V655
p142
sg9
VDelphox
p143
sg11
VUS,UM,
p144
sg13
VGrass
p145
sg15
V44
p146
sg17
g146
sg19
V0
p147
sba.