(lp0
ccopy_reg
_reconstructor
p1
(c__main__
WildPokemon
p2
c__builtin__
object
p3
Ntp4
Rp5
(dp6
VpDexNo
p7
V650
p8
sVpSpecies
p9
VChespin
p10
sVpGames
p11
VX,Y,
p12
sVpArea
p13
VStarter
p14
sVpMinLevel
p15
V5
p16
sVpMaxLevel
p17
g16
sVpRate
p18
V0
p19
sbag1
(g2
g3
Ntp20
Rp21
(dp22
g7
V653
p23
sg9
VFennekin
p24
sg11
VX,Y,
p25
sg13
VStarter
p26
sg15
g16
sg17
g16
sg18
V0
p27
sbag1
(g2
g3
Ntp28
Rp29
(dp30
g7
V656
p31
sg9
VFroakie
p32
sg11
VX,Y,
p33
sg13
VStarter
p34
sg15
g16
sg17
g16
sg18
V0
p35
sba.