(lp0
ccopy_reg
_reconstructor
p1
(c__main__
WildPokemon
p2
c__builtin__
object
p3
Ntp4
Rp5
(dp6
VpDexNo
p7
V550
p8
sVpSpecies
p9
VBasculin
p10
sVpGames
p11
VB2,
p12
sVpArea
p13
VSurf
p14
sVpMinLevel
p15
V5
p16
sVpMaxLevel
p17
V15
p18
sVpRate
p19
V100
p20
sbag1
(g2
g3
Ntp21
Rp22
(dp23
g7
V550
p24
sg9
VBasculin
p25
sg11
VW2,
p26
sg13
VSurf
p27
sg15
g16
sg17
V15
p28
sg19
V100
p29
sbag1
(g2
g3
Ntp30
Rp31
(dp32
g7
V550
p33
sg9
VBasculin
p34
sg11
g26
sg13
VRippling
p35
sg15
g16
sg17
V15
p36
sg19
V100
p37
sbag1
(g2
g3
Ntp38
Rp39
(dp40
g7
V550
p41
sg9
VBasculin
p42
sg11
g12
sg13
VRippling
p43
sg15
g16
sg17
V15
p44
sg19
V100
p45
sbag1
(g2
g3
Ntp46
Rp47
(dp48
g7
V118
p49
sg9
VGoldeen
p50
sg11
VB2,W2,
p51
sg13
VFish Super
p52
sg15
V40
p53
sg17
V70
p54
sg19
V70
p55
sbag1
(g2
g3
Ntp56
Rp57
(dp58
g7
V550
p59
sg9
VBasculin
p60
sg11
g12
sg13
VFish Super
p61
sg15
V40
p62
sg17
V60
p63
sg19
V30
p64
sbag1
(g2
g3
Ntp65
Rp66
(dp67
g7
V550
p68
sg9
VBasculin
p69
sg11
g26
sg13
VFish Super
p70
sg15
V40
p71
sg17
V60
p72
sg19
V30
p73
sbag1
(g2
g3
Ntp74
Rp75
(dp76
g7
V118
p77
sg9
VGoldeen
p78
sg11
VB2,W2,
p79
sg13
VRippling
p80
sg15
V40
p81
sg17
V60
p82
sg19
V60
p83
sbag1
(g2
g3
Ntp84
Rp85
(dp86
g7
V119
p87
sg9
VSeaking
p88
sg11
VB2,W2,
p89
sg13
VRippling
p90
sg15
V50
p91
sg17
V70
p92
sg19
V10
p93
sbag1
(g2
g3
Ntp94
Rp95
(dp96
g7
V550
p97
sg9
VBasculin
p98
sg11
g26
sg13
VRippling
p99
sg15
V40
p100
sg17
V60
p101
sg19
V30
p102
sbag1
(g2
g3
Ntp103
Rp104
(dp105
g7
V550
p106
sg9
VBasculin
p107
sg11
g12
sg13
VRippling
p108
sg15
V40
p109
sg17
V60
p110
sg19
V30
p111
sbag1
(g2
g3
Ntp112
Rp113
(dp114
g7
V495
p115
sg9
VSnivy
p116
sg11
VB2,W2,
p117
sg13
VStarter
p118
sg15
g16
sg17
g16
sg19
V0
p119
sbag1
(g2
g3
Ntp120
Rp121
(dp122
g7
V498
p123
sg9
VTepig
p124
sg11
VB2,W2,
p125
sg13
VStarter
p126
sg15
g16
sg17
g16
sg19
V0
p127
sbag1
(g2
g3
Ntp128
Rp129
(dp130
g7
V501
p131
sg9
VOshawott
p132
sg11
VB2,W2,
p133
sg13
VStarter
p134
sg15
g16
sg17
g16
sg19
V0
p135
sba.