(lp0
ccopy_reg
_reconstructor
p1
(c__main__
WildPokemon
p2
c__builtin__
object
p3
Ntp4
Rp5
(dp6
VpDexNo
p7
V037
p8
sVpSpecies
p9
VVulpix
p10
sVpGames
p11
VSw,
p12
sVpArea
p13
VGrass
p14
sVpMinLevel
p15
V35
p16
sVpMaxLevel
p17
V40
p18
sVpRate
p19
V0
p20
sbag1
(g2
g3
Ntp21
Rp22
(dp23
g7
V044
p24
sg9
VGloom
p25
sg11
VSw,Sh,
p26
sg13
VGrass
p27
sg15
V35
p28
sg17
V40
p29
sg19
g20
sbag1
(g2
g3
Ntp30
Rp31
(dp32
g7
V058
p33
sg9
VGrowlithe
p34
sg11
VSh,
p35
sg13
VGrass
p36
sg15
V35
p37
sg17
V40
p38
sg19
g20
sbag1
(g2
g3
Ntp39
Rp40
(dp41
g7
V225
p42
sg9
VDelibird
p43
sg11
VSw,Sh,
p44
sg13
VGrass
p45
sg15
V35
p46
sg17
V40
p47
sg19
g20
sbag1
(g2
g3
Ntp48
Rp49
(dp50
g7
V279
p51
sg9
VPelipper
p52
sg11
VSw,Sh,
p53
sg13
VGrass
p54
sg15
V35
p55
sg17
V40
p56
sg19
g20
sbag1
(g2
g3
Ntp57
Rp58
(dp59
g7
V310
p60
sg9
VManectric
p61
sg11
VSw,Sh,
p62
sg13
VGrass
p63
sg15
V35
p64
sg17
V40
p65
sg19
g20
sbag1
(g2
g3
Ntp66
Rp67
(dp68
g7
V315
p69
sg9
VRoselia
p70
sg11
VSw,Sh,
p71
sg13
VGrass
p72
sg15
V35
p73
sg17
V40
p74
sg19
g20
sbag1
(g2
g3
Ntp75
Rp76
(dp77
g7
V342
p78
sg9
VCrawdaunt
p79
sg11
VSw,Sh,
p80
sg13
VGrass
p81
sg15
V35
p82
sg17
V40
p83
sg19
g20
sbag1
(g2
g3
Ntp84
Rp85
(dp86
g7
V343
p87
sg9
VBaltoy
p88
sg11
VSw,Sh,
p89
sg13
VGrass
p90
sg15
V35
p91
sg17
V40
p92
sg19
g20
sbag1
(g2
g3
Ntp93
Rp94
(dp95
g7
V459
p96
sg9
VSnover
p97
sg11
VSw,Sh,
p98
sg13
VGrass
p99
sg15
V35
p100
sg17
V40
p101
sg19
g20
sbag1
(g2
g3
Ntp102
Rp103
(dp104
g7
V510
p105
sg9
VLiepard
p106
sg11
VSw,Sh,
p107
sg13
VGrass
p108
sg15
V35
p109
sg17
V40
p110
sg19
g20
sbag1
(g2
g3
Ntp111
Rp112
(dp113
g7
V517
p114
sg9
VMunna
p115
sg11
VSw,Sh,
p116
sg13
VGrass
p117
sg15
V35
p118
sg17
V40
p119
sg19
g20
sbag1
(g2
g3
Ntp120
Rp121
(dp122
g7
V521
p123
sg9
VUnfezant
p124
sg11
VSw,Sh,
p125
sg13
VGrass
p126
sg15
V35
p127
sg17
V40
p128
sg19
g20
sbag1
(g2
g3
Ntp129
Rp130
(dp131
g7
V558
p132
sg9
VCrustle
p133
sg11
VSw,Sh,
p134
sg13
VGrass
p135
sg15
V35
p136
sg17
V40
p137
sg19
g20
sbag1
(g2
g3
Ntp138
Rp139
(dp140
g7
V583
p141
sg9
VVanillish
p142
sg11
VSw,Sh,
p143
sg13
VGrass
p144
sg15
V35
p145
sg17
V40
p146
sg19
g20
sbag1
(g2
g3
Ntp147
Rp148
(dp149
g7
V599
p150
sg9
VKlink
p151
sg11
VSw,Sh,
p152
sg13
VGrass
p153
sg15
V35
p154
sg17
V40
p155
sg19
g20
sbag1
(g2
g3
Ntp156
Rp157
(dp158
g7
V660
p159
sg9
VDiggersby
p160
sg11
VSw,Sh,
p161
sg13
VGrass
p162
sg15
V35
p163
sg17
V40
p164
sg19
g20
sbag1
(g2
g3
Ntp165
Rp166
(dp167
g7
V737
p168
sg9
VCharjabug
p169
sg11
VSw,Sh,
p170
sg13
VGrass
p171
sg15
V35
p172
sg17
V40
p173
sg19
g20
sbag1
(g2
g3
Ntp174
Rp175
(dp176
g7
V750
p177
sg9
VMudsdale
p178
sg11
VSw,Sh,
p179
sg13
VGrass
p180
sg15
V35
p181
sg17
V40
p182
sg19
g20
sbag1
(g2
g3
Ntp183
Rp184
(dp185
g7
V760
p186
sg9
VBewear
p187
sg11
VSw,Sh,
p188
sg13
VGrass
p189
sg15
V35
p190
sg17
V40
p191
sg19
g20
sbag1
(g2
g3
Ntp192
Rp193
(dp194
g7
V762
p195
sg9
VSteenee
p196
sg11
VSw,Sh,
p197
sg13
VGrass
p198
sg15
V35
p199
sg17
V40
p200
sg19
g20
sbag1
(g2
g3
Ntp201
Rp202
(dp203
g7
V420
p204
sg9
VCherubi
p205
sg11
VSw,Sh,
p206
sg13
VBerry tree
p207
sg15
V35
p208
sg17
V40
p209
sg19
V25
p210
sbag1
(g2
g3
Ntp211
Rp212
(dp213
g7
V820
p214
sg9
VGreedent
p215
sg11
VSw,Sh,
p216
sg13
VBerry tree
p217
sg15
V35
p218
sg17
V40
p219
sg19
V75
p220
sbag1
(g2
g3
Ntp221
Rp222
(dp223
g7
V129
p224
sg9
VMagikarp
p225
sg11
VSw,Sh,
p226
sg13
VFishing
p227
sg15
V35
p228
sg17
V40
p229
sg19
V50
p230
sbag1
(g2
g3
Ntp231
Rp232
(dp233
g7
V130
p234
sg9
VGyarados
p235
sg11
VSw,Sh,
p236
sg13
VFishing
p237
sg15
V35
p238
sg17
V40
p239
sg19
V5
p240
sbag1
(g2
g3
Ntp241
Rp242
(dp243
g7
V224
p244
sg9
VOctillery
p245
sg11
VSw,Sh,
p246
sg13
VFishing
p247
sg15
V35
p248
sg17
V40
p249
sg19
V25
p250
sbag1
(g2
g3
Ntp251
Rp252
(dp253
g7
V746
p254
sg9
VWishiwashi
p255
sg11
VSw,Sh,
p256
sg13
VFishing
p257
sg15
V35
p258
sg17
V40
p259
sg19
V20
p260
sbag1
(g2
g3
Ntp261
Rp262
(dp263
g7
V037
p264
sg9
VVulpix
p265
sg11
g12
sg13
VGrass
p266
sg15
V36
p267
sg17
V40
p268
sg19
g20
sbag1
(g2
g3
Ntp269
Rp270
(dp271
g7
V058
p272
sg9
VGrowlithe
p273
sg11
g35
sg13
VGrass
p274
sg15
V36
p275
sg17
V40
p276
sg19
g20
sbag1
(g2
g3
Ntp277
Rp278
(dp279
g7
V067
p280
sg9
VMachoke
p281
sg11
VSw,Sh,
p282
sg13
VGrass
p283
sg15
V36
p284
sg17
V40
p285
sg19
g20
sbag1
(g2
g3
Ntp286
Rp287
(dp288
g7
V099
p289
sg9
VKingler
p290
sg11
VSw,Sh,
p291
sg13
VGrass
p292
sg15
V36
p293
sg17
V40
p294
sg19
g20
sbag1
(g2
g3
Ntp295
Rp296
(dp297
g7
V225
p298
sg9
VDelibird
p299
sg11
VSw,Sh,
p300
sg13
VGrass
p301
sg15
V36
p302
sg17
V40
p303
sg19
g20
sbag1
(g2
g3
Ntp304
Rp305
(dp306
g7
V342
p307
sg9
VCrawdaunt
p308
sg11
VSw,Sh,
p309
sg13
VGrass
p310
sg15
V36
p311
sg17
V40
p312
sg19
g20
sbag1
(g2
g3
Ntp313
Rp314
(dp315
g7
V344
p316
sg9
VClaydol
p317
sg11
VSw,Sh,
p318
sg13
VGrass
p319
sg15
V36
p320
sg17
V40
p321
sg19
g20
sbag1
(g2
g3
Ntp322
Rp323
(dp324
g7
V426
p325
sg9
VDrifblim
p326
sg11
VSw,Sh,
p327
sg13
VGrass
p328
sg15
V36
p329
sg17
V40
p330
sg19
g20
sbag1
(g2
g3
Ntp331
Rp332
(dp333
g7
V437
p334
sg9
VBronzong
p335
sg11
VSw,Sh,
p336
sg13
VGrass
p337
sg15
V36
p338
sg17
V40
p339
sg19
g20
sbag1
(g2
g3
Ntp340
Rp341
(dp342
g7
V459
p343
sg9
VSnover
p344
sg11
VSw,Sh,
p345
sg13
VGrass
p346
sg15
V36
p347
sg17
V40
p348
sg19
g20
sbag1
(g2
g3
Ntp349
Rp350
(dp351
g7
V537
p352
sg9
VSeismitoad
p353
sg11
VSw,Sh,
p354
sg13
VGrass
p355
sg15
V36
p356
sg17
V40
p357
sg19
g20
sbag1
(g2
g3
Ntp358
Rp359
(dp360
g7
V558
p361
sg9
VCrustle
p362
sg11
VSw,Sh,
p363
sg13
VGrass
p364
sg15
V36
p365
sg17
V40
p366
sg19
g20
sbag1
(g2
g3
Ntp367
Rp368
(dp369
g7
V583
p370
sg9
VVanillish
p371
sg11
VSw,Sh,
p372
sg13
VGrass
p373
sg15
V36
p374
sg17
V40
p375
sg19
g20
sbag1
(g2
g3
Ntp376
Rp377
(dp378
g7
V610
p379
sg9
VAxew
p380
sg11
VSw,Sh,
p381
sg13
VGrass
p382
sg15
V36
p383
sg17
V40
p384
sg19
g20
sbag1
(g2
g3
Ntp385
Rp386
(dp387
g7
V750
p388
sg9
VMudsdale
p389
sg11
VSw,Sh,
p390
sg13
VGrass
p391
sg15
V36
p392
sg17
V40
p393
sg19
g20
sbag1
(g2
g3
Ntp394
Rp395
(dp396
g7
V760
p397
sg9
VBewear
p398
sg11
VSw,Sh,
p399
sg13
VGrass
p400
sg15
V36
p401
sg17
V40
p402
sg19
g20
sbag1
(g2
g3
Ntp403
Rp404
(dp405
g7
V537
p406
sg9
VSeismitoad
p407
sg11
VSw,Sh,
p408
sg13
VWanderer
p409
sg15
V60
p410
sg17
g410
sg19
g20
sbag1
(g2
g3
Ntp411
Rp412
(dp413
g7
V460
p414
sg9
VAbomasnow
p415
sg11
VSw,Sh,
p416
sg13
VWanderer
p417
sg15
V60
p418
sg17
g418
sg19
g20
sbag1
(g2
g3
Ntp419
Rp420
(dp421
g7
V612
p422
sg9
VHaxorus
p423
sg11
VSw,Sh,
p424
sg13
VWanderer
p425
sg15
V60
p426
sg17
g426
sg19
g20
sbag1
(g2
g3
Ntp427
Rp428
(dp429
g7
V845
p430
sg9
VCramorant
p431
sg11
VSw,Sh,
p432
sg13
VWanderer
p433
sg15
V65
p434
sg17
g434
sg19
V0
p435
sba.