(lp0
ccopy_reg
_reconstructor
p1
(c__main__
WildPokemon
p2
c__builtin__
object
p3
Ntp4
Rp5
(dp6
VpDexNo
p7
V010
p8
sVpSpecies
p9
VCaterpie
p10
sVpGames
p11
VG,
p12
sVpArea
p13
VHeadbutt
p14
sVpMinLevel
p15
V10
p16
sVpMaxLevel
p17
g16
sVpRate
p18
V50
p19
sbag1
(g2
g3
Ntp20
Rp21
(dp22
g7
V012
p23
sg9
VButterfree
p24
sg11
g12
sg13
VHeadbutt
p25
sg15
V10
p26
sg17
g26
sg18
V10
p27
sbag1
(g2
g3
Ntp28
Rp29
(dp30
g7
V013
p31
sg9
VWeedle
p32
sg11
VS,
p33
sg13
VHeadbutt
p34
sg15
V10
p35
sg17
g35
sg18
V50
p36
sbag1
(g2
g3
Ntp37
Rp38
(dp39
g7
V015
p40
sg9
VBeedrill
p41
sg11
g33
sg13
VHeadbutt
p42
sg15
V10
p43
sg17
g43
sg18
V10
p44
sbag1
(g2
g3
Ntp45
Rp46
(dp47
g7
V102
p48
sg9
VExeggcute
p49
sg11
VG,S,
p50
sg13
VHeadbutt
p51
sg15
V10
p52
sg17
g52
sg18
V10
p53
sbag1
(g2
g3
Ntp54
Rp55
(dp56
g7
V204
p57
sg9
VPineco
p58
sg11
VG,S,
p59
sg13
VHeadbutt
p60
sg15
V10
p61
sg17
g61
sg18
V30
p62
sbag1
(g2
g3
Ntp63
Rp64
(dp65
g7
V021
p66
sg9
VSpearow
p67
sg11
VC,
p68
sg13
VHeadbutt
p69
sg15
V10
p70
sg17
g70
sg18
V65
p71
sbag1
(g2
g3
Ntp72
Rp73
(dp74
g7
V190
p75
sg9
VAipom
p76
sg11
g68
sg13
VHeadbutt
p77
sg15
V10
p78
sg17
g78
sg18
V20
p79
sbag1
(g2
g3
Ntp80
Rp81
(dp82
g7
V023
p83
sg9
VEkans
p84
sg11
g68
sg13
VHeadbutt
p85
sg15
V10
p86
sg17
g86
sg18
V15
p87
sbag1
(g2
g3
Ntp88
Rp89
(dp90
g7
V010
p91
sg9
VCaterpie
p92
sg11
g12
sg13
VHeadbutt
p93
sg15
V10
p94
sg17
g94
sg18
V65
p95
sbag1
(g2
g3
Ntp96
Rp97
(dp98
g7
V011
p99
sg9
VMetapod
p100
sg11
g12
sg13
VHeadbutt
p101
sg15
V10
p102
sg17
g102
sg18
V15
p103
sbag1
(g2
g3
Ntp104
Rp105
(dp106
g7
V012
p107
sg9
VButterfree
p108
sg11
g12
sg13
VHeadbutt
p109
sg15
V10
p110
sg17
g110
sg18
V10
p111
sbag1
(g2
g3
Ntp112
Rp113
(dp114
g7
V013
p115
sg9
VWeedle
p116
sg11
g33
sg13
VHeadbutt
p117
sg15
V10
p118
sg17
g118
sg18
V65
p119
sbag1
(g2
g3
Ntp120
Rp121
(dp122
g7
V014
p123
sg9
VKakuna
p124
sg11
g33
sg13
VHeadbutt
p125
sg15
V10
p126
sg17
g126
sg18
V15
p127
sbag1
(g2
g3
Ntp128
Rp129
(dp130
g7
V015
p131
sg9
VBeedrill
p132
sg11
g33
sg13
VHeadbutt
p133
sg15
V10
p134
sg17
g134
sg18
V10
p135
sbag1
(g2
g3
Ntp136
Rp137
(dp138
g7
V102
p139
sg9
VExeggcute
p140
sg11
VG,S,
p141
sg13
VHeadbutt
p142
sg15
V10
p143
sg17
g143
sg18
V10
p144
sbag1
(g2
g3
Ntp145
Rp146
(dp147
g7
V021
p148
sg9
VSpearow
p149
sg11
g68
sg13
VHeadbutt
p150
sg15
V10
p151
sg17
g151
sg18
V50
p152
sbag1
(g2
g3
Ntp153
Rp154
(dp155
g7
V214
p156
sg9
VHeracross
p157
sg11
g68
sg13
VHeadbutt
p158
sg15
V10
p159
sg17
g159
sg18
V30
p160
sbag1
(g2
g3
Ntp161
Rp162
(dp163
g7
V190
p164
sg9
VAipom
p165
sg11
g68
sg13
VHeadbutt
p166
sg15
V10
p167
sg17
g167
sg18
V20
p168
sbag1
(g2
g3
Ntp169
Rp170
(dp171
g7
V021
p172
sg9
VSpearow
p173
sg11
VHG,SS,
p174
sg13
VHeadbutt
p175
sg15
V3
p176
sg17
V5
p177
sg18
V50
p178
sbag1
(g2
g3
Ntp179
Rp180
(dp181
g7
V190
p182
sg9
VAipom
p183
sg11
VHG,SS,
p184
sg13
VHeadbutt
p185
sg15
g176
sg17
g177
sg18
V20
p186
sbag1
(g2
g3
Ntp187
Rp188
(dp189
g7
V214
p190
sg9
VHeracross
p191
sg11
VHG,SS,
p192
sg13
VHeadbutt
p193
sg15
V2
p194
sg17
g177
sg18
V30
p195
sbag1
(g2
g3
Ntp196
Rp197
(dp198
g7
V021
p199
sg9
VSpearow
p200
sg11
VHG,SS,
p201
sg13
VHeadbutt
p202
sg15
V6
p203
sg17
V8
p204
sg18
V80
p205
sbag1
(g2
g3
Ntp206
Rp207
(dp208
g7
V190
p209
sg9
VAipom
p210
sg11
VHG,SS,
p211
sg13
VHeadbutt
p212
sg15
g203
sg17
g204
sg18
V20
p213
sba.