(lp0
ccopy_reg
_reconstructor
p1
(c__main__
WildPokemon
p2
c__builtin__
object
p3
Ntp4
Rp5
(dp6
VpDexNo
p7
V079
p8
sVpSpecies
p9
VSlowpoke
p10
sVpGames
p11
VX,Y,
p12
sVpArea
p13
VGrass
p14
sVpMinLevel
p15
V25
p16
sVpMaxLevel
p17
V27
p18
sVpRate
p19
V40
p20
sbag1
(g2
g3
Ntp21
Rp22
(dp23
g7
V102
p24
sg9
VExeggcute
p25
sg11
VX,Y,
p26
sg13
VGrass
p27
sg15
V26
p28
sg17
g28
sg19
V10
p29
sbag1
(g2
g3
Ntp30
Rp31
(dp32
g7
V441
p33
sg9
VChatot
p34
sg11
VX,Y,
p35
sg13
VGrass
p36
sg15
V25
p37
sg17
V27
p38
sg19
V35
p39
sbag1
(g2
g3
Ntp40
Rp41
(dp42
g7
V686
p43
sg9
VInkay
p44
sg11
VX,Y,
p45
sg13
VGrass
p46
sg15
V25
p47
sg17
V27
p48
sg19
V15
p49
sbag1
(g2
g3
Ntp50
Rp51
(dp52
g7
V079
p53
sg9
VSlowpoke
p54
sg11
VX,Y,
p55
sg13
VHorde Encounter
p56
sg15
V13
p57
sg17
g57
sg19
V35
p58
sbag1
(g2
g3
Ntp59
Rp60
(dp61
g7
V102
p62
sg9
VExeggcute
p63
sg11
VX,Y,
p64
sg13
VHorde Encounter
p65
sg15
V14
p66
sg17
g66
sg19
V5
p67
sbag1
(g2
g3
Ntp68
Rp69
(dp70
g7
V278
p71
sg9
VWingull
p72
sg11
VX,Y,
p73
sg13
VHorde Encounter
p74
sg15
V13
p75
sg17
g75
sg19
V60
p76
sbag1
(g2
g3
Ntp77
Rp78
(dp79
g7
V072
p80
sg9
VTentacool
p81
sg11
VX,Y,
p82
sg13
VSurf
p83
sg15
V25
p84
sg17
V27
p85
sg19
V84
p86
sbag1
(g2
g3
Ntp87
Rp88
(dp89
g7
V131
p90
sg9
VLapras
p91
sg11
VX,Y,
p92
sg13
VSurf
p93
sg15
V27
p94
sg17
g94
sg19
V1
p95
sbag1
(g2
g3
Ntp96
Rp97
(dp98
g7
V458
p99
sg9
VMantyke
p100
sg11
VX,Y,
p101
sg13
VSurf
p102
sg15
V27
p103
sg17
g103
sg19
V15
p104
sbag1
(g2
g3
Ntp105
Rp106
(dp107
g7
V370
p108
sg9
VLuvdisc
p109
sg11
VX,Y,
p110
sg13
VFish Old
p111
sg15
V15
p112
sg17
g112
sg19
V100
p113
sbag1
(g2
g3
Ntp114
Rp115
(dp116
g7
V170
p117
sg9
VChinchou
p118
sg11
VX,Y,
p119
sg13
VFish Good
p120
sg15
V25
p121
sg17
g121
sg19
V35
p122
sbag1
(g2
g3
Ntp123
Rp124
(dp125
g7
V223
p126
sg9
VRemoraid
p127
sg11
VX,Y,
p128
sg13
VFish Good
p129
sg15
V25
p130
sg17
g130
sg19
V65
p131
sbag1
(g2
g3
Ntp132
Rp133
(dp134
g7
V171
p135
sg9
VLanturn
p136
sg11
VX,Y,
p137
sg13
VFish Super
p138
sg15
V35
p139
sg17
g139
sg19
V5
p140
sbag1
(g2
g3
Ntp141
Rp142
(dp143
g7
V224
p144
sg9
VOctillery
p145
sg11
VX,Y,
p146
sg13
VFish Super
p147
sg15
V35
p148
sg17
g148
sg19
V35
p149
sbag1
(g2
g3
Ntp150
Rp151
(dp152
g7
V594
p153
sg9
VAlomomola
p154
sg11
VX,Y,
p155
sg13
VFish Super
p156
sg15
V35
p157
sg17
g157
sg19
V60
p158
sbag1
(g2
g3
Ntp159
Rp160
(dp161
g7
V557
p162
sg9
VDwebble
p163
sg11
VX,Y,
p164
sg13
VRock Smash
p165
sg15
V23
p166
sg17
V25
p167
sg19
V66
p168
sbag1
(g2
g3
Ntp169
Rp170
(dp171
g7
V688
p172
sg9
VBinacle
p173
sg11
VX,Y,
p174
sg13
VRock Smash
p175
sg15
V23
p176
sg17
V25
p177
sg19
V34
p178
sba.