(lp0
ccopy_reg
_reconstructor
p1
(c__main__
WildPokemon
p2
c__builtin__
object
p3
Ntp4
Rp5
(dp6
VpDexNo
p7
V239
p8
sVpSpecies
p9
VElekid
p10
sVpGames
p11
VSw,Sh,
p12
sVpArea
p13
VGrass
p14
sVpMinLevel
p15
V60
p16
sVpMaxLevel
p17
V65
p18
sVpRate
p19
V0
p20
sbag1
(g2
g3
Ntp21
Rp22
(dp23
g7
V240
p24
sg9
VMagby
p25
sg11
VSw,Sh,
p26
sg13
VGrass
p27
sg15
V60
p28
sg17
V65
p29
sg19
g20
sbag1
(g2
g3
Ntp30
Rp31
(dp32
g7
V439
p33
sg9
VMime Jr.
p34
sg11
VSw,Sh,
p35
sg13
VGrass
p36
sg15
V60
p37
sg17
V65
p38
sg19
g20
sbag1
(g2
g3
Ntp39
Rp40
(dp41
g7
V446
p42
sg9
VMunchlax
p43
sg11
VSw,Sh,
p44
sg13
VGrass
p45
sg15
V60
p46
sg17
V65
p47
sg19
g20
sbag1
(g2
g3
Ntp48
Rp49
(dp50
g7
V546
p51
sg9
VCottonee
p52
sg11
VSw,Sh,
p53
sg13
VGrass
p54
sg15
V60
p55
sg17
V65
p56
sg19
g20
sbag1
(g2
g3
Ntp57
Rp58
(dp59
g7
V582
p60
sg9
VVanillite
p61
sg11
VSw,Sh,
p62
sg13
VGrass
p63
sg15
V60
p64
sg17
V65
p65
sg19
g20
sbag1
(g2
g3
Ntp66
Rp67
(dp68
g7
V751
p69
sg9
VDewpider
p70
sg11
VSw,Sh,
p71
sg13
VGrass
p72
sg15
V60
p73
sg17
V65
p74
sg19
g20
sbag1
(g2
g3
Ntp75
Rp76
(dp77
g7
V819
p78
sg9
VSkwovet
p79
sg11
VSw,Sh,
p80
sg13
VGrass
p81
sg15
V60
p82
sg17
V65
p83
sg19
g20
sbag1
(g2
g3
Ntp84
Rp85
(dp86
g7
V829
p87
sg9
VGossifleur
p88
sg11
VSw,Sh,
p89
sg13
VGrass
p90
sg15
V60
p91
sg17
V65
p92
sg19
g20
sbag1
(g2
g3
Ntp93
Rp94
(dp95
g7
V835
p96
sg9
VYamper
p97
sg11
VSw,Sh,
p98
sg13
VGrass
p99
sg15
V60
p100
sg17
V65
p101
sg19
g20
sbag1
(g2
g3
Ntp102
Rp103
(dp104
g7
V856
p105
sg9
VHatenna
p106
sg11
VSw,Sh,
p107
sg13
VGrass
p108
sg15
V60
p109
sg17
V65
p110
sg19
g20
sbag1
(g2
g3
Ntp111
Rp112
(dp113
g7
V446
p114
sg9
VMunchlax
p115
sg11
VSw,Sh,
p116
sg13
VBerry tree
p117
sg15
V60
p118
sg17
V65
p119
sg19
V10
p120
sbag1
(g2
g3
Ntp121
Rp122
(dp123
g7
V819
p124
sg9
VSkwovet
p125
sg11
VSw,Sh,
p126
sg13
VBerry tree
p127
sg15
V60
p128
sg17
V65
p129
sg19
V60
p130
sbag1
(g2
g3
Ntp131
Rp132
(dp133
g7
V820
p134
sg9
VGreedent
p135
sg11
VSw,Sh,
p136
sg13
VBerry tree
p137
sg15
V60
p138
sg17
V65
p139
sg19
V30
p140
sbag1
(g2
g3
Ntp141
Rp142
(dp143
g7
V129
p144
sg9
VMagikarp
p145
sg11
VSw,Sh,
p146
sg13
VFishing
p147
sg15
V60
p148
sg17
V65
p149
sg19
V20
p150
sbag1
(g2
g3
Ntp151
Rp152
(dp153
g7
V130
p154
sg9
VGyarados
p155
sg11
VSw,Sh,
p156
sg13
VFishing
p157
sg15
V60
p158
sg17
V65
p159
sg19
V15
p160
sbag1
(g2
g3
Ntp161
Rp162
(dp163
g7
V147
p164
sg9
VDratini
p165
sg11
VSw,Sh,
p166
sg13
VFishing
p167
sg15
V60
p168
sg17
V65
p169
sg19
V5
p170
sbag1
(g2
g3
Ntp171
Rp172
(dp173
g7
V339
p174
sg9
VBarboach
p175
sg11
VSw,Sh,
p176
sg13
VFishing
p177
sg15
V60
p178
sg17
V65
p179
sg19
V20
p180
sbag1
(g2
g3
Ntp181
Rp182
(dp183
g7
V340
p184
sg9
VWhiscash
p185
sg11
VSw,Sh,
p186
sg13
VFishing
p187
sg15
V60
p188
sg17
V65
p189
sg19
V15
p190
sbag1
(g2
g3
Ntp191
Rp192
(dp193
g7
V349
p194
sg9
VFeebas
p195
sg11
VSw,Sh,
p196
sg13
VFishing
p197
sg15
V60
p198
sg17
V65
p199
sg19
V5
p200
sbag1
(g2
g3
Ntp201
Rp202
(dp203
g7
V550
p204
sg9
VBasculin
p205
sg11
VSw,
p206
sg13
VFishing
p207
sg15
V60
p208
sg17
V65
p209
sg19
V20
p210
sbag1
(g2
g3
Ntp211
Rp212
(dp213
g7
V550
p214
sg9
VBasculin
p215
sg11
VSh,
p216
sg13
VFishing
p217
sg15
V60
p218
sg17
V65
p219
sg19
V20
p220
sbag1
(g2
g3
Ntp221
Rp222
(dp223
g7
V125
p224
sg9
VElectabuzz
p225
sg11
VSw,Sh,
p226
sg13
VGrass
p227
sg15
V60
p228
sg17
V65
p229
sg19
g20
sbag1
(g2
g3
Ntp230
Rp231
(dp232
g7
V126
p233
sg9
VMagmar
p234
sg11
VSw,Sh,
p235
sg13
VGrass
p236
sg15
V60
p237
sg17
V65
p238
sg19
g20
sbag1
(g2
g3
Ntp239
Rp240
(dp241
g7
V133
p242
sg9
VEevee
p243
sg11
VSw,Sh,
p244
sg13
VGrass
p245
sg15
V60
p246
sg17
V65
p247
sg19
g20
sbag1
(g2
g3
Ntp248
Rp249
(dp250
g7
V213
p251
sg9
VShuckle
p252
sg11
VSw,Sh,
p253
sg13
VGrass
p254
sg15
V60
p255
sg17
V65
p256
sg19
g20
sbag1
(g2
g3
Ntp257
Rp258
(dp259
g7
V264
p260
sg9
VLinoone
p261
sg11
VSw,Sh,
p262
sg13
VGrass
p263
sg15
V60
p264
sg17
V65
p265
sg19
g20
sbag1
(g2
g3
Ntp266
Rp267
(dp268
g7
V333
p269
sg9
VSwablu
p270
sg11
VSw,Sh,
p271
sg13
VGrass
p272
sg15
V60
p273
sg17
V65
p274
sg19
g20
sbag1
(g2
g3
Ntp275
Rp276
(dp277
g7
V531
p278
sg9
VAudino
p279
sg11
VSw,Sh,
p280
sg13
VGrass
p281
sg15
V60
p282
sg17
V65
p283
sg19
g20
sbag1
(g2
g3
Ntp284
Rp285
(dp286
g7
V546
p287
sg9
VCottonee
p288
sg11
VSw,Sh,
p289
sg13
VGrass
p290
sg15
V60
p291
sg17
V65
p292
sg19
g20
sbag1
(g2
g3
Ntp293
Rp294
(dp295
g7
V583
p296
sg9
VVanillish
p297
sg11
VSw,Sh,
p298
sg13
VGrass
p299
sg15
V60
p300
sg17
V65
p301
sg19
g20
sbag1
(g2
g3
Ntp302
Rp303
(dp304
g7
V596
p305
sg9
VGalvantula
p306
sg11
VSw,Sh,
p307
sg13
VGrass
p308
sg15
V60
p309
sg17
V65
p310
sg19
g20
sbag1
(g2
g3
Ntp311
Rp312
(dp313
g7
V615
p314
sg9
VCryogonal
p315
sg11
VSw,Sh,
p316
sg13
VGrass
p317
sg15
V60
p318
sg17
V65
p319
sg19
g20
sbag1
(g2
g3
Ntp320
Rp321
(dp322
g7
V696
p323
sg9
VTyrunt
p324
sg11
VSw,Sh,
p325
sg13
VGrass
p326
sg15
V60
p327
sg17
V65
p328
sg19
g20
sbag1
(g2
g3
Ntp329
Rp330
(dp331
g7
V715
p332
sg9
VNoivern
p333
sg11
VSw,Sh,
p334
sg13
VGrass
p335
sg15
V60
p336
sg17
V65
p337
sg19
g20
sbag1
(g2
g3
Ntp338
Rp339
(dp340
g7
V752
p341
sg9
VAraquanid
p342
sg11
VSw,Sh,
p343
sg13
VGrass
p344
sg15
V60
p345
sg17
V65
p346
sg19
g20
sbag1
(g2
g3
Ntp347
Rp348
(dp349
g7
V778
p350
sg9
VMimikyu
p351
sg11
VSw,Sh,
p352
sg13
VGrass
p353
sg15
V60
p354
sg17
V65
p355
sg19
g20
sbag1
(g2
g3
Ntp356
Rp357
(dp358
g7
V819
p359
sg9
VSkwovet
p360
sg11
VSw,Sh,
p361
sg13
VGrass
p362
sg15
V60
p363
sg17
V65
p364
sg19
g20
sbag1
(g2
g3
Ntp365
Rp366
(dp367
g7
V822
p368
sg9
VCorvisquire
p369
sg11
VSw,Sh,
p370
sg13
VGrass
p371
sg15
V60
p372
sg17
V65
p373
sg19
g20
sbag1
(g2
g3
Ntp374
Rp375
(dp376
g7
V829
p377
sg9
VGossifleur
p378
sg11
VSw,Sh,
p379
sg13
VGrass
p380
sg15
V60
p381
sg17
V65
p382
sg19
g20
sbag1
(g2
g3
Ntp383
Rp384
(dp385
g7
V836
p386
sg9
VBoltund
p387
sg11
VSw,Sh,
p388
sg13
VGrass
p389
sg15
V60
p390
sg17
V65
p391
sg19
g20
sbag1
(g2
g3
Ntp392
Rp393
(dp394
g7
V838
p395
sg9
VCarkol
p396
sg11
VSw,Sh,
p397
sg13
VGrass
p398
sg15
V60
p399
sg17
V65
p400
sg19
g20
sbag1
(g2
g3
Ntp401
Rp402
(dp403
g7
V857
p404
sg9
VHattrem
p405
sg11
VSw,Sh,
p406
sg13
VGrass
p407
sg15
V60
p408
sg17
V65
p409
sg19
g20
sbag1
(g2
g3
Ntp410
Rp411
(dp412
g7
V876
p413
sg9
VIndeedee
p414
sg11
g206
sg13
VGrass
p415
sg15
V60
p416
sg17
V65
p417
sg19
g20
sbag1
(g2
g3
Ntp418
Rp419
(dp420
g7
V876
p421
sg9
VIndeedee
p422
sg11
g216
sg13
VGrass
p423
sg15
V60
p424
sg17
V65
p425
sg19
g20
sbag1
(g2
g3
Ntp426
Rp427
(dp428
g7
V877
p429
sg9
VMorpeko
p430
sg11
VSw,Sh,
p431
sg13
VGrass
p432
sg15
V60
p433
sg17
V65
p434
sg19
g20
sbag1
(g2
g3
Ntp435
Rp436
(dp437
g7
V129
p438
sg9
VMagikarp
p439
sg11
VSw,Sh,
p440
sg13
VGrass
p441
sg15
V60
p442
sg17
V65
p443
sg19
g20
sbag1
(g2
g3
Ntp444
Rp445
(dp446
g7
V147
p447
sg9
VDratini
p448
sg11
VSw,Sh,
p449
sg13
VGrass
p450
sg15
V60
p451
sg17
V65
p452
sg19
g20
sbag1
(g2
g3
Ntp453
Rp454
(dp455
g7
V339
p456
sg9
VBarboach
p457
sg11
VSw,Sh,
p458
sg13
VGrass
p459
sg15
V60
p460
sg17
V65
p461
sg19
g20
sbag1
(g2
g3
Ntp462
Rp463
(dp464
g7
V347
p465
sg9
VAnorith
p466
sg11
VSw,Sh,
p467
sg13
VGrass
p468
sg15
V60
p469
sg17
V65
p470
sg19
g20
sbag1
(g2
g3
Ntp471
Rp472
(dp473
g7
V369
p474
sg9
VRelicanth
p475
sg11
VSw,Sh,
p476
sg13
VGrass
p477
sg15
V60
p478
sg17
V65
p479
sg19
g20
sbag1
(g2
g3
Ntp480
Rp481
(dp482
g7
V550
p483
sg9
VBasculin
p484
sg11
g206
sg13
VGrass
p485
sg15
V60
p486
sg17
V65
p487
sg19
g20
sbag1
(g2
g3
Ntp488
Rp489
(dp490
g7
V550
p491
sg9
VBasculin
p492
sg11
g216
sg13
VGrass
p493
sg15
V60
p494
sg17
V65
p495
sg19
g20
sbag1
(g2
g3
Ntp496
Rp497
(dp498
g7
V583
p499
sg9
VVanillish
p500
sg11
VSw,Sh,
p501
sg13
VGrass
p502
sg15
V60
p503
sg17
V65
p504
sg19
g20
sbag1
(g2
g3
Ntp505
Rp506
(dp507
g7
V442
p508
sg9
VSpiritomb
p509
sg11
VSw,Sh,
p510
sg13
VWanderer
p511
sg15
V72
p512
sg17
g512
sg19
V0
p513
sbag1
(g2
g3
Ntp514
Rp515
(dp516
g7
V466
p517
sg9
VElectivire
p518
sg11
VSw,Sh,
p519
sg13
VWanderer
p520
sg15
V68
p521
sg17
g521
sg19
g20
sbag1
(g2
g3
Ntp522
Rp523
(dp524
g7
V467
p525
sg9
VMagmortar
p526
sg11
VSw,Sh,
p527
sg13
VWanderer
p528
sg15
V68
p529
sg17
g529
sg19
g20
sbag1
(g2
g3
Ntp530
Rp531
(dp532
g7
V715
p533
sg9
VNoivern
p534
sg11
VSw,Sh,
p535
sg13
VWanderer
p536
sg15
V67
p537
sg17
g537
sg19
g20
sbag1
(g2
g3
Ntp538
Rp539
(dp540
g7
V823
p541
sg9
VCorviknight
p542
sg11
VSw,Sh,
p543
sg13
VWanderer
p544
sg15
V68
p545
sg17
g545
sg19
g20
sbag1
(g2
g3
Ntp546
Rp547
(dp548
g7
V858
p549
sg9
VHatterene
p550
sg11
VSw,Sh,
p551
sg13
VWanderer
p552
sg15
V67
p553
sg17
g553
sg19
g20
sbag1
(g2
g3
Ntp554
Rp555
(dp556
g7
V862
p557
sg9
VObstagoon
p558
sg11
VSw,Sh,
p559
sg13
VWanderer
p560
sg15
V68
p561
sg17
g561
sg19
g20
sbag1
(g2
g3
Ntp562
Rp563
(dp564
g7
V334
p565
sg9
VAltaria
p566
sg11
VSw,Sh,
p567
sg13
VWanderer
p568
sg15
V65
p569
sg17
g569
sg19
g20
sbag1
(g2
g3
Ntp570
Rp571
(dp572
g7
V547
p573
sg9
VWhimsicott
p574
sg11
VSw,Sh,
p575
sg13
VWanderer
p576
sg15
V65
p577
sg17
g577
sg19
g20
sbag1
(g2
g3
Ntp578
Rp579
(dp580
g7
V615
p581
sg9
VCryogonal
p582
sg11
VSw,Sh,
p583
sg13
VWanderer
p584
sg15
V65
p585
sg17
g585
sg19
g20
sbag1
(g2
g3
Ntp586
Rp587
(dp588
g7
V778
p589
sg9
VMimikyu
p590
sg11
VSw,Sh,
p591
sg13
VWanderer
p592
sg15
V65
p593
sg17
g593
sg19
g20
sbag1
(g2
g3
Ntp594
Rp595
(dp596
g7
V830
p597
sg9
VEldegoss
p598
sg11
VSw,Sh,
p599
sg13
VWanderer
p600
sg15
V65
p601
sg17
g601
sg19
g20
sbag1
(g2
g3
Ntp602
Rp603
(dp604
g7
V836
p605
sg9
VBoltund
p606
sg11
VSw,Sh,
p607
sg13
VWanderer
p608
sg15
V67
p609
sg17
g609
sg19
g20
sbag1
(g2
g3
Ntp610
Rp611
(dp612
g7
V696
p613
sg9
VTyrunt
p614
sg11
VSw,Sh,
p615
sg13
VWanderer
p616
sg15
V63
p617
sg17
g617
sg19
V0
p618
sbag1
(g2
g3
Ntp619
Rp620
(dp621
g7
V696
p622
sg9
VTyrunt
p623
sg11
VSw,Sh,
p624
sg13
VWanderer
p625
sg15
V63
p626
sg17
g626
sg19
V0
p627
sbag1
(g2
g3
Ntp628
Rp629
(dp630
g7
V213
p631
sg9
VShuckle
p632
sg11
VSw,Sh,
p633
sg13
VWanderer
p634
sg15
V65
p635
sg17
g635
sg19
g20
sbag1
(g2
g3
Ntp636
Rp637
(dp638
g7
V820
p639
sg9
VGreedent
p640
sg11
VSw,Sh,
p641
sg13
VWanderer
p642
sg15
V68
p643
sg17
g643
sg19
g20
sbag1
(g2
g3
Ntp644
Rp645
(dp646
g7
V876
p647
sg9
VIndeedee
p648
sg11
g206
sg13
VWanderer
p649
sg15
V65
p650
sg17
g650
sg19
g20
sbag1
(g2
g3
Ntp651
Rp652
(dp653
g7
V876
p654
sg9
VIndeedee
p655
sg11
g216
sg13
VWanderer
p656
sg15
V65
p657
sg17
g657
sg19
g20
sbag1
(g2
g3
Ntp658
Rp659
(dp660
g7
V547
p661
sg9
VWhimsicott
p662
sg11
VSw,Sh,
p663
sg13
VWanderer
p664
sg15
V65
p665
sg17
g665
sg19
g20
sbag1
(g2
g3
Ntp666
Rp667
(dp668
g7
V584
p669
sg9
VVanilluxe
p670
sg11
VSw,Sh,
p671
sg13
VWanderer
p672
sg15
V67
p673
sg17
g673
sg19
g20
sbag1
(g2
g3
Ntp674
Rp675
(dp676
g7
V596
p677
sg9
VGalvantula
p678
sg11
VSw,Sh,
p679
sg13
VWanderer
p680
sg15
V67
p681
sg17
g681
sg19
g20
sbag1
(g2
g3
Ntp682
Rp683
(dp684
g7
V820
p685
sg9
VGreedent
p686
sg11
VSw,Sh,
p687
sg13
VWanderer
p688
sg15
V68
p689
sg17
g689
sg19
g20
sbag1
(g2
g3
Ntp690
Rp691
(dp692
g7
V830
p693
sg9
VEldegoss
p694
sg11
VSw,Sh,
p695
sg13
VWanderer
p696
sg15
V65
p697
sg17
g697
sg19
g20
sbag1
(g2
g3
Ntp698
Rp699
(dp700
g7
V836
p701
sg9
VBoltund
p702
sg11
VSw,Sh,
p703
sg13
VWanderer
p704
sg15
V67
p705
sg17
g705
sg19
g20
sbag1
(g2
g3
Ntp706
Rp707
(dp708
g7
V877
p709
sg9
VMorpeko
p710
sg11
VSw,Sh,
p711
sg13
VWanderer
p712
sg15
V65
p713
sg17
g713
sg19
g20
sbag1
(g2
g3
Ntp714
Rp715
(dp716
g7
V125
p717
sg9
VElectabuzz
p718
sg11
VSw,Sh,
p719
sg13
VWanderer
p720
sg15
V65
p721
sg17
g721
sg19
g20
sbag1
(g2
g3
Ntp722
Rp723
(dp724
g7
V126
p725
sg9
VMagmar
p726
sg11
VSw,Sh,
p727
sg13
VWanderer
p728
sg15
V65
p729
sg17
g729
sg19
g20
sbag1
(g2
g3
Ntp730
Rp731
(dp732
g7
V334
p733
sg9
VAltaria
p734
sg11
VSw,Sh,
p735
sg13
VWanderer
p736
sg15
V65
p737
sg17
g737
sg19
g20
sbag1
(g2
g3
Ntp738
Rp739
(dp740
g7
V547
p741
sg9
VWhimsicott
p742
sg11
VSw,Sh,
p743
sg13
VWanderer
p744
sg15
V65
p745
sg17
g745
sg19
g20
sbag1
(g2
g3
Ntp746
Rp747
(dp748
g7
V615
p749
sg9
VCryogonal
p750
sg11
VSw,Sh,
p751
sg13
VWanderer
p752
sg15
V65
p753
sg17
g753
sg19
g20
sbag1
(g2
g3
Ntp754
Rp755
(dp756
g7
V836
p757
sg9
VBoltund
p758
sg11
VSw,Sh,
p759
sg13
VWanderer
p760
sg15
V67
p761
sg17
g761
sg19
g20
sbag1
(g2
g3
Ntp762
Rp763
(dp764
g7
V466
p765
sg9
VElectivire
p766
sg11
VSw,Sh,
p767
sg13
VWanderer
p768
sg15
V68
p769
sg17
g769
sg19
g20
sbag1
(g2
g3
Ntp770
Rp771
(dp772
g7
V715
p773
sg9
VNoivern
p774
sg11
VSw,Sh,
p775
sg13
VWanderer
p776
sg15
V67
p777
sg17
g777
sg19
g20
sbag1
(g2
g3
Ntp778
Rp779
(dp780
g7
V752
p781
sg9
VAraquanid
p782
sg11
VSw,Sh,
p783
sg13
VWanderer
p784
sg15
V67
p785
sg17
g785
sg19
g20
sbag1
(g2
g3
Ntp786
Rp787
(dp788
g7
V823
p789
sg9
VCorviknight
p790
sg11
VSw,Sh,
p791
sg13
VWanderer
p792
sg15
V68
p793
sg17
g793
sg19
g20
sbag1
(g2
g3
Ntp794
Rp795
(dp796
g7
V839
p797
sg9
VCoalossal
p798
sg11
VSw,Sh,
p799
sg13
VWanderer
p800
sg15
V68
p801
sg17
g801
sg19
g20
sbag1
(g2
g3
Ntp802
Rp803
(dp804
g7
V858
p805
sg9
VHatterene
p806
sg11
VSw,Sh,
p807
sg13
VWanderer
p808
sg15
V67
p809
sg17
g809
sg19
g20
sbag1
(g2
g3
Ntp810
Rp811
(dp812
g7
V126
p813
sg9
VMagmar
p814
sg11
VSw,Sh,
p815
sg13
VWanderer
p816
sg15
V65
p817
sg17
g817
sg19
g20
sbag1
(g2
g3
Ntp818
Rp819
(dp820
g7
V334
p821
sg9
VAltaria
p822
sg11
VSw,Sh,
p823
sg13
VWanderer
p824
sg15
V65
p825
sg17
g825
sg19
g20
sbag1
(g2
g3
Ntp826
Rp827
(dp828
g7
V596
p829
sg9
VGalvantula
p830
sg11
VSw,Sh,
p831
sg13
VWanderer
p832
sg15
V67
p833
sg17
g833
sg19
g20
sbag1
(g2
g3
Ntp834
Rp835
(dp836
g7
V820
p837
sg9
VGreedent
p838
sg11
VSw,Sh,
p839
sg13
VWanderer
p840
sg15
V68
p841
sg17
g841
sg19
g20
sbag1
(g2
g3
Ntp842
Rp843
(dp844
g7
V836
p845
sg9
VBoltund
p846
sg11
VSw,Sh,
p847
sg13
VWanderer
p848
sg15
V67
p849
sg17
g849
sg19
g20
sbag1
(g2
g3
Ntp850
Rp851
(dp852
g7
V876
p853
sg9
VIndeedee
p854
sg11
g206
sg13
VWanderer
p855
sg15
V65
p856
sg17
g856
sg19
g20
sbag1
(g2
g3
Ntp857
Rp858
(dp859
g7
V876
p860
sg9
VIndeedee
p861
sg11
g216
sg13
VWanderer
p862
sg15
V65
p863
sg17
g863
sg19
g20
sbag1
(g2
g3
Ntp864
Rp865
(dp866
g7
V149
p867
sg9
VDragonite
p868
sg11
VSw,Sh,
p869
sg13
VWanderer
p870
sg15
V70
p871
sg17
g871
sg19
g20
sbag1
(g2
g3
Ntp872
Rp873
(dp874
g7
V697
p875
sg9
VTyrantrum
p876
sg11
VSw,Sh,
p877
sg13
VWanderer
p878
sg15
V69
p879
sg17
g879
sg19
g20
sbag1
(g2
g3
Ntp880
Rp881
(dp882
g7
V213
p883
sg9
VShuckle
p884
sg11
VSw,Sh,
p885
sg13
VWanderer
p886
sg15
V65
p887
sg17
g887
sg19
g20
sbag1
(g2
g3
Ntp888
Rp889
(dp890
g7
V820
p891
sg9
VGreedent
p892
sg11
VSw,Sh,
p893
sg13
VWanderer
p894
sg15
V68
p895
sg17
g895
sg19
g20
sbag1
(g2
g3
Ntp896
Rp897
(dp898
g7
V877
p899
sg9
VMorpeko
p900
sg11
VSw,Sh,
p901
sg13
VWanderer
p902
sg15
V65
p903
sg17
g903
sg19
g20
sbag1
(g2
g3
Ntp904
Rp905
(dp906
g7
V466
p907
sg9
VElectivire
p908
sg11
VSw,Sh,
p909
sg13
VWanderer
p910
sg15
V68
p911
sg17
g911
sg19
g20
sbag1
(g2
g3
Ntp912
Rp913
(dp914
g7
V467
p915
sg9
VMagmortar
p916
sg11
VSw,Sh,
p917
sg13
VWanderer
p918
sg15
V68
p919
sg17
g919
sg19
g20
sbag1
(g2
g3
Ntp920
Rp921
(dp922
g7
V547
p923
sg9
VWhimsicott
p924
sg11
VSw,Sh,
p925
sg13
VWanderer
p926
sg15
V65
p927
sg17
g927
sg19
g20
sbag1
(g2
g3
Ntp928
Rp929
(dp930
g7
V715
p931
sg9
VNoivern
p932
sg11
VSw,Sh,
p933
sg13
VWanderer
p934
sg15
V67
p935
sg17
g935
sg19
g20
sbag1
(g2
g3
Ntp936
Rp937
(dp938
g7
V823
p939
sg9
VCorviknight
p940
sg11
VSw,Sh,
p941
sg13
VWanderer
p942
sg15
V68
p943
sg17
g943
sg19
g20
sbag1
(g2
g3
Ntp944
Rp945
(dp946
g7
V858
p947
sg9
VHatterene
p948
sg11
VSw,Sh,
p949
sg13
VWanderer
p950
sg15
V67
p951
sg17
g951
sg19
g20
sbag1
(g2
g3
Ntp952
Rp953
(dp954
g7
V697
p955
sg9
VTyrantrum
p956
sg11
VSw,Sh,
p957
sg13
VWanderer
p958
sg15
V69
p959
sg17
g959
sg19
V0
p960
sbag1
(g2
g3
Ntp961
Rp962
(dp963
g7
V125
p964
sg9
VElectabuzz
p965
sg11
VSw,Sh,
p966
sg13
VWanderer
p967
sg15
V65
p968
sg17
g968
sg19
g20
sbag1
(g2
g3
Ntp969
Rp970
(dp971
g7
V126
p972
sg9
VMagmar
p973
sg11
VSw,Sh,
p974
sg13
VWanderer
p975
sg15
V65
p976
sg17
g976
sg19
g20
sbag1
(g2
g3
Ntp977
Rp978
(dp979
g7
V584
p980
sg9
VVanilluxe
p981
sg11
VSw,Sh,
p982
sg13
VWanderer
p983
sg15
V67
p984
sg17
g984
sg19
g20
sbag1
(g2
g3
Ntp985
Rp986
(dp987
g7
V752
p988
sg9
VAraquanid
p989
sg11
VSw,Sh,
p990
sg13
VWanderer
p991
sg15
V67
p992
sg17
g992
sg19
g20
sbag1
(g2
g3
Ntp993
Rp994
(dp995
g7
V778
p996
sg9
VMimikyu
p997
sg11
VSw,Sh,
p998
sg13
VWanderer
p999
sg15
V65
p1000
sg17
g1000
sg19
g20
sbag1
(g2
g3
Ntp1001
Rp1002
(dp1003
g7
V836
p1004
sg9
VBoltund
p1005
sg11
VSw,Sh,
p1006
sg13
VWanderer
p1007
sg15
V67
p1008
sg17
g1008
sg19
g20
sbag1
(g2
g3
Ntp1009
Rp1010
(dp1011
g7
V862
p1012
sg9
VObstagoon
p1013
sg11
VSw,Sh,
p1014
sg13
VWanderer
p1015
sg15
V68
p1016
sg17
g1016
sg19
g20
sbag1
(g2
g3
Ntp1017
Rp1018
(dp1019
g7
V334
p1020
sg9
VAltaria
p1021
sg11
VSw,Sh,
p1022
sg13
VWanderer
p1023
sg15
V65
p1024
sg17
g1024
sg19
g20
sbag1
(g2
g3
Ntp1025
Rp1026
(dp1027
g7
V615
p1028
sg9
VCryogonal
p1029
sg11
VSw,Sh,
p1030
sg13
VWanderer
p1031
sg15
V65
p1032
sg17
g1032
sg19
g20
sbag1
(g2
g3
Ntp1033
Rp1034
(dp1035
g7
V696
p1036
sg9
VTyrunt
p1037
sg11
VSw,Sh,
p1038
sg13
VWanderer
p1039
sg15
V63
p1040
sg17
g1040
sg19
g20
sbag1
(g2
g3
Ntp1041
Rp1042
(dp1043
g7
V830
p1044
sg9
VEldegoss
p1045
sg11
VSw,Sh,
p1046
sg13
VWanderer
p1047
sg15
V65
p1048
sg17
g1048
sg19
g20
sbag1
(g2
g3
Ntp1049
Rp1050
(dp1051
g7
V876
p1052
sg9
VIndeedee
p1053
sg11
g206
sg13
VWanderer
p1054
sg15
V65
p1055
sg17
g1055
sg19
g20
sbag1
(g2
g3
Ntp1056
Rp1057
(dp1058
g7
V876
p1059
sg9
VIndeedee
p1060
sg11
g216
sg13
VWanderer
p1061
sg15
V65
p1062
sg17
g1062
sg19
g20
sbag1
(g2
g3
Ntp1063
Rp1064
(dp1065
g7
V877
p1066
sg9
VMorpeko
p1067
sg11
VSw,Sh,
p1068
sg13
VWanderer
p1069
sg15
V65
p1070
sg17
g1070
sg19
g20
sbag1
(g2
g3
Ntp1071
Rp1072
(dp1073
g7
V820
p1074
sg9
VGreedent
p1075
sg11
VSw,Sh,
p1076
sg13
VWanderer
p1077
sg15
V68
p1078
sg17
g1078
sg19
V0
p1079
sbag1
(g2
g3
Ntp1080
Rp1081
(dp1082
g7
V125
p1083
sg9
VElectabuzz
p1084
sg11
VSw,Sh,
p1085
sg13
VWanderer
p1086
sg15
V65
p1087
sg17
g1087
sg19
g20
sbag1
(g2
g3
Ntp1088
Rp1089
(dp1090
g7
V126
p1091
sg9
VMagmar
p1092
sg11
VSw,Sh,
p1093
sg13
VWanderer
p1094
sg15
V65
p1095
sg17
g1095
sg19
g20
sbag1
(g2
g3
Ntp1096
Rp1097
(dp1098
g7
V334
p1099
sg9
VAltaria
p1100
sg11
VSw,Sh,
p1101
sg13
VWanderer
p1102
sg15
V65
p1103
sg17
g1103
sg19
g20
sbag1
(g2
g3
Ntp1104
Rp1105
(dp1106
g7
V547
p1107
sg9
VWhimsicott
p1108
sg11
VSw,Sh,
p1109
sg13
VWanderer
p1110
sg15
V65
p1111
sg17
g1111
sg19
g20
sbag1
(g2
g3
Ntp1112
Rp1113
(dp1114
g7
V584
p1115
sg9
VVanilluxe
p1116
sg11
VSw,Sh,
p1117
sg13
VWanderer
p1118
sg15
V67
p1119
sg17
g1119
sg19
g20
sbag1
(g2
g3
Ntp1120
Rp1121
(dp1122
g7
V778
p1123
sg9
VMimikyu
p1124
sg11
VSw,Sh,
p1125
sg13
VWanderer
p1126
sg15
V65
p1127
sg17
g1127
sg19
g20
sbag1
(g2
g3
Ntp1128
Rp1129
(dp1130
g7
V149
p1131
sg9
VDragonite
p1132
sg11
VSw,Sh,
p1133
sg13
VWanderer
p1134
sg15
V70
p1135
sg17
g1135
sg19
g20
sbag1
(g2
g3
Ntp1136
Rp1137
(dp1138
g7
V697
p1139
sg9
VTyrantrum
p1140
sg11
VSw,Sh,
p1141
sg13
VWanderer
p1142
sg15
V69
p1143
sg17
g1143
sg19
g20
sbag1
(g2
g3
Ntp1144
Rp1145
(dp1146
g7
V213
p1147
sg9
VShuckle
p1148
sg11
VSw,Sh,
p1149
sg13
VWanderer
p1150
sg15
V65
p1151
sg17
g1151
sg19
g20
sbag1
(g2
g3
Ntp1152
Rp1153
(dp1154
g7
V348
p1155
sg9
VArmaldo
p1156
sg11
VSw,Sh,
p1157
sg13
VWanderer
p1158
sg15
V67
p1159
sg17
g1159
sg19
g20
sbag1
(g2
g3
Ntp1160
Rp1161
(dp1162
g7
V820
p1163
sg9
VGreedent
p1164
sg11
VSw,Sh,
p1165
sg13
VWanderer
p1166
sg15
V68
p1167
sg17
g1167
sg19
g20
sbag1
(g2
g3
Ntp1168
Rp1169
(dp1170
g7
V715
p1171
sg9
VNoivern
p1172
sg11
VSw,Sh,
p1173
sg13
VWanderer
p1174
sg15
V67
p1175
sg17
g1175
sg19
g20
sbag1
(g2
g3
Ntp1176
Rp1177
(dp1178
g7
V839
p1179
sg9
VCoalossal
p1180
sg11
VSw,Sh,
p1181
sg13
VWanderer
p1182
sg15
V68
p1183
sg17
g1183
sg19
g20
sbag1
(g2
g3
Ntp1184
Rp1185
(dp1186
g7
V697
p1187
sg9
VTyrantrum
p1188
sg11
VSw,Sh,
p1189
sg13
VWanderer
p1190
sg15
V69
p1191
sg17
g1191
sg19
V0
p1192
sbag1
(g2
g3
Ntp1193
Rp1194
(dp1195
g7
V334
p1196
sg9
VAltaria
p1197
sg11
VSw,Sh,
p1198
sg13
VWanderer
p1199
sg15
V65
p1200
sg17
g1200
sg19
g20
sbag1
(g2
g3
Ntp1201
Rp1202
(dp1203
g7
V531
p1204
sg9
VAudino
p1205
sg11
VSw,Sh,
p1206
sg13
VWanderer
p1207
sg15
V65
p1208
sg17
g1208
sg19
g20
sbag1
(g2
g3
Ntp1209
Rp1210
(dp1211
g7
V547
p1212
sg9
VWhimsicott
p1213
sg11
VSw,Sh,
p1214
sg13
VWanderer
p1215
sg15
V65
p1216
sg17
g1216
sg19
g20
sbag1
(g2
g3
Ntp1217
Rp1218
(dp1219
g7
V596
p1220
sg9
VGalvantula
p1221
sg11
VSw,Sh,
p1222
sg13
VWanderer
p1223
sg15
V67
p1224
sg17
g1224
sg19
g20
sbag1
(g2
g3
Ntp1225
Rp1226
(dp1227
g7
V615
p1228
sg9
VCryogonal
p1229
sg11
VSw,Sh,
p1230
sg13
VWanderer
p1231
sg15
V65
p1232
sg17
g1232
sg19
g20
sbag1
(g2
g3
Ntp1233
Rp1234
(dp1235
g7
V830
p1236
sg9
VEldegoss
p1237
sg11
VSw,Sh,
p1238
sg13
VWanderer
p1239
sg15
V65
p1240
sg17
g1240
sg19
g20
sbag1
(g2
g3
Ntp1241
Rp1242
(dp1243
g7
V715
p1244
sg9
VNoivern
p1245
sg11
VSw,Sh,
p1246
sg13
VWanderer
p1247
sg15
V67
p1248
sg17
g1248
sg19
g20
sbag1
(g2
g3
Ntp1249
Rp1250
(dp1251
g7
V823
p1252
sg9
VCorviknight
p1253
sg11
VSw,Sh,
p1254
sg13
VWanderer
p1255
sg15
V68
p1256
sg17
g1256
sg19
g20
sbag1
(g2
g3
Ntp1257
Rp1258
(dp1259
g7
V836
p1260
sg9
VBoltund
p1261
sg11
VSw,Sh,
p1262
sg13
VWanderer
p1263
sg15
V67
p1264
sg17
g1264
sg19
g20
sbag1
(g2
g3
Ntp1265
Rp1266
(dp1267
g7
V839
p1268
sg9
VCoalossal
p1269
sg11
VSw,Sh,
p1270
sg13
VWanderer
p1271
sg15
V68
p1272
sg17
g1272
sg19
g20
sbag1
(g2
g3
Ntp1273
Rp1274
(dp1275
g7
V858
p1276
sg9
VHatterene
p1277
sg11
VSw,Sh,
p1278
sg13
VWanderer
p1279
sg15
V67
p1280
sg17
g1280
sg19
g20
sbag1
(g2
g3
Ntp1281
Rp1282
(dp1283
g7
V126
p1284
sg9
VMagmar
p1285
sg11
VSw,Sh,
p1286
sg13
VWanderer
p1287
sg15
V65
p1288
sg17
g1288
sg19
g20
sbag1
(g2
g3
Ntp1289
Rp1290
(dp1291
g7
V584
p1292
sg9
VVanilluxe
p1293
sg11
VSw,Sh,
p1294
sg13
VWanderer
p1295
sg15
V67
p1296
sg17
g1296
sg19
g20
sbag1
(g2
g3
Ntp1297
Rp1298
(dp1299
g7
V596
p1300
sg9
VGalvantula
p1301
sg11
VSw,Sh,
p1302
sg13
VWanderer
p1303
sg15
V67
p1304
sg17
g1304
sg19
g20
sbag1
(g2
g3
Ntp1305
Rp1306
(dp1307
g7
V820
p1308
sg9
VGreedent
p1309
sg11
VSw,Sh,
p1310
sg13
VWanderer
p1311
sg15
V68
p1312
sg17
g1312
sg19
g20
sbag1
(g2
g3
Ntp1313
Rp1314
(dp1315
g7
V823
p1316
sg9
VCorviknight
p1317
sg11
VSw,Sh,
p1318
sg13
VWanderer
p1319
sg15
V68
p1320
sg17
g1320
sg19
g20
sbag1
(g2
g3
Ntp1321
Rp1322
(dp1323
g7
V836
p1324
sg9
VBoltund
p1325
sg11
VSw,Sh,
p1326
sg13
VWanderer
p1327
sg15
V67
p1328
sg17
g1328
sg19
g20
sbag1
(g2
g3
Ntp1329
Rp1330
(dp1331
g7
V862
p1332
sg9
VObstagoon
p1333
sg11
VSw,Sh,
p1334
sg13
VWanderer
p1335
sg15
V68
p1336
sg17
g1336
sg19
g20
sbag1
(g2
g3
Ntp1337
Rp1338
(dp1339
g7
V304
p1340
sg9
VAron
p1341
sg11
VSw,Sh,
p1342
sg13
VWanderer
p1343
sg15
V63
p1344
sg17
g1344
sg19
V0
p1345
sbag1
(g2
g3
Ntp1346
Rp1347
(dp1348
g7
V304
p1349
sg9
VAron
p1350
sg11
VSw,Sh,
p1351
sg13
VWanderer
p1352
sg15
V63
p1353
sg17
g1353
sg19
V0
p1354
sbag1
(g2
g3
Ntp1355
Rp1356
(dp1357
g7
V347
p1358
sg9
VAnorith
p1359
sg11
VSw,Sh,
p1360
sg13
VWanderer
p1361
sg15
V63
p1362
sg17
g1362
sg19
g20
sbag1
(g2
g3
Ntp1363
Rp1364
(dp1365
g7
V369
p1366
sg9
VRelicanth
p1367
sg11
VSw,Sh,
p1368
sg13
VWanderer
p1369
sg15
V65
p1370
sg17
g1370
sg19
g20
sbag1
(g2
g3
Ntp1371
Rp1372
(dp1373
g7
V347
p1374
sg9
VAnorith
p1375
sg11
VSw,Sh,
p1376
sg13
VWanderer
p1377
sg15
V63
p1378
sg17
g1378
sg19
g20
sbag1
(g2
g3
Ntp1379
Rp1380
(dp1381
g7
V369
p1382
sg9
VRelicanth
p1383
sg11
VSw,Sh,
p1384
sg13
VWanderer
p1385
sg15
V65
p1386
sg17
g1386
sg19
g20
sbag1
(g2
g3
Ntp1387
Rp1388
(dp1389
g7
V147
p1390
sg9
VDratini
p1391
sg11
VSw,Sh,
p1392
sg13
VWanderer
p1393
sg15
V63
p1394
sg17
g1394
sg19
g20
sbag1
(g2
g3
Ntp1395
Rp1396
(dp1397
g7
V347
p1398
sg9
VAnorith
p1399
sg11
VSw,Sh,
p1400
sg13
VWanderer
p1401
sg15
V63
p1402
sg17
g1402
sg19
g20
sbag1
(g2
g3
Ntp1403
Rp1404
(dp1405
g7
V369
p1406
sg9
VRelicanth
p1407
sg11
VSw,Sh,
p1408
sg13
VWanderer
p1409
sg15
V65
p1410
sg17
g1410
sg19
g20
sbag1
(g2
g3
Ntp1411
Rp1412
(dp1413
g7
V148
p1414
sg9
VDragonair
p1415
sg11
VSw,Sh,
p1416
sg13
VWanderer
p1417
sg15
V65
p1418
sg17
g1418
sg19
g20
sbag1
(g2
g3
Ntp1419
Rp1420
(dp1421
g7
V347
p1422
sg9
VAnorith
p1423
sg11
VSw,Sh,
p1424
sg13
VWanderer
p1425
sg15
V63
p1426
sg17
g1426
sg19
g20
sbag1
(g2
g3
Ntp1427
Rp1428
(dp1429
g7
V531
p1430
sg9
VAudino
p1431
sg11
VSw,Sh,
p1432
sg13
VWanderer
p1433
sg15
V62
p1434
sg17
g1434
sg19
V0
p1435
sbag1
(g2
g3
Ntp1436
Rp1437
(dp1438
g7
V531
p1439
sg9
VAudino
p1440
sg11
VSw,Sh,
p1441
sg13
VWanderer
p1442
sg15
V62
p1443
sg17
g1443
sg19
V0
p1444
sbag1
(g2
g3
Ntp1445
Rp1446
(dp1447
g7
V647
p1448
sg9
VKeldeo
p1449
sg11
VSw,Sh,
p1450
sg13
VWanderer
p1451
sg15
V65
p1452
sg17
g1452
sg19
V0
p1453
sba.