(lp0
ccopy_reg
_reconstructor
p1
(c__main__
WildPokemon
p2
c__builtin__
object
p3
Ntp4
Rp5
(dp6
VpDexNo
p7
V073
p8
sVpSpecies
p9
VTentacruel
p10
sVpGames
p11
VOR,AS,
p12
sVpArea
p13
VSurf
p14
sVpMinLevel
p15
V35
p16
sVpMaxLevel
p17
g16
sVpRate
p18
V50
p19
sbag1
(g2
g3
Ntp20
Rp21
(dp22
g7
V226
p23
sg9
VMantine
p24
sg11
VOR,AS,
p25
sg13
VSurf
p26
sg15
V40
p27
sg17
g27
sg18
V1
p28
sbag1
(g2
g3
Ntp29
Rp30
(dp31
g7
V279
p32
sg9
VPelipper
p33
sg11
VOR,AS,
p34
sg13
VSurf
p35
sg15
V35
p36
sg17
V40
p37
sg18
V19
p38
sbag1
(g2
g3
Ntp39
Rp40
(dp41
g7
V458
p42
sg9
VMantyke
p43
sg11
VOR,AS,
p44
sg13
VSurf
p45
sg15
V35
p46
sg17
g46
sg18
V30
p47
sbag1
(g2
g3
Ntp48
Rp49
(dp50
g7
V129
p51
sg9
VMagikarp
p52
sg11
VOR,AS,
p53
sg13
VFish Old
p54
sg15
V10
p55
sg17
V15
p56
sg18
V65
p57
sbag1
(g2
g3
Ntp58
Rp59
(dp60
g7
V072
p61
sg9
VTentacool
p62
sg11
VOR,AS,
p63
sg13
VFish Old
p64
sg15
V5
p65
sg17
g65
sg18
V35
p66
sbag1
(g2
g3
Ntp67
Rp68
(dp69
g7
V129
p70
sg9
VMagikarp
p71
sg11
VOR,AS,
p72
sg13
VFish Good
p73
sg15
V25
p74
sg17
g74
sg18
V60
p75
sbag1
(g2
g3
Ntp76
Rp77
(dp78
g7
V072
p79
sg9
VTentacool
p80
sg11
VOR,AS,
p81
sg13
VFish Good
p82
sg15
V25
p83
sg17
g83
sg18
V35
p84
sbag1
(g2
g3
Ntp85
Rp86
(dp87
g7
V223
p88
sg9
VRemoraid
p89
sg11
VOR,AS,
p90
sg13
VFish Good
p91
sg15
V25
p92
sg17
g92
sg18
V5
p93
sbag1
(g2
g3
Ntp94
Rp95
(dp96
g7
V223
p97
sg9
VRemoraid
p98
sg11
VOR,AS,
p99
sg13
VFish Super
p100
sg15
V30
p101
sg17
V35
p102
sg18
V95
p103
sbag1
(g2
g3
Ntp104
Rp105
(dp106
g7
V224
p107
sg9
VOctillery
p108
sg11
VOR,AS,
p109
sg13
VFish Super
p110
sg15
V40
p111
sg17
g111
sg18
V5
p112
sbag1
(g2
g3
Ntp113
Rp114
(dp115
g7
V319
p116
sg9
VSharpedo
p117
sg11
VOR,AS,
p118
sg13
VGift
p119
sg15
V40
p120
sg17
g120
sg18
V0
p121
sbag1
(g2
g3
Ntp122
Rp123
(dp124
g7
V323
p125
sg9
VCamerupt
p126
sg11
VOR,AS,
p127
sg13
VGift
p128
sg15
V40
p129
sg17
g129
sg18
V0
p130
sba.