(lp0
ccopy_reg
_reconstructor
p1
(c__main__
WildPokemon
p2
c__builtin__
object
p3
Ntp4
Rp5
(dp6
VpDexNo
p7
V336
p8
sVpSpecies
p9
VSeviper
p10
sVpGames
p11
VE,
p12
sVpArea
p13
VBuilding
p14
sVpMinLevel
p15
V{{tt|46|Level 50}}
p16
sVpMaxLevel
p17
V96|Open Level}}
p18
sVpRate
p19
V26
p20
sbag1
(g2
g3
Ntp21
Rp22
(dp23
g7
V350
p24
sg9
VMilotic
p25
sg11
g12
sg13
VBuilding
p26
sg15
V{{tt|46|Level 50}}
p27
sg17
V96|Open Level}}
p28
sg19
V26
p29
sbag1
(g2
g3
Ntp30
Rp31
(dp32
g7
V356
p33
sg9
VDusclops
p34
sg11
g12
sg13
VBuilding
p35
sg15
V{{tt|45|Level 50}}
p36
sg17
V95|Open Level}}
p37
sg19
V48
p38
sbag1
(g2
g3
Ntp39
Rp40
(dp41
g7
V336
p42
sg9
VSeviper
p43
sg11
g12
sg13
VBuilding
p44
sg15
V{{tt|46|Level 50}}
p45
sg17
V96|Open Level}}
p46
sg19
V26
p47
sbag1
(g2
g3
Ntp48
Rp49
(dp50
g7
V350
p51
sg9
VMilotic
p52
sg11
g12
sg13
VBuilding
p53
sg15
V{{tt|46|Level 50}}
p54
sg17
V96|Open Level}}
p55
sg19
V26
p56
sbag1
(g2
g3
Ntp57
Rp58
(dp59
g7
V101
p60
sg9
VElectrode
p61
sg11
g12
sg13
VBuilding
p62
sg15
V{{tt|45|Level 50}}
p63
sg17
V95|Open Level}}
p64
sg19
V48
p65
sbag1
(g2
g3
Ntp66
Rp67
(dp68
g7
V336
p69
sg9
VSeviper
p70
sg11
g12
sg13
VBuilding
p71
sg15
V{{tt|46|Level 50}}
p72
sg17
V96|Open Level}}
p73
sg19
V26
p74
sbag1
(g2
g3
Ntp75
Rp76
(dp77
g7
V350
p78
sg9
VMilotic
p79
sg11
g12
sg13
VBuilding
p80
sg15
V{{tt|46|Level 50}}
p81
sg17
V96|Open Level}}
p82
sg19
V26
p83
sbag1
(g2
g3
Ntp84
Rp85
(dp86
g7
V286
p87
sg9
VBreloom
p88
sg11
g12
sg13
VBuilding
p89
sg15
V{{tt|45|Level 50}}
p90
sg17
V95|Open Level}}
p91
sg19
V48
p92
sbag1
(g2
g3
Ntp93
Rp94
(dp95
g7
V336
p96
sg9
VSeviper
p97
sg11
g12
sg13
VBuilding
p98
sg15
V{{tt|46|Level 50}}
p99
sg17
V96|Open Level}}
p100
sg19
V26
p101
sbag1
(g2
g3
Ntp102
Rp103
(dp104
g7
V350
p105
sg9
VMilotic
p106
sg11
g12
sg13
VBuilding
p107
sg15
V{{tt|46|Level 50}}
p108
sg17
V96|Open Level}}
p109
sg19
V26
p110
sbag1
(g2
g3
Ntp111
Rp112
(dp113
g7
V202
p114
sg9
VWobbuffet
p115
sg11
g12
sg13
VBuilding
p116
sg15
V{{tt|45|Level 50}}
p117
sg17
V95|Open Level}}
p118
sg19
V48
p119
sba.