(lp0
ccopy_reg
_reconstructor
p1
(c__main__
WildPokemon
p2
c__builtin__
object
p3
Ntp4
Rp5
(dp6
VpDexNo
p7
V019
p8
sVpSpecies
p9
VRattata
p10
sVpGames
p11
VG,S,C,
p12
sVpArea
p13
V2F-9F
p14
sVpMinLevel
p15
V20
p16
sVpMaxLevel
p17
V24
p18
sVpRate
p19
V100
p20
sbag1
(g2
g3
Ntp21
Rp22
(dp23
g7
V019
p24
sg9
VRattata
p25
sg11
VG,S,C,
p26
sg13
V2F-9F
p27
sg15
V22
p28
sg17
V24
p29
sg19
V20
p30
sbag1
(g2
g3
Ntp31
Rp32
(dp33
g7
V092
p34
sg9
VGastly
p35
sg11
VG,S,C,
p36
sg13
V2F-9F
p37
sg15
V20
p38
sg17
V22
p39
sg19
V80
p40
sbag1
(g2
g3
Ntp41
Rp42
(dp43
g7
V245
p44
sg9
VSuicune
p45
sg11
VC,
p46
sg13
VSpecial
p47
sg15
V40
p48
sg17
g48
sg19
V0
p49
sbag1
(g2
g3
Ntp50
Rp51
(dp52
g7
V250
p53
sg9
VHo-Oh
p54
sg11
VG,
p55
sg13
VSpecial
p56
sg15
V40
p57
sg17
g57
sg19
V0
p58
sbag1
(g2
g3
Ntp59
Rp60
(dp61
g7
V250
p62
sg9
VHo-Oh
p63
sg11
VS,
p64
sg13
VSpecial
p65
sg15
V70
p66
sg17
g66
sg19
V0
p67
sbag1
(g2
g3
Ntp68
Rp69
(dp70
g7
V250
p71
sg9
VHo-Oh
p72
sg11
g46
sg13
VSpecial
p73
sg15
V60
p74
sg17
g74
sg19
V0
p75
sbag1
(g2
g3
Ntp76
Rp77
(dp78
g7
V019
p79
sg9
VRattata
p80
sg11
VHG,SS,
p81
sg13
V2F-10F
p82
sg15
V20
p83
sg17
V24
p84
sg19
V100
p85
sbag1
(g2
g3
Ntp86
Rp87
(dp88
g7
V092
p89
sg9
VGastly
p90
sg11
VHG,SS,
p91
sg13
V2F-10F
p92
sg15
V20
p93
sg17
V22
p94
sg19
V80
p95
sbag1
(g2
g3
Ntp96
Rp97
(dp98
g7
V250
p99
sg9
VHo-Oh
p100
sg11
VHG,
p101
sg13
VSpecial
p102
sg15
V45
p103
sg17
g103
sg19
V0
p104
sbag1
(g2
g3
Ntp105
Rp106
(dp107
g7
V250
p108
sg9
VHo-Oh
p109
sg11
VSS,
p110
sg13
VSpecial
p111
sg15
V70
p112
sg17
g112
sg19
V0
p113
sbag1
(g2
g3
Ntp114
Rp115
(dp116
g7
V263
p117
sg9
VZigzagoon
p118
sg11
VHG,SS,
p119
sg13
VHoenn
p120
sg15
V20
p121
sg17
V21
p122
sg19
V20
p123
sbag1
(g2
g3
Ntp124
Rp125
(dp126
g7
V307
p127
sg9
VMeditite
p128
sg11
VHG,SS,
p129
sg13
VSinnoh
p130
sg15
V22
p131
sg17
g131
sg19
V20
p132
sbag1
(g2
g3
Ntp133
Rp134
(dp135
g7
V327
p136
sg9
VSpinda
p137
sg11
VHG,SS,
p138
sg13
VHoenn
p139
sg15
V22
p140
sg17
g140
sg19
V20
p141
sbag1
(g2
g3
Ntp142
Rp143
(dp144
g7
V441
p145
sg9
VChatot
p146
sg11
VHG,SS,
p147
sg13
VSinnoh
p148
sg15
V20
p149
sg17
V21
p150
sg19
V20
p151
sba.