(lp0
ccopy_reg
_reconstructor
p1
(c__main__
WildPokemon
p2
c__builtin__
object
p3
Ntp4
Rp5
(dp6
VpDexNo
p7
V016
p8
sVpSpecies
p9
VPidgey
p10
sVpGames
p11
VFR,LG,
p12
sVpArea
p13
VGrass
p14
sVpMinLevel
p15
V32
p16
sVpMaxLevel
p17
g16
sVpRate
p18
V10
p19
sbag1
(g2
g3
Ntp20
Rp21
(dp22
g7
V017
p23
sg9
VPidgeotto
p24
sg11
VFR,LG,
p25
sg13
VGrass
p26
sg15
V37
p27
sg17
g27
sg18
V20
p28
sbag1
(g2
g3
Ntp29
Rp30
(dp31
g7
V043
p32
sg9
VOddish
p33
sg11
VFR,
p34
sg13
VGrass
p35
sg15
V30
p36
sg17
g36
sg18
V10
p37
sbag1
(g2
g3
Ntp38
Rp39
(dp40
g7
V044
p41
sg9
VGloom
p42
sg11
g34
sg13
VGrass
p43
sg15
V35
p44
sg17
g44
sg18
V20
p45
sbag1
(g2
g3
Ntp46
Rp47
(dp48
g7
V048
p49
sg9
VVenonat
p50
sg11
VFR,LG,
p51
sg13
VGrass
p52
sg15
V34
p53
sg17
g53
sg18
V10
p54
sbag1
(g2
g3
Ntp55
Rp56
(dp57
g7
V049
p58
sg9
VVenomoth
p59
sg11
VFR,LG,
p60
sg13
VGrass
p61
sg15
V37
p62
sg17
V40
p63
sg18
V5
p64
sbag1
(g2
g3
Ntp65
Rp66
(dp67
g7
V054
p68
sg9
VPsyduck
p69
sg11
g34
sg13
VGrass
p70
sg15
V31
p71
sg17
g71
sg18
V5
p72
sbag1
(g2
g3
Ntp73
Rp74
(dp75
g7
V069
p76
sg9
VBellsprout
p77
sg11
VLG,
p78
sg13
VGrass
p79
sg15
V30
p80
sg17
g80
sg18
V10
p81
sbag1
(g2
g3
Ntp82
Rp83
(dp84
g7
V070
p85
sg9
VWeepinbell
p86
sg11
g78
sg13
VGrass
p87
sg15
V35
p88
sg17
g88
sg18
V20
p89
sbag1
(g2
g3
Ntp90
Rp91
(dp92
g7
V079
p93
sg9
VSlowpoke
p94
sg11
g78
sg13
VGrass
p95
sg15
V31
p96
sg17
g96
sg18
V5
p97
sbag1
(g2
g3
Ntp98
Rp99
(dp100
g7
V096
p101
sg9
VDrowzee
p102
sg11
VFR,LG,
p103
sg13
VGrass
p104
sg15
V34
p105
sg17
g105
sg18
V10
p106
sbag1
(g2
g3
Ntp107
Rp108
(dp109
g7
V097
p110
sg9
VHypno
p111
sg11
VFR,LG,
p112
sg13
VGrass
p113
sg15
V37
p114
sg17
V40
p115
sg18
V5
p116
sbag1
(g2
g3
Ntp117
Rp118
(dp119
g7
V102
p120
sg9
VExeggcute
p121
sg11
VFR,LG,
p122
sg13
VGrass
p123
sg15
V35
p124
sg17
g124
sg18
V5
p125
sbag1
(g2
g3
Ntp126
Rp127
(dp128
g7
V054
p129
sg9
VPsyduck
p130
sg11
g34
sg13
VSurf
p131
sg15
V5
p132
sg17
V40
p133
sg18
V95
p134
sbag1
(g2
g3
Ntp135
Rp136
(dp137
g7
V055
p138
sg9
VGolduck
p139
sg11
g34
sg13
VSurf
p140
sg15
V35
p141
sg17
V40
p142
sg18
V5
p143
sbag1
(g2
g3
Ntp144
Rp145
(dp146
g7
V079
p147
sg9
VSlowpoke
p148
sg11
g78
sg13
VSurf
p149
sg15
g132
sg17
V40
p150
sg18
V95
p151
sbag1
(g2
g3
Ntp152
Rp153
(dp154
g7
V080
p155
sg9
VSlowbro
p156
sg11
g78
sg13
VSurf
p157
sg15
V35
p158
sg17
V40
p159
sg18
V5
p160
sbag1
(g2
g3
Ntp161
Rp162
(dp163
g7
V129
p164
sg9
VMagikarp
p165
sg11
VFR,LG,
p166
sg13
VFish Old
p167
sg15
g132
sg17
g132
sg18
V100
p168
sbag1
(g2
g3
Ntp169
Rp170
(dp171
g7
V060
p172
sg9
VPoliwag
p173
sg11
VFR,LG,
p174
sg13
VFish Good
p175
sg15
g132
sg17
V15
p176
sg18
V20
p177
sbag1
(g2
g3
Ntp178
Rp179
(dp180
g7
V118
p181
sg9
VGoldeen
p182
sg11
VFR,LG,
p183
sg13
VFish Good
p184
sg15
g132
sg17
V15
p185
sg18
V60
p186
sbag1
(g2
g3
Ntp187
Rp188
(dp189
g7
V129
p190
sg9
VMagikarp
p191
sg11
VFR,LG,
p192
sg13
VFish Good
p193
sg15
g132
sg17
V15
p194
sg18
V20
p195
sbag1
(g2
g3
Ntp196
Rp197
(dp198
g7
V054
p199
sg9
VPsyduck
p200
sg11
g34
sg13
VFish Super
p201
sg15
V15
p202
sg17
V35
p203
sg18
V5
p204
sbag1
(g2
g3
Ntp205
Rp206
(dp207
g7
V079
p208
sg9
VSlowpoke
p209
sg11
g78
sg13
VFish Super
p210
sg15
V15
p211
sg17
V35
p212
sg18
V5
p213
sbag1
(g2
g3
Ntp214
Rp215
(dp216
g7
V118
p217
sg9
VGoldeen
p218
sg11
VFR,LG,
p219
sg13
VFish Super
p220
sg15
V15
p221
sg17
V25
p222
sg18
V40
p223
sbag1
(g2
g3
Ntp224
Rp225
(dp226
g7
V119
p227
sg9
VSeaking
p228
sg11
VFR,LG,
p229
sg13
VFish Super
p230
sg15
V20
p231
sg17
V30
p232
sg18
V40
p233
sbag1
(g2
g3
Ntp234
Rp235
(dp236
g7
V130
p237
sg9
VGyarados
p238
sg11
VFR,LG,
p239
sg13
VFish Super
p240
sg15
V15
p241
sg17
V25
p242
sg18
V15
p243
sbag1
(g2
g3
Ntp244
Rp245
(dp246
g7
V097
p247
sg9
VHypno
p248
sg11
VFR,LG,
p249
sg13
VSpecial
p250
sg15
V30
p251
sg17
g251
sg18
V0
p252
sba.