(lp0
ccopy_reg
_reconstructor
p1
(c__main__
WildPokemon
p2
c__builtin__
object
p3
Ntp4
Rp5
(dp6
VpDexNo
p7
V165
p8
sVpSpecies
p9
VLedyba
p10
sVpGames
p11
VX,Y,
p12
sVpArea
p13
VRustling Berry tree
p14
sVpMinLevel
p15
V14
p16
sVpMaxLevel
p17
V15
p18
sVpRate
p19
V100
p20
sbag1
(g2
g3
Ntp21
Rp22
(dp23
g7
V313
p24
sg9
VVolbeat
p25
sg11
VX,Y,
p26
sg13
VRustling Berry tree
p27
sg15
V14
p28
sg17
V15
p29
sg19
V100
p30
sbag1
(g2
g3
Ntp31
Rp32
(dp33
g7
V314
p34
sg9
VIllumise
p35
sg11
VX,Y,
p36
sg13
VRustling Berry tree
p37
sg15
V14
p38
sg17
V15
p39
sg19
V100
p40
sbag1
(g2
g3
Ntp41
Rp42
(dp43
g7
V412
p44
sg9
VBurmy
p45
sg11
VX,Y,
p46
sg13
VRustling Berry tree
p47
sg15
V14
p48
sg17
V15
p49
sg19
V100
p50
sbag1
(g2
g3
Ntp51
Rp52
(dp53
g7
V415
p54
sg9
VCombee
p55
sg11
VX,Y,
p56
sg13
VRustling Berry tree
p57
sg15
V14
p58
sg17
V15
p59
sg19
V100
p60
sbag1
(g2
g3
Ntp61
Rp62
(dp63
g7
V665
p64
sg9
VSpewpa
p65
sg11
VX,Y,
p66
sg13
VRustling Berry tree
p67
sg15
V14
p68
sg17
V15
p69
sg19
V100
p70
sba.