(lp0
ccopy_reg
_reconstructor
p1
(c__main__
WildPokemon
p2
c__builtin__
object
p3
Ntp4
Rp5
(dp6
VpDexNo
p7
V016
p8
sVpSpecies
p9
VPidgey
p10
sVpGames
p11
VFR,LG,
p12
sVpArea
p13
VGrass
p14
sVpMinLevel
p15
V29
p16
sVpMaxLevel
p17
V32
p18
sVpRate
p19
V30
p20
sbag1
(g2
g3
Ntp21
Rp22
(dp23
g7
V017
p24
sg9
VPidgeotto
p25
sg11
VFR,LG,
p26
sg13
VGrass
p27
sg15
V34
p28
sg17
V40
p29
sg19
V15
p30
sbag1
(g2
g3
Ntp31
Rp32
(dp33
g7
V043
p34
sg9
VOddish
p35
sg11
VFR,
p36
sg13
VGrass
p37
sg15
V31
p38
sg17
g38
sg19
V20
p39
sbag1
(g2
g3
Ntp40
Rp41
(dp42
g7
V044
p43
sg9
VGloom
p44
sg11
g36
sg13
VGrass
p45
sg15
V36
p46
sg17
g46
sg19
V10
p47
sbag1
(g2
g3
Ntp48
Rp49
(dp50
g7
V048
p51
sg9
VVenonat
p52
sg11
VFR,LG,
p53
sg13
VGrass
p54
sg15
V34
p55
sg17
g55
sg19
V5
p56
sbag1
(g2
g3
Ntp57
Rp58
(dp59
g7
V052
p60
sg9
VMeowth
p61
sg11
VFR,LG,
p62
sg13
VGrass
p63
sg15
V31
p64
sg17
g64
sg19
V10
p65
sbag1
(g2
g3
Ntp66
Rp67
(dp68
g7
V053
p69
sg9
VPersian
p70
sg11
VFR,LG,
p71
sg13
VGrass
p72
sg15
V37
p73
sg17
V40
p74
sg19
V5
p75
sbag1
(g2
g3
Ntp76
Rp77
(dp78
g7
V054
p79
sg9
VPsyduck
p80
sg11
g36
sg13
VGrass
p81
sg15
V31
p82
sg17
g82
sg19
V5
p83
sbag1
(g2
g3
Ntp84
Rp85
(dp86
g7
V069
p87
sg9
VBellsprout
p88
sg11
VLG,
p89
sg13
VGrass
p90
sg15
V31
p91
sg17
g91
sg19
V20
p92
sbag1
(g2
g3
Ntp93
Rp94
(dp95
g7
V070
p96
sg9
VWeepinbell
p97
sg11
g89
sg13
VGrass
p98
sg15
V36
p99
sg17
g99
sg19
V10
p100
sbag1
(g2
g3
Ntp101
Rp102
(dp103
g7
V079
p104
sg9
VSlowpoke
p105
sg11
g89
sg13
VGrass
p106
sg15
V31
p107
sg17
g107
sg19
V5
p108
sbag1
(g2
g3
Ntp109
Rp110
(dp111
g7
V072
p112
sg9
VTentacool
p113
sg11
VFR,LG,
p114
sg13
VSurf
p115
sg15
V5
p116
sg17
V40
p117
sg19
V95
p118
sbag1
(g2
g3
Ntp119
Rp120
(dp121
g7
V073
p122
sg9
VTentacruel
p123
sg11
VFR,LG,
p124
sg13
VSurf
p125
sg15
V35
p126
sg17
V40
p127
sg19
V5
p128
sbag1
(g2
g3
Ntp129
Rp130
(dp131
g7
V129
p132
sg9
VMagikarp
p133
sg11
VFR,LG,
p134
sg13
VFish Old
p135
sg15
g116
sg17
g116
sg19
V100
p136
sbag1
(g2
g3
Ntp137
Rp138
(dp139
g7
V098
p140
sg9
VKrabby
p141
sg11
g89
sg13
VFish Good
p142
sg15
g116
sg17
V15
p143
sg19
V80
p144
sbag1
(g2
g3
Ntp145
Rp146
(dp147
g7
V116
p148
sg9
VHorsea
p149
sg11
g36
sg13
VFish Good
p150
sg15
g116
sg17
V15
p151
sg19
V80
p152
sbag1
(g2
g3
Ntp153
Rp154
(dp155
g7
V129
p156
sg9
VMagikarp
p157
sg11
VFR,LG,
p158
sg13
VFish Good
p159
sg15
g116
sg17
V15
p160
sg19
V20
p161
sbag1
(g2
g3
Ntp162
Rp163
(dp164
g7
V054
p165
sg9
VPsyduck
p166
sg11
g36
sg13
VFish Super
p167
sg15
V25
p168
sg17
V35
p169
sg19
V1
p170
sbag1
(g2
g3
Ntp171
Rp172
(dp173
g7
V079
p174
sg9
VSlowpoke
p175
sg11
g89
sg13
VFish Super
p176
sg15
V25
p177
sg17
V35
p178
sg19
V1
p179
sbag1
(g2
g3
Ntp180
Rp181
(dp182
g7
V098
p183
sg9
VKrabby
p184
sg11
g89
sg13
VFish Super
p185
sg15
V15
p186
sg17
V25
p187
sg19
V80
p188
sbag1
(g2
g3
Ntp189
Rp190
(dp191
g7
V099
p192
sg9
VKingler
p193
sg11
g89
sg13
VFish Super
p194
sg15
V25
p195
sg17
V35
p196
sg19
V4
p197
sbag1
(g2
g3
Ntp198
Rp199
(dp200
g7
V116
p201
sg9
VHorsea
p202
sg11
g36
sg13
VFish Super
p203
sg15
V15
p204
sg17
V25
p205
sg19
V80
p206
sbag1
(g2
g3
Ntp207
Rp208
(dp209
g7
V117
p210
sg9
VSeadra
p211
sg11
g36
sg13
VFish Super
p212
sg15
V25
p213
sg17
V35
p214
sg19
V4
p215
sbag1
(g2
g3
Ntp216
Rp217
(dp218
g7
V130
p219
sg9
VGyarados
p220
sg11
VFR,LG,
p221
sg13
VFish Super
p222
sg15
V15
p223
sg17
V25
p224
sg19
V15
p225
sba.