(lp0
ccopy_reg
_reconstructor
p1
(c__main__
WildPokemon
p2
c__builtin__
object
p3
Ntp4
Rp5
(dp6
VpDexNo
p7
V054
p8
sVpSpecies
p9
VPsyduck
p10
sVpGames
p11
VSw,Sh,
p12
sVpArea
p13
VCave
p14
sVpMinLevel
p15
V13
p16
sVpMaxLevel
p17
V18
p18
sVpRate
p19
V0
p20
sbag1
(g2
g3
Ntp21
Rp22
(dp23
g7
V060
p24
sg9
VPoliwag
p25
sg11
VSw,Sh,
p26
sg13
VCave
p27
sg15
V13
p28
sg17
V18
p29
sg19
g20
sbag1
(g2
g3
Ntp30
Rp31
(dp32
g7
V108
p33
sg9
VLickitung
p34
sg11
VSw,Sh,
p35
sg13
VCave
p36
sg15
V13
p37
sg17
V18
p38
sg19
V5
p39
sbag1
(g2
g3
Ntp40
Rp41
(dp42
g7
V113
p43
sg9
VChansey
p44
sg11
VSw,Sh,
p45
sg13
VCave
p46
sg15
V13
p47
sg17
V18
p48
sg19
g20
sbag1
(g2
g3
Ntp49
Rp50
(dp51
g7
V242
p52
sg9
VBlissey
p53
sg11
VSw,Sh,
p54
sg13
VCave
p55
sg15
V13
p56
sg17
V18
p57
sg19
g20
sbag1
(g2
g3
Ntp58
Rp59
(dp60
g7
V293
p61
sg9
VWhismur
p62
sg11
VSw,Sh,
p63
sg13
VCave
p64
sg15
V13
p65
sg17
V18
p66
sg19
V56
p67
sbag1
(g2
g3
Ntp68
Rp69
(dp70
g7
V298
p71
sg9
VAzurill
p72
sg11
VSw,Sh,
p73
sg13
VCave
p74
sg15
V13
p75
sg17
V18
p76
sg19
V5
p77
sbag1
(g2
g3
Ntp78
Rp79
(dp80
g7
V527
p81
sg9
VWoobat
p82
sg11
VSw,Sh,
p83
sg13
VCave
p84
sg15
V13
p85
sg17
V18
p86
sg19
V16
p87
sbag1
(g2
g3
Ntp88
Rp89
(dp90
g7
V060
p91
sg9
VPoliwag
p92
sg11
VSw,Sh,
p93
sg13
VSurf
p94
sg15
V40
p95
sg17
V45
p96
sg19
V50
p97
sbag1
(g2
g3
Ntp98
Rp99
(dp100
g7
V339
p101
sg9
VBarboach
p102
sg11
VSw,Sh,
p103
sg13
VSurf
p104
sg15
V40
p105
sg17
V45
p106
sg19
V50
p107
sbag1
(g2
g3
Ntp108
Rp109
(dp110
g7
V052
p111
sg9
VMeowth
p112
sg11
VSw,Sh,
p113
sg13
VTrade
p114
sg15
V15
p115
sg17
g115
sg19
V0
p116
sbag1
(g2
g3
Ntp117
Rp118
(dp119
g7
V077
p120
sg9
VPonyta
p121
sg11
VSh,
p122
sg13
VTrade
p123
sg15
V15
p124
sg17
g124
sg19
V0
p125
sbag1
(g2
g3
Ntp126
Rp127
(dp128
g7
V083
p129
sg9
VFarfetch'd
p130
sg11
VSw,
p131
sg13
VTrade
p132
sg15
V15
p133
sg17
g133
sg19
V0
p134
sbag1
(g2
g3
Ntp135
Rp136
(dp137
g7
V103
p138
sg9
VExeggutor
p139
sg11
VSw,Sh,
p140
sg13
VTrade
p141
sg15
V15
p142
sg17
g142
sg19
V0
p143
sbag1
(g2
g3
Ntp144
Rp145
(dp146
g7
V105
p147
sg9
VMarowak
p148
sg11
VSw,Sh,
p149
sg13
VTrade
p150
sg15
V15
p151
sg17
g151
sg19
V0
p152
sbag1
(g2
g3
Ntp153
Rp154
(dp155
g7
V110
p156
sg9
VWeezing
p157
sg11
VSw,Sh,
p158
sg13
VTrade
p159
sg15
V15
p160
sg17
g160
sg19
V0
p161
sbag1
(g2
g3
Ntp162
Rp163
(dp164
g7
V122
p165
sg9
VMr. Mime
p166
sg11
VSw,Sh,
p167
sg13
VTrade
p168
sg15
V15
p169
sg17
g169
sg19
V0
p170
sbag1
(g2
g3
Ntp171
Rp172
(dp173
g7
V222
p174
sg9
VCorsola
p175
sg11
g122
sg13
VTrade
p176
sg15
V15
p177
sg17
g177
sg19
V0
p178
sbag1
(g2
g3
Ntp179
Rp180
(dp181
g7
V263
p182
sg9
VZigzagoon
p183
sg11
VSw,Sh,
p184
sg13
VTrade
p185
sg15
V15
p186
sg17
g186
sg19
V0
p187
sbag1
(g2
g3
Ntp188
Rp189
(dp190
g7
V554
p191
sg9
VDarumaka
p192
sg11
g131
sg13
VTrade
p193
sg15
V15
p194
sg17
g194
sg19
V0
p195
sbag1
(g2
g3
Ntp196
Rp197
(dp198
g7
V618
p199
sg9
VStunfisk
p200
sg11
VSw,Sh,
p201
sg13
VTrade
p202
sg15
V15
p203
sg17
g203
sg19
V0
p204
sba.