(lp0
ccopy_reg
_reconstructor
p1
(c__main__
WildPokemon
p2
c__builtin__
object
p3
Ntp4
Rp5
(dp6
VpDexNo
p7
V111
p8
sVpSpecies
p9
VRhyhorn
p10
sVpGames
p11
VSw,Sh,
p12
sVpArea
p13
VGrass
p14
sVpMinLevel
p15
V26
p16
sVpMaxLevel
p17
V28
p18
sVpRate
p19
V0
p20
sbag1
(g2
g3
Ntp21
Rp22
(dp23
g7
V175
p24
sg9
VTogepi
p25
sg11
VSw,Sh,
p26
sg13
VGrass
p27
sg15
V26
p28
sg17
V28
p29
sg19
g20
sbag1
(g2
g3
Ntp30
Rp31
(dp32
g7
V185
p33
sg9
VSudowoodo
p34
sg11
VSw,Sh,
p35
sg13
VGrass
p36
sg15
V26
p37
sg17
V28
p38
sg19
g20
sbag1
(g2
g3
Ntp39
Rp40
(dp41
g7
V202
p42
sg9
VWobbuffet
p43
sg11
VSw,Sh,
p44
sg13
VGrass
p45
sg15
V26
p46
sg17
V28
p47
sg19
g20
sbag1
(g2
g3
Ntp48
Rp49
(dp50
g7
V215
p51
sg9
VSneasel
p52
sg11
VSw,Sh,
p53
sg13
VGrass
p54
sg15
V26
p55
sg17
V28
p56
sg19
g20
sbag1
(g2
g3
Ntp57
Rp58
(dp59
g7
V303
p60
sg9
VMawile
p61
sg11
VSw,
p62
sg13
VGrass
p63
sg15
V26
p64
sg17
V28
p65
sg19
g20
sbag1
(g2
g3
Ntp66
Rp67
(dp68
g7
V422
p69
sg9
VShellos
p70
sg11
VSw,Sh,
p71
sg13
VGrass
p72
sg15
V26
p73
sg17
V28
p74
sg19
g20
sbag1
(g2
g3
Ntp75
Rp76
(dp77
g7
V510
p78
sg9
VLiepard
p79
sg11
VSw,Sh,
p80
sg13
VGrass
p81
sg15
V26
p82
sg17
V28
p83
sg19
g20
sbag1
(g2
g3
Ntp84
Rp85
(dp86
g7
V536
p87
sg9
VPalpitoad
p88
sg11
VSw,Sh,
p89
sg13
VGrass
p90
sg15
V26
p91
sg17
V28
p92
sg19
g20
sbag1
(g2
g3
Ntp93
Rp94
(dp95
g7
V582
p96
sg9
VVanillite
p97
sg11
g62
sg13
VGrass
p98
sg15
V26
p99
sg17
V28
p100
sg19
g20
sbag1
(g2
g3
Ntp101
Rp102
(dp103
g7
V582
p104
sg9
VVanillite
p105
sg11
VSh,
p106
sg13
VGrass
p107
sg15
V26
p108
sg17
V28
p109
sg19
g20
sbag1
(g2
g3
Ntp110
Rp111
(dp112
g7
V588
p113
sg9
VKarrablast
p114
sg11
VSw,Sh,
p115
sg13
VGrass
p116
sg15
V26
p117
sg17
V28
p118
sg19
g20
sbag1
(g2
g3
Ntp119
Rp120
(dp121
g7
V597
p122
sg9
VFerroseed
p123
sg11
VSw,Sh,
p124
sg13
VGrass
p125
sg15
V26
p126
sg17
V28
p127
sg19
V5
p128
sbag1
(g2
g3
Ntp129
Rp130
(dp131
g7
V605
p132
sg9
VElgyem
p133
sg11
VSw,Sh,
p134
sg13
VGrass
p135
sg15
V26
p136
sg17
V28
p137
sg19
g20
sbag1
(g2
g3
Ntp138
Rp139
(dp140
g7
V607
p141
sg9
VLitwick
p142
sg11
VSw,Sh,
p143
sg13
VGrass
p144
sg15
V26
p145
sg17
V28
p146
sg19
g20
sbag1
(g2
g3
Ntp147
Rp148
(dp149
g7
V613
p150
sg9
VCubchoo
p151
sg11
g62
sg13
VGrass
p152
sg15
V26
p153
sg17
V28
p154
sg19
g20
sbag1
(g2
g3
Ntp155
Rp156
(dp157
g7
V613
p158
sg9
VCubchoo
p159
sg11
g106
sg13
VGrass
p160
sg15
V26
p161
sg17
V28
p162
sg19
g20
sbag1
(g2
g3
Ntp163
Rp164
(dp165
g7
V616
p166
sg9
VShelmet
p167
sg11
VSw,Sh,
p168
sg13
VGrass
p169
sg15
V26
p170
sg17
V28
p171
sg19
g20
sbag1
(g2
g3
Ntp172
Rp173
(dp174
g7
V627
p175
sg9
VRufflet
p176
sg11
g62
sg13
VGrass
p177
sg15
V26
p178
sg17
V28
p179
sg19
g20
sbag1
(g2
g3
Ntp180
Rp181
(dp182
g7
V629
p183
sg9
VVullaby
p184
sg11
g106
sg13
VGrass
p185
sg15
V26
p186
sg17
V28
p187
sg19
g20
sbag1
(g2
g3
Ntp188
Rp189
(dp190
g7
V660
p191
sg9
VDiggersby
p192
sg11
VSw,Sh,
p193
sg13
VGrass
p194
sg15
V26
p195
sg17
V28
p196
sg19
g20
sbag1
(g2
g3
Ntp197
Rp198
(dp199
g7
V686
p200
sg9
VInkay
p201
sg11
VSw,Sh,
p202
sg13
VGrass
p203
sg15
V26
p204
sg17
V28
p205
sg19
g20
sbag1
(g2
g3
Ntp206
Rp207
(dp208
g7
V688
p209
sg9
VBinacle
p210
sg11
VSw,Sh,
p211
sg13
VGrass
p212
sg15
V26
p213
sg17
V28
p214
sg19
g20
sbag1
(g2
g3
Ntp215
Rp216
(dp217
g7
V714
p218
sg9
VNoibat
p219
sg11
VSw,Sh,
p220
sg13
VGrass
p221
sg15
V26
p222
sg17
V28
p223
sg19
g20
sbag1
(g2
g3
Ntp224
Rp225
(dp226
g7
V767
p227
sg9
VWimpod
p228
sg11
VSw,Sh,
p229
sg13
VGrass
p230
sg15
V26
p231
sg17
V28
p232
sg19
g20
sbag1
(g2
g3
Ntp233
Rp234
(dp235
g7
V828
p236
sg9
VThievul
p237
sg11
VSw,Sh,
p238
sg13
VGrass
p239
sg15
V26
p240
sg17
V28
p241
sg19
g20
sbag1
(g2
g3
Ntp242
Rp243
(dp244
g7
V838
p245
sg9
VCarkol
p246
sg11
VSw,Sh,
p247
sg13
VGrass
p248
sg15
V26
p249
sg17
V28
p250
sg19
g20
sbag1
(g2
g3
Ntp251
Rp252
(dp253
g7
V868
p254
sg9
VMilcery
p255
sg11
VSw,Sh,
p256
sg13
VGrass
p257
sg15
V26
p258
sg17
V28
p259
sg19
g20
sbag1
(g2
g3
Ntp260
Rp261
(dp262
g7
V420
p263
sg9
VCherubi
p264
sg11
VSw,Sh,
p265
sg13
VBerry tree
p266
sg15
V26
p267
sg17
V28
p268
sg19
V25
p269
sbag1
(g2
g3
Ntp270
Rp271
(dp272
g7
V820
p273
sg9
VGreedent
p274
sg11
VSw,Sh,
p275
sg13
VBerry tree
p276
sg15
V26
p277
sg17
V28
p278
sg19
V75
p279
sbag1
(g2
g3
Ntp280
Rp281
(dp282
g7
V129
p283
sg9
VMagikarp
p284
sg11
VSw,Sh,
p285
sg13
VFishing
p286
sg15
V26
p287
sg17
V28
p288
sg19
V30
p289
sbag1
(g2
g3
Ntp290
Rp291
(dp292
g7
V130
p293
sg9
VGyarados
p294
sg11
VSw,Sh,
p295
sg13
VFishing
p296
sg15
V26
p297
sg17
V28
p298
sg19
V5
p299
sbag1
(g2
g3
Ntp300
Rp301
(dp302
g7
V171
p303
sg9
VLanturn
p304
sg11
VSw,Sh,
p305
sg13
VFishing
p306
sg15
V26
p307
sg17
V28
p308
sg19
V25
p309
sbag1
(g2
g3
Ntp310
Rp311
(dp312
g7
V211
p313
sg9
VQwilfish
p314
sg11
VSw,Sh,
p315
sg13
VFishing
p316
sg15
V26
p317
sg17
V28
p318
sg19
V10
p319
sbag1
(g2
g3
Ntp320
Rp321
(dp322
g7
V834
p323
sg9
VDrednaw
p324
sg11
VSw,Sh,
p325
sg13
VFishing
p326
sg15
V26
p327
sg17
V28
p328
sg19
V30
p329
sbag1
(g2
g3
Ntp330
Rp331
(dp332
g7
V202
p333
sg9
VWobbuffet
p334
sg11
VSw,Sh,
p335
sg13
VGrass
p336
sg15
V27
p337
sg17
V29
p338
sg19
g20
sbag1
(g2
g3
Ntp339
Rp340
(dp341
g7
V215
p342
sg9
VSneasel
p343
sg11
VSw,Sh,
p344
sg13
VGrass
p345
sg15
V27
p346
sg17
V29
p347
sg19
g20
sbag1
(g2
g3
Ntp348
Rp349
(dp350
g7
V263
p351
sg9
VZigzagoon
p352
sg11
VSw,Sh,
p353
sg13
VGrass
p354
sg15
V27
p355
sg17
V29
p356
sg19
g20
sbag1
(g2
g3
Ntp357
Rp358
(dp359
g7
V343
p360
sg9
VBaltoy
p361
sg11
VSw,Sh,
p362
sg13
VGrass
p363
sg15
V27
p364
sg17
V29
p365
sg19
g20
sbag1
(g2
g3
Ntp366
Rp367
(dp368
g7
V436
p369
sg9
VBronzor
p370
sg11
VSw,Sh,
p371
sg13
VGrass
p372
sg15
V27
p373
sg17
V29
p374
sg19
g20
sbag1
(g2
g3
Ntp375
Rp376
(dp377
g7
V438
p378
sg9
VBonsly
p379
sg11
VSw,Sh,
p380
sg13
VGrass
p381
sg15
V27
p382
sg17
V29
p383
sg19
g20
sbag1
(g2
g3
Ntp384
Rp385
(dp386
g7
V453
p387
sg9
VCroagunk
p388
sg11
g106
sg13
VGrass
p389
sg15
V27
p390
sg17
V29
p391
sg19
g20
sbag1
(g2
g3
Ntp392
Rp393
(dp394
g7
V517
p395
sg9
VMunna
p396
sg11
VSw,Sh,
p397
sg13
VGrass
p398
sg15
V27
p399
sg17
V29
p400
sg19
g20
sbag1
(g2
g3
Ntp401
Rp402
(dp403
g7
V538
p404
sg9
VThroh
p405
sg11
g106
sg13
VGrass
p406
sg15
V27
p407
sg17
V29
p408
sg19
g20
sbag1
(g2
g3
Ntp409
Rp410
(dp411
g7
V539
p412
sg9
VSawk
p413
sg11
g62
sg13
VGrass
p414
sg15
V27
p415
sg17
V29
p416
sg19
g20
sbag1
(g2
g3
Ntp417
Rp418
(dp419
g7
V556
p420
sg9
VMaractus
p421
sg11
VSw,Sh,
p422
sg13
VGrass
p423
sg15
V27
p424
sg17
V29
p425
sg19
g20
sbag1
(g2
g3
Ntp426
Rp427
(dp428
g7
V559
p429
sg9
VScraggy
p430
sg11
g62
sg13
VGrass
p431
sg15
V27
p432
sg17
V29
p433
sg19
g20
sbag1
(g2
g3
Ntp434
Rp435
(dp436
g7
V592
p437
sg9
VFrillish
p438
sg11
VSw,Sh,
p439
sg13
VGrass
p440
sg15
V27
p441
sg17
V29
p442
sg19
g20
sbag1
(g2
g3
Ntp443
Rp444
(dp445
g7
V605
p446
sg9
VElgyem
p447
sg11
VSw,Sh,
p448
sg13
VGrass
p449
sg15
V27
p450
sg17
V29
p451
sg19
g20
sbag1
(g2
g3
Ntp452
Rp453
(dp454
g7
V613
p455
sg9
VCubchoo
p456
sg11
VSw,Sh,
p457
sg13
VGrass
p458
sg15
V27
p459
sg17
V29
p460
sg19
g20
sbag1
(g2
g3
Ntp461
Rp462
(dp463
g7
V714
p464
sg9
VNoibat
p465
sg11
VSw,Sh,
p466
sg13
VGrass
p467
sg15
V27
p468
sg17
V29
p469
sg19
g20
sbag1
(g2
g3
Ntp470
Rp471
(dp472
g7
V742
p473
sg9
VCutiefly
p474
sg11
VSw,Sh,
p475
sg13
VGrass
p476
sg15
V27
p477
sg17
V29
p478
sg19
g20
sbag1
(g2
g3
Ntp479
Rp480
(dp481
g7
V759
p482
sg9
VStufful
p483
sg11
VSw,Sh,
p484
sg13
VGrass
p485
sg15
V27
p486
sg17
V29
p487
sg19
g20
sbag1
(g2
g3
Ntp488
Rp489
(dp490
g7
V845
p491
sg9
VCramorant
p492
sg11
VSw,Sh,
p493
sg13
VGrass
p494
sg15
V27
p495
sg17
V29
p496
sg19
g20
sbag1
(g2
g3
Ntp497
Rp498
(dp499
g7
V848
p500
sg9
VToxel
p501
sg11
VSw,Sh,
p502
sg13
VGrass
p503
sg15
V27
p504
sg17
V29
p505
sg19
g20
sbag1
(g2
g3
Ntp506
Rp507
(dp508
g7
V878
p509
sg9
VCufant
p510
sg11
VSw,Sh,
p511
sg13
VGrass
p512
sg15
V27
p513
sg17
V29
p514
sg19
g20
sbag1
(g2
g3
Ntp515
Rp516
(dp517
g7
V520
p518
sg9
VTranquill
p519
sg11
VSw,Sh,
p520
sg13
VFlying
p521
sg15
V27
p522
sg17
V29
p523
sg19
g20
sbag1
(g2
g3
Ntp524
Rp525
(dp526
g7
V527
p527
sg9
VWoobat
p528
sg11
VSw,Sh,
p529
sg13
VFlying
p530
sg15
V27
p531
sg17
V29
p532
sg19
g20
sbag1
(g2
g3
Ntp533
Rp534
(dp535
g7
V582
p536
sg9
VVanillite
p537
sg11
VSw,Sh,
p538
sg13
VFlying
p539
sg15
V27
p540
sg17
V29
p541
sg19
g20
sbag1
(g2
g3
Ntp542
Rp543
(dp544
g7
V714
p545
sg9
VNoibat
p546
sg11
VSw,Sh,
p547
sg13
VFlying
p548
sg15
V27
p549
sg17
V29
p550
sg19
g20
sbag1
(g2
g3
Ntp551
Rp552
(dp553
g7
V118
p554
sg9
VGoldeen
p555
sg11
VSw,Sh,
p556
sg13
VSurf
p557
sg15
V40
p558
sg17
V43
p559
sg19
g20
sbag1
(g2
g3
Ntp560
Rp561
(dp562
g7
V211
p563
sg9
VQwilfish
p564
sg11
VSw,Sh,
p565
sg13
VSurf
p566
sg15
V40
p567
sg17
V43
p568
sg19
g20
sbag1
(g2
g3
Ntp569
Rp570
(dp571
g7
V582
p572
sg9
VVanillite
p573
sg11
VSw,Sh,
p574
sg13
VSurf
p575
sg15
V40
p576
sg17
V43
p577
sg19
g20
sbag1
(g2
g3
Ntp578
Rp579
(dp580
g7
V686
p581
sg9
VInkay
p582
sg11
VSw,Sh,
p583
sg13
VSurf
p584
sg15
V40
p585
sg17
V43
p586
sg19
V15
p587
sbag1
(g2
g3
Ntp588
Rp589
(dp590
g7
V264
p591
sg9
VLinoone
p592
sg11
VSw,Sh,
p593
sg13
VWanderer
p594
sg15
V40
p595
sg17
g595
sg19
g20
sbag1
(g2
g3
Ntp596
Rp597
(dp598
g7
V743
p599
sg9
VRibombee
p600
sg11
VSw,Sh,
p601
sg13
VWanderer
p602
sg15
V40
p603
sg17
g603
sg19
g20
sbag1
(g2
g3
Ntp604
Rp605
(dp606
g7
V760
p607
sg9
VBewear
p608
sg11
VSw,Sh,
p609
sg13
VWanderer
p610
sg15
V40
p611
sg17
g611
sg19
g20
sbag1
(g2
g3
Ntp612
Rp613
(dp614
g7
V569
p615
sg9
VGarbodor
p616
sg11
VSw,Sh,
p617
sg13
VWanderer
p618
sg15
V40
p619
sg17
g619
sg19
V0
p620
sbag1
(g2
g3
Ntp621
Rp622
(dp623
g7
V112
p624
sg9
VRhydon
p625
sg11
VSw,Sh,
p626
sg13
VWanderer
p627
sg15
V50
p628
sg17
g628
sg19
g20
sbag1
(g2
g3
Ntp629
Rp630
(dp631
g7
V452
p632
sg9
VDrapion
p633
sg11
VSw,Sh,
p634
sg13
VWanderer
p635
sg15
V50
p636
sg17
g636
sg19
g20
sbag1
(g2
g3
Ntp637
Rp638
(dp639
g7
V584
p640
sg9
VVanilluxe
p641
sg11
VSw,Sh,
p642
sg13
VWanderer
p643
sg15
V50
p644
sg17
g644
sg19
g20
sbag1
(g2
g3
Ntp645
Rp646
(dp647
g7
V768
p648
sg9
VGolisopod
p649
sg11
VSw,Sh,
p650
sg13
VWanderer
p651
sg15
V50
p652
sg17
g652
sg19
g20
sbag1
(g2
g3
Ntp653
Rp654
(dp655
g7
V778
p656
sg9
VMimikyu
p657
sg11
VSw,Sh,
p658
sg13
VWanderer
p659
sg15
V50
p660
sg17
g660
sg19
g20
sbag1
(g2
g3
Ntp661
Rp662
(dp663
g7
V344
p664
sg9
VClaydol
p665
sg11
VSw,Sh,
p666
sg13
VWanderer
p667
sg15
V42
p668
sg17
g668
sg19
g20
sbag1
(g2
g3
Ntp669
Rp670
(dp671
g7
V437
p672
sg9
VBronzong
p673
sg11
VSw,Sh,
p674
sg13
VWanderer
p675
sg15
V42
p676
sg17
g676
sg19
g20
sbag1
(g2
g3
Ntp677
Rp678
(dp679
g7
V606
p680
sg9
VBeheeyem
p681
sg11
VSw,Sh,
p682
sg13
VWanderer
p683
sg15
V42
p684
sg17
g684
sg19
g20
sbag1
(g2
g3
Ntp685
Rp686
(dp687
g7
V164
p688
sg9
VNoctowl
p689
sg11
VSw,Sh,
p690
sg13
VWanderer
p691
sg15
V50
p692
sg17
g692
sg19
g20
sbag1
(g2
g3
Ntp693
Rp694
(dp695
g7
V715
p696
sg9
VNoivern
p697
sg11
VSw,Sh,
p698
sg13
VWanderer
p699
sg15
V50
p700
sg17
g700
sg19
g20
sbag1
(g2
g3
Ntp701
Rp702
(dp703
g7
V675
p704
sg9
VPangoro
p705
sg11
VSw,Sh,
p706
sg13
VWanderer
p707
sg15
V42
p708
sg17
g708
sg19
g20
sbag1
(g2
g3
Ntp709
Rp710
(dp711
g7
V760
p712
sg9
VBewear
p713
sg11
VSw,Sh,
p714
sg13
VWanderer
p715
sg15
V42
p716
sg17
g716
sg19
g20
sbag1
(g2
g3
Ntp717
Rp718
(dp719
g7
V264
p720
sg9
VLinoone
p721
sg11
VSw,Sh,
p722
sg13
VWanderer
p723
sg15
V40
p724
sg17
g724
sg19
V0
p725
sbag1
(g2
g3
Ntp726
Rp727
(dp728
g7
V537
p729
sg9
VSeismitoad
p730
sg11
VSw,Sh,
p731
sg13
VWanderer
p732
sg15
V46
p733
sg17
g733
sg19
g20
sbag1
(g2
g3
Ntp734
Rp735
(dp736
g7
V584
p737
sg9
VVanilluxe
p738
sg11
VSw,Sh,
p739
sg13
VWanderer
p740
sg15
V47
p741
sg17
g741
sg19
g20
sbag1
(g2
g3
Ntp742
Rp743
(dp744
g7
V760
p745
sg9
VBewear
p746
sg11
VSw,Sh,
p747
sg13
VWanderer
p748
sg15
V46
p749
sg17
g749
sg19
g20
sbag1
(g2
g3
Ntp750
Rp751
(dp752
g7
V862
p753
sg9
VObstagoon
p754
sg11
VSw,Sh,
p755
sg13
VWanderer
p756
sg15
V65
p757
sg17
g757
sg19
V0
p758
sbag1
(g2
g3
Ntp759
Rp760
(dp761
g7
V598
p762
sg9
VFerrothorn
p763
sg11
VSw,Sh,
p764
sg13
VWanderer
p765
sg15
V40
p766
sg17
g766
sg19
V0
p767
sbag1
(g2
g3
Ntp768
Rp769
(dp770
g7
V820
p771
sg9
VGreedent
p772
sg11
VSw,Sh,
p773
sg13
VWanderer
p774
sg15
V42
p775
sg17
g775
sg19
V0
p776
sbag1
(g2
g3
Ntp777
Rp778
(dp779
g7
V130
p780
sg9
VGyarados
p781
sg11
VSw,Sh,
p782
sg13
VWanderer
p783
sg15
V56
p784
sg17
g784
sg19
V0
p785
sbag1
(g2
g3
Ntp786
Rp787
(dp788
g7
V119
p789
sg9
VSeaking
p790
sg11
VSw,Sh,
p791
sg13
VWanderer
p792
sg15
V46
p793
sg17
g793
sg19
g20
sbag1
(g2
g3
Ntp794
Rp795
(dp796
g7
V171
p797
sg9
VLanturn
p798
sg11
VSw,Sh,
p799
sg13
VWanderer
p800
sg15
V46
p801
sg17
g801
sg19
g20
sbag1
(g2
g3
Ntp802
Rp803
(dp804
g7
V279
p805
sg9
VPelipper
p806
sg11
VSw,Sh,
p807
sg13
VWanderer
p808
sg15
V46
p809
sg17
g809
sg19
g20
sbag1
(g2
g3
Ntp810
Rp811
(dp812
g7
V584
p813
sg9
VVanilluxe
p814
sg11
VSw,Sh,
p815
sg13
VWanderer
p816
sg15
V47
p817
sg17
g817
sg19
g20
sbag1
(g2
g3
Ntp818
Rp819
(dp820
g7
V593
p821
sg9
VJellicent
p822
sg11
VSw,Sh,
p823
sg13
VWanderer
p824
sg15
V46
p825
sg17
g825
sg19
g20
sbag1
(g2
g3
Ntp826
Rp827
(dp828
g7
V461
p829
sg9
VWeavile
p830
sg11
VSw,Sh,
p831
sg13
VWanderer
p832
sg15
V60
p833
sg17
g833
sg19
g20
sbag1
(g2
g3
Ntp834
Rp835
(dp836
g7
V475
p837
sg9
VGallade
p838
sg11
VSw,Sh,
p839
sg13
VWanderer
p840
sg15
V60
p841
sg17
g841
sg19
g20
sbag1
(g2
g3
Ntp842
Rp843
(dp844
g7
V614
p845
sg9
VBeartic
p846
sg11
VSw,Sh,
p847
sg13
VWanderer
p848
sg15
V60
p849
sg17
g849
sg19
g20
sbag1
(g2
g3
Ntp850
Rp851
(dp852
g7
V518
p853
sg9
VMusharna
p854
sg11
VSw,Sh,
p855
sg13
VWanderer
p856
sg15
V60
p857
sg17
g857
sg19
g20
sba.