(lp0
ccopy_reg
_reconstructor
p1
(c__main__
WildPokemon
p2
c__builtin__
object
p3
Ntp4
Rp5
(dp6
VpDexNo
p7
V019
p8
sVpSpecies
p9
VRattata
p10
sVpGames
p11
VG,S,
p12
sVpArea
p13
V1F
p14
sVpMinLevel
p15
V13
p16
sVpMaxLevel
p17
V15
p18
sVpRate
p19
V50
p20
sbag1
(g2
g3
Ntp21
Rp22
(dp23
g7
V019
p24
sg9
VRattata
p25
sg11
VC,
p26
sg13
V1F
p27
sg15
V13
p28
sg17
V15
p29
sg19
V55
p30
sbag1
(g2
g3
Ntp31
Rp32
(dp33
g7
V020
p34
sg9
VRaticate
p35
sg11
VG,S,C,
p36
sg13
V1F
p37
sg15
V15
p38
sg17
g38
sg19
V5
p39
sbag1
(g2
g3
Ntp40
Rp41
(dp42
g7
V041
p43
sg9
VZubat
p44
sg11
VG,S,C,
p45
sg13
V1F
p46
sg15
V14
p47
sg17
g47
sg19
V10
p48
sbag1
(g2
g3
Ntp49
Rp50
(dp51
g7
V109
p52
sg9
VKoffing
p53
sg11
VG,S,
p54
sg13
V1F
p55
sg15
V14
p56
sg17
V16
p57
sg19
V35
p58
sbag1
(g2
g3
Ntp59
Rp60
(dp61
g7
V109
p62
sg9
VKoffing
p63
sg11
g26
sg13
V1F
p64
sg15
V14
p65
sg17
g65
sg19
V30
p66
sbag1
(g2
g3
Ntp67
Rp68
(dp69
g7
V098
p70
sg9
VKrabby
p71
sg11
VG,S,
p72
sg13
VRock Smash
p73
sg15
V15
p74
sg17
g74
sg19
V90
p75
sbag1
(g2
g3
Ntp76
Rp77
(dp78
g7
V213
p79
sg9
VShuckle
p80
sg11
VG,S,
p81
sg13
VRock Smash
p82
sg15
V15
p83
sg17
g83
sg19
V10
p84
sbag1
(g2
g3
Ntp85
Rp86
(dp87
g7
V019
p88
sg9
VRattata
p89
sg11
VG,S,
p90
sg13
VB1F
p91
sg15
V14
p92
sg17
V16
p93
sg19
V40
p94
sbag1
(g2
g3
Ntp95
Rp96
(dp97
g7
V019
p98
sg9
VRattata
p99
sg11
g26
sg13
VB1F
p100
sg15
V14
p101
sg17
g101
sg19
V30
p102
sbag1
(g2
g3
Ntp103
Rp104
(dp105
g7
V041
p106
sg9
VZubat
p107
sg11
VG,S,
p108
sg13
VB1F
p109
sg15
V15
p110
sg17
g110
sg19
V5
p111
sbag1
(g2
g3
Ntp112
Rp113
(dp114
g7
V041
p115
sg9
VZubat
p116
sg11
g26
sg13
VB1F
p117
sg15
V15
p118
sg17
g118
sg19
V10
p119
sbag1
(g2
g3
Ntp120
Rp121
(dp122
g7
V109
p123
sg9
VKoffing
p124
sg11
VG,S,
p125
sg13
VB1F
p126
sg15
V14
p127
sg17
V16
p128
sg19
V50
p129
sbag1
(g2
g3
Ntp130
Rp131
(dp132
g7
V109
p133
sg9
VKoffing
p134
sg11
g26
sg13
VB1F
p135
sg15
V12
p136
sg17
V16
p137
sg19
V59
p138
sbag1
(g2
g3
Ntp139
Rp140
(dp141
g7
V110
p142
sg9
VWeezing
p143
sg11
g26
sg13
VB1F
p144
sg15
V16
p145
sg17
g145
sg19
V1
p146
sbag1
(g2
g3
Ntp147
Rp148
(dp149
g7
V126
p150
sg9
VMagmar
p151
sg11
VG,S,
p152
sg13
VB1F
p153
sg15
V14
p154
sg17
g154
sg19
V5
p155
sbag1
(g2
g3
Ntp156
Rp157
(dp158
g7
V126
p159
sg9
VMagmar
p160
sg11
VG,S,
p161
sg13
VB1F
p162
sg15
V16
p163
sg17
g163
sg19
V10
p164
sbag1
(g2
g3
Ntp165
Rp166
(dp167
g7
V019
p168
sg9
VRattata
p169
sg11
VHG,SS,
p170
sg13
V1F
p171
sg15
V13
p172
sg17
V15
p173
sg19
V50
p174
sbag1
(g2
g3
Ntp175
Rp176
(dp177
g7
V020
p178
sg9
VRaticate
p179
sg11
VHG,SS,
p180
sg13
V1F
p181
sg15
V15
p182
sg17
g182
sg19
V5
p183
sbag1
(g2
g3
Ntp184
Rp185
(dp186
g7
V041
p187
sg9
VZubat
p188
sg11
VHG,SS,
p189
sg13
V1F
p190
sg15
V14
p191
sg17
g191
sg19
V10
p192
sbag1
(g2
g3
Ntp193
Rp194
(dp195
g7
V109
p196
sg9
VKoffing
p197
sg11
VHG,SS,
p198
sg13
V1F
p199
sg15
V14
p200
sg17
V16
p201
sg19
V35
p202
sbag1
(g2
g3
Ntp203
Rp204
(dp205
g7
V263
p206
sg9
VZigzagoon
p207
sg11
VHG,SS,
p208
sg13
VHoenn
p209
sg15
V13
p210
sg17
V14
p211
sg19
V20
p212
sbag1
(g2
g3
Ntp213
Rp214
(dp215
g7
V327
p216
sg9
VSpinda
p217
sg11
VHG,SS,
p218
sg13
VHoenn
p219
sg15
V15
p220
sg17
g220
sg19
V20
p221
sbag1
(g2
g3
Ntp222
Rp223
(dp224
g7
V307
p225
sg9
VMeditite
p226
sg11
VHG,SS,
p227
sg13
VSinnoh
p228
sg15
V15
p229
sg17
g229
sg19
V20
p230
sbag1
(g2
g3
Ntp231
Rp232
(dp233
g7
V441
p234
sg9
VChatot
p235
sg11
VHG,SS,
p236
sg13
VSinnoh
p237
sg15
V14
p238
sg17
g238
sg19
V20
p239
sbag1
(g2
g3
Ntp240
Rp241
(dp242
g7
V019
p243
sg9
VRattata
p244
sg11
VHG,SS,
p245
sg13
VB1F
p246
sg15
V14
p247
sg17
V16
p248
sg19
V40
p249
sbag1
(g2
g3
Ntp250
Rp251
(dp252
g7
V019
p253
sg9
VRattata
p254
sg11
VHG,SS,
p255
sg13
VB1F
p256
sg15
V14
p257
sg17
g257
sg19
V35
p258
sbag1
(g2
g3
Ntp259
Rp260
(dp261
g7
V041
p262
sg9
VZubat
p263
sg11
VHG,SS,
p264
sg13
VB1F
p265
sg15
V15
p266
sg17
g266
sg19
V5
p267
sbag1
(g2
g3
Ntp268
Rp269
(dp270
g7
V109
p271
sg9
VKoffing
p272
sg11
VHG,SS,
p273
sg13
VB1F
p274
sg15
V14
p275
sg17
V16
p276
sg19
V50
p277
sbag1
(g2
g3
Ntp278
Rp279
(dp280
g7
V126
p281
sg9
VMagmar
p282
sg11
VHG,SS,
p283
sg13
VB1F
p284
sg15
V14
p285
sg17
g285
sg19
V5
p286
sbag1
(g2
g3
Ntp287
Rp288
(dp289
g7
V126
p290
sg9
VMagmar
p291
sg11
VHG,SS,
p292
sg13
VB1F
p293
sg15
V16
p294
sg17
g294
sg19
V10
p295
sbag1
(g2
g3
Ntp296
Rp297
(dp298
g7
V245
p299
sg9
VSuicune
p300
sg11
VHG,SS,
p301
sg13
VSpecial
p302
sg15
V40
p303
sg17
g303
sg19
V0
p304
sbag1
(g2
g3
Ntp305
Rp306
(dp307
g7
V263
p308
sg9
VZigzagoon
p309
sg11
VHG,SS,
p310
sg13
VHoenn
p311
sg15
V14
p312
sg17
g312
sg19
V20
p313
sbag1
(g2
g3
Ntp314
Rp315
(dp316
g7
V327
p317
sg9
VSpinda
p318
sg11
VHG,SS,
p319
sg13
VHoenn
p320
sg15
V16
p321
sg17
g321
sg19
V20
p322
sbag1
(g2
g3
Ntp323
Rp324
(dp325
g7
V307
p326
sg9
VMeditite
p327
sg11
VHG,SS,
p328
sg13
VSinnoh
p329
sg15
V16
p330
sg17
g330
sg19
V20
p331
sbag1
(g2
g3
Ntp332
Rp333
(dp334
g7
V441
p335
sg9
VChatot
p336
sg11
VHG,SS,
p337
sg13
VSinnoh
p338
sg15
V14
p339
sg17
g339
sg19
V20
p340
sba.