(lp0
ccopy_reg
_reconstructor
p1
(c__main__
WildPokemon
p2
c__builtin__
object
p3
Ntp4
Rp5
(dp6
VpDexNo
p7
V129
p8
sVpSpecies
p9
VMagikarp
p10
sVpGames
p11
VX,Y,
p12
sVpArea
p13
VTrade
p14
sVpMinLevel
p15
V5
p16
sVpMaxLevel
p17
g16
sVpRate
p18
V0
p19
sbag1
(g2
g3
Ntp20
Rp21
(dp22
g7
V133
p23
sg9
VEevee
p24
sg11
VX,Y,
p25
sg13
VTrade
p26
sg15
g16
sg17
g16
sg18
V0
p27
sba.