(lp0
ccopy_reg
_reconstructor
p1
(c__main__
WildPokemon
p2
c__builtin__
object
p3
Ntp4
Rp5
(dp6
VpDexNo
p7
V072
p8
sVpSpecies
p9
VTentacool
p10
sVpGames
p11
VD,P,Pt,
p12
sVpArea
p13
VSurf
p14
sVpMinLevel
p15
V20
p16
sVpMaxLevel
p17
V30
p18
sVpRate
p19
V60
p20
sbag1
(g2
g3
Ntp21
Rp22
(dp23
g7
V073
p24
sg9
VTentacruel
p25
sg11
VD,P,
p26
sg13
VSurf
p27
sg15
V20
p28
sg17
V40
p29
sg19
V5
p30
sbag1
(g2
g3
Ntp31
Rp32
(dp33
g7
V073
p34
sg9
VTentacruel
p35
sg11
VPt,
p36
sg13
VSurf
p37
sg15
V20
p38
sg17
V40
p39
sg19
V9
p40
sbag1
(g2
g3
Ntp41
Rp42
(dp43
g7
V278
p44
sg9
VWingull
p45
sg11
VD,P,
p46
sg13
VSurf
p47
sg15
V20
p48
sg17
V30
p49
sg19
V30
p50
sbag1
(g2
g3
Ntp51
Rp52
(dp53
g7
V279
p54
sg9
VPelipper
p55
sg11
VD,P,
p56
sg13
VSurf
p57
sg15
V20
p58
sg17
V40
p59
sg19
V5
p60
sbag1
(g2
g3
Ntp61
Rp62
(dp63
g7
V422
p64
sg9
VShellos
p65
sg11
g36
sg13
VSurf
p66
sg15
V20
p67
sg17
V30
p68
sg19
V30
p69
sbag1
(g2
g3
Ntp70
Rp71
(dp72
g7
V423
p73
sg9
VGastrodon
p74
sg11
g36
sg13
VSurf
p75
sg15
V20
p76
sg17
V40
p77
sg19
V1
p78
sbag1
(g2
g3
Ntp79
Rp80
(dp81
g7
V129
p82
sg9
VMagikarp
p83
sg11
VD,P,
p84
sg13
VFish Old
p85
sg15
V3
p86
sg17
V10
p87
sg19
V100
p88
sbag1
(g2
g3
Ntp89
Rp90
(dp91
g7
V129
p92
sg9
VMagikarp
p93
sg11
g36
sg13
VFish Old
p94
sg15
g86
sg17
V15
p95
sg19
V100
p96
sbag1
(g2
g3
Ntp97
Rp98
(dp99
g7
V129
p100
sg9
VMagikarp
p101
sg11
VD,P,Pt,
p102
sg13
VFish Good
p103
sg15
V10
p104
sg17
V25
p105
sg19
V55
p106
sbag1
(g2
g3
Ntp107
Rp108
(dp109
g7
V456
p110
sg9
VFinneon
p111
sg11
VD,P,Pt,
p112
sg13
VFish Good
p113
sg15
V10
p114
sg17
V25
p115
sg19
V45
p116
sbag1
(g2
g3
Ntp117
Rp118
(dp119
g7
V120
p120
sg9
VStaryu
p121
sg11
VD,P,
p122
sg13
VFish Super
p123
sg15
V20
p124
sg17
V40
p125
sg19
V15
p126
sbag1
(g2
g3
Ntp127
Rp128
(dp129
g7
V120
p130
sg9
VStaryu
p131
sg11
g36
sg13
VFish Super
p132
sg15
V20
p133
sg17
V50
p134
sg19
V15
p135
sbag1
(g2
g3
Ntp136
Rp137
(dp138
g7
V130
p139
sg9
VGyarados
p140
sg11
VD,P,
p141
sg13
VFish Super
p142
sg15
V30
p143
sg17
V40
p144
sg19
V40
p145
sbag1
(g2
g3
Ntp146
Rp147
(dp148
g7
V130
p149
sg9
VGyarados
p150
sg11
g36
sg13
VFish Super
p151
sg15
V30
p152
sg17
V55
p153
sg19
V40
p154
sbag1
(g2
g3
Ntp155
Rp156
(dp157
g7
V457
p158
sg9
VLumineon
p159
sg11
VD,P,
p160
sg13
VFish Super
p161
sg15
V20
p162
sg17
V50
p163
sg19
V45
p164
sbag1
(g2
g3
Ntp165
Rp166
(dp167
g7
V457
p168
sg9
VLumineon
p169
sg11
g36
sg13
VFish Super
p170
sg15
V30
p171
sg17
V55
p172
sg19
V45
p173
sba.