(lp0
ccopy_reg
_reconstructor
p1
(c__main__
WildPokemon
p2
c__builtin__
object
p3
Ntp4
Rp5
(dp6
VpDexNo
p7
V021
p8
sVpSpecies
p9
VSpearow
p10
sVpGames
p11
VFR,LG,
p12
sVpArea
p13
VGrass
p14
sVpMinLevel
p15
V44
p16
sVpMaxLevel
p17
g16
sVpRate
p18
V20
p19
sbag1
(g2
g3
Ntp20
Rp21
(dp22
g7
V022
p23
sg9
VFearow
p24
sg11
VFR,LG,
p25
sg13
VGrass
p26
sg15
V48
p27
sg17
V50
p28
sg18
V15
p29
sbag1
(g2
g3
Ntp30
Rp31
(dp32
g7
V052
p33
sg9
VMeowth
p34
sg11
VFR,LG,
p35
sg13
VGrass
p36
sg15
V41
p37
sg17
g37
sg18
V10
p38
sbag1
(g2
g3
Ntp39
Rp40
(dp41
g7
V053
p42
sg9
VPersian
p43
sg11
VFR,LG,
p44
sg13
VGrass
p45
sg15
V47
p46
sg17
V50
p47
sg18
V5
p48
sbag1
(g2
g3
Ntp49
Rp50
(dp51
g7
V054
p52
sg9
VPsyduck
p53
sg11
VFR,
p54
sg13
VGrass
p55
sg15
V41
p56
sg17
g56
sg18
V5
p57
sbag1
(g2
g3
Ntp58
Rp59
(dp60
g7
V079
p61
sg9
VSlowpoke
p62
sg11
VLG,
p63
sg13
VGrass
p64
sg15
V41
p65
sg17
g65
sg18
V5
p66
sbag1
(g2
g3
Ntp67
Rp68
(dp69
g7
V161
p70
sg9
VSentret
p71
sg11
VFR,LG,
p72
sg13
VGrass
p73
sg15
V10
p74
sg17
V15
p75
sg18
V30
p76
sbag1
(g2
g3
Ntp77
Rp78
(dp79
g7
V231
p80
sg9
VPhanpy
p81
sg11
VFR,LG,
p82
sg13
VGrass
p83
sg15
V10
p84
sg17
V15
p85
sg18
V15
p86
sba.