(lp0
ccopy_reg
_reconstructor
p1
(c__main__
WildPokemon
p2
c__builtin__
object
p3
Ntp4
Rp5
(dp6
VpDexNo
p7
V021
p8
sVpSpecies
p9
VSpearow
p10
sVpGames
p11
VFR,LG,
p12
sVpArea
p13
VGrass
p14
sVpMinLevel
p15
V31
p16
sVpMaxLevel
p17
g16
sVpRate
p18
V20
p19
sbag1
(g2
g3
Ntp20
Rp21
(dp22
g7
V022
p23
sg9
VFearow
p24
sg11
VFR,LG,
p25
sg13
VGrass
p26
sg15
V36
p27
sg17
g27
sg18
V10
p28
sbag1
(g2
g3
Ntp29
Rp30
(dp31
g7
V043
p32
sg9
VOddish
p33
sg11
VFR,
p34
sg13
VGrass
p35
sg15
V30
p36
sg17
V32
p37
sg18
V30
p38
sbag1
(g2
g3
Ntp39
Rp40
(dp41
g7
V044
p42
sg9
VGloom
p43
sg11
g34
sg13
VGrass
p44
sg15
V36
p45
sg17
V38
p46
sg18
V15
p47
sbag1
(g2
g3
Ntp48
Rp49
(dp50
g7
V052
p51
sg9
VMeowth
p52
sg11
VFR,LG,
p53
sg13
VGrass
p54
sg15
V31
p55
sg17
g55
sg18
V10
p56
sbag1
(g2
g3
Ntp57
Rp58
(dp59
g7
V053
p60
sg9
VPersian
p61
sg11
VFR,LG,
p62
sg13
VGrass
p63
sg15
V37
p64
sg17
V40
p65
sg18
V5
p66
sbag1
(g2
g3
Ntp67
Rp68
(dp69
g7
V054
p70
sg9
VPsyduck
p71
sg11
g34
sg13
VGrass
p72
sg15
V31
p73
sg17
g73
sg18
V5
p74
sbag1
(g2
g3
Ntp75
Rp76
(dp77
g7
V055
p78
sg9
VGolduck
p79
sg11
g34
sg13
VGrass
p80
sg15
V37
p81
sg17
V40
p82
sg18
V5
p83
sbag1
(g2
g3
Ntp84
Rp85
(dp86
g7
V069
p87
sg9
VBellsprout
p88
sg11
VLG,
p89
sg13
VGrass
p90
sg15
V30
p91
sg17
V32
p92
sg18
V30
p93
sbag1
(g2
g3
Ntp94
Rp95
(dp96
g7
V070
p97
sg9
VWeepinbell
p98
sg11
g89
sg13
VGrass
p99
sg15
V36
p100
sg17
V38
p101
sg18
V15
p102
sbag1
(g2
g3
Ntp103
Rp104
(dp105
g7
V079
p106
sg9
VSlowpoke
p107
sg11
g89
sg13
VGrass
p108
sg15
V31
p109
sg17
g109
sg18
V5
p110
sbag1
(g2
g3
Ntp111
Rp112
(dp113
g7
V080
p114
sg9
VSlowbro
p115
sg11
g89
sg13
VGrass
p116
sg15
V37
p117
sg17
V40
p118
sg18
V5
p119
sbag1
(g2
g3
Ntp120
Rp121
(dp122
g7
V054
p123
sg9
VPsyduck
p124
sg11
g34
sg13
VSurf
p125
sg15
V5
p126
sg17
V40
p127
sg18
V95
p128
sbag1
(g2
g3
Ntp129
Rp130
(dp131
g7
V055
p132
sg9
VGolduck
p133
sg11
g34
sg13
VSurf
p134
sg15
V35
p135
sg17
V40
p136
sg18
V5
p137
sbag1
(g2
g3
Ntp138
Rp139
(dp140
g7
V079
p141
sg9
VSlowpoke
p142
sg11
g89
sg13
VSurf
p143
sg15
g126
sg17
V40
p144
sg18
V95
p145
sbag1
(g2
g3
Ntp146
Rp147
(dp148
g7
V080
p149
sg9
VSlowbro
p150
sg11
g89
sg13
VSurf
p151
sg15
V35
p152
sg17
V40
p153
sg18
V5
p154
sbag1
(g2
g3
Ntp155
Rp156
(dp157
g7
V129
p158
sg9
VMagikarp
p159
sg11
VFR,LG,
p160
sg13
VFish Old
p161
sg15
g126
sg17
g126
sg18
V100
p162
sbag1
(g2
g3
Ntp163
Rp164
(dp165
g7
V060
p166
sg9
VPoliwag
p167
sg11
VFR,LG,
p168
sg13
VFish Good
p169
sg15
g126
sg17
V15
p170
sg18
V60
p171
sbag1
(g2
g3
Ntp172
Rp173
(dp174
g7
V118
p175
sg9
VGoldeen
p176
sg11
VFR,LG,
p177
sg13
VFish Good
p178
sg15
g126
sg17
V15
p179
sg18
V20
p180
sbag1
(g2
g3
Ntp181
Rp182
(dp183
g7
V129
p184
sg9
VMagikarp
p185
sg11
VFR,LG,
p186
sg13
VFish Good
p187
sg15
g126
sg17
V15
p188
sg18
V20
p189
sbag1
(g2
g3
Ntp190
Rp191
(dp192
g7
V054
p193
sg9
VPsyduck
p194
sg11
g34
sg13
VFish Super
p195
sg15
V15
p196
sg17
V35
p197
sg18
V5
p198
sbag1
(g2
g3
Ntp199
Rp200
(dp201
g7
V060
p202
sg9
VPoliwag
p203
sg11
VFR,LG,
p204
sg13
VFish Super
p205
sg15
V15
p206
sg17
V25
p207
sg18
V40
p208
sbag1
(g2
g3
Ntp209
Rp210
(dp211
g7
V061
p212
sg9
VPoliwhirl
p213
sg11
VFR,LG,
p214
sg13
VFish Super
p215
sg15
V20
p216
sg17
V30
p217
sg18
V40
p218
sbag1
(g2
g3
Ntp219
Rp220
(dp221
g7
V079
p222
sg9
VSlowpoke
p223
sg11
g89
sg13
VFish Super
p224
sg15
V15
p225
sg17
V35
p226
sg18
V5
p227
sbag1
(g2
g3
Ntp228
Rp229
(dp230
g7
V130
p231
sg9
VGyarados
p232
sg11
VFR,LG,
p233
sg13
VFish Super
p234
sg15
V15
p235
sg17
V25
p236
sg18
V15
p237
sba.