(lp0
ccopy_reg
_reconstructor
p1
(c__main__
WildPokemon
p2
c__builtin__
object
p3
Ntp4
Rp5
(dp6
VpDexNo
p7
V570
p8
sVpSpecies
p9
VZorua
p10
sVpGames
p11
VB,W,
p12
sVpArea
p13
VGift
p14
sVpMinLevel
p15
V10
p16
sVpMaxLevel
p17
g16
sVpRate
p18
V0
p19
sbag1
(g2
g3
Ntp20
Rp21
(dp22
g7
V133
p23
sg9
VEevee
p24
sg11
VB2,W2,
p25
sg13
VGift
p26
sg15
V10
p27
sg17
g27
sg18
V0
p28
sbag1
(g2
g3
Ntp29
Rp30
(dp31
g7
V019
p32
sg9
VRattata
p33
sg11
VB2,W2,
p34
sg13
VGrass
p35
sg15
V15
p36
sg17
V16
p37
sg18
V30
p38
sbag1
(g2
g3
Ntp39
Rp40
(dp41
g7
V133
p42
sg9
VEevee
p43
sg11
VB2,W2,
p44
sg13
VGrass
p45
sg15
V18
p46
sg17
g46
sg18
V5
p47
sbag1
(g2
g3
Ntp48
Rp49
(dp50
g7
V300
p51
sg9
VSkitty
p52
sg11
VW2,
p53
sg13
VGrass
p54
sg15
V15
p55
sg17
V16
p56
sg18
V15
p57
sbag1
(g2
g3
Ntp58
Rp59
(dp60
g7
V427
p61
sg9
VBuneary
p62
sg11
VB2,
p63
sg13
VGrass
p64
sg15
V15
p65
sg17
V16
p66
sg18
V15
p67
sbag1
(g2
g3
Ntp68
Rp69
(dp70
g7
V519
p71
sg9
VPidove
p72
sg11
VB2,W2,
p73
sg13
VGrass
p74
sg15
V15
p75
sg17
V16
p76
sg18
V15
p77
sbag1
(g2
g3
Ntp78
Rp79
(dp80
g7
V546
p81
sg9
VCottonee
p82
sg11
g63
sg13
VGrass
p83
sg15
V15
p84
sg17
V17
p85
sg18
V35
p86
sbag1
(g2
g3
Ntp87
Rp88
(dp89
g7
V548
p90
sg9
VPetilil
p91
sg11
g53
sg13
VGrass
p92
sg15
V15
p93
sg17
V17
p94
sg18
V35
p95
sbag1
(g2
g3
Ntp96
Rp97
(dp98
g7
V019
p99
sg9
VRattata
p100
sg11
VB2,W2,
p101
sg13
VDark
p102
sg15
V16
p103
sg17
V17
p104
sg18
V30
p105
sbag1
(g2
g3
Ntp106
Rp107
(dp108
g7
V133
p109
sg9
VEevee
p110
sg11
VB2,W2,
p111
sg13
VDark
p112
sg15
V19
p113
sg17
g113
sg18
V5
p114
sbag1
(g2
g3
Ntp115
Rp116
(dp117
g7
V300
p118
sg9
VSkitty
p119
sg11
g53
sg13
VDark
p120
sg15
V16
p121
sg17
V17
p122
sg18
V15
p123
sbag1
(g2
g3
Ntp124
Rp125
(dp126
g7
V427
p127
sg9
VBuneary
p128
sg11
g63
sg13
VDark
p129
sg15
V16
p130
sg17
V17
p131
sg18
V15
p132
sbag1
(g2
g3
Ntp133
Rp134
(dp135
g7
V519
p136
sg9
VPidove
p137
sg11
VB2,W2,
p138
sg13
VDark
p139
sg15
V16
p140
sg17
V17
p141
sg18
V15
p142
sbag1
(g2
g3
Ntp143
Rp144
(dp145
g7
V546
p146
sg9
VCottonee
p147
sg11
g63
sg13
VDark
p148
sg15
V16
p149
sg17
V18
p150
sg18
V35
p151
sbag1
(g2
g3
Ntp152
Rp153
(dp154
g7
V548
p155
sg9
VPetilil
p156
sg11
g53
sg13
VDark
p157
sg15
V16
p158
sg17
V18
p159
sg18
V35
p160
sbag1
(g2
g3
Ntp161
Rp162
(dp163
g7
V301
p164
sg9
VDelcatty
p165
sg11
g53
sg13
VRustling
p166
sg15
V18
p167
sg17
g167
sg18
V5
p168
sbag1
(g2
g3
Ntp169
Rp170
(dp171
g7
V428
p172
sg9
VLopunny
p173
sg11
g63
sg13
VRustling
p174
sg15
V18
p175
sg17
g175
sg18
V5
p176
sbag1
(g2
g3
Ntp177
Rp178
(dp179
g7
V531
p180
sg9
VAudino
p181
sg11
VB2,W2,
p182
sg13
VRustling
p183
sg15
V15
p184
sg17
V18
p185
sg18
V90
p186
sbag1
(g2
g3
Ntp187
Rp188
(dp189
g7
V547
p190
sg9
VWhimsicott
p191
sg11
g63
sg13
VRustling
p192
sg15
V18
p193
sg17
g193
sg18
V5
p194
sbag1
(g2
g3
Ntp195
Rp196
(dp197
g7
V549
p198
sg9
VLilligant
p199
sg11
g53
sg13
VRustling
p200
sg15
V18
p201
sg17
g201
sg18
V5
p202
sba.