(lp0
ccopy_reg
_reconstructor
p1
(c__main__
WildPokemon
p2
c__builtin__
object
p3
Ntp4
Rp5
(dp6
VpDexNo
p7
V019
p8
sVpSpecies
p9
VRattata
p10
sVpGames
p11
VB2,W2,
p12
sVpArea
p13
VWalking
p14
sVpMinLevel
p15
V14
p16
sVpMaxLevel
p17
V17
p18
sVpRate
p19
V45
p20
sbag1
(g2
g3
Ntp21
Rp22
(dp23
g7
V041
p24
sg9
VZubat
p25
sg11
VB2,W2,
p26
sg13
VWalking
p27
sg15
V14
p28
sg17
V17
p29
sg19
V45
p30
sbag1
(g2
g3
Ntp31
Rp32
(dp33
g7
V088
p34
sg9
VGrimer
p35
sg11
VB2,W2,
p36
sg13
VWalking
p37
sg15
V15
p38
sg17
V17
p39
sg19
V10
p40
sbag1
(g2
g3
Ntp41
Rp42
(dp43
g7
V088
p44
sg9
VGrimer
p45
sg11
VB2,W2,
p46
sg13
VSurf
p47
sg15
V5
p48
sg17
V15
p49
sg19
V100
p50
sbag1
(g2
g3
Ntp51
Rp52
(dp53
g7
V088
p54
sg9
VGrimer
p55
sg11
VB2,W2,
p56
sg13
VRippling
p57
sg15
g48
sg17
V20
p58
sg19
V95
p59
sbag1
(g2
g3
Ntp60
Rp61
(dp62
g7
V089
p63
sg9
VMuk
p64
sg11
VB2,W2,
p65
sg13
VRippling
p66
sg15
g48
sg17
V20
p67
sg19
V5
p68
sbag1
(g2
g3
Ntp69
Rp70
(dp71
g7
V088
p72
sg9
VGrimer
p73
sg11
VB2,W2,
p74
sg13
VFish Super
p75
sg15
V40
p76
sg17
V70
p77
sg19
V100
p78
sbag1
(g2
g3
Ntp79
Rp80
(dp81
g7
V088
p82
sg9
VGrimer
p83
sg11
VB2,W2,
p84
sg13
VRippling
p85
sg15
V40
p86
sg17
V60
p87
sg19
V90
p88
sbag1
(g2
g3
Ntp89
Rp90
(dp91
g7
V089
p92
sg9
VMuk
p93
sg11
VB2,W2,
p94
sg13
VRippling
p95
sg15
V50
p96
sg17
V70
p97
sg19
V10
p98
sba.