(lp0
ccopy_reg
_reconstructor
p1
(c__main__
WildPokemon
p2
c__builtin__
object
p3
Ntp4
Rp5
(dp6
VpDexNo
p7
V041
p8
sVpSpecies
p9
VZubat
p10
sVpGames
p11
VRu,S,E,
p12
sVpArea
p13
VCave
p14
sVpMinLevel
p15
V28
p16
sVpMaxLevel
p17
V35
p18
sVpRate
p19
V90
p20
sbag1
(g2
g3
Ntp21
Rp22
(dp23
g7
V042
p24
sg9
VGolbat
p25
sg11
VRu,S,E,
p26
sg13
VCave
p27
sg15
V33
p28
sg17
V36
p29
sg19
V10
p30
sbag1
(g2
g3
Ntp31
Rp32
(dp33
g7
V041
p34
sg9
VZubat
p35
sg11
VRu,S,E,
p36
sg13
VCave
p37
sg15
V30
p38
sg17
V34
p39
sg19
V60
p40
sbag1
(g2
g3
Ntp41
Rp42
(dp43
g7
V042
p44
sg9
VGolbat
p45
sg11
VRu,S,E,
p46
sg13
VCave
p47
sg15
V33
p48
sg17
V36
p49
sg19
V10
p50
sbag1
(g2
g3
Ntp51
Rp52
(dp53
g7
V302
p54
sg9
VSableye
p55
sg11
VS,E,
p56
sg13
VCave
p57
sg15
V30
p58
sg17
V34
p59
sg19
V30
p60
sbag1
(g2
g3
Ntp61
Rp62
(dp63
g7
V303
p64
sg9
VMawile
p65
sg11
VRu,
p66
sg13
VCave
p67
sg15
V30
p68
sg17
V34
p69
sg19
V30
p70
sbag1
(g2
g3
Ntp71
Rp72
(dp73
g7
V382
p74
sg9
VKyogre
p75
sg11
VS,
p76
sg13
VSpecial
p77
sg15
V45
p78
sg17
g78
sg19
V0
p79
sbag1
(g2
g3
Ntp80
Rp81
(dp82
g7
V383
p83
sg9
VGroudon
p84
sg11
g66
sg13
VSpecial
p85
sg15
V45
p86
sg17
g86
sg19
V0
p87
sbag1
(g2
g3
Ntp88
Rp89
(dp90
g7
V042
p91
sg9
VGolbat
p92
sg11
VOR,AS,
p93
sg13
VCave
p94
sg15
V33
p95
sg17
V36
p96
sg19
V69
p97
sbag1
(g2
g3
Ntp98
Rp99
(dp100
g7
V302
p101
sg9
VSableye
p102
sg11
VAS,
p103
sg13
VCave
p104
sg15
V33
p105
sg17
V36
p106
sg19
V31
p107
sbag1
(g2
g3
Ntp108
Rp109
(dp110
g7
V303
p111
sg9
VMawile
p112
sg11
VOR,
p113
sg13
VCave
p114
sg15
V33
p115
sg17
V36
p116
sg19
V31
p117
sbag1
(g2
g3
Ntp118
Rp119
(dp120
g7
V041
p121
sg9
VZubat
p122
sg11
VOR,AS,
p123
sg13
VHorde Encounter
p124
sg15
V18
p125
sg17
g125
sg19
V100
p126
sbag1
(g2
g3
Ntp127
Rp128
(dp129
g7
V382
p130
sg9
VKyogre
p131
sg11
g103
sg13
VSpecial
p132
sg15
V45
p133
sg17
g133
sg19
V0
p134
sbag1
(g2
g3
Ntp135
Rp136
(dp137
g7
V383
p138
sg9
VGroudon
p139
sg11
g113
sg13
VSpecial
p140
sg15
V45
p141
sg17
g141
sg19
V0
p142
sba.