(lp0
ccopy_reg
_reconstructor
p1
(c__main__
WildPokemon
p2
c__builtin__
object
p3
Ntp4
Rp5
(dp6
VpDexNo
p7
V129
p8
sVpSpecies
p9
VMagikarp
p10
sVpGames
p11
VR,B,Y,
p12
sVpArea
p13
VFish Old
p14
sVpMinLevel
p15
V5
p16
sVpMaxLevel
p17
g16
sVpRate
p18
V100
p19
sbag1
(g2
g3
Ntp20
Rp21
(dp22
g7
V060
p23
sg9
VPoliwag
p24
sg11
VR,B,Y,
p25
sg13
VFish Good
p26
sg15
V10
p27
sg17
g27
sg18
V50
p28
sbag1
(g2
g3
Ntp29
Rp30
(dp31
g7
V118
p32
sg9
VGoldeen
p33
sg11
VR,B,Y,
p34
sg13
VFish Good
p35
sg15
V10
p36
sg17
g36
sg18
V50
p37
sbag1
(g2
g3
Ntp38
Rp39
(dp40
g7
V061
p41
sg9
VPoliwhirl
p42
sg11
VR,B,
p43
sg13
VFish Super
p44
sg15
V23
p45
sg17
g45
sg18
V50
p46
sbag1
(g2
g3
Ntp47
Rp48
(dp49
g7
V079
p50
sg9
VSlowpoke
p51
sg11
VR,B,
p52
sg13
VFish Super
p53
sg15
V15
p54
sg17
g54
sg18
V50
p55
sbag1
(g2
g3
Ntp56
Rp57
(dp58
g7
V118
p59
sg9
VGoldeen
p60
sg11
VY,
p61
sg13
VFish Super
p62
sg15
g16
sg17
V20
p63
sg18
V100
p64
sbag1
(g2
g3
Ntp65
Rp66
(dp67
g7
V088
p68
sg9
VGrimer
p69
sg11
VG,S,C,
p70
sg13
VSurf
p71
sg15
V15
p72
sg17
V24
p73
sg18
V90
p74
sbag1
(g2
g3
Ntp75
Rp76
(dp77
g7
V089
p78
sg9
VMuk
p79
sg11
VG,S,C,
p80
sg13
VSurf
p81
sg15
V15
p82
sg17
V19
p83
sg18
V10
p84
sbag1
(g2
g3
Ntp85
Rp86
(dp87
g7
V054
p88
sg9
VPsyduck
p89
sg11
VFR,
p90
sg13
VSurf
p91
sg15
g16
sg17
V40
p92
sg18
V99
p93
sbag1
(g2
g3
Ntp94
Rp95
(dp96
g7
V079
p97
sg9
VSlowpoke
p98
sg11
VLG,
p99
sg13
VSurf
p100
sg15
g16
sg17
V40
p101
sg18
V99
p102
sbag1
(g2
g3
Ntp103
Rp104
(dp105
g7
V109
p106
sg9
VKoffing
p107
sg11
VFR,LG,
p108
sg13
VSurf
p109
sg15
V30
p110
sg17
V40
p111
sg18
V1
p112
sbag1
(g2
g3
Ntp113
Rp114
(dp115
g7
V129
p116
sg9
VMagikarp
p117
sg11
VFR,LG,
p118
sg13
VFish Old
p119
sg15
g16
sg17
g16
sg18
V100
p120
sbag1
(g2
g3
Ntp121
Rp122
(dp123
g7
V129
p124
sg9
VMagikarp
p125
sg11
VFR,LG,
p126
sg13
VFish Good
p127
sg15
g16
sg17
V15
p128
sg18
V100
p129
sbag1
(g2
g3
Ntp130
Rp131
(dp132
g7
V129
p133
sg9
VMagikarp
p134
sg11
VFR,LG,
p135
sg13
VFish Super
p136
sg15
V15
p137
sg17
V35
p138
sg18
V99
p139
sbag1
(g2
g3
Ntp140
Rp141
(dp142
g7
V088
p143
sg9
VGrimer
p144
sg11
VFR,LG,
p145
sg13
VFish Super
p146
sg15
V30
p147
sg17
V40
p148
sg18
V1
p149
sbag1
(g2
g3
Ntp150
Rp151
(dp152
g7
V021
p153
sg9
VSpearow
p154
sg11
VHG,SS,
p155
sg13
VHeadbutt
p156
sg15
V11
p157
sg17
V20
p158
sg18
V80
p159
sbag1
(g2
g3
Ntp160
Rp161
(dp162
g7
V214
p163
sg9
VHeracross
p164
sg11
VHG,SS,
p165
sg13
VHeadbutt
p166
sg15
V11
p167
sg17
V17
p168
sg18
V20
p169
sbag1
(g2
g3
Ntp170
Rp171
(dp172
g7
V415
p173
sg9
VCombee
p174
sg11
VHG,SS,
p175
sg13
VHeadbutt
p176
sg15
V10
p177
sg17
V20
p178
sg18
V20
p179
sbag1
(g2
g3
Ntp180
Rp181
(dp182
g7
V088
p183
sg9
VGrimer
p184
sg11
VHG,SS,
p185
sg13
VSurf
p186
sg15
V15
p187
sg17
V20
p188
sg18
V90
p189
sbag1
(g2
g3
Ntp190
Rp191
(dp192
g7
V089
p193
sg9
VMuk
p194
sg11
VHG,SS,
p195
sg13
VSurf
p196
sg15
V15
p197
sg17
g197
sg18
V10
p198
sbag1
(g2
g3
Ntp199
Rp200
(dp201
g7
V027
p202
sg9
VSandshrew
p203
sg11
VPi,
p204
sg13
VTrade
p205
sg15
V27
p206
sg17
g206
sg18
V0
p207
sbag1
(g2
g3
Ntp208
Rp209
(dp210
g7
V037
p211
sg9
VVulpix
p212
sg11
VEv,
p213
sg13
VTrade
p214
sg15
V27
p215
sg17
g215
sg18
V0
p216
sba.