(lp0
ccopy_reg
_reconstructor
p1
(c__main__
WildPokemon
p2
c__builtin__
object
p3
Ntp4
Rp5
(dp6
VpDexNo
p7
V607
p8
sVpSpecies
p9
VLitwick
p10
sVpGames
p11
VB,W,
p12
sVpArea
p13
V2F
p14
sVpMinLevel
p15
V26
p16
sVpMaxLevel
p17
V29
p18
sVpRate
p19
V100
p20
sbag1
(g2
g3
Ntp21
Rp22
(dp23
g7
V605
p24
sg9
VElgyem
p25
sg11
VB,W,
p26
sg13
V3F
p27
sg15
V26
p28
sg17
V29
p29
sg19
V15
p30
sbag1
(g2
g3
Ntp31
Rp32
(dp33
g7
V607
p34
sg9
VLitwick
p35
sg11
VB,W,
p36
sg13
V3F
p37
sg15
V26
p38
sg17
V29
p39
sg19
V85
p40
sbag1
(g2
g3
Ntp41
Rp42
(dp43
g7
V605
p44
sg9
VElgyem
p45
sg11
VB,W,
p46
sg13
V4F
p47
sg15
V26
p48
sg17
V29
p49
sg19
V30
p50
sbag1
(g2
g3
Ntp51
Rp52
(dp53
g7
V607
p54
sg9
VLitwick
p55
sg11
VB,W,
p56
sg13
V4F
p57
sg15
V26
p58
sg17
V29
p59
sg19
V70
p60
sbag1
(g2
g3
Ntp61
Rp62
(dp63
g7
V605
p64
sg9
VElgyem
p65
sg11
VB,W,
p66
sg13
V5F
p67
sg15
V26
p68
sg17
V29
p69
sg19
V50
p70
sbag1
(g2
g3
Ntp71
Rp72
(dp73
g7
V607
p74
sg9
VLitwick
p75
sg11
VB,W,
p76
sg13
V5F
p77
sg15
V26
p78
sg17
V29
p79
sg19
V50
p80
sbag1
(g2
g3
Ntp81
Rp82
(dp83
g7
V607
p84
sg9
VLitwick
p85
sg11
VB2,W2,
p86
sg13
V2F
p87
sg15
V27
p88
sg17
V30
p89
sg19
V100
p90
sbag1
(g2
g3
Ntp91
Rp92
(dp93
g7
V042
p94
sg9
VGolbat
p95
sg11
VB2,W2,
p96
sg13
V3F
p97
sg15
V31
p98
sg17
g98
sg19
V5
p99
sbag1
(g2
g3
Ntp100
Rp101
(dp102
g7
V605
p103
sg9
VElgyem
p104
sg11
VB2,W2,
p105
sg13
V3F
p106
sg15
V30
p107
sg17
V31
p108
sg19
V15
p109
sbag1
(g2
g3
Ntp110
Rp111
(dp112
g7
V607
p113
sg9
VLitwick
p114
sg11
VB2,W2,
p115
sg13
V3F
p116
sg15
V28
p117
sg17
V31
p118
sg19
V80
p119
sbag1
(g2
g3
Ntp120
Rp121
(dp122
g7
V042
p123
sg9
VGolbat
p124
sg11
VB2,W2,
p125
sg13
V4F
p126
sg15
V32
p127
sg17
g127
sg19
V10
p128
sbag1
(g2
g3
Ntp129
Rp130
(dp131
g7
V605
p132
sg9
VElgyem
p133
sg11
VB2,W2,
p134
sg13
V4F
p135
sg15
V30
p136
sg17
V32
p137
sg19
V25
p138
sbag1
(g2
g3
Ntp139
Rp140
(dp141
g7
V607
p142
sg9
VLitwick
p143
sg11
VB2,W2,
p144
sg13
V4F
p145
sg15
V29
p146
sg17
V32
p147
sg19
V65
p148
sbag1
(g2
g3
Ntp149
Rp150
(dp151
g7
V042
p152
sg9
VGolbat
p153
sg11
VB2,W2,
p154
sg13
V5F
p155
sg15
V33
p156
sg17
g156
sg19
V20
p157
sbag1
(g2
g3
Ntp158
Rp159
(dp160
g7
V605
p161
sg9
VElgyem
p162
sg11
VB2,W2,
p163
sg13
V5F
p164
sg15
V30
p165
sg17
V33
p166
sg19
V40
p167
sbag1
(g2
g3
Ntp168
Rp169
(dp170
g7
V607
p171
sg9
VLitwick
p172
sg11
VB2,W2,
p173
sg13
V5F
p174
sg15
V30
p175
sg17
V33
p176
sg19
V40
p177
sbag1
(g2
g3
Ntp178
Rp179
(dp180
g7
V481
p181
sg9
VMesprit
p182
sg11
VB2,W2,
p183
sg13
VSpecial
p184
sg15
V65
p185
sg17
g185
sg19
V0
p186
sba.