(lp0
ccopy_reg
_reconstructor
p1
(c__main__
WildPokemon
p2
c__builtin__
object
p3
Ntp4
Rp5
(dp6
VpDexNo
p7
V054
p8
sVpSpecies
p9
VPsyduck
p10
sVpGames
p11
VD,P,
p12
sVpArea
p13
VSurf
p14
sVpMinLevel
p15
V20
p16
sVpMaxLevel
p17
V40
p18
sVpRate
p19
V90
p20
sbag1
(g2
g3
Ntp21
Rp22
(dp23
g7
V054
p24
sg9
VPsyduck
p25
sg11
VPt,
p26
sg13
VSurf
p27
sg15
V20
p28
sg17
V30
p29
sg19
V90
p30
sbag1
(g2
g3
Ntp31
Rp32
(dp33
g7
V055
p34
sg9
VGolduck
p35
sg11
VD,P,Pt,
p36
sg13
VSurf
p37
sg15
V20
p38
sg17
V40
p39
sg19
V10
p40
sbag1
(g2
g3
Ntp41
Rp42
(dp43
g7
V129
p44
sg9
VMagikarp
p45
sg11
VD,P,
p46
sg13
VFish Old
p47
sg15
V3
p48
sg17
V10
p49
sg19
V100
p50
sbag1
(g2
g3
Ntp51
Rp52
(dp53
g7
V129
p54
sg9
VMagikarp
p55
sg11
g26
sg13
VFish Old
p56
sg15
g48
sg17
V15
p57
sg19
V100
p58
sbag1
(g2
g3
Ntp59
Rp60
(dp61
g7
V129
p62
sg9
VMagikarp
p63
sg11
VD,P,Pt,
p64
sg13
VFish Good
p65
sg15
V10
p66
sg17
V25
p67
sg19
V55
p68
sbag1
(g2
g3
Ntp69
Rp70
(dp71
g7
V339
p72
sg9
VBarboach
p73
sg11
VD,P,
p74
sg13
VFish Good
p75
sg15
V10
p76
sg17
V25
p77
sg19
V45
p78
sbag1
(g2
g3
Ntp79
Rp80
(dp81
g7
V118
p82
sg9
VGoldeen
p83
sg11
g26
sg13
VFish Good
p84
sg15
V15
p85
sg17
V35
p86
sg19
V45
p87
sbag1
(g2
g3
Ntp88
Rp89
(dp90
g7
V119
p91
sg9
VSeaking
p92
sg11
g26
sg13
VFish Super
p93
sg15
V40
p94
sg17
V55
p95
sg19
V5
p96
sbag1
(g2
g3
Ntp97
Rp98
(dp99
g7
V130
p100
sg9
VGyarados
p101
sg11
VD,P,
p102
sg13
VFish Super
p103
sg15
V30
p104
sg17
V40
p105
sg19
V40
p106
sbag1
(g2
g3
Ntp107
Rp108
(dp109
g7
V130
p110
sg9
VGyarados
p111
sg11
g26
sg13
VFish Super
p112
sg15
V30
p113
sg17
V55
p114
sg19
V40
p115
sbag1
(g2
g3
Ntp116
Rp117
(dp118
g7
V340
p119
sg9
VWhiscash
p120
sg11
VD,P,
p121
sg13
VFish Super
p122
sg15
V40
p123
sg17
V55
p124
sg19
V15
p125
sbag1
(g2
g3
Ntp126
Rp127
(dp128
g7
V341
p129
sg9
VCorphish
p130
sg11
VD,P,Pt,
p131
sg13
VFish Super
p132
sg15
V30
p133
sg17
V40
p134
sg19
V40
p135
sbag1
(g2
g3
Ntp136
Rp137
(dp138
g7
V342
p139
sg9
VCrawdaunt
p140
sg11
VD,P,
p141
sg13
VFish Super
p142
sg15
V35
p143
sg17
V55
p144
sg19
V5
p145
sbag1
(g2
g3
Ntp146
Rp147
(dp148
g7
V342
p149
sg9
VCrawdaunt
p150
sg11
g26
sg13
VFish Super
p151
sg15
V40
p152
sg17
V55
p153
sg19
V15
p154
sba.