(lp0
ccopy_reg
_reconstructor
p1
(c__main__
WildPokemon
p2
c__builtin__
object
p3
Ntp4
Rp5
(dp6
VpDexNo
p7
V129
p8
sVpSpecies
p9
VMagikarp
p10
sVpGames
p11
VR,B,Y,
p12
sVpArea
p13
VFish Old
p14
sVpMinLevel
p15
V5
p16
sVpMaxLevel
p17
g16
sVpRate
p18
V100
p19
sbag1
(g2
g3
Ntp20
Rp21
(dp22
g7
V118
p23
sg9
VGoldeen
p24
sg11
VR,B,Y,
p25
sg13
VFish Good
p26
sg15
V10
p27
sg17
g27
sg18
V50
p28
sbag1
(g2
g3
Ntp29
Rp30
(dp31
g7
V060
p32
sg9
VPoliwag
p33
sg11
VR,B,Y,
p34
sg13
VFish Good
p35
sg15
V10
p36
sg17
g36
sg18
V50
p37
sbag1
(g2
g3
Ntp38
Rp39
(dp40
g7
V054
p41
sg9
VPsyduck
p42
sg11
VR,B,
p43
sg13
VFish Super
p44
sg15
V15
p45
sg17
g45
sg18
V34
p46
sbag1
(g2
g3
Ntp47
Rp48
(dp49
g7
V098
p50
sg9
VKrabby
p51
sg11
VR,B,
p52
sg13
VFish Super
p53
sg15
V15
p54
sg17
g54
sg18
V33
p55
sbag1
(g2
g3
Ntp56
Rp57
(dp58
g7
V118
p59
sg9
VGoldeen
p60
sg11
VR,B,
p61
sg13
VFish Super
p62
sg15
V15
p63
sg17
g63
sg18
V33
p64
sbag1
(g2
g3
Ntp65
Rp66
(dp67
g7
V129
p68
sg9
VMagikarp
p69
sg11
VG,S,
p70
sg13
VFish Old
p71
sg15
V10
p72
sg17
g72
sg18
V85
p73
sbag1
(g2
g3
Ntp74
Rp75
(dp76
g7
V098
p77
sg9
VKrabby
p78
sg11
VG,S,
p79
sg13
VFish Old
p80
sg15
V10
p81
sg17
g81
sg18
V15
p82
sbag1
(g2
g3
Ntp83
Rp84
(dp85
g7
V098
p86
sg9
VKrabby
p87
sg11
VG,S,
p88
sg13
VFish Good
p89
sg15
V20
p90
sg17
g90
sg18
V60
p91
sbag1
(g2
g3
Ntp92
Rp93
(dp94
g7
V129
p95
sg9
VMagikarp
p96
sg11
VG,S,
p97
sg13
VFish Good
p98
sg15
V10
p99
sg17
g99
sg18
V30
p100
sbag1
(g2
g3
Ntp101
Rp102
(dp103
g7
V222
p104
sg9
VCorsola
p105
sg11
VG,S,
p106
sg13
VFish Good
p107
sg15
V20
p108
sg17
g108
sg18
V10
p109
sbag1
(g2
g3
Ntp110
Rp111
(dp112
g7
V120
p113
sg9
VStaryu
p114
sg11
VG,S,
p115
sg13
VFish Good
p116
sg15
V20
p117
sg17
g117
sg18
V10
p118
sbag1
(g2
g3
Ntp119
Rp120
(dp121
g7
V098
p122
sg9
VKrabby
p123
sg11
VG,S,
p124
sg13
VFish Super
p125
sg15
V40
p126
sg17
g126
sg18
V60
p127
sbag1
(g2
g3
Ntp128
Rp129
(dp130
g7
V222
p131
sg9
VCorsola
p132
sg11
VG,S,
p133
sg13
VFish Super
p134
sg15
V40
p135
sg17
g135
sg18
V30
p136
sbag1
(g2
g3
Ntp137
Rp138
(dp139
g7
V120
p140
sg9
VStaryu
p141
sg11
VG,S,
p142
sg13
VFish Super
p143
sg15
V40
p144
sg17
g144
sg18
V30
p145
sbag1
(g2
g3
Ntp146
Rp147
(dp148
g7
V099
p149
sg9
VKingler
p150
sg11
VG,S,
p151
sg13
VFish Super
p152
sg15
V40
p153
sg17
g153
sg18
V10
p154
sba.