(lp0
ccopy_reg
_reconstructor
p1
(c__main__
WildPokemon
p2
c__builtin__
object
p3
Ntp4
Rp5
(dp6
VpDexNo
p7
V024
p8
sVpSpecies
p9
VArbok
p10
sVpGames
p11
VR,
p12
sVpArea
p13
VCave
p14
sVpMinLevel
p15
V52
p16
sVpMaxLevel
p17
g16
sVpRate
p18
V10
p19
sbag1
(g2
g3
Ntp20
Rp21
(dp22
g7
V026
p23
sg9
VRaichu
p24
sg11
VR,B,
p25
sg13
VCave
p26
sg15
V53
p27
sg17
g27
sg18
V4
p28
sbag1
(g2
g3
Ntp29
Rp30
(dp31
g7
V028
p32
sg9
VSandslash
p33
sg11
VB,Y,
p34
sg13
VCave
p35
sg15
V52
p36
sg17
g36
sg18
V10
p37
sbag1
(g2
g3
Ntp38
Rp39
(dp40
g7
V042
p41
sg9
VGolbat
p42
sg11
VR,B,
p43
sg13
VCave
p44
sg15
V46
p45
sg17
g45
sg18
V25
p46
sbag1
(g2
g3
Ntp47
Rp48
(dp49
g7
V042
p50
sg9
VGolbat
p51
sg11
VY,
p52
sg13
VCave
p53
sg15
V50
p54
sg17
V55
p55
sg18
V40
p56
sbag1
(g2
g3
Ntp57
Rp58
(dp59
g7
V044
p60
sg9
VGloom
p61
sg11
g52
sg13
VCave
p62
sg15
V55
p63
sg17
g63
sg18
V10
p64
sbag1
(g2
g3
Ntp65
Rp66
(dp67
g7
V047
p68
sg9
VParasect
p69
sg11
VR,B,
p70
sg13
VCave
p71
sg15
V52
p72
sg17
g72
sg18
V5
p73
sbag1
(g2
g3
Ntp74
Rp75
(dp76
g7
V047
p77
sg9
VParasect
p78
sg11
g52
sg13
VCave
p79
sg15
V54
p80
sg17
g80
sg18
V5
p81
sbag1
(g2
g3
Ntp82
Rp83
(dp84
g7
V049
p85
sg9
VVenomoth
p86
sg11
VR,B,
p87
sg13
VCave
p88
sg15
V49
p89
sg17
g89
sg18
V10
p90
sbag1
(g2
g3
Ntp91
Rp92
(dp93
g7
V049
p94
sg9
VVenomoth
p95
sg11
g52
sg13
VCave
p96
sg15
V54
p97
sg17
g97
sg18
V5
p98
sbag1
(g2
g3
Ntp99
Rp100
(dp101
g7
V064
p102
sg9
VKadabra
p103
sg11
VR,B,
p104
sg13
VCave
p105
sg15
V49
p106
sg17
g106
sg18
V5
p107
sbag1
(g2
g3
Ntp108
Rp109
(dp110
g7
V070
p111
sg9
VWeepinbell
p112
sg11
g52
sg13
VCave
p113
sg15
V55
p114
sg17
g114
sg18
V10
p115
sbag1
(g2
g3
Ntp116
Rp117
(dp118
g7
V075
p119
sg9
VGraveler
p120
sg11
g52
sg13
VCave
p121
sg15
V45
p122
sg17
g122
sg18
V15
p123
sbag1
(g2
g3
Ntp124
Rp125
(dp126
g7
V082
p127
sg9
VMagneton
p128
sg11
VR,B,
p129
sg13
VCave
p130
sg15
V46
p131
sg17
g131
sg18
V15
p132
sbag1
(g2
g3
Ntp133
Rp134
(dp135
g7
V085
p136
sg9
VDodrio
p137
sg11
VR,B,
p138
sg13
VCave
p139
sg15
V49
p140
sg17
g140
sg18
V10
p141
sbag1
(g2
g3
Ntp142
Rp143
(dp144
g7
V097
p145
sg9
VHypno
p146
sg11
VR,B,
p147
sg13
VCave
p148
sg15
V46
p149
sg17
g149
sg18
V15
p150
sbag1
(g2
g3
Ntp151
Rp152
(dp153
g7
V132
p154
sg9
VDitto
p155
sg11
VR,B,
p156
sg13
VCave
p157
sg15
V53
p158
sg17
g158
sg18
V1
p159
sbag1
(g2
g3
Ntp160
Rp161
(dp162
g7
V132
p163
sg9
VDitto
p164
sg11
g52
sg13
VCave
p165
sg15
V55
p166
sg17
V60
p167
sg18
V5
p168
sbag1
(g2
g3
Ntp169
Rp170
(dp171
g7
V129
p172
sg9
VMagikarp
p173
sg11
VR,B,Y,
p174
sg13
VFish Old
p175
sg15
V5
p176
sg17
g176
sg18
V100
p177
sbag1
(g2
g3
Ntp178
Rp179
(dp180
g7
V060
p181
sg9
VPoliwag
p182
sg11
VR,B,Y,
p183
sg13
VFish Good
p184
sg15
V10
p185
sg17
g185
sg18
V50
p186
sbag1
(g2
g3
Ntp187
Rp188
(dp189
g7
V118
p190
sg9
VGoldeen
p191
sg11
VR,B,Y,
p192
sg13
VFish Good
p193
sg15
V10
p194
sg17
g194
sg18
V50
p195
sbag1
(g2
g3
Ntp196
Rp197
(dp198
g7
V080
p199
sg9
VSlowbro
p200
sg11
VR,B,
p201
sg13
VFish Super
p202
sg15
V23
p203
sg17
g203
sg18
V25
p204
sbag1
(g2
g3
Ntp205
Rp206
(dp207
g7
V099
p208
sg9
VKingler
p209
sg11
VR,B,
p210
sg13
VFish Super
p211
sg15
V23
p212
sg17
g212
sg18
V25
p213
sbag1
(g2
g3
Ntp214
Rp215
(dp216
g7
V117
p217
sg9
VSeadra
p218
sg11
VR,B,
p219
sg13
VFish Super
p220
sg15
V23
p221
sg17
g221
sg18
V25
p222
sbag1
(g2
g3
Ntp223
Rp224
(dp225
g7
V118
p226
sg9
VGoldeen
p227
sg11
g52
sg13
VFish Super
p228
sg15
V25
p229
sg17
g229
sg18
V40
p230
sbag1
(g2
g3
Ntp231
Rp232
(dp233
g7
V119
p234
sg9
VSeaking
p235
sg11
VR,B,
p236
sg13
VFish Super
p237
sg15
V23
p238
sg17
g238
sg18
V25
p239
sbag1
(g2
g3
Ntp240
Rp241
(dp242
g7
V119
p243
sg9
VSeaking
p244
sg11
g52
sg13
VFish Super
p245
sg15
V35
p246
sg17
V55
p247
sg18
V60
p248
sbag1
(g2
g3
Ntp249
Rp250
(dp251
g7
V028
p252
sg9
VSandslash
p253
sg11
g52
sg13
VCave
p254
sg15
V56
p255
sg17
g255
sg18
V10
p256
sbag1
(g2
g3
Ntp257
Rp258
(dp259
g7
V040
p260
sg9
VWigglytuff
p261
sg11
VR,B,
p262
sg13
VCave
p263
sg15
V54
p264
sg17
g264
sg18
V5
p265
sbag1
(g2
g3
Ntp266
Rp267
(dp268
g7
V042
p269
sg9
VGolbat
p270
sg11
g52
sg13
VCave
p271
sg15
V52
p272
sg17
V57
p273
sg18
V40
p274
sbag1
(g2
g3
Ntp275
Rp276
(dp277
g7
V044
p278
sg9
VGloom
p279
sg11
g52
sg13
VCave
p280
sg15
V58
p281
sg17
g281
sg18
V5
p282
sbag1
(g2
g3
Ntp283
Rp284
(dp285
g7
V049
p286
sg9
VVenomoth
p287
sg11
VR,B,
p288
sg13
VCave
p289
sg15
V51
p290
sg17
g290
sg18
V15
p291
sbag1
(g2
g3
Ntp292
Rp293
(dp294
g7
V064
p295
sg9
VKadabra
p296
sg11
VR,B,
p297
sg13
VCave
p298
sg15
V51
p299
sg17
g299
sg18
V15
p300
sbag1
(g2
g3
Ntp301
Rp302
(dp303
g7
V070
p304
sg9
VWeepinbell
p305
sg11
g52
sg13
VCave
p306
sg15
V58
p307
sg17
g307
sg18
V5
p308
sbag1
(g2
g3
Ntp309
Rp310
(dp311
g7
V075
p312
sg9
VGraveler
p313
sg11
g52
sg13
VCave
p314
sg15
V50
p315
sg17
g315
sg18
V15
p316
sbag1
(g2
g3
Ntp317
Rp318
(dp319
g7
V085
p320
sg9
VDodrio
p321
sg11
VR,B,
p322
sg13
VCave
p323
sg15
V51
p324
sg17
g324
sg18
V25
p325
sbag1
(g2
g3
Ntp326
Rp327
(dp328
g7
V101
p329
sg9
VElectrode
p330
sg11
VR,B,
p331
sg13
VCave
p332
sg15
V52
p333
sg17
g333
sg18
V10
p334
sbag1
(g2
g3
Ntp335
Rp336
(dp337
g7
V105
p338
sg9
VMarowak
p339
sg11
VR,B,
p340
sg13
VCave
p341
sg15
V52
p342
sg17
g342
sg18
V10
p343
sbag1
(g2
g3
Ntp344
Rp345
(dp346
g7
V111
p347
sg9
VRhyhorn
p348
sg11
g52
sg13
VCave
p349
sg15
V50
p350
sg17
g350
sg18
V10
p351
sbag1
(g2
g3
Ntp352
Rp353
(dp354
g7
V112
p355
sg9
VRhydon
p356
sg11
VR,B,
p357
sg13
VCave
p358
sg15
V52
p359
sg17
g359
sg18
V10
p360
sbag1
(g2
g3
Ntp361
Rp362
(dp363
g7
V112
p364
sg9
VRhydon
p365
sg11
g52
sg13
VCave
p366
sg15
V58
p367
sg17
V60
p368
sg18
V5
p369
sbag1
(g2
g3
Ntp370
Rp371
(dp372
g7
V113
p373
sg9
VChansey
p374
sg11
VR,B,
p375
sg13
VCave
p376
sg15
V56
p377
sg17
g377
sg18
V5
p378
sbag1
(g2
g3
Ntp379
Rp380
(dp381
g7
V132
p382
sg9
VDitto
p383
sg11
VR,B,
p384
sg13
VCave
p385
sg15
V55
p386
sg17
V60
p387
sg18
V5
p388
sbag1
(g2
g3
Ntp389
Rp390
(dp391
g7
V132
p392
sg9
VDitto
p393
sg11
g52
sg13
VCave
p394
sg15
V60
p395
sg17
g395
sg18
V10
p396
sbag1
(g2
g3
Ntp397
Rp398
(dp399
g7
V024
p400
sg9
VArbok
p401
sg11
g12
sg13
VCave
p402
sg15
V57
p403
sg17
g403
sg18
V5
p404
sbag1
(g2
g3
Ntp405
Rp406
(dp407
g7
V026
p408
sg9
VRaichu
p409
sg11
VR,B,
p410
sg13
VCave
p411
sg15
V64
p412
sg17
g412
sg18
V10
p413
sbag1
(g2
g3
Ntp414
Rp415
(dp416
g7
V028
p417
sg9
VSandslash
p418
sg11
VB,
p419
sg13
VCave
p420
sg15
V57
p421
sg17
g421
sg18
V5
p422
sbag1
(g2
g3
Ntp423
Rp424
(dp425
g7
V042
p426
sg9
VGolbat
p427
sg11
g52
sg13
VCave
p428
sg15
V54
p429
sg17
V59
p430
sg18
V40
p431
sbag1
(g2
g3
Ntp432
Rp433
(dp434
g7
V047
p435
sg9
VParasect
p436
sg11
VR,B,
p437
sg13
VCave
p438
sg15
V64
p439
sg17
g439
sg18
V10
p440
sbag1
(g2
g3
Ntp441
Rp442
(dp443
g7
V075
p444
sg9
VGraveler
p445
sg11
g52
sg13
VCave
p446
sg15
V55
p447
sg17
g447
sg18
V15
p448
sbag1
(g2
g3
Ntp449
Rp450
(dp451
g7
V101
p452
sg9
VElectrode
p453
sg11
VR,B,
p454
sg13
VCave
p455
sg15
V55
p456
sg17
g456
sg18
V15
p457
sbag1
(g2
g3
Ntp458
Rp459
(dp460
g7
V105
p461
sg9
VMarowak
p462
sg11
VR,B,
p463
sg13
VCave
p464
sg15
V55
p465
sg17
g465
sg18
V15
p466
sbag1
(g2
g3
Ntp467
Rp468
(dp469
g7
V108
p470
sg9
VLickitung
p471
sg11
g52
sg13
VCave
p472
sg15
V50
p473
sg17
V55
p474
sg18
V5
p475
sbag1
(g2
g3
Ntp476
Rp477
(dp478
g7
V111
p479
sg9
VRhyhorn
p480
sg11
g52
sg13
VCave
p481
sg15
V52
p482
sg17
g482
sg18
V10
p483
sbag1
(g2
g3
Ntp484
Rp485
(dp486
g7
V112
p487
sg9
VRhydon
p488
sg11
VR,B,
p489
sg13
VCave
p490
sg15
V55
p491
sg17
g491
sg18
V25
p492
sbag1
(g2
g3
Ntp493
Rp494
(dp495
g7
V112
p496
sg9
VRhydon
p497
sg11
g52
sg13
VCave
p498
sg15
V62
p499
sg17
g499
sg18
V10
p500
sbag1
(g2
g3
Ntp501
Rp502
(dp503
g7
V113
p504
sg9
VChansey
p505
sg11
VR,B,
p506
sg13
VCave
p507
sg15
V64
p508
sg17
g508
sg18
V10
p509
sbag1
(g2
g3
Ntp510
Rp511
(dp512
g7
V113
p513
sg9
VChansey
p514
sg11
g52
sg13
VCave
p515
sg15
V56
p516
sg17
g516
sg18
V5
p517
sbag1
(g2
g3
Ntp518
Rp519
(dp520
g7
V132
p521
sg9
VDitto
p522
sg11
VR,B,
p523
sg13
VCave
p524
sg15
V63
p525
sg17
V67
p526
sg18
V10
p527
sbag1
(g2
g3
Ntp528
Rp529
(dp530
g7
V132
p531
sg9
VDitto
p532
sg11
g52
sg13
VCave
p533
sg15
V60
p534
sg17
V65
p535
sg18
V15
p536
sbag1
(g2
g3
Ntp537
Rp538
(dp539
g7
V129
p540
sg9
VMagikarp
p541
sg11
VR,B,Y,
p542
sg13
VFish Old
p543
sg15
g176
sg17
g176
sg18
V100
p544
sbag1
(g2
g3
Ntp545
Rp546
(dp547
g7
V060
p548
sg9
VPoliwag
p549
sg11
VR,B,Y,
p550
sg13
VFish Good
p551
sg15
V10
p552
sg17
g552
sg18
V50
p553
sbag1
(g2
g3
Ntp554
Rp555
(dp556
g7
V118
p557
sg9
VGoldeen
p558
sg11
VR,B,Y,
p559
sg13
VFish Good
p560
sg15
V10
p561
sg17
g561
sg18
V50
p562
sbag1
(g2
g3
Ntp563
Rp564
(dp565
g7
V080
p566
sg9
VSlowbro
p567
sg11
VR,B,
p568
sg13
VFish Super
p569
sg15
V23
p570
sg17
g570
sg18
V25
p571
sbag1
(g2
g3
Ntp572
Rp573
(dp574
g7
V099
p575
sg9
VKingler
p576
sg11
VR,B,
p577
sg13
VFish Super
p578
sg15
V23
p579
sg17
g579
sg18
V25
p580
sbag1
(g2
g3
Ntp581
Rp582
(dp583
g7
V117
p584
sg9
VSeadra
p585
sg11
VR,B,
p586
sg13
VFish Super
p587
sg15
V23
p588
sg17
g588
sg18
V25
p589
sbag1
(g2
g3
Ntp590
Rp591
(dp592
g7
V118
p593
sg9
VGoldeen
p594
sg11
g52
sg13
VFish Super
p595
sg15
V30
p596
sg17
g596
sg18
V40
p597
sbag1
(g2
g3
Ntp598
Rp599
(dp600
g7
V119
p601
sg9
VSeaking
p602
sg11
VR,B,
p603
sg13
VFish Super
p604
sg15
V23
p605
sg17
g605
sg18
V25
p606
sbag1
(g2
g3
Ntp607
Rp608
(dp609
g7
V119
p610
sg9
VSeaking
p611
sg11
g52
sg13
VFish Super
p612
sg15
V40
p613
sg17
V60
p614
sg18
V60
p615
sbag1
(g2
g3
Ntp616
Rp617
(dp618
g7
V150
p619
sg9
VMewtwo
p620
sg11
VR,B,Y,
p621
sg13
VSpecial
p622
sg15
V70
p623
sg17
g623
sg18
V0
p624
sbag1
(g2
g3
Ntp625
Rp626
(dp627
g7
V047
p628
sg9
VParasect
p629
sg11
VFR,LG,
p630
sg13
VCave
p631
sg15
V49
p632
sg17
V58
p633
sg18
V25
p634
sbag1
(g2
g3
Ntp635
Rp636
(dp637
g7
V082
p638
sg9
VMagneton
p639
sg11
VFR,LG,
p640
sg13
VCave
p641
sg15
V49
p642
sg17
g642
sg18
V20
p643
sbag1
(g2
g3
Ntp644
Rp645
(dp646
g7
V042
p647
sg9
VGolbat
p648
sg11
VFR,LG,
p649
sg13
VCave
p650
sg15
V46
p651
sg17
V55
p652
sg18
V14
p653
sbag1
(g2
g3
Ntp654
Rp655
(dp656
g7
V057
p657
sg9
VPrimeape
p658
sg11
VFR,LG,
p659
sg13
VCave
p660
sg15
V52
p661
sg17
V61
p662
sg18
V11
p663
sbag1
(g2
g3
Ntp664
Rp665
(dp666
g7
V132
p667
sg9
VDitto
p668
sg11
VFR,LG,
p669
sg13
VCave
p670
sg15
V52
p671
sg17
V61
p672
sg18
V11
p673
sbag1
(g2
g3
Ntp674
Rp675
(dp676
g7
V067
p677
sg9
VMachoke
p678
sg11
VFR,LG,
p679
sg13
VCave
p680
sg15
V46
p681
sg17
g681
sg18
V10
p682
sbag1
(g2
g3
Ntp683
Rp684
(dp685
g7
V101
p686
sg9
VElectrode
p687
sg11
VFR,LG,
p688
sg13
VCave
p689
sg15
V58
p690
sg17
g690
sg18
V5
p691
sbag1
(g2
g3
Ntp692
Rp693
(dp694
g7
V202
p695
sg9
VWobbuffet
p696
sg11
VFR,LG,
p697
sg13
VCave
p698
sg15
V55
p699
sg17
g699
sg18
V4
p700
sbag1
(g2
g3
Ntp701
Rp702
(dp703
g7
V054
p704
sg9
VPsyduck
p705
sg11
VFR,
p706
sg13
VSurf
p707
sg15
V30
p708
sg17
V50
p709
sg18
V65
p710
sbag1
(g2
g3
Ntp711
Rp712
(dp713
g7
V079
p714
sg9
VSlowpoke
p715
sg11
VLG,
p716
sg13
VSurf
p717
sg15
V30
p718
sg17
V50
p719
sg18
V65
p720
sbag1
(g2
g3
Ntp721
Rp722
(dp723
g7
V055
p724
sg9
VGolduck
p725
sg11
g706
sg13
VSurf
p726
sg15
V40
p727
sg17
V55
p728
sg18
V35
p729
sbag1
(g2
g3
Ntp730
Rp731
(dp732
g7
V080
p733
sg9
VSlowbro
p734
sg11
g716
sg13
VSurf
p735
sg15
V40
p736
sg17
V55
p737
sg18
V35
p738
sbag1
(g2
g3
Ntp739
Rp740
(dp741
g7
V129
p742
sg9
VMagikarp
p743
sg11
VFR,LG,
p744
sg13
VFish Old
p745
sg15
g176
sg17
g176
sg18
V100
p746
sbag1
(g2
g3
Ntp747
Rp748
(dp749
g7
V060
p750
sg9
VPoliwag
p751
sg11
VFR,LG,
p752
sg13
VFish Good
p753
sg15
g176
sg17
V15
p754
sg18
V60
p755
sbag1
(g2
g3
Ntp756
Rp757
(dp758
g7
V118
p759
sg9
VGoldeen
p760
sg11
VFR,LG,
p761
sg13
VFish Good
p762
sg15
g176
sg17
V15
p763
sg18
V20
p764
sbag1
(g2
g3
Ntp765
Rp766
(dp767
g7
V129
p768
sg9
VMagikarp
p769
sg11
VFR,LG,
p770
sg13
VFish Good
p771
sg15
g176
sg17
V15
p772
sg18
V20
p773
sbag1
(g2
g3
Ntp774
Rp775
(dp776
g7
V060
p777
sg9
VPoliwag
p778
sg11
VFR,LG,
p779
sg13
VFish Super
p780
sg15
V15
p781
sg17
V25
p782
sg18
V40
p783
sbag1
(g2
g3
Ntp784
Rp785
(dp786
g7
V061
p787
sg9
VPoliwhirl
p788
sg11
VFR,LG,
p789
sg13
VFish Super
p790
sg15
V20
p791
sg17
V30
p792
sg18
V40
p793
sbag1
(g2
g3
Ntp794
Rp795
(dp796
g7
V130
p797
sg9
VGyarados
p798
sg11
VFR,LG,
p799
sg13
VFish Super
p800
sg15
V15
p801
sg17
V25
p802
sg18
V15
p803
sbag1
(g2
g3
Ntp804
Rp805
(dp806
g7
V054
p807
sg9
VPsyduck
p808
sg11
g706
sg13
VFish Super
p809
sg15
V15
p810
sg17
V35
p811
sg18
V5
p812
sbag1
(g2
g3
Ntp813
Rp814
(dp815
g7
V079
p816
sg9
VSlowpoke
p817
sg11
g716
sg13
VFish Super
p818
sg15
V15
p819
sg17
V35
p820
sg18
V5
p821
sbag1
(g2
g3
Ntp822
Rp823
(dp824
g7
V074
p825
sg9
VGeodude
p826
sg11
VFR,LG,
p827
sg13
VRock Smash
p828
sg15
V30
p829
sg17
V50
p830
sg18
V65
p831
sbag1
(g2
g3
Ntp832
Rp833
(dp834
g7
V075
p835
sg9
VGraveler
p836
sg11
VFR,LG,
p837
sg13
VRock Smash
p838
sg15
V40
p839
sg17
V55
p840
sg18
V35
p841
sbag1
(g2
g3
Ntp842
Rp843
(dp844
g7
V042
p845
sg9
VGolbat
p846
sg11
VFR,LG,
p847
sg13
VCave
p848
sg15
V49
p849
sg17
V58
p850
sg18
V25
p851
sbag1
(g2
g3
Ntp852
Rp853
(dp854
g7
V067
p855
sg9
VMachoke
p856
sg11
VFR,LG,
p857
sg13
VCave
p858
sg15
V49
p859
sg17
g859
sg18
V20
p860
sbag1
(g2
g3
Ntp861
Rp862
(dp863
g7
V047
p864
sg9
VParasect
p865
sg11
VFR,LG,
p866
sg13
VCave
p867
sg15
V52
p868
sg17
V61
p869
sg18
V14
p870
sbag1
(g2
g3
Ntp871
Rp872
(dp873
g7
V064
p874
sg9
VKadabra
p875
sg11
VFR,LG,
p876
sg13
VCave
p877
sg15
V55
p878
sg17
V64
p879
sg18
V11
p880
sbag1
(g2
g3
Ntp881
Rp882
(dp883
g7
V132
p884
sg9
VDitto
p885
sg11
VFR,LG,
p886
sg13
VCave
p887
sg15
V55
p888
sg17
V64
p889
sg18
V11
p890
sbag1
(g2
g3
Ntp891
Rp892
(dp893
g7
V082
p894
sg9
VMagneton
p895
sg11
VFR,LG,
p896
sg13
VCave
p897
sg15
V52
p898
sg17
g898
sg18
V10
p899
sbag1
(g2
g3
Ntp900
Rp901
(dp902
g7
V202
p903
sg9
VWobbuffet
p904
sg11
VFR,LG,
p905
sg13
VCave
p906
sg15
V58
p907
sg17
g907
sg18
V5
p908
sbag1
(g2
g3
Ntp909
Rp910
(dp911
g7
V101
p912
sg9
VElectrode
p913
sg11
VFR,LG,
p914
sg13
VCave
p915
sg15
V61
p916
sg17
g916
sg18
V4
p917
sbag1
(g2
g3
Ntp918
Rp919
(dp920
g7
V074
p921
sg9
VGeodude
p922
sg11
VFR,LG,
p923
sg13
VRock Smash
p924
sg15
V35
p925
sg17
V55
p926
sg18
V65
p927
sbag1
(g2
g3
Ntp928
Rp929
(dp930
g7
V075
p931
sg9
VGraveler
p932
sg11
VFR,LG,
p933
sg13
VRock Smash
p934
sg15
V45
p935
sg17
V60
p936
sg18
V35
p937
sbag1
(g2
g3
Ntp938
Rp939
(dp940
g7
V064
p941
sg9
VKadabra
p942
sg11
VFR,LG,
p943
sg13
VCave
p944
sg15
V58
p945
sg17
V67
p946
sg18
V25
p947
sbag1
(g2
g3
Ntp948
Rp949
(dp950
g7
V132
p951
sg9
VDitto
p952
sg11
VFR,LG,
p953
sg13
VCave
p954
sg15
V58
p955
sg17
V67
p956
sg18
V25
p957
sbag1
(g2
g3
Ntp958
Rp959
(dp960
g7
V047
p961
sg9
VParasect
p962
sg11
VFR,LG,
p963
sg13
VCave
p964
sg15
V55
p965
sg17
V64
p966
sg18
V14
p967
sbag1
(g2
g3
Ntp968
Rp969
(dp970
g7
V042
p971
sg9
VGolbat
p972
sg11
VFR,LG,
p973
sg13
VCave
p974
sg15
V52
p975
sg17
V61
p976
sg18
V11
p977
sbag1
(g2
g3
Ntp978
Rp979
(dp980
g7
V067
p981
sg9
VMachoke
p982
sg11
VFR,LG,
p983
sg13
VCave
p984
sg15
V52
p985
sg17
g985
sg18
V10
p986
sbag1
(g2
g3
Ntp987
Rp988
(dp989
g7
V082
p990
sg9
VMagneton
p991
sg11
VFR,LG,
p992
sg13
VCave
p993
sg15
V55
p994
sg17
g994
sg18
V10
p995
sbag1
(g2
g3
Ntp996
Rp997
(dp998
g7
V101
p999
sg9
VElectrode
p1000
sg11
VFR,LG,
p1001
sg13
VCave
p1002
sg15
V64
p1003
sg17
g1003
sg18
V4
p1004
sbag1
(g2
g3
Ntp1005
Rp1006
(dp1007
g7
V202
p1008
sg9
VWobbuffet
p1009
sg11
VFR,LG,
p1010
sg13
VCave
p1011
sg15
V61
p1012
sg17
g1012
sg18
V1
p1013
sbag1
(g2
g3
Ntp1014
Rp1015
(dp1016
g7
V054
p1017
sg9
VPsyduck
p1018
sg11
g706
sg13
VSurf
p1019
sg15
V40
p1020
sg17
V60
p1021
sg18
V65
p1022
sbag1
(g2
g3
Ntp1023
Rp1024
(dp1025
g7
V079
p1026
sg9
VSlowpoke
p1027
sg11
g716
sg13
VSurf
p1028
sg15
V40
p1029
sg17
V60
p1030
sg18
V65
p1031
sbag1
(g2
g3
Ntp1032
Rp1033
(dp1034
g7
V055
p1035
sg9
VGolduck
p1036
sg11
g706
sg13
VSurf
p1037
sg15
V50
p1038
sg17
V65
p1039
sg18
V35
p1040
sbag1
(g2
g3
Ntp1041
Rp1042
(dp1043
g7
V080
p1044
sg9
VSlowbro
p1045
sg11
g716
sg13
VSurf
p1046
sg15
V50
p1047
sg17
V65
p1048
sg18
V35
p1049
sbag1
(g2
g3
Ntp1050
Rp1051
(dp1052
g7
V129
p1053
sg9
VMagikarp
p1054
sg11
VFR,LG,
p1055
sg13
VFish Old
p1056
sg15
g176
sg17
g176
sg18
V100
p1057
sbag1
(g2
g3
Ntp1058
Rp1059
(dp1060
g7
V060
p1061
sg9
VPoliwag
p1062
sg11
VFR,LG,
p1063
sg13
VFish Good
p1064
sg15
g176
sg17
V15
p1065
sg18
V60
p1066
sbag1
(g2
g3
Ntp1067
Rp1068
(dp1069
g7
V118
p1070
sg9
VGoldeen
p1071
sg11
VFR,LG,
p1072
sg13
VFish Good
p1073
sg15
g176
sg17
V15
p1074
sg18
V20
p1075
sbag1
(g2
g3
Ntp1076
Rp1077
(dp1078
g7
V129
p1079
sg9
VMagikarp
p1080
sg11
VFR,LG,
p1081
sg13
VFish Good
p1082
sg15
g176
sg17
V15
p1083
sg18
V20
p1084
sbag1
(g2
g3
Ntp1085
Rp1086
(dp1087
g7
V060
p1088
sg9
VPoliwag
p1089
sg11
VFR,LG,
p1090
sg13
VFish Super
p1091
sg15
V15
p1092
sg17
V25
p1093
sg18
V40
p1094
sbag1
(g2
g3
Ntp1095
Rp1096
(dp1097
g7
V061
p1098
sg9
VPoliwhirl
p1099
sg11
VFR,LG,
p1100
sg13
VFish Super
p1101
sg15
V20
p1102
sg17
V30
p1103
sg18
V40
p1104
sbag1
(g2
g3
Ntp1105
Rp1106
(dp1107
g7
V130
p1108
sg9
VGyarados
p1109
sg11
VFR,LG,
p1110
sg13
VFish Super
p1111
sg15
V15
p1112
sg17
V35
p1113
sg18
V16
p1114
sbag1
(g2
g3
Ntp1115
Rp1116
(dp1117
g7
V054
p1118
sg9
VPsyduck
p1119
sg11
g706
sg13
VFish Super
p1120
sg15
V15
p1121
sg17
V25
p1122
sg18
V4
p1123
sbag1
(g2
g3
Ntp1124
Rp1125
(dp1126
g7
V079
p1127
sg9
VSlowpoke
p1128
sg11
g716
sg13
VFish Super
p1129
sg15
V15
p1130
sg17
V25
p1131
sg18
V4
p1132
sbag1
(g2
g3
Ntp1133
Rp1134
(dp1135
g7
V074
p1136
sg9
VGeodude
p1137
sg11
VFR,LG,
p1138
sg13
VRock Smash
p1139
sg15
V40
p1140
sg17
V60
p1141
sg18
V65
p1142
sbag1
(g2
g3
Ntp1143
Rp1144
(dp1145
g7
V075
p1146
sg9
VGraveler
p1147
sg11
VFR,LG,
p1148
sg13
VRock Smash
p1149
sg15
V50
p1150
sg17
V65
p1151
sg18
V35
p1152
sbag1
(g2
g3
Ntp1153
Rp1154
(dp1155
g7
V150
p1156
sg9
VMewtwo
p1157
sg11
VFR,LG,
p1158
sg13
VSpecial
p1159
sg15
V70
p1160
sg17
g1160
sg18
V0
p1161
sbag1
(g2
g3
Ntp1162
Rp1163
(dp1164
g7
V101
p1165
sg9
VElectrode
p1166
sg11
VHG,SS,
p1167
sg13
VCave
p1168
sg15
V40
p1169
sg17
g1169
sg18
V5
p1170
sbag1
(g2
g3
Ntp1171
Rp1172
(dp1173
g7
V202
p1174
sg9
VWobbuffet
p1175
sg11
VHG,SS,
p1176
sg13
VCave
p1177
sg15
V37
p1178
sg17
g1178
sg18
V5
p1179
sbag1
(g2
g3
Ntp1180
Rp1181
(dp1182
g7
V067
p1183
sg9
VMachoke
p1184
sg11
VHG,SS,
p1185
sg13
VCave
p1186
sg15
V39
p1187
sg17
V40
p1188
sg18
V24
p1189
sbag1
(g2
g3
Ntp1190
Rp1191
(dp1192
g7
V047
p1193
sg9
VParasect
p1194
sg11
VHG,SS,
p1195
sg13
VCave
p1196
sg15
V38
p1197
sg17
g1197
sg18
V20
p1198
sbag1
(g2
g3
Ntp1199
Rp1200
(dp1201
g7
V057
p1202
sg9
VPrimeape
p1203
sg11
VHG,
p1204
sg13
VCave
p1205
sg15
V38
p1206
sg17
V39
p1207
sg18
V14
p1208
sbag1
(g2
g3
Ntp1209
Rp1210
(dp1211
g7
V057
p1212
sg9
VPrimeape
p1213
sg11
g1204
sg13
VCave
p1214
sg15
V39
p1215
sg17
g1215
sg18
V4
p1216
sbag1
(g2
g3
Ntp1217
Rp1218
(dp1219
g7
V053
p1220
sg9
VPersian
p1221
sg11
VSS,
p1222
sg13
VCave
p1223
sg15
V38
p1224
sg17
V39
p1225
sg18
V14
p1226
sbag1
(g2
g3
Ntp1227
Rp1228
(dp1229
g7
V053
p1230
sg9
VPersian
p1231
sg11
g1222
sg13
VCave
p1232
sg15
V39
p1233
sg17
g1233
sg18
V4
p1234
sbag1
(g2
g3
Ntp1235
Rp1236
(dp1237
g7
V082
p1238
sg9
VMagneton
p1239
sg11
VHG,SS,
p1240
sg13
VCave
p1241
sg15
V40
p1242
sg17
g1242
sg18
V11
p1243
sbag1
(g2
g3
Ntp1244
Rp1245
(dp1246
g7
V132
p1247
sg9
VDitto
p1248
sg11
VHG,SS,
p1249
sg13
VCave
p1250
sg15
V39
p1251
sg17
V40
p1252
sg18
V11
p1253
sbag1
(g2
g3
Ntp1254
Rp1255
(dp1256
g7
V042
p1257
sg9
VGolbat
p1258
sg11
VHG,SS,
p1259
sg13
VCave
p1260
sg15
V38
p1261
sg17
g1261
sg18
V10
p1262
sbag1
(g2
g3
Ntp1263
Rp1264
(dp1265
g7
V042
p1266
sg9
VGolbat
p1267
sg11
VHG,SS,
p1268
sg13
VCave
p1269
sg15
V38
p1270
sg17
V39
p1271
sg18
V50
p1272
sbag1
(g2
g3
Ntp1273
Rp1274
(dp1275
g7
V054
p1276
sg9
VPsyduck
p1277
sg11
VHG,SS,
p1278
sg13
VSurf
p1279
sg15
V35
p1280
sg17
V40
p1281
sg18
V90
p1282
sbag1
(g2
g3
Ntp1283
Rp1284
(dp1285
g7
V055
p1286
sg9
VGolduck
p1287
sg11
VHG,SS,
p1288
sg13
VSurf
p1289
sg15
V40
p1290
sg17
g1290
sg18
V10
p1291
sbag1
(g2
g3
Ntp1292
Rp1293
(dp1294
g7
V129
p1295
sg9
VMagikarp
p1296
sg11
VHG,SS,
p1297
sg13
VFish Old
p1298
sg15
V10
p1299
sg17
g1299
sg18
V100
p1300
sbag1
(g2
g3
Ntp1301
Rp1302
(dp1303
g7
V060
p1304
sg9
VPoliwag
p1305
sg11
VHG,SS,
p1306
sg13
VFish Good
p1307
sg15
V20
p1308
sg17
g1308
sg18
V45
p1309
sbag1
(g2
g3
Ntp1310
Rp1311
(dp1312
g7
V118
p1313
sg9
VGoldeen
p1314
sg11
VHG,SS,
p1315
sg13
VFish Good
p1316
sg15
V20
p1317
sg17
g1317
sg18
V40
p1318
sbag1
(g2
g3
Ntp1319
Rp1320
(dp1321
g7
V129
p1322
sg9
VMagikarp
p1323
sg11
VHG,SS,
p1324
sg13
VFish Good
p1325
sg15
V20
p1326
sg17
g1326
sg18
V15
p1327
sbag1
(g2
g3
Ntp1328
Rp1329
(dp1330
g7
V060
p1331
sg9
VPoliwag
p1332
sg11
VHG,SS,
p1333
sg13
VFish Super
p1334
sg15
V40
p1335
sg17
g1335
sg18
V40
p1336
sbag1
(g2
g3
Ntp1337
Rp1338
(dp1339
g7
V061
p1340
sg9
VPoliwhirl
p1341
sg11
VHG,SS,
p1342
sg13
VFish Super
p1343
sg15
V40
p1344
sg17
g1344
sg18
V30
p1345
sbag1
(g2
g3
Ntp1346
Rp1347
(dp1348
g7
V130
p1349
sg9
VGyarados
p1350
sg11
VHG,SS,
p1351
sg13
VFish Super
p1352
sg15
V40
p1353
sg17
g1353
sg18
V30
p1354
sbag1
(g2
g3
Ntp1355
Rp1356
(dp1357
g7
V074
p1358
sg9
VGeodude
p1359
sg11
VHG,SS,
p1360
sg13
VRock Smash
p1361
sg15
V23
p1362
sg17
g1362
sg18
V90
p1363
sbag1
(g2
g3
Ntp1364
Rp1365
(dp1366
g7
V075
p1367
sg9
VGraveler
p1368
sg11
VHG,SS,
p1369
sg13
VRock Smash
p1370
sg15
V26
p1371
sg17
V30
p1372
sg18
V10
p1373
sbag1
(g2
g3
Ntp1374
Rp1375
(dp1376
g7
V296
p1377
sg9
VMakuhita
p1378
sg11
VHG,SS,
p1379
sg13
VHoenn
p1380
sg15
V39
p1381
sg17
V40
p1382
sg18
V20
p1383
sbag1
(g2
g3
Ntp1384
Rp1385
(dp1386
g7
V359
p1387
sg9
VAbsol
p1388
sg11
VHG,SS,
p1389
sg13
VHoenn
p1390
sg15
V38
p1391
sg17
g1391
sg18
V20
p1392
sbag1
(g2
g3
Ntp1393
Rp1394
(dp1395
g7
V433
p1396
sg9
VChingling
p1397
sg11
VHG,SS,
p1398
sg13
VSinnoh
p1399
sg15
V39
p1400
sg17
V40
p1401
sg18
V20
p1402
sbag1
(g2
g3
Ntp1403
Rp1404
(dp1405
g7
V436
p1406
sg9
VBronzor
p1407
sg11
VHG,SS,
p1408
sg13
VSinnoh
p1409
sg15
V38
p1410
sg17
g1410
sg18
V20
p1411
sbag1
(g2
g3
Ntp1412
Rp1413
(dp1414
g7
V042
p1415
sg9
VGolbat
p1416
sg11
VHG,SS,
p1417
sg13
VCave
p1418
sg15
V41
p1419
sg17
g1419
sg18
V10
p1420
sbag1
(g2
g3
Ntp1421
Rp1422
(dp1423
g7
V042
p1424
sg9
VGolbat
p1425
sg11
VHG,SS,
p1426
sg13
VCave
p1427
sg15
V41
p1428
sg17
V42
p1429
sg18
V20
p1430
sbag1
(g2
g3
Ntp1431
Rp1432
(dp1433
g7
V047
p1434
sg9
VParasect
p1435
sg11
VHG,SS,
p1436
sg13
VCave
p1437
sg15
V40
p1438
sg17
g1438
sg18
V20
p1439
sbag1
(g2
g3
Ntp1440
Rp1441
(dp1442
g7
V064
p1443
sg9
VKadabra
p1444
sg11
VHG,SS,
p1445
sg13
VCave
p1446
sg15
V42
p1447
sg17
g1447
sg18
V20
p1448
sbag1
(g2
g3
Ntp1449
Rp1450
(dp1451
g7
V067
p1452
sg9
VMachoke
p1453
sg11
VHG,SS,
p1454
sg13
VCave
p1455
sg15
V39
p1456
sg17
V42
p1457
sg18
V20
p1458
sbag1
(g2
g3
Ntp1459
Rp1460
(dp1461
g7
V067
p1462
sg9
VMachoke
p1463
sg11
VHG,SS,
p1464
sg13
VCave
p1465
sg15
V39
p1466
sg17
g1466
sg18
V10
p1467
sbag1
(g2
g3
Ntp1468
Rp1469
(dp1470
g7
V082
p1471
sg9
VMagneton
p1472
sg11
VHG,SS,
p1473
sg13
VCave
p1474
sg15
V41
p1475
sg17
g1475
sg18
V10
p1476
sbag1
(g2
g3
Ntp1477
Rp1478
(dp1479
g7
V101
p1480
sg9
VElectrode
p1481
sg11
VHG,SS,
p1482
sg13
VCave
p1483
sg15
V41
p1484
sg17
g1484
sg18
V5
p1485
sbag1
(g2
g3
Ntp1486
Rp1487
(dp1488
g7
V132
p1489
sg9
VDitto
p1490
sg11
VHG,SS,
p1491
sg13
VCave
p1492
sg15
V42
p1493
sg17
g1493
sg18
V10
p1494
sbag1
(g2
g3
Ntp1495
Rp1496
(dp1497
g7
V202
p1498
sg9
VWobbuffet
p1499
sg11
VHG,SS,
p1500
sg13
VCave
p1501
sg15
V42
p1502
sg17
g1502
sg18
V5
p1503
sbag1
(g2
g3
Ntp1504
Rp1505
(dp1506
g7
V129
p1507
sg9
VMagikarp
p1508
sg11
VHG,SS,
p1509
sg13
VFish Old
p1510
sg15
V10
p1511
sg17
g1511
sg18
V100
p1512
sbag1
(g2
g3
Ntp1513
Rp1514
(dp1515
g7
V060
p1516
sg9
VPoliwag
p1517
sg11
VHG,SS,
p1518
sg13
VFish Good
p1519
sg15
V20
p1520
sg17
g1520
sg18
V45
p1521
sbag1
(g2
g3
Ntp1522
Rp1523
(dp1524
g7
V118
p1525
sg9
VGoldeen
p1526
sg11
VHG,SS,
p1527
sg13
VFish Good
p1528
sg15
V20
p1529
sg17
g1529
sg18
V40
p1530
sbag1
(g2
g3
Ntp1531
Rp1532
(dp1533
g7
V129
p1534
sg9
VMagikarp
p1535
sg11
VHG,SS,
p1536
sg13
VFish Good
p1537
sg15
V20
p1538
sg17
g1538
sg18
V15
p1539
sbag1
(g2
g3
Ntp1540
Rp1541
(dp1542
g7
V060
p1543
sg9
VPoliwag
p1544
sg11
VHG,SS,
p1545
sg13
VFish Super
p1546
sg15
V40
p1547
sg17
g1547
sg18
V40
p1548
sbag1
(g2
g3
Ntp1549
Rp1550
(dp1551
g7
V061
p1552
sg9
VPoliwhirl
p1553
sg11
VHG,SS,
p1554
sg13
VFish Super
p1555
sg15
V40
p1556
sg17
g1556
sg18
V30
p1557
sbag1
(g2
g3
Ntp1558
Rp1559
(dp1560
g7
V130
p1561
sg9
VGyarados
p1562
sg11
VHG,SS,
p1563
sg13
VFish Super
p1564
sg15
V40
p1565
sg17
g1565
sg18
V30
p1566
sbag1
(g2
g3
Ntp1567
Rp1568
(dp1569
g7
V296
p1570
sg9
VMakuhita
p1571
sg11
VHG,SS,
p1572
sg13
VHoenn
p1573
sg15
V41
p1574
sg17
V42
p1575
sg18
V20
p1576
sbag1
(g2
g3
Ntp1577
Rp1578
(dp1579
g7
V359
p1580
sg9
VAbsol
p1581
sg11
VHG,SS,
p1582
sg13
VHoenn
p1583
sg15
V39
p1584
sg17
V41
p1585
sg18
V20
p1586
sbag1
(g2
g3
Ntp1587
Rp1588
(dp1589
g7
V433
p1590
sg9
VChingling
p1591
sg11
VHG,SS,
p1592
sg13
VSinnoh
p1593
sg15
V41
p1594
sg17
V42
p1595
sg18
V20
p1596
sbag1
(g2
g3
Ntp1597
Rp1598
(dp1599
g7
V436
p1600
sg9
VBronzor
p1601
sg11
VHG,SS,
p1602
sg13
VSinnoh
p1603
sg15
V39
p1604
sg17
V41
p1605
sg18
V20
p1606
sbag1
(g2
g3
Ntp1607
Rp1608
(dp1609
g7
V047
p1610
sg9
VParasect
p1611
sg11
VHG,SS,
p1612
sg13
VCave
p1613
sg15
V45
p1614
sg17
V47
p1615
sg18
V25
p1616
sbag1
(g2
g3
Ntp1617
Rp1618
(dp1619
g7
V064
p1620
sg9
VKadabra
p1621
sg11
VHG,SS,
p1622
sg13
VCave
p1623
sg15
V46
p1624
sg17
g1624
sg18
V20
p1625
sbag1
(g2
g3
Ntp1626
Rp1627
(dp1628
g7
V082
p1629
sg9
VMagneton
p1630
sg11
VHG,SS,
p1631
sg13
VCave
p1632
sg15
V45
p1633
sg17
V47
p1634
sg18
V15
p1635
sbag1
(g2
g3
Ntp1636
Rp1637
(dp1638
g7
V042
p1639
sg9
VGolbat
p1640
sg11
VHG,SS,
p1641
sg13
VCave
p1642
sg15
V47
p1643
sg17
g1643
sg18
V10
p1644
sbag1
(g2
g3
Ntp1645
Rp1646
(dp1647
g7
V067
p1648
sg9
VMachoke
p1649
sg11
VHG,SS,
p1650
sg13
VCave
p1651
sg15
V45
p1652
sg17
g1652
sg18
V10
p1653
sbag1
(g2
g3
Ntp1654
Rp1655
(dp1656
g7
V132
p1657
sg9
VDitto
p1658
sg11
VHG,SS,
p1659
sg13
VCave
p1660
sg15
V45
p1661
sg17
g1661
sg18
V10
p1662
sbag1
(g2
g3
Ntp1663
Rp1664
(dp1665
g7
V101
p1666
sg9
VElectrode
p1667
sg11
VHG,SS,
p1668
sg13
VCave
p1669
sg15
V46
p1670
sg17
g1670
sg18
V5
p1671
sbag1
(g2
g3
Ntp1672
Rp1673
(dp1674
g7
V202
p1675
sg9
VWobbuffet
p1676
sg11
VHG,SS,
p1677
sg13
VCave
p1678
sg15
V49
p1679
sg17
g1679
sg18
V5
p1680
sbag1
(g2
g3
Ntp1681
Rp1682
(dp1683
g7
V054
p1684
sg9
VPsyduck
p1685
sg11
VHG,SS,
p1686
sg13
VSurf
p1687
sg15
V35
p1688
sg17
V40
p1689
sg18
V90
p1690
sbag1
(g2
g3
Ntp1691
Rp1692
(dp1693
g7
V055
p1694
sg9
VGolduck
p1695
sg11
VHG,SS,
p1696
sg13
VSurf
p1697
sg15
V40
p1698
sg17
g1698
sg18
V10
p1699
sbag1
(g2
g3
Ntp1700
Rp1701
(dp1702
g7
V129
p1703
sg9
VMagikarp
p1704
sg11
VHG,SS,
p1705
sg13
VFish Old
p1706
sg15
V10
p1707
sg17
g1707
sg18
V100
p1708
sbag1
(g2
g3
Ntp1709
Rp1710
(dp1711
g7
V060
p1712
sg9
VPoliwag
p1713
sg11
VHG,SS,
p1714
sg13
VFish Good
p1715
sg15
V20
p1716
sg17
g1716
sg18
V45
p1717
sbag1
(g2
g3
Ntp1718
Rp1719
(dp1720
g7
V118
p1721
sg9
VGoldeen
p1722
sg11
VHG,SS,
p1723
sg13
VFish Good
p1724
sg15
V20
p1725
sg17
g1725
sg18
V40
p1726
sbag1
(g2
g3
Ntp1727
Rp1728
(dp1729
g7
V129
p1730
sg9
VMagikarp
p1731
sg11
VHG,SS,
p1732
sg13
VFish Good
p1733
sg15
V20
p1734
sg17
g1734
sg18
V15
p1735
sbag1
(g2
g3
Ntp1736
Rp1737
(dp1738
g7
V060
p1739
sg9
VPoliwag
p1740
sg11
VHG,SS,
p1741
sg13
VFish Super
p1742
sg15
V40
p1743
sg17
g1743
sg18
V40
p1744
sbag1
(g2
g3
Ntp1745
Rp1746
(dp1747
g7
V061
p1748
sg9
VPoliwhirl
p1749
sg11
VHG,SS,
p1750
sg13
VFish Super
p1751
sg15
V40
p1752
sg17
g1752
sg18
V30
p1753
sbag1
(g2
g3
Ntp1754
Rp1755
(dp1756
g7
V130
p1757
sg9
VGyarados
p1758
sg11
VHG,SS,
p1759
sg13
VFish Super
p1760
sg15
V40
p1761
sg17
g1761
sg18
V30
p1762
sbag1
(g2
g3
Ntp1763
Rp1764
(dp1765
g7
V074
p1766
sg9
VGeodude
p1767
sg11
VHG,SS,
p1768
sg13
VRock Smash
p1769
sg15
V22
p1770
sg17
g1770
sg18
V90
p1771
sbag1
(g2
g3
Ntp1772
Rp1773
(dp1774
g7
V075
p1775
sg9
VGraveler
p1776
sg11
VHG,SS,
p1777
sg13
VRock Smash
p1778
sg15
V26
p1779
sg17
g1779
sg18
V10
p1780
sbag1
(g2
g3
Ntp1781
Rp1782
(dp1783
g7
V150
p1784
sg9
VMewtwo
p1785
sg11
VHG,SS,
p1786
sg13
VSpecial
p1787
sg15
V70
p1788
sg17
g1788
sg18
V0
p1789
sbag1
(g2
g3
Ntp1790
Rp1791
(dp1792
g7
V296
p1793
sg9
VMakuhita
p1794
sg11
VHG,SS,
p1795
sg13
VHoenn
p1796
sg15
V45
p1797
sg17
g1797
sg18
V20
p1798
sbag1
(g2
g3
Ntp1799
Rp1800
(dp1801
g7
V359
p1802
sg9
VAbsol
p1803
sg11
VHG,SS,
p1804
sg13
VHoenn
p1805
sg15
V45
p1806
sg17
V47
p1807
sg18
V20
p1808
sbag1
(g2
g3
Ntp1809
Rp1810
(dp1811
g7
V433
p1812
sg9
VChingling
p1813
sg11
VHG,SS,
p1814
sg13
VSinnoh
p1815
sg15
V45
p1816
sg17
g1816
sg18
V20
p1817
sbag1
(g2
g3
Ntp1818
Rp1819
(dp1820
g7
V436
p1821
sg9
VBronzor
p1822
sg11
VHG,SS,
p1823
sg13
VSinnoh
p1824
sg15
V45
p1825
sg17
V47
p1826
sg18
V20
p1827
sbag1
(g2
g3
Ntp1828
Rp1829
(dp1830
g7
V041
p1831
sg9
VZubat
p1832
sg11
VPi,Ev,
p1833
sg13
VCave
p1834
sg15
V51
p1835
sg17
V56
p1836
sg18
V10
p1837
sbag1
(g2
g3
Ntp1838
Rp1839
(dp1840
g7
V042
p1841
sg9
VGolbat
p1842
sg11
VPi,Ev,
p1843
sg13
VCave
p1844
sg15
V51
p1845
sg17
V56
p1846
sg18
V15
p1847
sbag1
(g2
g3
Ntp1848
Rp1849
(dp1850
g7
V054
p1851
sg9
VPsyduck
p1852
sg11
VPi,Ev,
p1853
sg13
VCave
p1854
sg15
V51
p1855
sg17
V56
p1856
sg18
V5
p1857
sbag1
(g2
g3
Ntp1858
Rp1859
(dp1860
g7
V055
p1861
sg9
VGolduck
p1862
sg11
VPi,Ev,
p1863
sg13
VCave
p1864
sg15
V51
p1865
sg17
V56
p1866
sg18
V15
p1867
sbag1
(g2
g3
Ntp1868
Rp1869
(dp1870
g7
V074
p1871
sg9
VGeodude
p1872
sg11
VPi,Ev,
p1873
sg13
VCave
p1874
sg15
V51
p1875
sg17
V56
p1876
sg18
V10
p1877
sbag1
(g2
g3
Ntp1878
Rp1879
(dp1880
g7
V075
p1881
sg9
VGraveler
p1882
sg11
VPi,Ev,
p1883
sg13
VCave
p1884
sg15
V51
p1885
sg17
V56
p1886
sg18
V15
p1887
sbag1
(g2
g3
Ntp1888
Rp1889
(dp1890
g7
V108
p1891
sg9
VLickitung
p1892
sg11
VPi,Ev,
p1893
sg13
VCave
p1894
sg15
V51
p1895
sg17
V56
p1896
sg18
V10
p1897
sbag1
(g2
g3
Ntp1898
Rp1899
(dp1900
g7
V111
p1901
sg9
VRhyhorn
p1902
sg11
VPi,Ev,
p1903
sg13
VCave
p1904
sg15
V51
p1905
sg17
V56
p1906
sg18
V10
p1907
sbag1
(g2
g3
Ntp1908
Rp1909
(dp1910
g7
V112
p1911
sg9
VRhydon
p1912
sg11
VPi,Ev,
p1913
sg13
VCave
p1914
sg15
V51
p1915
sg17
V56
p1916
sg18
V5
p1917
sbag1
(g2
g3
Ntp1918
Rp1919
(dp1920
g7
V132
p1921
sg9
VDitto
p1922
sg11
VPi,Ev,
p1923
sg13
VCave
p1924
sg15
V51
p1925
sg17
V56
p1926
sg18
V5
p1927
sbag1
(g2
g3
Ntp1928
Rp1929
(dp1930
g7
V143
p1931
sg9
VSnorlax
p1932
sg11
VPi,Ev,
p1933
sg13
VCave
p1934
sg15
V51
p1935
sg17
V56
p1936
sg18
V0
p1937
sbag1
(g2
g3
Ntp1938
Rp1939
(dp1940
g7
V060
p1941
sg9
VPoliwag
p1942
sg11
VPi,Ev,
p1943
sg13
VSurf
p1944
sg15
V51
p1945
sg17
V56
p1946
sg18
V45
p1947
sbag1
(g2
g3
Ntp1948
Rp1949
(dp1950
g7
V061
p1951
sg9
VPoliwhirl
p1952
sg11
VPi,Ev,
p1953
sg13
VSurf
p1954
sg15
V51
p1955
sg17
V56
p1956
sg18
V9
p1957
sbag1
(g2
g3
Ntp1958
Rp1959
(dp1960
g7
V062
p1961
sg9
VPoliwrath
p1962
sg11
VPi,Ev,
p1963
sg13
VSurf
p1964
sg15
V51
p1965
sg17
V56
p1966
sg18
V1
p1967
sbag1
(g2
g3
Ntp1968
Rp1969
(dp1970
g7
V129
p1971
sg9
VMagikarp
p1972
sg11
VPi,Ev,
p1973
sg13
VSurf
p1974
sg15
V51
p1975
sg17
V56
p1976
sg18
V45
p1977
sbag1
(g2
g3
Ntp1978
Rp1979
(dp1980
g7
V041
p1981
sg9
VZubat
p1982
sg11
VPi,Ev,
p1983
sg13
VCave
p1984
sg15
V51
p1985
sg17
V56
p1986
sg18
V5
p1987
sbag1
(g2
g3
Ntp1988
Rp1989
(dp1990
g7
V042
p1991
sg9
VGolbat
p1992
sg11
VPi,Ev,
p1993
sg13
VCave
p1994
sg15
V51
p1995
sg17
V56
p1996
sg18
V20
p1997
sbag1
(g2
g3
Ntp1998
Rp1999
(dp2000
g7
V074
p2001
sg9
VGeodude
p2002
sg11
VPi,Ev,
p2003
sg13
VCave
p2004
sg15
V51
p2005
sg17
V56
p2006
sg18
V5
p2007
sbag1
(g2
g3
Ntp2008
Rp2009
(dp2010
g7
V075
p2011
sg9
VGraveler
p2012
sg11
VPi,Ev,
p2013
sg13
VCave
p2014
sg15
V51
p2015
sg17
V56
p2016
sg18
V20
p2017
sbag1
(g2
g3
Ntp2018
Rp2019
(dp2020
g7
V108
p2021
sg9
VLickitung
p2022
sg11
VPi,Ev,
p2023
sg13
VCave
p2024
sg15
V51
p2025
sg17
V56
p2026
sg18
V15
p2027
sbag1
(g2
g3
Ntp2028
Rp2029
(dp2030
g7
V111
p2031
sg9
VRhyhorn
p2032
sg11
VPi,Ev,
p2033
sg13
VCave
p2034
sg15
V51
p2035
sg17
V56
p2036
sg18
V10
p2037
sbag1
(g2
g3
Ntp2038
Rp2039
(dp2040
g7
V112
p2041
sg9
VRhydon
p2042
sg11
VPi,Ev,
p2043
sg13
VCave
p2044
sg15
V51
p2045
sg17
V56
p2046
sg18
V10
p2047
sbag1
(g2
g3
Ntp2048
Rp2049
(dp2050
g7
V113
p2051
sg9
VChansey
p2052
sg11
VPi,Ev,
p2053
sg13
VCave
p2054
sg15
V51
p2055
sg17
V56
p2056
sg18
V10
p2057
sbag1
(g2
g3
Ntp2058
Rp2059
(dp2060
g7
V132
p2061
sg9
VDitto
p2062
sg11
VPi,Ev,
p2063
sg13
VCave
p2064
sg15
V51
p2065
sg17
V56
p2066
sg18
V5
p2067
sbag1
(g2
g3
Ntp2068
Rp2069
(dp2070
g7
V143
p2071
sg9
VSnorlax
p2072
sg11
VPi,Ev,
p2073
sg13
VCave
p2074
sg15
V51
p2075
sg17
V56
p2076
sg18
V0
p2077
sbag1
(g2
g3
Ntp2078
Rp2079
(dp2080
g7
V041
p2081
sg9
VZubat
p2082
sg11
VPi,Ev,
p2083
sg13
VCave
p2084
sg15
V51
p2085
sg17
V56
p2086
sg18
V10
p2087
sbag1
(g2
g3
Ntp2088
Rp2089
(dp2090
g7
V042
p2091
sg9
VGolbat
p2092
sg11
VPi,Ev,
p2093
sg13
VCave
p2094
sg15
V51
p2095
sg17
V56
p2096
sg18
V15
p2097
sbag1
(g2
g3
Ntp2098
Rp2099
(dp2100
g7
V054
p2101
sg9
VPsyduck
p2102
sg11
VPi,Ev,
p2103
sg13
VCave
p2104
sg15
V51
p2105
sg17
V56
p2106
sg18
V5
p2107
sbag1
(g2
g3
Ntp2108
Rp2109
(dp2110
g7
V055
p2111
sg9
VGolduck
p2112
sg11
VPi,Ev,
p2113
sg13
VCave
p2114
sg15
V51
p2115
sg17
V56
p2116
sg18
V15
p2117
sbag1
(g2
g3
Ntp2118
Rp2119
(dp2120
g7
V074
p2121
sg9
VGeodude
p2122
sg11
VPi,Ev,
p2123
sg13
VCave
p2124
sg15
V51
p2125
sg17
V56
p2126
sg18
V10
p2127
sbag1
(g2
g3
Ntp2128
Rp2129
(dp2130
g7
V075
p2131
sg9
VGraveler
p2132
sg11
VPi,Ev,
p2133
sg13
VCave
p2134
sg15
V51
p2135
sg17
V56
p2136
sg18
V15
p2137
sbag1
(g2
g3
Ntp2138
Rp2139
(dp2140
g7
V108
p2141
sg9
VLickitung
p2142
sg11
VPi,Ev,
p2143
sg13
VCave
p2144
sg15
V51
p2145
sg17
V56
p2146
sg18
V10
p2147
sbag1
(g2
g3
Ntp2148
Rp2149
(dp2150
g7
V111
p2151
sg9
VRhyhorn
p2152
sg11
VPi,Ev,
p2153
sg13
VCave
p2154
sg15
V51
p2155
sg17
V56
p2156
sg18
V10
p2157
sbag1
(g2
g3
Ntp2158
Rp2159
(dp2160
g7
V112
p2161
sg9
VRhydon
p2162
sg11
VPi,Ev,
p2163
sg13
VCave
p2164
sg15
V51
p2165
sg17
V56
p2166
sg18
V5
p2167
sbag1
(g2
g3
Ntp2168
Rp2169
(dp2170
g7
V132
p2171
sg9
VDitto
p2172
sg11
VPi,Ev,
p2173
sg13
VCave
p2174
sg15
V51
p2175
sg17
V56
p2176
sg18
V5
p2177
sbag1
(g2
g3
Ntp2178
Rp2179
(dp2180
g7
V143
p2181
sg9
VSnorlax
p2182
sg11
VPi,Ev,
p2183
sg13
VCave
p2184
sg15
V51
p2185
sg17
V56
p2186
sg18
V0
p2187
sbag1
(g2
g3
Ntp2188
Rp2189
(dp2190
g7
V060
p2191
sg9
VPoliwag
p2192
sg11
VPi,Ev,
p2193
sg13
VSurf
p2194
sg15
V51
p2195
sg17
V56
p2196
sg18
V45
p2197
sbag1
(g2
g3
Ntp2198
Rp2199
(dp2200
g7
V061
p2201
sg9
VPoliwhirl
p2202
sg11
VPi,Ev,
p2203
sg13
VSurf
p2204
sg15
V51
p2205
sg17
V56
p2206
sg18
V9
p2207
sbag1
(g2
g3
Ntp2208
Rp2209
(dp2210
g7
V062
p2211
sg9
VPoliwrath
p2212
sg11
VPi,Ev,
p2213
sg13
VSurf
p2214
sg15
V51
p2215
sg17
V56
p2216
sg18
V1
p2217
sbag1
(g2
g3
Ntp2218
Rp2219
(dp2220
g7
V129
p2221
sg9
VMagikarp
p2222
sg11
VPi,Ev,
p2223
sg13
VSurf
p2224
sg15
V51
p2225
sg17
V56
p2226
sg18
V45
p2227
sbag1
(g2
g3
Ntp2228
Rp2229
(dp2230
g7
V150
p2231
sg9
VMewtwo
p2232
sg11
VPi,Ev,
p2233
sg13
VSpecial
p2234
sg15
V70
p2235
sg17
g2235
sg18
V0
p2236
sba.