(lp0
ccopy_reg
_reconstructor
p1
(c__main__
WildPokemon
p2
c__builtin__
object
p3
Ntp4
Rp5
(dp6
VpDexNo
p7
V403
p8
sVpSpecies
p9
VShinx
p10
sVpGames
p11
VSw,Sh,
p12
sVpArea
p13
VGrass
p14
sVpMinLevel
p15
V19
p16
sVpMaxLevel
p17
V24
p18
sVpRate
p19
V0
p20
sbag1
(g2
g3
Ntp21
Rp22
(dp23
g7
V440
p24
sg9
VHappiny
p25
sg11
VSw,Sh,
p26
sg13
VGrass
p27
sg15
V19
p28
sg17
V24
p29
sg19
V10
p30
sbag1
(g2
g3
Ntp31
Rp32
(dp33
g7
V524
p34
sg9
VRoggenrola
p35
sg11
VSw,Sh,
p36
sg13
VGrass
p37
sg15
V19
p38
sg17
V24
p39
sg19
V30
p40
sbag1
(g2
g3
Ntp41
Rp42
(dp43
g7
V619
p44
sg9
VMienfoo
p45
sg11
VSw,Sh,
p46
sg13
VGrass
p47
sg15
V19
p48
sg17
V24
p49
sg19
g20
sbag1
(g2
g3
Ntp50
Rp51
(dp52
g7
V624
p53
sg9
VPawniard
p54
sg11
VSw,Sh,
p55
sg13
VGrass
p56
sg15
V19
p57
sg17
V24
p58
sg19
g20
sbag1
(g2
g3
Ntp59
Rp60
(dp61
g7
V661
p62
sg9
VFletchling
p63
sg11
VSw,Sh,
p64
sg13
VGrass
p65
sg15
V19
p66
sg17
V24
p67
sg19
g20
sbag1
(g2
g3
Ntp68
Rp69
(dp70
g7
V824
p71
sg9
VBlipbug
p72
sg11
VSw,Sh,
p73
sg13
VGrass
p74
sg15
V19
p75
sg17
V24
p76
sg19
V30
p77
sbag1
(g2
g3
Ntp78
Rp79
(dp80
g7
V843
p81
sg9
VSilicobra
p82
sg11
VSw,Sh,
p83
sg13
VGrass
p84
sg15
V19
p85
sg17
V24
p86
sg19
g20
sbag1
(g2
g3
Ntp87
Rp88
(dp89
g7
V113
p90
sg9
VChansey
p91
sg11
VSh,
p92
sg13
VGrass
p93
sg15
V10
p94
sg17
V15
p95
sg19
g20
sbag1
(g2
g3
Ntp96
Rp97
(dp98
g7
V113
p99
sg9
VChansey
p100
sg11
VSw,
p101
sg13
VGrass
p102
sg15
V16
p103
sg17
V21
p104
sg19
g20
sbag1
(g2
g3
Ntp105
Rp106
(dp107
g7
V227
p108
sg9
VSkarmory
p109
sg11
g92
sg13
VGrass
p110
sg15
V10
p111
sg17
V15
p112
sg19
V5
p113
sbag1
(g2
g3
Ntp114
Rp115
(dp116
g7
V227
p117
sg9
VSkarmory
p118
sg11
g101
sg13
VGrass
p119
sg15
V16
p120
sg17
V21
p121
sg19
V5
p122
sbag1
(g2
g3
Ntp123
Rp124
(dp125
g7
V242
p126
sg9
VBlissey
p127
sg11
g92
sg13
VGrass
p128
sg15
V10
p129
sg17
V15
p130
sg19
g20
sbag1
(g2
g3
Ntp131
Rp132
(dp133
g7
V242
p134
sg9
VBlissey
p135
sg11
g101
sg13
VGrass
p136
sg15
V16
p137
sg17
V21
p138
sg19
g20
sbag1
(g2
g3
Ntp139
Rp140
(dp141
g7
V403
p142
sg9
VShinx
p143
sg11
g92
sg13
VGrass
p144
sg15
V10
p145
sg17
V15
p146
sg19
g20
sbag1
(g2
g3
Ntp147
Rp148
(dp149
g7
V403
p150
sg9
VShinx
p151
sg11
g101
sg13
VGrass
p152
sg15
V16
p153
sg17
V21
p154
sg19
g20
sbag1
(g2
g3
Ntp155
Rp156
(dp157
g7
V524
p158
sg9
VRoggenrola
p159
sg11
g92
sg13
VGrass
p160
sg15
V10
p161
sg17
V15
p162
sg19
g20
sbag1
(g2
g3
Ntp163
Rp164
(dp165
g7
V524
p166
sg9
VRoggenrola
p167
sg11
g101
sg13
VGrass
p168
sg15
V16
p169
sg17
V21
p170
sg19
g20
sbag1
(g2
g3
Ntp171
Rp172
(dp173
g7
V559
p174
sg9
VScraggy
p175
sg11
g101
sg13
VGrass
p176
sg15
V16
p177
sg17
V21
p178
sg19
g20
sbag1
(g2
g3
Ntp179
Rp180
(dp181
g7
V619
p182
sg9
VMienfoo
p183
sg11
g92
sg13
VGrass
p184
sg15
V10
p185
sg17
V15
p186
sg19
V16
p187
sbag1
(g2
g3
Ntp188
Rp189
(dp190
g7
V619
p191
sg9
VMienfoo
p192
sg11
g101
sg13
VGrass
p193
sg15
V16
p194
sg17
V21
p195
sg19
V16
p196
sbag1
(g2
g3
Ntp197
Rp198
(dp199
g7
V624
p200
sg9
VPawniard
p201
sg11
g92
sg13
VGrass
p202
sg15
V10
p203
sg17
V15
p204
sg19
g20
sbag1
(g2
g3
Ntp205
Rp206
(dp207
g7
V624
p208
sg9
VPawniard
p209
sg11
g101
sg13
VGrass
p210
sg15
V16
p211
sg17
V21
p212
sg19
g20
sbag1
(g2
g3
Ntp213
Rp214
(dp215
g7
V661
p216
sg9
VFletchling
p217
sg11
g92
sg13
VGrass
p218
sg15
V10
p219
sg17
V15
p220
sg19
g20
sbag1
(g2
g3
Ntp221
Rp222
(dp223
g7
V661
p224
sg9
VFletchling
p225
sg11
g101
sg13
VGrass
p226
sg15
V16
p227
sg17
V21
p228
sg19
g20
sbag1
(g2
g3
Ntp229
Rp230
(dp231
g7
V744
p232
sg9
VRockruff
p233
sg11
g92
sg13
VGrass
p234
sg15
V10
p235
sg17
V15
p236
sg19
V5
p237
sbag1
(g2
g3
Ntp238
Rp239
(dp240
g7
V744
p241
sg9
VRockruff
p242
sg11
g101
sg13
VGrass
p243
sg15
V16
p244
sg17
V21
p245
sg19
V5
p246
sbag1
(g2
g3
Ntp247
Rp248
(dp249
g7
V757
p250
sg9
VSalandit
p251
sg11
g92
sg13
VGrass
p252
sg15
V10
p253
sg17
V15
p254
sg19
V16
p255
sbag1
(g2
g3
Ntp256
Rp257
(dp258
g7
V757
p259
sg9
VSalandit
p260
sg11
g101
sg13
VGrass
p261
sg15
V16
p262
sg17
V21
p263
sg19
V16
p264
sbag1
(g2
g3
Ntp265
Rp266
(dp267
g7
V782
p268
sg9
VJangmo-o
p269
sg11
g101
sg13
VGrass
p270
sg15
V16
p271
sg17
V21
p272
sg19
g20
sbag1
(g2
g3
Ntp273
Rp274
(dp275
g7
V843
p276
sg9
VSilicobra
p277
sg11
g92
sg13
VGrass
p278
sg15
V10
p279
sg17
V15
p280
sg19
g20
sbag1
(g2
g3
Ntp281
Rp282
(dp283
g7
V843
p284
sg9
VSilicobra
p285
sg11
g101
sg13
VGrass
p286
sg15
V16
p287
sg17
V21
p288
sg19
g20
sbag1
(g2
g3
Ntp289
Rp290
(dp291
g7
V227
p292
sg9
VSkarmory
p293
sg11
VSw,Sh,
p294
sg13
VWanderer
p295
sg15
V26
p296
sg17
g296
sg19
g20
sbag1
(g2
g3
Ntp297
Rp298
(dp299
g7
V628
p300
sg9
VBraviary
p301
sg11
g101
sg13
VWanderer
p302
sg15
V26
p303
sg17
g303
sg19
g20
sbag1
(g2
g3
Ntp304
Rp305
(dp306
g7
V630
p307
sg9
VMandibuzz
p308
sg11
g92
sg13
VWanderer
p309
sg15
V??
p310
sg17
g310
sg19
g20
sbag1
(g2
g3
Ntp311
Rp312
(dp313
g7
V082
p314
sg9
VMagneton
p315
sg11
VSw,Sh,
p316
sg13
VWanderer
p317
sg15
V26
p318
sg17
g318
sg19
g20
sbag1
(g2
g3
Ntp319
Rp320
(dp321
g7
V426
p322
sg9
VDrifblim
p323
sg11
VSw,Sh,
p324
sg13
VWanderer
p325
sg15
V26
p326
sg17
g326
sg19
g20
sbag1
(g2
g3
Ntp327
Rp328
(dp329
g7
V227
p330
sg9
VSkarmory
p331
sg11
VSw,Sh,
p332
sg13
VWanderer
p333
sg15
V26
p334
sg17
g334
sg19
g20
sbag1
(g2
g3
Ntp335
Rp336
(dp337
g7
V628
p338
sg9
VBraviary
p339
sg11
g101
sg13
VWanderer
p340
sg15
V26
p341
sg17
g341
sg19
g20
sbag1
(g2
g3
Ntp342
Rp343
(dp344
g7
V630
p345
sg9
VMandibuzz
p346
sg11
g92
sg13
VWanderer
p347
sg15
V??
p348
sg17
g348
sg19
g20
sbag1
(g2
g3
Ntp349
Rp350
(dp351
g7
V082
p352
sg9
VMagneton
p353
sg11
VSw,Sh,
p354
sg13
VWanderer
p355
sg15
V26
p356
sg17
g356
sg19
g20
sbag1
(g2
g3
Ntp357
Rp358
(dp359
g7
V426
p360
sg9
VDrifblim
p361
sg11
VSw,Sh,
p362
sg13
VWanderer
p363
sg15
V26
p364
sg17
g364
sg19
g20
sbag1
(g2
g3
Ntp365
Rp366
(dp367
g7
V745
p368
sg9
VLycanroc
p369
sg11
VSw,Sh,
p370
sg13
VWanderer
p371
sg15
V32
p372
sg17
g372
sg19
g20
sbag1
(g2
g3
Ntp373
Rp374
(dp375
g7
V745
p376
sg9
VLycanroc
p377
sg11
VSw,Sh,
p378
sg13
VWanderer
p379
sg15
V32
p380
sg17
g380
sg19
g20
sbag1
(g2
g3
Ntp381
Rp382
(dp383
g7
V560
p384
sg9
VScrafty
p385
sg11
g101
sg13
VWanderer
p386
sg15
V26
p387
sg17
g387
sg19
g20
sbag1
(g2
g3
Ntp388
Rp389
(dp390
g7
V454
p391
sg9
VToxicroak
p392
sg11
g92
sg13
VWanderer
p393
sg15
V??
p394
sg17
g394
sg19
g20
sbag1
(g2
g3
Ntp395
Rp396
(dp397
g7
V127
p398
sg9
VPinsir
p399
sg11
g101
sg13
VWanderer
p400
sg15
V26
p401
sg17
g401
sg19
g20
sbag1
(g2
g3
Ntp402
Rp403
(dp404
g7
V214
p405
sg9
VHeracross
p406
sg11
g92
sg13
VWanderer
p407
sg15
V??
p408
sg17
g408
sg19
g20
sbag1
(g2
g3
Ntp409
Rp410
(dp411
g7
V212
p412
sg9
VScizor
p413
sg11
VSw,Sh,
p414
sg13
VWanderer
p415
sg15
V40
p416
sg17
g416
sg19
g20
sbag1
(g2
g3
Ntp417
Rp418
(dp419
g7
V475
p420
sg9
VGallade
p421
sg11
VSw,Sh,
p422
sg13
VWanderer
p423
sg15
V32
p424
sg17
g424
sg19
g20
sbag1
(g2
g3
Ntp425
Rp426
(dp427
g7
V227
p428
sg9
VSkarmory
p429
sg11
VSw,Sh,
p430
sg13
VWanderer
p431
sg15
V26
p432
sg17
g432
sg19
g20
sbag1
(g2
g3
Ntp433
Rp434
(dp435
g7
V628
p436
sg9
VBraviary
p437
sg11
g101
sg13
VWanderer
p438
sg15
V26
p439
sg17
g439
sg19
g20
sbag1
(g2
g3
Ntp440
Rp441
(dp442
g7
V630
p443
sg9
VMandibuzz
p444
sg11
g92
sg13
VWanderer
p445
sg15
V??
p446
sg17
g446
sg19
g20
sbag1
(g2
g3
Ntp447
Rp448
(dp449
g7
V082
p450
sg9
VMagneton
p451
sg11
VSw,Sh,
p452
sg13
VWanderer
p453
sg15
V26
p454
sg17
g454
sg19
g20
sbag1
(g2
g3
Ntp455
Rp456
(dp457
g7
V426
p458
sg9
VDrifblim
p459
sg11
VSw,Sh,
p460
sg13
VWanderer
p461
sg15
V26
p462
sg17
g462
sg19
g20
sbag1
(g2
g3
Ntp463
Rp464
(dp465
g7
V227
p466
sg9
VSkarmory
p467
sg11
VSw,Sh,
p468
sg13
VWanderer
p469
sg15
V26
p470
sg17
g470
sg19
g20
sbag1
(g2
g3
Ntp471
Rp472
(dp473
g7
V628
p474
sg9
VBraviary
p475
sg11
g101
sg13
VWanderer
p476
sg15
V26
p477
sg17
g477
sg19
g20
sbag1
(g2
g3
Ntp478
Rp479
(dp480
g7
V630
p481
sg9
VMandibuzz
p482
sg11
g92
sg13
VWanderer
p483
sg15
V??
p484
sg17
g484
sg19
g20
sbag1
(g2
g3
Ntp485
Rp486
(dp487
g7
V082
p488
sg9
VMagneton
p489
sg11
VSw,Sh,
p490
sg13
VWanderer
p491
sg15
V26
p492
sg17
g492
sg19
g20
sbag1
(g2
g3
Ntp493
Rp494
(dp495
g7
V426
p496
sg9
VDrifblim
p497
sg11
VSw,Sh,
p498
sg13
VWanderer
p499
sg15
V26
p500
sg17
g500
sg19
g20
sbag1
(g2
g3
Ntp501
Rp502
(dp503
g7
V227
p504
sg9
VSkarmory
p505
sg11
VSw,Sh,
p506
sg13
VWanderer
p507
sg15
V26
p508
sg17
g508
sg19
g20
sbag1
(g2
g3
Ntp509
Rp510
(dp511
g7
V628
p512
sg9
VBraviary
p513
sg11
g101
sg13
VWanderer
p514
sg15
V26
p515
sg17
g515
sg19
g20
sbag1
(g2
g3
Ntp516
Rp517
(dp518
g7
V630
p519
sg9
VMandibuzz
p520
sg11
g92
sg13
VWanderer
p521
sg15
V??
p522
sg17
g522
sg19
g20
sbag1
(g2
g3
Ntp523
Rp524
(dp525
g7
V082
p526
sg9
VMagneton
p527
sg11
VSw,Sh,
p528
sg13
VWanderer
p529
sg15
V26
p530
sg17
g530
sg19
g20
sbag1
(g2
g3
Ntp531
Rp532
(dp533
g7
V426
p534
sg9
VDrifblim
p535
sg11
VSw,Sh,
p536
sg13
VWanderer
p537
sg15
V26
p538
sg17
g538
sg19
g20
sbag1
(g2
g3
Ntp539
Rp540
(dp541
g7
V744
p542
sg9
VRockruff
p543
sg11
VSw,Sh,
p544
sg13
VWanderer
p545
sg15
V22
p546
sg17
g546
sg19
g20
sbag1
(g2
g3
Ntp547
Rp548
(dp549
g7
V620
p550
sg9
VMienshao
p551
sg11
VSw,Sh,
p552
sg13
VWanderer
p553
sg15
V28
p554
sg17
g554
sg19
g20
sbag1
(g2
g3
Ntp555
Rp556
(dp557
g7
V625
p558
sg9
VBisharp
p559
sg11
VSw,Sh,
p560
sg13
VWanderer
p561
sg15
V36
p562
sg17
g562
sg19
g20
sbag1
(g2
g3
Ntp563
Rp564
(dp565
g7
V560
p566
sg9
VScrafty
p567
sg11
g101
sg13
VWanderer
p568
sg15
V26
p569
sg17
g569
sg19
g20
sbag1
(g2
g3
Ntp570
Rp571
(dp572
g7
V454
p573
sg9
VToxicroak
p574
sg11
g92
sg13
VWanderer
p575
sg15
V??
p576
sg17
g576
sg19
g20
sbag1
(g2
g3
Ntp577
Rp578
(dp579
g7
V758
p580
sg9
VSalazzle
p581
sg11
VSw,Sh,
p582
sg13
VWanderer
p583
sg15
V28
p584
sg17
g584
sg19
g20
sbag1
(g2
g3
Ntp585
Rp586
(dp587
g7
V782
p588
sg9
VJangmo-o
p589
sg11
g101
sg13
VWanderer
p590
sg15
V22
p591
sg17
g591
sg19
g20
sbag1
(g2
g3
Ntp592
Rp593
(dp594
g7
V704
p595
sg9
VGoomy
p596
sg11
g92
sg13
VWanderer
p597
sg15
V??
p598
sg17
g598
sg19
g20
sbag1
(g2
g3
Ntp599
Rp600
(dp601
g7
V558
p602
sg9
VCrustle
p603
sg11
VSw,Sh,
p604
sg13
VWanderer
p605
sg15
V26
p606
sg17
g606
sg19
g20
sbag1
(g2
g3
Ntp607
Rp608
(dp609
g7
V475
p610
sg9
VGallade
p611
sg11
VSw,Sh,
p612
sg13
VWanderer
p613
sg15
V32
p614
sg17
g614
sg19
g20
sbag1
(g2
g3
Ntp615
Rp616
(dp617
g7
V052
p618
sg9
VMeowth
p619
sg11
VSw,Sh,
p620
sg13
VTrade
p621
sg15
V15
p622
sg17
g622
sg19
V0
p623
sbag1
(g2
g3
Ntp624
Rp625
(dp626
g7
V077
p627
sg9
VPonyta
p628
sg11
g92
sg13
VTrade
p629
sg15
V15
p630
sg17
g630
sg19
V0
p631
sbag1
(g2
g3
Ntp632
Rp633
(dp634
g7
V083
p635
sg9
VFarfetch'd
p636
sg11
g101
sg13
VTrade
p637
sg15
V15
p638
sg17
g638
sg19
V0
p639
sbag1
(g2
g3
Ntp640
Rp641
(dp642
g7
V103
p643
sg9
VExeggutor
p644
sg11
VSw,Sh,
p645
sg13
VTrade
p646
sg15
V15
p647
sg17
g647
sg19
V0
p648
sbag1
(g2
g3
Ntp649
Rp650
(dp651
g7
V105
p652
sg9
VMarowak
p653
sg11
VSw,Sh,
p654
sg13
VTrade
p655
sg15
V15
p656
sg17
g656
sg19
V0
p657
sbag1
(g2
g3
Ntp658
Rp659
(dp660
g7
V110
p661
sg9
VWeezing
p662
sg11
VSw,Sh,
p663
sg13
VTrade
p664
sg15
V15
p665
sg17
g665
sg19
V0
p666
sbag1
(g2
g3
Ntp667
Rp668
(dp669
g7
V122
p670
sg9
VMr. Mime
p671
sg11
VSw,Sh,
p672
sg13
VTrade
p673
sg15
V15
p674
sg17
g674
sg19
V0
p675
sbag1
(g2
g3
Ntp676
Rp677
(dp678
g7
V222
p679
sg9
VCorsola
p680
sg11
g92
sg13
VTrade
p681
sg15
V15
p682
sg17
g682
sg19
V0
p683
sbag1
(g2
g3
Ntp684
Rp685
(dp686
g7
V263
p687
sg9
VZigzagoon
p688
sg11
VSw,Sh,
p689
sg13
VTrade
p690
sg15
V15
p691
sg17
g691
sg19
V0
p692
sbag1
(g2
g3
Ntp693
Rp694
(dp695
g7
V554
p696
sg9
VDarumaka
p697
sg11
g101
sg13
VTrade
p698
sg15
V15
p699
sg17
g699
sg19
V0
p700
sbag1
(g2
g3
Ntp701
Rp702
(dp703
g7
V618
p704
sg9
VStunfisk
p705
sg11
VSw,Sh,
p706
sg13
VTrade
p707
sg15
V15
p708
sg17
g708
sg19
V0
p709
sba.