(lp0
ccopy_reg
_reconstructor
p1
(c__main__
WildPokemon
p2
c__builtin__
object
p3
Ntp4
Rp5
(dp6
VpDexNo
p7
V039
p8
sVpSpecies
p9
VJigglypuff
p10
sVpGames
p11
VSw,Sh,
p12
sVpArea
p13
VGrass
p14
sVpMinLevel
p15
V13
p16
sVpMaxLevel
p17
V18
p18
sVpRate
p19
V0
p20
sbag1
(g2
g3
Ntp21
Rp22
(dp23
g7
V403
p24
sg9
VShinx
p25
sg11
VSw,Sh,
p26
sg13
VGrass
p27
sg15
V13
p28
sg17
V18
p29
sg19
g20
sbag1
(g2
g3
Ntp30
Rp31
(dp32
g7
V427
p33
sg9
VBuneary
p34
sg11
VSw,Sh,
p35
sg13
VGrass
p36
sg15
V13
p37
sg17
V18
p38
sg19
V30
p39
sbag1
(g2
g3
Ntp40
Rp41
(dp42
g7
V440
p43
sg9
VHappiny
p44
sg11
VSw,Sh,
p45
sg13
VGrass
p46
sg15
V13
p47
sg17
V18
p48
sg19
V10
p49
sbag1
(g2
g3
Ntp50
Rp51
(dp52
g7
V686
p53
sg9
VInkay
p54
sg11
VSw,Sh,
p55
sg13
VGrass
p56
sg15
V13
p57
sg17
V18
p58
sg19
g20
sbag1
(g2
g3
Ntp59
Rp60
(dp61
g7
V753
p62
sg9
VFomantis
p63
sg11
VSw,Sh,
p64
sg13
VGrass
p65
sg15
V13
p66
sg17
V18
p67
sg19
g20
sbag1
(g2
g3
Ntp68
Rp69
(dp70
g7
V824
p71
sg9
VBlipbug
p72
sg11
VSw,Sh,
p73
sg13
VGrass
p74
sg15
V13
p75
sg17
V18
p76
sg19
V30
p77
sbag1
(g2
g3
Ntp78
Rp79
(dp80
g7
V819
p81
sg9
VSkwovet
p82
sg11
VSw,Sh,
p83
sg13
VBerry tree
p84
sg15
V13
p85
sg17
V18
p86
sg19
V70
p87
sbag1
(g2
g3
Ntp88
Rp89
(dp90
g7
V840
p91
sg9
VApplin
p92
sg11
VSw,Sh,
p93
sg13
VBerry tree
p94
sg15
V13
p95
sg17
V18
p96
sg19
V30
p97
sbag1
(g2
g3
Ntp98
Rp99
(dp100
g7
V129
p101
sg9
VMagikarp
p102
sg11
VSw,Sh,
p103
sg13
VFishing
p104
sg15
V13
p105
sg17
V18
p106
sg19
V50
p107
sbag1
(g2
g3
Ntp108
Rp109
(dp110
g7
V746
p111
sg9
VWishiwashi
p112
sg11
VSw,Sh,
p113
sg13
VFishing
p114
sg15
V13
p115
sg17
V18
p116
sg19
V40
p117
sbag1
(g2
g3
Ntp118
Rp119
(dp120
g7
V781
p121
sg9
VDhelmise
p122
sg11
VSw,Sh,
p123
sg13
VFishing
p124
sg15
V13
p125
sg17
V18
p126
sg19
V10
p127
sbag1
(g2
g3
Ntp128
Rp129
(dp130
g7
V054
p131
sg9
VPsyduck
p132
sg11
VSw,Sh,
p133
sg13
VGrass
p134
sg15
V10
p135
sg17
V15
p136
sg19
V32
p137
sbag1
(g2
g3
Ntp138
Rp139
(dp140
g7
V081
p141
sg9
VMagnemite
p142
sg11
VSw,Sh,
p143
sg13
VGrass
p144
sg15
V10
p145
sg17
V15
p146
sg19
g20
sbag1
(g2
g3
Ntp147
Rp148
(dp149
g7
V113
p150
sg9
VChansey
p151
sg11
VSw,Sh,
p152
sg13
VGrass
p153
sg15
V10
p154
sg17
V15
p155
sg19
g20
sbag1
(g2
g3
Ntp156
Rp157
(dp158
g7
V242
p159
sg9
VBlissey
p160
sg11
VSw,Sh,
p161
sg13
VGrass
p162
sg15
V10
p163
sg17
V15
p164
sg19
g20
sbag1
(g2
g3
Ntp165
Rp166
(dp167
g7
V403
p168
sg9
VShinx
p169
sg11
VSw,Sh,
p170
sg13
VGrass
p171
sg15
V10
p172
sg17
V15
p173
sg19
g20
sbag1
(g2
g3
Ntp174
Rp175
(dp176
g7
V686
p177
sg9
VInkay
p178
sg11
VSw,Sh,
p179
sg13
VGrass
p180
sg15
V10
p181
sg17
V15
p182
sg19
g20
sbag1
(g2
g3
Ntp183
Rp184
(dp185
g7
V702
p186
sg9
VDedenne
p187
sg11
VSw,Sh,
p188
sg13
VGrass
p189
sg15
V10
p190
sg17
V15
p191
sg19
V5
p192
sbag1
(g2
g3
Ntp193
Rp194
(dp195
g7
V753
p196
sg9
VFomantis
p197
sg11
VSw,Sh,
p198
sg13
VGrass
p199
sg15
V10
p200
sg17
V15
p201
sg19
g20
sbag1
(g2
g3
Ntp202
Rp203
(dp204
g7
V877
p205
sg9
VMorpeko
p206
sg11
VSw,Sh,
p207
sg13
VGrass
p208
sg15
V10
p209
sg17
V15
p210
sg19
V5
p211
sbag1
(g2
g3
Ntp212
Rp213
(dp214
g7
V120
p215
sg9
VStaryu
p216
sg11
VSw,Sh,
p217
sg13
VGrass
p218
sg15
V10
p219
sg17
V15
p220
sg19
V100
p221
sbag1
(g2
g3
Ntp222
Rp223
(dp224
g7
V341
p225
sg9
VCorphish
p226
sg11
VSw,Sh,
p227
sg13
VSurf
p228
sg15
V40
p229
sg17
V45
p230
sg19
V45
p231
sbag1
(g2
g3
Ntp232
Rp233
(dp234
g7
V845
p235
sg9
VCramorant
p236
sg11
VSw,Sh,
p237
sg13
VSurf
p238
sg15
V40
p239
sg17
V45
p240
sg19
V10
p241
sbag1
(g2
g3
Ntp242
Rp243
(dp244
g7
V846
p245
sg9
VArrokuda
p246
sg11
VSw,Sh,
p247
sg13
VSurf
p248
sg15
V40
p249
sg17
V45
p250
sg19
V45
p251
sbag1
(g2
g3
Ntp252
Rp253
(dp254
g7
V072
p255
sg9
VTentacool
p256
sg11
VSw,Sh,
p257
sg13
VSurf
p258
sg15
V40
p259
sg17
V45
p260
sg19
g20
sbag1
(g2
g3
Ntp261
Rp262
(dp263
g7
V073
p264
sg9
VTentacruel
p265
sg11
VSw,Sh,
p266
sg13
VSurf
p267
sg15
V40
p268
sg17
V45
p269
sg19
g20
sbag1
(g2
g3
Ntp270
Rp271
(dp272
g7
V278
p273
sg9
VWingull
p274
sg11
VSw,Sh,
p275
sg13
VSurf
p276
sg15
V40
p277
sg17
V45
p278
sg19
V50
p279
sbag1
(g2
g3
Ntp280
Rp281
(dp282
g7
V279
p283
sg9
VPelipper
p284
sg11
VSw,Sh,
p285
sg13
VSurf
p286
sg15
V40
p287
sg17
V45
p288
sg19
g20
sbag1
(g2
g3
Ntp289
Rp290
(dp291
g7
V425
p292
sg9
VDrifloon
p293
sg11
VSw,Sh,
p294
sg13
VSurf
p295
sg15
V40
p296
sg17
V45
p297
sg19
g20
sbag1
(g2
g3
Ntp298
Rp299
(dp300
g7
V834
p301
sg9
VDrednaw
p302
sg11
VSw,Sh,
p303
sg13
VWanderer
p304
sg15
V??
p305
sg17
g305
sg19
g20
sbag1
(g2
g3
Ntp306
Rp307
(dp308
g7
V342
p309
sg9
VCrawdaunt
p310
sg11
VSw,Sh,
p311
sg13
VWanderer
p312
sg15
V??
p313
sg17
g313
sg19
g20
sbag1
(g2
g3
Ntp314
Rp315
(dp316
g7
V845
p317
sg9
VCramorant
p318
sg11
VSw,Sh,
p319
sg13
VWanderer
p320
sg15
V??
p321
sg17
g321
sg19
g20
sbag1
(g2
g3
Ntp322
Rp323
(dp324
g7
V342
p325
sg9
VCrawdaunt
p326
sg11
VSw,Sh,
p327
sg13
VWanderer
p328
sg15
V??
p329
sg17
g329
sg19
g20
sbag1
(g2
g3
Ntp330
Rp331
(dp332
g7
V768
p333
sg9
VGolisopod
p334
sg11
VSw,Sh,
p335
sg13
VWanderer
p336
sg15
V??
p337
sg17
g337
sg19
g20
sbag1
(g2
g3
Ntp338
Rp339
(dp340
g7
V845
p341
sg9
VCramorant
p342
sg11
VSw,Sh,
p343
sg13
VWanderer
p344
sg15
V??
p345
sg17
g345
sg19
g20
sbag1
(g2
g3
Ntp346
Rp347
(dp348
g7
V342
p349
sg9
VCrawdaunt
p350
sg11
VSw,Sh,
p351
sg13
VWanderer
p352
sg15
V??
p353
sg17
g353
sg19
g20
sbag1
(g2
g3
Ntp354
Rp355
(dp356
g7
V452
p357
sg9
VDrapion
p358
sg11
VSw,Sh,
p359
sg13
VWanderer
p360
sg15
V??
p361
sg17
g361
sg19
g20
sbag1
(g2
g3
Ntp362
Rp363
(dp364
g7
V877
p365
sg9
VMorpeko
p366
sg11
VSw,Sh,
p367
sg13
VWanderer
p368
sg15
V25
p369
sg17
g369
sg19
g20
sbag1
(g2
g3
Ntp370
Rp371
(dp372
g7
V452
p373
sg9
VDrapion
p374
sg11
VSw,Sh,
p375
sg13
VWanderer
p376
sg15
V??
p377
sg17
g377
sg19
g20
sbag1
(g2
g3
Ntp378
Rp379
(dp380
g7
V452
p381
sg9
VDrapion
p382
sg11
VSw,Sh,
p383
sg13
VWanderer
p384
sg15
V??
p385
sg17
g385
sg19
g20
sbag1
(g2
g3
Ntp386
Rp387
(dp388
g7
V279
p389
sg9
VPelipper
p390
sg11
VSw,Sh,
p391
sg13
VWanderer
p392
sg15
V??
p393
sg17
g393
sg19
g20
sbag1
(g2
g3
Ntp394
Rp395
(dp396
g7
V279
p397
sg9
VPelipper
p398
sg11
VSw,Sh,
p399
sg13
VWanderer
p400
sg15
V??
p401
sg17
g401
sg19
g20
sbag1
(g2
g3
Ntp402
Rp403
(dp404
g7
V748
p405
sg9
VToxapex
p406
sg11
VSw,Sh,
p407
sg13
VWanderer
p408
sg15
V??
p409
sg17
g409
sg19
g20
sbag1
(g2
g3
Ntp410
Rp411
(dp412
g7
V279
p413
sg9
VPelipper
p414
sg11
VSw,Sh,
p415
sg13
VWanderer
p416
sg15
V??
p417
sg17
g417
sg19
g20
sbag1
(g2
g3
Ntp418
Rp419
(dp420
g7
V279
p421
sg9
VPelipper
p422
sg11
VSw,Sh,
p423
sg13
VWanderer
p424
sg15
V??
p425
sg17
g425
sg19
g20
sbag1
(g2
g3
Ntp426
Rp427
(dp428
g7
V877
p429
sg9
VMorpeko
p430
sg11
VSw,Sh,
p431
sg13
VWanderer
p432
sg15
V25
p433
sg17
g433
sg19
g20
sbag1
(g2
g3
Ntp434
Rp435
(dp436
g7
V279
p437
sg9
VPelipper
p438
sg11
VSw,Sh,
p439
sg13
VWanderer
p440
sg15
V??
p441
sg17
g441
sg19
g20
sbag1
(g2
g3
Ntp442
Rp443
(dp444
g7
V121
p445
sg9
VStarmie
p446
sg11
VSw,Sh,
p447
sg13
VWanderer
p448
sg15
V??
p449
sg17
g449
sg19
g20
sbag1
(g2
g3
Ntp450
Rp451
(dp452
g7
V426
p453
sg9
VDrifblim
p454
sg11
VSw,Sh,
p455
sg13
VWanderer
p456
sg15
V??
p457
sg17
g457
sg19
g20
sbag1
(g2
g3
Ntp458
Rp459
(dp460
g7
V528
p461
sg9
VSwoobat
p462
sg11
VSw,Sh,
p463
sg13
VWanderer
p464
sg15
V??
p465
sg17
g465
sg19
g20
sbag1
(g2
g3
Ntp466
Rp467
(dp468
g7
V687
p469
sg9
VMalamar
p470
sg11
VSw,Sh,
p471
sg13
VWanderer
p472
sg15
V??
p473
sg17
g473
sg19
g20
sbag1
(g2
g3
Ntp474
Rp475
(dp476
g7
V452
p477
sg9
VDrapion
p478
sg11
VSw,Sh,
p479
sg13
VWanderer
p480
sg15
V??
p481
sg17
g481
sg19
g20
sbag1
(g2
g3
Ntp482
Rp483
(dp484
g7
V877
p485
sg9
VMorpeko
p486
sg11
VSw,Sh,
p487
sg13
VWanderer
p488
sg15
V25
p489
sg17
g489
sg19
g20
sbag1
(g2
g3
Ntp490
Rp491
(dp492
g7
V687
p493
sg9
VMalamar
p494
sg11
VSw,Sh,
p495
sg13
VWanderer
p496
sg15
V??
p497
sg17
g497
sg19
g20
sbag1
(g2
g3
Ntp498
Rp499
(dp500
g7
V426
p501
sg9
VDrifblim
p502
sg11
VSw,Sh,
p503
sg13
VWanderer
p504
sg15
V??
p505
sg17
g505
sg19
g20
sbag1
(g2
g3
Ntp506
Rp507
(dp508
g7
V452
p509
sg9
VDrapion
p510
sg11
VSw,Sh,
p511
sg13
VWanderer
p512
sg15
V??
p513
sg17
g513
sg19
g20
sbag1
(g2
g3
Ntp514
Rp515
(dp516
g7
V845
p517
sg9
VCramorant
p518
sg11
VSw,Sh,
p519
sg13
VWanderer
p520
sg15
V??
p521
sg17
g521
sg19
g20
sbag1
(g2
g3
Ntp522
Rp523
(dp524
g7
V121
p525
sg9
VStarmie
p526
sg11
VSw,Sh,
p527
sg13
VWanderer
p528
sg15
V??
p529
sg17
g529
sg19
g20
sbag1
(g2
g3
Ntp530
Rp531
(dp532
g7
V279
p533
sg9
VPelipper
p534
sg11
VSw,Sh,
p535
sg13
VWanderer
p536
sg15
V??
p537
sg17
g537
sg19
g20
sbag1
(g2
g3
Ntp538
Rp539
(dp540
g7
V748
p541
sg9
VToxapex
p542
sg11
VSw,Sh,
p543
sg13
VWanderer
p544
sg15
V??
p545
sg17
g545
sg19
g20
sbag1
(g2
g3
Ntp546
Rp547
(dp548
g7
V279
p549
sg9
VPelipper
p550
sg11
VSw,Sh,
p551
sg13
VWanderer
p552
sg15
V??
p553
sg17
g553
sg19
g20
sbag1
(g2
g3
Ntp554
Rp555
(dp556
g7
V279
p557
sg9
VPelipper
p558
sg11
VSw,Sh,
p559
sg13
VWanderer
p560
sg15
V??
p561
sg17
g561
sg19
g20
sbag1
(g2
g3
Ntp562
Rp563
(dp564
g7
V279
p565
sg9
VPelipper
p566
sg11
VSw,Sh,
p567
sg13
VWanderer
p568
sg15
V??
p569
sg17
g569
sg19
g20
sbag1
(g2
g3
Ntp570
Rp571
(dp572
g7
V593
p573
sg9
VJellicent
p574
sg11
VSw,Sh,
p575
sg13
VWanderer
p576
sg15
V42
p577
sg17
g577
sg19
g20
sbag1
(g2
g3
Ntp578
Rp579
(dp580
g7
V130
p581
sg9
VGyarados
p582
sg11
VSw,Sh,
p583
sg13
VWanderer
p584
sg15
V50
p585
sg17
g585
sg19
g20
sbag1
(g2
g3
Ntp586
Rp587
(dp588
g7
V593
p589
sg9
VJellicent
p590
sg11
VSw,Sh,
p591
sg13
VWanderer
p592
sg15
V42
p593
sg17
g593
sg19
g20
sbag1
(g2
g3
Ntp594
Rp595
(dp596
g7
V073
p597
sg9
VTentacruel
p598
sg11
VSw,Sh,
p599
sg13
VWanderer
p600
sg15
V??
p601
sg17
g601
sg19
g20
sbag1
(g2
g3
Ntp602
Rp603
(dp604
g7
V224
p605
sg9
VOctillery
p606
sg11
VSw,Sh,
p607
sg13
VWanderer
p608
sg15
V45
p609
sg17
g609
sg19
g20
sbag1
(g2
g3
Ntp610
Rp611
(dp612
g7
V593
p613
sg9
VJellicent
p614
sg11
VSw,Sh,
p615
sg13
VWanderer
p616
sg15
V42
p617
sg17
g617
sg19
g20
sbag1
(g2
g3
Ntp618
Rp619
(dp620
g7
V593
p621
sg9
VJellicent
p622
sg11
VSw,Sh,
p623
sg13
VWanderer
p624
sg15
V42
p625
sg17
g625
sg19
g20
sbag1
(g2
g3
Ntp626
Rp627
(dp628
g7
V073
p629
sg9
VTentacruel
p630
sg11
VSw,Sh,
p631
sg13
VWanderer
p632
sg15
V??
p633
sg17
g633
sg19
g20
sbag1
(g2
g3
Ntp634
Rp635
(dp636
g7
V593
p637
sg9
VJellicent
p638
sg11
VSw,Sh,
p639
sg13
VWanderer
p640
sg15
V42
p641
sg17
g641
sg19
g20
sbag1
(g2
g3
Ntp642
Rp643
(dp644
g7
V593
p645
sg9
VJellicent
p646
sg11
VSw,Sh,
p647
sg13
VWanderer
p648
sg15
V42
p649
sg17
g649
sg19
g20
sbag1
(g2
g3
Ntp650
Rp651
(dp652
g7
V342
p653
sg9
VCrawdaunt
p654
sg11
VSw,Sh,
p655
sg13
VWanderer
p656
sg15
V??
p657
sg17
g657
sg19
g20
sbag1
(g2
g3
Ntp658
Rp659
(dp660
g7
V847
p661
sg9
VBarraskewda
p662
sg11
VSw,Sh,
p663
sg13
VWanderer
p664
sg15
V42
p665
sg17
g665
sg19
g20
sbag1
(g2
g3
Ntp666
Rp667
(dp668
g7
V342
p669
sg9
VCrawdaunt
p670
sg11
VSw,Sh,
p671
sg13
VWanderer
p672
sg15
V??
p673
sg17
g673
sg19
g20
sbag1
(g2
g3
Ntp674
Rp675
(dp676
g7
V847
p677
sg9
VBarraskewda
p678
sg11
VSw,Sh,
p679
sg13
VWanderer
p680
sg15
V42
p681
sg17
g681
sg19
g20
sbag1
(g2
g3
Ntp682
Rp683
(dp684
g7
V052
p685
sg9
VMeowth
p686
sg11
VSw,Sh,
p687
sg13
VTrade
p688
sg15
V15
p689
sg17
g689
sg19
V0
p690
sbag1
(g2
g3
Ntp691
Rp692
(dp693
g7
V077
p694
sg9
VPonyta
p695
sg11
VSh,
p696
sg13
VTrade
p697
sg15
V15
p698
sg17
g698
sg19
V0
p699
sbag1
(g2
g3
Ntp700
Rp701
(dp702
g7
V083
p703
sg9
VFarfetch'd
p704
sg11
VSw,
p705
sg13
VTrade
p706
sg15
V15
p707
sg17
g707
sg19
V0
p708
sbag1
(g2
g3
Ntp709
Rp710
(dp711
g7
V103
p712
sg9
VExeggutor
p713
sg11
VSw,Sh,
p714
sg13
VTrade
p715
sg15
V15
p716
sg17
g716
sg19
V0
p717
sbag1
(g2
g3
Ntp718
Rp719
(dp720
g7
V105
p721
sg9
VMarowak
p722
sg11
VSw,Sh,
p723
sg13
VTrade
p724
sg15
V15
p725
sg17
g725
sg19
V0
p726
sbag1
(g2
g3
Ntp727
Rp728
(dp729
g7
V110
p730
sg9
VWeezing
p731
sg11
VSw,Sh,
p732
sg13
VTrade
p733
sg15
V15
p734
sg17
g734
sg19
V0
p735
sbag1
(g2
g3
Ntp736
Rp737
(dp738
g7
V122
p739
sg9
VMr. Mime
p740
sg11
VSw,Sh,
p741
sg13
VTrade
p742
sg15
V15
p743
sg17
g743
sg19
V0
p744
sbag1
(g2
g3
Ntp745
Rp746
(dp747
g7
V222
p748
sg9
VCorsola
p749
sg11
g696
sg13
VTrade
p750
sg15
V15
p751
sg17
g751
sg19
V0
p752
sbag1
(g2
g3
Ntp753
Rp754
(dp755
g7
V263
p756
sg9
VZigzagoon
p757
sg11
VSw,Sh,
p758
sg13
VTrade
p759
sg15
V15
p760
sg17
g760
sg19
V0
p761
sbag1
(g2
g3
Ntp762
Rp763
(dp764
g7
V554
p765
sg9
VDarumaka
p766
sg11
g705
sg13
VTrade
p767
sg15
V15
p768
sg17
g768
sg19
V0
p769
sbag1
(g2
g3
Ntp770
Rp771
(dp772
g7
V618
p773
sg9
VStunfisk
p774
sg11
VSw,Sh,
p775
sg13
VTrade
p776
sg15
V15
p777
sg17
g777
sg19
V0
p778
sba.