(lp0
ccopy_reg
_reconstructor
p1
(c__main__
WildPokemon
p2
c__builtin__
object
p3
Ntp4
Rp5
(dp6
VpDexNo
p7
V075
p8
sVpSpecies
p9
VGraveler
p10
sVpGames
p11
VB,W,
p12
sVpArea
p13
VCave
p14
sVpMinLevel
p15
V47
p16
sVpMaxLevel
p17
V49
p18
sVpRate
p19
V20
p20
sbag1
(g2
g3
Ntp21
Rp22
(dp23
g7
V108
p24
sg9
VLickitung
p25
sg11
VB,W,
p26
sg13
VCave
p27
sg15
V49
p28
sg17
V50
p29
sg19
V20
p30
sbag1
(g2
g3
Ntp31
Rp32
(dp33
g7
V302
p34
sg9
VSableye
p35
sg11
VB,W,
p36
sg13
VCave
p37
sg15
V49
p38
sg17
g38
sg19
V10
p39
sbag1
(g2
g3
Ntp40
Rp41
(dp42
g7
V303
p43
sg9
VMawile
p44
sg11
VB,W,
p45
sg13
VCave
p46
sg15
V49
p47
sg17
g47
sg19
V10
p48
sbag1
(g2
g3
Ntp49
Rp50
(dp51
g7
V525
p52
sg9
VBoldore
p53
sg11
VB,W,
p54
sg13
VCave
p55
sg15
V48
p56
sg17
g56
sg19
V20
p57
sbag1
(g2
g3
Ntp58
Rp59
(dp60
g7
V527
p61
sg9
VWoobat
p62
sg11
VB,W,
p63
sg13
VCave
p64
sg15
V47
p65
sg17
g65
sg19
V20
p66
sbag1
(g2
g3
Ntp67
Rp68
(dp69
g7
V075
p70
sg9
VGraveler
p71
sg11
VB,W,
p72
sg13
VCave
p73
sg15
V47
p74
sg17
V49
p75
sg19
V20
p76
sbag1
(g2
g3
Ntp77
Rp78
(dp79
g7
V108
p80
sg9
VLickitung
p81
sg11
VB,W,
p82
sg13
VCave
p83
sg15
V49
p84
sg17
V50
p85
sg19
V15
p86
sbag1
(g2
g3
Ntp87
Rp88
(dp89
g7
V302
p90
sg9
VSableye
p91
sg11
VB,W,
p92
sg13
VCave
p93
sg15
V49
p94
sg17
g94
sg19
V10
p95
sbag1
(g2
g3
Ntp96
Rp97
(dp98
g7
V303
p99
sg9
VMawile
p100
sg11
VB,W,
p101
sg13
VCave
p102
sg15
V49
p103
sg17
g103
sg19
V10
p104
sbag1
(g2
g3
Ntp105
Rp106
(dp107
g7
V447
p108
sg9
VRiolu
p109
sg11
VB,W,
p110
sg13
VCave
p111
sg15
V49
p112
sg17
V50
p113
sg19
V5
p114
sbag1
(g2
g3
Ntp115
Rp116
(dp117
g7
V525
p118
sg9
VBoldore
p119
sg11
VB,W,
p120
sg13
VCave
p121
sg15
V48
p122
sg17
g122
sg19
V20
p123
sbag1
(g2
g3
Ntp124
Rp125
(dp126
g7
V527
p127
sg9
VWoobat
p128
sg11
VB,W,
p129
sg13
VCave
p130
sg15
V47
p131
sg17
g131
sg19
V20
p132
sbag1
(g2
g3
Ntp133
Rp134
(dp135
g7
V530
p136
sg9
VExcadrill
p137
sg11
VB,W,
p138
sg13
VDust
p139
sg15
V47
p140
sg17
V50
p141
sg19
V100
p142
sbag1
(g2
g3
Ntp143
Rp144
(dp145
g7
V550
p146
sg9
VBasculin
p147
sg11
VB,
p148
sg13
VSurf
p149
sg15
V5
p150
sg17
V55
p151
sg19
V100
p152
sbag1
(g2
g3
Ntp153
Rp154
(dp155
g7
V550
p156
sg9
VBasculin
p157
sg11
VW,
p158
sg13
VSurf
p159
sg15
g150
sg17
V55
p160
sg19
V100
p161
sbag1
(g2
g3
Ntp162
Rp163
(dp164
g7
V550
p165
sg9
VBasculin
p166
sg11
g158
sg13
VRippling
p167
sg15
g150
sg17
V70
p168
sg19
V100
p169
sbag1
(g2
g3
Ntp170
Rp171
(dp172
g7
V550
p173
sg9
VBasculin
p174
sg11
g148
sg13
VRippling
p175
sg15
g150
sg17
V70
p176
sg19
V100
p177
sbag1
(g2
g3
Ntp178
Rp179
(dp180
g7
V060
p181
sg9
VPoliwag
p182
sg11
VB,W,
p183
sg13
VFish Super
p184
sg15
V35
p185
sg17
V55
p186
sg19
V60
p187
sbag1
(g2
g3
Ntp188
Rp189
(dp190
g7
V061
p191
sg9
VPoliwhirl
p192
sg11
VB,W,
p193
sg13
VFish Super
p194
sg15
V35
p195
sg17
V55
p196
sg19
V10
p197
sbag1
(g2
g3
Ntp198
Rp199
(dp200
g7
V550
p201
sg9
VBasculin
p202
sg11
g148
sg13
VFish Super
p203
sg15
V35
p204
sg17
V55
p205
sg19
V30
p206
sbag1
(g2
g3
Ntp207
Rp208
(dp209
g7
V550
p210
sg9
VBasculin
p211
sg11
g158
sg13
VFish Super
p212
sg15
V35
p213
sg17
V55
p214
sg19
V30
p215
sbag1
(g2
g3
Ntp216
Rp217
(dp218
g7
V061
p219
sg9
VPoliwhirl
p220
sg11
VB,W,
p221
sg13
VRippling
p222
sg15
V35
p223
sg17
V60
p224
sg19
V65
p225
sbag1
(g2
g3
Ntp226
Rp227
(dp228
g7
V062
p229
sg9
VPoliwrath
p230
sg11
VB,W,
p231
sg13
VRippling
p232
sg15
V35
p233
sg17
V60
p234
sg19
V5
p235
sbag1
(g2
g3
Ntp236
Rp237
(dp238
g7
V550
p239
sg9
VBasculin
p240
sg11
g158
sg13
VRippling
p241
sg15
V35
p242
sg17
V60
p243
sg19
V30
p244
sbag1
(g2
g3
Ntp245
Rp246
(dp247
g7
V550
p248
sg9
VBasculin
p249
sg11
g148
sg13
VRippling
p250
sg15
V35
p251
sg17
V60
p252
sg19
V30
p253
sba.