(lp0
ccopy_reg
_reconstructor
p1
(c__main__
WildPokemon
p2
c__builtin__
object
p3
Ntp4
Rp5
(dp6
VpDexNo
p7
V525
p8
sVpSpecies
p9
VBoldore
p10
sVpGames
p11
VB,W,
p12
sVpArea
p13
VCave
p14
sVpMinLevel
p15
V24
p16
sVpMaxLevel
p17
g16
sVpRate
p18
V10
p19
sbag1
(g2
g3
Ntp20
Rp21
(dp22
g7
V595
p23
sg9
VJoltik
p24
sg11
VB,W,
p25
sg13
VCave
p26
sg15
V24
p27
sg17
V27
p28
sg18
V39
p29
sbag1
(g2
g3
Ntp30
Rp31
(dp32
g7
V597
p33
sg9
VFerroseed
p34
sg11
VB,W,
p35
sg13
VCave
p36
sg15
V24
p37
sg17
V26
p38
sg18
V20
p39
sbag1
(g2
g3
Ntp40
Rp41
(dp42
g7
V599
p43
sg9
VKlink
p44
sg11
VB,W,
p45
sg13
VCave
p46
sg15
V25
p47
sg17
V27
p48
sg18
V29
p49
sbag1
(g2
g3
Ntp50
Rp51
(dp52
g7
V602
p53
sg9
VTynamo
p54
sg11
VB,W,
p55
sg13
VCave
p56
sg15
V27
p57
sg17
g57
sg18
V2
p58
sbag1
(g2
g3
Ntp59
Rp60
(dp61
g7
V525
p62
sg9
VBoldore
p63
sg11
VB,W,
p64
sg13
VCave
p65
sg15
V24
p66
sg17
g66
sg18
V10
p67
sbag1
(g2
g3
Ntp68
Rp69
(dp70
g7
V595
p71
sg9
VJoltik
p72
sg11
VB,W,
p73
sg13
VCave
p74
sg15
V24
p75
sg17
V27
p76
sg18
V36
p77
sbag1
(g2
g3
Ntp78
Rp79
(dp80
g7
V597
p81
sg9
VFerroseed
p82
sg11
VB,W,
p83
sg13
VCave
p84
sg15
V26
p85
sg17
V27
p86
sg18
V20
p87
sbag1
(g2
g3
Ntp88
Rp89
(dp90
g7
V599
p91
sg9
VKlink
p92
sg11
VB,W,
p93
sg13
VCave
p94
sg15
V25
p95
sg17
V27
p96
sg18
V26
p97
sbag1
(g2
g3
Ntp98
Rp99
(dp100
g7
V602
p101
sg9
VTynamo
p102
sg11
VB,W,
p103
sg13
VCave
p104
sg15
V27
p105
sg17
g105
sg18
V8
p106
sbag1
(g2
g3
Ntp107
Rp108
(dp109
g7
V529
p110
sg9
VDrilbur
p111
sg11
VB,W,
p112
sg13
VDust
p113
sg15
V24
p114
sg17
V27
p115
sg18
V100
p116
sbag1
(g2
g3
Ntp117
Rp118
(dp119
g7
V299
p120
sg9
VNosepass
p121
sg11
VB2,W2,
p122
sg13
VCave
p123
sg15
V27
p124
sg17
g124
sg18
V10
p125
sbag1
(g2
g3
Ntp126
Rp127
(dp128
g7
V525
p129
sg9
VBoldore
p130
sg11
VB2,W2,
p131
sg13
VCave
p132
sg15
V25
p133
sg17
g133
sg18
V5
p134
sbag1
(g2
g3
Ntp135
Rp136
(dp137
g7
V595
p138
sg9
VJoltik
p139
sg11
VB2,W2,
p140
sg13
VCave
p141
sg15
V25
p142
sg17
V28
p143
sg18
V39
p144
sbag1
(g2
g3
Ntp145
Rp146
(dp147
g7
V597
p148
sg9
VFerroseed
p149
sg11
VB2,W2,
p150
sg13
VCave
p151
sg15
V26
p152
sg17
V27
p153
sg18
V20
p154
sbag1
(g2
g3
Ntp155
Rp156
(dp157
g7
V599
p158
sg9
VKlink
p159
sg11
VB2,W2,
p160
sg13
VCave
p161
sg15
V26
p162
sg17
V28
p163
sg18
V24
p164
sbag1
(g2
g3
Ntp165
Rp166
(dp167
g7
V602
p168
sg9
VTynamo
p169
sg11
VB2,W2,
p170
sg13
VCave
p171
sg15
V28
p172
sg17
g172
sg18
V2
p173
sbag1
(g2
g3
Ntp174
Rp175
(dp176
g7
V299
p177
sg9
VNosepass
p178
sg11
VB2,W2,
p179
sg13
VCave
p180
sg15
V30
p181
sg17
g181
sg18
V10
p182
sbag1
(g2
g3
Ntp183
Rp184
(dp185
g7
V525
p186
sg9
VBoldore
p187
sg11
VB2,W2,
p188
sg13
VCave
p189
sg15
V28
p190
sg17
g190
sg18
V5
p191
sbag1
(g2
g3
Ntp192
Rp193
(dp194
g7
V595
p195
sg9
VJoltik
p196
sg11
VB2,W2,
p197
sg13
VCave
p198
sg15
V28
p199
sg17
V31
p200
sg18
V39
p201
sbag1
(g2
g3
Ntp202
Rp203
(dp204
g7
V597
p205
sg9
VFerroseed
p206
sg11
VB2,W2,
p207
sg13
VCave
p208
sg15
V29
p209
sg17
V30
p210
sg18
V20
p211
sbag1
(g2
g3
Ntp212
Rp213
(dp214
g7
V599
p215
sg9
VKlink
p216
sg11
VB2,W2,
p217
sg13
VCave
p218
sg15
V29
p219
sg17
V31
p220
sg18
V24
p221
sbag1
(g2
g3
Ntp222
Rp223
(dp224
g7
V602
p225
sg9
VTynamo
p226
sg11
VB2,W2,
p227
sg13
VCave
p228
sg15
V31
p229
sg17
g229
sg18
V2
p230
sbag1
(g2
g3
Ntp231
Rp232
(dp233
g7
V299
p234
sg9
VNosepass
p235
sg11
VB2,W2,
p236
sg13
VCave
p237
sg15
V30
p238
sg17
g238
sg18
V10
p239
sbag1
(g2
g3
Ntp240
Rp241
(dp242
g7
V525
p243
sg9
VBoldore
p244
sg11
VB2,W2,
p245
sg13
VCave
p246
sg15
V28
p247
sg17
g247
sg18
V5
p248
sbag1
(g2
g3
Ntp249
Rp250
(dp251
g7
V595
p252
sg9
VJoltik
p253
sg11
VB2,W2,
p254
sg13
VCave
p255
sg15
V28
p256
sg17
V31
p257
sg18
V36
p258
sbag1
(g2
g3
Ntp259
Rp260
(dp261
g7
V597
p262
sg9
VFerroseed
p263
sg11
VB2,W2,
p264
sg13
VCave
p265
sg15
V30
p266
sg17
V31
p267
sg18
V20
p268
sbag1
(g2
g3
Ntp269
Rp270
(dp271
g7
V599
p272
sg9
VKlink
p273
sg11
VB2,W2,
p274
sg13
VCave
p275
sg15
V29
p276
sg17
V31
p277
sg18
V21
p278
sbag1
(g2
g3
Ntp279
Rp280
(dp281
g7
V602
p282
sg9
VTynamo
p283
sg11
VB2,W2,
p284
sg13
VCave
p285
sg15
V31
p286
sg17
g286
sg18
V8
p287
sbag1
(g2
g3
Ntp288
Rp289
(dp290
g7
V529
p291
sg9
VDrilbur
p292
sg11
VB2,W2,
p293
sg13
VDust
p294
sg15
V25
p295
sg17
V31
p296
sg18
V100
p297
sbag1
(g2
g3
Ntp298
Rp299
(dp300
g7
V525
p301
sg9
VBoldore
p302
sg11
VB2,W2,
p303
sg13
VSpecial
p304
sg15
V28
p305
sg17
g305
sg18
V0
p306
sbag1
(g2
g3
Ntp307
Rp308
(dp309
g7
V595
p310
sg9
VJoltik
p311
sg11
VB2,W2,
p312
sg13
VSpecial
p313
sg15
V28
p314
sg17
g314
sg18
V0
p315
sbag1
(g2
g3
Ntp316
Rp317
(dp318
g7
V597
p319
sg9
VFerroseed
p320
sg11
VB2,W2,
p321
sg13
VSpecial
p322
sg15
V28
p323
sg17
g323
sg18
V0
p324
sbag1
(g2
g3
Ntp325
Rp326
(dp327
g7
V599
p328
sg9
VKlink
p329
sg11
VB2,W2,
p330
sg13
VSpecial
p331
sg15
V28
p332
sg17
g332
sg18
V0
p333
sba.