(lp0
ccopy_reg
_reconstructor
p1
(c__main__
WildPokemon
p2
c__builtin__
object
p3
Ntp4
Rp5
(dp6
VpDexNo
p7
V072
p8
sVpSpecies
p9
VTentacool
p10
sVpGames
p11
VG,S,C,
p12
sVpArea
p13
VSurf
p14
sVpMinLevel
p15
V20
p16
sVpMaxLevel
p17
V24
p18
sVpRate
p19
V60
p20
sbag1
(g2
g3
Ntp21
Rp22
(dp23
g7
V072
p24
sg9
VTentacool
p25
sg11
VG,S,C,
p26
sg13
VSurf
p27
sg15
V15
p28
sg17
V19
p29
sg19
V30
p30
sbag1
(g2
g3
Ntp31
Rp32
(dp33
g7
V073
p34
sg9
VTentacruel
p35
sg11
VG,S,C,
p36
sg13
VSurf
p37
sg15
V20
p38
sg17
V40
p39
sg19
V10
p40
sbag1
(g2
g3
Ntp41
Rp42
(dp43
g7
V098
p44
sg9
VKrabby
p45
sg11
VG,S,C,
p46
sg13
VFish Old
p47
sg15
V10
p48
sg17
g48
sg19
V15
p49
sbag1
(g2
g3
Ntp50
Rp51
(dp52
g7
V129
p53
sg9
VMagikarp
p54
sg11
VG,S,C,
p55
sg13
VFish Old
p56
sg15
V10
p57
sg17
g57
sg19
V85
p58
sbag1
(g2
g3
Ntp59
Rp60
(dp61
g7
V098
p62
sg9
VKrabby
p63
sg11
VG,S,C,
p64
sg13
VFish Good
p65
sg15
V20
p66
sg17
g66
sg19
V55
p67
sbag1
(g2
g3
Ntp68
Rp69
(dp70
g7
V120
p71
sg9
VStaryu
p72
sg11
VG,S,C,
p73
sg13
VFish Good
p74
sg15
V20
p75
sg17
g75
sg19
V10
p76
sbag1
(g2
g3
Ntp77
Rp78
(dp79
g7
V129
p80
sg9
VMagikarp
p81
sg11
VG,S,C,
p82
sg13
VFish Good
p83
sg15
V20
p84
sg17
g84
sg19
V35
p85
sbag1
(g2
g3
Ntp86
Rp87
(dp88
g7
V222
p89
sg9
VCorsola
p90
sg11
VG,S,C,
p91
sg13
VFish Good
p92
sg15
V20
p93
sg17
g93
sg19
V10
p94
sbag1
(g2
g3
Ntp95
Rp96
(dp97
g7
V098
p98
sg9
VKrabby
p99
sg11
VG,S,C,
p100
sg13
VFish Super
p101
sg15
V40
p102
sg17
g102
sg19
V60
p103
sbag1
(g2
g3
Ntp104
Rp105
(dp106
g7
V099
p107
sg9
VKingler
p108
sg11
VG,S,C,
p109
sg13
VFish Super
p110
sg15
V40
p111
sg17
g111
sg19
V10
p112
sbag1
(g2
g3
Ntp113
Rp114
(dp115
g7
V120
p116
sg9
VStaryu
p117
sg11
VG,S,C,
p118
sg13
VFish Super
p119
sg15
V40
p120
sg17
g120
sg19
V30
p121
sbag1
(g2
g3
Ntp122
Rp123
(dp124
g7
V222
p125
sg9
VCorsola
p126
sg11
VG,S,C,
p127
sg13
VFish Super
p128
sg15
V40
p129
sg17
g129
sg19
V30
p130
sbag1
(g2
g3
Ntp131
Rp132
(dp133
g7
V072
p134
sg9
VTentacool
p135
sg11
VHG,SS,
p136
sg13
VSurf
p137
sg15
V10
p138
sg17
V25
p139
sg19
V90
p140
sbag1
(g2
g3
Ntp141
Rp142
(dp143
g7
V073
p144
sg9
VTentacruel
p145
sg11
VHG,SS,
p146
sg13
VSurf
p147
sg15
V15
p148
sg17
V25
p149
sg19
V10
p150
sbag1
(g2
g3
Ntp151
Rp152
(dp153
g7
V098
p154
sg9
VKrabby
p155
sg11
VHG,SS,
p156
sg13
VFish Old
p157
sg15
V10
p158
sg17
g158
sg19
V15
p159
sbag1
(g2
g3
Ntp160
Rp161
(dp162
g7
V129
p163
sg9
VMagikarp
p164
sg11
VHG,SS,
p165
sg13
VFish Old
p166
sg15
V10
p167
sg17
g167
sg19
V85
p168
sbag1
(g2
g3
Ntp169
Rp170
(dp171
g7
V098
p172
sg9
VKrabby
p173
sg11
VHG,SS,
p174
sg13
VFish Good
p175
sg15
V20
p176
sg17
g176
sg19
V50
p177
sbag1
(g2
g3
Ntp178
Rp179
(dp180
g7
V120
p181
sg9
VStaryu
p182
sg11
VHG,SS,
p183
sg13
VFish Good
p184
sg15
V20
p185
sg17
g185
sg19
V10
p186
sbag1
(g2
g3
Ntp187
Rp188
(dp189
g7
V129
p190
sg9
VMagikarp
p191
sg11
VHG,SS,
p192
sg13
VFish Good
p193
sg15
V20
p194
sg17
g194
sg19
V40
p195
sbag1
(g2
g3
Ntp196
Rp197
(dp198
g7
V222
p199
sg9
VCorsola
p200
sg11
VHG,SS,
p201
sg13
VFish Good
p202
sg15
V20
p203
sg17
g203
sg19
V10
p204
sbag1
(g2
g3
Ntp205
Rp206
(dp207
g7
V098
p208
sg9
VKrabby
p209
sg11
VHG,SS,
p210
sg13
VFish Super
p211
sg15
V40
p212
sg17
g212
sg19
V60
p213
sbag1
(g2
g3
Ntp214
Rp215
(dp216
g7
V099
p217
sg9
VKingler
p218
sg11
VHG,SS,
p219
sg13
VFish Super
p220
sg15
V40
p221
sg17
g221
sg19
V10
p222
sbag1
(g2
g3
Ntp223
Rp224
(dp225
g7
V120
p226
sg9
VStaryu
p227
sg11
VHG,SS,
p228
sg13
VFish Super
p229
sg15
V40
p230
sg17
g230
sg19
V30
p231
sbag1
(g2
g3
Ntp232
Rp233
(dp234
g7
V222
p235
sg9
VCorsola
p236
sg11
VHG,SS,
p237
sg13
VFish Super
p238
sg15
V40
p239
sg17
g239
sg19
V30
p240
sbag1
(g2
g3
Ntp241
Rp242
(dp243
g7
V102
p244
sg9
VExeggcute
p245
sg11
VHG,SS,
p246
sg13
VHeadbutt
p247
sg15
V2
p248
sg17
V3
p249
sg19
V20
p250
sbag1
(g2
g3
Ntp251
Rp252
(dp253
g7
V163
p254
sg9
VHoothoot
p255
sg11
VHG,SS,
p256
sg13
VHeadbutt
p257
sg15
g248
sg17
g249
sg19
V50
p258
sbag1
(g2
g3
Ntp259
Rp260
(dp261
g7
V204
p262
sg9
VPineco
p263
sg11
VHG,SS,
p264
sg13
VHeadbutt
p265
sg15
g248
sg17
g249
sg19
V30
p266
sbag1
(g2
g3
Ntp267
Rp268
(dp269
g7
V102
p270
sg9
VExeggcute
p271
sg11
VHG,SS,
p272
sg13
VHeadbutt
p273
sg15
V4
p274
sg17
V5
p275
sg19
V20
p276
sbag1
(g2
g3
Ntp277
Rp278
(dp279
g7
V163
p280
sg9
VHoothoot
p281
sg11
VHG,SS,
p282
sg13
VHeadbutt
p283
sg15
g274
sg17
g275
sg19
V50
p284
sbag1
(g2
g3
Ntp285
Rp286
(dp287
g7
V165
p288
sg9
VLedyba
p289
sg11
VSS,
p290
sg13
VHeadbutt
p291
sg15
g274
sg17
g275
sg19
V30
p292
sbag1
(g2
g3
Ntp293
Rp294
(dp295
g7
V167
p296
sg9
VSpinarak
p297
sg11
VHG,
p298
sg13
VHeadbutt
p299
sg15
g274
sg17
g275
sg19
V30
p300
sbag1
(g2
g3
Ntp301
Rp302
(dp303
g7
V102
p304
sg9
VExeggcute
p305
sg11
VHG,SS,
p306
sg13
VHeadbutt
p307
sg15
V18
p308
sg17
V20
p309
sg19
V65
p310
sbag1
(g2
g3
Ntp311
Rp312
(dp313
g7
V276
p314
sg9
VTaillow
p315
sg11
VHG,SS,
p316
sg13
VHeadbutt
p317
sg15
V18
p318
sg17
V25
p319
sg19
V35
p320
sba.