(lp0
ccopy_reg
_reconstructor
p1
(c__main__
WildPokemon
p2
c__builtin__
object
p3
Ntp4
Rp5
(dp6
VpDexNo
p7
V129
p8
sVpSpecies
p9
VMagikarp
p10
sVpGames
p11
VR,B,Y,
p12
sVpArea
p13
VFish Old
p14
sVpMinLevel
p15
V5
p16
sVpMaxLevel
p17
g16
sVpRate
p18
V100
p19
sbag1
(g2
g3
Ntp20
Rp21
(dp22
g7
V060
p23
sg9
VPoliwag
p24
sg11
VR,B,Y,
p25
sg13
VFish Good
p26
sg15
V10
p27
sg17
g27
sg18
V50
p28
sbag1
(g2
g3
Ntp29
Rp30
(dp31
g7
V072
p32
sg9
VTentacool
p33
sg11
VY,
p34
sg13
VFish Super
p35
sg15
V15
p36
sg17
V30
p37
sg18
V40
p38
sbag1
(g2
g3
Ntp39
Rp40
(dp41
g7
V090
p42
sg9
VShellder
p43
sg11
VR,B,
p44
sg13
VFish Super
p45
sg15
V15
p46
sg17
g46
sg18
V25
p47
sbag1
(g2
g3
Ntp48
Rp49
(dp50
g7
V116
p51
sg9
VHorsea
p52
sg11
VR,B,
p53
sg13
VFish Super
p54
sg15
V15
p55
sg17
g55
sg18
V25
p56
sbag1
(g2
g3
Ntp57
Rp58
(dp59
g7
V118
p60
sg9
VGoldeen
p61
sg11
VR,B,
p62
sg13
VFish Super
p63
sg15
V15
p64
sg17
g64
sg18
V25
p65
sbag1
(g2
g3
Ntp66
Rp67
(dp68
g7
V120
p69
sg9
VStaryu
p70
sg11
VR,B,
p71
sg13
VFish Super
p72
sg15
V15
p73
sg17
g73
sg18
V25
p74
sbag1
(g2
g3
Ntp75
Rp76
(dp77
g7
V120
p78
sg9
VStaryu
p79
sg11
g34
sg13
VFish Super
p80
sg15
V10
p81
sg17
V15
p82
sg18
V60
p83
sbag1
(g2
g3
Ntp84
Rp85
(dp86
g7
V072
p87
sg9
VTentacool
p88
sg11
VG,S,C,
p89
sg13
VSurf
p90
sg15
V30
p91
sg17
V39
p92
sg18
V90
p93
sbag1
(g2
g3
Ntp94
Rp95
(dp96
g7
V073
p97
sg9
VTentacruel
p98
sg11
VG,S,C,
p99
sg13
VSurf
p100
sg15
V35
p101
sg17
V39
p102
sg18
V10
p103
sbag1
(g2
g3
Ntp104
Rp105
(dp106
g7
V129
p107
sg9
VMagikarp
p108
sg11
VG,S,C,
p109
sg13
VFish Old
p110
sg15
V10
p111
sg17
g111
sg18
V85
p112
sbag1
(g2
g3
Ntp113
Rp114
(dp115
g7
V072
p116
sg9
VTentacool
p117
sg11
VG,S,C,
p118
sg13
VFish Old
p119
sg15
V10
p120
sg17
g120
sg18
V15
p121
sbag1
(g2
g3
Ntp122
Rp123
(dp124
g7
V072
p125
sg9
VTentacool
p126
sg11
VG,S,C,
p127
sg13
VFish Good
p128
sg15
V20
p129
sg17
g129
sg18
V35
p130
sbag1
(g2
g3
Ntp131
Rp132
(dp133
g7
V129
p134
sg9
VMagikarp
p135
sg11
VG,S,C,
p136
sg13
VFish Good
p137
sg15
V20
p138
sg17
g138
sg18
V35
p139
sbag1
(g2
g3
Ntp140
Rp141
(dp142
g7
V170
p143
sg9
VChinchou
p144
sg11
VG,S,C,
p145
sg13
VFish Good
p146
sg15
V20
p147
sg17
g147
sg18
V20
p148
sbag1
(g2
g3
Ntp149
Rp150
(dp151
g7
V090
p152
sg9
VShellder
p153
sg11
VG,S,C,
p154
sg13
VFish Good
p155
sg15
V20
p156
sg17
g156
sg18
V10
p157
sbag1
(g2
g3
Ntp158
Rp159
(dp160
g7
V170
p161
sg9
VChinchou
p162
sg11
VG,S,C,
p163
sg13
VFish Super
p164
sg15
V40
p165
sg17
g165
sg18
V40
p166
sbag1
(g2
g3
Ntp167
Rp168
(dp169
g7
V090
p170
sg9
VShellder
p171
sg11
VG,S,C,
p172
sg13
VFish Super
p173
sg15
V40
p174
sg17
g174
sg18
V30
p175
sbag1
(g2
g3
Ntp176
Rp177
(dp178
g7
V073
p179
sg9
VTentacruel
p180
sg11
VG,S,C,
p181
sg13
VFish Super
p182
sg15
V40
p183
sg17
g183
sg18
V20
p184
sbag1
(g2
g3
Ntp185
Rp186
(dp187
g7
V171
p188
sg9
VLanturn
p189
sg11
VG,S,C,
p190
sg13
VFish Super
p191
sg15
V40
p192
sg17
g192
sg18
V10
p193
sbag1
(g2
g3
Ntp194
Rp195
(dp196
g7
V072
p197
sg9
VTentacool
p198
sg11
VFR,LG,
p199
sg13
VSurf
p200
sg15
g16
sg17
V40
p201
sg18
V100
p202
sbag1
(g2
g3
Ntp203
Rp204
(dp205
g7
V129
p206
sg9
VMagikarp
p207
sg11
VFR,LG,
p208
sg13
VFish Old
p209
sg15
g16
sg17
g16
sg18
V100
p210
sbag1
(g2
g3
Ntp211
Rp212
(dp213
g7
V116
p214
sg9
VHorsea
p215
sg11
VFR,
p216
sg13
VFish Good
p217
sg15
g16
sg17
V15
p218
sg18
V60
p219
sbag1
(g2
g3
Ntp220
Rp221
(dp222
g7
V116
p223
sg9
VHorsea
p224
sg11
VLG,
p225
sg13
VFish Good
p226
sg15
g16
sg17
V15
p227
sg18
V20
p228
sbag1
(g2
g3
Ntp229
Rp230
(dp231
g7
V098
p232
sg9
VKrabby
p233
sg11
g216
sg13
VFish Good
p234
sg15
g16
sg17
V15
p235
sg18
V20
p236
sbag1
(g2
g3
Ntp237
Rp238
(dp239
g7
V098
p240
sg9
VKrabby
p241
sg11
g225
sg13
VFish Good
p242
sg15
g16
sg17
V15
p243
sg18
V60
p244
sbag1
(g2
g3
Ntp245
Rp246
(dp247
g7
V129
p248
sg9
VMagikarp
p249
sg11
VFR,LG,
p250
sg13
VFish Good
p251
sg15
g16
sg17
V15
p252
sg18
V20
p253
sbag1
(g2
g3
Ntp254
Rp255
(dp256
g7
V090
p257
sg9
VShellder
p258
sg11
g216
sg13
VFish Super
p259
sg15
V15
p260
sg17
V25
p261
sg18
V40
p262
sbag1
(g2
g3
Ntp263
Rp264
(dp265
g7
V116
p266
sg9
VHorsea
p267
sg11
g216
sg13
VFish Super
p268
sg15
V15
p269
sg17
V25
p270
sg18
V40
p271
sbag1
(g2
g3
Ntp272
Rp273
(dp274
g7
V098
p275
sg9
VKrabby
p276
sg11
g225
sg13
VFish Super
p277
sg15
V15
p278
sg17
V25
p279
sg18
V40
p280
sbag1
(g2
g3
Ntp281
Rp282
(dp283
g7
V120
p284
sg9
VStaryu
p285
sg11
g225
sg13
VFish Super
p286
sg15
V15
p287
sg17
V25
p288
sg18
V40
p289
sbag1
(g2
g3
Ntp290
Rp291
(dp292
g7
V130
p293
sg9
VGyarados
p294
sg11
VFR,LG,
p295
sg13
VFish Super
p296
sg15
V15
p297
sg17
V25
p298
sg18
V15
p299
sbag1
(g2
g3
Ntp300
Rp301
(dp302
g7
V117
p303
sg9
VSeadra
p304
sg11
g216
sg13
VFish Super
p305
sg15
V25
p306
sg17
V35
p307
sg18
V4
p308
sbag1
(g2
g3
Ntp309
Rp310
(dp311
g7
V080
p312
sg9
VSlowbro
p313
sg11
g225
sg13
VFish Super
p314
sg15
V25
p315
sg17
V35
p316
sg18
V4
p317
sbag1
(g2
g3
Ntp318
Rp319
(dp320
g7
V054
p321
sg9
VPsyduck
p322
sg11
g216
sg13
VFish Super
p323
sg15
V25
p324
sg17
V35
p325
sg18
V1
p326
sbag1
(g2
g3
Ntp327
Rp328
(dp329
g7
V079
p330
sg9
VSlowpoke
p331
sg11
g225
sg13
VFish Super
p332
sg15
V25
p333
sg17
V35
p334
sg18
V1
p335
sbag1
(g2
g3
Ntp336
Rp337
(dp338
g7
V072
p339
sg9
VTentacool
p340
sg11
VHG,SS,
p341
sg13
VSurf
p342
sg15
V30
p343
sg17
V35
p344
sg18
V90
p345
sbag1
(g2
g3
Ntp346
Rp347
(dp348
g7
V073
p349
sg9
VTentacruel
p350
sg11
VHG,SS,
p351
sg13
VSurf
p352
sg15
V35
p353
sg17
g353
sg18
V10
p354
sbag1
(g2
g3
Ntp355
Rp356
(dp357
g7
V129
p358
sg9
VMagikarp
p359
sg11
VHG,SS,
p360
sg13
VFish Old
p361
sg15
V10
p362
sg17
g362
sg18
V95
p363
sbag1
(g2
g3
Ntp364
Rp365
(dp366
g7
V072
p367
sg9
VTentacool
p368
sg11
VHG,SS,
p369
sg13
VFish Old
p370
sg15
V10
p371
sg17
g371
sg18
V5
p372
sbag1
(g2
g3
Ntp373
Rp374
(dp375
g7
V129
p376
sg9
VMagikarp
p377
sg11
VHG,SS,
p378
sg13
VFish Good
p379
sg15
V20
p380
sg17
g380
sg18
V60
p381
sbag1
(g2
g3
Ntp382
Rp383
(dp384
g7
V072
p385
sg9
VTentacool
p386
sg11
VHG,SS,
p387
sg13
VFish Good
p388
sg15
V20
p389
sg17
g389
sg18
V30
p390
sbag1
(g2
g3
Ntp391
Rp392
(dp393
g7
V170
p394
sg9
VChinchou
p395
sg11
VHG,SS,
p396
sg13
VFish Good
p397
sg15
V20
p398
sg17
g398
sg18
V7
p399
sbag1
(g2
g3
Ntp400
Rp401
(dp402
g7
V090
p403
sg9
VShellder
p404
sg11
VHG,SS,
p405
sg13
VFish Good
p406
sg15
V20
p407
sg17
g407
sg18
V3
p408
sbag1
(g2
g3
Ntp409
Rp410
(dp411
g7
V170
p412
sg9
VChinchou
p413
sg11
VHG,SS,
p414
sg13
VFish Super
p415
sg15
V40
p416
sg17
g416
sg18
V60
p417
sbag1
(g2
g3
Ntp418
Rp419
(dp420
g7
V090
p421
sg9
VShellder
p422
sg11
VHG,SS,
p423
sg13
VFish Super
p424
sg15
V40
p425
sg17
g425
sg18
V30
p426
sbag1
(g2
g3
Ntp427
Rp428
(dp429
g7
V073
p430
sg9
VTentacruel
p431
sg11
VHG,SS,
p432
sg13
VFish Super
p433
sg15
V40
p434
sg17
g434
sg18
V7
p435
sbag1
(g2
g3
Ntp436
Rp437
(dp438
g7
V171
p439
sg9
VLanturn
p440
sg11
VHG,SS,
p441
sg13
VFish Super
p442
sg15
V40
p443
sg17
g443
sg18
V3
p444
sbag1
(g2
g3
Ntp445
Rp446
(dp447
g7
V016
p448
sg9
VPidgey
p449
sg11
VPi,Ev,
p450
sg13
VSky
p451
sg15
V3
p452
sg17
V56
p453
sg18
V60
p454
sbag1
(g2
g3
Ntp455
Rp456
(dp457
g7
V017
p458
sg9
VPidgeotto
p459
sg11
VPi,Ev,
p460
sg13
VSky
p461
sg15
g452
sg17
V56
p462
sg18
V35
p463
sbag1
(g2
g3
Ntp464
Rp465
(dp466
g7
V018
p467
sg9
VPidgeot
p468
sg11
VPi,Ev,
p469
sg13
VSky
p470
sg15
g452
sg17
V56
p471
sg18
V5
p472
sbag1
(g2
g3
Ntp473
Rp474
(dp475
g7
V052
p476
sg9
VMeowth
p477
sg11
VEv,
p478
sg13
VTrade
p479
sg15
V44
p480
sg17
g480
sg18
V0
p481
sbag1
(g2
g3
Ntp482
Rp483
(dp484
g7
V088
p485
sg9
VGrimer
p486
sg11
VPi,
p487
sg13
VTrade
p488
sg15
V44
p489
sg17
g489
sg18
V0
p490
sba.