(lp0
ccopy_reg
_reconstructor
p1
(c__main__
WildPokemon
p2
c__builtin__
object
p3
Ntp4
Rp5
(dp6
VpDexNo
p7
V095
p8
sVpSpecies
p9
VOnix
p10
sVpGames
p11
VB2,W2,
p12
sVpArea
p13
VCave
p14
sVpMinLevel
p15
V57
p16
sVpMaxLevel
p17
g16
sVpRate
p18
V5
p19
sbag1
(g2
g3
Ntp20
Rp21
(dp22
g7
V299
p23
sg9
VNosepass
p24
sg11
VB2,W2,
p25
sg13
VCave
p26
sg15
V55
p27
sg17
V57
p28
sg18
V15
p29
sbag1
(g2
g3
Ntp30
Rp31
(dp32
g7
V305
p33
sg9
VLairon
p34
sg11
VB2,W2,
p35
sg13
VCave
p36
sg15
V55
p37
sg17
V57
p38
sg18
V15
p39
sbag1
(g2
g3
Ntp40
Rp41
(dp42
g7
V525
p43
sg9
VBoldore
p44
sg11
VB2,W2,
p45
sg13
VCave
p46
sg15
V54
p47
sg17
V56
p48
sg18
V35
p49
sbag1
(g2
g3
Ntp50
Rp51
(dp52
g7
V527
p53
sg9
VWoobat
p54
sg11
VB2,W2,
p55
sg13
VCave
p56
sg15
V54
p57
sg17
g57
sg18
V10
p58
sbag1
(g2
g3
Ntp59
Rp60
(dp61
g7
V632
p62
sg9
VDurant
p63
sg11
VB2,W2,
p64
sg13
VCave
p65
sg15
V54
p66
sg17
g66
sg18
V20
p67
sbag1
(g2
g3
Ntp68
Rp69
(dp70
g7
V095
p71
sg9
VOnix
p72
sg11
VB2,W2,
p73
sg13
VDust
p74
sg15
V54
p75
sg17
g75
sg18
V20
p76
sbag1
(g2
g3
Ntp77
Rp78
(dp79
g7
V208
p80
sg9
VSteelix
p81
sg11
VB2,W2,
p82
sg13
VDust
p83
sg15
V57
p84
sg17
g84
sg18
V5
p85
sbag1
(g2
g3
Ntp86
Rp87
(dp88
g7
V530
p89
sg9
VExcadrill
p90
sg11
VB2,W2,
p91
sg13
VDust
p92
sg15
V54
p93
sg17
V57
p94
sg18
V75
p95
sbag1
(g2
g3
Ntp96
Rp97
(dp98
g7
V550
p99
sg9
VBasculin
p100
sg11
VB2,
p101
sg13
VSurf
p102
sg15
V45
p103
sg17
V60
p104
sg18
V100
p105
sbag1
(g2
g3
Ntp106
Rp107
(dp108
g7
V550
p109
sg9
VBasculin
p110
sg11
VW2,
p111
sg13
VSurf
p112
sg15
V45
p113
sg17
V60
p114
sg18
V100
p115
sbag1
(g2
g3
Ntp116
Rp117
(dp118
g7
V550
p119
sg9
VBasculin
p120
sg11
g101
sg13
VRippling
p121
sg15
V45
p122
sg17
V60
p123
sg18
V100
p124
sbag1
(g2
g3
Ntp125
Rp126
(dp127
g7
V550
p128
sg9
VBasculin
p129
sg11
g111
sg13
VRippling
p130
sg15
V45
p131
sg17
V60
p132
sg18
V100
p133
sbag1
(g2
g3
Ntp134
Rp135
(dp136
g7
V060
p137
sg9
VPoliwag
p138
sg11
VB2,W2,
p139
sg13
VFish Super
p140
sg15
V50
p141
sg17
V70
p142
sg18
V70
p143
sbag1
(g2
g3
Ntp144
Rp145
(dp146
g7
V550
p147
sg9
VBasculin
p148
sg11
g101
sg13
VFish Super
p149
sg15
V50
p150
sg17
V60
p151
sg18
V30
p152
sbag1
(g2
g3
Ntp153
Rp154
(dp155
g7
V550
p156
sg9
VBasculin
p157
sg11
g111
sg13
VFish Super
p158
sg15
V50
p159
sg17
V60
p160
sg18
V30
p161
sbag1
(g2
g3
Ntp162
Rp163
(dp164
g7
V061
p165
sg9
VPoliwhirl
p166
sg11
VB2,W2,
p167
sg13
VRippling
p168
sg15
V50
p169
sg17
V60
p170
sg18
V65
p171
sbag1
(g2
g3
Ntp172
Rp173
(dp174
g7
V062
p175
sg9
VPoliwrath
p176
sg11
VB2,W2,
p177
sg13
VRippling
p178
sg15
V60
p179
sg17
g179
sg18
V5
p180
sbag1
(g2
g3
Ntp181
Rp182
(dp183
g7
V550
p184
sg9
VBasculin
p185
sg11
g111
sg13
VRippling
p186
sg15
V50
p187
sg17
V60
p188
sg18
V30
p189
sbag1
(g2
g3
Ntp190
Rp191
(dp192
g7
V550
p193
sg9
VBasculin
p194
sg11
g101
sg13
VRippling
p195
sg15
V50
p196
sg17
V60
p197
sg18
V30
p198
sba.