(lp0
ccopy_reg
_reconstructor
p1
(c__main__
WildPokemon
p2
c__builtin__
object
p3
Ntp4
Rp5
(dp6
VpDexNo
p7
V041
p8
sVpSpecies
p9
VZubat
p10
sVpGames
p11
VHG,SS,
p12
sVpArea
p13
VCave
p14
sVpMinLevel
p15
V18
p16
sVpMaxLevel
p17
g16
sVpRate
p18
V5
p19
sbag1
(g2
g3
Ntp20
Rp21
(dp22
g7
V042
p23
sg9
VGolbat
p24
sg11
VHG,SS,
p25
sg13
VCave
p26
sg15
V22
p27
sg17
g27
sg18
V20
p28
sbag1
(g2
g3
Ntp29
Rp30
(dp31
g7
V042
p32
sg9
VGolbat
p33
sg11
VHG,SS,
p34
sg13
VCave
p35
sg15
V20
p36
sg17
g36
sg18
V4
p37
sbag1
(g2
g3
Ntp38
Rp39
(dp40
g7
V066
p41
sg9
VMachop
p42
sg11
VHG,SS,
p43
sg13
VCave
p44
sg15
V19
p45
sg17
g45
sg18
V10
p46
sbag1
(g2
g3
Ntp47
Rp48
(dp49
g7
V067
p50
sg9
VMachoke
p51
sg11
VHG,SS,
p52
sg13
VCave
p53
sg15
V22
p54
sg17
g54
sg18
V4
p55
sbag1
(g2
g3
Ntp56
Rp57
(dp58
g7
V074
p59
sg9
VGeodude
p60
sg11
VHG,SS,
p61
sg13
VCave
p62
sg15
V19
p63
sg17
g63
sg18
V20
p64
sbag1
(g2
g3
Ntp65
Rp66
(dp67
g7
V075
p68
sg9
VGraveler
p69
sg11
VHG,SS,
p70
sg13
VCave
p71
sg15
V20
p72
sg17
g72
sg18
V4
p73
sbag1
(g2
g3
Ntp74
Rp75
(dp76
g7
V095
p77
sg9
VOnix
p78
sg11
VHG,SS,
p79
sg13
VCave
p80
sg15
V20
p81
sg17
g81
sg18
V10
p82
sbag1
(g2
g3
Ntp83
Rp84
(dp85
g7
V098
p86
sg9
VKrabby
p87
sg11
VHG,SS,
p88
sg13
VCave
p89
sg15
V20
p90
sg17
g90
sg18
V10
p91
sbag1
(g2
g3
Ntp92
Rp93
(dp94
g7
V099
p95
sg9
VKingler
p96
sg11
VHG,SS,
p97
sg13
VCave
p98
sg15
V22
p99
sg17
g99
sg18
V10
p100
sbag1
(g2
g3
Ntp101
Rp102
(dp103
g7
V194
p104
sg9
VWooper
p105
sg11
VHG,SS,
p106
sg13
VCave
p107
sg15
V18
p108
sg17
g108
sg18
V5
p109
sbag1
(g2
g3
Ntp110
Rp111
(dp112
g7
V195
p113
sg9
VQuagsire
p114
sg11
VHG,SS,
p115
sg13
VCave
p116
sg15
V20
p117
sg17
g117
sg18
V5
p118
sbag1
(g2
g3
Ntp119
Rp120
(dp121
g7
V200
p122
sg9
VMisdreavus
p123
sg11
VHG,SS,
p124
sg13
VCave
p125
sg15
V20
p126
sg17
g126
sg18
V5
p127
sbag1
(g2
g3
Ntp128
Rp129
(dp130
g7
V208
p131
sg9
VSteelix
p132
sg11
VHG,SS,
p133
sg13
VCave
p134
sg15
V23
p135
sg17
g135
sg18
V2
p136
sbag1
(g2
g3
Ntp137
Rp138
(dp139
g7
V098
p140
sg9
VKrabby
p141
sg11
VHG,SS,
p142
sg13
VRock Smash
p143
sg15
V20
p144
sg17
V26
p145
sg18
V90
p146
sbag1
(g2
g3
Ntp147
Rp148
(dp149
g7
V099
p150
sg9
VKingler
p151
sg11
VHG,SS,
p152
sg13
VRock Smash
p153
sg15
V28
p154
sg17
V31
p155
sg18
V10
p156
sbag1
(g2
g3
Ntp157
Rp158
(dp159
g7
V296
p160
sg9
VMakuhita
p161
sg11
VHG,SS,
p162
sg13
VHoenn
p163
sg15
V19
p164
sg17
V20
p165
sg18
V20
p166
sbag1
(g2
g3
Ntp167
Rp168
(dp169
g7
V359
p170
sg9
VAbsol
p171
sg11
VHG,SS,
p172
sg13
VHoenn
p173
sg15
V20
p174
sg17
V22
p175
sg18
V20
p176
sbag1
(g2
g3
Ntp177
Rp178
(dp179
g7
V433
p180
sg9
VChingling
p181
sg11
VHG,SS,
p182
sg13
VSinnoh
p183
sg15
V19
p184
sg17
V20
p185
sg18
V20
p186
sbag1
(g2
g3
Ntp187
Rp188
(dp189
g7
V436
p190
sg9
VBronzor
p191
sg11
VHG,SS,
p192
sg13
VSinnoh
p193
sg15
V20
p194
sg17
V22
p195
sg18
V20
p196
sba.