(lp0
ccopy_reg
_reconstructor
p1
(c__main__
WildPokemon
p2
c__builtin__
object
p3
Ntp4
Rp5
(dp6
VpDexNo
p7
V194
p8
sVpSpecies
p9
VWooper
p10
sVpGames
p11
VHG,SS,
p12
sVpArea
p13
VSurf
p14
sVpMinLevel
p15
V20
p16
sVpMaxLevel
p17
V30
p18
sVpRate
p19
V90
p20
sbag1
(g2
g3
Ntp21
Rp22
(dp23
g7
V195
p24
sg9
VQuagsire
p25
sg11
VHG,SS,
p26
sg13
VSurf
p27
sg15
V30
p28
sg17
V40
p29
sg19
V10
p30
sbag1
(g2
g3
Ntp31
Rp32
(dp33
g7
V129
p34
sg9
VMagikarp
p35
sg11
VHG,SS,
p36
sg13
VFish Old
p37
sg15
V10
p38
sg17
g38
sg19
V100
p39
sbag1
(g2
g3
Ntp40
Rp41
(dp42
g7
V060
p43
sg9
VPoliwag
p44
sg11
VHG,SS,
p45
sg13
VFish Good
p46
sg15
V20
p47
sg17
g47
sg19
V15
p48
sbag1
(g2
g3
Ntp49
Rp50
(dp51
g7
V129
p52
sg9
VMagikarp
p53
sg11
VHG,SS,
p54
sg13
VFish Good
p55
sg15
V20
p56
sg17
g56
sg19
V85
p57
sbag1
(g2
g3
Ntp58
Rp59
(dp60
g7
V060
p61
sg9
VPoliwag
p62
sg11
VHG,SS,
p63
sg13
VFish Super
p64
sg15
V40
p65
sg17
g65
sg19
V30
p66
sbag1
(g2
g3
Ntp67
Rp68
(dp69
g7
V129
p70
sg9
VMagikarp
p71
sg11
VHG,SS,
p72
sg13
VFish Super
p73
sg15
V40
p74
sg17
g74
sg19
V70
p75
sba.