(lp0
ccopy_reg
_reconstructor
p1
(c__main__
WildPokemon
p2
c__builtin__
object
p3
Ntp4
Rp5
(dp6
VpDexNo
p7
V507
p8
sVpSpecies
p9
VHerdier
p10
sVpGames
p11
VB,W,
p12
sVpArea
p13
VGrass
p14
sVpMinLevel
p15
V21
p16
sVpMaxLevel
p17
V23
p18
sVpRate
p19
V35
p20
sbag1
(g2
g3
Ntp21
Rp22
(dp23
g7
V532
p24
sg9
VTimburr
p25
sg11
VB,W,
p26
sg13
VGrass
p27
sg15
V21,22
p28
sg17
g28
sg19
V20
p29
sbag1
(g2
g3
Ntp30
Rp31
(dp32
g7
V572
p33
sg9
VMinccino
p34
sg11
VB,W,
p35
sg13
VGrass
p36
sg15
V20
p37
sg17
g37
sg19
V15
p38
sbag1
(g2
g3
Ntp39
Rp40
(dp41
g7
V582
p42
sg9
VVanillite
p43
sg11
VB,W,
p44
sg13
VGrass
p45
sg15
V20
p46
sg17
V23
p47
sg19
V30
p48
sbag1
(g2
g3
Ntp49
Rp50
(dp51
g7
V507
p52
sg9
VHerdier
p53
sg11
VB,W,
p54
sg13
VDark
p55
sg15
V25
p56
sg17
V27
p57
sg19
V35
p58
sbag1
(g2
g3
Ntp59
Rp60
(dp61
g7
V572
p62
sg9
VMinccino
p63
sg11
VB,W,
p64
sg13
VDark
p65
sg15
V24
p66
sg17
g66
sg19
V20
p67
sbag1
(g2
g3
Ntp68
Rp69
(dp70
g7
V532
p71
sg9
VTimburr
p72
sg11
VB,W,
p73
sg13
VDark
p74
sg15
V25
p75
sg17
V26
p76
sg19
V15
p77
sbag1
(g2
g3
Ntp78
Rp79
(dp80
g7
V582
p81
sg9
VVanillite
p82
sg11
VB,W,
p83
sg13
VDark
p84
sg15
V24
p85
sg17
V27
p86
sg19
V30
p87
sbag1
(g2
g3
Ntp88
Rp89
(dp90
g7
V508
p91
sg9
VStoutland
p92
sg11
VB,W,
p93
sg13
VRustling
p94
sg15
V23
p95
sg17
g95
sg19
V5
p96
sbag1
(g2
g3
Ntp97
Rp98
(dp99
g7
V531
p100
sg9
VAudino
p101
sg11
VB,W,
p102
sg13
VRustling
p103
sg15
V20
p104
sg17
V23
p105
sg19
V90
p106
sbag1
(g2
g3
Ntp107
Rp108
(dp109
g7
V573
p110
sg9
VCinccino
p111
sg11
VB,W,
p112
sg13
VRustling
p113
sg15
V23
p114
sg17
g114
sg19
V5
p115
sba.