(lp0
ccopy_reg
_reconstructor
p1
(c__main__
WildPokemon
p2
c__builtin__
object
p3
Ntp4
Rp5
(dp6
VpDexNo
p7
V041
p8
sVpSpecies
p9
VZubat
p10
sVpGames
p11
VX,Y,
p12
sVpArea
p13
VCave
p14
sVpMinLevel
p15
V13
p16
sVpMaxLevel
p17
V15
p18
sVpRate
p19
V30
p20
sbag1
(g2
g3
Ntp21
Rp22
(dp23
g7
V293
p24
sg9
VWhismur
p25
sg11
VX,Y,
p26
sg13
VCave
p27
sg15
V13
p28
sg17
V15
p29
sg19
V30
p30
sbag1
(g2
g3
Ntp31
Rp32
(dp33
g7
V307
p34
sg9
VMeditite
p35
sg11
VX,Y,
p36
sg13
VCave
p37
sg15
V13
p38
sg17
V15
p39
sg19
V30
p40
sbag1
(g2
g3
Ntp41
Rp42
(dp43
g7
V610
p44
sg9
VAxew
p45
sg11
VX,Y,
p46
sg13
VCave
p47
sg15
V13
p48
sg17
V15
p49
sg19
V10
p50
sbag1
(g2
g3
Ntp51
Rp52
(dp53
g7
V041
p54
sg9
VZubat
p55
sg11
VX,Y,
p56
sg13
VHorde Encounter
p57
sg15
V8
p58
sg17
g58
sg19
V35
p59
sbag1
(g2
g3
Ntp60
Rp61
(dp62
g7
V293
p63
sg9
VWhismur
p64
sg11
VX,Y,
p65
sg13
VHorde Encounter
p66
sg15
V7
p67
sg17
g67
sg19
V60
p68
sbag1
(g2
g3
Ntp69
Rp70
(dp71
g7
V610
p72
sg9
VAxew
p73
sg11
VX,Y,
p74
sg13
VHorde Encounter
p75
sg15
g58
sg17
g58
sg19
V5
p76
sba.