(lp0
ccopy_reg
_reconstructor
p1
(c__main__
WildPokemon
p2
c__builtin__
object
p3
Ntp4
Rp5
(dp6
VpDexNo
p7
V271
p8
sVpSpecies
p9
VLombre
p10
sVpGames
p11
VX,Y,
p12
sVpArea
p13
VSurf
p14
sVpMinLevel
p15
V44
p16
sVpMaxLevel
p17
V46
p18
sVpRate
p19
V66
p20
sbag1
(g2
g3
Ntp21
Rp22
(dp23
g7
V419
p24
sg9
VFloatzel
p25
sg11
VX,Y,
p26
sg13
VSurf
p27
sg15
V44
p28
sg17
V46
p29
sg19
V34
p30
sbag1
(g2
g3
Ntp31
Rp32
(dp33
g7
V060
p34
sg9
VPoliwag
p35
sg11
VX,Y,
p36
sg13
VFish Old
p37
sg15
V25
p38
sg17
g38
sg19
V100
p39
sbag1
(g2
g3
Ntp40
Rp41
(dp42
g7
V061
p43
sg9
VPoliwhirl
p44
sg11
VX,Y,
p45
sg13
VFish Good
p46
sg15
V35
p47
sg17
g47
sg19
V35
p48
sbag1
(g2
g3
Ntp49
Rp50
(dp51
g7
V550
p52
sg9
VBasculin
p53
sg11
VY,
p54
sg13
VFish Good
p55
sg15
V35
p56
sg17
g56
sg19
V65
p57
sbag1
(g2
g3
Ntp58
Rp59
(dp60
g7
V550
p61
sg9
VBasculin
p62
sg11
VX,
p63
sg13
VFish Good
p64
sg15
V35
p65
sg17
g65
sg19
V65
p66
sbag1
(g2
g3
Ntp67
Rp68
(dp69
g7
V061
p70
sg9
VPoliwhirl
p71
sg11
VX,Y,
p72
sg13
VFish Super
p73
sg15
V45
p74
sg17
g74
sg19
V65
p75
sbag1
(g2
g3
Ntp76
Rp77
(dp78
g7
V550
p79
sg9
VBasculin
p80
sg11
g63
sg13
VFish Super
p81
sg15
V45
p82
sg17
g82
sg19
V35
p83
sbag1
(g2
g3
Ntp84
Rp85
(dp86
g7
V550
p87
sg9
VBasculin
p88
sg11
g54
sg13
VFish Super
p89
sg15
V45
p90
sg17
g90
sg19
V35
p91
sbag1
(g2
g3
Ntp92
Rp93
(dp94
g7
V129
p95
sg9
VMagikarp
p96
sg11
VX,Y,
p97
sg13
VTrade
p98
sg15
V5
p99
sg17
g99
sg19
V0
p100
sbag1
(g2
g3
Ntp101
Rp102
(dp103
g7
V133
p104
sg9
VEevee
p105
sg11
VX,Y,
p106
sg13
VTrade
p107
sg15
g99
sg17
g99
sg19
V0
p108
sba.