(lp0
ccopy_reg
_reconstructor
p1
(c__main__
WildPokemon
p2
c__builtin__
object
p3
Ntp4
Rp5
(dp6
VpDexNo
p7
V090
p8
sVpSpecies
p9
VShellder
p10
sVpGames
p11
VSw,Sh,
p12
sVpArea
p13
VFishing
p14
sVpMinLevel
p15
V16
p16
sVpMaxLevel
p17
V21
p18
sVpRate
p19
V40
p20
sbag1
(g2
g3
Ntp21
Rp22
(dp23
g7
V091
p24
sg9
VCloyster
p25
sg11
VSw,Sh,
p26
sg13
VFishing
p27
sg15
V16
p28
sg17
V21
p29
sg19
V10
p30
sbag1
(g2
g3
Ntp31
Rp32
(dp33
g7
V129
p34
sg9
VMagikarp
p35
sg11
VSw,Sh,
p36
sg13
VFishing
p37
sg15
V16
p38
sg17
V21
p39
sg19
V50
p40
sbag1
(g2
g3
Ntp41
Rp42
(dp43
g7
V113
p44
sg9
VChansey
p45
sg11
VSw,Sh,
p46
sg13
VCave
p47
sg15
V13
p48
sg17
V18
p49
sg19
V0
p50
sbag1
(g2
g3
Ntp51
Rp52
(dp53
g7
V242
p54
sg9
VBlissey
p55
sg11
VSw,Sh,
p56
sg13
VCave
p57
sg15
V13
p58
sg17
V18
p59
sg19
g50
sbag1
(g2
g3
Ntp60
Rp61
(dp62
g7
V527
p63
sg9
VWoobat
p64
sg11
VSw,Sh,
p65
sg13
VCave
p66
sg15
V13
p67
sg17
V18
p68
sg19
V16
p69
sbag1
(g2
g3
Ntp70
Rp71
(dp72
g7
V557
p73
sg9
VDwebble
p74
sg11
VSw,Sh,
p75
sg13
VCave
p76
sg15
V13
p77
sg17
V18
p78
sg19
V5
p79
sbag1
(g2
g3
Ntp80
Rp81
(dp82
g7
V767
p83
sg9
VWimpod
p84
sg11
VSw,Sh,
p85
sg13
VCave
p86
sg15
V13
p87
sg17
V18
p88
sg19
V16
p89
sbag1
(g2
g3
Ntp90
Rp91
(dp92
g7
V833
p93
sg9
VChewtle
p94
sg11
VSw,Sh,
p95
sg13
VCave
p96
sg15
V13
p97
sg17
V18
p98
sg19
V56
p99
sbag1
(g2
g3
Ntp100
Rp101
(dp102
g7
V871
p103
sg9
VPincurchin
p104
sg11
VSw,Sh,
p105
sg13
VCave
p106
sg15
V13
p107
sg17
V18
p108
sg19
V5
p109
sbag1
(g2
g3
Ntp110
Rp111
(dp112
g7
V072
p113
sg9
VTentacool
p114
sg11
VSw,Sh,
p115
sg13
VSurf
p116
sg15
V40
p117
sg17
V45
p118
sg19
V60
p119
sbag1
(g2
g3
Ntp120
Rp121
(dp122
g7
V852
p123
sg9
VClobbopus
p124
sg11
VSw,Sh,
p125
sg13
VSurf
p126
sg15
V40
p127
sg17
V45
p128
sg19
V40
p129
sbag1
(g2
g3
Ntp130
Rp131
(dp132
g7
V052
p133
sg9
VMeowth
p134
sg11
VSw,Sh,
p135
sg13
VTrade
p136
sg15
V15
p137
sg17
g137
sg19
V0
p138
sbag1
(g2
g3
Ntp139
Rp140
(dp141
g7
V077
p142
sg9
VPonyta
p143
sg11
VSh,
p144
sg13
VTrade
p145
sg15
V15
p146
sg17
g146
sg19
V0
p147
sbag1
(g2
g3
Ntp148
Rp149
(dp150
g7
V083
p151
sg9
VFarfetch'd
p152
sg11
VSw,
p153
sg13
VTrade
p154
sg15
V15
p155
sg17
g155
sg19
V0
p156
sbag1
(g2
g3
Ntp157
Rp158
(dp159
g7
V103
p160
sg9
VExeggutor
p161
sg11
VSw,Sh,
p162
sg13
VTrade
p163
sg15
V15
p164
sg17
g164
sg19
V0
p165
sbag1
(g2
g3
Ntp166
Rp167
(dp168
g7
V105
p169
sg9
VMarowak
p170
sg11
VSw,Sh,
p171
sg13
VTrade
p172
sg15
V15
p173
sg17
g173
sg19
V0
p174
sbag1
(g2
g3
Ntp175
Rp176
(dp177
g7
V110
p178
sg9
VWeezing
p179
sg11
VSw,Sh,
p180
sg13
VTrade
p181
sg15
V15
p182
sg17
g182
sg19
V0
p183
sbag1
(g2
g3
Ntp184
Rp185
(dp186
g7
V122
p187
sg9
VMr. Mime
p188
sg11
VSw,Sh,
p189
sg13
VTrade
p190
sg15
V15
p191
sg17
g191
sg19
V0
p192
sbag1
(g2
g3
Ntp193
Rp194
(dp195
g7
V222
p196
sg9
VCorsola
p197
sg11
g144
sg13
VTrade
p198
sg15
V15
p199
sg17
g199
sg19
V0
p200
sbag1
(g2
g3
Ntp201
Rp202
(dp203
g7
V263
p204
sg9
VZigzagoon
p205
sg11
VSw,Sh,
p206
sg13
VTrade
p207
sg15
V15
p208
sg17
g208
sg19
V0
p209
sbag1
(g2
g3
Ntp210
Rp211
(dp212
g7
V554
p213
sg9
VDarumaka
p214
sg11
g153
sg13
VTrade
p215
sg15
V15
p216
sg17
g216
sg19
V0
p217
sbag1
(g2
g3
Ntp218
Rp219
(dp220
g7
V618
p221
sg9
VStunfisk
p222
sg11
VSw,Sh,
p223
sg13
VTrade
p224
sg15
V15
p225
sg17
g225
sg19
V0
p226
sba.