(lp0
ccopy_reg
_reconstructor
p1
(c__main__
WildPokemon
p2
c__builtin__
object
p3
Ntp4
Rp5
(dp6
VpDexNo
p7
V095
p8
sVpSpecies
p9
VOnix
p10
sVpGames
p11
VX,
p12
sVpArea
p13
VRock Smash
p14
sVpMinLevel
p15
V15
p16
sVpMaxLevel
p17
V17
p18
sVpRate
p19
V35
p20
sbag1
(g2
g3
Ntp21
Rp22
(dp23
g7
V557
p24
sg9
VDwebble
p25
sg11
g12
sg13
VRock Smash
p26
sg15
V15
p27
sg17
V17
p28
sg19
V65
p29
sbag1
(g2
g3
Ntp30
Rp31
(dp32
g7
V557
p33
sg9
VDwebble
p34
sg11
VY,
p35
sg13
VRock Smash
p36
sg15
V13
p37
sg17
V15
p38
sg19
V66
p39
sbag1
(g2
g3
Ntp40
Rp41
(dp42
g7
V688
p43
sg9
VBinacle
p44
sg11
g35
sg13
VRock Smash
p45
sg15
V13
p46
sg17
V15
p47
sg19
V34
p48
sbag1
(g2
g3
Ntp49
Rp50
(dp51
g7
V072
p52
sg9
VTentacool
p53
sg11
VX,Y,
p54
sg13
VSurf
p55
sg15
V25
p56
sg17
V27
p57
sg19
V69
p58
sbag1
(g2
g3
Ntp59
Rp60
(dp61
g7
V320
p62
sg9
VWailmer
p63
sg11
VX,Y,
p64
sg13
VSurf
p65
sg15
V25
p66
sg17
V27
p67
sg19
V31
p68
sbag1
(g2
g3
Ntp69
Rp70
(dp71
g7
V370
p72
sg9
VLuvdisc
p73
sg11
VX,Y,
p74
sg13
VFish Old
p75
sg15
V15
p76
sg17
g76
sg19
V100
p77
sbag1
(g2
g3
Ntp78
Rp79
(dp80
g7
V116
p81
sg9
VHorsea
p82
sg11
VX,Y,
p83
sg13
VFish Good
p84
sg15
V25
p85
sg17
g85
sg19
V35
p86
sbag1
(g2
g3
Ntp87
Rp88
(dp89
g7
V690
p90
sg9
VSkrelp
p91
sg11
g35
sg13
VFish Good
p92
sg15
V25
p93
sg17
g93
sg19
V65
p94
sbag1
(g2
g3
Ntp95
Rp96
(dp97
g7
V692
p98
sg9
VClauncher
p99
sg11
g12
sg13
VFish Good
p100
sg15
V25
p101
sg17
g101
sg19
V65
p102
sbag1
(g2
g3
Ntp103
Rp104
(dp105
g7
V117
p106
sg9
VSeadra
p107
sg11
VX,Y,
p108
sg13
VFish Super
p109
sg15
V35
p110
sg17
g110
sg19
V5
p111
sbag1
(g2
g3
Ntp112
Rp113
(dp114
g7
V369
p115
sg9
VRelicanth
p116
sg11
VX,Y,
p117
sg13
VFish Super
p118
sg15
V35
p119
sg17
g119
sg19
V60
p120
sbag1
(g2
g3
Ntp121
Rp122
(dp123
g7
V691
p124
sg9
VDragalge
p125
sg11
g35
sg13
VFish Super
p126
sg15
V35
p127
sg17
g127
sg19
V35
p128
sbag1
(g2
g3
Ntp129
Rp130
(dp131
g7
V693
p132
sg9
VClawitzer
p133
sg11
g12
sg13
VFish Super
p134
sg15
V35
p135
sg17
g135
sg19
V35
p136
sbag1
(g2
g3
Ntp137
Rp138
(dp139
g7
V208
p140
sg9
VSteelix
p141
sg11
VX,Y,
p142
sg13
VTrade
p143
sg15
V20
p144
sg17
g144
sg19
V0
p145
sbag1
(g2
g3
Ntp146
Rp147
(dp148
g7
V129
p149
sg9
VMagikarp
p150
sg11
VX,Y,
p151
sg13
VTrade
p152
sg15
V5
p153
sg17
g153
sg19
V0
p154
sbag1
(g2
g3
Ntp155
Rp156
(dp157
g7
V133
p158
sg9
VEevee
p159
sg11
VX,Y,
p160
sg13
VTrade
p161
sg15
g153
sg17
g153
sg19
V0
p162
sba.