(lp0
ccopy_reg
_reconstructor
p1
(c__main__
WildPokemon
p2
c__builtin__
object
p3
Ntp4
Rp5
(dp6
VpDexNo
p7
V037
p8
sVpSpecies
p9
VVulpix
p10
sVpGames
p11
VSw,
p12
sVpArea
p13
VGrass
p14
sVpMinLevel
p15
V11
p16
sVpMaxLevel
p17
V15
p18
sVpRate
p19
V0
p20
sbag1
(g2
g3
Ntp21
Rp22
(dp23
g7
V058
p24
sg9
VGrowlithe
p25
sg11
VSh,
p26
sg13
VGrass
p27
sg15
V11
p28
sg17
V15
p29
sg19
g20
sbag1
(g2
g3
Ntp30
Rp31
(dp32
g7
V270
p33
sg9
VLotad
p34
sg11
g26
sg13
VGrass
p35
sg15
V11
p36
sg17
V15
p37
sg19
g20
sbag1
(g2
g3
Ntp38
Rp39
(dp40
g7
V273
p41
sg9
VSeedot
p42
sg11
g12
sg13
VGrass
p43
sg15
V11
p44
sg17
V15
p45
sg19
g20
sbag1
(g2
g3
Ntp46
Rp47
(dp48
g7
V280
p49
sg9
VRalts
p50
sg11
VSw,Sh,
p51
sg13
VGrass
p52
sg15
V11
p53
sg17
V15
p54
sg19
g20
sbag1
(g2
g3
Ntp55
Rp56
(dp57
g7
V343
p58
sg9
VBaltoy
p59
sg11
VSw,Sh,
p60
sg13
VGrass
p61
sg15
V11
p62
sg17
V15
p63
sg19
g20
sbag1
(g2
g3
Ntp64
Rp65
(dp66
g7
V361
p67
sg9
VSnorunt
p68
sg11
VSw,Sh,
p69
sg13
VGrass
p70
sg15
V11
p71
sg17
V15
p72
sg19
g20
sbag1
(g2
g3
Ntp73
Rp74
(dp75
g7
V406
p76
sg9
VBudew
p77
sg11
VSw,Sh,
p78
sg13
VGrass
p79
sg15
V11
p80
sg17
V15
p81
sg19
g20
sbag1
(g2
g3
Ntp82
Rp83
(dp84
g7
V434
p85
sg9
VStunky
p86
sg11
VSw,Sh,
p87
sg13
VGrass
p88
sg15
V11
p89
sg17
V15
p90
sg19
g20
sbag1
(g2
g3
Ntp91
Rp92
(dp93
g7
V459
p94
sg9
VSnover
p95
sg11
VSw,Sh,
p96
sg13
VGrass
p97
sg15
V11
p98
sg17
V15
p99
sg19
g20
sbag1
(g2
g3
Ntp100
Rp101
(dp102
g7
V509
p103
sg9
VPurrloin
p104
sg11
VSw,Sh,
p105
sg13
VGrass
p106
sg15
V11
p107
sg17
V15
p108
sg19
g20
sbag1
(g2
g3
Ntp109
Rp110
(dp111
g7
V535
p112
sg9
VTympole
p113
sg11
VSw,Sh,
p114
sg13
VGrass
p115
sg15
V11
p116
sg17
V15
p117
sg19
g20
sbag1
(g2
g3
Ntp118
Rp119
(dp120
g7
V582
p121
sg9
VVanillite
p122
sg11
VSw,Sh,
p123
sg13
VGrass
p124
sg15
V11
p125
sg17
V15
p126
sg19
g20
sbag1
(g2
g3
Ntp127
Rp128
(dp129
g7
V595
p130
sg9
VJoltik
p131
sg11
VSw,Sh,
p132
sg13
VGrass
p133
sg15
V11
p134
sg17
V15
p135
sg19
g20
sbag1
(g2
g3
Ntp136
Rp137
(dp138
g7
V599
p139
sg9
VKlink
p140
sg11
VSw,Sh,
p141
sg13
VGrass
p142
sg15
V11
p143
sg17
V15
p144
sg19
g20
sbag1
(g2
g3
Ntp145
Rp146
(dp147
g7
V622
p148
sg9
VGolett
p149
sg11
VSw,Sh,
p150
sg13
VGrass
p151
sg15
V11
p152
sg17
V15
p153
sg19
g20
sbag1
(g2
g3
Ntp154
Rp155
(dp156
g7
V659
p157
sg9
VBunnelby
p158
sg11
VSw,Sh,
p159
sg13
VGrass
p160
sg15
V11
p161
sg17
V15
p162
sg19
g20
sbag1
(g2
g3
Ntp163
Rp164
(dp165
g7
V736
p166
sg9
VGrubbin
p167
sg11
VSw,Sh,
p168
sg13
VGrass
p169
sg15
V11
p170
sg17
V15
p171
sg19
g20
sbag1
(g2
g3
Ntp172
Rp173
(dp174
g7
V749
p175
sg9
VMudbray
p176
sg11
VSw,Sh,
p177
sg13
VGrass
p178
sg15
V11
p179
sg17
V15
p180
sg19
g20
sbag1
(g2
g3
Ntp181
Rp182
(dp183
g7
V759
p184
sg9
VStufful
p185
sg11
VSw,Sh,
p186
sg13
VGrass
p187
sg15
V11
p188
sg17
V15
p189
sg19
g20
sbag1
(g2
g3
Ntp190
Rp191
(dp192
g7
V761
p193
sg9
VBounsweet
p194
sg11
VSw,Sh,
p195
sg13
VGrass
p196
sg15
V11
p197
sg17
V15
p198
sg19
g20
sbag1
(g2
g3
Ntp199
Rp200
(dp201
g7
V420
p202
sg9
VCherubi
p203
sg11
VSw,Sh,
p204
sg13
VBerry tree
p205
sg15
V11
p206
sg17
V15
p207
sg19
V30
p208
sbag1
(g2
g3
Ntp209
Rp210
(dp211
g7
V819
p212
sg9
VSkwovet
p213
sg11
VSw,Sh,
p214
sg13
VBerry tree
p215
sg15
V11
p216
sg17
V15
p217
sg19
V70
p218
sbag1
(g2
g3
Ntp219
Rp220
(dp221
g7
V037
p222
sg9
VVulpix
p223
sg11
g12
sg13
VGrass
p224
sg15
V13
p225
sg17
V15
p226
sg19
g20
sbag1
(g2
g3
Ntp227
Rp228
(dp229
g7
V043
p230
sg9
VOddish
p231
sg11
VSw,Sh,
p232
sg13
VGrass
p233
sg15
V13
p234
sg17
V15
p235
sg19
g20
sbag1
(g2
g3
Ntp236
Rp237
(dp238
g7
V058
p239
sg9
VGrowlithe
p240
sg11
g26
sg13
VGrass
p241
sg15
V13
p242
sg17
V15
p243
sg19
g20
sbag1
(g2
g3
Ntp244
Rp245
(dp246
g7
V163
p247
sg9
VHoothoot
p248
sg11
VSw,Sh,
p249
sg13
VGrass
p250
sg15
V13
p251
sg17
V15
p252
sg19
g20
sbag1
(g2
g3
Ntp253
Rp254
(dp255
g7
V225
p256
sg9
VDelibird
p257
sg11
VSw,Sh,
p258
sg13
VGrass
p259
sg15
V13
p260
sg17
V15
p261
sg19
g20
sbag1
(g2
g3
Ntp262
Rp263
(dp264
g7
V236
p265
sg9
VTyrogue
p266
sg11
VSw,Sh,
p267
sg13
VGrass
p268
sg15
V13
p269
sg17
V15
p270
sg19
g20
sbag1
(g2
g3
Ntp271
Rp272
(dp273
g7
V271
p274
sg9
VLombre
p275
sg11
g26
sg13
VGrass
p276
sg15
V13
p277
sg17
V15
p278
sg19
g20
sbag1
(g2
g3
Ntp279
Rp280
(dp281
g7
V274
p282
sg9
VNuzleaf
p283
sg11
g12
sg13
VGrass
p284
sg15
V13
p285
sg17
V15
p286
sg19
g20
sbag1
(g2
g3
Ntp287
Rp288
(dp289
g7
V280
p290
sg9
VRalts
p291
sg11
VSw,Sh,
p292
sg13
VGrass
p293
sg15
V13
p294
sg17
V15
p295
sg19
g20
sbag1
(g2
g3
Ntp296
Rp297
(dp298
g7
V309
p299
sg9
VElectrike
p300
sg11
VSw,Sh,
p301
sg13
VGrass
p302
sg15
V13
p303
sg17
V15
p304
sg19
g20
sbag1
(g2
g3
Ntp305
Rp306
(dp307
g7
V343
p308
sg9
VBaltoy
p309
sg11
VSw,Sh,
p310
sg13
VGrass
p311
sg15
V13
p312
sg17
V15
p313
sg19
g20
sbag1
(g2
g3
Ntp314
Rp315
(dp316
g7
V509
p317
sg9
VPurrloin
p318
sg11
VSw,Sh,
p319
sg13
VGrass
p320
sg15
V13
p321
sg17
V15
p322
sg19
g20
sbag1
(g2
g3
Ntp323
Rp324
(dp325
g7
V535
p326
sg9
VTympole
p327
sg11
VSw,Sh,
p328
sg13
VGrass
p329
sg15
V13
p330
sg17
V15
p331
sg19
g20
sbag1
(g2
g3
Ntp332
Rp333
(dp334
g7
V582
p335
sg9
VVanillite
p336
sg11
VSw,Sh,
p337
sg13
VGrass
p338
sg15
V13
p339
sg17
V15
p340
sg19
g20
sbag1
(g2
g3
Ntp341
Rp342
(dp343
g7
V659
p344
sg9
VBunnelby
p345
sg11
VSw,Sh,
p346
sg13
VGrass
p347
sg15
V13
p348
sg17
V15
p349
sg19
g20
sbag1
(g2
g3
Ntp350
Rp351
(dp352
g7
V826
p353
sg9
VOrbeetle
p354
sg11
VSw,Sh,
p355
sg13
VWanderer
p356
sg15
V65
p357
sg17
g357
sg19
V0
p358
sbag1
(g2
g3
Ntp359
Rp360
(dp361
g7
V045
p362
sg9
VVileplume
p363
sg11
VSw,Sh,
p364
sg13
VWanderer
p365
sg15
V36
p366
sg17
g366
sg19
g20
sbag1
(g2
g3
Ntp367
Rp368
(dp369
g7
V344
p370
sg9
VClaydol
p371
sg11
VSw,Sh,
p372
sg13
VWanderer
p373
sg15
V36
p374
sg17
g374
sg19
g20
sbag1
(g2
g3
Ntp375
Rp376
(dp377
g7
V537
p378
sg9
VSeismitoad
p379
sg11
VSw,Sh,
p380
sg13
VWanderer
p381
sg15
V36
p382
sg17
g382
sg19
g20
sbag1
(g2
g3
Ntp383
Rp384
(dp385
g7
V583
p386
sg9
VVanillish
p387
sg11
VSw,Sh,
p388
sg13
VWanderer
p389
sg15
V36
p390
sg17
g390
sg19
g20
sbag1
(g2
g3
Ntp391
Rp392
(dp393
g7
V760
p394
sg9
VBewear
p395
sg11
VSw,Sh,
p396
sg13
VWanderer
p397
sg15
V34
p398
sg17
g398
sg19
V0
p399
sbag1
(g2
g3
Ntp400
Rp401
(dp402
g7
V272
p403
sg9
VLudicolo
p404
sg11
g26
sg13
VWanderer
p405
sg15
V34
p406
sg17
g406
sg19
g20
sbag1
(g2
g3
Ntp407
Rp408
(dp409
g7
V275
p410
sg9
VShiftry
p411
sg11
g12
sg13
VWanderer
p412
sg15
V34
p413
sg17
g413
sg19
g20
sbag1
(g2
g3
Ntp414
Rp415
(dp416
g7
V675
p417
sg9
VPangoro
p418
sg11
VSw,Sh,
p419
sg13
VWanderer
p420
sg15
V32
p421
sg17
g421
sg19
g20
sba.