(lp0
ccopy_reg
_reconstructor
p1
(c__main__
WildPokemon
p2
c__builtin__
object
p3
Ntp4
Rp5
(dp6
VpDexNo
p7
V041
p8
sVpSpecies
p9
VZubat
p10
sVpGames
p11
VG,S,
p12
sVpArea
p13
VCave
p14
sVpMinLevel
p15
V2
p16
sVpMaxLevel
p17
V4
p18
sVpRate
p19
V39
p20
sbag1
(g2
g3
Ntp21
Rp22
(dp23
g7
V041
p24
sg9
VZubat
p25
sg11
VC,
p26
sg13
VCave
p27
sg15
g16
sg17
g18
sg19
V39
p28
sbag1
(g2
g3
Ntp29
Rp30
(dp31
g7
V074
p32
sg9
VGeodude
p33
sg11
VG,S,C,
p34
sg13
VCave
p35
sg15
g16
sg17
g18
sg19
V60
p36
sbag1
(g2
g3
Ntp37
Rp38
(dp39
g7
V206
p40
sg9
VDunsparce
p41
sg11
VG,S,C,
p42
sg13
VCave
p43
sg15
g18
sg17
g18
sg19
V1
p44
sbag1
(g2
g3
Ntp45
Rp46
(dp47
g7
V216
p48
sg9
VTeddiursa
p49
sg11
g26
sg13
VCave
p50
sg15
g16
sg17
g16
sg19
V5
p51
sbag1
(g2
g3
Ntp52
Rp53
(dp54
g7
V129
p55
sg9
VMagikarp
p56
sg11
VG,S,C,
p57
sg13
VSurf
p58
sg15
V5
p59
sg17
V19
p60
sg19
V100
p61
sbag1
(g2
g3
Ntp62
Rp63
(dp64
g7
V118
p65
sg9
VGoldeen
p66
sg11
VG,S,C,
p67
sg13
VFish Old
p68
sg15
V10
p69
sg17
g69
sg19
V15
p70
sbag1
(g2
g3
Ntp71
Rp72
(dp73
g7
V129
p74
sg9
VMagikarp
p75
sg11
VG,S,C,
p76
sg13
VFish Old
p77
sg15
V10
p78
sg17
g78
sg19
V85
p79
sbag1
(g2
g3
Ntp80
Rp81
(dp82
g7
V118
p83
sg9
VGoldeen
p84
sg11
VG,S,C,
p85
sg13
VFish Good
p86
sg15
V20
p87
sg17
g87
sg19
V65
p88
sbag1
(g2
g3
Ntp89
Rp90
(dp91
g7
V129
p92
sg9
VMagikarp
p93
sg11
VG,S,C,
p94
sg13
VFish Good
p95
sg15
V20
p96
sg17
g96
sg19
V35
p97
sbag1
(g2
g3
Ntp98
Rp99
(dp100
g7
V118
p101
sg9
VGoldeen
p102
sg11
VG,S,C,
p103
sg13
VFish Super
p104
sg15
V40
p105
sg17
g105
sg19
V70
p106
sbag1
(g2
g3
Ntp107
Rp108
(dp109
g7
V119
p110
sg9
VSeaking
p111
sg11
VG,S,C,
p112
sg13
VFish Super
p113
sg15
V40
p114
sg17
g114
sg19
V10
p115
sbag1
(g2
g3
Ntp116
Rp117
(dp118
g7
V129
p119
sg9
VMagikarp
p120
sg11
VG,S,C,
p121
sg13
VFish Super
p122
sg15
V40
p123
sg17
g123
sg19
V20
p124
sbag1
(g2
g3
Ntp125
Rp126
(dp127
g7
V098
p128
sg9
VKrabby
p129
sg11
VG,S,C,
p130
sg13
VRock Smash
p131
sg15
V15
p132
sg17
g132
sg19
V90
p133
sbag1
(g2
g3
Ntp134
Rp135
(dp136
g7
V213
p137
sg9
VShuckle
p138
sg11
VG,S,C,
p139
sg13
VRock Smash
p140
sg15
V15
p141
sg17
g141
sg19
V10
p142
sbag1
(g2
g3
Ntp143
Rp144
(dp145
g7
V041
p146
sg9
VZubat
p147
sg11
VG,S,C,
p148
sg13
VSwarm
p149
sg15
g16
sg17
g16
sg19
V20
p150
sbag1
(g2
g3
Ntp151
Rp152
(dp153
g7
V074
p154
sg9
VGeodude
p155
sg11
VG,S,C,
p156
sg13
VSwarm
p157
sg15
g16
sg17
V3
p158
sg19
V40
p159
sbag1
(g2
g3
Ntp160
Rp161
(dp162
g7
V206
p163
sg9
VDunsparce
p164
sg11
VG,S,C,
p165
sg13
VSwarm
p166
sg15
g16
sg17
g18
sg19
V40
p167
sbag1
(g2
g3
Ntp168
Rp169
(dp170
g7
V041
p171
sg9
VZubat
p172
sg11
VG,S,C,
p173
sg13
VCave
p174
sg15
V23
p175
sg17
g175
sg19
V30
p176
sbag1
(g2
g3
Ntp177
Rp178
(dp179
g7
V042
p180
sg9
VGolbat
p181
sg11
VG,S,C,
p182
sg13
VCave
p183
sg15
V23
p184
sg17
g184
sg19
V5
p185
sbag1
(g2
g3
Ntp186
Rp187
(dp188
g7
V074
p189
sg9
VGeodude
p190
sg11
VG,S,C,
p191
sg13
VCave
p192
sg15
V23
p193
sg17
g193
sg19
V30
p194
sbag1
(g2
g3
Ntp195
Rp196
(dp197
g7
V075
p198
sg9
VGraveler
p199
sg11
VG,S,C,
p200
sg13
VCave
p201
sg15
V25
p202
sg17
g202
sg19
V20
p203
sbag1
(g2
g3
Ntp204
Rp205
(dp206
g7
V202
p207
sg9
VWobbuffet
p208
sg11
VG,S,
p209
sg13
VCave
p210
sg15
V20
p211
sg17
V25
p212
sg19
V15
p213
sbag1
(g2
g3
Ntp214
Rp215
(dp216
g7
V202
p217
sg9
VWobbuffet
p218
sg11
g26
sg13
VCave
p219
sg15
V20
p220
sg17
V25
p221
sg19
V15
p222
sbag1
(g2
g3
Ntp223
Rp224
(dp225
g7
V216
p226
sg9
VTeddiursa
p227
sg11
g26
sg13
VCave
p228
sg15
V20
p229
sg17
g229
sg19
V5
p230
sbag1
(g2
g3
Ntp231
Rp232
(dp233
g7
V217
p234
sg9
VUrsaring
p235
sg11
g26
sg13
VCave
p236
sg15
V25
p237
sg17
g237
sg19
V10
p238
sbag1
(g2
g3
Ntp239
Rp240
(dp241
g7
V217
p242
sg9
VUrsaring
p243
sg11
g26
sg13
VCave
p244
sg15
V25
p245
sg17
V30
p246
sg19
V15
p247
sbag1
(g2
g3
Ntp248
Rp249
(dp250
g7
V129
p251
sg9
VMagikarp
p252
sg11
VG,S,C,
p253
sg13
VSurf
p254
sg15
g59
sg17
V19
p255
sg19
V100
p256
sbag1
(g2
g3
Ntp257
Rp258
(dp259
g7
V118
p260
sg9
VGoldeen
p261
sg11
VG,S,C,
p262
sg13
VFish Old
p263
sg15
V10
p264
sg17
g264
sg19
V15
p265
sbag1
(g2
g3
Ntp266
Rp267
(dp268
g7
V129
p269
sg9
VMagikarp
p270
sg11
VG,S,C,
p271
sg13
VFish Old
p272
sg15
V10
p273
sg17
g273
sg19
V85
p274
sbag1
(g2
g3
Ntp275
Rp276
(dp277
g7
V118
p278
sg9
VGoldeen
p279
sg11
VG,S,C,
p280
sg13
VFish Good
p281
sg15
V20
p282
sg17
g282
sg19
V65
p283
sbag1
(g2
g3
Ntp284
Rp285
(dp286
g7
V129
p287
sg9
VMagikarp
p288
sg11
VG,S,C,
p289
sg13
VFish Good
p290
sg15
V20
p291
sg17
g291
sg19
V35
p292
sbag1
(g2
g3
Ntp293
Rp294
(dp295
g7
V118
p296
sg9
VGoldeen
p297
sg11
VG,S,C,
p298
sg13
VFish Super
p299
sg15
V40
p300
sg17
g300
sg19
V70
p301
sbag1
(g2
g3
Ntp302
Rp303
(dp304
g7
V119
p305
sg9
VSeaking
p306
sg11
VG,S,C,
p307
sg13
VFish Super
p308
sg15
V40
p309
sg17
g309
sg19
V10
p310
sbag1
(g2
g3
Ntp311
Rp312
(dp313
g7
V129
p314
sg9
VMagikarp
p315
sg11
VG,S,C,
p316
sg13
VFish Super
p317
sg15
V40
p318
sg17
g318
sg19
V20
p319
sbag1
(g2
g3
Ntp320
Rp321
(dp322
g7
V041
p323
sg9
VZubat
p324
sg11
VHG,SS,
p325
sg13
VCave
p326
sg15
g16
sg17
g18
sg19
V39
p327
sbag1
(g2
g3
Ntp328
Rp329
(dp330
g7
V074
p331
sg9
VGeodude
p332
sg11
VHG,SS,
p333
sg13
VCave
p334
sg15
g16
sg17
g18
sg19
V60
p335
sbag1
(g2
g3
Ntp336
Rp337
(dp338
g7
V206
p339
sg9
VDunsparce
p340
sg11
VHG,SS,
p341
sg13
VCave
p342
sg15
g18
sg17
g18
sg19
V1
p343
sbag1
(g2
g3
Ntp344
Rp345
(dp346
g7
V129
p347
sg9
VMagikarp
p348
sg11
VHG,SS,
p349
sg13
VSurf
p350
sg15
g16
sg17
V20
p351
sg19
V100
p352
sbag1
(g2
g3
Ntp353
Rp354
(dp355
g7
V118
p356
sg9
VGoldeen
p357
sg11
VHG,SS,
p358
sg13
VFish Old
p359
sg15
V10
p360
sg17
g360
sg19
V15
p361
sbag1
(g2
g3
Ntp362
Rp363
(dp364
g7
V129
p365
sg9
VMagikarp
p366
sg11
VHG,SS,
p367
sg13
VFish Old
p368
sg15
V10
p369
sg17
g369
sg19
V85
p370
sbag1
(g2
g3
Ntp371
Rp372
(dp373
g7
V118
p374
sg9
VGoldeen
p375
sg11
VHG,SS,
p376
sg13
VFish Good
p377
sg15
V20
p378
sg17
g378
sg19
V60
p379
sbag1
(g2
g3
Ntp380
Rp381
(dp382
g7
V129
p383
sg9
VMagikarp
p384
sg11
VHG,SS,
p385
sg13
VFish Good
p386
sg15
V20
p387
sg17
g387
sg19
V40
p388
sbag1
(g2
g3
Ntp389
Rp390
(dp391
g7
V118
p392
sg9
VGoldeen
p393
sg11
VHG,SS,
p394
sg13
VFish Super
p395
sg15
V40
p396
sg17
g396
sg19
V70
p397
sbag1
(g2
g3
Ntp398
Rp399
(dp400
g7
V119
p401
sg9
VSeaking
p402
sg11
VHG,SS,
p403
sg13
VFish Super
p404
sg15
V40
p405
sg17
g405
sg19
V10
p406
sbag1
(g2
g3
Ntp407
Rp408
(dp409
g7
V129
p410
sg9
VMagikarp
p411
sg11
VHG,SS,
p412
sg13
VFish Super
p413
sg15
V40
p414
sg17
g414
sg19
V20
p415
sbag1
(g2
g3
Ntp416
Rp417
(dp418
g7
V074
p419
sg9
VGeodude
p420
sg11
VHG,SS,
p421
sg13
VRock Smash
p422
sg15
V8
p423
sg17
V14
p424
sg19
V10
p425
sbag1
(g2
g3
Ntp426
Rp427
(dp428
g7
V206
p429
sg9
VDunsparce
p430
sg11
VHG,SS,
p431
sg13
VRock Smash
p432
sg15
g18
sg17
g423
sg19
V90
p433
sbag1
(g2
g3
Ntp434
Rp435
(dp436
g7
V041
p437
sg9
VZubat
p438
sg11
VHG,SS,
p439
sg13
VCave
p440
sg15
g16
sg17
g18
sg19
V19
p441
sbag1
(g2
g3
Ntp442
Rp443
(dp444
g7
V074
p445
sg9
VGeodude
p446
sg11
VHG,SS,
p447
sg13
VCave
p448
sg15
g16
sg17
g18
sg19
V40
p449
sbag1
(g2
g3
Ntp450
Rp451
(dp452
g7
V206
p453
sg9
VDunsparce
p454
sg11
VHG,SS,
p455
sg13
VCave
p456
sg15
g16
sg17
g18
sg19
V41
p457
sbag1
(g2
g3
Ntp458
Rp459
(dp460
g7
V296
p461
sg9
VMakuhita
p462
sg11
VHG,SS,
p463
sg13
VHoenn
p464
sg15
g16
sg17
g16
sg19
V20
p465
sbag1
(g2
g3
Ntp466
Rp467
(dp468
g7
V359
p469
sg9
VAbsol
p470
sg11
VHG,SS,
p471
sg13
VHoenn
p472
sg15
g16
sg17
g158
sg19
V20
p473
sbag1
(g2
g3
Ntp474
Rp475
(dp476
g7
V433
p477
sg9
VChingling
p478
sg11
VHG,SS,
p479
sg13
VSinnoh
p480
sg15
g16
sg17
g16
sg19
V20
p481
sbag1
(g2
g3
Ntp482
Rp483
(dp484
g7
V436
p485
sg9
VBronzor
p486
sg11
VHG,SS,
p487
sg13
VSinnoh
p488
sg15
g16
sg17
g158
sg19
V20
p489
sbag1
(g2
g3
Ntp490
Rp491
(dp492
g7
V041
p493
sg9
VZubat
p494
sg11
VHG,SS,
p495
sg13
VCave
p496
sg15
V23
p497
sg17
g497
sg19
V30
p498
sbag1
(g2
g3
Ntp499
Rp500
(dp501
g7
V042
p502
sg9
VGolbat
p503
sg11
VHG,SS,
p504
sg13
VCave
p505
sg15
V23
p506
sg17
g506
sg19
V5
p507
sbag1
(g2
g3
Ntp508
Rp509
(dp510
g7
V074
p511
sg9
VGeodude
p512
sg11
VHG,SS,
p513
sg13
VCave
p514
sg15
V23
p515
sg17
g515
sg19
V30
p516
sbag1
(g2
g3
Ntp517
Rp518
(dp519
g7
V075
p520
sg9
VGraveler
p521
sg11
VHG,SS,
p522
sg13
VCave
p523
sg15
V25
p524
sg17
g524
sg19
V20
p525
sbag1
(g2
g3
Ntp526
Rp527
(dp528
g7
V202
p529
sg9
VWobbuffet
p530
sg11
VHG,SS,
p531
sg13
VCave
p532
sg15
V20
p533
sg17
V25
p534
sg19
V15
p535
sbag1
(g2
g3
Ntp536
Rp537
(dp538
g7
V129
p539
sg9
VMagikarp
p540
sg11
VHG,SS,
p541
sg13
VSurf
p542
sg15
g16
sg17
V20
p543
sg19
V100
p544
sbag1
(g2
g3
Ntp545
Rp546
(dp547
g7
V118
p548
sg9
VGoldeen
p549
sg11
VHG,SS,
p550
sg13
VFish Old
p551
sg15
V10
p552
sg17
g552
sg19
V15
p553
sbag1
(g2
g3
Ntp554
Rp555
(dp556
g7
V129
p557
sg9
VMagikarp
p558
sg11
VHG,SS,
p559
sg13
VFish Old
p560
sg15
V10
p561
sg17
g561
sg19
V85
p562
sbag1
(g2
g3
Ntp563
Rp564
(dp565
g7
V118
p566
sg9
VGoldeen
p567
sg11
VHG,SS,
p568
sg13
VFish Good
p569
sg15
V20
p570
sg17
g570
sg19
V60
p571
sbag1
(g2
g3
Ntp572
Rp573
(dp574
g7
V129
p575
sg9
VMagikarp
p576
sg11
VHG,SS,
p577
sg13
VFish Good
p578
sg15
V20
p579
sg17
g579
sg19
V40
p580
sbag1
(g2
g3
Ntp581
Rp582
(dp583
g7
V118
p584
sg9
VGoldeen
p585
sg11
VHG,SS,
p586
sg13
VFish Super
p587
sg15
V40
p588
sg17
g588
sg19
V70
p589
sbag1
(g2
g3
Ntp590
Rp591
(dp592
g7
V119
p593
sg9
VSeaking
p594
sg11
VHG,SS,
p595
sg13
VFish Super
p596
sg15
V40
p597
sg17
g597
sg19
V10
p598
sbag1
(g2
g3
Ntp599
Rp600
(dp601
g7
V129
p602
sg9
VMagikarp
p603
sg11
VHG,SS,
p604
sg13
VFish Super
p605
sg15
V40
p606
sg17
g606
sg19
V20
p607
sbag1
(g2
g3
Ntp608
Rp609
(dp610
g7
V296
p611
sg9
VMakuhita
p612
sg11
VHG,SS,
p613
sg13
VHoenn
p614
sg15
V25
p615
sg17
g615
sg19
V20
p616
sbag1
(g2
g3
Ntp617
Rp618
(dp619
g7
V359
p620
sg9
VAbsol
p621
sg11
VHG,SS,
p622
sg13
VHoenn
p623
sg15
V23
p624
sg17
g624
sg19
V20
p625
sbag1
(g2
g3
Ntp626
Rp627
(dp628
g7
V433
p629
sg9
VChingling
p630
sg11
VHG,SS,
p631
sg13
VSinnoh
p632
sg15
V25
p633
sg17
g633
sg19
V20
p634
sbag1
(g2
g3
Ntp635
Rp636
(dp637
g7
V436
p638
sg9
VBronzor
p639
sg11
VHG,SS,
p640
sg13
VSinnoh
p641
sg15
V23
p642
sg17
g642
sg19
V20
p643
sba.