(lp0
ccopy_reg
_reconstructor
p1
(c__main__
WildPokemon
p2
c__builtin__
object
p3
Ntp4
Rp5
(dp6
VpDexNo
p7
V551
p8
sVpSpecies
p9
VSandile
p10
sVpGames
p11
VB,W,
p12
sVpArea
p13
VSand
p14
sVpMinLevel
p15
V19
p16
sVpMaxLevel
p17
V22
p18
sVpRate
p19
V40
p20
sbag1
(g2
g3
Ntp21
Rp22
(dp23
g7
V554
p24
sg9
VDarumaka
p25
sg11
VB,W,
p26
sg13
VSand
p27
sg15
V19
p28
sg17
V20
p29
sg19
V30
p30
sbag1
(g2
g3
Ntp31
Rp32
(dp33
g7
V556
p34
sg9
VMaractus
p35
sg11
VB,W,
p36
sg13
VSand
p37
sg15
V20
p38
sg17
g38
sg19
V10
p39
sbag1
(g2
g3
Ntp40
Rp41
(dp42
g7
V559
p43
sg9
VScraggy
p44
sg11
VB,W,
p45
sg13
VSand
p46
sg15
V20
p47
sg17
g47
sg19
V10
p48
sbag1
(g2
g3
Ntp49
Rp50
(dp51
g7
V557
p52
sg9
VDwebble
p53
sg11
VB,W,
p54
sg13
VSand
p55
sg15
V20
p56
sg17
V22
p57
sg19
V10
p58
sbag1
(g2
g3
Ntp59
Rp60
(dp61
g7
V551
p62
sg9
VSandile
p63
sg11
VB,W,
p64
sg13
VSand
p65
sg15
V19
p66
sg17
V22
p67
sg19
V40
p68
sbag1
(g2
g3
Ntp69
Rp70
(dp71
g7
V554
p72
sg9
VDarumaka
p73
sg11
VB,W,
p74
sg13
VSand
p75
sg15
V19
p76
sg17
V20
p77
sg19
V30
p78
sbag1
(g2
g3
Ntp79
Rp80
(dp81
g7
V556
p82
sg9
VMaractus
p83
sg11
VB,W,
p84
sg13
VSand
p85
sg15
V20
p86
sg17
g86
sg19
V10
p87
sbag1
(g2
g3
Ntp88
Rp89
(dp90
g7
V557
p91
sg9
VDwebble
p92
sg11
VB,W,
p93
sg13
VSand
p94
sg15
V20
p95
sg17
V22
p96
sg19
V10
p97
sbag1
(g2
g3
Ntp98
Rp99
(dp100
g7
V561
p101
sg9
VSigilyph
p102
sg11
VB,W,
p103
sg13
VSand
p104
sg15
V20
p105
sg17
g105
sg19
V10
p106
sbag1
(g2
g3
Ntp107
Rp108
(dp109
g7
V555
p110
sg9
VDarmanitan
p111
sg11
VB,W,
p112
sg13
VSpecial
p113
sg15
V35
p114
sg17
g114
sg19
V0
p115
sbag1
(g2
g3
Ntp116
Rp117
(dp118
g7
V027
p119
sg9
VSandshrew
p120
sg11
VB2,W2,
p121
sg13
VSand
p122
sg15
V19
p123
sg17
V20
p124
sg19
V10
p125
sbag1
(g2
g3
Ntp126
Rp127
(dp128
g7
V551
p129
sg9
VSandile
p130
sg11
VB2,W2,
p131
sg13
VSand
p132
sg15
V18
p133
sg17
V19
p134
sg19
V30
p135
sbag1
(g2
g3
Ntp136
Rp137
(dp138
g7
V554
p139
sg9
VDarumaka
p140
sg11
VB2,W2,
p141
sg13
VSand
p142
sg15
V18
p143
sg17
V19
p144
sg19
V30
p145
sbag1
(g2
g3
Ntp146
Rp147
(dp148
g7
V556
p149
sg9
VMaractus
p150
sg11
VB2,W2,
p151
sg13
VSand
p152
sg15
V19
p153
sg17
g153
sg19
V10
p154
sbag1
(g2
g3
Ntp155
Rp156
(dp157
g7
V557
p158
sg9
VDwebble
p159
sg11
VB2,W2,
p160
sg13
VSand
p161
sg15
V19
p162
sg17
V21
p163
sg19
V10
p164
sbag1
(g2
g3
Ntp165
Rp166
(dp167
g7
V559
p168
sg9
VScraggy
p169
sg11
VB2,W2,
p170
sg13
VSand
p171
sg15
V19
p172
sg17
g172
sg19
V10
p173
sbag1
(g2
g3
Ntp174
Rp175
(dp176
g7
V027
p177
sg9
VSandshrew
p178
sg11
VB2,W2,
p179
sg13
VSand
p180
sg15
V19
p181
sg17
V20
p182
sg19
V15
p183
sbag1
(g2
g3
Ntp184
Rp185
(dp186
g7
V328
p187
sg9
VTrapinch
p188
sg11
VB2,W2,
p189
sg13
VSand
p190
sg15
V21
p191
sg17
g191
sg19
V5
p192
sbag1
(g2
g3
Ntp193
Rp194
(dp195
g7
V551
p196
sg9
VSandile
p197
sg11
VB2,W2,
p198
sg13
VSand
p199
sg15
V18
p200
sg17
V19
p201
sg19
V30
p202
sbag1
(g2
g3
Ntp203
Rp204
(dp205
g7
V554
p206
sg9
VDarumaka
p207
sg11
VB2,W2,
p208
sg13
VSand
p209
sg15
V18
p210
sg17
g210
sg19
V20
p211
sbag1
(g2
g3
Ntp212
Rp213
(dp214
g7
V556
p215
sg9
VMaractus
p216
sg11
VB2,W2,
p217
sg13
VSand
p218
sg15
V19
p219
sg17
g219
sg19
V10
p220
sbag1
(g2
g3
Ntp221
Rp222
(dp223
g7
V557
p224
sg9
VDwebble
p225
sg11
VB2,W2,
p226
sg13
VSand
p227
sg15
V19
p228
sg17
V21
p229
sg19
V10
p230
sbag1
(g2
g3
Ntp231
Rp232
(dp233
g7
V561
p234
sg9
VSigilyph
p235
sg11
VB2,W2,
p236
sg13
VSand
p237
sg15
V19
p238
sg17
g238
sg19
V10
p239
sbag1
(g2
g3
Ntp240
Rp241
(dp242
g7
V450
p243
sg9
VHippowdon
p244
sg11
VB2,W2,
p245
sg13
VSand
p246
sg15
V40
p247
sg17
V55
p248
sg19
V40
p249
sbag1
(g2
g3
Ntp250
Rp251
(dp252
g7
V551
p253
sg9
VSandile
p254
sg11
VB2,W2,
p255
sg13
VSpecial
p256
sg15
V22
p257
sg17
g257
sg19
V0
p258
sbag1
(g2
g3
Ntp259
Rp260
(dp261
g7
V554
p262
sg9
VDarumaka
p263
sg11
VB2,W2,
p264
sg13
VSpecial
p265
sg15
V22
p266
sg17
g266
sg19
V0
p267
sbag1
(g2
g3
Ntp268
Rp269
(dp270
g7
V555
p271
sg9
VDarmanitan
p272
sg11
VB2,W2,
p273
sg13
VSpecial
p274
sg15
V35
p275
sg17
g275
sg19
V0
p276
sbag1
(g2
g3
Ntp277
Rp278
(dp279
g7
V559
p280
sg9
VScraggy
p281
sg11
VB2,W2,
p282
sg13
VSpecial
p283
sg15
V22
p284
sg17
g284
sg19
V0
p285
sbag1
(g2
g3
Ntp286
Rp287
(dp288
g7
V561
p289
sg9
VSigilyph
p290
sg11
VB2,W2,
p291
sg13
VSpecial
p292
sg15
V22
p293
sg17
g293
sg19
V0
p294
sba.