(lp0
ccopy_reg
_reconstructor
p1
(c__main__
WildPokemon
p2
c__builtin__
object
p3
Ntp4
Rp5
(dp6
VpDexNo
p7
V132
p8
sVpSpecies
p9
VDitto
p10
sVpGames
p11
VE,
p12
sVpArea
p13
VCave
p14
sVpMinLevel
p15
V38
p16
sVpMaxLevel
p17
V45
p18
sVpRate
p19
V50
p20
sbag1
(g2
g3
Ntp21
Rp22
(dp23
g7
V293
p24
sg9
VWhismur
p25
sg11
g12
sg13
VCave
p26
sg15
V35
p27
sg17
V38
p28
sg19
V34
p29
sbag1
(g2
g3
Ntp30
Rp31
(dp32
g7
V294
p33
sg9
VLoudred
p34
sg11
g12
sg13
VCave
p35
sg15
V38
p36
sg17
V44
p37
sg19
V16
p38
sba.