(lp0
ccopy_reg
_reconstructor
p1
(c__main__
WildPokemon
p2
c__builtin__
object
p3
Ntp4
Rp5
(dp6
VpDexNo
p7
V345
p8
sVpSpecies
p9
VLileep
p10
sVpGames
p11
VRu,S,E,
p12
sVpArea
p13
VRoot
p14
sVpMinLevel
p15
V20
p16
sVpMaxLevel
p17
g16
sVpRate
p18
V0
p19
sbag1
(g2
g3
Ntp20
Rp21
(dp22
g7
V347
p23
sg9
VAnorith
p24
sg11
VRu,S,E,
p25
sg13
VClaw
p26
sg15
V20
p27
sg17
g27
sg18
V0
p28
sbag1
(g2
g3
Ntp29
Rp30
(dp31
g7
V138
p32
sg9
VOmanyte
p33
sg11
VOR,AS,
p34
sg13
VHelix
p35
sg15
V20
p36
sg17
g36
sg18
V0
p37
sbag1
(g2
g3
Ntp38
Rp39
(dp40
g7
V140
p41
sg9
VKabuto
p42
sg11
VOR,AS,
p43
sg13
VDome
p44
sg15
V20
p45
sg17
g45
sg18
V0
p46
sbag1
(g2
g3
Ntp47
Rp48
(dp49
g7
V142
p50
sg9
VAerodactyl
p51
sg11
VOR,AS,
p52
sg13
VAmber
p53
sg15
V20
p54
sg17
g54
sg18
V0
p55
sbag1
(g2
g3
Ntp56
Rp57
(dp58
g7
V345
p59
sg9
VLileep
p60
sg11
VOR,AS,
p61
sg13
VRoot
p62
sg15
V20
p63
sg17
g63
sg18
V0
p64
sbag1
(g2
g3
Ntp65
Rp66
(dp67
g7
V347
p68
sg9
VAnorith
p69
sg11
VOR,AS,
p70
sg13
VClaw
p71
sg15
V20
p72
sg17
g72
sg18
V0
p73
sbag1
(g2
g3
Ntp74
Rp75
(dp76
g7
V408
p77
sg9
VCranidos
p78
sg11
VOR,AS,
p79
sg13
VSkull
p80
sg15
V20
p81
sg17
g81
sg18
V0
p82
sbag1
(g2
g3
Ntp83
Rp84
(dp85
g7
V410
p86
sg9
VShieldon
p87
sg11
VOR,AS,
p88
sg13
VArmor
p89
sg15
V20
p90
sg17
g90
sg18
V0
p91
sbag1
(g2
g3
Ntp92
Rp93
(dp94
g7
V564
p95
sg9
VTirtouga
p96
sg11
VOR,AS,
p97
sg13
VCover
p98
sg15
V20
p99
sg17
g99
sg18
V0
p100
sbag1
(g2
g3
Ntp101
Rp102
(dp103
g7
V566
p104
sg9
VArchen
p105
sg11
VOR,AS,
p106
sg13
VPlume
p107
sg15
V20
p108
sg17
g108
sg18
V0
p109
sbag1
(g2
g3
Ntp110
Rp111
(dp112
g7
V696
p113
sg9
VTyrunt
p114
sg11
VOR,AS,
p115
sg13
VJaw
p116
sg15
V20
p117
sg17
g117
sg18
V0
p118
sbag1
(g2
g3
Ntp119
Rp120
(dp121
g7
V698
p122
sg9
VAmaura
p123
sg11
VOR,AS,
p124
sg13
VSail
p125
sg15
V20
p126
sg17
g126
sg18
V0
p127
sba.