(lp0
ccopy_reg
_reconstructor
p1
(c__main__
WildPokemon
p2
c__builtin__
object
p3
Ntp4
Rp5
(dp6
VpDexNo
p7
V072
p8
sVpSpecies
p9
VTentacool
p10
sVpGames
p11
VRu,S,E,
p12
sVpArea
p13
VSurf
p14
sVpMinLevel
p15
V5
p16
sVpMaxLevel
p17
V35
p18
sVpRate
p19
V60
p20
sbag1
(g2
g3
Ntp21
Rp22
(dp23
g7
V278
p24
sg9
VWingull
p25
sg11
VRu,S,E,
p26
sg13
VSurf
p27
sg15
V10
p28
sg17
V30
p29
sg19
V35
p30
sbag1
(g2
g3
Ntp31
Rp32
(dp33
g7
V279
p34
sg9
VPelipper
p35
sg11
VRu,S,E,
p36
sg13
VSurf
p37
sg15
V25
p38
sg17
V30
p39
sg19
V5
p40
sbag1
(g2
g3
Ntp41
Rp42
(dp43
g7
V072
p44
sg9
VTentacool
p45
sg11
VRu,S,E,
p46
sg13
VFish Old
p47
sg15
g16
sg17
V10
p48
sg19
V30
p49
sbag1
(g2
g3
Ntp50
Rp51
(dp52
g7
V129
p53
sg9
VMagikarp
p54
sg11
VRu,S,E,
p55
sg13
VFish Old
p56
sg15
g16
sg17
V10
p57
sg19
V70
p58
sbag1
(g2
g3
Ntp59
Rp60
(dp61
g7
V072
p62
sg9
VTentacool
p63
sg11
VRu,S,E,
p64
sg13
VFish Good
p65
sg15
V10
p66
sg17
V30
p67
sg19
V20
p68
sbag1
(g2
g3
Ntp69
Rp70
(dp71
g7
V129
p72
sg9
VMagikarp
p73
sg11
VRu,S,E,
p74
sg13
VFish Good
p75
sg15
V10
p76
sg17
V30
p77
sg19
V60
p78
sbag1
(g2
g3
Ntp79
Rp80
(dp81
g7
V320
p82
sg9
VWailmer
p83
sg11
VRu,S,E,
p84
sg13
VFish Good
p85
sg15
V10
p86
sg17
V30
p87
sg19
V20
p88
sbag1
(g2
g3
Ntp89
Rp90
(dp91
g7
V320
p92
sg9
VWailmer
p93
sg11
VRu,S,E,
p94
sg13
VFish Super
p95
sg15
V20
p96
sg17
V45
p97
sg19
V100
p98
sbag1
(g2
g3
Ntp99
Rp100
(dp101
g7
V072
p102
sg9
VTentacool
p103
sg11
VOR,AS,
p104
sg13
VSurf
p105
sg15
V20
p106
sg17
V25
p107
sg19
V65
p108
sbag1
(g2
g3
Ntp109
Rp110
(dp111
g7
V278
p112
sg9
VWingull
p113
sg11
VOR,AS,
p114
sg13
VSurf
p115
sg15
V20
p116
sg17
g116
sg19
V30
p117
sbag1
(g2
g3
Ntp118
Rp119
(dp120
g7
V279
p121
sg9
VPelipper
p122
sg11
VOR,AS,
p123
sg13
VSurf
p124
sg15
V25
p125
sg17
V30
p126
sg19
V5
p127
sbag1
(g2
g3
Ntp128
Rp129
(dp130
g7
V072
p131
sg9
VTentacool
p132
sg11
VOR,AS,
p133
sg13
VFish Old
p134
sg15
g16
sg17
g16
sg19
V35
p135
sbag1
(g2
g3
Ntp136
Rp137
(dp138
g7
V129
p139
sg9
VMagikarp
p140
sg11
VOR,AS,
p141
sg13
VFish Old
p142
sg15
V10
p143
sg17
V15
p144
sg19
V65
p145
sbag1
(g2
g3
Ntp146
Rp147
(dp148
g7
V072
p149
sg9
VTentacool
p150
sg11
VOR,AS,
p151
sg13
VFish Good
p152
sg15
V25
p153
sg17
g153
sg19
V35
p154
sbag1
(g2
g3
Ntp155
Rp156
(dp157
g7
V129
p158
sg9
VMagikarp
p159
sg11
VOR,AS,
p160
sg13
VFish Good
p161
sg15
V25
p162
sg17
g162
sg19
V60
p163
sbag1
(g2
g3
Ntp164
Rp165
(dp166
g7
V320
p167
sg9
VWailmer
p168
sg11
VOR,AS,
p169
sg13
VFish Good
p170
sg15
V25
p171
sg17
g171
sg19
V5
p172
sbag1
(g2
g3
Ntp173
Rp174
(dp175
g7
V320
p176
sg9
VWailmer
p177
sg11
VOR,AS,
p178
sg13
VFish Super
p179
sg15
V30
p180
sg17
V40
p181
sg19
V100
p182
sba.