(lp0
ccopy_reg
_reconstructor
p1
(c__main__
WildPokemon
p2
c__builtin__
object
p3
Ntp4
Rp5
(dp6
VpDexNo
p7
V520
p8
sVpSpecies
p9
VTranquill
p10
sVpGames
p11
VB,W,
p12
sVpArea
p13
VGrass
p14
sVpMinLevel
p15
V30
p16
sVpMaxLevel
p17
V32
p18
sVpRate
p19
V30
p20
sbag1
(g2
g3
Ntp21
Rp22
(dp23
g7
V582
p24
sg9
VVanillite
p25
sg11
VB,W,
p26
sg13
VGrass
p27
sg15
V31
p28
sg17
V33
p29
sg19
V30
p30
sbag1
(g2
g3
Ntp31
Rp32
(dp33
g7
V585
p34
sg9
VDeerling
p35
sg11
VB,W,
p36
sg13
VGrass
p37
sg15
V31
p38
sg17
V32
p39
sg19
V30
p40
sbag1
(g2
g3
Ntp41
Rp42
(dp43
g7
V585
p44
sg9
VDeerling
p45
sg11
VB,W,
p46
sg13
VGrass
p47
sg15
V31
p48
sg17
V32
p49
sg19
V30
p50
sbag1
(g2
g3
Ntp51
Rp52
(dp53
g7
V585
p54
sg9
VDeerling
p55
sg11
VB,W,
p56
sg13
VGrass
p57
sg15
V31
p58
sg17
V32
p59
sg19
V30
p60
sbag1
(g2
g3
Ntp61
Rp62
(dp63
g7
V585
p64
sg9
VDeerling
p65
sg11
VB,W,
p66
sg13
VGrass
p67
sg15
V30
p68
sg17
V32
p69
sg19
V30
p70
sbag1
(g2
g3
Ntp71
Rp72
(dp73
g7
V619
p74
sg9
VMienfoo
p75
sg11
VB,W,
p76
sg13
VGrass
p77
sg15
V30
p78
sg17
V33
p79
sg19
V30
p80
sbag1
(g2
g3
Ntp81
Rp82
(dp83
g7
V621
p84
sg9
VDruddigon
p85
sg11
VB,W,
p86
sg13
VGrass
p87
sg15
V31
p88
sg17
V33
p89
sg19
V10
p90
sbag1
(g2
g3
Ntp91
Rp92
(dp93
g7
V613
p94
sg9
VCubchoo
p95
sg11
VB,W,
p96
sg13
VGrass
p97
sg15
V33
p98
sg17
g98
sg19
V10
p99
sbag1
(g2
g3
Ntp100
Rp101
(dp102
g7
V583
p103
sg9
VVanillish
p104
sg11
VB,W,
p105
sg13
VDark
p106
sg15
V35
p107
sg17
V37
p108
sg19
V30
p109
sbag1
(g2
g3
Ntp110
Rp111
(dp112
g7
V586
p113
sg9
VSawsbuck
p114
sg11
VB,W,
p115
sg13
VDark
p116
sg15
V34
p117
sg17
V36
p118
sg19
V30
p119
sbag1
(g2
g3
Ntp120
Rp121
(dp122
g7
V619
p123
sg9
VMienfoo
p124
sg11
VB,W,
p125
sg13
VDark
p126
sg15
V34
p127
sg17
V37
p128
sg19
V30
p129
sbag1
(g2
g3
Ntp130
Rp131
(dp132
g7
V614
p133
sg9
VBeartic
p134
sg11
VB,W,
p135
sg13
VDark
p136
sg15
V37
p137
sg17
g137
sg19
V10
p138
sbag1
(g2
g3
Ntp139
Rp140
(dp141
g7
V531
p142
sg9
VAudino
p143
sg11
VB,W,
p144
sg13
VRustling
p145
sg15
V30
p146
sg17
V33
p147
sg19
V90
p148
sbag1
(g2
g3
Ntp149
Rp150
(dp151
g7
V587
p152
sg9
VEmolga
p153
sg11
VB,W,
p154
sg13
VRustling
p155
sg15
V31
p156
sg17
g156
sg19
V10
p157
sbag1
(g2
g3
Ntp158
Rp159
(dp160
g7
V521
p161
sg9
VUnfezant
p162
sg11
VB,W,
p163
sg13
VRustling
p164
sg15
V33
p165
sg17
g165
sg19
V0
p166
sbag1
(g2
g3
Ntp167
Rp168
(dp169
g7
V521
p170
sg9
VUnfezant
p171
sg11
VB,W,
p172
sg13
VRustling
p173
sg15
V33
p174
sg17
g174
sg19
V0
p175
sbag1
(g2
g3
Ntp176
Rp177
(dp178
g7
V520
p179
sg9
VTranquill
p180
sg11
VB,W,
p181
sg13
VGrass
p182
sg15
V30
p183
sg17
V32
p184
sg19
V30
p185
sbag1
(g2
g3
Ntp186
Rp187
(dp188
g7
V582
p189
sg9
VVanillite
p190
sg11
VB,W,
p191
sg13
VGrass
p192
sg15
V31
p193
sg17
V33
p194
sg19
V30
p195
sbag1
(g2
g3
Ntp196
Rp197
(dp198
g7
V585
p199
sg9
VDeerling
p200
sg11
VB,W,
p201
sg13
VGrass
p202
sg15
V31
p203
sg17
V32
p204
sg19
V30
p205
sbag1
(g2
g3
Ntp206
Rp207
(dp208
g7
V585
p209
sg9
VDeerling
p210
sg11
VB,W,
p211
sg13
VGrass
p212
sg15
V31
p213
sg17
V32
p214
sg19
V30
p215
sbag1
(g2
g3
Ntp216
Rp217
(dp218
g7
V585
p219
sg9
VDeerling
p220
sg11
VB,W,
p221
sg13
VGrass
p222
sg15
V31
p223
sg17
V32
p224
sg19
V30
p225
sbag1
(g2
g3
Ntp226
Rp227
(dp228
g7
V585
p229
sg9
VDeerling
p230
sg11
VB,W,
p231
sg13
VGrass
p232
sg15
V30
p233
sg17
V32
p234
sg19
V30
p235
sbag1
(g2
g3
Ntp236
Rp237
(dp238
g7
V619
p239
sg9
VMienfoo
p240
sg11
VB,W,
p241
sg13
VGrass
p242
sg15
V30
p243
sg17
V33
p244
sg19
V30
p245
sbag1
(g2
g3
Ntp246
Rp247
(dp248
g7
V621
p249
sg9
VDruddigon
p250
sg11
VB,W,
p251
sg13
VGrass
p252
sg15
V31
p253
sg17
V33
p254
sg19
V10
p255
sbag1
(g2
g3
Ntp256
Rp257
(dp258
g7
V613
p259
sg9
VCubchoo
p260
sg11
VB,W,
p261
sg13
VGrass
p262
sg15
V33
p263
sg17
g263
sg19
V10
p264
sbag1
(g2
g3
Ntp265
Rp266
(dp267
g7
V520
p268
sg9
VTranquill
p269
sg11
VB,W,
p270
sg13
VDark
p271
sg15
V35
p272
sg17
V36
p273
sg19
V30
p274
sbag1
(g2
g3
Ntp275
Rp276
(dp277
g7
V583
p278
sg9
VVanillish
p279
sg11
VB,W,
p280
sg13
VDark
p281
sg15
V35
p282
sg17
V37
p283
sg19
V30
p284
sbag1
(g2
g3
Ntp285
Rp286
(dp287
g7
V586
p288
sg9
VSawsbuck
p289
sg11
VB,W,
p290
sg13
VDark
p291
sg15
V34
p292
sg17
V36
p293
sg19
V30
p294
sbag1
(g2
g3
Ntp295
Rp296
(dp297
g7
V586
p298
sg9
VSawsbuck
p299
sg11
VB,W,
p300
sg13
VDark
p301
sg15
V34
p302
sg17
V36
p303
sg19
V30
p304
sbag1
(g2
g3
Ntp305
Rp306
(dp307
g7
V586
p308
sg9
VSawsbuck
p309
sg11
VB,W,
p310
sg13
VDark
p311
sg15
V34
p312
sg17
V36
p313
sg19
V30
p314
sbag1
(g2
g3
Ntp315
Rp316
(dp317
g7
V586
p318
sg9
VSawsbuck
p319
sg11
VB,W,
p320
sg13
VDark
p321
sg15
V34
p322
sg17
V36
p323
sg19
V30
p324
sbag1
(g2
g3
Ntp325
Rp326
(dp327
g7
V619
p328
sg9
VMienfoo
p329
sg11
VB,W,
p330
sg13
VDark
p331
sg15
V33
p332
sg17
V36
p333
sg19
V30
p334
sbag1
(g2
g3
Ntp335
Rp336
(dp337
g7
V621
p338
sg9
VDruddigon
p339
sg11
VB,W,
p340
sg13
VDark
p341
sg15
V31
p342
sg17
V33
p343
sg19
V10
p344
sbag1
(g2
g3
Ntp345
Rp346
(dp347
g7
V614
p348
sg9
VBeartic
p349
sg11
VB,W,
p350
sg13
VDark
p351
sg15
V33
p352
sg17
V37
p353
sg19
V10
p354
sbag1
(g2
g3
Ntp355
Rp356
(dp357
g7
V531
p358
sg9
VAudino
p359
sg11
VB,W,
p360
sg13
VRustling
p361
sg15
V30
p362
sg17
V33
p363
sg19
V85
p364
sbag1
(g2
g3
Ntp365
Rp366
(dp367
g7
V587
p368
sg9
VEmolga
p369
sg11
VB,W,
p370
sg13
VRustling
p371
sg15
V31
p372
sg17
g372
sg19
V10
p373
sbag1
(g2
g3
Ntp374
Rp375
(dp376
g7
V521
p377
sg9
VUnfezant
p378
sg11
VB,W,
p379
sg13
VRustling
p380
sg15
V33
p381
sg17
g381
sg19
V0
p382
sbag1
(g2
g3
Ntp383
Rp384
(dp385
g7
V521
p386
sg9
VUnfezant
p387
sg11
VB,W,
p388
sg13
VRustling
p389
sg15
V33
p390
sg17
g390
sg19
V0
p391
sbag1
(g2
g3
Ntp392
Rp393
(dp394
g7
V550
p395
sg9
VBasculin
p396
sg11
VB,
p397
sg13
VSurf
p398
sg15
V15
p399
sg17
V35
p400
sg19
V100
p401
sbag1
(g2
g3
Ntp402
Rp403
(dp404
g7
V550
p405
sg9
VBasculin
p406
sg11
VW,
p407
sg13
VSurf
p408
sg15
V15
p409
sg17
V35
p410
sg19
V100
p411
sbag1
(g2
g3
Ntp412
Rp413
(dp414
g7
V550
p415
sg9
VBasculin
p416
sg11
g407
sg13
VRippling
p417
sg15
V15
p418
sg17
V40
p419
sg19
V100
p420
sbag1
(g2
g3
Ntp421
Rp422
(dp423
g7
V550
p424
sg9
VBasculin
p425
sg11
g397
sg13
VRippling
p426
sg15
V15
p427
sg17
V40
p428
sg19
V100
p429
sbag1
(g2
g3
Ntp430
Rp431
(dp432
g7
V147
p433
sg9
VDratini
p434
sg11
VB,W,
p435
sg13
VFishing
p436
sg15
V35
p437
sg17
V55
p438
sg19
V65
p439
sbag1
(g2
g3
Ntp440
Rp441
(dp442
g7
V550
p443
sg9
VBasculin
p444
sg11
g397
sg13
VFishing
p445
sg15
V35
p446
sg17
V55
p447
sg19
V30
p448
sbag1
(g2
g3
Ntp449
Rp450
(dp451
g7
V550
p452
sg9
VBasculin
p453
sg11
g407
sg13
VFishing
p454
sg15
V35
p455
sg17
V55
p456
sg19
V30
p457
sbag1
(g2
g3
Ntp458
Rp459
(dp460
g7
V148
p461
sg9
VDragonair
p462
sg11
VB,W,
p463
sg13
VFishing
p464
sg15
V35
p465
sg17
V55
p466
sg19
V5
p467
sbag1
(g2
g3
Ntp468
Rp469
(dp470
g7
V147
p471
sg9
VDratini
p472
sg11
VB,W,
p473
sg13
VRippling
p474
sg15
V35
p475
sg17
V60
p476
sg19
V60
p477
sbag1
(g2
g3
Ntp478
Rp479
(dp480
g7
V550
p481
sg9
VBasculin
p482
sg11
g407
sg13
VRippling
p483
sg15
V35
p484
sg17
V60
p485
sg19
V30
p486
sbag1
(g2
g3
Ntp487
Rp488
(dp489
g7
V550
p490
sg9
VBasculin
p491
sg11
g397
sg13
VRippling
p492
sg15
V35
p493
sg17
V60
p494
sg19
V30
p495
sbag1
(g2
g3
Ntp496
Rp497
(dp498
g7
V148
p499
sg9
VDragonair
p500
sg11
VB,W,
p501
sg13
VRippling
p502
sg15
V35
p503
sg17
V70
p504
sg19
V9
p505
sbag1
(g2
g3
Ntp506
Rp507
(dp508
g7
V149
p509
sg9
VDragonite
p510
sg11
VB,W,
p511
sg13
VRippling
p512
sg15
V50
p513
sg17
V70
p514
sg19
V1
p515
sbag1
(g2
g3
Ntp516
Rp517
(dp518
g7
V622
p519
sg9
VGolett
p520
sg11
VB,W,
p521
sg13
V1F
p522
sg15
V30
p523
sg17
V33
p524
sg19
V50
p525
sbag1
(g2
g3
Ntp526
Rp527
(dp528
g7
V621
p529
sg9
VDruddigon
p530
sg11
VB,W,
p531
sg13
V1F
p532
sg15
V30
p533
sg17
V33
p534
sg19
V30
p535
sbag1
(g2
g3
Ntp536
Rp537
(dp538
g7
V619
p539
sg9
VMienfoo
p540
sg11
VB,W,
p541
sg13
V1F
p542
sg15
V33
p543
sg17
g543
sg19
V20
p544
sbag1
(g2
g3
Ntp545
Rp546
(dp547
g7
V622
p548
sg9
VGolett
p549
sg11
VB,W,
p550
sg13
V2F
p551
sg15
V30
p552
sg17
V33
p553
sg19
V100
p554
sbag1
(g2
g3
Ntp555
Rp556
(dp557
g7
V643
p558
sg9
VReshiram
p559
sg11
g397
sg13
VSpecial
p560
sg15
V50
p561
sg17
g561
sg19
V0
p562
sbag1
(g2
g3
Ntp563
Rp564
(dp565
g7
V644
p566
sg9
VZekrom
p567
sg11
g407
sg13
VSpecial
p568
sg15
V50
p569
sg17
g569
sg19
V0
p570
sbag1
(g2
g3
Ntp571
Rp572
(dp573
g7
V520
p574
sg9
VTranquill
p575
sg11
VB2,W2,
p576
sg13
VGrass
p577
sg15
V55
p578
sg17
V58
p579
sg19
V35
p580
sbag1
(g2
g3
Ntp581
Rp582
(dp583
g7
V583
p584
sg9
VVanillish
p585
sg11
VB2,W2,
p586
sg13
VGrass
p587
sg15
V55
p588
sg17
V57
p589
sg19
V25
p590
sbag1
(g2
g3
Ntp591
Rp592
(dp593
g7
V586
p594
sg9
VSawsbuck
p595
sg11
VB2,W2,
p596
sg13
VGrass
p597
sg15
V55
p598
sg17
V58
p599
sg19
V35
p600
sbag1
(g2
g3
Ntp601
Rp602
(dp603
g7
V586
p604
sg9
VSawsbuck
p605
sg11
VB2,W2,
p606
sg13
VGrass
p607
sg15
V55
p608
sg17
V58
p609
sg19
V35
p610
sbag1
(g2
g3
Ntp611
Rp612
(dp613
g7
V586
p614
sg9
VSawsbuck
p615
sg11
VB2,W2,
p616
sg13
VGrass
p617
sg15
V55
p618
sg17
V58
p619
sg19
V35
p620
sbag1
(g2
g3
Ntp621
Rp622
(dp623
g7
V586
p624
sg9
VSawsbuck
p625
sg11
VB2,W2,
p626
sg13
VGrass
p627
sg15
V55
p628
sg17
V57
p629
sg19
V30
p630
sbag1
(g2
g3
Ntp631
Rp632
(dp633
g7
V614
p634
sg9
VBeartic
p635
sg11
VB2,W2,
p636
sg13
VGrass
p637
sg15
V57
p638
sg17
V58
p639
sg19
V15
p640
sbag1
(g2
g3
Ntp641
Rp642
(dp643
g7
V620
p644
sg9
VMienshao
p645
sg11
VB2,W2,
p646
sg13
VGrass
p647
sg15
V56
p648
sg17
V58
p649
sg19
V30
p650
sbag1
(g2
g3
Ntp651
Rp652
(dp653
g7
V621
p654
sg9
VDruddigon
p655
sg11
VB2,W2,
p656
sg13
VGrass
p657
sg15
V58
p658
sg17
g658
sg19
V5
p659
sbag1
(g2
g3
Ntp660
Rp661
(dp662
g7
V583
p663
sg9
VVanillish
p664
sg11
VB2,W2,
p665
sg13
VDark
p666
sg15
V63
p667
sg17
V65
p668
sg19
V25
p669
sbag1
(g2
g3
Ntp670
Rp671
(dp672
g7
V586
p673
sg9
VSawsbuck
p674
sg11
VB2,W2,
p675
sg13
VDark
p676
sg15
V63
p677
sg17
V65
p678
sg19
V30
p679
sbag1
(g2
g3
Ntp680
Rp681
(dp682
g7
V614
p683
sg9
VBeartic
p684
sg11
VB2,W2,
p685
sg13
VDark
p686
sg15
V65
p687
sg17
V66
p688
sg19
V15
p689
sbag1
(g2
g3
Ntp690
Rp691
(dp692
g7
V620
p693
sg9
VMienshao
p694
sg11
VB2,W2,
p695
sg13
VDark
p696
sg15
V64
p697
sg17
V66
p698
sg19
V29
p699
sbag1
(g2
g3
Ntp700
Rp701
(dp702
g7
V619
p703
sg9
VMienfoo
p704
sg11
VB2,W2,
p705
sg13
VDark
p706
sg15
V66
p707
sg17
g707
sg19
V1
p708
sbag1
(g2
g3
Ntp709
Rp710
(dp711
g7
V531
p712
sg9
VAudino
p713
sg11
VB2,W2,
p714
sg13
VRustling
p715
sg15
V55
p716
sg17
V58
p717
sg19
V85
p718
sbag1
(g2
g3
Ntp719
Rp720
(dp721
g7
V587
p722
sg9
VEmolga
p723
sg11
VB2,W2,
p724
sg13
VRustling
p725
sg15
V56
p726
sg17
g726
sg19
V10
p727
sbag1
(g2
g3
Ntp728
Rp729
(dp730
g7
V521
p731
sg9
VUnfezant
p732
sg11
VB2,W2,
p733
sg13
VRustling
p734
sg15
V58
p735
sg17
g735
sg19
V5
p736
sbag1
(g2
g3
Ntp737
Rp738
(dp739
g7
V584
p740
sg9
VVanilluxe
p741
sg11
VB2,W2,
p742
sg13
VRustling
p743
sg15
V58
p744
sg17
g744
sg19
V5
p745
sbag1
(g2
g3
Ntp746
Rp747
(dp748
g7
V520
p749
sg9
VTranquill
p750
sg11
VB2,W2,
p751
sg13
VGrass
p752
sg15
V55
p753
sg17
V58
p754
sg19
V35
p755
sbag1
(g2
g3
Ntp756
Rp757
(dp758
g7
V583
p759
sg9
VVanillish
p760
sg11
VB2,W2,
p761
sg13
VGrass
p762
sg15
V55
p763
sg17
V57
p764
sg19
V25
p765
sbag1
(g2
g3
Ntp766
Rp767
(dp768
g7
V586
p769
sg9
VSawsbuck
p770
sg11
VB2,W2,
p771
sg13
VGrass
p772
sg15
V55
p773
sg17
V58
p774
sg19
V35
p775
sbag1
(g2
g3
Ntp776
Rp777
(dp778
g7
V586
p779
sg9
VSawsbuck
p780
sg11
VB2,W2,
p781
sg13
VGrass
p782
sg15
V55
p783
sg17
V58
p784
sg19
V35
p785
sbag1
(g2
g3
Ntp786
Rp787
(dp788
g7
V586
p789
sg9
VSawsbuck
p790
sg11
VB2,W2,
p791
sg13
VGrass
p792
sg15
V55
p793
sg17
V58
p794
sg19
V35
p795
sbag1
(g2
g3
Ntp796
Rp797
(dp798
g7
V586
p799
sg9
VSawsbuck
p800
sg11
VB2,W2,
p801
sg13
VGrass
p802
sg15
V55
p803
sg17
V57
p804
sg19
V30
p805
sbag1
(g2
g3
Ntp806
Rp807
(dp808
g7
V614
p809
sg9
VBeartic
p810
sg11
VB2,W2,
p811
sg13
VGrass
p812
sg15
V57
p813
sg17
V58
p814
sg19
V15
p815
sbag1
(g2
g3
Ntp816
Rp817
(dp818
g7
V620
p819
sg9
VMienshao
p820
sg11
VB2,W2,
p821
sg13
VGrass
p822
sg15
V56
p823
sg17
V58
p824
sg19
V25
p825
sbag1
(g2
g3
Ntp826
Rp827
(dp828
g7
V621
p829
sg9
VDruddigon
p830
sg11
VB2,W2,
p831
sg13
VGrass
p832
sg15
V58
p833
sg17
g833
sg19
V5
p834
sbag1
(g2
g3
Ntp835
Rp836
(dp837
g7
V520
p838
sg9
VTranquill
p839
sg11
VB2,W2,
p840
sg13
VDark
p841
sg15
V63
p842
sg17
V66
p843
sg19
V35
p844
sbag1
(g2
g3
Ntp845
Rp846
(dp847
g7
V583
p848
sg9
VVanillish
p849
sg11
VB2,W2,
p850
sg13
VDark
p851
sg15
V63
p852
sg17
V65
p853
sg19
V25
p854
sbag1
(g2
g3
Ntp855
Rp856
(dp857
g7
V586
p858
sg9
VSawsbuck
p859
sg11
VB2,W2,
p860
sg13
VDark
p861
sg15
V63
p862
sg17
V66
p863
sg19
V35
p864
sbag1
(g2
g3
Ntp865
Rp866
(dp867
g7
V586
p868
sg9
VSawsbuck
p869
sg11
VB2,W2,
p870
sg13
VDark
p871
sg15
V63
p872
sg17
V66
p873
sg19
V35
p874
sbag1
(g2
g3
Ntp875
Rp876
(dp877
g7
V586
p878
sg9
VSawsbuck
p879
sg11
VB2,W2,
p880
sg13
VDark
p881
sg15
V63
p882
sg17
V66
p883
sg19
V35
p884
sbag1
(g2
g3
Ntp885
Rp886
(dp887
g7
V586
p888
sg9
VSawsbuck
p889
sg11
VB2,W2,
p890
sg13
VDark
p891
sg15
V63
p892
sg17
V65
p893
sg19
V30
p894
sbag1
(g2
g3
Ntp895
Rp896
(dp897
g7
V614
p898
sg9
VBeartic
p899
sg11
VB2,W2,
p900
sg13
VDark
p901
sg15
V65
p902
sg17
V66
p903
sg19
V15
p904
sbag1
(g2
g3
Ntp905
Rp906
(dp907
g7
V620
p908
sg9
VMienshao
p909
sg11
VB2,W2,
p910
sg13
VDark
p911
sg15
V64
p912
sg17
V66
p913
sg19
V25
p914
sbag1
(g2
g3
Ntp915
Rp916
(dp917
g7
V621
p918
sg9
VDruddigon
p919
sg11
VB2,W2,
p920
sg13
VDark
p921
sg15
V66
p922
sg17
g922
sg19
V5
p923
sbag1
(g2
g3
Ntp924
Rp925
(dp926
g7
V531
p927
sg9
VAudino
p928
sg11
VB2,W2,
p929
sg13
VRustling
p930
sg15
V55
p931
sg17
V57
p932
sg19
V85
p933
sbag1
(g2
g3
Ntp934
Rp935
(dp936
g7
V587
p937
sg9
VEmolga
p938
sg11
VB2,W2,
p939
sg13
VRustling
p940
sg15
V56
p941
sg17
g941
sg19
V10
p942
sbag1
(g2
g3
Ntp943
Rp944
(dp945
g7
V521
p946
sg9
VUnfezant
p947
sg11
VB2,W2,
p948
sg13
VRustling
p949
sg15
V57
p950
sg17
g950
sg19
V5
p951
sbag1
(g2
g3
Ntp952
Rp953
(dp954
g7
V584
p955
sg9
VVanilluxe
p956
sg11
VB2,W2,
p957
sg13
VRustling
p958
sg15
V57
p959
sg17
g959
sg19
V5
p960
sbag1
(g2
g3
Ntp961
Rp962
(dp963
g7
V550
p964
sg9
VBasculin
p965
sg11
VB2,
p966
sg13
VSurf
p967
sg15
V45
p968
sg17
V60
p969
sg19
V100
p970
sbag1
(g2
g3
Ntp971
Rp972
(dp973
g7
V550
p974
sg9
VBasculin
p975
sg11
VW2,
p976
sg13
VSurf
p977
sg15
V45
p978
sg17
V60
p979
sg19
V100
p980
sbag1
(g2
g3
Ntp981
Rp982
(dp983
g7
V550
p984
sg9
VBasculin
p985
sg11
g966
sg13
VRippling
p986
sg15
V45
p987
sg17
V60
p988
sg19
V100
p989
sbag1
(g2
g3
Ntp990
Rp991
(dp992
g7
V550
p993
sg9
VBasculin
p994
sg11
g976
sg13
VRippling
p995
sg15
V45
p996
sg17
V60
p997
sg19
V100
p998
sbag1
(g2
g3
Ntp999
Rp1000
(dp1001
g7
V147
p1002
sg9
VDratini
p1003
sg11
VB2,W2,
p1004
sg13
VFish Super
p1005
sg15
V40
p1006
sg17
V70
p1007
sg19
V70
p1008
sbag1
(g2
g3
Ntp1009
Rp1010
(dp1011
g7
V550
p1012
sg9
VBasculin
p1013
sg11
g966
sg13
VFish Super
p1014
sg15
V40
p1015
sg17
V60
p1016
sg19
V30
p1017
sbag1
(g2
g3
Ntp1018
Rp1019
(dp1020
g7
V550
p1021
sg9
VBasculin
p1022
sg11
g976
sg13
VFish Super
p1023
sg15
V40
p1024
sg17
V60
p1025
sg19
V30
p1026
sbag1
(g2
g3
Ntp1027
Rp1028
(dp1029
g7
V550
p1030
sg9
VBasculin
p1031
sg11
g976
sg13
VRippling
p1032
sg15
V40
p1033
sg17
V60
p1034
sg19
V30
p1035
sbag1
(g2
g3
Ntp1036
Rp1037
(dp1038
g7
V550
p1039
sg9
VBasculin
p1040
sg11
g966
sg13
VRippling
p1041
sg15
V40
p1042
sg17
V60
p1043
sg19
V30
p1044
sbag1
(g2
g3
Ntp1045
Rp1046
(dp1047
g7
V147
p1048
sg9
VDratini
p1049
sg11
VB2,W2,
p1050
sg13
VRippling
p1051
sg15
V40
p1052
sg17
V60
p1053
sg19
V60
p1054
sbag1
(g2
g3
Ntp1055
Rp1056
(dp1057
g7
V148
p1058
sg9
VDragonair
p1059
sg11
VB2,W2,
p1060
sg13
VRippling
p1061
sg15
V50
p1062
sg17
V70
p1063
sg19
V9
p1064
sbag1
(g2
g3
Ntp1065
Rp1066
(dp1067
g7
V149
p1068
sg9
VDragonite
p1069
sg11
VB2,W2,
p1070
sg13
VRippling
p1071
sg15
V50
p1072
sg17
V70
p1073
sg19
V1
p1074
sbag1
(g2
g3
Ntp1075
Rp1076
(dp1077
g7
V620
p1078
sg9
VMienshao
p1079
sg11
VB2,W2,
p1080
sg13
V1F
p1081
sg15
V55
p1082
sg17
g1082
sg19
V20
p1083
sbag1
(g2
g3
Ntp1084
Rp1085
(dp1086
g7
V621
p1087
sg9
VDruddigon
p1088
sg11
VB2,W2,
p1089
sg13
V1F
p1090
sg15
V56
p1091
sg17
V58
p1092
sg19
V30
p1093
sbag1
(g2
g3
Ntp1094
Rp1095
(dp1096
g7
V623
p1097
sg9
VGolurk
p1098
sg11
VB2,W2,
p1099
sg13
V1F
p1100
sg15
V55
p1101
sg17
V58
p1102
sg19
V50
p1103
sbag1
(g2
g3
Ntp1104
Rp1105
(dp1106
g7
V623
p1107
sg9
VGolurk
p1108
sg11
VB2,W2,
p1109
sg13
V2F
p1110
sg15
V55
p1111
sg17
V58
p1112
sg19
V100
p1113
sbag1
(g2
g3
Ntp1114
Rp1115
(dp1116
g7
V643
p1117
sg9
VReshiram
p1118
sg11
g976
sg13
VSpecial
p1119
sg15
V70
p1120
sg17
g1120
sg19
V0
p1121
sbag1
(g2
g3
Ntp1122
Rp1123
(dp1124
g7
V644
p1125
sg9
VZekrom
p1126
sg11
g966
sg13
VSpecial
p1127
sg15
V70
p1128
sg17
g1128
sg19
V0
p1129
sba.