(lp0
ccopy_reg
_reconstructor
p1
(c__main__
WildPokemon
p2
c__builtin__
object
p3
Ntp4
Rp5
(dp6
VpDexNo
p7
V129
p8
sVpSpecies
p9
VMagikarp
p10
sVpGames
p11
VG,S,C,
p12
sVpArea
p13
VSurf
p14
sVpMinLevel
p15
V10
p16
sVpMaxLevel
p17
V19
p18
sVpRate
p19
V90
p20
sbag1
(g2
g3
Ntp21
Rp22
(dp23
g7
V147
p24
sg9
VDratini
p25
sg11
VG,S,C,
p26
sg13
VSurf
p27
sg15
V10
p28
sg17
V14
p29
sg19
V10
p30
sbag1
(g2
g3
Ntp31
Rp32
(dp33
g7
V129
p34
sg9
VMagikarp
p35
sg11
VG,S,C,
p36
sg13
VFish Old
p37
sg15
V10
p38
sg17
g38
sg19
V100
p39
sbag1
(g2
g3
Ntp40
Rp41
(dp42
g7
V129
p43
sg9
VMagikarp
p44
sg11
VG,S,C,
p45
sg13
VFish Good
p46
sg15
V20
p47
sg17
g47
sg19
V90
p48
sbag1
(g2
g3
Ntp49
Rp50
(dp51
g7
V147
p52
sg9
VDratini
p53
sg11
VG,S,C,
p54
sg13
VFish Good
p55
sg15
V20
p56
sg17
g56
sg19
V10
p57
sbag1
(g2
g3
Ntp58
Rp59
(dp60
g7
V129
p61
sg9
VMagikarp
p62
sg11
VG,S,C,
p63
sg13
VFish Super
p64
sg15
V40
p65
sg17
g65
sg19
V60
p66
sbag1
(g2
g3
Ntp67
Rp68
(dp69
g7
V147
p70
sg9
VDratini
p71
sg11
VG,S,C,
p72
sg13
VFish Super
p73
sg15
V40
p74
sg17
g74
sg19
V30
p75
sbag1
(g2
g3
Ntp76
Rp77
(dp78
g7
V148
p79
sg9
VDragonair
p80
sg11
VG,S,C,
p81
sg13
VFish Super
p82
sg15
V40
p83
sg17
g83
sg19
V3
p84
sbag1
(g2
g3
Ntp85
Rp86
(dp87
g7
V147
p88
sg9
VDratini
p89
sg11
VC,
p90
sg13
VGift
p91
sg15
V15
p92
sg17
g92
sg19
V0
p93
sbag1
(g2
g3
Ntp94
Rp95
(dp96
g7
V129
p97
sg9
VMagikarp
p98
sg11
VHG,SS,
p99
sg13
VSurf
p100
sg15
V5
p101
sg17
V20
p102
sg19
V90
p103
sbag1
(g2
g3
Ntp104
Rp105
(dp106
g7
V147
p107
sg9
VDratini
p108
sg11
VHG,SS,
p109
sg13
VSurf
p110
sg15
g101
sg17
V15
p111
sg19
V10
p112
sbag1
(g2
g3
Ntp113
Rp114
(dp115
g7
V129
p116
sg9
VMagikarp
p117
sg11
VHG,SS,
p118
sg13
VFish Old
p119
sg15
V10
p120
sg17
g120
sg19
V100
p121
sbag1
(g2
g3
Ntp122
Rp123
(dp124
g7
V129
p125
sg9
VMagikarp
p126
sg11
VHG,SS,
p127
sg13
VFish Good
p128
sg15
V20
p129
sg17
g129
sg19
V96
p130
sbag1
(g2
g3
Ntp131
Rp132
(dp133
g7
V147
p134
sg9
VDratini
p135
sg11
VHG,SS,
p136
sg13
VFish Good
p137
sg15
V20
p138
sg17
g138
sg19
V4
p139
sbag1
(g2
g3
Ntp140
Rp141
(dp142
g7
V129
p143
sg9
VMagikarp
p144
sg11
VHG,SS,
p145
sg13
VFish Super
p146
sg15
V40
p147
sg17
g147
sg19
V66
p148
sbag1
(g2
g3
Ntp149
Rp150
(dp151
g7
V147
p152
sg9
VDratini
p153
sg11
VHG,SS,
p154
sg13
VFish Super
p155
sg15
V40
p156
sg17
g156
sg19
V30
p157
sbag1
(g2
g3
Ntp158
Rp159
(dp160
g7
V148
p161
sg9
VDragonair
p162
sg11
VHG,SS,
p163
sg13
VFish Super
p164
sg15
V40
p165
sg17
g165
sg19
V4
p166
sbag1
(g2
g3
Ntp167
Rp168
(dp169
g7
V147
p170
sg9
VDratini
p171
sg11
VHG,SS,
p172
sg13
VGift
p173
sg15
V15
p174
sg17
g174
sg19
V0
p175
sba.