(lp0
ccopy_reg
_reconstructor
p1
(c__main__
WildPokemon
p2
c__builtin__
object
p3
Ntp4
Rp5
(dp6
VpDexNo
p7
V504
p8
sVpSpecies
p9
VPatrat
p10
sVpGames
p11
VB,W,
p12
sVpArea
p13
VGrass
p14
sVpMinLevel
p15
V8
p16
sVpMaxLevel
p17
V11
p18
sVpRate
p19
V40
p20
sbag1
(g2
g3
Ntp21
Rp22
(dp23
g7
V509
p24
sg9
VPurrloin
p25
sg11
VB,W,
p26
sg13
VGrass
p27
sg15
g16
sg17
V11
p28
sg19
V40
p29
sbag1
(g2
g3
Ntp30
Rp31
(dp32
g7
V517
p33
sg9
VMunna
p34
sg11
VB,W,
p35
sg13
VGrass
p36
sg15
V8,10
p37
sg17
g37
sg19
V20
p38
sbag1
(g2
g3
Ntp39
Rp40
(dp41
g7
V020
p42
sg9
VRaticate
p43
sg11
VB,W,
p44
sg13
VDark
p45
sg15
V48
p46
sg17
g46
sg19
V10
p47
sbag1
(g2
g3
Ntp48
Rp49
(dp50
g7
V049
p51
sg9
VVenomoth
p52
sg11
VB,W,
p53
sg13
VDark
p54
sg15
V48
p55
sg17
V50
p56
sg19
V10
p57
sbag1
(g2
g3
Ntp58
Rp59
(dp60
g7
V166
p61
sg9
VLedian
p62
sg11
VB,W,
p63
sg13
VDark
p64
sg15
V49
p65
sg17
g65
sg19
V10
p66
sbag1
(g2
g3
Ntp67
Rp68
(dp69
g7
V168
p70
sg9
VAriados
p71
sg11
VB,W,
p72
sg13
VDark
p73
sg15
V49
p74
sg17
g74
sg19
V10
p75
sbag1
(g2
g3
Ntp76
Rp77
(dp78
g7
V402
p79
sg9
VKricketune
p80
sg11
VB,W,
p81
sg13
VDark
p82
sg15
V48
p83
sg17
V50
p84
sg19
V10
p85
sbag1
(g2
g3
Ntp86
Rp87
(dp88
g7
V505
p89
sg9
VWatchog
p90
sg11
VB,W,
p91
sg13
VDark
p92
sg15
V47
p93
sg17
g93
sg19
V20
p94
sbag1
(g2
g3
Ntp95
Rp96
(dp97
g7
V510
p98
sg9
VLiepard
p99
sg11
VB,W,
p100
sg13
VDark
p101
sg15
V47
p102
sg17
g102
sg19
V20
p103
sbag1
(g2
g3
Ntp104
Rp105
(dp106
g7
V517
p107
sg9
VMunna
p108
sg11
VB,W,
p109
sg13
VDark
p110
sg15
V48
p111
sg17
g111
sg19
V10
p112
sbag1
(g2
g3
Ntp113
Rp114
(dp115
g7
V518
p116
sg9
VMusharna
p117
sg11
VB,W,
p118
sg13
VRustling
p119
sg15
V11
p120
sg17
g120
sg19
V5
p121
sbag1
(g2
g3
Ntp122
Rp123
(dp124
g7
V531
p125
sg9
VAudino
p126
sg11
VB,W,
p127
sg13
VRustling
p128
sg15
g16
sg17
V11
p129
sg19
V95
p130
sbag1
(g2
g3
Ntp131
Rp132
(dp133
g7
V511
p134
sg9
VPansage
p135
sg11
VB,W,
p136
sg13
VGift
p137
sg15
V10
p138
sg17
g138
sg19
V0
p139
sbag1
(g2
g3
Ntp140
Rp141
(dp142
g7
V513
p143
sg9
VPansear
p144
sg11
VB,W,
p145
sg13
VGift
p146
sg15
V10
p147
sg17
g147
sg19
V0
p148
sbag1
(g2
g3
Ntp149
Rp150
(dp151
g7
V515
p152
sg9
VPanpour
p153
sg11
VB,W,
p154
sg13
VGift
p155
sg15
V10
p156
sg17
g156
sg19
V0
p157
sbag1
(g2
g3
Ntp158
Rp159
(dp160
g7
V020
p161
sg9
VRaticate
p162
sg11
VB,W,
p163
sg13
VDark
p164
sg15
V47
p165
sg17
V50
p166
sg19
V35
p167
sbag1
(g2
g3
Ntp168
Rp169
(dp170
g7
V166
p171
sg9
VLedian
p172
sg11
VB,W,
p173
sg13
VDark
p174
sg15
V49
p175
sg17
g175
sg19
V5
p176
sbag1
(g2
g3
Ntp177
Rp178
(dp179
g7
V168
p180
sg9
VAriados
p181
sg11
VB,W,
p182
sg13
VDark
p183
sg15
V49
p184
sg17
g184
sg19
V5
p185
sbag1
(g2
g3
Ntp186
Rp187
(dp188
g7
V402
p189
sg9
VKricketune
p190
sg11
VB,W,
p191
sg13
VDark
p192
sg15
V47
p193
sg17
V50
p194
sg19
V35
p195
sbag1
(g2
g3
Ntp196
Rp197
(dp198
g7
V517
p199
sg9
VMunna
p200
sg11
VB,W,
p201
sg13
VDark
p202
sg15
V48
p203
sg17
V49
p204
sg19
V20
p205
sbag1
(g2
g3
Ntp206
Rp207
(dp208
g7
V518
p209
sg9
VMusharna
p210
sg11
VB,W,
p211
sg13
VSpecial
p212
sg15
V50
p213
sg17
g213
sg19
V0
p214
sbag1
(g2
g3
Ntp215
Rp216
(dp217
g7
V020
p218
sg9
VRaticate
p219
sg11
VB2,W2,
p220
sg13
VGrass
p221
sg15
V57
p222
sg17
g222
sg19
V10
p223
sbag1
(g2
g3
Ntp224
Rp225
(dp226
g7
V039
p227
sg9
VJigglypuff
p228
sg11
VB2,W2,
p229
sg13
VGrass
p230
sg15
V57
p231
sg17
g231
sg19
V10
p232
sbag1
(g2
g3
Ntp233
Rp234
(dp235
g7
V042
p236
sg9
VGolbat
p237
sg11
VB2,W2,
p238
sg13
VGrass
p239
sg15
V57
p240
sg17
V58
p241
sg19
V10
p242
sbag1
(g2
g3
Ntp243
Rp244
(dp245
g7
V505
p246
sg9
VWatchog
p247
sg11
VB2,W2,
p248
sg13
VGrass
p249
sg15
V56
p250
sg17
V59
p251
sg19
V25
p252
sbag1
(g2
g3
Ntp253
Rp254
(dp255
g7
V510
p256
sg9
VLiepard
p257
sg11
VB2,W2,
p258
sg13
VGrass
p259
sg15
V56
p260
sg17
V59
p261
sg19
V25
p262
sbag1
(g2
g3
Ntp263
Rp264
(dp265
g7
V517
p266
sg9
VMunna
p267
sg11
VB2,W2,
p268
sg13
VGrass
p269
sg15
V57
p270
sg17
V58
p271
sg19
V20
p272
sbag1
(g2
g3
Ntp273
Rp274
(dp275
g7
V020
p276
sg9
VRaticate
p277
sg11
VB2,W2,
p278
sg13
VDark
p279
sg15
V65
p280
sg17
g280
sg19
V10
p281
sbag1
(g2
g3
Ntp282
Rp283
(dp284
g7
V039
p285
sg9
VJigglypuff
p286
sg11
VB2,W2,
p287
sg13
VDark
p288
sg15
V65
p289
sg17
g289
sg19
V10
p290
sbag1
(g2
g3
Ntp291
Rp292
(dp293
g7
V042
p294
sg9
VGolbat
p295
sg11
VB2,W2,
p296
sg13
VDark
p297
sg15
V65
p298
sg17
V66
p299
sg19
V10
p300
sbag1
(g2
g3
Ntp301
Rp302
(dp303
g7
V505
p304
sg9
VWatchog
p305
sg11
VB2,W2,
p306
sg13
VDark
p307
sg15
V64
p308
sg17
V67
p309
sg19
V25
p310
sbag1
(g2
g3
Ntp311
Rp312
(dp313
g7
V510
p314
sg9
VLiepard
p315
sg11
VB2,W2,
p316
sg13
VDark
p317
sg15
V64
p318
sg17
V67
p319
sg19
V25
p320
sbag1
(g2
g3
Ntp321
Rp322
(dp323
g7
V517
p324
sg9
VMunna
p325
sg11
VB2,W2,
p326
sg13
VDark
p327
sg15
V65
p328
sg17
V66
p329
sg19
V20
p330
sbag1
(g2
g3
Ntp331
Rp332
(dp333
g7
V040
p334
sg9
VWigglytuff
p335
sg11
VB2,W2,
p336
sg13
VRustling
p337
sg15
V59
p338
sg17
g338
sg19
V5
p339
sbag1
(g2
g3
Ntp340
Rp341
(dp342
g7
V169
p343
sg9
VCrobat
p344
sg11
VB2,W2,
p345
sg13
VRustling
p346
sg15
V59
p347
sg17
g347
sg19
V5
p348
sbag1
(g2
g3
Ntp349
Rp350
(dp351
g7
V206
p352
sg9
VDunsparce
p353
sg11
VB2,W2,
p354
sg13
VRustling
p355
sg15
V57
p356
sg17
g356
sg19
V10
p357
sbag1
(g2
g3
Ntp358
Rp359
(dp360
g7
V531
p361
sg9
VAudino
p362
sg11
VB2,W2,
p363
sg13
VRustling
p364
sg15
V56
p365
sg17
V59
p366
sg19
V75
p367
sbag1
(g2
g3
Ntp368
Rp369
(dp370
g7
V518
p371
sg9
VMusharna
p372
sg11
VB2,W2,
p373
sg13
VRustling
p374
sg15
V59
p375
sg17
g375
sg19
V5
p376
sbag1
(g2
g3
Ntp377
Rp378
(dp379
g7
V097
p380
sg9
VHypno
p381
sg11
VB2,W2,
p382
sg13
VGrass
p383
sg15
V40
p384
sg17
V55
p385
sg19
V40
p386
sbag1
(g2
g3
Ntp387
Rp388
(dp389
g7
V380
p390
sg9
VLatias
p391
sg11
VW2,
p392
sg13
VSpecial
p393
sg15
V68
p394
sg17
g394
sg19
V0
p395
sbag1
(g2
g3
Ntp396
Rp397
(dp398
g7
V381
p399
sg9
VLatios
p400
sg11
VB2,
p401
sg13
VSpecial
p402
sg15
V68
p403
sg17
g403
sg19
V0
p404
sbag1
(g2
g3
Ntp405
Rp406
(dp407
g7
V020
p408
sg9
VRaticate
p409
sg11
VB2,W2,
p410
sg13
VDark
p411
sg15
V64
p412
sg17
V67
p413
sg19
V25
p414
sbag1
(g2
g3
Ntp415
Rp416
(dp417
g7
V039
p418
sg9
VJigglypuff
p419
sg11
VB2,W2,
p420
sg13
VDark
p421
sg15
V65
p422
sg17
g422
sg19
V10
p423
sbag1
(g2
g3
Ntp424
Rp425
(dp426
g7
V042
p427
sg9
VGolbat
p428
sg11
VB2,W2,
p429
sg13
VDark
p430
sg15
V64
p431
sg17
V67
p432
sg19
V25
p433
sbag1
(g2
g3
Ntp434
Rp435
(dp436
g7
V505
p437
sg9
VWatchog
p438
sg11
VB2,W2,
p439
sg13
VDark
p440
sg15
V65
p441
sg17
g441
sg19
V10
p442
sbag1
(g2
g3
Ntp443
Rp444
(dp445
g7
V510
p446
sg9
VLiepard
p447
sg11
VB2,W2,
p448
sg13
VDark
p449
sg15
V65
p450
sg17
V66
p451
sg19
V10
p452
sbag1
(g2
g3
Ntp453
Rp454
(dp455
g7
V517
p456
sg9
VMunna
p457
sg11
VB2,W2,
p458
sg13
VDark
p459
sg15
V65
p460
sg17
V66
p461
sg19
V20
p462
sba.