(lp0
ccopy_reg
_reconstructor
p1
(c__main__
WildPokemon
p2
c__builtin__
object
p3
Ntp4
Rp5
(dp6
VpDexNo
p7
V592
p8
sVpSpecies
p9
VFrillish
p10
sVpGames
p11
VB,W,
p12
sVpArea
p13
VSurf
p14
sVpMinLevel
p15
V10
p16
sVpMaxLevel
p17
V25
p18
sVpRate
p19
V100
p20
sbag1
(g2
g3
Ntp21
Rp22
(dp23
g7
V594
p24
sg9
VAlomomola
p25
sg11
VB,W,
p26
sg13
VRippling
p27
sg15
V10
p28
sg17
V30
p29
sg19
V95
p30
sbag1
(g2
g3
Ntp31
Rp32
(dp33
g7
V593
p34
sg9
VJellicent
p35
sg11
VB,W,
p36
sg13
VRippling
p37
sg15
V10
p38
sg17
V30
p39
sg19
V5
p40
sbag1
(g2
g3
Ntp41
Rp42
(dp43
g7
V098
p44
sg9
VKrabby
p45
sg11
VB,W,
p46
sg13
VFishing
p47
sg15
V35
p48
sg17
V55
p49
sg19
V65
p50
sbag1
(g2
g3
Ntp51
Rp52
(dp53
g7
V170
p54
sg9
VChinchou
p55
sg11
VB,W,
p56
sg13
VFishing
p57
sg15
V35
p58
sg17
V55
p59
sg19
V30
p60
sbag1
(g2
g3
Ntp61
Rp62
(dp63
g7
V370
p64
sg9
VLuvdisc
p65
sg11
VB,W,
p66
sg13
VFishing
p67
sg15
V35
p68
sg17
V60
p69
sg19
V5
p70
sbag1
(g2
g3
Ntp71
Rp72
(dp73
g7
V170
p74
sg9
VChinchou
p75
sg11
VB,W,
p76
sg13
VRippling
p77
sg15
V35
p78
sg17
V60
p79
sg19
V60
p80
sbag1
(g2
g3
Ntp81
Rp82
(dp83
g7
V370
p84
sg9
VLuvdisc
p85
sg11
VB,W,
p86
sg13
VRippling
p87
sg15
V35
p88
sg17
V60
p89
sg19
V30
p90
sbag1
(g2
g3
Ntp91
Rp92
(dp93
g7
V099
p94
sg9
VKingler
p95
sg11
VB,W,
p96
sg13
VRippling
p97
sg15
V35
p98
sg17
V70
p99
sg19
V5
p100
sbag1
(g2
g3
Ntp101
Rp102
(dp103
g7
V171
p104
sg9
VLanturn
p105
sg11
VB,W,
p106
sg13
VRippling
p107
sg15
V35
p108
sg17
V70
p109
sg19
V5
p110
sbag1
(g2
g3
Ntp111
Rp112
(dp113
g7
V550
p114
sg9
VBasculin
p115
sg11
VB,
p116
sg13
VTrade
p117
sg15
V25
p118
sg17
g118
sg19
V0
p119
sbag1
(g2
g3
Ntp120
Rp121
(dp122
g7
V550
p123
sg9
VBasculin
p124
sg11
VW,
p125
sg13
VTrade
p126
sg15
V25
p127
sg17
g127
sg19
V0
p128
sbag1
(g2
g3
Ntp129
Rp130
(dp131
g7
V570
p132
sg9
VZorua
p133
sg11
VB2,W2,
p134
sg13
VGift
p135
sg15
V25
p136
sg17
g136
sg19
V0
p137
sba.