(lp0
ccopy_reg
_reconstructor
p1
(c__main__
WildPokemon
p2
c__builtin__
object
p3
Ntp4
Rp5
(dp6
VpDexNo
p7
V051
p8
sVpSpecies
p9
VDugtrio
p10
sVpGames
p11
VSw,Sh,
p12
sVpArea
p13
VGrass
p14
sVpMinLevel
p15
V40
p16
sVpMaxLevel
p17
V45
p18
sVpRate
p19
V0
p20
sbag1
(g2
g3
Ntp21
Rp22
(dp23
g7
V112
p24
sg9
VRhydon
p25
sg11
VSw,Sh,
p26
sg13
VGrass
p27
sg15
V40
p28
sg17
V45
p29
sg19
g20
sbag1
(g2
g3
Ntp30
Rp31
(dp32
g7
V185
p33
sg9
VSudowoodo
p34
sg11
VSw,Sh,
p35
sg13
VGrass
p36
sg15
V40
p37
sg17
V45
p38
sg19
g20
sbag1
(g2
g3
Ntp39
Rp40
(dp41
g7
V221
p42
sg9
VPiloswine
p43
sg11
VSw,Sh,
p44
sg13
VGrass
p45
sg15
V40
p46
sg17
V45
p47
sg19
g20
sbag1
(g2
g3
Ntp48
Rp49
(dp50
g7
V279
p51
sg9
VPelipper
p52
sg11
VSw,Sh,
p53
sg13
VGrass
p54
sg15
V40
p55
sg17
V45
p56
sg19
g20
sbag1
(g2
g3
Ntp57
Rp58
(dp59
g7
V282
p60
sg9
VGardevoir
p61
sg11
VSw,Sh,
p62
sg13
VGrass
p63
sg15
V40
p64
sg17
V45
p65
sg19
g20
sbag1
(g2
g3
Ntp66
Rp67
(dp68
g7
V315
p69
sg9
VRoselia
p70
sg11
VSw,Sh,
p71
sg13
VGrass
p72
sg15
V40
p73
sg17
V45
p74
sg19
g20
sbag1
(g2
g3
Ntp75
Rp76
(dp77
g7
V435
p78
sg9
VSkuntank
p79
sg11
VSw,Sh,
p80
sg13
VGrass
p81
sg15
V40
p82
sg17
V45
p83
sg19
g20
sbag1
(g2
g3
Ntp84
Rp85
(dp86
g7
V437
p87
sg9
VBronzong
p88
sg11
VSw,Sh,
p89
sg13
VGrass
p90
sg15
V40
p91
sg17
V45
p92
sg19
g20
sbag1
(g2
g3
Ntp93
Rp94
(dp95
g7
V460
p96
sg9
VAbomasnow
p97
sg11
VSw,Sh,
p98
sg13
VGrass
p99
sg15
V40
p100
sg17
V45
p101
sg19
g20
sbag1
(g2
g3
Ntp102
Rp103
(dp104
g7
V533
p105
sg9
VGurdurr
p106
sg11
VSw,Sh,
p107
sg13
VGrass
p108
sg15
V40
p109
sg17
V45
p110
sg19
g20
sbag1
(g2
g3
Ntp111
Rp112
(dp113
g7
V598
p114
sg9
VFerrothorn
p115
sg11
VSw,Sh,
p116
sg13
VGrass
p117
sg15
V40
p118
sg17
V45
p119
sg19
g20
sbag1
(g2
g3
Ntp120
Rp121
(dp122
g7
V600
p123
sg9
VKlang
p124
sg11
VSw,Sh,
p125
sg13
VGrass
p126
sg15
V40
p127
sg17
V45
p128
sg19
g20
sbag1
(g2
g3
Ntp129
Rp130
(dp131
g7
V618
p132
sg9
VStunfisk
p133
sg11
VSw,Sh,
p134
sg13
VGrass
p135
sg15
V40
p136
sg17
V45
p137
sg19
g20
sbag1
(g2
g3
Ntp138
Rp139
(dp140
g7
V678
p141
sg9
VMeowstic
p142
sg11
VSw,
p143
sg13
VGrass
p144
sg15
V40
p145
sg17
V45
p146
sg19
g20
sbag1
(g2
g3
Ntp147
Rp148
(dp149
g7
V678
p150
sg9
VMeowstic
p151
sg11
VSh,
p152
sg13
VGrass
p153
sg15
V40
p154
sg17
V45
p155
sg19
g20
sbag1
(g2
g3
Ntp156
Rp157
(dp158
g7
V689
p159
sg9
VBarbaracle
p160
sg11
VSw,Sh,
p161
sg13
VGrass
p162
sg15
V40
p163
sg17
V45
p164
sg19
g20
sbag1
(g2
g3
Ntp165
Rp166
(dp167
g7
V737
p168
sg9
VCharjabug
p169
sg11
VSw,Sh,
p170
sg13
VGrass
p171
sg15
V40
p172
sg17
V45
p173
sg19
g20
sbag1
(g2
g3
Ntp174
Rp175
(dp176
g7
V750
p177
sg9
VMudsdale
p178
sg11
VSw,Sh,
p179
sg13
VGrass
p180
sg15
V40
p181
sg17
V45
p182
sg19
g20
sbag1
(g2
g3
Ntp183
Rp184
(dp185
g7
V823
p186
sg9
VCorviknight
p187
sg11
VSw,Sh,
p188
sg13
VGrass
p189
sg15
V40
p190
sg17
V45
p191
sg19
g20
sbag1
(g2
g3
Ntp192
Rp193
(dp194
g7
V830
p195
sg9
VEldegoss
p196
sg11
VSw,Sh,
p197
sg13
VGrass
p198
sg15
V40
p199
sg17
V45
p200
sg19
g20
sbag1
(g2
g3
Ntp201
Rp202
(dp203
g7
V832
p204
sg9
VDubwool
p205
sg11
VSw,Sh,
p206
sg13
VGrass
p207
sg15
V40
p208
sg17
V45
p209
sg19
g20
sbag1
(g2
g3
Ntp210
Rp211
(dp212
g7
V834
p213
sg9
VDrednaw
p214
sg11
VSw,Sh,
p215
sg13
VGrass
p216
sg15
V40
p217
sg17
V45
p218
sg19
g20
sbag1
(g2
g3
Ntp219
Rp220
(dp221
g7
V836
p222
sg9
VBoltund
p223
sg11
VSw,Sh,
p224
sg13
VGrass
p225
sg15
V40
p226
sg17
V45
p227
sg19
g20
sbag1
(g2
g3
Ntp228
Rp229
(dp230
g7
V839
p231
sg9
VCoalossal
p232
sg11
VSw,Sh,
p233
sg13
VGrass
p234
sg15
V40
p235
sg17
V45
p236
sg19
g20
sbag1
(g2
g3
Ntp237
Rp238
(dp239
g7
V840
p240
sg9
VApplin
p241
sg11
VSw,Sh,
p242
sg13
VGrass
p243
sg15
V40
p244
sg17
V45
p245
sg19
g20
sbag1
(g2
g3
Ntp246
Rp247
(dp248
g7
V857
p249
sg9
VHattrem
p250
sg11
VSw,Sh,
p251
sg13
VGrass
p252
sg15
V40
p253
sg17
V45
p254
sg19
g20
sbag1
(g2
g3
Ntp255
Rp256
(dp257
g7
V130
p258
sg9
VGyarados
p259
sg11
VSw,Sh,
p260
sg13
VFishing
p261
sg15
V40
p262
sg17
V45
p263
sg19
V5
p264
sbag1
(g2
g3
Ntp265
Rp266
(dp267
g7
V171
p268
sg9
VLanturn
p269
sg11
VSw,Sh,
p270
sg13
VFishing
p271
sg15
V40
p272
sg17
V45
p273
sg19
V35
p274
sbag1
(g2
g3
Ntp275
Rp276
(dp277
g7
V211
p278
sg9
VQwilfish
p279
sg11
VSw,Sh,
p280
sg13
VFishing
p281
sg15
V40
p282
sg17
V45
p283
sg19
V10
p284
sbag1
(g2
g3
Ntp285
Rp286
(dp287
g7
V847
p288
sg9
VBarraskewda
p289
sg11
VSw,Sh,
p290
sg13
VFishing
p291
sg15
V40
p292
sg17
V45
p293
sg19
V50
p294
sbag1
(g2
g3
Ntp295
Rp296
(dp297
g7
V037
p298
sg9
VVulpix
p299
sg11
g152
sg13
VGrass
p300
sg15
V42
p301
sg17
V47
p302
sg19
g20
sbag1
(g2
g3
Ntp303
Rp304
(dp305
g7
V058
p306
sg9
VGrowlithe
p307
sg11
g143
sg13
VGrass
p308
sg15
V42
p309
sg17
V47
p310
sg19
g20
sbag1
(g2
g3
Ntp311
Rp312
(dp313
g7
V106
p314
sg9
VHitmonlee
p315
sg11
g143
sg13
VGrass
p316
sg15
V42
p317
sg17
V47
p318
sg19
g20
sbag1
(g2
g3
Ntp319
Rp320
(dp321
g7
V107
p322
sg9
VHitmonchan
p323
sg11
g152
sg13
VGrass
p324
sg15
V42
p325
sg17
V47
p326
sg19
g20
sbag1
(g2
g3
Ntp327
Rp328
(dp329
g7
V109
p330
sg9
VKoffing
p331
sg11
VSw,Sh,
p332
sg13
VGrass
p333
sg15
V42
p334
sg17
V47
p335
sg19
g20
sbag1
(g2
g3
Ntp336
Rp337
(dp338
g7
V202
p339
sg9
VWobbuffet
p340
sg11
VSw,Sh,
p341
sg13
VGrass
p342
sg15
V42
p343
sg17
V47
p344
sg19
g20
sbag1
(g2
g3
Ntp345
Rp346
(dp347
g7
V213
p348
sg9
VShuckle
p349
sg11
VSw,Sh,
p350
sg13
VGrass
p351
sg15
V42
p352
sg17
V47
p353
sg19
g20
sbag1
(g2
g3
Ntp354
Rp355
(dp356
g7
V215
p357
sg9
VSneasel
p358
sg11
VSw,Sh,
p359
sg13
VGrass
p360
sg15
V42
p361
sg17
V47
p362
sg19
g20
sbag1
(g2
g3
Ntp363
Rp364
(dp365
g7
V220
p366
sg9
VSwinub
p367
sg11
g152
sg13
VGrass
p368
sg15
V42
p369
sg17
V47
p370
sg19
g20
sbag1
(g2
g3
Ntp371
Rp372
(dp373
g7
V225
p374
sg9
VDelibird
p375
sg11
VSw,Sh,
p376
sg13
VGrass
p377
sg15
V42
p378
sg17
V47
p379
sg19
g20
sbag1
(g2
g3
Ntp380
Rp381
(dp382
g7
V302
p383
sg9
VSableye
p384
sg11
g152
sg13
VGrass
p385
sg15
V42
p386
sg17
V47
p387
sg19
g20
sbag1
(g2
g3
Ntp388
Rp389
(dp390
g7
V303
p391
sg9
VMawile
p392
sg11
g143
sg13
VGrass
p393
sg15
V42
p394
sg17
V47
p395
sg19
g20
sbag1
(g2
g3
Ntp396
Rp397
(dp398
g7
V309
p399
sg9
VElectrike
p400
sg11
VSw,Sh,
p401
sg13
VGrass
p402
sg15
V42
p403
sg17
V47
p404
sg19
g20
sbag1
(g2
g3
Ntp405
Rp406
(dp407
g7
V355
p408
sg9
VDuskull
p409
sg11
g143
sg13
VGrass
p410
sg15
V42
p411
sg17
V47
p412
sg19
g20
sbag1
(g2
g3
Ntp413
Rp414
(dp415
g7
V449
p416
sg9
VHippopotas
p417
sg11
VSw,Sh,
p418
sg13
VGrass
p419
sg15
V42
p420
sg17
V47
p421
sg19
g20
sbag1
(g2
g3
Ntp422
Rp423
(dp424
g7
V453
p425
sg9
VCroagunk
p426
sg11
g152
sg13
VGrass
p427
sg15
V42
p428
sg17
V47
p429
sg19
g20
sbag1
(g2
g3
Ntp430
Rp431
(dp432
g7
V459
p433
sg9
VSnover
p434
sg11
VSw,Sh,
p435
sg13
VGrass
p436
sg15
V42
p437
sg17
V47
p438
sg19
g20
sbag1
(g2
g3
Ntp439
Rp440
(dp441
g7
V529
p442
sg9
VDrilbur
p443
sg11
VSw,Sh,
p444
sg13
VGrass
p445
sg15
V42
p446
sg17
V47
p447
sg19
g20
sbag1
(g2
g3
Ntp448
Rp449
(dp450
g7
V536
p451
sg9
VPalpitoad
p452
sg11
VSw,Sh,
p453
sg13
VGrass
p454
sg15
V42
p455
sg17
V47
p456
sg19
g20
sbag1
(g2
g3
Ntp457
Rp458
(dp459
g7
V559
p460
sg9
VScraggy
p461
sg11
g143
sg13
VGrass
p462
sg15
V42
p463
sg17
V47
p464
sg19
g20
sbag1
(g2
g3
Ntp465
Rp466
(dp467
g7
V575
p468
sg9
VGothorita
p469
sg11
g143
sg13
VGrass
p470
sg15
V42
p471
sg17
V47
p472
sg19
g20
sbag1
(g2
g3
Ntp473
Rp474
(dp475
g7
V578
p476
sg9
VDuosion
p477
sg11
g152
sg13
VGrass
p478
sg15
V42
p479
sg17
V47
p480
sg19
g20
sbag1
(g2
g3
Ntp481
Rp482
(dp483
g7
V583
p484
sg9
VVanillish
p485
sg11
VSw,Sh,
p486
sg13
VGrass
p487
sg15
V42
p488
sg17
V47
p489
sg19
g20
sbag1
(g2
g3
Ntp490
Rp491
(dp492
g7
V613
p493
sg9
VCubchoo
p494
sg11
VSw,Sh,
p495
sg13
VGrass
p496
sg15
V42
p497
sg17
V47
p498
sg19
g20
sbag1
(g2
g3
Ntp499
Rp500
(dp501
g7
V827
p502
sg9
VNickit
p503
sg11
VSw,Sh,
p504
sg13
VGrass
p505
sg15
V42
p506
sg17
V47
p507
sg19
g20
sbag1
(g2
g3
Ntp508
Rp509
(dp510
g7
V468
p511
sg9
VTogekiss
p512
sg11
VSw,Sh,
p513
sg13
VFlying
p514
sg15
V54
p515
sg17
g515
sg19
g20
sbag1
(g2
g3
Ntp516
Rp517
(dp518
g7
V628
p519
sg9
VBraviary
p520
sg11
g143
sg13
VFlying
p521
sg15
V54
p522
sg17
g522
sg19
g20
sbag1
(g2
g3
Ntp523
Rp524
(dp525
g7
V630
p526
sg9
VMandibuzz
p527
sg11
g152
sg13
VFlying
p528
sg15
V54
p529
sg17
g529
sg19
g20
sbag1
(g2
g3
Ntp530
Rp531
(dp532
g7
V422
p533
sg9
VShellos
p534
sg11
VSw,Sh,
p535
sg13
VSurf
p536
sg15
V41
p537
sg17
V42
p538
sg19
g20
sbag1
(g2
g3
Ntp539
Rp540
(dp541
g7
V422
p542
sg9
VShellos
p543
sg11
VSw,Sh,
p544
sg13
VSurf
p545
sg15
V41
p546
sg17
V45
p547
sg19
g20
sbag1
(g2
g3
Ntp548
Rp549
(dp550
g7
V582
p551
sg9
VVanillite
p552
sg11
VSw,Sh,
p553
sg13
VSurf
p554
sg15
V41
p555
sg17
V42
p556
sg19
g20
sbag1
(g2
g3
Ntp557
Rp558
(dp559
g7
V582
p560
sg9
VVanillite
p561
sg11
VSw,Sh,
p562
sg13
VSurf
p563
sg15
V41
p564
sg17
V45
p565
sg19
g20
sbag1
(g2
g3
Ntp566
Rp567
(dp568
g7
V592
p569
sg9
VFrillish
p570
sg11
VSw,Sh,
p571
sg13
VSurf
p572
sg15
V41
p573
sg17
V42
p574
sg19
g20
sbag1
(g2
g3
Ntp575
Rp576
(dp577
g7
V592
p578
sg9
VFrillish
p579
sg11
VSw,Sh,
p580
sg13
VSurf
p581
sg15
V41
p582
sg17
V45
p583
sg19
g20
sbag1
(g2
g3
Ntp584
Rp585
(dp586
g7
V686
p587
sg9
VInkay
p588
sg11
VSw,Sh,
p589
sg13
VSurf
p590
sg15
V41
p591
sg17
V45
p592
sg19
g20
sbag1
(g2
g3
Ntp593
Rp594
(dp595
g7
V221
p596
sg9
VPiloswine
p597
sg11
VSw,Sh,
p598
sg13
VWanderer
p599
sg15
V41
p600
sg17
g600
sg19
g20
sbag1
(g2
g3
Ntp601
Rp602
(dp603
g7
V356
p604
sg9
VDusclops
p605
sg11
VSw,Sh,
p606
sg13
VWanderer
p607
sg15
V41
p608
sg17
g608
sg19
g20
sbag1
(g2
g3
Ntp609
Rp610
(dp611
g7
V435
p612
sg9
VSkuntank
p613
sg11
VSw,Sh,
p614
sg13
VWanderer
p615
sg15
V41
p616
sg17
g616
sg19
g20
sbag1
(g2
g3
Ntp617
Rp618
(dp619
g7
V537
p620
sg9
VSeismitoad
p621
sg11
VSw,Sh,
p622
sg13
VWanderer
p623
sg15
V41
p624
sg17
g624
sg19
g20
sbag1
(g2
g3
Ntp625
Rp626
(dp627
g7
V750
p628
sg9
VMudsdale
p629
sg11
VSw,Sh,
p630
sg13
VWanderer
p631
sg15
V41
p632
sg17
g632
sg19
g20
sbag1
(g2
g3
Ntp633
Rp634
(dp635
g7
V526
p636
sg9
VGigalith
p637
sg11
VSw,Sh,
p638
sg13
VWanderer
p639
sg15
V51
p640
sg17
g640
sg19
g20
sbag1
(g2
g3
Ntp641
Rp642
(dp643
g7
V623
p644
sg9
VGolurk
p645
sg11
VSw,Sh,
p646
sg13
VWanderer
p647
sg15
V51
p648
sg17
g648
sg19
g20
sbag1
(g2
g3
Ntp649
Rp650
(dp651
g7
V844
p652
sg9
VSandaconda
p653
sg11
VSw,Sh,
p654
sg13
VWanderer
p655
sg15
V65
p656
sg17
g656
sg19
V0
p657
sbag1
(g2
g3
Ntp658
Rp659
(dp660
g7
V330
p661
sg9
VFlygon
p662
sg11
VSw,Sh,
p663
sg13
VWanderer
p664
sg15
V51
p665
sg17
g665
sg19
g20
sbag1
(g2
g3
Ntp666
Rp667
(dp668
g7
V561
p669
sg9
VSigilyph
p670
sg11
VSw,Sh,
p671
sg13
VWanderer
p672
sg15
V51
p673
sg17
g673
sg19
g20
sbag1
(g2
g3
Ntp674
Rp675
(dp676
g7
V213
p677
sg9
VShuckle
p678
sg11
VSw,Sh,
p679
sg13
VWanderer
p680
sg15
V34
p681
sg17
g681
sg19
V0
p682
sbag1
(g2
g3
Ntp683
Rp684
(dp685
g7
V112
p686
sg9
VRhydon
p687
sg11
VSw,Sh,
p688
sg13
VWanderer
p689
sg15
V41
p690
sg17
g690
sg19
g20
sbag1
(g2
g3
Ntp691
Rp692
(dp693
g7
V185
p694
sg9
VSudowoodo
p695
sg11
VSw,Sh,
p696
sg13
VWanderer
p697
sg15
V41
p698
sg17
g698
sg19
g20
sbag1
(g2
g3
Ntp699
Rp700
(dp701
g7
V344
p702
sg9
VClaydol
p703
sg11
VSw,Sh,
p704
sg13
VWanderer
p705
sg15
V41
p706
sg17
g706
sg19
g20
sbag1
(g2
g3
Ntp707
Rp708
(dp709
g7
V437
p710
sg9
VBronzong
p711
sg11
VSw,Sh,
p712
sg13
VWanderer
p713
sg15
V41
p714
sg17
g714
sg19
g20
sbag1
(g2
g3
Ntp715
Rp716
(dp717
g7
V248
p718
sg9
VTyranitar
p719
sg11
g152
sg13
VWanderer
p720
sg15
V60
p721
sg17
g721
sg19
g20
sbag1
(g2
g3
Ntp722
Rp723
(dp724
g7
V689
p725
sg9
VBarbaracle
p726
sg11
VSw,Sh,
p727
sg13
VWanderer
p728
sg15
V60
p729
sg17
g729
sg19
g20
sbag1
(g2
g3
Ntp730
Rp731
(dp732
g7
V784
p733
sg9
VKommo-o
p734
sg11
g143
sg13
VWanderer
p735
sg15
V60
p736
sg17
g736
sg19
g20
sbag1
(g2
g3
Ntp737
Rp738
(dp739
g7
V423
p740
sg9
VGastrodon
p741
sg11
VSw,Sh,
p742
sg13
VWanderer
p743
sg15
V56
p744
sg17
g744
sg19
V0
p745
sbag1
(g2
g3
Ntp746
Rp747
(dp748
g7
V130
p749
sg9
VGyarados
p750
sg11
VSw,Sh,
p751
sg13
VWanderer
p752
sg15
V56
p753
sg17
g753
sg19
V0
p754
sba.