(lp0
ccopy_reg
_reconstructor
p1
(c__main__
WildPokemon
p2
c__builtin__
object
p3
Ntp4
Rp5
(dp6
VpDexNo
p7
V037
p8
sVpSpecies
p9
VVulpix
p10
sVpGames
p11
VSw,
p12
sVpArea
p13
VGrass
p14
sVpMinLevel
p15
V8
p16
sVpMaxLevel
p17
V12
p18
sVpRate
p19
V0
p20
sbag1
(g2
g3
Ntp21
Rp22
(dp23
g7
V043
p24
sg9
VOddish
p25
sg11
VSw,Sh,
p26
sg13
VGrass
p27
sg15
g16
sg17
V12
p28
sg19
g20
sbag1
(g2
g3
Ntp29
Rp30
(dp31
g7
V058
p32
sg9
VGrowlithe
p33
sg11
VSh,
p34
sg13
VGrass
p35
sg15
g16
sg17
V12
p36
sg19
g20
sbag1
(g2
g3
Ntp37
Rp38
(dp39
g7
V095
p40
sg9
VOnix
p41
sg11
VSw,Sh,
p42
sg13
VGrass
p43
sg15
g16
sg17
V12
p44
sg19
g20
sbag1
(g2
g3
Ntp45
Rp46
(dp47
g7
V278
p48
sg9
VWingull
p49
sg11
VSw,Sh,
p50
sg13
VGrass
p51
sg15
g16
sg17
V12
p52
sg19
g20
sbag1
(g2
g3
Ntp53
Rp54
(dp55
g7
V309
p56
sg9
VElectrike
p57
sg11
VSw,Sh,
p58
sg13
VGrass
p59
sg15
g16
sg17
V12
p60
sg19
g20
sbag1
(g2
g3
Ntp61
Rp62
(dp63
g7
V343
p64
sg9
VBaltoy
p65
sg11
VSw,Sh,
p66
sg13
VGrass
p67
sg15
g16
sg17
V12
p68
sg19
g20
sbag1
(g2
g3
Ntp69
Rp70
(dp71
g7
V361
p72
sg9
VSnorunt
p73
sg11
VSw,Sh,
p74
sg13
VGrass
p75
sg15
g16
sg17
V12
p76
sg19
g20
sbag1
(g2
g3
Ntp77
Rp78
(dp79
g7
V406
p80
sg9
VBudew
p81
sg11
VSw,Sh,
p82
sg13
VGrass
p83
sg15
g16
sg17
V12
p84
sg19
g20
sbag1
(g2
g3
Ntp85
Rp86
(dp87
g7
V459
p88
sg9
VSnover
p89
sg11
VSw,Sh,
p90
sg13
VGrass
p91
sg15
g16
sg17
V12
p92
sg19
g20
sbag1
(g2
g3
Ntp93
Rp94
(dp95
g7
V509
p96
sg9
VPurrloin
p97
sg11
VSw,Sh,
p98
sg13
VGrass
p99
sg15
g16
sg17
V12
p100
sg19
g20
sbag1
(g2
g3
Ntp101
Rp102
(dp103
g7
V517
p104
sg9
VMunna
p105
sg11
VSw,Sh,
p106
sg13
VGrass
p107
sg15
g16
sg17
V12
p108
sg19
g20
sbag1
(g2
g3
Ntp109
Rp110
(dp111
g7
V519
p112
sg9
VPidove
p113
sg11
VSw,Sh,
p114
sg13
VGrass
p115
sg15
g16
sg17
V12
p116
sg19
g20
sbag1
(g2
g3
Ntp117
Rp118
(dp119
g7
V557
p120
sg9
VDwebble
p121
sg11
VSw,Sh,
p122
sg13
VGrass
p123
sg15
g16
sg17
V12
p124
sg19
g20
sbag1
(g2
g3
Ntp125
Rp126
(dp127
g7
V572
p128
sg9
VMinccino
p129
sg11
VSw,Sh,
p130
sg13
VGrass
p131
sg15
g16
sg17
V12
p132
sg19
g20
sbag1
(g2
g3
Ntp133
Rp134
(dp135
g7
V582
p136
sg9
VVanillite
p137
sg11
VSw,Sh,
p138
sg13
VGrass
p139
sg15
g16
sg17
V12
p140
sg19
g20
sbag1
(g2
g3
Ntp141
Rp142
(dp143
g7
V595
p144
sg9
VJoltik
p145
sg11
VSw,Sh,
p146
sg13
VGrass
p147
sg15
g16
sg17
V12
p148
sg19
g20
sbag1
(g2
g3
Ntp149
Rp150
(dp151
g7
V659
p152
sg9
VBunnelby
p153
sg11
VSw,Sh,
p154
sg13
VGrass
p155
sg15
g16
sg17
V12
p156
sg19
g20
sbag1
(g2
g3
Ntp157
Rp158
(dp159
g7
V736
p160
sg9
VGrubbin
p161
sg11
VSw,Sh,
p162
sg13
VGrass
p163
sg15
g16
sg17
V12
p164
sg19
g20
sbag1
(g2
g3
Ntp165
Rp166
(dp167
g7
V749
p168
sg9
VMudbray
p169
sg11
VSw,Sh,
p170
sg13
VGrass
p171
sg15
g16
sg17
V12
p172
sg19
g20
sbag1
(g2
g3
Ntp173
Rp174
(dp175
g7
V759
p176
sg9
VStufful
p177
sg11
VSw,Sh,
p178
sg13
VGrass
p179
sg15
g16
sg17
V12
p180
sg19
V5
p181
sbag1
(g2
g3
Ntp182
Rp183
(dp184
g7
V090
p185
sg9
VShellder
p186
sg11
VSw,Sh,
p187
sg13
VFishing
p188
sg15
g16
sg17
V12
p189
sg19
V20
p190
sbag1
(g2
g3
Ntp191
Rp192
(dp193
g7
V118
p194
sg9
VGoldeen
p195
sg11
VSw,Sh,
p196
sg13
VFishing
p197
sg15
g16
sg17
V12
p198
sg19
V25
p199
sbag1
(g2
g3
Ntp200
Rp201
(dp202
g7
V129
p203
sg9
VMagikarp
p204
sg11
VSw,Sh,
p205
sg13
VFishing
p206
sg15
g16
sg17
V12
p207
sg19
V50
p208
sbag1
(g2
g3
Ntp209
Rp210
(dp211
g7
V746
p212
sg9
VWishiwashi
p213
sg11
VSw,Sh,
p214
sg13
VFishing
p215
sg15
g16
sg17
V12
p216
sg19
V5
p217
sbag1
(g2
g3
Ntp218
Rp219
(dp220
g7
V037
p221
sg9
VVulpix
p222
sg11
g12
sg13
VGrass
p223
sg15
V10
p224
sg17
V15
p225
sg19
g20
sbag1
(g2
g3
Ntp226
Rp227
(dp228
g7
V043
p229
sg9
VOddish
p230
sg11
VSw,Sh,
p231
sg13
VGrass
p232
sg15
V10
p233
sg17
V15
p234
sg19
g20
sbag1
(g2
g3
Ntp235
Rp236
(dp237
g7
V058
p238
sg9
VGrowlithe
p239
sg11
g34
sg13
VGrass
p240
sg15
V10
p241
sg17
V15
p242
sg19
g20
sbag1
(g2
g3
Ntp243
Rp244
(dp245
g7
V278
p246
sg9
VWingull
p247
sg11
VSw,Sh,
p248
sg13
VGrass
p249
sg15
V10
p250
sg17
V15
p251
sg19
g20
sbag1
(g2
g3
Ntp252
Rp253
(dp254
g7
V309
p255
sg9
VElectrike
p256
sg11
VSw,Sh,
p257
sg13
VGrass
p258
sg15
V10
p259
sg17
V15
p260
sg19
g20
sbag1
(g2
g3
Ntp261
Rp262
(dp263
g7
V343
p264
sg9
VBaltoy
p265
sg11
VSw,Sh,
p266
sg13
VGrass
p267
sg15
V10
p268
sg17
V15
p269
sg19
g20
sbag1
(g2
g3
Ntp270
Rp271
(dp272
g7
V361
p273
sg9
VSnorunt
p274
sg11
VSw,Sh,
p275
sg13
VGrass
p276
sg15
V10
p277
sg17
V15
p278
sg19
g20
sbag1
(g2
g3
Ntp279
Rp280
(dp281
g7
V459
p282
sg9
VSnover
p283
sg11
VSw,Sh,
p284
sg13
VGrass
p285
sg15
V10
p286
sg17
V15
p287
sg19
g20
sbag1
(g2
g3
Ntp288
Rp289
(dp290
g7
V517
p291
sg9
VMunna
p292
sg11
VSw,Sh,
p293
sg13
VGrass
p294
sg15
V10
p295
sg17
V15
p296
sg19
g20
sbag1
(g2
g3
Ntp297
Rp298
(dp299
g7
V674
p300
sg9
VPancham
p301
sg11
VSw,Sh,
p302
sg13
VGrass
p303
sg15
V10
p304
sg17
V15
p305
sg19
g20
sbag1
(g2
g3
Ntp306
Rp307
(dp308
g7
V736
p309
sg9
VGrubbin
p310
sg11
VSw,Sh,
p311
sg13
VGrass
p312
sg15
V10
p313
sg17
V15
p314
sg19
g20
sbag1
(g2
g3
Ntp315
Rp316
(dp317
g7
V749
p318
sg9
VMudbray
p319
sg11
VSw,Sh,
p320
sg13
VGrass
p321
sg15
V10
p322
sg17
V15
p323
sg19
g20
sbag1
(g2
g3
Ntp324
Rp325
(dp326
g7
V759
p327
sg9
VStufful
p328
sg11
VSw,Sh,
p329
sg13
VGrass
p330
sg15
V10
p331
sg17
V15
p332
sg19
g20
sbag1
(g2
g3
Ntp333
Rp334
(dp335
g7
V761
p336
sg9
VBounsweet
p337
sg11
VSw,Sh,
p338
sg13
VGrass
p339
sg15
V10
p340
sg17
V15
p341
sg19
g20
sbag1
(g2
g3
Ntp342
Rp343
(dp344
g7
V012
p345
sg9
VButterfree
p346
sg11
VSw,Sh,
p347
sg13
VFlying
p348
sg15
V12
p349
sg17
V15
p350
sg19
V30
p351
sbag1
(g2
g3
Ntp352
Rp353
(dp354
g7
V519
p355
sg9
VPidove
p356
sg11
VSw,Sh,
p357
sg13
VFlying
p358
sg15
V12
p359
sg17
V15
p360
sg19
V70
p361
sbag1
(g2
g3
Ntp362
Rp363
(dp364
g7
V090
p365
sg9
VShellder
p366
sg11
VSw,Sh,
p367
sg13
VSurf
p368
sg15
V40
p369
sg17
V43
p370
sg19
g20
sbag1
(g2
g3
Ntp371
Rp372
(dp373
g7
V118
p374
sg9
VGoldeen
p375
sg11
VSw,Sh,
p376
sg13
VSurf
p377
sg15
V40
p378
sg17
V43
p379
sg19
g20
sbag1
(g2
g3
Ntp380
Rp381
(dp382
g7
V170
p383
sg9
VChinchou
p384
sg11
VSw,Sh,
p385
sg13
VSurf
p386
sg15
V40
p387
sg17
V43
p388
sg19
g20
sbag1
(g2
g3
Ntp389
Rp390
(dp391
g7
V278
p392
sg9
VWingull
p393
sg11
VSw,Sh,
p394
sg13
VSurf
p395
sg15
V40
p396
sg17
V43
p397
sg19
g20
sbag1
(g2
g3
Ntp398
Rp399
(dp400
g7
V582
p401
sg9
VVanillite
p402
sg11
VSw,Sh,
p403
sg13
VSurf
p404
sg15
V40
p405
sg17
V43
p406
sg19
g20
sbag1
(g2
g3
Ntp407
Rp408
(dp409
g7
V592
p410
sg9
VFrillish
p411
sg11
VSw,Sh,
p412
sg13
VSurf
p413
sg15
V40
p414
sg17
V43
p415
sg19
g20
sbag1
(g2
g3
Ntp416
Rp417
(dp418
g7
V178
p419
sg9
VXatu
p420
sg11
VSw,Sh,
p421
sg13
VWanderer
p422
sg15
V26
p423
sg17
g423
sg19
g20
sbag1
(g2
g3
Ntp424
Rp425
(dp426
g7
V279
p427
sg9
VPelipper
p428
sg11
VSw,Sh,
p429
sg13
VWanderer
p430
sg15
V26
p431
sg17
g431
sg19
g20
sbag1
(g2
g3
Ntp432
Rp433
(dp434
g7
V110
p435
sg9
VWeezing
p436
sg11
VSw,Sh,
p437
sg13
VWanderer
p438
sg15
V65
p439
sg17
g439
sg19
V0
p440
sbag1
(g2
g3
Ntp441
Rp442
(dp443
g7
V221
p444
sg9
VPiloswine
p445
sg11
VSw,Sh,
p446
sg13
VWanderer
p447
sg15
V36
p448
sg17
g448
sg19
g20
sbag1
(g2
g3
Ntp449
Rp450
(dp451
g7
V437
p452
sg9
VBronzong
p453
sg11
VSw,Sh,
p454
sg13
VWanderer
p455
sg15
V36
p456
sg17
g456
sg19
g20
sbag1
(g2
g3
Ntp457
Rp458
(dp459
g7
V569
p460
sg9
VGarbodor
p461
sg11
VSw,Sh,
p462
sg13
VWanderer
p463
sg15
V36
p464
sg17
g464
sg19
g20
sbag1
(g2
g3
Ntp465
Rp466
(dp467
g7
V750
p468
sg9
VMudsdale
p469
sg11
VSw,Sh,
p470
sg13
VWanderer
p471
sg15
V36
p472
sg17
g472
sg19
g20
sbag1
(g2
g3
Ntp473
Rp474
(dp475
g7
V130
p476
sg9
VGyarados
p477
sg11
VSw,Sh,
p478
sg13
VWanderer
p479
sg15
V56
p480
sg17
g480
sg19
V0
p481
sbag1
(g2
g3
Ntp482
Rp483
(dp484
g7
V119
p485
sg9
VSeaking
p486
sg11
VSw,Sh,
p487
sg13
VWanderer
p488
sg15
V46
p489
sg17
g489
sg19
g20
sbag1
(g2
g3
Ntp490
Rp491
(dp492
g7
V279
p493
sg9
VPelipper
p494
sg11
VSw,Sh,
p495
sg13
VWanderer
p496
sg15
V46
p497
sg17
g497
sg19
g20
sbag1
(g2
g3
Ntp498
Rp499
(dp500
g7
V584
p501
sg9
VVanilluxe
p502
sg11
VSw,Sh,
p503
sg13
VWanderer
p504
sg15
V47
p505
sg17
g505
sg19
g20
sbag1
(g2
g3
Ntp506
Rp507
(dp508
g7
V593
p509
sg9
VJellicent
p510
sg11
VSw,Sh,
p511
sg13
VWanderer
p512
sg15
V46
p513
sg17
g513
sg19
g20
sbag1
(g2
g3
Ntp514
Rp515
(dp516
g7
V119
p517
sg9
VSeaking
p518
sg11
VSw,Sh,
p519
sg13
VWanderer
p520
sg15
V46
p521
sg17
g521
sg19
g20
sbag1
(g2
g3
Ntp522
Rp523
(dp524
g7
V171
p525
sg9
VLanturn
p526
sg11
VSw,Sh,
p527
sg13
VWanderer
p528
sg15
V46
p529
sg17
g529
sg19
g20
sbag1
(g2
g3
Ntp530
Rp531
(dp532
g7
V279
p533
sg9
VPelipper
p534
sg11
VSw,Sh,
p535
sg13
VWanderer
p536
sg15
V46
p537
sg17
g537
sg19
g20
sbag1
(g2
g3
Ntp538
Rp539
(dp540
g7
V584
p541
sg9
VVanilluxe
p542
sg11
VSw,Sh,
p543
sg13
VWanderer
p544
sg15
V47
p545
sg17
g545
sg19
g20
sbag1
(g2
g3
Ntp546
Rp547
(dp548
g7
V593
p549
sg9
VJellicent
p550
sg11
VSw,Sh,
p551
sg13
VWanderer
p552
sg15
V46
p553
sg17
g553
sg19
g20
sbag1
(g2
g3
Ntp554
Rp555
(dp556
g7
V119
p557
sg9
VSeaking
p558
sg11
VSw,Sh,
p559
sg13
VWanderer
p560
sg15
V46
p561
sg17
g561
sg19
g20
sbag1
(g2
g3
Ntp562
Rp563
(dp564
g7
V279
p565
sg9
VPelipper
p566
sg11
VSw,Sh,
p567
sg13
VWanderer
p568
sg15
V46
p569
sg17
g569
sg19
g20
sbag1
(g2
g3
Ntp570
Rp571
(dp572
g7
V584
p573
sg9
VVanilluxe
p574
sg11
VSw,Sh,
p575
sg13
VWanderer
p576
sg15
V47
p577
sg17
g577
sg19
g20
sbag1
(g2
g3
Ntp578
Rp579
(dp580
g7
V593
p581
sg9
VJellicent
p582
sg11
VSw,Sh,
p583
sg13
VWanderer
p584
sg15
V46
p585
sg17
g585
sg19
g20
sbag1
(g2
g3
Ntp586
Rp587
(dp588
g7
V119
p589
sg9
VSeaking
p590
sg11
VSw,Sh,
p591
sg13
VWanderer
p592
sg15
V46
p593
sg17
g593
sg19
g20
sbag1
(g2
g3
Ntp594
Rp595
(dp596
g7
V171
p597
sg9
VLanturn
p598
sg11
VSw,Sh,
p599
sg13
VWanderer
p600
sg15
V46
p601
sg17
g601
sg19
g20
sbag1
(g2
g3
Ntp602
Rp603
(dp604
g7
V279
p605
sg9
VPelipper
p606
sg11
VSw,Sh,
p607
sg13
VWanderer
p608
sg15
V46
p609
sg17
g609
sg19
g20
sbag1
(g2
g3
Ntp610
Rp611
(dp612
g7
V584
p613
sg9
VVanilluxe
p614
sg11
VSw,Sh,
p615
sg13
VWanderer
p616
sg15
V47
p617
sg17
g617
sg19
g20
sbag1
(g2
g3
Ntp618
Rp619
(dp620
g7
V593
p621
sg9
VJellicent
p622
sg11
VSw,Sh,
p623
sg13
VWanderer
p624
sg15
V46
p625
sg17
g625
sg19
g20
sbag1
(g2
g3
Ntp626
Rp627
(dp628
g7
V130
p629
sg9
VGyarados
p630
sg11
VSw,Sh,
p631
sg13
VWanderer
p632
sg15
V56
p633
sg17
g633
sg19
V0
p634
sbag1
(g2
g3
Ntp635
Rp636
(dp637
g7
V119
p638
sg9
VSeaking
p639
sg11
VSw,Sh,
p640
sg13
VWanderer
p641
sg15
V46
p642
sg17
g642
sg19
g20
sbag1
(g2
g3
Ntp643
Rp644
(dp645
g7
V279
p646
sg9
VPelipper
p647
sg11
VSw,Sh,
p648
sg13
VWanderer
p649
sg15
V46
p650
sg17
g650
sg19
g20
sbag1
(g2
g3
Ntp651
Rp652
(dp653
g7
V584
p654
sg9
VVanilluxe
p655
sg11
VSw,Sh,
p656
sg13
VWanderer
p657
sg15
V47
p658
sg17
g658
sg19
g20
sbag1
(g2
g3
Ntp659
Rp660
(dp661
g7
V593
p662
sg9
VJellicent
p663
sg11
VSw,Sh,
p664
sg13
VWanderer
p665
sg15
V46
p666
sg17
g666
sg19
g20
sbag1
(g2
g3
Ntp667
Rp668
(dp669
g7
V119
p670
sg9
VSeaking
p671
sg11
VSw,Sh,
p672
sg13
VWanderer
p673
sg15
V46
p674
sg17
g674
sg19
g20
sbag1
(g2
g3
Ntp675
Rp676
(dp677
g7
V171
p678
sg9
VLanturn
p679
sg11
VSw,Sh,
p680
sg13
VWanderer
p681
sg15
V46
p682
sg17
g682
sg19
g20
sbag1
(g2
g3
Ntp683
Rp684
(dp685
g7
V584
p686
sg9
VVanilluxe
p687
sg11
VSw,Sh,
p688
sg13
VWanderer
p689
sg15
V47
p690
sg17
g690
sg19
g20
sbag1
(g2
g3
Ntp691
Rp692
(dp693
g7
V593
p694
sg9
VJellicent
p695
sg11
VSw,Sh,
p696
sg13
VWanderer
p697
sg15
V46
p698
sg17
g698
sg19
g20
sbag1
(g2
g3
Ntp699
Rp700
(dp701
g7
V091
p702
sg9
VCloyster
p703
sg11
VSw,Sh,
p704
sg13
VWanderer
p705
sg15
V46
p706
sg17
g706
sg19
g20
sbag1
(g2
g3
Ntp707
Rp708
(dp709
g7
V119
p710
sg9
VSeaking
p711
sg11
VSw,Sh,
p712
sg13
VWanderer
p713
sg15
V46
p714
sg17
g714
sg19
g20
sbag1
(g2
g3
Ntp715
Rp716
(dp717
g7
V171
p718
sg9
VLanturn
p719
sg11
VSw,Sh,
p720
sg13
VWanderer
p721
sg15
V46
p722
sg17
g722
sg19
g20
sbag1
(g2
g3
Ntp723
Rp724
(dp725
g7
V279
p726
sg9
VPelipper
p727
sg11
VSw,Sh,
p728
sg13
VWanderer
p729
sg15
V46
p730
sg17
g730
sg19
g20
sbag1
(g2
g3
Ntp731
Rp732
(dp733
g7
V584
p734
sg9
VVanilluxe
p735
sg11
VSw,Sh,
p736
sg13
VWanderer
p737
sg15
V47
p738
sg17
g738
sg19
g20
sbag1
(g2
g3
Ntp739
Rp740
(dp741
g7
V593
p742
sg9
VJellicent
p743
sg11
VSw,Sh,
p744
sg13
VWanderer
p745
sg15
V46
p746
sg17
g746
sg19
g20
sbag1
(g2
g3
Ntp747
Rp748
(dp749
g7
V119
p750
sg9
VSeaking
p751
sg11
VSw,Sh,
p752
sg13
VWanderer
p753
sg15
V46
p754
sg17
g754
sg19
g20
sbag1
(g2
g3
Ntp755
Rp756
(dp757
g7
V171
p758
sg9
VLanturn
p759
sg11
VSw,Sh,
p760
sg13
VWanderer
p761
sg15
V46
p762
sg17
g762
sg19
g20
sbag1
(g2
g3
Ntp763
Rp764
(dp765
g7
V279
p766
sg9
VPelipper
p767
sg11
VSw,Sh,
p768
sg13
VWanderer
p769
sg15
V46
p770
sg17
g770
sg19
g20
sbag1
(g2
g3
Ntp771
Rp772
(dp773
g7
V584
p774
sg9
VVanilluxe
p775
sg11
VSw,Sh,
p776
sg13
VWanderer
p777
sg15
V47
p778
sg17
g778
sg19
g20
sbag1
(g2
g3
Ntp779
Rp780
(dp781
g7
V593
p782
sg9
VJellicent
p783
sg11
VSw,Sh,
p784
sg13
VWanderer
p785
sg15
V46
p786
sg17
g786
sg19
g20
sba.