(lp0
ccopy_reg
_reconstructor
p1
(c__main__
WildPokemon
p2
c__builtin__
object
p3
Ntp4
Rp5
(dp6
VpDexNo
p7
V060
p8
sVpSpecies
p9
VPoliwag
p10
sVpGames
p11
VG,S,C,
p12
sVpArea
p13
VSurf
p14
sVpMinLevel
p15
V15
p16
sVpMaxLevel
p17
V24
p18
sVpRate
p19
V90
p20
sbag1
(g2
g3
Ntp21
Rp22
(dp23
g7
V061
p24
sg9
VPoliwhirl
p25
sg11
VG,S,C,
p26
sg13
VSurf
p27
sg15
V20
p28
sg17
V24
p29
sg19
V10
p30
sbag1
(g2
g3
Ntp31
Rp32
(dp33
g7
V060
p34
sg9
VPoliwag
p35
sg11
VG,S,C,
p36
sg13
VFish Old
p37
sg15
V10
p38
sg17
g38
sg19
V15
p39
sbag1
(g2
g3
Ntp40
Rp41
(dp42
g7
V129
p43
sg9
VMagikarp
p44
sg11
VG,S,C,
p45
sg13
VFish Old
p46
sg15
V10
p47
sg17
g47
sg19
V85
p48
sbag1
(g2
g3
Ntp49
Rp50
(dp51
g7
V060
p52
sg9
VPoliwag
p53
sg11
VG,S,C,
p54
sg13
VFish Good
p55
sg15
V20
p56
sg17
g56
sg19
V65
p57
sbag1
(g2
g3
Ntp58
Rp59
(dp60
g7
V129
p61
sg9
VMagikarp
p62
sg11
VG,S,C,
p63
sg13
VFish Good
p64
sg15
V20
p65
sg17
g65
sg19
V35
p66
sbag1
(g2
g3
Ntp67
Rp68
(dp69
g7
V060
p70
sg9
VPoliwag
p71
sg11
VG,S,C,
p72
sg13
VFish Super
p73
sg15
V40
p74
sg17
g74
sg19
V80
p75
sbag1
(g2
g3
Ntp76
Rp77
(dp78
g7
V129
p79
sg9
VMagikarp
p80
sg11
VG,S,C,
p81
sg13
VFish Super
p82
sg15
V40
p83
sg17
g83
sg19
V20
p84
sbag1
(g2
g3
Ntp85
Rp86
(dp87
g7
V060
p88
sg9
VPoliwag
p89
sg11
VHG,SS,
p90
sg13
VSurf
p91
sg15
V10
p92
sg17
V25
p93
sg19
V90
p94
sbag1
(g2
g3
Ntp95
Rp96
(dp97
g7
V061
p98
sg9
VPoliwhirl
p99
sg11
VHG,SS,
p100
sg13
VSurf
p101
sg15
V15
p102
sg17
V25
p103
sg19
V10
p104
sbag1
(g2
g3
Ntp105
Rp106
(dp107
g7
V060
p108
sg9
VPoliwag
p109
sg11
VHG,SS,
p110
sg13
VFish Old
p111
sg15
V10
p112
sg17
g112
sg19
V5
p113
sbag1
(g2
g3
Ntp114
Rp115
(dp116
g7
V129
p117
sg9
VMagikarp
p118
sg11
VHG,SS,
p119
sg13
VFish Old
p120
sg15
V10
p121
sg17
g121
sg19
V95
p122
sbag1
(g2
g3
Ntp123
Rp124
(dp125
g7
V060
p126
sg9
VPoliwag
p127
sg11
VHG,SS,
p128
sg13
VFish Good
p129
sg15
V20
p130
sg17
g130
sg19
V60
p131
sbag1
(g2
g3
Ntp132
Rp133
(dp134
g7
V129
p135
sg9
VMagikarp
p136
sg11
VHG,SS,
p137
sg13
VFish Good
p138
sg15
V20
p139
sg17
g139
sg19
V40
p140
sbag1
(g2
g3
Ntp141
Rp142
(dp143
g7
V060
p144
sg9
VPoliwag
p145
sg11
VHG,SS,
p146
sg13
VFish Super
p147
sg15
V40
p148
sg17
g148
sg19
V93
p149
sbag1
(g2
g3
Ntp150
Rp151
(dp152
g7
V129
p153
sg9
VMagikarp
p154
sg11
VHG,SS,
p155
sg13
VFish Super
p156
sg15
V40
p157
sg17
g157
sg19
V7
p158
sbag1
(g2
g3
Ntp159
Rp160
(dp161
g7
V102
p162
sg9
VExeggcute
p163
sg11
VHG,SS,
p164
sg13
VHeadbutt
p165
sg15
V12
p166
sg17
V17
p167
sg19
V20
p168
sbag1
(g2
g3
Ntp169
Rp170
(dp171
g7
V163
p172
sg9
VHoothoot
p173
sg11
VHG,SS,
p174
sg13
VHeadbutt
p175
sg15
V12
p176
sg17
V17
p177
sg19
V50
p178
sbag1
(g2
g3
Ntp179
Rp180
(dp181
g7
V165
p182
sg9
VLedyba
p183
sg11
VSS,
p184
sg13
VHeadbutt
p185
sg15
V15
p186
sg17
V17
p187
sg19
V30
p188
sbag1
(g2
g3
Ntp189
Rp190
(dp191
g7
V167
p192
sg9
VSpinarak
p193
sg11
VHG,
p194
sg13
VHeadbutt
p195
sg15
V15
p196
sg17
V17
p197
sg19
V30
p198
sbag1
(g2
g3
Ntp199
Rp200
(dp201
g7
V204
p202
sg9
VPineco
p203
sg11
VHG,SS,
p204
sg13
VHeadbutt
p205
sg15
V12
p206
sg17
V14
p207
sg19
V30
p208
sba.