(lp0
ccopy_reg
_reconstructor
p1
(c__main__
WildPokemon
p2
c__builtin__
object
p3
Ntp4
Rp5
(dp6
VpDexNo
p7
V102
p8
sVpSpecies
p9
VExeggcute
p10
sVpGames
p11
VSu,M,
p12
sVpArea
p13
VGrass
p14
sVpMinLevel
p15
V40
p16
sVpMaxLevel
p17
V43
p18
sVpRate
p19
V40
p20
sbag1
(g2
g3
Ntp21
Rp22
(dp23
g7
V103
p24
sg9
VExeggutor
p25
sg11
VSu,M,
p26
sg13
VGrass
p27
sg15
V40
p28
sg17
V43
p29
sg19
V20
p30
sbag1
(g2
g3
Ntp31
Rp32
(dp33
g7
V279
p34
sg9
VPelipper
p35
sg11
VSu,M,
p36
sg13
VGrass
p37
sg15
V40
p38
sg17
V43
p39
sg19
V30
p40
sbag1
(g2
g3
Ntp41
Rp42
(dp43
g7
V423
p44
sg9
VGastrodon
p45
sg11
VSu,M,
p46
sg13
VGrass
p47
sg15
V40
p48
sg17
V43
p49
sg19
V10
p50
sbag1
(g2
g3
Ntp51
Rp52
(dp53
g7
V000
p54
sg9
VAny
p55
sg11
VSu,M,
p56
sg13
VGrass
p57
sg15
V40
p58
sg17
V43
p59
sg19
V10
p60
sbag1
(g2
g3
Ntp61
Rp62
(dp63
g7
V000
p64
sg9
VAny
p65
sg11
VSu,M,
p66
sg13
VGrass
p67
sg15
V40
p68
sg17
V43
p69
sg19
V1
p70
sbag1
(g2
g3
Ntp71
Rp72
(dp73
g7
V000
p74
sg9
VAny
p75
sg11
VSu,M,
p76
sg13
VGrass
p77
sg15
V40
p78
sg17
V43
p79
sg19
V11
p80
sbag1
(g2
g3
Ntp81
Rp82
(dp83
g7
V103
p84
sg9
VExeggutor
p85
sg11
VSu,M,
p86
sg13
VSpecial
p87
sg15
V40
p88
sg17
g88
sg19
V0
p89
sbag1
(g2
g3
Ntp90
Rp91
(dp92
g7
V497
p93
sg9
VSerperior
p94
sg11
VSu,M,
p95
sg13
VGrass
p96
sg15
V43
p97
sg17
g97
sg19
V0
p98
sbag1
(g2
g3
Ntp99
Rp100
(dp101
g7
V102
p102
sg9
VExeggcute
p103
sg11
VUS,UM,
p104
sg13
VGrass
p105
sg15
V42
p106
sg17
V45
p107
sg19
V20
p108
sbag1
(g2
g3
Ntp109
Rp110
(dp111
g7
V103
p112
sg9
VExeggutor
p113
sg11
VUS,UM,
p114
sg13
VGrass
p115
sg15
V42
p116
sg17
V45
p117
sg19
V20
p118
sbag1
(g2
g3
Ntp119
Rp120
(dp121
g7
V127
p122
sg9
VPinsir
p123
sg11
VUS,UM,
p124
sg13
VGrass
p125
sg15
V42
p126
sg17
V45
p127
sg19
V10
p128
sbag1
(g2
g3
Ntp129
Rp130
(dp131
g7
V279
p132
sg9
VPelipper
p133
sg11
VUS,UM,
p134
sg13
VGrass
p135
sg15
V42
p136
sg17
V45
p137
sg19
V20
p138
sbag1
(g2
g3
Ntp139
Rp140
(dp141
g7
V357
p142
sg9
VTropius
p143
sg11
VUS,UM,
p144
sg13
VGrass
p145
sg15
V42
p146
sg17
V45
p147
sg19
V20
p148
sbag1
(g2
g3
Ntp149
Rp150
(dp151
g7
V423
p152
sg9
VGastrodon
p153
sg11
VUS,UM,
p154
sg13
VGrass
p155
sg15
V42
p156
sg17
V45
p157
sg19
V10
p158
sbag1
(g2
g3
Ntp159
Rp160
(dp161
g7
V000
p162
sg9
VAny
p163
sg11
VUS,UM,
p164
sg13
VGrass
p165
sg15
V40
p166
sg17
V43
p167
sg19
V10
p168
sbag1
(g2
g3
Ntp169
Rp170
(dp171
g7
V000
p172
sg9
VAny
p173
sg11
VUS,UM,
p174
sg13
VGrass
p175
sg15
V40
p176
sg17
V43
p177
sg19
V1
p178
sbag1
(g2
g3
Ntp179
Rp180
(dp181
g7
V000
p182
sg9
VAny
p183
sg11
VUS,UM,
p184
sg13
VGrass
p185
sg15
V40
p186
sg17
V43
p187
sg19
V11
p188
sbag1
(g2
g3
Ntp189
Rp190
(dp191
g7
V127
p192
sg9
VPinsir
p193
sg11
VUS,UM,
p194
sg13
VSpecial
p195
sg15
V42
p196
sg17
g196
sg19
V0
p197
sbag1
(g2
g3
Ntp198
Rp199
(dp200
g7
V127
p201
sg9
VPinsir
p202
sg11
VUS,UM,
p203
sg13
VSpecial
p204
sg15
V43
p205
sg17
g205
sg19
V0
p206
sbag1
(g2
g3
Ntp207
Rp208
(dp209
g7
V652
p210
sg9
VChesnaught
p211
sg11
VUS,UM,
p212
sg13
VGrass
p213
sg15
V45
p214
sg17
g214
sg19
V0
p215
sba.