(lp0
ccopy_reg
_reconstructor
p1
(c__main__
WildPokemon
p2
c__builtin__
object
p3
Ntp4
Rp5
(dp6
VpDexNo
p7
V039
p8
sVpSpecies
p9
VJigglypuff
p10
sVpGames
p11
VSw,Sh,
p12
sVpArea
p13
VGrass
p14
sVpMinLevel
p15
V13
p16
sVpMaxLevel
p17
V18
p18
sVpRate
p19
V0
p20
sbag1
(g2
g3
Ntp21
Rp22
(dp23
g7
V098
p24
sg9
VKrabby
p25
sg11
VSw,Sh,
p26
sg13
VGrass
p27
sg15
V13
p28
sg17
V18
p29
sg19
g20
sbag1
(g2
g3
Ntp30
Rp31
(dp32
g7
V280
p33
sg9
VRalts
p34
sg11
VSw,Sh,
p35
sg13
VGrass
p36
sg15
V13
p37
sg17
V18
p38
sg19
g20
sbag1
(g2
g3
Ntp39
Rp40
(dp41
g7
V427
p42
sg9
VBuneary
p43
sg11
VSw,Sh,
p44
sg13
VGrass
p45
sg15
V13
p46
sg17
V18
p47
sg19
V30
p48
sbag1
(g2
g3
Ntp49
Rp50
(dp51
g7
V440
p52
sg9
VHappiny
p53
sg11
VSw,Sh,
p54
sg13
VGrass
p55
sg15
V13
p56
sg17
V18
p57
sg19
V10
p58
sbag1
(g2
g3
Ntp59
Rp60
(dp61
g7
V686
p62
sg9
VInkay
p63
sg11
VSw,Sh,
p64
sg13
VGrass
p65
sg15
V13
p66
sg17
V18
p67
sg19
g20
sbag1
(g2
g3
Ntp68
Rp69
(dp70
g7
V753
p71
sg9
VFomantis
p72
sg11
VSw,Sh,
p73
sg13
VGrass
p74
sg15
V13
p75
sg17
V18
p76
sg19
g20
sbag1
(g2
g3
Ntp77
Rp78
(dp79
g7
V824
p80
sg9
VBlipbug
p81
sg11
VSw,Sh,
p82
sg13
VGrass
p83
sg15
V13
p84
sg17
V18
p85
sg19
V30
p86
sbag1
(g2
g3
Ntp87
Rp88
(dp89
g7
V819
p90
sg9
VSkwovet
p91
sg11
VSw,Sh,
p92
sg13
VBerry tree
p93
sg15
V13
p94
sg17
V18
p95
sg19
V70
p96
sbag1
(g2
g3
Ntp97
Rp98
(dp99
g7
V840
p100
sg9
VApplin
p101
sg11
VSw,Sh,
p102
sg13
VBerry tree
p103
sg15
V13
p104
sg17
V18
p105
sg19
V30
p106
sbag1
(g2
g3
Ntp107
Rp108
(dp109
g7
V129
p110
sg9
VMagikarp
p111
sg11
VSw,Sh,
p112
sg13
VFishing
p113
sg15
V13
p114
sg17
V18
p115
sg19
V50
p116
sbag1
(g2
g3
Ntp117
Rp118
(dp119
g7
V223
p120
sg9
VRemoraid
p121
sg11
VSw,Sh,
p122
sg13
VFishing
p123
sg15
V13
p124
sg17
V18
p125
sg19
V40
p126
sbag1
(g2
g3
Ntp127
Rp128
(dp129
g7
V224
p130
sg9
VOctillery
p131
sg11
VSw,Sh,
p132
sg13
VFishing
p133
sg15
V13
p134
sg17
V18
p135
sg19
V10
p136
sbag1
(g2
g3
Ntp137
Rp138
(dp139
g7
V039
p140
sg9
VJigglypuff
p141
sg11
VSw,Sh,
p142
sg13
VGrass
p143
sg15
V10
p144
sg17
V15
p145
sg19
V32
p146
sbag1
(g2
g3
Ntp147
Rp148
(dp149
g7
V063
p150
sg9
VAbra
p151
sg11
VSw,Sh,
p152
sg13
VGrass
p153
sg15
V10
p154
sg17
V15
p155
sg19
V5
p156
sbag1
(g2
g3
Ntp157
Rp158
(dp159
g7
V098
p160
sg9
VKrabby
p161
sg11
VSw,Sh,
p162
sg13
VGrass
p163
sg15
V10
p164
sg17
V15
p165
sg19
g20
sbag1
(g2
g3
Ntp166
Rp167
(dp168
g7
V113
p169
sg9
VChansey
p170
sg11
VSw,Sh,
p171
sg13
VGrass
p172
sg15
V10
p173
sg17
V15
p174
sg19
g20
sbag1
(g2
g3
Ntp175
Rp176
(dp177
g7
V242
p178
sg9
VBlissey
p179
sg11
VSw,Sh,
p180
sg13
VGrass
p181
sg15
V10
p182
sg17
V15
p183
sg19
g20
sbag1
(g2
g3
Ntp184
Rp185
(dp186
g7
V280
p187
sg9
VRalts
p188
sg11
VSw,Sh,
p189
sg13
VGrass
p190
sg15
V10
p191
sg17
V15
p192
sg19
g20
sbag1
(g2
g3
Ntp193
Rp194
(dp195
g7
V427
p196
sg9
VBuneary
p197
sg11
VSw,Sh,
p198
sg13
VGrass
p199
sg15
V10
p200
sg17
V15
p201
sg19
g20
sbag1
(g2
g3
Ntp202
Rp203
(dp204
g7
V686
p205
sg9
VInkay
p206
sg11
VSw,Sh,
p207
sg13
VGrass
p208
sg15
V10
p209
sg17
V15
p210
sg19
g20
sbag1
(g2
g3
Ntp211
Rp212
(dp213
g7
V707
p214
sg9
VKlefki
p215
sg11
VSw,Sh,
p216
sg13
VGrass
p217
sg15
V10
p218
sg17
V15
p219
sg19
V5
p220
sbag1
(g2
g3
Ntp221
Rp222
(dp223
g7
V753
p224
sg9
VFomantis
p225
sg11
VSw,Sh,
p226
sg13
VGrass
p227
sg15
V10
p228
sg17
V15
p229
sg19
g20
sbag1
(g2
g3
Ntp230
Rp231
(dp232
g7
V079
p233
sg9
VSlowpoke
p234
sg11
VSw,Sh,
p235
sg13
VBeach
p236
sg15
V10
p237
sg17
V15
p238
sg19
V100
p239
sbag1
(g2
g3
Ntp240
Rp241
(dp242
g7
V072
p243
sg9
VTentacool
p244
sg11
VSw,Sh,
p245
sg13
VSurf
p246
sg15
V40
p247
sg17
V45
p248
sg19
g20
sbag1
(g2
g3
Ntp249
Rp250
(dp251
g7
V073
p252
sg9
VTentacruel
p253
sg11
VSw,Sh,
p254
sg13
VSurf
p255
sg15
V40
p256
sg17
V45
p257
sg19
g20
sbag1
(g2
g3
Ntp258
Rp259
(dp260
g7
V278
p261
sg9
VWingull
p262
sg11
VSw,Sh,
p263
sg13
VSurf
p264
sg15
V40
p265
sg17
V45
p266
sg19
V35
p267
sbag1
(g2
g3
Ntp268
Rp269
(dp270
g7
V279
p271
sg9
VPelipper
p272
sg11
VSw,Sh,
p273
sg13
VSurf
p274
sg15
V40
p275
sg17
V45
p276
sg19
g20
sbag1
(g2
g3
Ntp277
Rp278
(dp279
g7
V425
p280
sg9
VDrifloon
p281
sg11
VSw,Sh,
p282
sg13
VSurf
p283
sg15
V40
p284
sg17
V45
p285
sg19
g20
sbag1
(g2
g3
Ntp286
Rp287
(dp288
g7
V458
p289
sg9
VMantyke
p290
sg11
VSw,Sh,
p291
sg13
VSurf
p292
sg15
V40
p293
sg17
V45
p294
sg19
g20
sbag1
(g2
g3
Ntp295
Rp296
(dp297
g7
V428
p298
sg9
VLopunny
p299
sg11
VSw,Sh,
p300
sg13
VWanderer
p301
sg15
V22
p302
sg17
g302
sg19
g20
sbag1
(g2
g3
Ntp303
Rp304
(dp305
g7
V687
p306
sg9
VMalamar
p307
sg11
VSw,Sh,
p308
sg13
VWanderer
p309
sg15
V26
p310
sg17
g310
sg19
g20
sbag1
(g2
g3
Ntp311
Rp312
(dp313
g7
V404
p314
sg9
VLuxio
p315
sg11
VSw,Sh,
p316
sg13
VWanderer
p317
sg15
V20
p318
sg17
g318
sg19
g20
sbag1
(g2
g3
Ntp319
Rp320
(dp321
g7
V040
p322
sg9
VWigglytuff
p323
sg11
VSw,Sh,
p324
sg13
VWanderer
p325
sg15
V27
p326
sg17
g326
sg19
g20
sbag1
(g2
g3
Ntp327
Rp328
(dp329
g7
V764
p330
sg9
VComfey
p331
sg11
VSw,Sh,
p332
sg13
VWanderer
p333
sg15
V15
p334
sg17
g334
sg19
g20
sbag1
(g2
g3
Ntp335
Rp336
(dp337
g7
V687
p338
sg9
VMalamar
p339
sg11
VSw,Sh,
p340
sg13
VWanderer
p341
sg15
V26
p342
sg17
g342
sg19
g20
sbag1
(g2
g3
Ntp343
Rp344
(dp345
g7
V404
p346
sg9
VLuxio
p347
sg11
VSw,Sh,
p348
sg13
VWanderer
p349
sg15
V20
p350
sg17
g350
sg19
g20
sbag1
(g2
g3
Ntp351
Rp352
(dp353
g7
V662
p354
sg9
VFletchinder
p355
sg11
VSw,Sh,
p356
sg13
VWanderer
p357
sg15
V20
p358
sg17
g358
sg19
g20
sbag1
(g2
g3
Ntp359
Rp360
(dp361
g7
V064
p362
sg9
VKadabra
p363
sg11
VSw,Sh,
p364
sg13
VWanderer
p365
sg15
V20
p366
sg17
g366
sg19
g20
sbag1
(g2
g3
Ntp367
Rp368
(dp369
g7
V121
p370
sg9
VStarmie
p371
sg11
VSw,Sh,
p372
sg13
VWanderer
p373
sg15
V20
p374
sg17
g374
sg19
g20
sbag1
(g2
g3
Ntp375
Rp376
(dp377
g7
V099
p378
sg9
VKingler
p379
sg11
VSw,Sh,
p380
sg13
VWanderer
p381
sg15
V20
p382
sg17
g382
sg19
g20
sbag1
(g2
g3
Ntp383
Rp384
(dp385
g7
V834
p386
sg9
VDrednaw
p387
sg11
VSw,Sh,
p388
sg13
VWanderer
p389
sg15
V20
p390
sg17
g390
sg19
g20
sbag1
(g2
g3
Ntp391
Rp392
(dp393
g7
V748
p394
sg9
VToxapex
p395
sg11
VSw,Sh,
p396
sg13
VWanderer
p397
sg15
V20
p398
sg17
g398
sg19
g20
sbag1
(g2
g3
Ntp399
Rp400
(dp401
g7
V099
p402
sg9
VKingler
p403
sg11
VSw,Sh,
p404
sg13
VWanderer
p405
sg15
V20
p406
sg17
g406
sg19
g20
sbag1
(g2
g3
Ntp407
Rp408
(dp409
g7
V748
p410
sg9
VToxapex
p411
sg11
VSw,Sh,
p412
sg13
VWanderer
p413
sg15
V20
p414
sg17
g414
sg19
g20
sbag1
(g2
g3
Ntp415
Rp416
(dp417
g7
V121
p418
sg9
VStarmie
p419
sg11
VSw,Sh,
p420
sg13
VWanderer
p421
sg15
V20
p422
sg17
g422
sg19
g20
sbag1
(g2
g3
Ntp423
Rp424
(dp425
g7
V744
p426
sg9
VRockruff
p427
sg11
VSw,Sh,
p428
sg13
VWanderer
p429
sg15
V15
p430
sg17
g430
sg19
g20
sbag1
(g2
g3
Ntp431
Rp432
(dp433
g7
V570
p434
sg9
VZorua
p435
sg11
VSw,Sh,
p436
sg13
VWanderer
p437
sg15
V15
p438
sg17
g438
sg19
g20
sbag1
(g2
g3
Ntp439
Rp440
(dp441
g7
V183
p442
sg9
VMarill
p443
sg11
VSw,Sh,
p444
sg13
VWanderer
p445
sg15
V15
p446
sg17
g446
sg19
g20
sbag1
(g2
g3
Ntp447
Rp448
(dp449
g7
V025
p450
sg9
VPikachu
p451
sg11
VSw,Sh,
p452
sg13
VWanderer
p453
sg15
V15
p454
sg17
g454
sg19
g20
sbag1
(g2
g3
Ntp455
Rp456
(dp457
g7
V748
p458
sg9
VToxapex
p459
sg11
VSw,Sh,
p460
sg13
VWanderer
p461
sg15
V20
p462
sg17
g462
sg19
g20
sbag1
(g2
g3
Ntp463
Rp464
(dp465
g7
V099
p466
sg9
VKingler
p467
sg11
VSw,Sh,
p468
sg13
VWanderer
p469
sg15
V20
p470
sg17
g470
sg19
g20
sbag1
(g2
g3
Ntp471
Rp472
(dp473
g7
V121
p474
sg9
VStarmie
p475
sg11
VSw,Sh,
p476
sg13
VWanderer
p477
sg15
V20
p478
sg17
g478
sg19
g20
sbag1
(g2
g3
Ntp479
Rp480
(dp481
g7
V099
p482
sg9
VKingler
p483
sg11
VSw,Sh,
p484
sg13
VWanderer
p485
sg15
V20
p486
sg17
g486
sg19
g20
sbag1
(g2
g3
Ntp487
Rp488
(dp489
g7
V121
p490
sg9
VStarmie
p491
sg11
VSw,Sh,
p492
sg13
VWanderer
p493
sg15
V20
p494
sg17
g494
sg19
g20
sbag1
(g2
g3
Ntp495
Rp496
(dp497
g7
V748
p498
sg9
VToxapex
p499
sg11
VSw,Sh,
p500
sg13
VWanderer
p501
sg15
V20
p502
sg17
g502
sg19
g20
sbag1
(g2
g3
Ntp503
Rp504
(dp505
g7
V052
p506
sg9
VMeowth
p507
sg11
VSw,Sh,
p508
sg13
VTrade
p509
sg15
V15
p510
sg17
g510
sg19
V0
p511
sbag1
(g2
g3
Ntp512
Rp513
(dp514
g7
V077
p515
sg9
VPonyta
p516
sg11
VSh,
p517
sg13
VTrade
p518
sg15
V15
p519
sg17
g519
sg19
V0
p520
sbag1
(g2
g3
Ntp521
Rp522
(dp523
g7
V083
p524
sg9
VFarfetch'd
p525
sg11
VSw,
p526
sg13
VTrade
p527
sg15
V15
p528
sg17
g528
sg19
V0
p529
sbag1
(g2
g3
Ntp530
Rp531
(dp532
g7
V103
p533
sg9
VExeggutor
p534
sg11
VSw,Sh,
p535
sg13
VTrade
p536
sg15
V15
p537
sg17
g537
sg19
V0
p538
sbag1
(g2
g3
Ntp539
Rp540
(dp541
g7
V105
p542
sg9
VMarowak
p543
sg11
VSw,Sh,
p544
sg13
VTrade
p545
sg15
V15
p546
sg17
g546
sg19
V0
p547
sbag1
(g2
g3
Ntp548
Rp549
(dp550
g7
V110
p551
sg9
VWeezing
p552
sg11
VSw,Sh,
p553
sg13
VTrade
p554
sg15
V15
p555
sg17
g555
sg19
V0
p556
sbag1
(g2
g3
Ntp557
Rp558
(dp559
g7
V122
p560
sg9
VMr. Mime
p561
sg11
VSw,Sh,
p562
sg13
VTrade
p563
sg15
V15
p564
sg17
g564
sg19
V0
p565
sbag1
(g2
g3
Ntp566
Rp567
(dp568
g7
V222
p569
sg9
VCorsola
p570
sg11
g517
sg13
VTrade
p571
sg15
V15
p572
sg17
g572
sg19
V0
p573
sbag1
(g2
g3
Ntp574
Rp575
(dp576
g7
V263
p577
sg9
VZigzagoon
p578
sg11
VSw,Sh,
p579
sg13
VTrade
p580
sg15
V15
p581
sg17
g581
sg19
V0
p582
sbag1
(g2
g3
Ntp583
Rp584
(dp585
g7
V554
p586
sg9
VDarumaka
p587
sg11
g526
sg13
VTrade
p588
sg15
V15
p589
sg17
g589
sg19
V0
p590
sbag1
(g2
g3
Ntp591
Rp592
(dp593
g7
V618
p594
sg9
VStunfisk
p595
sg11
VSw,Sh,
p596
sg13
VTrade
p597
sg15
V15
p598
sg17
g598
sg19
V0
p599
sba.