(lp0
ccopy_reg
_reconstructor
p1
(c__main__
WildPokemon
p2
c__builtin__
object
p3
Ntp4
Rp5
(dp6
VpDexNo
p7
V066
p8
sVpSpecies
p9
VMachop
p10
sVpGames
p11
VRu,S,E,
p12
sVpArea
p13
VCave
p14
sVpMinLevel
p15
V15
p16
sVpMaxLevel
p17
V16
p18
sVpRate
p19
V15
p20
sbag1
(g2
g3
Ntp21
Rp22
(dp23
g7
V088
p24
sg9
VGrimer
p25
sg11
VRu,E,
p26
sg13
VCave
p27
sg15
V14
p28
sg17
g28
sg19
V2
p29
sbag1
(g2
g3
Ntp30
Rp31
(dp32
g7
V088
p33
sg9
VGrimer
p34
sg11
VS,
p35
sg13
VCave
p36
sg15
V15
p37
sg17
V16
p38
sg19
V25
p39
sbag1
(g2
g3
Ntp40
Rp41
(dp42
g7
V109
p43
sg9
VKoffing
p44
sg11
VRu,E,
p45
sg13
VCave
p46
sg15
V15
p47
sg17
V16
p48
sg19
V25
p49
sbag1
(g2
g3
Ntp50
Rp51
(dp52
g7
V109
p53
sg9
VKoffing
p54
sg11
g35
sg13
VCave
p55
sg15
V14
p56
sg17
g56
sg19
V2
p57
sbag1
(g2
g3
Ntp58
Rp59
(dp60
g7
V218
p61
sg9
VSlugma
p62
sg11
VRu,S,E,
p63
sg13
VCave
p64
sg15
V15
p65
sg17
g65
sg19
V10
p66
sbag1
(g2
g3
Ntp67
Rp68
(dp69
g7
V322
p70
sg9
VNumel
p71
sg11
VRu,S,E,
p72
sg13
VCave
p73
sg15
V15
p74
sg17
V16
p75
sg19
V30
p76
sbag1
(g2
g3
Ntp77
Rp78
(dp79
g7
V324
p80
sg9
VTorkoal
p81
sg11
VRu,S,E,
p82
sg13
VCave
p83
sg15
V14
p84
sg17
V16
p85
sg19
V18
p86
sbag1
(g2
g3
Ntp87
Rp88
(dp89
g7
V066
p90
sg9
VMachop
p91
sg11
VOR,AS,
p92
sg13
VCave
p93
sg15
V15
p94
sg17
g94
sg19
V5
p95
sbag1
(g2
g3
Ntp96
Rp97
(dp98
g7
V088
p99
sg9
VGrimer
p100
sg11
VOR,
p101
sg13
VCave
p102
sg15
V15
p103
sg17
g103
sg19
V5
p104
sbag1
(g2
g3
Ntp105
Rp106
(dp107
g7
V088
p108
sg9
VGrimer
p109
sg11
VAS,
p110
sg13
VCave
p111
sg15
V14
p112
sg17
V16
p113
sg19
V30
p114
sbag1
(g2
g3
Ntp115
Rp116
(dp117
g7
V109
p118
sg9
VKoffing
p119
sg11
g101
sg13
VCave
p120
sg15
V14
p121
sg17
V16
p122
sg19
V30
p123
sbag1
(g2
g3
Ntp124
Rp125
(dp126
g7
V109
p127
sg9
VKoffing
p128
sg11
g110
sg13
VCave
p129
sg15
V15
p130
sg17
g130
sg19
V5
p131
sbag1
(g2
g3
Ntp132
Rp133
(dp134
g7
V218
p135
sg9
VSlugma
p136
sg11
VOR,AS,
p137
sg13
VCave
p138
sg15
V15
p139
sg17
g139
sg19
V10
p140
sbag1
(g2
g3
Ntp141
Rp142
(dp143
g7
V322
p144
sg9
VNumel
p145
sg11
VOR,AS,
p146
sg13
VCave
p147
sg15
V13
p148
sg17
V16
p149
sg19
V40
p150
sbag1
(g2
g3
Ntp151
Rp152
(dp153
g7
V324
p154
sg9
VTorkoal
p155
sg11
VOR,AS,
p156
sg13
VCave
p157
sg15
V15
p158
sg17
g158
sg19
V10
p159
sbag1
(g2
g3
Ntp160
Rp161
(dp162
g7
V088
p163
sg9
VGrimer
p164
sg11
g110
sg13
VHorde Encounter
p165
sg15
V8
p166
sg17
g166
sg19
V35
p167
sbag1
(g2
g3
Ntp168
Rp169
(dp170
g7
V109
p171
sg9
VKoffing
p172
sg11
g101
sg13
VHorde Encounter
p173
sg15
g166
sg17
g166
sg19
V35
p174
sbag1
(g2
g3
Ntp175
Rp176
(dp177
g7
V218
p178
sg9
VSlugma
p179
sg11
VOR,AS,
p180
sg13
VHorde Encounter
p181
sg15
g166
sg17
g166
sg19
V5
p182
sbag1
(g2
g3
Ntp183
Rp184
(dp185
g7
V322
p186
sg9
VNumel
p187
sg11
VOR,AS,
p188
sg13
VHorde Encounter
p189
sg15
g166
sg17
g166
sg19
V60
p190
sbag1
(g2
g3
Ntp191
Rp192
(dp193
g7
V050
p194
sg9
VDiglett
p195
sg11
VOR,AS,
p196
sg13
VCave
p197
sg15
V15
p198
sg17
g198
sg19
V0
p199
sbag1
(g2
g3
Ntp200
Rp201
(dp202
g7
V236
p203
sg9
VTyrogue
p204
sg11
VOR,AS,
p205
sg13
VCave
p206
sg15
V15
p207
sg17
g207
sg19
V0
p208
sbag1
(g2
g3
Ntp209
Rp210
(dp211
g7
V524
p212
sg9
VRoggenrola
p213
sg11
VOR,AS,
p214
sg13
VCave
p215
sg15
V15
p216
sg17
g216
sg19
V0
p217
sba.