(lp0
ccopy_reg
_reconstructor
p1
(c__main__
WildPokemon
p2
c__builtin__
object
p3
Ntp4
Rp5
(dp6
VpDexNo
p7
V106
p8
sVpSpecies
p9
VHitmonlee
p10
sVpGames
p11
VR,B,Y,
p12
sVpArea
p13
VGift
p14
sVpMinLevel
p15
V30
p16
sVpMaxLevel
p17
g16
sVpRate
p18
V0
p19
sbag1
(g2
g3
Ntp20
Rp21
(dp22
g7
V107
p23
sg9
VHitmonchan
p24
sg11
VR,B,Y,
p25
sg13
VGift
p26
sg15
V30
p27
sg17
g27
sg18
V0
p28
sbag1
(g2
g3
Ntp29
Rp30
(dp31
g7
V106
p32
sg9
VHitmonlee
p33
sg11
VFR,LG,
p34
sg13
VGift
p35
sg15
V25
p36
sg17
g36
sg18
V0
p37
sbag1
(g2
g3
Ntp38
Rp39
(dp40
g7
V107
p41
sg9
VHitmonchan
p42
sg11
VFR,LG,
p43
sg13
VGift
p44
sg15
V25
p45
sg17
g45
sg18
V0
p46
sbag1
(g2
g3
Ntp47
Rp48
(dp49
g7
V106
p50
sg9
VHitmonlee
p51
sg11
VPi,Ev,
p52
sg13
VGift
p53
sg15
V30
p54
sg17
g54
sg18
V0
p55
sbag1
(g2
g3
Ntp56
Rp57
(dp58
g7
V107
p59
sg9
VHitmonchan
p60
sg11
VPi,Ev,
p61
sg13
VGift
p62
sg15
V30
p63
sg17
g63
sg18
V0
p64
sba.