(lp0
ccopy_reg
_reconstructor
p1
(c__main__
WildPokemon
p2
c__builtin__
object
p3
Ntp4
Rp5
(dp6
VpDexNo
p7
V072
p8
sVpSpecies
p9
VTentacool
p10
sVpGames
p11
VFR,LG,
p12
sVpArea
p13
VSurf
p14
sVpMinLevel
p15
V5
p16
sVpMaxLevel
p17
V40
p18
sVpRate
p19
V65
p20
sbag1
(g2
g3
Ntp21
Rp22
(dp23
g7
V187
p24
sg9
VHoppip
p25
sg11
VFR,LG,
p26
sg13
VSurf
p27
sg15
g16
sg17
V15
p28
sg19
V30
p29
sbag1
(g2
g3
Ntp30
Rp31
(dp32
g7
V073
p33
sg9
VTentacruel
p34
sg11
VFR,LG,
p35
sg13
VSurf
p36
sg15
V35
p37
sg17
V40
p38
sg19
V5
p39
sbag1
(g2
g3
Ntp40
Rp41
(dp42
g7
V129
p43
sg9
VMagikarp
p44
sg11
VFR,LG,
p45
sg13
VFish Old
p46
sg15
g16
sg17
g16
sg19
V100
p47
sbag1
(g2
g3
Ntp48
Rp49
(dp50
g7
V116
p51
sg9
VHorsea
p52
sg11
VFR,
p53
sg13
VFish Good
p54
sg15
g16
sg17
V15
p55
sg19
V80
p56
sbag1
(g2
g3
Ntp57
Rp58
(dp59
g7
V098
p60
sg9
VKrabby
p61
sg11
VLG,
p62
sg13
VFish Good
p63
sg15
g16
sg17
V15
p64
sg19
V80
p65
sbag1
(g2
g3
Ntp66
Rp67
(dp68
g7
V129
p69
sg9
VMagikarp
p70
sg11
VFR,LG,
p71
sg13
VFish Good
p72
sg15
g16
sg17
V15
p73
sg19
V20
p74
sbag1
(g2
g3
Ntp75
Rp76
(dp77
g7
V090
p78
sg9
VShellder
p79
sg11
g53
sg13
VFish Super
p80
sg15
V15
p81
sg17
V25
p82
sg19
V40
p83
sbag1
(g2
g3
Ntp84
Rp85
(dp86
g7
V116
p87
sg9
VHorsea
p88
sg11
g53
sg13
VFish Super
p89
sg15
V15
p90
sg17
V25
p91
sg19
V40
p92
sbag1
(g2
g3
Ntp93
Rp94
(dp95
g7
V098
p96
sg9
VKrabby
p97
sg11
g62
sg13
VFish Super
p98
sg15
V15
p99
sg17
V25
p100
sg19
V40
p101
sbag1
(g2
g3
Ntp102
Rp103
(dp104
g7
V120
p105
sg9
VStaryu
p106
sg11
g62
sg13
VFish Super
p107
sg15
V15
p108
sg17
V25
p109
sg19
V40
p110
sbag1
(g2
g3
Ntp111
Rp112
(dp113
g7
V130
p114
sg9
VGyarados
p115
sg11
VFR,LG,
p116
sg13
VFish Super
p117
sg15
V15
p118
sg17
V25
p119
sg19
V15
p120
sbag1
(g2
g3
Ntp121
Rp122
(dp123
g7
V117
p124
sg9
VSeadra
p125
sg11
g53
sg13
VFish Super
p126
sg15
V25
p127
sg17
V35
p128
sg19
V4
p129
sbag1
(g2
g3
Ntp130
Rp131
(dp132
g7
V099
p133
sg9
VKingler
p134
sg11
g62
sg13
VFish Super
p135
sg15
V25
p136
sg17
V35
p137
sg19
V4
p138
sbag1
(g2
g3
Ntp139
Rp140
(dp141
g7
V054
p142
sg9
VPsyduck
p143
sg11
g53
sg13
VFish Super
p144
sg15
V25
p145
sg17
V35
p146
sg19
V1
p147
sbag1
(g2
g3
Ntp148
Rp149
(dp150
g7
V079
p151
sg9
VSlowpoke
p152
sg11
g62
sg13
VFish Super
p153
sg15
V25
p154
sg17
V35
p155
sg19
V1
p156
sba.