(lp0
ccopy_reg
_reconstructor
p1
(c__main__
WildPokemon
p2
c__builtin__
object
p3
Ntp4
Rp5
(dp6
VpDexNo
p7
V161
p8
sVpSpecies
p9
VSentret
p10
sVpGames
p11
VFR,LG,
p12
sVpArea
p13
VGrass
p14
sVpMinLevel
p15
V10
p16
sVpMaxLevel
p17
V15
p18
sVpRate
p19
V30
p20
sbag1
(g2
g3
Ntp21
Rp22
(dp23
g7
V016
p24
sg9
VPidgey
p25
sg11
VFR,LG,
p26
sg13
VGrass
p27
sg15
V44
p28
sg17
g28
sg19
V20
p29
sbag1
(g2
g3
Ntp30
Rp31
(dp32
g7
V017
p33
sg9
VPidgeotto
p34
sg11
VFR,LG,
p35
sg13
VGrass
p36
sg15
V48
p37
sg17
V50
p38
sg19
V15
p39
sbag1
(g2
g3
Ntp40
Rp41
(dp42
g7
V187
p43
sg9
VHoppip
p44
sg11
VFR,LG,
p45
sg13
VGrass
p46
sg15
V10
p47
sg17
V15
p48
sg19
V15
p49
sbag1
(g2
g3
Ntp50
Rp51
(dp52
g7
V052
p53
sg9
VMeowth
p54
sg11
VFR,LG,
p55
sg13
VGrass
p56
sg15
V41
p57
sg17
g57
sg19
V10
p58
sbag1
(g2
g3
Ntp59
Rp60
(dp61
g7
V053
p62
sg9
VPersian
p63
sg11
VFR,LG,
p64
sg13
VGrass
p65
sg15
V47
p66
sg17
V50
p67
sg19
V5
p68
sbag1
(g2
g3
Ntp69
Rp70
(dp71
g7
V054
p72
sg9
VPsyduck
p73
sg11
VFR,
p74
sg13
VGrass
p75
sg15
V41
p76
sg17
g76
sg19
V5
p77
sbag1
(g2
g3
Ntp78
Rp79
(dp80
g7
V079
p81
sg9
VSlowpoke
p82
sg11
VLG,
p83
sg13
VGrass
p84
sg15
V41
p85
sg17
g85
sg19
V5
p86
sbag1
(g2
g3
Ntp87
Rp88
(dp89
g7
V072
p90
sg9
VTentacool
p91
sg11
VFR,LG,
p92
sg13
VSurf
p93
sg15
V5
p94
sg17
V40
p95
sg19
V65
p96
sbag1
(g2
g3
Ntp97
Rp98
(dp99
g7
V187
p100
sg9
VHoppip
p101
sg11
VFR,LG,
p102
sg13
VSurf
p103
sg15
g94
sg17
V15
p104
sg19
V30
p105
sbag1
(g2
g3
Ntp106
Rp107
(dp108
g7
V073
p109
sg9
VTentacruel
p110
sg11
VFR,LG,
p111
sg13
VSurf
p112
sg15
V35
p113
sg17
V40
p114
sg19
V5
p115
sbag1
(g2
g3
Ntp116
Rp117
(dp118
g7
V129
p119
sg9
VMagikarp
p120
sg11
VFR,LG,
p121
sg13
VFish Old
p122
sg15
g94
sg17
g94
sg19
V100
p123
sbag1
(g2
g3
Ntp124
Rp125
(dp126
g7
V116
p127
sg9
VHorsea
p128
sg11
g74
sg13
VFish Good
p129
sg15
g94
sg17
V15
p130
sg19
V80
p131
sbag1
(g2
g3
Ntp132
Rp133
(dp134
g7
V098
p135
sg9
VKrabby
p136
sg11
g83
sg13
VFish Good
p137
sg15
g94
sg17
V15
p138
sg19
V80
p139
sbag1
(g2
g3
Ntp140
Rp141
(dp142
g7
V129
p143
sg9
VMagikarp
p144
sg11
VFR,LG,
p145
sg13
VFish Good
p146
sg15
g94
sg17
V15
p147
sg19
V20
p148
sbag1
(g2
g3
Ntp149
Rp150
(dp151
g7
V116
p152
sg9
VHorsea
p153
sg11
g74
sg13
VFish Super
p154
sg15
V15
p155
sg17
V25
p156
sg19
V40
p157
sbag1
(g2
g3
Ntp158
Rp159
(dp160
g7
V211
p161
sg9
VQwilfish
p162
sg11
g74
sg13
VFish Super
p163
sg15
V15
p164
sg17
V25
p165
sg19
V40
p166
sbag1
(g2
g3
Ntp167
Rp168
(dp169
g7
V098
p170
sg9
VKrabby
p171
sg11
g83
sg13
VFish Super
p172
sg15
V15
p173
sg17
V25
p174
sg19
V40
p175
sbag1
(g2
g3
Ntp176
Rp177
(dp178
g7
V223
p179
sg9
VRemoraid
p180
sg11
g83
sg13
VFish Super
p181
sg15
V15
p182
sg17
V25
p183
sg19
V40
p184
sbag1
(g2
g3
Ntp185
Rp186
(dp187
g7
V130
p188
sg9
VGyarados
p189
sg11
VFR,LG,
p190
sg13
VFish Super
p191
sg15
V15
p192
sg17
V25
p193
sg19
V15
p194
sbag1
(g2
g3
Ntp195
Rp196
(dp197
g7
V117
p198
sg9
VSeadra
p199
sg11
g74
sg13
VFish Super
p200
sg15
V25
p201
sg17
V35
p202
sg19
V4
p203
sbag1
(g2
g3
Ntp204
Rp205
(dp206
g7
V099
p207
sg9
VKingler
p208
sg11
g83
sg13
VFish Super
p209
sg15
V25
p210
sg17
V35
p211
sg19
V4
p212
sbag1
(g2
g3
Ntp213
Rp214
(dp215
g7
V054
p216
sg9
VPsyduck
p217
sg11
g74
sg13
VFish Super
p218
sg15
V25
p219
sg17
V35
p220
sg19
V1
p221
sbag1
(g2
g3
Ntp222
Rp223
(dp224
g7
V079
p225
sg9
VSlowpoke
p226
sg11
g83
sg13
VFish Super
p227
sg15
V25
p228
sg17
V35
p229
sg19
V1
p230
sba.