(lp0
ccopy_reg
_reconstructor
p1
(c__main__
WildPokemon
p2
c__builtin__
object
p3
Ntp4
Rp5
(dp6
VpDexNo
p7
V054
p8
sVpSpecies
p9
VPsyduck
p10
sVpGames
p11
VB2,W2,
p12
sVpArea
p13
VGrass
p14
sVpMinLevel
p15
V5
p16
sVpMaxLevel
p17
g16
sVpRate
p18
V10
p19
sbag1
(g2
g3
Ntp20
Rp21
(dp22
g7
V179
p23
sg9
VMareep
p24
sg11
VB2,W2,
p25
sg13
VGrass
p26
sg15
g16
sg17
g16
sg18
V10
p27
sbag1
(g2
g3
Ntp28
Rp29
(dp30
g7
V298
p31
sg9
VAzurill
p32
sg11
VB2,W2,
p33
sg13
VGrass
p34
sg15
g16
sg17
g16
sg18
V20
p35
sbag1
(g2
g3
Ntp36
Rp37
(dp38
g7
V447
p39
sg9
VRiolu
p40
sg11
VB2,W2,
p41
sg13
VGrass
p42
sg15
g16
sg17
V7
p43
sg18
V5
p44
sbag1
(g2
g3
Ntp45
Rp46
(dp47
g7
V504
p48
sg9
VPatrat
p49
sg11
VB2,W2,
p50
sg13
VGrass
p51
sg15
g16
sg17
g16
sg18
V10
p52
sbag1
(g2
g3
Ntp53
Rp54
(dp55
g7
V506
p56
sg9
VLillipup
p57
sg11
VB2,W2,
p58
sg13
VGrass
p59
sg15
V4
p60
sg17
g43
sg18
V40
p61
sbag1
(g2
g3
Ntp62
Rp63
(dp64
g7
V519
p65
sg9
VPidove
p66
sg11
VB2,W2,
p67
sg13
VGrass
p68
sg15
g43
sg17
g43
sg18
V5
p69
sbag1
(g2
g3
Ntp70
Rp71
(dp72
g7
V206
p73
sg9
VDunsparce
p74
sg11
VB2,W2,
p75
sg13
VRustling
p76
sg15
g16
sg17
g16
sg18
V10
p77
sbag1
(g2
g3
Ntp78
Rp79
(dp80
g7
V531
p81
sg9
VAudino
p82
sg11
VB2,W2,
p83
sg13
VRustling
p84
sg15
g60
sg17
g43
sg18
V90
p85
sbag1
(g2
g3
Ntp86
Rp87
(dp88
g7
V298
p89
sg9
VAzurill
p90
sg11
VB2,W2,
p91
sg13
VSurf
p92
sg15
g16
sg17
V15
p93
sg18
V30
p94
sbag1
(g2
g3
Ntp95
Rp96
(dp97
g7
V550
p98
sg9
VBasculin
p99
sg11
VB2,
p100
sg13
VSurf
p101
sg15
g16
sg17
V15
p102
sg18
V70
p103
sbag1
(g2
g3
Ntp104
Rp105
(dp106
g7
V550
p107
sg9
VBasculin
p108
sg11
VW2,
p109
sg13
VSurf
p110
sg15
g16
sg17
V15
p111
sg18
V70
p112
sbag1
(g2
g3
Ntp113
Rp114
(dp115
g7
V183
p116
sg9
VMarill
p117
sg11
VB2,W2,
p118
sg13
VRippling
p119
sg15
g16
sg17
V15
p120
sg18
V30
p121
sbag1
(g2
g3
Ntp122
Rp123
(dp124
g7
V184
p125
sg9
VAzumarill
p126
sg11
VB2,W2,
p127
sg13
VRippling
p128
sg15
g16
sg17
V15
p129
sg18
V5
p130
sbag1
(g2
g3
Ntp131
Rp132
(dp133
g7
V550
p134
sg9
VBasculin
p135
sg11
g109
sg13
VRippling
p136
sg15
g16
sg17
V15
p137
sg18
V65
p138
sbag1
(g2
g3
Ntp139
Rp140
(dp141
g7
V550
p142
sg9
VBasculin
p143
sg11
g100
sg13
VRippling
p144
sg15
g16
sg17
V15
p145
sg18
V65
p146
sbag1
(g2
g3
Ntp147
Rp148
(dp149
g7
V060
p150
sg9
VPoliwag
p151
sg11
VB2,W2,
p152
sg13
VFish Super
p153
sg15
V40
p154
sg17
V70
p155
sg18
V70
p156
sbag1
(g2
g3
Ntp157
Rp158
(dp159
g7
V550
p160
sg9
VBasculin
p161
sg11
g100
sg13
VFish Super
p162
sg15
V40
p163
sg17
V60
p164
sg18
V30
p165
sbag1
(g2
g3
Ntp166
Rp167
(dp168
g7
V550
p169
sg9
VBasculin
p170
sg11
g109
sg13
VFish Super
p171
sg15
V40
p172
sg17
V60
p173
sg18
V30
p174
sbag1
(g2
g3
Ntp175
Rp176
(dp177
g7
V061
p178
sg9
VPoliwhirl
p179
sg11
VB2,W2,
p180
sg13
VRippling
p181
sg15
V40
p182
sg17
V70
p183
sg18
V65
p184
sbag1
(g2
g3
Ntp185
Rp186
(dp187
g7
V186
p188
sg9
VPolitoed
p189
sg11
VB2,W2,
p190
sg13
VRippling
p191
sg15
V50
p192
sg17
V70
p193
sg18
V5
p194
sbag1
(g2
g3
Ntp195
Rp196
(dp197
g7
V550
p198
sg9
VBasculin
p199
sg11
g109
sg13
VRippling
p200
sg15
V40
p201
sg17
V60
p202
sg18
V30
p203
sbag1
(g2
g3
Ntp204
Rp205
(dp206
g7
V550
p207
sg9
VBasculin
p208
sg11
g100
sg13
VRippling
p209
sg15
V40
p210
sg17
V60
p211
sg18
V30
p212
sbag1
(g2
g3
Ntp213
Rp214
(dp215
g7
V183
p216
sg9
VMarill
p217
sg11
VB2,W2,
p218
sg13
VGrotto
p219
sg15
V10
p220
sg17
V15
p221
sg18
V0
p222
sbag1
(g2
g3
Ntp223
Rp224
(dp225
g7
V206
p226
sg9
VDunsparce
p227
sg11
VB2,W2,
p228
sg13
VGrotto
p229
sg15
V10
p230
sg17
V15
p231
sg18
V0
p232
sbag1
(g2
g3
Ntp233
Rp234
(dp235
g7
V507
p236
sg9
VHerdier
p237
sg11
VB2,W2,
p238
sg13
VGrotto
p239
sg15
V10
p240
sg17
V15
p241
sg18
V0
p242
sba.