(lp0
ccopy_reg
_reconstructor
p1
(c__main__
WildPokemon
p2
c__builtin__
object
p3
Ntp4
Rp5
(dp6
VpDexNo
p7
V147
p8
sVpSpecies
p9
VDratini
p10
sVpGames
p11
VW2,
p12
sVpArea
p13
VGift
p14
sVpMinLevel
p15
V1
p16
sVpMaxLevel
p17
g16
sVpRate
p18
V0
p19
sbag1
(g2
g3
Ntp20
Rp21
(dp22
g7
V443
p23
sg9
VGible
p24
sg11
VB2,
p25
sg13
VGift
p26
sg15
g16
sg17
g16
sg18
V0
p27
sba.