(lp0
ccopy_reg
_reconstructor
p1
(c__main__
WildPokemon
p2
c__builtin__
object
p3
Ntp4
Rp5
(dp6
VpDexNo
p7
V341
p8
sVpSpecies
p9
VCorphish
p10
sVpGames
p11
VSw,Sh,
p12
sVpArea
p13
VGrass
p14
sVpMinLevel
p15
V13
p16
sVpMaxLevel
p17
V18
p18
sVpRate
p19
V0
p20
sbag1
(g2
g3
Ntp21
Rp22
(dp23
g7
V440
p24
sg9
VHappiny
p25
sg11
VSw,Sh,
p26
sg13
VGrass
p27
sg15
V13
p28
sg17
V18
p29
sg19
V10
p30
sbag1
(g2
g3
Ntp31
Rp32
(dp33
g7
V543
p34
sg9
VVenipede
p35
sg11
VSw,Sh,
p36
sg13
VGrass
p37
sg15
V13
p38
sg17
V18
p39
sg19
V30
p40
sbag1
(g2
g3
Ntp41
Rp42
(dp43
g7
V570
p44
sg9
VZorua
p45
sg11
VSw,Sh,
p46
sg13
VGrass
p47
sg15
V13
p48
sg17
V18
p49
sg19
g20
sbag1
(g2
g3
Ntp50
Rp51
(dp52
g7
V588
p53
sg9
VKarrablast
p54
sg11
VSw,Sh,
p55
sg13
VGrass
p56
sg15
V13
p57
sg17
V18
p58
sg19
V30
p59
sbag1
(g2
g3
Ntp60
Rp61
(dp62
g7
V590
p63
sg9
VFoongus
p64
sg11
VSw,Sh,
p65
sg13
VGrass
p66
sg15
V13
p67
sg17
V18
p68
sg19
g20
sbag1
(g2
g3
Ntp69
Rp70
(dp71
g7
V624
p72
sg9
VPawniard
p73
sg11
VSw,Sh,
p74
sg13
VGrass
p75
sg15
V13
p76
sg17
V18
p77
sg19
g20
sbag1
(g2
g3
Ntp78
Rp79
(dp80
g7
V753
p81
sg9
VFomantis
p82
sg11
VSw,Sh,
p83
sg13
VGrass
p84
sg15
V13
p85
sg17
V18
p86
sg19
g20
sbag1
(g2
g3
Ntp87
Rp88
(dp89
g7
V843
p90
sg9
VSilicobra
p91
sg11
VSw,Sh,
p92
sg13
VGrass
p93
sg15
V13
p94
sg17
V18
p95
sg19
g20
sbag1
(g2
g3
Ntp96
Rp97
(dp98
g7
V587
p99
sg9
VEmolga
p100
sg11
VSw,Sh,
p101
sg13
VBerry tree
p102
sg15
V13
p103
sg17
V18
p104
sg19
V10
p105
sbag1
(g2
g3
Ntp106
Rp107
(dp108
g7
V819
p109
sg9
VSkwovet
p110
sg11
VSw,Sh,
p111
sg13
VBerry tree
p112
sg15
V13
p113
sg17
V18
p114
sg19
V60
p115
sbag1
(g2
g3
Ntp116
Rp117
(dp118
g7
V840
p119
sg9
VApplin
p120
sg11
VSw,Sh,
p121
sg13
VBerry tree
p122
sg15
V13
p123
sg17
V18
p124
sg19
V30
p125
sbag1
(g2
g3
Ntp126
Rp127
(dp128
g7
V118
p129
sg9
VGoldeen
p130
sg11
VSw,Sh,
p131
sg13
VFishing
p132
sg15
V13
p133
sg17
V18
p134
sg19
V40
p135
sbag1
(g2
g3
Ntp136
Rp137
(dp138
g7
V129
p139
sg9
VMagikarp
p140
sg11
VSw,Sh,
p141
sg13
VFishing
p142
sg15
V13
p143
sg17
V18
p144
sg19
V40
p145
sbag1
(g2
g3
Ntp146
Rp147
(dp148
g7
V846
p149
sg9
VArrokuda
p150
sg11
VSw,Sh,
p151
sg13
VFishing
p152
sg15
V13
p153
sg17
V18
p154
sg19
V20
p155
sbag1
(g2
g3
Ntp156
Rp157
(dp158
g7
V025
p159
sg9
VPikachu
p160
sg11
VSw,Sh,
p161
sg13
VGrass
p162
sg15
V10
p163
sg17
V15
p164
sg19
V5
p165
sbag1
(g2
g3
Ntp166
Rp167
(dp168
g7
V113
p169
sg9
VChansey
p170
sg11
VSw,Sh,
p171
sg13
VGrass
p172
sg15
V10
p173
sg17
V15
p174
sg19
g20
sbag1
(g2
g3
Ntp175
Rp176
(dp177
g7
V114
p178
sg9
VTangela
p179
sg11
VSw,Sh,
p180
sg13
VGrass
p181
sg15
V10
p182
sg17
V15
p183
sg19
V16
p184
sbag1
(g2
g3
Ntp185
Rp186
(dp187
g7
V242
p188
sg9
VBlissey
p189
sg11
VSw,Sh,
p190
sg13
VGrass
p191
sg15
V10
p192
sg17
V15
p193
sg19
g20
sbag1
(g2
g3
Ntp194
Rp195
(dp196
g7
V341
p197
sg9
VCorphish
p198
sg11
VSw,
p199
sg13
VGrass
p200
sg15
V10
p201
sg17
V15
p202
sg19
g20
sbag1
(g2
g3
Ntp203
Rp204
(dp205
g7
V341
p206
sg9
VCorphish
p207
sg11
VSh,
p208
sg13
VGrass
p209
sg15
V10
p210
sg17
V15
p211
sg19
g20
sbag1
(g2
g3
Ntp212
Rp213
(dp214
g7
V453
p215
sg9
VCroagunk
p216
sg11
g208
sg13
VGrass
p217
sg15
V10
p218
sg17
V15
p219
sg19
g20
sbag1
(g2
g3
Ntp220
Rp221
(dp222
g7
V543
p223
sg9
VVenipede
p224
sg11
VSw,Sh,
p225
sg13
VGrass
p226
sg15
V10
p227
sg17
V15
p228
sg19
g20
sbag1
(g2
g3
Ntp229
Rp230
(dp231
g7
V570
p232
sg9
VZorua
p233
sg11
VSw,Sh,
p234
sg13
VGrass
p235
sg15
V10
p236
sg17
V15
p237
sg19
g20
sbag1
(g2
g3
Ntp238
Rp239
(dp240
g7
V590
p241
sg9
VFoongus
p242
sg11
VSw,Sh,
p243
sg13
VGrass
p244
sg15
V10
p245
sg17
V15
p246
sg19
V16
p247
sbag1
(g2
g3
Ntp248
Rp249
(dp250
g7
V624
p251
sg9
VPawniard
p252
sg11
g199
sg13
VGrass
p253
sg15
V10
p254
sg17
V15
p255
sg19
g20
sbag1
(g2
g3
Ntp256
Rp257
(dp258
g7
V624
p259
sg9
VPawniard
p260
sg11
g208
sg13
VGrass
p261
sg15
V10
p262
sg17
V15
p263
sg19
g20
sbag1
(g2
g3
Ntp264
Rp265
(dp266
g7
V704
p267
sg9
VGoomy
p268
sg11
g208
sg13
VGrass
p269
sg15
V10
p270
sg17
V15
p271
sg19
g20
sbag1
(g2
g3
Ntp272
Rp273
(dp274
g7
V753
p275
sg9
VFomantis
p276
sg11
VSw,Sh,
p277
sg13
VGrass
p278
sg15
V10
p279
sg17
V15
p280
sg19
g20
sbag1
(g2
g3
Ntp281
Rp282
(dp283
g7
V765
p284
sg9
VOranguru
p285
sg11
g208
sg13
VGrass
p286
sg15
V10
p287
sg17
V15
p288
sg19
V5
p289
sbag1
(g2
g3
Ntp290
Rp291
(dp292
g7
V766
p293
sg9
VPassimian
p294
sg11
g199
sg13
VGrass
p295
sg15
V10
p296
sg17
V15
p297
sg19
V5
p298
sbag1
(g2
g3
Ntp299
Rp300
(dp301
g7
V843
p302
sg9
VSilicobra
p303
sg11
VSw,Sh,
p304
sg13
VGrass
p305
sg15
V10
p306
sg17
V15
p307
sg19
g20
sbag1
(g2
g3
Ntp308
Rp309
(dp310
g7
V341
p311
sg9
VCorphish
p312
sg11
VSw,Sh,
p313
sg13
VSurf
p314
sg15
V40
p315
sg17
V45
p316
sg19
V45
p317
sbag1
(g2
g3
Ntp318
Rp319
(dp320
g7
V845
p321
sg9
VCramorant
p322
sg11
VSw,Sh,
p323
sg13
VSurf
p324
sg15
V40
p325
sg17
V45
p326
sg19
V10
p327
sbag1
(g2
g3
Ntp328
Rp329
(dp330
g7
V846
p331
sg9
VArrokuda
p332
sg11
VSw,Sh,
p333
sg13
VSurf
p334
sg15
V40
p335
sg17
V45
p336
sg19
V45
p337
sbag1
(g2
g3
Ntp338
Rp339
(dp340
g7
V591
p341
sg9
VAmoonguss
p342
sg11
VSw,Sh,
p343
sg13
VWanderer
p344
sg15
V26
p345
sg17
g345
sg19
g20
sbag1
(g2
g3
Ntp346
Rp347
(dp348
g7
V342
p349
sg9
VCrawdaunt
p350
sg11
VSw,Sh,
p351
sg13
VWanderer
p352
sg15
V26
p353
sg17
g353
sg19
g20
sbag1
(g2
g3
Ntp354
Rp355
(dp356
g7
V172
p357
sg9
VPichu
p358
sg11
VSw,Sh,
p359
sg13
VWanderer
p360
sg15
V20
p361
sg17
g361
sg19
g20
sbag1
(g2
g3
Ntp362
Rp363
(dp364
g7
V754
p365
sg9
VLurantis
p366
sg11
VSw,Sh,
p367
sg13
VWanderer
p368
sg15
V27
p369
sg17
g369
sg19
g20
sbag1
(g2
g3
Ntp370
Rp371
(dp372
g7
V104
p373
sg9
VCubone
p374
sg11
VSw,Sh,
p375
sg13
VWanderer
p376
sg15
V20
p377
sg17
g377
sg19
g20
sbag1
(g2
g3
Ntp378
Rp379
(dp380
g7
V764
p381
sg9
VComfey
p382
sg11
VSw,Sh,
p383
sg13
VWanderer
p384
sg15
V22
p385
sg17
g385
sg19
g20
sbag1
(g2
g3
Ntp386
Rp387
(dp388
g7
V591
p389
sg9
VAmoonguss
p390
sg11
VSw,Sh,
p391
sg13
VWanderer
p392
sg15
V26
p393
sg17
g393
sg19
g20
sbag1
(g2
g3
Ntp394
Rp395
(dp396
g7
V845
p397
sg9
VCramorant
p398
sg11
VSw,Sh,
p399
sg13
VWanderer
p400
sg15
V20
p401
sg17
g401
sg19
g20
sbag1
(g2
g3
Ntp402
Rp403
(dp404
g7
V172
p405
sg9
VPichu
p406
sg11
VSw,Sh,
p407
sg13
VWanderer
p408
sg15
V20
p409
sg17
g409
sg19
g20
sbag1
(g2
g3
Ntp410
Rp411
(dp412
g7
V764
p413
sg9
VComfey
p414
sg11
VSw,Sh,
p415
sg13
VWanderer
p416
sg15
V22
p417
sg17
g417
sg19
g20
sbag1
(g2
g3
Ntp418
Rp419
(dp420
g7
V104
p421
sg9
VCubone
p422
sg11
VSw,Sh,
p423
sg13
VWanderer
p424
sg15
V20
p425
sg17
g425
sg19
g20
sbag1
(g2
g3
Ntp426
Rp427
(dp428
g7
V025
p429
sg9
VPikachu
p430
sg11
VSw,Sh,
p431
sg13
VWanderer
p432
sg15
V22
p433
sg17
g433
sg19
g20
sbag1
(g2
g3
Ntp434
Rp435
(dp436
g7
V591
p437
sg9
VAmoonguss
p438
sg11
VSw,Sh,
p439
sg13
VWanderer
p440
sg15
V26
p441
sg17
g441
sg19
g20
sbag1
(g2
g3
Ntp442
Rp443
(dp444
g7
V616
p445
sg9
VShelmet
p446
sg11
g199
sg13
VWanderer
p447
sg15
V20
p448
sg17
g448
sg19
V0
p449
sbag1
(g2
g3
Ntp450
Rp451
(dp452
g7
V704
p453
sg9
VGoomy
p454
sg11
g208
sg13
VWanderer
p455
sg15
V20
p456
sg17
g456
sg19
g20
sbag1
(g2
g3
Ntp457
Rp458
(dp459
g7
V026
p460
sg9
VRaichu
p461
sg11
VSw,Sh,
p462
sg13
VWanderer
p463
sg15
V26
p464
sg17
g464
sg19
g20
sbag1
(g2
g3
Ntp465
Rp466
(dp467
g7
V127
p468
sg9
VPinsir
p469
sg11
g199
sg13
VWanderer
p470
sg15
V26
p471
sg17
g471
sg19
g20
sbag1
(g2
g3
Ntp472
Rp473
(dp474
g7
V214
p475
sg9
VHeracross
p476
sg11
g208
sg13
VWanderer
p477
sg15
V26
p478
sg17
g478
sg19
g20
sbag1
(g2
g3
Ntp479
Rp480
(dp481
g7
V028
p482
sg9
VSandslash
p483
sg11
VSw,Sh,
p484
sg13
VWanderer
p485
sg15
V26
p486
sg17
g486
sg19
g20
sbag1
(g2
g3
Ntp487
Rp488
(dp489
g7
V570
p490
sg9
VZorua
p491
sg11
VSw,Sh,
p492
sg13
VWanderer
p493
sg15
V22
p494
sg17
g494
sg19
g20
sbag1
(g2
g3
Ntp495
Rp496
(dp497
g7
V766
p498
sg9
VPassimian
p499
sg11
g199
sg13
VWanderer
p500
sg15
V26
p501
sg17
g501
sg19
g20
sbag1
(g2
g3
Ntp502
Rp503
(dp504
g7
V765
p505
sg9
VOranguru
p506
sg11
g208
sg13
VWanderer
p507
sg15
V26
p508
sg17
g508
sg19
g20
sbag1
(g2
g3
Ntp509
Rp510
(dp511
g7
V591
p512
sg9
VAmoonguss
p513
sg11
VSw,Sh,
p514
sg13
VWanderer
p515
sg15
V26
p516
sg17
g516
sg19
g20
sbag1
(g2
g3
Ntp517
Rp518
(dp519
g7
V342
p520
sg9
VCrawdaunt
p521
sg11
VSw,Sh,
p522
sg13
VWanderer
p523
sg15
V26
p524
sg17
g524
sg19
g20
sbag1
(g2
g3
Ntp525
Rp526
(dp527
g7
V026
p528
sg9
VRaichu
p529
sg11
VSw,Sh,
p530
sg13
VWanderer
p531
sg15
V26
p532
sg17
g532
sg19
g20
sbag1
(g2
g3
Ntp533
Rp534
(dp535
g7
V127
p536
sg9
VPinsir
p537
sg11
g199
sg13
VWanderer
p538
sg15
V26
p539
sg17
g539
sg19
g20
sbag1
(g2
g3
Ntp540
Rp541
(dp542
g7
V214
p543
sg9
VHeracross
p544
sg11
g208
sg13
VWanderer
p545
sg15
V26
p546
sg17
g546
sg19
g20
sbag1
(g2
g3
Ntp547
Rp548
(dp549
g7
V028
p550
sg9
VSandslash
p551
sg11
VSw,Sh,
p552
sg13
VWanderer
p553
sg15
V26
p554
sg17
g554
sg19
g20
sbag1
(g2
g3
Ntp555
Rp556
(dp557
g7
V040
p558
sg9
VWigglytuff
p559
sg11
VSw,Sh,
p560
sg13
VWanderer
p561
sg15
V26
p562
sg17
g562
sg19
g20
sbag1
(g2
g3
Ntp563
Rp564
(dp565
g7
V465
p566
sg9
VTangrowth
p567
sg11
VSw,Sh,
p568
sg13
VWanderer
p569
sg15
V36
p570
sg17
g570
sg19
g20
sbag1
(g2
g3
Ntp571
Rp572
(dp573
g7
V545
p574
sg9
VScolipede
p575
sg11
VSw,Sh,
p576
sg13
VWanderer
p577
sg15
V32
p578
sg17
g578
sg19
g20
sbag1
(g2
g3
Ntp579
Rp580
(dp581
g7
V617
p582
sg9
VAccelgor
p583
sg11
VSw,Sh,
p584
sg13
VWanderer
p585
sg15
V32
p586
sg17
g586
sg19
g20
sbag1
(g2
g3
Ntp587
Rp588
(dp589
g7
V405
p590
sg9
VLuxray
p591
sg11
VSw,Sh,
p592
sg13
VWanderer
p593
sg15
V32
p594
sg17
g594
sg19
g20
sbag1
(g2
g3
Ntp595
Rp596
(dp597
g7
V589
p598
sg9
VEscavalier
p599
sg11
VSw,Sh,
p600
sg13
VWanderer
p601
sg15
V32
p602
sg17
g602
sg19
g20
sbag1
(g2
g3
Ntp603
Rp604
(dp605
g7
V040
p606
sg9
VWigglytuff
p607
sg11
VSw,Sh,
p608
sg13
VWanderer
p609
sg15
V26
p610
sg17
g610
sg19
g20
sbag1
(g2
g3
Ntp611
Rp612
(dp613
g7
V025
p614
sg9
VPikachu
p615
sg11
VSw,Sh,
p616
sg13
VWanderer
p617
sg15
V22
p618
sg17
g618
sg19
g20
sbag1
(g2
g3
Ntp619
Rp620
(dp621
g7
V616
p622
sg9
VShelmet
p623
sg11
g199
sg13
VWanderer
p624
sg15
V20
p625
sg17
g625
sg19
g20
sbag1
(g2
g3
Ntp626
Rp627
(dp628
g7
V704
p629
sg9
VGoomy
p630
sg11
g208
sg13
VWanderer
p631
sg15
V20
p632
sg17
g632
sg19
g20
sbag1
(g2
g3
Ntp633
Rp634
(dp635
g7
V636
p636
sg9
VLarvesta
p637
sg11
VSw,Sh,
p638
sg13
VWanderer
p639
sg15
V15
p640
sg17
g640
sg19
g20
sbag1
(g2
g3
Ntp641
Rp642
(dp643
g7
V104
p644
sg9
VCubone
p645
sg11
VSw,Sh,
p646
sg13
VWanderer
p647
sg15
V20
p648
sg17
g648
sg19
g20
sbag1
(g2
g3
Ntp649
Rp650
(dp651
g7
V764
p652
sg9
VComfey
p653
sg11
VSw,Sh,
p654
sg13
VWanderer
p655
sg15
V22
p656
sg17
g656
sg19
g20
sbag1
(g2
g3
Ntp657
Rp658
(dp659
g7
V591
p660
sg9
VAmoonguss
p661
sg11
VSw,Sh,
p662
sg13
VWanderer
p663
sg15
V26
p664
sg17
g664
sg19
g20
sbag1
(g2
g3
Ntp665
Rp666
(dp667
g7
V342
p668
sg9
VCrawdaunt
p669
sg11
VSw,Sh,
p670
sg13
VWanderer
p671
sg15
V26
p672
sg17
g672
sg19
g20
sbag1
(g2
g3
Ntp673
Rp674
(dp675
g7
V172
p676
sg9
VPichu
p677
sg11
VSw,Sh,
p678
sg13
VWanderer
p679
sg15
V20
p680
sg17
g680
sg19
g20
sbag1
(g2
g3
Ntp681
Rp682
(dp683
g7
V754
p684
sg9
VLurantis
p685
sg11
VSw,Sh,
p686
sg13
VWanderer
p687
sg15
V27
p688
sg17
g688
sg19
g20
sbag1
(g2
g3
Ntp689
Rp690
(dp691
g7
V104
p692
sg9
VCubone
p693
sg11
VSw,Sh,
p694
sg13
VWanderer
p695
sg15
V20
p696
sg17
g696
sg19
g20
sbag1
(g2
g3
Ntp697
Rp698
(dp699
g7
V764
p700
sg9
VComfey
p701
sg11
VSw,Sh,
p702
sg13
VWanderer
p703
sg15
V22
p704
sg17
g704
sg19
g20
sbag1
(g2
g3
Ntp705
Rp706
(dp707
g7
V591
p708
sg9
VAmoonguss
p709
sg11
VSw,Sh,
p710
sg13
VWanderer
p711
sg15
V26
p712
sg17
g712
sg19
g20
sbag1
(g2
g3
Ntp713
Rp714
(dp715
g7
V616
p716
sg9
VShelmet
p717
sg11
g199
sg13
VWanderer
p718
sg15
V20
p719
sg17
g719
sg19
g20
sbag1
(g2
g3
Ntp720
Rp721
(dp722
g7
V704
p723
sg9
VGoomy
p724
sg11
g208
sg13
VWanderer
p725
sg15
V20
p726
sg17
g726
sg19
g20
sbag1
(g2
g3
Ntp727
Rp728
(dp729
g7
V764
p730
sg9
VComfey
p731
sg11
VSw,Sh,
p732
sg13
VWanderer
p733
sg15
V22
p734
sg17
g734
sg19
g20
sbag1
(g2
g3
Ntp735
Rp736
(dp737
g7
V028
p738
sg9
VSandslash
p739
sg11
VSw,Sh,
p740
sg13
VWanderer
p741
sg15
V26
p742
sg17
g742
sg19
g20
sbag1
(g2
g3
Ntp743
Rp744
(dp745
g7
V845
p746
sg9
VCramorant
p747
sg11
VSw,Sh,
p748
sg13
VWanderer
p749
sg15
V20
p750
sg17
g750
sg19
g20
sbag1
(g2
g3
Ntp751
Rp752
(dp753
g7
V591
p754
sg9
VAmoonguss
p755
sg11
VSw,Sh,
p756
sg13
VWanderer
p757
sg15
V26
p758
sg17
g758
sg19
g20
sbag1
(g2
g3
Ntp759
Rp760
(dp761
g7
V342
p762
sg9
VCrawdaunt
p763
sg11
VSw,Sh,
p764
sg13
VWanderer
p765
sg15
V26
p766
sg17
g766
sg19
g20
sbag1
(g2
g3
Ntp767
Rp768
(dp769
g7
V545
p770
sg9
VScolipede
p771
sg11
VSw,Sh,
p772
sg13
VWanderer
p773
sg15
V32
p774
sg17
g774
sg19
g20
sbag1
(g2
g3
Ntp775
Rp776
(dp777
g7
V055
p778
sg9
VGolduck
p779
sg11
VSw,Sh,
p780
sg13
VWanderer
p781
sg15
V26
p782
sg17
g782
sg19
g20
sbag1
(g2
g3
Ntp783
Rp784
(dp785
g7
V026
p786
sg9
VRaichu
p787
sg11
VSw,Sh,
p788
sg13
VWanderer
p789
sg15
V26
p790
sg17
g790
sg19
g20
sbag1
(g2
g3
Ntp791
Rp792
(dp793
g7
V754
p794
sg9
VLurantis
p795
sg11
VSw,Sh,
p796
sg13
VWanderer
p797
sg15
V27
p798
sg17
g798
sg19
g20
sbag1
(g2
g3
Ntp799
Rp800
(dp801
g7
V465
p802
sg9
VTangrowth
p803
sg11
VSw,Sh,
p804
sg13
VWanderer
p805
sg15
V36
p806
sg17
g806
sg19
g20
sbag1
(g2
g3
Ntp807
Rp808
(dp809
g7
V028
p810
sg9
VSandslash
p811
sg11
VSw,Sh,
p812
sg13
VWanderer
p813
sg15
V26
p814
sg17
g814
sg19
g20
sbag1
(g2
g3
Ntp815
Rp816
(dp817
g7
V184
p818
sg9
VAzumarill
p819
sg11
VSw,Sh,
p820
sg13
VWanderer
p821
sg15
V21
p822
sg17
g822
sg19
g20
sbag1
(g2
g3
Ntp823
Rp824
(dp825
g7
V040
p826
sg9
VWigglytuff
p827
sg11
VSw,Sh,
p828
sg13
VWanderer
p829
sg15
V26
p830
sg17
g830
sg19
g20
sbag1
(g2
g3
Ntp831
Rp832
(dp833
g7
V591
p834
sg9
VAmoonguss
p835
sg11
VSw,Sh,
p836
sg13
VWanderer
p837
sg15
V26
p838
sg17
g838
sg19
g20
sbag1
(g2
g3
Ntp839
Rp840
(dp841
g7
V025
p842
sg9
VPikachu
p843
sg11
VSw,Sh,
p844
sg13
VWanderer
p845
sg15
V22
p846
sg17
g846
sg19
g20
sbag1
(g2
g3
Ntp847
Rp848
(dp849
g7
V172
p850
sg9
VPichu
p851
sg11
VSw,Sh,
p852
sg13
VWanderer
p853
sg15
V20
p854
sg17
g854
sg19
g20
sbag1
(g2
g3
Ntp855
Rp856
(dp857
g7
V754
p858
sg9
VLurantis
p859
sg11
VSw,Sh,
p860
sg13
VWanderer
p861
sg15
V27
p862
sg17
g862
sg19
g20
sbag1
(g2
g3
Ntp863
Rp864
(dp865
g7
V104
p866
sg9
VCubone
p867
sg11
VSw,Sh,
p868
sg13
VWanderer
p869
sg15
V20
p870
sg17
g870
sg19
g20
sbag1
(g2
g3
Ntp871
Rp872
(dp873
g7
V764
p874
sg9
VComfey
p875
sg11
VSw,Sh,
p876
sg13
VWanderer
p877
sg15
V22
p878
sg17
g878
sg19
g20
sbag1
(g2
g3
Ntp879
Rp880
(dp881
g7
V845
p882
sg9
VCramorant
p883
sg11
VSw,Sh,
p884
sg13
VWanderer
p885
sg15
V20
p886
sg17
g886
sg19
g20
sbag1
(g2
g3
Ntp887
Rp888
(dp889
g7
V591
p890
sg9
VAmoonguss
p891
sg11
VSw,Sh,
p892
sg13
VWanderer
p893
sg15
V26
p894
sg17
g894
sg19
g20
sbag1
(g2
g3
Ntp895
Rp896
(dp897
g7
V342
p898
sg9
VCrawdaunt
p899
sg11
VSw,Sh,
p900
sg13
VWanderer
p901
sg15
V26
p902
sg17
g902
sg19
g20
sbag1
(g2
g3
Ntp903
Rp904
(dp905
g7
V025
p906
sg9
VPikachu
p907
sg11
VSw,Sh,
p908
sg13
VWanderer
p909
sg15
V22
p910
sg17
g910
sg19
g20
sbag1
(g2
g3
Ntp911
Rp912
(dp913
g7
V172
p914
sg9
VPichu
p915
sg11
VSw,Sh,
p916
sg13
VWanderer
p917
sg15
V20
p918
sg17
g918
sg19
g20
sbag1
(g2
g3
Ntp919
Rp920
(dp921
g7
V754
p922
sg9
VLurantis
p923
sg11
VSw,Sh,
p924
sg13
VWanderer
p925
sg15
V27
p926
sg17
g926
sg19
g20
sbag1
(g2
g3
Ntp927
Rp928
(dp929
g7
V104
p930
sg9
VCubone
p931
sg11
VSw,Sh,
p932
sg13
VWanderer
p933
sg15
V20
p934
sg17
g934
sg19
g20
sbag1
(g2
g3
Ntp935
Rp936
(dp937
g7
V764
p938
sg9
VComfey
p939
sg11
VSw,Sh,
p940
sg13
VWanderer
p941
sg15
V22
p942
sg17
g942
sg19
g20
sbag1
(g2
g3
Ntp943
Rp944
(dp945
g7
V845
p946
sg9
VCramorant
p947
sg11
VSw,Sh,
p948
sg13
VWanderer
p949
sg15
V20
p950
sg17
g950
sg19
g20
sbag1
(g2
g3
Ntp951
Rp952
(dp953
g7
V342
p954
sg9
VCrawdaunt
p955
sg11
VSw,Sh,
p956
sg13
VWanderer
p957
sg15
V26
p958
sg17
g958
sg19
g20
sbag1
(g2
g3
Ntp959
Rp960
(dp961
g7
V055
p962
sg9
VGolduck
p963
sg11
VSw,Sh,
p964
sg13
VWanderer
p965
sg15
V26
p966
sg17
g966
sg19
g20
sbag1
(g2
g3
Ntp967
Rp968
(dp969
g7
V127
p970
sg9
VPinsir
p971
sg11
g199
sg13
VWanderer
p972
sg15
V26
p973
sg17
g973
sg19
g20
sbag1
(g2
g3
Ntp974
Rp975
(dp976
g7
V214
p977
sg9
VHeracross
p978
sg11
g208
sg13
VWanderer
p979
sg15
V26
p980
sg17
g980
sg19
g20
sbag1
(g2
g3
Ntp981
Rp982
(dp983
g7
V028
p984
sg9
VSandslash
p985
sg11
VSw,Sh,
p986
sg13
VWanderer
p987
sg15
V26
p988
sg17
g988
sg19
g20
sbag1
(g2
g3
Ntp989
Rp990
(dp991
g7
V184
p992
sg9
VAzumarill
p993
sg11
VSw,Sh,
p994
sg13
VWanderer
p995
sg15
V21
p996
sg17
g996
sg19
g20
sbag1
(g2
g3
Ntp997
Rp998
(dp999
g7
V591
p1000
sg9
VAmoonguss
p1001
sg11
VSw,Sh,
p1002
sg13
VWanderer
p1003
sg15
V26
p1004
sg17
g1004
sg19
g20
sbag1
(g2
g3
Ntp1005
Rp1006
(dp1007
g7
V172
p1008
sg9
VPichu
p1009
sg11
VSw,Sh,
p1010
sg13
VWanderer
p1011
sg15
V20
p1012
sg17
g1012
sg19
g20
sbag1
(g2
g3
Ntp1013
Rp1014
(dp1015
g7
V104
p1016
sg9
VCubone
p1017
sg11
VSw,Sh,
p1018
sg13
VWanderer
p1019
sg15
V20
p1020
sg17
g1020
sg19
g20
sbag1
(g2
g3
Ntp1021
Rp1022
(dp1023
g7
V764
p1024
sg9
VComfey
p1025
sg11
VSw,Sh,
p1026
sg13
VWanderer
p1027
sg15
V22
p1028
sg17
g1028
sg19
g20
sbag1
(g2
g3
Ntp1029
Rp1030
(dp1031
g7
V025
p1032
sg9
VPikachu
p1033
sg11
VSw,Sh,
p1034
sg13
VWanderer
p1035
sg15
V22
p1036
sg17
g1036
sg19
g20
sbag1
(g2
g3
Ntp1037
Rp1038
(dp1039
g7
V172
p1040
sg9
VPichu
p1041
sg11
VSw,Sh,
p1042
sg13
VWanderer
p1043
sg15
V20
p1044
sg17
g1044
sg19
g20
sbag1
(g2
g3
Ntp1045
Rp1046
(dp1047
g7
V127
p1048
sg9
VPinsir
p1049
sg11
g199
sg13
VWanderer
p1050
sg15
V26
p1051
sg17
g1051
sg19
g20
sbag1
(g2
g3
Ntp1052
Rp1053
(dp1054
g7
V214
p1055
sg9
VHeracross
p1056
sg11
g208
sg13
VWanderer
p1057
sg15
V26
p1058
sg17
g1058
sg19
g20
sbag1
(g2
g3
Ntp1059
Rp1060
(dp1061
g7
V028
p1062
sg9
VSandslash
p1063
sg11
VSw,Sh,
p1064
sg13
VWanderer
p1065
sg15
V26
p1066
sg17
g1066
sg19
g20
sbag1
(g2
g3
Ntp1067
Rp1068
(dp1069
g7
V282
p1070
sg9
VGardevoir
p1071
sg11
VSw,Sh,
p1072
sg13
VWanderer
p1073
sg15
V36
p1074
sg17
g1074
sg19
g20
sba.