(lp0
ccopy_reg
_reconstructor
p1
(c__main__
WildPokemon
p2
c__builtin__
object
p3
Ntp4
Rp5
(dp6
VpDexNo
p7
V194
p8
sVpSpecies
p9
VWooper
p10
sVpGames
p11
VFR,
p12
sVpArea
p13
VSurf
p14
sVpMinLevel
p15
V5
p16
sVpMaxLevel
p17
V25
p18
sVpRate
p19
V70
p20
sbag1
(g2
g3
Ntp21
Rp22
(dp23
g7
V183
p24
sg9
VMarill
p25
sg11
VLG,
p26
sg13
VSurf
p27
sg15
g16
sg17
V25
p28
sg19
V70
p29
sbag1
(g2
g3
Ntp30
Rp31
(dp32
g7
V054
p33
sg9
VPsyduck
p34
sg11
g12
sg13
VSurf
p35
sg15
g16
sg17
V35
p36
sg19
V30
p37
sbag1
(g2
g3
Ntp38
Rp39
(dp40
g7
V079
p41
sg9
VSlowpoke
p42
sg11
g26
sg13
VSurf
p43
sg15
g16
sg17
V35
p44
sg19
V30
p45
sbag1
(g2
g3
Ntp46
Rp47
(dp48
g7
V129
p49
sg9
VMagikarp
p50
sg11
VFR,LG,
p51
sg13
VFish Old
p52
sg15
g16
sg17
g16
sg19
V100
p53
sbag1
(g2
g3
Ntp54
Rp55
(dp56
g7
V060
p57
sg9
VPoliwag
p58
sg11
VFR,LG,
p59
sg13
VFish Good
p60
sg15
g16
sg17
V15
p61
sg19
V60
p62
sbag1
(g2
g3
Ntp63
Rp64
(dp65
g7
V118
p66
sg9
VGoldeen
p67
sg11
VFR,LG,
p68
sg13
VFish Good
p69
sg15
g16
sg17
V15
p70
sg19
V20
p71
sbag1
(g2
g3
Ntp72
Rp73
(dp74
g7
V129
p75
sg9
VMagikarp
p76
sg11
VFR,LG,
p77
sg13
VFish Good
p78
sg15
g16
sg17
V15
p79
sg19
V20
p80
sbag1
(g2
g3
Ntp81
Rp82
(dp83
g7
V060
p84
sg9
VPoliwag
p85
sg11
VFR,LG,
p86
sg13
VFish Super
p87
sg15
V15
p88
sg17
V25
p89
sg19
V40
p90
sbag1
(g2
g3
Ntp91
Rp92
(dp93
g7
V061
p94
sg9
VPoliwhirl
p95
sg11
VFR,LG,
p96
sg13
VFish Super
p97
sg15
V20
p98
sg17
V30
p99
sg19
V40
p100
sbag1
(g2
g3
Ntp101
Rp102
(dp103
g7
V130
p104
sg9
VGyarados
p105
sg11
VFR,LG,
p106
sg13
VFish Super
p107
sg15
V15
p108
sg17
V25
p109
sg19
V15
p110
sbag1
(g2
g3
Ntp111
Rp112
(dp113
g7
V054
p114
sg9
VPsyduck
p115
sg11
g12
sg13
VFish Super
p116
sg15
V15
p117
sg17
V35
p118
sg19
V5
p119
sbag1
(g2
g3
Ntp120
Rp121
(dp122
g7
V079
p123
sg9
VSlowpoke
p124
sg11
g26
sg13
VFish Super
p125
sg15
V15
p126
sg17
V35
p127
sg19
V5
p128
sba.