(lp0
ccopy_reg
_reconstructor
p1
(c__main__
WildPokemon
p2
c__builtin__
object
p3
Ntp4
Rp5
(dp6
VpDexNo
p7
V216
p8
sVpSpecies
p9
VTeddiursa
p10
sVpGames
p11
VX,Y,
p12
sVpArea
p13
VGrass
p14
sVpMinLevel
p15
V30
p16
sVpMaxLevel
p17
g16
sVpRate
p18
V25
p19
sbag1
(g2
g3
Ntp20
Rp21
(dp22
g7
V190
p23
sg9
VAipom
p24
sg11
VX,Y,
p25
sg13
VGrass
p26
sg15
V30
p27
sg17
g27
sg18
V25
p28
sbag1
(g2
g3
Ntp29
Rp30
(dp31
g7
V206
p32
sg9
VDunsparce
p33
sg11
VX,Y,
p34
sg13
VGrass
p35
sg15
V30
p36
sg17
g36
sg18
V25
p37
sbag1
(g2
g3
Ntp38
Rp39
(dp40
g7
V506
p41
sg9
VLillipup
p42
sg11
VX,Y,
p43
sg13
VGrass
p44
sg15
V30
p45
sg17
g45
sg18
V25
p46
sbag1
(g2
g3
Ntp47
Rp48
(dp49
g7
V294
p50
sg9
VLoudred
p51
sg11
VX,Y,
p52
sg13
VGrass
p53
sg15
V30
p54
sg17
g54
sg18
V25
p55
sbag1
(g2
g3
Ntp56
Rp57
(dp58
g7
V352
p59
sg9
VKecleon
p60
sg11
VX,Y,
p61
sg13
VGrass
p62
sg15
V30
p63
sg17
g63
sg18
V25
p64
sbag1
(g2
g3
Ntp65
Rp66
(dp67
g7
V531
p68
sg9
VAudino
p69
sg11
VX,Y,
p70
sg13
VGrass
p71
sg15
V30
p72
sg17
g72
sg18
V25
p73
sbag1
(g2
g3
Ntp74
Rp75
(dp76
g7
V572
p77
sg9
VMinccino
p78
sg11
VX,Y,
p79
sg13
VGrass
p80
sg15
V30
p81
sg17
g81
sg18
V25
p82
sbag1
(g2
g3
Ntp83
Rp84
(dp85
g7
V113
p86
sg9
VChansey
p87
sg11
VX,Y,
p88
sg13
VGrass
p89
sg15
V30
p90
sg17
g90
sg18
V25
p91
sbag1
(g2
g3
Ntp92
Rp93
(dp94
g7
V132
p95
sg9
VDitto
p96
sg11
VX,Y,
p97
sg13
VGrass
p98
sg15
V30
p99
sg17
g99
sg18
V25
p100
sbag1
(g2
g3
Ntp101
Rp102
(dp103
g7
V133
p104
sg9
VEevee
p105
sg11
VX,Y,
p106
sg13
VGrass
p107
sg15
V30
p108
sg17
g108
sg18
V25
p109
sbag1
(g2
g3
Ntp110
Rp111
(dp112
g7
V235
p113
sg9
VSmeargle
p114
sg11
VX,Y,
p115
sg13
VGrass
p116
sg15
V30
p117
sg17
g117
sg18
V25
p118
sbag1
(g2
g3
Ntp119
Rp120
(dp121
g7
V058
p122
sg9
VGrowlithe
p123
sg11
VX,Y,
p124
sg13
VGrass
p125
sg15
V30
p126
sg17
g126
sg18
V25
p127
sbag1
(g2
g3
Ntp128
Rp129
(dp130
g7
V077
p131
sg9
VPonyta
p132
sg11
VX,Y,
p133
sg13
VGrass
p134
sg15
V30
p135
sg17
g135
sg18
V25
p136
sbag1
(g2
g3
Ntp137
Rp138
(dp139
g7
V126
p140
sg9
VMagmar
p141
sg11
VX,Y,
p142
sg13
VGrass
p143
sg15
V30
p144
sg17
g144
sg18
V25
p145
sbag1
(g2
g3
Ntp146
Rp147
(dp148
g7
V513
p149
sg9
VPansear
p150
sg11
VX,Y,
p151
sg13
VGrass
p152
sg15
V30
p153
sg17
g153
sg18
V25
p154
sbag1
(g2
g3
Ntp155
Rp156
(dp157
g7
V005
p158
sg9
VCharmeleon
p159
sg11
VX,Y,
p160
sg13
VGrass
p161
sg15
V30
p162
sg17
g162
sg18
V25
p163
sbag1
(g2
g3
Ntp164
Rp165
(dp166
g7
V218
p167
sg9
VSlugma
p168
sg11
VX,Y,
p169
sg13
VGrass
p170
sg15
V30
p171
sg17
g171
sg18
V25
p172
sbag1
(g2
g3
Ntp173
Rp174
(dp175
g7
V636
p176
sg9
VLarvesta
p177
sg11
VX,Y,
p178
sg13
VGrass
p179
sg15
V30
p180
sg17
g180
sg18
V25
p181
sbag1
(g2
g3
Ntp182
Rp183
(dp184
g7
V668
p185
sg9
VPyroar
p186
sg11
VX,Y,
p187
sg13
VGrass
p188
sg15
V30
p189
sg17
g189
sg18
V25
p190
sbag1
(g2
g3
Ntp191
Rp192
(dp193
g7
V038
p194
sg9
VNinetales
p195
sg11
VX,Y,
p196
sg13
VGrass
p197
sg15
V30
p198
sg17
g198
sg18
V25
p199
sbag1
(g2
g3
Ntp200
Rp201
(dp202
g7
V654
p203
sg9
VBraixen
p204
sg11
VX,Y,
p205
sg13
VGrass
p206
sg15
V30
p207
sg17
g207
sg18
V50
p208
sbag1
(g2
g3
Ntp209
Rp210
(dp211
g7
V662
p212
sg9
VFletchinder
p213
sg11
VX,Y,
p214
sg13
VGrass
p215
sg15
V30
p216
sg17
g216
sg18
V25
p217
sbag1
(g2
g3
Ntp218
Rp219
(dp220
g7
V056
p221
sg9
VMankey
p222
sg11
VX,Y,
p223
sg13
VGrass
p224
sg15
V30
p225
sg17
g225
sg18
V25
p226
sbag1
(g2
g3
Ntp227
Rp228
(dp229
g7
V067
p230
sg9
VMachoke
p231
sg11
VX,Y,
p232
sg13
VGrass
p233
sg15
V30
p234
sg17
g234
sg18
V25
p235
sbag1
(g2
g3
Ntp236
Rp237
(dp238
g7
V307
p239
sg9
VMeditite
p240
sg11
VX,Y,
p241
sg13
VGrass
p242
sg15
V30
p243
sg17
g243
sg18
V25
p244
sbag1
(g2
g3
Ntp245
Rp246
(dp247
g7
V619
p248
sg9
VMienfoo
p249
sg11
VX,Y,
p250
sg13
VGrass
p251
sg15
V30
p252
sg17
g252
sg18
V25
p253
sbag1
(g2
g3
Ntp254
Rp255
(dp256
g7
V538
p257
sg9
VThroh
p258
sg11
VX,Y,
p259
sg13
VGrass
p260
sg15
V30
p261
sg17
g261
sg18
V25
p262
sbag1
(g2
g3
Ntp263
Rp264
(dp265
g7
V539
p266
sg9
VSawk
p267
sg11
VX,Y,
p268
sg13
VGrass
p269
sg15
V30
p270
sg17
g270
sg18
V25
p271
sbag1
(g2
g3
Ntp272
Rp273
(dp274
g7
V674
p275
sg9
VPancham
p276
sg11
VX,Y,
p277
sg13
VGrass
p278
sg15
V30
p279
sg17
g279
sg18
V50
p280
sbag1
(g2
g3
Ntp281
Rp282
(dp283
g7
V236
p284
sg9
VTyrogue
p285
sg11
VX,Y,
p286
sg13
VGrass
p287
sg15
V30
p288
sg17
g288
sg18
V25
p289
sbag1
(g2
g3
Ntp290
Rp291
(dp292
g7
V286
p293
sg9
VBreloom
p294
sg11
VX,Y,
p295
sg13
VGrass
p296
sg15
V30
p297
sg17
g297
sg18
V25
p298
sbag1
(g2
g3
Ntp299
Rp300
(dp301
g7
V297
p302
sg9
VHariyama
p303
sg11
VX,Y,
p304
sg13
VGrass
p305
sg15
V30
p306
sg17
g306
sg18
V25
p307
sbag1
(g2
g3
Ntp308
Rp309
(dp310
g7
V447
p311
sg9
VRiolu
p312
sg11
VX,Y,
p313
sg13
VGrass
p314
sg15
V30
p315
sg17
g315
sg18
V25
p316
sbag1
(g2
g3
Ntp317
Rp318
(dp319
g7
V098
p320
sg9
VKrabby
p321
sg11
VX,Y,
p322
sg13
VGrass
p323
sg15
V30
p324
sg17
g324
sg18
V25
p325
sbag1
(g2
g3
Ntp326
Rp327
(dp328
g7
V224
p329
sg9
VOctillery
p330
sg11
VX,Y,
p331
sg13
VGrass
p332
sg15
V30
p333
sg17
g333
sg18
V25
p334
sbag1
(g2
g3
Ntp335
Rp336
(dp337
g7
V400
p338
sg9
VBibarel
p339
sg11
VX,Y,
p340
sg13
VGrass
p341
sg15
V30
p342
sg17
g342
sg18
V25
p343
sbag1
(g2
g3
Ntp344
Rp345
(dp346
g7
V515
p347
sg9
VPanpour
p348
sg11
VX,Y,
p349
sg13
VGrass
p350
sg15
V30
p351
sg17
g351
sg18
V25
p352
sbag1
(g2
g3
Ntp353
Rp354
(dp355
g7
V008
p356
sg9
VWartortle
p357
sg11
VX,Y,
p358
sg13
VGrass
p359
sg15
V30
p360
sg17
g360
sg18
V25
p361
sbag1
(g2
g3
Ntp362
Rp363
(dp364
g7
V130
p365
sg9
VGyarados
p366
sg11
VX,Y,
p367
sg13
VGrass
p368
sg15
V30
p369
sg17
g369
sg18
V25
p370
sbag1
(g2
g3
Ntp371
Rp372
(dp373
g7
V195
p374
sg9
VQuagsire
p375
sg11
VX,Y,
p376
sg13
VGrass
p377
sg15
V30
p378
sg17
g378
sg18
V25
p379
sbag1
(g2
g3
Ntp380
Rp381
(dp382
g7
V419
p383
sg9
VFloatzel
p384
sg11
VX,Y,
p385
sg13
VGrass
p386
sg15
V30
p387
sg17
g387
sg18
V25
p388
sbag1
(g2
g3
Ntp389
Rp390
(dp391
g7
V061
p392
sg9
VPoliwhirl
p393
sg11
VX,Y,
p394
sg13
VGrass
p395
sg15
V30
p396
sg17
g396
sg18
V25
p397
sbag1
(g2
g3
Ntp398
Rp399
(dp400
g7
V184
p401
sg9
VAzumarill
p402
sg11
VX,Y,
p403
sg13
VGrass
p404
sg15
V30
p405
sg17
g405
sg18
V25
p406
sbag1
(g2
g3
Ntp407
Rp408
(dp409
g7
V657
p410
sg9
VFrogadier
p411
sg11
VX,Y,
p412
sg13
VGrass
p413
sg15
V30
p414
sg17
g414
sg18
V50
p415
sbag1
(g2
g3
Ntp416
Rp417
(dp418
g7
V016
p419
sg9
VPidgey
p420
sg11
VX,Y,
p421
sg13
VGrass
p422
sg15
V30
p423
sg17
g423
sg18
V25
p424
sbag1
(g2
g3
Ntp425
Rp426
(dp427
g7
V021
p428
sg9
VSpearow
p429
sg11
VX,Y,
p430
sg13
VGrass
p431
sg15
V30
p432
sg17
g432
sg18
V25
p433
sbag1
(g2
g3
Ntp434
Rp435
(dp436
g7
V083
p437
sg9
VFarfetch'd
p438
sg11
VX,Y,
p439
sg13
VGrass
p440
sg15
V30
p441
sg17
g441
sg18
V25
p442
sbag1
(g2
g3
Ntp443
Rp444
(dp445
g7
V084
p446
sg9
VDoduo
p447
sg11
VX,Y,
p448
sg13
VGrass
p449
sg15
V30
p450
sg17
g450
sg18
V25
p451
sbag1
(g2
g3
Ntp452
Rp453
(dp454
g7
V163
p455
sg9
VHoothoot
p456
sg11
VX,Y,
p457
sg13
VGrass
p458
sg15
V30
p459
sg17
g459
sg18
V25
p460
sbag1
(g2
g3
Ntp461
Rp462
(dp463
g7
V520
p464
sg9
VTranquill
p465
sg11
VX,Y,
p466
sg13
VGrass
p467
sg15
V30
p468
sg17
g468
sg18
V25
p469
sbag1
(g2
g3
Ntp470
Rp471
(dp472
g7
V527
p473
sg9
VWoobat
p474
sg11
VX,Y,
p475
sg13
VGrass
p476
sg15
V30
p477
sg17
g477
sg18
V25
p478
sbag1
(g2
g3
Ntp479
Rp480
(dp481
g7
V581
p482
sg9
VSwanna
p483
sg11
VX,Y,
p484
sg13
VGrass
p485
sg15
V30
p486
sg17
g486
sg18
V25
p487
sbag1
(g2
g3
Ntp488
Rp489
(dp490
g7
V357
p491
sg9
VTropius
p492
sg11
VX,Y,
p493
sg13
VGrass
p494
sg15
V30
p495
sg17
g495
sg18
V25
p496
sbag1
(g2
g3
Ntp497
Rp498
(dp499
g7
V627
p500
sg9
VRufflet
p501
sg11
VX,Y,
p502
sg13
VGrass
p503
sg15
V30
p504
sg17
g504
sg18
V25
p505
sbag1
(g2
g3
Ntp506
Rp507
(dp508
g7
V662
p509
sg9
VFletchinder
p510
sg11
VX,Y,
p511
sg13
VGrass
p512
sg15
V30
p513
sg17
g513
sg18
V25
p514
sbag1
(g2
g3
Ntp515
Rp516
(dp517
g7
V701
p518
sg9
VHawlucha
p519
sg11
VX,Y,
p520
sg13
VGrass
p521
sg15
V30
p522
sg17
g522
sg18
V25
p523
sbag1
(g2
g3
Ntp524
Rp525
(dp526
g7
V043
p527
sg9
VOddish
p528
sg11
VX,Y,
p529
sg13
VGrass
p530
sg15
V30
p531
sg17
g531
sg18
V25
p532
sbag1
(g2
g3
Ntp533
Rp534
(dp535
g7
V114
p536
sg9
VTangela
p537
sg11
VX,Y,
p538
sg13
VGrass
p539
sg15
V30
p540
sg17
g540
sg18
V25
p541
sbag1
(g2
g3
Ntp542
Rp543
(dp544
g7
V191
p545
sg9
VSunkern
p546
sg11
VX,Y,
p547
sg13
VGrass
p548
sg15
V30
p549
sg17
g549
sg18
V25
p550
sbag1
(g2
g3
Ntp551
Rp552
(dp553
g7
V511
p554
sg9
VPansage
p555
sg11
VX,Y,
p556
sg13
VGrass
p557
sg15
V30
p558
sg17
g558
sg18
V25
p559
sbag1
(g2
g3
Ntp560
Rp561
(dp562
g7
V002
p563
sg9
VIvysaur
p564
sg11
VX,Y,
p565
sg13
VGrass
p566
sg15
V30
p567
sg17
g567
sg18
V25
p568
sbag1
(g2
g3
Ntp569
Rp570
(dp571
g7
V541
p572
sg9
VSwadloon
p573
sg11
VX,Y,
p574
sg13
VGrass
p575
sg15
V30
p576
sg17
g576
sg18
V25
p577
sbag1
(g2
g3
Ntp578
Rp579
(dp580
g7
V548
p581
sg9
VPetilil
p582
sg11
VX,Y,
p583
sg13
VGrass
p584
sg15
V30
p585
sg17
g585
sg18
V25
p586
sbag1
(g2
g3
Ntp587
Rp588
(dp589
g7
V586
p590
sg9
VSawsbuck
p591
sg11
VX,Y,
p592
sg13
VGrass
p593
sg15
V30
p594
sg17
g594
sg18
V25
p595
sbag1
(g2
g3
Ntp596
Rp597
(dp598
g7
V556
p599
sg9
VMaractus
p600
sg11
VX,Y,
p601
sg13
VGrass
p602
sg15
V30
p603
sg17
g603
sg18
V25
p604
sbag1
(g2
g3
Ntp605
Rp606
(dp607
g7
V651
p608
sg9
VQuilladin
p609
sg11
VX,Y,
p610
sg13
VGrass
p611
sg15
V30
p612
sg17
g612
sg18
V50
p613
sbag1
(g2
g3
Ntp614
Rp615
(dp616
g7
V673
p617
sg9
VGogoat
p618
sg11
VX,Y,
p619
sg13
VGrass
p620
sg15
V30
p621
sg17
g621
sg18
V25
p622
sbag1
(g2
g3
Ntp623
Rp624
(dp625
g7
V014
p626
sg9
VKakuna
p627
sg11
VX,Y,
p628
sg13
VGrass
p629
sg15
V30
p630
sg17
g630
sg18
V25
p631
sbag1
(g2
g3
Ntp632
Rp633
(dp634
g7
V044
p635
sg9
VGloom
p636
sg11
VX,Y,
p637
sg13
VGrass
p638
sg15
V30
p639
sg17
g639
sg18
V25
p640
sbag1
(g2
g3
Ntp641
Rp642
(dp643
g7
V268
p644
sg9
VCascoon
p645
sg11
VX,Y,
p646
sg13
VGrass
p647
sg15
V30
p648
sg17
g648
sg18
V25
p649
sbag1
(g2
g3
Ntp650
Rp651
(dp652
g7
V336
p653
sg9
VSeviper
p654
sg11
VX,Y,
p655
sg13
VGrass
p656
sg15
V30
p657
sg17
g657
sg18
V25
p658
sbag1
(g2
g3
Ntp659
Rp660
(dp661
g7
V049
p662
sg9
VVenomoth
p663
sg11
VX,Y,
p664
sg13
VGrass
p665
sg15
V30
p666
sg17
g666
sg18
V25
p667
sbag1
(g2
g3
Ntp668
Rp669
(dp670
g7
V168
p671
sg9
VAriados
p672
sg11
VX,Y,
p673
sg13
VGrass
p674
sg15
V30
p675
sg17
g675
sg18
V25
p676
sbag1
(g2
g3
Ntp677
Rp678
(dp679
g7
V317
p680
sg9
VSwalot
p681
sg11
VX,Y,
p682
sg13
VGrass
p683
sg15
V30
p684
sg17
g684
sg18
V25
p685
sbag1
(g2
g3
Ntp686
Rp687
(dp688
g7
V569
p689
sg9
VGarbodor
p690
sg11
VX,Y,
p691
sg13
VGrass
p692
sg15
V30
p693
sg17
g693
sg18
V25
p694
sbag1
(g2
g3
Ntp695
Rp696
(dp697
g7
V089
p698
sg9
VMuk
p699
sg11
VX,Y,
p700
sg13
VGrass
p701
sg15
V30
p702
sg17
g702
sg18
V25
p703
sbag1
(g2
g3
Ntp704
Rp705
(dp706
g7
V452
p707
sg9
VDrapion
p708
sg11
VX,Y,
p709
sg13
VGrass
p710
sg15
V30
p711
sg17
g711
sg18
V25
p712
sbag1
(g2
g3
Ntp713
Rp714
(dp715
g7
V454
p716
sg9
VToxicroak
p717
sg11
VX,Y,
p718
sg13
VGrass
p719
sg15
V30
p720
sg17
g720
sg18
V25
p721
sbag1
(g2
g3
Ntp722
Rp723
(dp724
g7
V544
p725
sg9
VWhirlipede
p726
sg11
VX,Y,
p727
sg13
VGrass
p728
sg15
V30
p729
sg17
g729
sg18
V25
p730
sbag1
(g2
g3
Ntp731
Rp732
(dp733
g7
V101
p734
sg9
VElectrode
p735
sg11
VX,Y,
p736
sg13
VGrass
p737
sg15
V30
p738
sg17
g738
sg18
V25
p739
sbag1
(g2
g3
Ntp740
Rp741
(dp742
g7
V417
p743
sg9
VPachirisu
p744
sg11
VX,Y,
p745
sg13
VGrass
p746
sg15
V30
p747
sg17
g747
sg18
V25
p748
sbag1
(g2
g3
Ntp749
Rp750
(dp751
g7
V587
p752
sg9
VEmolga
p753
sg11
VX,Y,
p754
sg13
VGrass
p755
sg15
V30
p756
sg17
g756
sg18
V25
p757
sbag1
(g2
g3
Ntp758
Rp759
(dp760
g7
V702
p761
sg9
VDedenne
p762
sg11
VX,Y,
p763
sg13
VGrass
p764
sg15
V30
p765
sg17
g765
sg18
V25
p766
sbag1
(g2
g3
Ntp767
Rp768
(dp769
g7
V025
p770
sg9
VPikachu
p771
sg11
VX,Y,
p772
sg13
VGrass
p773
sg15
V30
p774
sg17
g774
sg18
V25
p775
sbag1
(g2
g3
Ntp776
Rp777
(dp778
g7
V125
p779
sg9
VElectabuzz
p780
sg11
VX,Y,
p781
sg13
VGrass
p782
sg15
V30
p783
sg17
g783
sg18
V25
p784
sbag1
(g2
g3
Ntp785
Rp786
(dp787
g7
V618
p788
sg9
VStunfisk
p789
sg11
VX,Y,
p790
sg13
VGrass
p791
sg15
V30
p792
sg17
g792
sg18
V25
p793
sbag1
(g2
g3
Ntp794
Rp795
(dp796
g7
V694
p797
sg9
VHelioptile
p798
sg11
VX,Y,
p799
sg13
VGrass
p800
sg15
V30
p801
sg17
g801
sg18
V25
p802
sbag1
(g2
g3
Ntp803
Rp804
(dp805
g7
V310
p806
sg9
VManectric
p807
sg11
VX,Y,
p808
sg13
VGrass
p809
sg15
V30
p810
sg17
g810
sg18
V25
p811
sbag1
(g2
g3
Ntp812
Rp813
(dp814
g7
V404
p815
sg9
VLuxio
p816
sg11
VX,Y,
p817
sg13
VGrass
p818
sg15
V30
p819
sg17
g819
sg18
V25
p820
sbag1
(g2
g3
Ntp821
Rp822
(dp823
g7
V523
p824
sg9
VZebstrika
p825
sg11
VX,Y,
p826
sg13
VGrass
p827
sg15
V30
p828
sg17
g828
sg18
V25
p829
sbag1
(g2
g3
Ntp830
Rp831
(dp832
g7
V596
p833
sg9
VGalvantula
p834
sg11
VX,Y,
p835
sg13
VGrass
p836
sg15
V30
p837
sg17
g837
sg18
V25
p838
sbag1
(g2
g3
Ntp839
Rp840
(dp841
g7
V027
p842
sg9
VSandshrew
p843
sg11
VX,Y,
p844
sg13
VGrass
p845
sg15
V30
p846
sg17
g846
sg18
V25
p847
sbag1
(g2
g3
Ntp848
Rp849
(dp850
g7
V194
p851
sg9
VWooper
p852
sg11
VX,Y,
p853
sg13
VGrass
p854
sg15
V30
p855
sg17
g855
sg18
V25
p856
sbag1
(g2
g3
Ntp857
Rp858
(dp859
g7
V231
p860
sg9
VPhanpy
p861
sg11
VX,Y,
p862
sg13
VGrass
p863
sg15
V30
p864
sg17
g864
sg18
V25
p865
sbag1
(g2
g3
Ntp866
Rp867
(dp868
g7
V328
p869
sg9
VTrapinch
p870
sg11
VX,Y,
p871
sg13
VGrass
p872
sg15
V30
p873
sg17
g873
sg18
V25
p874
sbag1
(g2
g3
Ntp875
Rp876
(dp877
g7
V051
p878
sg9
VDugtrio
p879
sg11
VX,Y,
p880
sg13
VGrass
p881
sg15
V30
p882
sg17
g882
sg18
V25
p883
sbag1
(g2
g3
Ntp884
Rp885
(dp886
g7
V105
p887
sg9
VMarowak
p888
sg11
VX,Y,
p889
sg13
VGrass
p890
sg15
V30
p891
sg17
g891
sg18
V25
p892
sbag1
(g2
g3
Ntp893
Rp894
(dp895
g7
V290
p896
sg9
VNincada
p897
sg11
VX,Y,
p898
sg13
VGrass
p899
sg15
V30
p900
sg17
g900
sg18
V25
p901
sbag1
(g2
g3
Ntp902
Rp903
(dp904
g7
V323
p905
sg9
VCamerupt
p906
sg11
VX,Y,
p907
sg13
VGrass
p908
sg15
V30
p909
sg17
g909
sg18
V25
p910
sbag1
(g2
g3
Ntp911
Rp912
(dp913
g7
V423
p914
sg9
VGastrodon
p915
sg11
VX,Y,
p916
sg13
VGrass
p917
sg15
V30
p918
sg17
g918
sg18
V25
p919
sbag1
(g2
g3
Ntp920
Rp921
(dp922
g7
V536
p923
sg9
VPalpitoad
p924
sg11
VX,Y,
p925
sg13
VGrass
p926
sg15
V30
p927
sg17
g927
sg18
V25
p928
sbag1
(g2
g3
Ntp929
Rp930
(dp931
g7
V660
p932
sg9
VDiggersby
p933
sg11
VX,Y,
p934
sg13
VGrass
p935
sg15
V30
p936
sg17
g936
sg18
V50
p937
sbag1
(g2
g3
Ntp938
Rp939
(dp940
g7
V063
p941
sg9
VAbra
p942
sg11
VX,Y,
p943
sg13
VGrass
p944
sg15
V30
p945
sg17
g945
sg18
V25
p946
sbag1
(g2
g3
Ntp947
Rp948
(dp949
g7
V096
p950
sg9
VDrowzee
p951
sg11
VX,Y,
p952
sg13
VGrass
p953
sg15
V30
p954
sg17
g954
sg18
V25
p955
sbag1
(g2
g3
Ntp956
Rp957
(dp958
g7
V326
p959
sg9
VGrumpig
p960
sg11
VX,Y,
p961
sg13
VGrass
p962
sg15
V30
p963
sg17
g963
sg18
V25
p964
sbag1
(g2
g3
Ntp965
Rp966
(dp967
g7
V517
p968
sg9
VMunna
p969
sg11
VX,Y,
p970
sg13
VGrass
p971
sg15
V30
p972
sg17
g972
sg18
V25
p973
sbag1
(g2
g3
Ntp974
Rp975
(dp976
g7
V202
p977
sg9
VWobbuffet
p978
sg11
VX,Y,
p979
sg13
VGrass
p980
sg15
V30
p981
sg17
g981
sg18
V25
p982
sbag1
(g2
g3
Ntp983
Rp984
(dp985
g7
V561
p986
sg9
VSigilyph
p987
sg11
VX,Y,
p988
sg13
VGrass
p989
sg15
V30
p990
sg17
g990
sg18
V25
p991
sbag1
(g2
g3
Ntp992
Rp993
(dp994
g7
V677
p995
sg9
VEspurr
p996
sg11
VX,Y,
p997
sg13
VGrass
p998
sg15
V30
p999
sg17
g999
sg18
V50
p1000
sbag1
(g2
g3
Ntp1001
Rp1002
(dp1003
g7
V178
p1004
sg9
VXatu
p1005
sg11
VX,Y,
p1006
sg13
VGrass
p1007
sg15
V30
p1008
sg17
g1008
sg18
V25
p1009
sbag1
(g2
g3
Ntp1010
Rp1011
(dp1012
g7
V203
p1013
sg9
VGirafarig
p1014
sg11
VX,Y,
p1015
sg13
VGrass
p1016
sg15
V30
p1017
sg17
g1017
sg18
V25
p1018
sbag1
(g2
g3
Ntp1019
Rp1020
(dp1021
g7
V575
p1022
sg9
VGothorita
p1023
sg11
VX,Y,
p1024
sg13
VGrass
p1025
sg15
V30
p1026
sg17
g1026
sg18
V25
p1027
sbag1
(g2
g3
Ntp1028
Rp1029
(dp1030
g7
V578
p1031
sg9
VDuosion
p1032
sg11
VX,Y,
p1033
sg13
VGrass
p1034
sg15
V30
p1035
sg17
g1035
sg18
V25
p1036
sbag1
(g2
g3
Ntp1037
Rp1038
(dp1039
g7
V299
p1040
sg9
VNosepass
p1041
sg11
VX,Y,
p1042
sg13
VGrass
p1043
sg15
V30
p1044
sg17
g1044
sg18
V25
p1045
sbag1
(g2
g3
Ntp1046
Rp1047
(dp1048
g7
V525
p1049
sg9
VBoldore
p1050
sg11
VX,Y,
p1051
sg13
VGrass
p1052
sg15
V30
p1053
sg17
g1053
sg18
V25
p1054
sbag1
(g2
g3
Ntp1055
Rp1056
(dp1057
g7
V557
p1058
sg9
VDwebble
p1059
sg11
VX,Y,
p1060
sg13
VGrass
p1061
sg15
V30
p1062
sg17
g1062
sg18
V50
p1063
sbag1
(g2
g3
Ntp1064
Rp1065
(dp1066
g7
V095
p1067
sg9
VOnix
p1068
sg11
VX,Y,
p1069
sg13
VGrass
p1070
sg15
V30
p1071
sg17
g1071
sg18
V25
p1072
sbag1
(g2
g3
Ntp1073
Rp1074
(dp1075
g7
V219
p1076
sg9
VMagcargo
p1077
sg11
VX,Y,
p1078
sg13
VGrass
p1079
sg15
V30
p1080
sg17
g1080
sg18
V25
p1081
sbag1
(g2
g3
Ntp1082
Rp1083
(dp1084
g7
V222
p1085
sg9
VCorsola
p1086
sg11
VX,Y,
p1087
sg13
VGrass
p1088
sg15
V30
p1089
sg17
g1089
sg18
V25
p1090
sbag1
(g2
g3
Ntp1091
Rp1092
(dp1093
g7
V247
p1094
sg9
VPupitar
p1095
sg11
VX,Y,
p1096
sg13
VGrass
p1097
sg15
V30
p1098
sg17
g1098
sg18
V25
p1099
sbag1
(g2
g3
Ntp1100
Rp1101
(dp1102
g7
V112
p1103
sg9
VRhydon
p1104
sg11
VX,Y,
p1105
sg13
VGrass
p1106
sg15
V30
p1107
sg17
g1107
sg18
V25
p1108
sbag1
(g2
g3
Ntp1109
Rp1110
(dp1111
g7
V213
p1112
sg9
VShuckle
p1113
sg11
VX,Y,
p1114
sg13
VGrass
p1115
sg15
V30
p1116
sg17
g1116
sg18
V25
p1117
sbag1
(g2
g3
Ntp1118
Rp1119
(dp1120
g7
V689
p1121
sg9
VBarbaracle
p1122
sg11
VX,Y,
p1123
sg13
VGrass
p1124
sg15
V30
p1125
sg17
g1125
sg18
V50
p1126
sbag1
(g2
g3
Ntp1127
Rp1128
(dp1129
g7
V225
p1130
sg9
VDelibird
p1131
sg11
VX,Y,
p1132
sg13
VGrass
p1133
sg15
V30
p1134
sg17
g1134
sg18
V25
p1135
sbag1
(g2
g3
Ntp1136
Rp1137
(dp1138
g7
V361
p1139
sg9
VSnorunt
p1140
sg11
VX,Y,
p1141
sg13
VGrass
p1142
sg15
V30
p1143
sg17
g1143
sg18
V25
p1144
sbag1
(g2
g3
Ntp1145
Rp1146
(dp1147
g7
V363
p1148
sg9
VSpheal
p1149
sg11
VX,Y,
p1150
sg13
VGrass
p1151
sg15
V30
p1152
sg17
g1152
sg18
V25
p1153
sbag1
(g2
g3
Ntp1154
Rp1155
(dp1156
g7
V459
p1157
sg9
VSnover
p1158
sg11
VX,Y,
p1159
sg13
VGrass
p1160
sg15
V30
p1161
sg17
g1161
sg18
V25
p1162
sbag1
(g2
g3
Ntp1163
Rp1164
(dp1165
g7
V215
p1166
sg9
VSneasel
p1167
sg11
VX,Y,
p1168
sg13
VGrass
p1169
sg15
V30
p1170
sg17
g1170
sg18
V25
p1171
sbag1
(g2
g3
Ntp1172
Rp1173
(dp1174
g7
V614
p1175
sg9
VBeartic
p1176
sg11
VX,Y,
p1177
sg13
VGrass
p1178
sg15
V30
p1179
sg17
g1179
sg18
V25
p1180
sbag1
(g2
g3
Ntp1181
Rp1182
(dp1183
g7
V712
p1184
sg9
VBergmite
p1185
sg11
VX,Y,
p1186
sg13
VGrass
p1187
sg15
V30
p1188
sg17
g1188
sg18
V50
p1189
sbag1
(g2
g3
Ntp1190
Rp1191
(dp1192
g7
V087
p1193
sg9
VDewgong
p1194
sg11
VX,Y,
p1195
sg13
VGrass
p1196
sg15
V30
p1197
sg17
g1197
sg18
V25
p1198
sbag1
(g2
g3
Ntp1199
Rp1200
(dp1201
g7
V091
p1202
sg9
VCloyster
p1203
sg11
VX,Y,
p1204
sg13
VGrass
p1205
sg15
V30
p1206
sg17
g1206
sg18
V25
p1207
sbag1
(g2
g3
Ntp1208
Rp1209
(dp1210
g7
V131
p1211
sg9
VLapras
p1212
sg11
VX,Y,
p1213
sg13
VGrass
p1214
sg15
V30
p1215
sg17
g1215
sg18
V25
p1216
sbag1
(g2
g3
Ntp1217
Rp1218
(dp1219
g7
V221
p1220
sg9
VPiloswine
p1221
sg11
VX,Y,
p1222
sg13
VGrass
p1223
sg15
V30
p1224
sg17
g1224
sg18
V25
p1225
sbag1
(g2
g3
Ntp1226
Rp1227
(dp1228
g7
V012
p1229
sg9
VButterfree
p1230
sg11
VX,Y,
p1231
sg13
VGrass
p1232
sg15
V30
p1233
sg17
g1233
sg18
V25
p1234
sbag1
(g2
g3
Ntp1235
Rp1236
(dp1237
g7
V046
p1238
sg9
VParas
p1239
sg11
VX,Y,
p1240
sg13
VGrass
p1241
sg15
V30
p1242
sg17
g1242
sg18
V25
p1243
sbag1
(g2
g3
Ntp1244
Rp1245
(dp1246
g7
V165
p1247
sg9
VLedyba
p1248
sg11
VX,Y,
p1249
sg13
VGrass
p1250
sg15
V30
p1251
sg17
g1251
sg18
V25
p1252
sbag1
(g2
g3
Ntp1253
Rp1254
(dp1255
g7
V415
p1256
sg9
VCombee
p1257
sg11
VX,Y,
p1258
sg13
VGrass
p1259
sg15
V30
p1260
sg17
g1260
sg18
V25
p1261
sbag1
(g2
g3
Ntp1262
Rp1263
(dp1264
g7
V267
p1265
sg9
VBeautifly
p1266
sg11
VX,Y,
p1267
sg13
VGrass
p1268
sg15
V30
p1269
sg17
g1269
sg18
V25
p1270
sbag1
(g2
g3
Ntp1271
Rp1272
(dp1273
g7
V284
p1274
sg9
VMasquerain
p1275
sg11
VX,Y,
p1276
sg13
VGrass
p1277
sg15
V30
p1278
sg17
g1278
sg18
V25
p1279
sbag1
(g2
g3
Ntp1280
Rp1281
(dp1282
g7
V313
p1283
sg9
VVolbeat
p1284
sg11
VX,Y,
p1285
sg13
VGrass
p1286
sg15
V30
p1287
sg17
g1287
sg18
V25
p1288
sbag1
(g2
g3
Ntp1289
Rp1290
(dp1291
g7
V314
p1292
sg9
VIllumise
p1293
sg11
VX,Y,
p1294
sg13
VGrass
p1295
sg15
V30
p1296
sg17
g1296
sg18
V25
p1297
sbag1
(g2
g3
Ntp1298
Rp1299
(dp1300
g7
V049
p1301
sg9
VVenomoth
p1302
sg11
VX,Y,
p1303
sg13
VGrass
p1304
sg15
V30
p1305
sg17
g1305
sg18
V25
p1306
sbag1
(g2
g3
Ntp1307
Rp1308
(dp1309
g7
V127
p1310
sg9
VPinsir
p1311
sg11
VX,Y,
p1312
sg13
VGrass
p1313
sg15
V30
p1314
sg17
g1314
sg18
V25
p1315
sbag1
(g2
g3
Ntp1316
Rp1317
(dp1318
g7
V214
p1319
sg9
VHeracross
p1320
sg11
VX,Y,
p1321
sg13
VGrass
p1322
sg15
V30
p1323
sg17
g1323
sg18
V25
p1324
sbag1
(g2
g3
Ntp1325
Rp1326
(dp1327
g7
V666
p1328
sg9
VVivillon
p1329
sg11
VX,Y,
p1330
sg13
VGrass
p1331
sg15
V30
p1332
sg17
g1332
sg18
V25
p1333
sbag1
(g2
g3
Ntp1334
Rp1335
(dp1336
g7
V444
p1337
sg9
VGabite
p1338
sg11
VX,Y,
p1339
sg13
VGrass
p1340
sg15
V30
p1341
sg17
g1341
sg18
V50
p1342
sbag1
(g2
g3
Ntp1343
Rp1344
(dp1345
g7
V611
p1346
sg9
VFraxure
p1347
sg11
VX,Y,
p1348
sg13
VGrass
p1349
sg15
V30
p1350
sg17
g1350
sg18
V50
p1351
sbag1
(g2
g3
Ntp1352
Rp1353
(dp1354
g7
V148
p1355
sg9
VDragonair
p1356
sg11
VX,Y,
p1357
sg13
VGrass
p1358
sg15
V30
p1359
sg17
g1359
sg18
V25
p1360
sbag1
(g2
g3
Ntp1361
Rp1362
(dp1363
g7
V372
p1364
sg9
VShelgon
p1365
sg11
VX,Y,
p1366
sg13
VGrass
p1367
sg15
V30
p1368
sg17
g1368
sg18
V25
p1369
sbag1
(g2
g3
Ntp1370
Rp1371
(dp1372
g7
V714
p1373
sg9
VNoibat
p1374
sg11
VX,Y,
p1375
sg13
VGrass
p1376
sg15
V30
p1377
sg17
g1377
sg18
V50
p1378
sbag1
(g2
g3
Ntp1379
Rp1380
(dp1381
g7
V621
p1382
sg9
VDruddigon
p1383
sg11
VX,Y,
p1384
sg13
VGrass
p1385
sg15
V30
p1386
sg17
g1386
sg18
V50
p1387
sbag1
(g2
g3
Ntp1388
Rp1389
(dp1390
g7
V705
p1391
sg9
VSliggoo
p1392
sg11
VX,Y,
p1393
sg13
VGrass
p1394
sg15
V30
p1395
sg17
g1395
sg18
V50
p1396
sbag1
(g2
g3
Ntp1397
Rp1398
(dp1399
g7
V353
p1400
sg9
VShuppet
p1401
sg11
VX,Y,
p1402
sg13
VGrass
p1403
sg15
V30
p1404
sg17
g1404
sg18
V50
p1405
sbag1
(g2
g3
Ntp1406
Rp1407
(dp1408
g7
V608
p1409
sg9
VLampent
p1410
sg11
VX,Y,
p1411
sg13
VGrass
p1412
sg15
V30
p1413
sg17
g1413
sg18
V50
p1414
sbag1
(g2
g3
Ntp1415
Rp1416
(dp1417
g7
V708
p1418
sg9
VPhantump
p1419
sg11
VX,Y,
p1420
sg13
VGrass
p1421
sg15
V30
p1422
sg17
g1422
sg18
V50
p1423
sbag1
(g2
g3
Ntp1424
Rp1425
(dp1426
g7
V710
p1427
sg9
VPumpkaboo
p1428
sg11
VX,Y,
p1429
sg13
VGrass
p1430
sg15
V30
p1431
sg17
g1431
sg18
V50
p1432
sbag1
(g2
g3
Ntp1433
Rp1434
(dp1435
g7
V356
p1436
sg9
VDusclops
p1437
sg11
VX,Y,
p1438
sg13
VGrass
p1439
sg15
V30
p1440
sg17
g1440
sg18
V25
p1441
sbag1
(g2
g3
Ntp1442
Rp1443
(dp1444
g7
V426
p1445
sg9
VDrifblim
p1446
sg11
VX,Y,
p1447
sg13
VGrass
p1448
sg15
V30
p1449
sg17
g1449
sg18
V25
p1450
sbag1
(g2
g3
Ntp1451
Rp1452
(dp1453
g7
V442
p1454
sg9
VSpiritomb
p1455
sg11
VX,Y,
p1456
sg13
VGrass
p1457
sg15
V30
p1458
sg17
g1458
sg18
V25
p1459
sbag1
(g2
g3
Ntp1460
Rp1461
(dp1462
g7
V623
p1463
sg9
VGolurk
p1464
sg11
VX,Y,
p1465
sg13
VGrass
p1466
sg15
V30
p1467
sg17
g1467
sg18
V25
p1468
sbag1
(g2
g3
Ntp1469
Rp1470
(dp1471
g7
V262
p1472
sg9
VMightyena
p1473
sg11
VX,Y,
p1474
sg13
VGrass
p1475
sg15
V30
p1476
sg17
g1476
sg18
V25
p1477
sbag1
(g2
g3
Ntp1478
Rp1479
(dp1480
g7
V274
p1481
sg9
VNuzleaf
p1482
sg11
VX,Y,
p1483
sg13
VGrass
p1484
sg15
V30
p1485
sg17
g1485
sg18
V25
p1486
sbag1
(g2
g3
Ntp1487
Rp1488
(dp1489
g7
V624
p1490
sg9
VPawniard
p1491
sg11
VX,Y,
p1492
sg13
VGrass
p1493
sg15
V30
p1494
sg17
g1494
sg18
V25
p1495
sbag1
(g2
g3
Ntp1496
Rp1497
(dp1498
g7
V629
p1499
sg9
VVullaby
p1500
sg11
VX,Y,
p1501
sg13
VGrass
p1502
sg15
V30
p1503
sg17
g1503
sg18
V25
p1504
sbag1
(g2
g3
Ntp1505
Rp1506
(dp1507
g7
V215
p1508
sg9
VSneasel
p1509
sg11
VX,Y,
p1510
sg13
VGrass
p1511
sg15
V30
p1512
sg17
g1512
sg18
V25
p1513
sbag1
(g2
g3
Ntp1514
Rp1515
(dp1516
g7
V332
p1517
sg9
VCacturne
p1518
sg11
VX,Y,
p1519
sg13
VGrass
p1520
sg15
V30
p1521
sg17
g1521
sg18
V25
p1522
sbag1
(g2
g3
Ntp1523
Rp1524
(dp1525
g7
V342
p1526
sg9
VCrawdaunt
p1527
sg11
VX,Y,
p1528
sg13
VGrass
p1529
sg15
V30
p1530
sg17
g1530
sg18
V25
p1531
sbag1
(g2
g3
Ntp1532
Rp1533
(dp1534
g7
V551
p1535
sg9
VSandile
p1536
sg11
VX,Y,
p1537
sg13
VGrass
p1538
sg15
V30
p1539
sg17
g1539
sg18
V25
p1540
sbag1
(g2
g3
Ntp1541
Rp1542
(dp1543
g7
V302
p1544
sg9
VSableye
p1545
sg11
VX,Y,
p1546
sg13
VGrass
p1547
sg15
V30
p1548
sg17
g1548
sg18
V25
p1549
sbag1
(g2
g3
Ntp1550
Rp1551
(dp1552
g7
V359
p1553
sg9
VAbsol
p1554
sg11
VX,Y,
p1555
sg13
VGrass
p1556
sg15
V30
p1557
sg17
g1557
sg18
V25
p1558
sbag1
(g2
g3
Ntp1559
Rp1560
(dp1561
g7
V510
p1562
sg9
VLiepard
p1563
sg11
VX,Y,
p1564
sg13
VGrass
p1565
sg15
V30
p1566
sg17
g1566
sg18
V25
p1567
sbag1
(g2
g3
Ntp1568
Rp1569
(dp1570
g7
V686
p1571
sg9
VInkay
p1572
sg11
VX,Y,
p1573
sg13
VGrass
p1574
sg15
V30
p1575
sg17
g1575
sg18
V25
p1576
sbag1
(g2
g3
Ntp1577
Rp1578
(dp1579
g7
V082
p1580
sg9
VMagneton
p1581
sg11
VX,Y,
p1582
sg13
VGrass
p1583
sg15
V30
p1584
sg17
g1584
sg18
V25
p1585
sbag1
(g2
g3
Ntp1586
Rp1587
(dp1588
g7
V303
p1589
sg9
VMawile
p1590
sg11
VX,Y,
p1591
sg13
VGrass
p1592
sg15
V30
p1593
sg17
g1593
sg18
V25
p1594
sbag1
(g2
g3
Ntp1595
Rp1596
(dp1597
g7
V597
p1598
sg9
VFerroseed
p1599
sg11
VX,Y,
p1600
sg13
VGrass
p1601
sg15
V30
p1602
sg17
g1602
sg18
V50
p1603
sbag1
(g2
g3
Ntp1604
Rp1605
(dp1606
g7
V205
p1607
sg9
VForretress
p1608
sg11
VX,Y,
p1609
sg13
VGrass
p1610
sg15
V30
p1611
sg17
g1611
sg18
V25
p1612
sbag1
(g2
g3
Ntp1613
Rp1614
(dp1615
g7
V227
p1616
sg9
VSkarmory
p1617
sg11
VX,Y,
p1618
sg13
VGrass
p1619
sg15
V30
p1620
sg17
g1620
sg18
V25
p1621
sbag1
(g2
g3
Ntp1622
Rp1623
(dp1624
g7
V375
p1625
sg9
VMetang
p1626
sg11
VX,Y,
p1627
sg13
VGrass
p1628
sg15
V30
p1629
sg17
g1629
sg18
V25
p1630
sbag1
(g2
g3
Ntp1631
Rp1632
(dp1633
g7
V600
p1634
sg9
VKlang
p1635
sg11
VX,Y,
p1636
sg13
VGrass
p1637
sg15
V30
p1638
sg17
g1638
sg18
V25
p1639
sbag1
(g2
g3
Ntp1640
Rp1641
(dp1642
g7
V437
p1643
sg9
VBronzong
p1644
sg11
VX,Y,
p1645
sg13
VGrass
p1646
sg15
V30
p1647
sg17
g1647
sg18
V25
p1648
sbag1
(g2
g3
Ntp1649
Rp1650
(dp1651
g7
V530
p1652
sg9
VExcadrill
p1653
sg11
VX,Y,
p1654
sg13
VGrass
p1655
sg15
V30
p1656
sg17
g1656
sg18
V25
p1657
sbag1
(g2
g3
Ntp1658
Rp1659
(dp1660
g7
V707
p1661
sg9
VKlefki
p1662
sg11
VX,Y,
p1663
sg13
VGrass
p1664
sg15
V30
p1665
sg17
g1665
sg18
V50
p1666
sbag1
(g2
g3
Ntp1667
Rp1668
(dp1669
g7
V175
p1670
sg9
VTogepi
p1671
sg11
VX,Y,
p1672
sg13
VGrass
p1673
sg15
V30
p1674
sg17
g1674
sg18
V25
p1675
sbag1
(g2
g3
Ntp1676
Rp1677
(dp1678
g7
V209
p1679
sg9
VSnubbull
p1680
sg11
VX,Y,
p1681
sg13
VGrass
p1682
sg15
V30
p1683
sg17
g1683
sg18
V25
p1684
sbag1
(g2
g3
Ntp1685
Rp1686
(dp1687
g7
V281
p1688
sg9
VKirlia
p1689
sg11
VX,Y,
p1690
sg13
VGrass
p1691
sg15
V30
p1692
sg17
g1692
sg18
V25
p1693
sbag1
(g2
g3
Ntp1694
Rp1695
(dp1696
g7
V702
p1697
sg9
VDedenne
p1698
sg11
VX,Y,
p1699
sg13
VGrass
p1700
sg15
V30
p1701
sg17
g1701
sg18
V25
p1702
sbag1
(g2
g3
Ntp1703
Rp1704
(dp1705
g7
V039
p1706
sg9
VJigglypuff
p1707
sg11
VX,Y,
p1708
sg13
VGrass
p1709
sg15
V30
p1710
sg17
g1710
sg18
V25
p1711
sbag1
(g2
g3
Ntp1712
Rp1713
(dp1714
g7
V303
p1715
sg9
VMawile
p1716
sg11
VX,Y,
p1717
sg13
VGrass
p1718
sg15
V30
p1719
sg17
g1719
sg18
V25
p1720
sbag1
(g2
g3
Ntp1721
Rp1722
(dp1723
g7
V682
p1724
sg9
VSpritzee
p1725
sg11
VX,Y,
p1726
sg13
VGrass
p1727
sg15
V30
p1728
sg17
g1728
sg18
V25
p1729
sbag1
(g2
g3
Ntp1730
Rp1731
(dp1732
g7
V684
p1733
sg9
VSwirlix
p1734
sg11
VX,Y,
p1735
sg13
VGrass
p1736
sg15
V30
p1737
sg17
g1737
sg18
V25
p1738
sbag1
(g2
g3
Ntp1739
Rp1740
(dp1741
g7
V035
p1742
sg9
VClefairy
p1743
sg11
VX,Y,
p1744
sg13
VGrass
p1745
sg15
V30
p1746
sg17
g1746
sg18
V25
p1747
sbag1
(g2
g3
Ntp1748
Rp1749
(dp1750
g7
V670
p1751
sg9
VFloette
p1752
sg11
VX,Y,
p1753
sg13
VGrass
p1754
sg15
V30
p1755
sg17
g1755
sg18
V25
p1756
sbag1
(g2
g3
Ntp1757
Rp1758
(dp1759
g7
V670
p1760
sg9
VFloette
p1761
sg11
VX,Y,
p1762
sg13
VGrass
p1763
sg15
V30
p1764
sg17
g1764
sg18
V25
p1765
sbag1
(g2
g3
Ntp1766
Rp1767
(dp1768
g7
V670
p1769
sg9
VFloette
p1770
sg11
VX,Y,
p1771
sg13
VGrass
p1772
sg15
V30
p1773
sg17
g1773
sg18
V25
p1774
sba.