(lp0
ccopy_reg
_reconstructor
p1
(c__main__
WildPokemon
p2
c__builtin__
object
p3
Ntp4
Rp5
(dp6
VpDexNo
p7
V239
p8
sVpSpecies
p9
VElekid
p10
sVpGames
p11
VSw,Sh,
p12
sVpArea
p13
VGrass
p14
sVpMinLevel
p15
V60
p16
sVpMaxLevel
p17
V65
p18
sVpRate
p19
V0
p20
sbag1
(g2
g3
Ntp21
Rp22
(dp23
g7
V363
p24
sg9
VSpheal
p25
sg11
VSw,Sh,
p26
sg13
VGrass
p27
sg15
V60
p28
sg17
V65
p29
sg19
g20
sbag1
(g2
g3
Ntp30
Rp31
(dp32
g7
V439
p33
sg9
VMime Jr.
p34
sg11
VSw,Sh,
p35
sg13
VGrass
p36
sg15
V60
p37
sg17
V65
p38
sg19
g20
sbag1
(g2
g3
Ntp39
Rp40
(dp41
g7
V582
p42
sg9
VVanillite
p43
sg11
VSw,Sh,
p44
sg13
VGrass
p45
sg15
V60
p46
sg17
V65
p47
sg19
g20
sbag1
(g2
g3
Ntp48
Rp49
(dp50
g7
V712
p51
sg9
VBergmite
p52
sg11
VSw,Sh,
p53
sg13
VGrass
p54
sg15
V60
p55
sg17
V65
p56
sg19
g20
sbag1
(g2
g3
Ntp57
Rp58
(dp59
g7
V751
p60
sg9
VDewpider
p61
sg11
VSw,Sh,
p62
sg13
VGrass
p63
sg15
V60
p64
sg17
V65
p65
sg19
g20
sbag1
(g2
g3
Ntp66
Rp67
(dp68
g7
V856
p69
sg9
VHatenna
p70
sg11
VSw,Sh,
p71
sg13
VGrass
p72
sg15
V60
p73
sg17
V65
p74
sg19
g20
sbag1
(g2
g3
Ntp75
Rp76
(dp77
g7
V129
p78
sg9
VMagikarp
p79
sg11
VSw,Sh,
p80
sg13
VFishing
p81
sg15
V60
p82
sg17
V65
p83
sg19
V30
p84
sbag1
(g2
g3
Ntp85
Rp86
(dp87
g7
V130
p88
sg9
VGyarados
p89
sg11
VSw,Sh,
p90
sg13
VFishing
p91
sg15
V60
p92
sg17
V65
p93
sg19
V15
p94
sbag1
(g2
g3
Ntp95
Rp96
(dp97
g7
V320
p98
sg9
VWailmer
p99
sg11
VSw,Sh,
p100
sg13
VFishing
p101
sg15
V60
p102
sg17
V65
p103
sg19
V20
p104
sbag1
(g2
g3
Ntp105
Rp106
(dp107
g7
V550
p108
sg9
VBasculin
p109
sg11
VSw,
p110
sg13
VFishing
p111
sg15
V60
p112
sg17
V65
p113
sg19
V30
p114
sbag1
(g2
g3
Ntp115
Rp116
(dp117
g7
V550
p118
sg9
VBasculin
p119
sg11
VSh,
p120
sg13
VFishing
p121
sg15
V60
p122
sg17
V65
p123
sg19
V30
p124
sbag1
(g2
g3
Ntp125
Rp126
(dp127
g7
V781
p128
sg9
VDhelmise
p129
sg11
VSw,Sh,
p130
sg13
VFishing
p131
sg15
V60
p132
sg17
V65
p133
sg19
V5
p134
sbag1
(g2
g3
Ntp135
Rp136
(dp137
g7
V125
p138
sg9
VElectabuzz
p139
sg11
VSw,Sh,
p140
sg13
VGrass
p141
sg15
V60
p142
sg17
V65
p143
sg19
g20
sbag1
(g2
g3
Ntp144
Rp145
(dp146
g7
V215
p147
sg9
VSneasel
p148
sg11
VSw,Sh,
p149
sg13
VGrass
p150
sg15
V60
p151
sg17
V65
p152
sg19
g20
sbag1
(g2
g3
Ntp153
Rp154
(dp155
g7
V333
p156
sg9
VSwablu
p157
sg11
VSw,Sh,
p158
sg13
VGrass
p159
sg15
V60
p160
sg17
V65
p161
sg19
g20
sbag1
(g2
g3
Ntp162
Rp163
(dp164
g7
V359
p165
sg9
VAbsol
p166
sg11
VSw,Sh,
p167
sg13
VGrass
p168
sg15
V60
p169
sg17
V65
p170
sg19
g20
sbag1
(g2
g3
Ntp171
Rp172
(dp173
g7
V363
p174
sg9
VSpheal
p175
sg11
g110
sg13
VGrass
p176
sg15
V60
p177
sg17
V65
p178
sg19
g20
sbag1
(g2
g3
Ntp179
Rp180
(dp181
g7
V363
p182
sg9
VSpheal
p183
sg11
g120
sg13
VGrass
p184
sg15
V60
p185
sg17
V65
p186
sg19
g20
sbag1
(g2
g3
Ntp187
Rp188
(dp189
g7
V531
p190
sg9
VAudino
p191
sg11
VSw,Sh,
p192
sg13
VGrass
p193
sg15
V60
p194
sg17
V65
p195
sg19
g20
sbag1
(g2
g3
Ntp196
Rp197
(dp198
g7
V564
p199
sg9
VTirtouga
p200
sg11
VSw,Sh,
p201
sg13
VGrass
p202
sg15
V60
p203
sg17
V65
p204
sg19
g20
sbag1
(g2
g3
Ntp205
Rp206
(dp207
g7
V583
p208
sg9
VVanillish
p209
sg11
VSw,Sh,
p210
sg13
VGrass
p211
sg15
V60
p212
sg17
V65
p213
sg19
g20
sbag1
(g2
g3
Ntp214
Rp215
(dp216
g7
V614
p217
sg9
VBeartic
p218
sg11
VSw,Sh,
p219
sg13
VGrass
p220
sg15
V60
p221
sg17
V65
p222
sg19
g20
sbag1
(g2
g3
Ntp223
Rp224
(dp225
g7
V713
p226
sg9
VAvalugg
p227
sg11
g110
sg13
VGrass
p228
sg15
V60
p229
sg17
V65
p230
sg19
g20
sbag1
(g2
g3
Ntp231
Rp232
(dp233
g7
V713
p234
sg9
VAvalugg
p235
sg11
g120
sg13
VGrass
p236
sg15
V60
p237
sg17
V65
p238
sg19
g20
sbag1
(g2
g3
Ntp239
Rp240
(dp241
g7
V752
p242
sg9
VAraquanid
p243
sg11
VSw,Sh,
p244
sg13
VGrass
p245
sg15
V60
p246
sg17
V65
p247
sg19
g20
sbag1
(g2
g3
Ntp248
Rp249
(dp250
g7
V778
p251
sg9
VMimikyu
p252
sg11
VSw,Sh,
p253
sg13
VGrass
p254
sg15
V60
p255
sg17
V65
p256
sg19
g20
sbag1
(g2
g3
Ntp257
Rp258
(dp259
g7
V857
p260
sg9
VHattrem
p261
sg11
VSw,Sh,
p262
sg13
VGrass
p263
sg15
V60
p264
sg17
V65
p265
sg19
g20
sbag1
(g2
g3
Ntp266
Rp267
(dp268
g7
V871
p269
sg9
VPincurchin
p270
sg11
VSw,Sh,
p271
sg13
VGrass
p272
sg15
V60
p273
sg17
V65
p274
sg19
g20
sbag1
(g2
g3
Ntp275
Rp276
(dp277
g7
V875
p278
sg9
VEiscue
p279
sg11
g120
sg13
VGrass
p280
sg15
V60
p281
sg17
V65
p282
sg19
g20
sbag1
(g2
g3
Ntp283
Rp284
(dp285
g7
V131
p286
sg9
VLapras
p287
sg11
VSw,Sh,
p288
sg13
VGrass
p289
sg15
V60
p290
sg17
V65
p291
sg19
g20
sbag1
(g2
g3
Ntp292
Rp293
(dp294
g7
V320
p295
sg9
VWailmer
p296
sg11
g110
sg13
VGrass
p297
sg15
V60
p298
sg17
V65
p299
sg19
g20
sbag1
(g2
g3
Ntp300
Rp301
(dp302
g7
V320
p303
sg9
VWailmer
p304
sg11
g120
sg13
VGrass
p305
sg15
V60
p306
sg17
V65
p307
sg19
g20
sbag1
(g2
g3
Ntp308
Rp309
(dp310
g7
V564
p311
sg9
VTirtouga
p312
sg11
VSw,Sh,
p313
sg13
VGrass
p314
sg15
V60
p315
sg17
V65
p316
sg19
g20
sbag1
(g2
g3
Ntp317
Rp318
(dp319
g7
V583
p320
sg9
VVanillish
p321
sg11
VSw,Sh,
p322
sg13
VGrass
p323
sg15
V60
p324
sg17
V65
p325
sg19
g20
sbag1
(g2
g3
Ntp326
Rp327
(dp328
g7
V615
p329
sg9
VCryogonal
p330
sg11
VSw,Sh,
p331
sg13
VGrass
p332
sg15
V60
p333
sg17
V65
p334
sg19
g20
sbag1
(g2
g3
Ntp335
Rp336
(dp337
g7
V713
p338
sg9
VAvalugg
p339
sg11
g110
sg13
VGrass
p340
sg15
V60
p341
sg17
V65
p342
sg19
g20
sbag1
(g2
g3
Ntp343
Rp344
(dp345
g7
V713
p346
sg9
VAvalugg
p347
sg11
g120
sg13
VGrass
p348
sg15
V60
p349
sg17
V65
p350
sg19
g20
sbag1
(g2
g3
Ntp351
Rp352
(dp353
g7
V871
p354
sg9
VPincurchin
p355
sg11
VSw,Sh,
p356
sg13
VGrass
p357
sg15
V60
p358
sg17
V65
p359
sg19
g20
sbag1
(g2
g3
Ntp360
Rp361
(dp362
g7
V875
p363
sg9
VEiscue
p364
sg11
g120
sg13
VGrass
p365
sg15
V60
p366
sg17
V65
p367
sg19
g20
sbag1
(g2
g3
Ntp368
Rp369
(dp370
g7
V638
p371
sg9
VCobalion
p372
sg11
VSw,Sh,
p373
sg13
VWanderer
p374
sg15
V70
p375
sg17
g375
sg19
V0
p376
sbag1
(g2
g3
Ntp377
Rp378
(dp379
g7
V363
p380
sg9
VSpheal
p381
sg11
VSw,Sh,
p382
sg13
VWanderer
p383
sg15
V63
p384
sg17
g384
sg19
g20
sbag1
(g2
g3
Ntp385
Rp386
(dp387
g7
V564
p388
sg9
VTirtouga
p389
sg11
VSw,Sh,
p390
sg13
VWanderer
p391
sg15
V63
p392
sg17
g392
sg19
g20
sbag1
(g2
g3
Ntp393
Rp394
(dp395
g7
V363
p396
sg9
VSpheal
p397
sg11
VSw,Sh,
p398
sg13
VWanderer
p399
sg15
V63
p400
sg17
g400
sg19
g20
sbag1
(g2
g3
Ntp401
Rp402
(dp403
g7
V564
p404
sg9
VTirtouga
p405
sg11
VSw,Sh,
p406
sg13
VWanderer
p407
sg15
V63
p408
sg17
g408
sg19
g20
sbag1
(g2
g3
Ntp409
Rp410
(dp411
g7
V363
p412
sg9
VSpheal
p413
sg11
VSw,Sh,
p414
sg13
VWanderer
p415
sg15
V63
p416
sg17
g416
sg19
V0
p417
sbag1
(g2
g3
Ntp418
Rp419
(dp420
g7
V334
p421
sg9
VAltaria
p422
sg11
VSw,Sh,
p423
sg13
VWanderer
p424
sg15
V65
p425
sg17
g425
sg19
g20
sbag1
(g2
g3
Ntp426
Rp427
(dp428
g7
V363
p429
sg9
VSpheal
p430
sg11
VSw,Sh,
p431
sg13
VWanderer
p432
sg15
V63
p433
sg17
g433
sg19
g20
sbag1
(g2
g3
Ntp434
Rp435
(dp436
g7
V466
p437
sg9
VElectivire
p438
sg11
VSw,Sh,
p439
sg13
VWanderer
p440
sg15
V68
p441
sg17
g441
sg19
g20
sbag1
(g2
g3
Ntp442
Rp443
(dp444
g7
V467
p445
sg9
VMagmortar
p446
sg11
VSw,Sh,
p447
sg13
VWanderer
p448
sg15
V68
p449
sg17
g449
sg19
g20
sbag1
(g2
g3
Ntp450
Rp451
(dp452
g7
V614
p453
sg9
VBeartic
p454
sg11
VSw,Sh,
p455
sg13
VWanderer
p456
sg15
V67
p457
sg17
g457
sg19
g20
sbag1
(g2
g3
Ntp458
Rp459
(dp460
g7
V713
p461
sg9
VAvalugg
p462
sg11
VSw,Sh,
p463
sg13
VWanderer
p464
sg15
V65
p465
sg17
g465
sg19
g20
sbag1
(g2
g3
Ntp466
Rp467
(dp468
g7
V858
p469
sg9
VHatterene
p470
sg11
VSw,Sh,
p471
sg13
VWanderer
p472
sg15
V67
p473
sg17
g473
sg19
g20
sbag1
(g2
g3
Ntp474
Rp475
(dp476
g7
V363
p477
sg9
VSpheal
p478
sg11
VSw,Sh,
p479
sg13
VWanderer
p480
sg15
V63
p481
sg17
g481
sg19
g20
sbag1
(g2
g3
Ntp482
Rp483
(dp484
g7
V564
p485
sg9
VTirtouga
p486
sg11
VSw,Sh,
p487
sg13
VWanderer
p488
sg15
V63
p489
sg17
g489
sg19
g20
sbag1
(g2
g3
Ntp490
Rp491
(dp492
g7
V871
p493
sg9
VPincurchin
p494
sg11
VSw,Sh,
p495
sg13
VWanderer
p496
sg15
V65
p497
sg17
g497
sg19
g20
sbag1
(g2
g3
Ntp498
Rp499
(dp500
g7
V364
p501
sg9
VSealeo
p502
sg11
VSw,Sh,
p503
sg13
VWanderer
p504
sg15
V65
p505
sg17
g505
sg19
g20
sbag1
(g2
g3
Ntp506
Rp507
(dp508
g7
V871
p509
sg9
VPincurchin
p510
sg11
VSw,Sh,
p511
sg13
VWanderer
p512
sg15
V65
p513
sg17
g513
sg19
g20
sbag1
(g2
g3
Ntp514
Rp515
(dp516
g7
V363
p517
sg9
VSpheal
p518
sg11
VSw,Sh,
p519
sg13
VWanderer
p520
sg15
V63
p521
sg17
g521
sg19
g20
sbag1
(g2
g3
Ntp522
Rp523
(dp524
g7
V564
p525
sg9
VTirtouga
p526
sg11
VSw,Sh,
p527
sg13
VWanderer
p528
sg15
V63
p529
sg17
g529
sg19
g20
sbag1
(g2
g3
Ntp530
Rp531
(dp532
g7
V871
p533
sg9
VPincurchin
p534
sg11
VSw,Sh,
p535
sg13
VWanderer
p536
sg15
V65
p537
sg17
g537
sg19
g20
sbag1
(g2
g3
Ntp538
Rp539
(dp540
g7
V364
p541
sg9
VSealeo
p542
sg11
VSw,Sh,
p543
sg13
VWanderer
p544
sg15
V65
p545
sg17
g545
sg19
V0
p546
sbag1
(g2
g3
Ntp547
Rp548
(dp549
g7
V365
p550
sg9
VWalrein
p551
sg11
VSw,Sh,
p552
sg13
VWanderer
p553
sg15
V68
p554
sg17
g554
sg19
g20
sbag1
(g2
g3
Ntp555
Rp556
(dp557
g7
V565
p558
sg9
VCarracosta
p559
sg11
VSw,Sh,
p560
sg13
VWanderer
p561
sg15
V67
p562
sg17
g562
sg19
g20
sbag1
(g2
g3
Ntp563
Rp564
(dp565
g7
V334
p566
sg9
VAltaria
p567
sg11
VSw,Sh,
p568
sg13
VWanderer
p569
sg15
V65
p570
sg17
g570
sg19
g20
sbag1
(g2
g3
Ntp571
Rp572
(dp573
g7
V365
p574
sg9
VWalrein
p575
sg11
VSw,Sh,
p576
sg13
VWanderer
p577
sg15
V68
p578
sg17
g578
sg19
g20
sbag1
(g2
g3
Ntp579
Rp580
(dp581
g7
V466
p582
sg9
VElectivire
p583
sg11
VSw,Sh,
p584
sg13
VWanderer
p585
sg15
V68
p586
sg17
g586
sg19
g20
sbag1
(g2
g3
Ntp587
Rp588
(dp589
g7
V467
p590
sg9
VMagmortar
p591
sg11
VSw,Sh,
p592
sg13
VWanderer
p593
sg15
V68
p594
sg17
g594
sg19
g20
sbag1
(g2
g3
Ntp595
Rp596
(dp597
g7
V713
p598
sg9
VAvalugg
p599
sg11
VSw,Sh,
p600
sg13
VWanderer
p601
sg15
V65
p602
sg17
g602
sg19
g20
sbag1
(g2
g3
Ntp603
Rp604
(dp605
g7
V858
p606
sg9
VHatterene
p607
sg11
VSw,Sh,
p608
sg13
VWanderer
p609
sg15
V67
p610
sg17
g610
sg19
g20
sbag1
(g2
g3
Ntp611
Rp612
(dp613
g7
V365
p614
sg9
VWalrein
p615
sg11
VSw,Sh,
p616
sg13
VWanderer
p617
sg15
V68
p618
sg17
g618
sg19
g20
sbag1
(g2
g3
Ntp619
Rp620
(dp621
g7
V564
p622
sg9
VTirtouga
p623
sg11
VSw,Sh,
p624
sg13
VWanderer
p625
sg15
V63
p626
sg17
g626
sg19
g20
sbag1
(g2
g3
Ntp627
Rp628
(dp629
g7
V565
p630
sg9
VCarracosta
p631
sg11
VSw,Sh,
p632
sg13
VWanderer
p633
sg15
V67
p634
sg17
g634
sg19
g20
sbag1
(g2
g3
Ntp635
Rp636
(dp637
g7
V871
p638
sg9
VPincurchin
p639
sg11
VSw,Sh,
p640
sg13
VWanderer
p641
sg15
V65
p642
sg17
g642
sg19
g20
sbag1
(g2
g3
Ntp643
Rp644
(dp645
g7
V334
p646
sg9
VAltaria
p647
sg11
VSw,Sh,
p648
sg13
VWanderer
p649
sg15
V65
p650
sg17
g650
sg19
g20
sbag1
(g2
g3
Ntp651
Rp652
(dp653
g7
V466
p654
sg9
VElectivire
p655
sg11
VSw,Sh,
p656
sg13
VWanderer
p657
sg15
V68
p658
sg17
g658
sg19
g20
sbag1
(g2
g3
Ntp659
Rp660
(dp661
g7
V467
p662
sg9
VMagmortar
p663
sg11
VSw,Sh,
p664
sg13
VWanderer
p665
sg15
V68
p666
sg17
g666
sg19
g20
sbag1
(g2
g3
Ntp667
Rp668
(dp669
g7
V565
p670
sg9
VCarracosta
p671
sg11
VSw,Sh,
p672
sg13
VWanderer
p673
sg15
V67
p674
sg17
g674
sg19
g20
sbag1
(g2
g3
Ntp675
Rp676
(dp677
g7
V614
p678
sg9
VBeartic
p679
sg11
VSw,Sh,
p680
sg13
VWanderer
p681
sg15
V67
p682
sg17
g682
sg19
g20
sbag1
(g2
g3
Ntp683
Rp684
(dp685
g7
V713
p686
sg9
VAvalugg
p687
sg11
VSw,Sh,
p688
sg13
VWanderer
p689
sg15
V65
p690
sg17
g690
sg19
g20
sbag1
(g2
g3
Ntp691
Rp692
(dp693
g7
V858
p694
sg9
VHatterene
p695
sg11
VSw,Sh,
p696
sg13
VWanderer
p697
sg15
V67
p698
sg17
g698
sg19
g20
sbag1
(g2
g3
Ntp699
Rp700
(dp701
g7
V713
p702
sg9
VAvalugg
p703
sg11
g110
sg13
VWanderer
p704
sg15
V65
p705
sg17
g705
sg19
V0
p706
sbag1
(g2
g3
Ntp707
Rp708
(dp709
g7
V875
p710
sg9
VEiscue
p711
sg11
g120
sg13
VWanderer
p712
sg15
V65
p713
sg17
g713
sg19
V0
p714
sba.