(lp0
ccopy_reg
_reconstructor
p1
(c__main__
WildPokemon
p2
c__builtin__
object
p3
Ntp4
Rp5
(dp6
VpDexNo
p7
V238
p8
sVpSpecies
p9
VSmoochum
p10
sVpGames
p11
VSw,Sh,
p12
sVpArea
p13
VGrass
p14
sVpMinLevel
p15
V60
p16
sVpMaxLevel
p17
V65
p18
sVpRate
p19
V0
p20
sbag1
(g2
g3
Ntp21
Rp22
(dp23
g7
V240
p24
sg9
VMagby
p25
sg11
VSw,Sh,
p26
sg13
VGrass
p27
sg15
V60
p28
sg17
V65
p29
sg19
g20
sbag1
(g2
g3
Ntp30
Rp31
(dp32
g7
V333
p33
sg9
VSwablu
p34
sg11
VSw,Sh,
p35
sg13
VGrass
p36
sg15
V60
p37
sg17
V65
p38
sg19
g20
sbag1
(g2
g3
Ntp39
Rp40
(dp41
g7
V439
p42
sg9
VMime Jr.
p43
sg11
VSw,Sh,
p44
sg13
VGrass
p45
sg15
V60
p46
sg17
V65
p47
sg19
g20
sbag1
(g2
g3
Ntp48
Rp49
(dp50
g7
V459
p51
sg9
VSnover
p52
sg11
VSw,Sh,
p53
sg13
VGrass
p54
sg15
V60
p55
sg17
V65
p56
sg19
g20
sbag1
(g2
g3
Ntp57
Rp58
(dp59
g7
V574
p60
sg9
VGothita
p61
sg11
VSw,
p62
sg13
VGrass
p63
sg15
V60
p64
sg17
V65
p65
sg19
g20
sbag1
(g2
g3
Ntp66
Rp67
(dp68
g7
V577
p69
sg9
VSolosis
p70
sg11
VSh,
p71
sg13
VGrass
p72
sg15
V60
p73
sg17
V65
p74
sg19
g20
sbag1
(g2
g3
Ntp75
Rp76
(dp77
g7
V582
p78
sg9
VVanillite
p79
sg11
VSw,Sh,
p80
sg13
VGrass
p81
sg15
V60
p82
sg17
V65
p83
sg19
g20
sbag1
(g2
g3
Ntp84
Rp85
(dp86
g7
V831
p87
sg9
VWooloo
p88
sg11
VSw,Sh,
p89
sg13
VGrass
p90
sg15
V60
p91
sg17
V65
p92
sg19
g20
sbag1
(g2
g3
Ntp93
Rp94
(dp95
g7
V856
p96
sg9
VHatenna
p97
sg11
VSw,Sh,
p98
sg13
VGrass
p99
sg15
V60
p100
sg17
V65
p101
sg19
g20
sbag1
(g2
g3
Ntp102
Rp103
(dp104
g7
V819
p105
sg9
VSkwovet
p106
sg11
VSw,Sh,
p107
sg13
VBerry tree
p108
sg15
V60
p109
sg17
V65
p110
sg19
V70
p111
sbag1
(g2
g3
Ntp112
Rp113
(dp114
g7
V820
p115
sg9
VGreedent
p116
sg11
VSw,Sh,
p117
sg13
VBerry tree
p118
sg15
V60
p119
sg17
V65
p120
sg19
V30
p121
sbag1
(g2
g3
Ntp122
Rp123
(dp124
g7
V124
p125
sg9
VJynx
p126
sg11
VSw,Sh,
p127
sg13
VGrass
p128
sg15
V60
p129
sg17
V65
p130
sg19
g20
sbag1
(g2
g3
Ntp131
Rp132
(dp133
g7
V126
p134
sg9
VMagmar
p135
sg11
VSw,Sh,
p136
sg13
VGrass
p137
sg15
V60
p138
sg17
V65
p139
sg19
g20
sbag1
(g2
g3
Ntp140
Rp141
(dp142
g7
V215
p143
sg9
VSneasel
p144
sg11
VSw,Sh,
p145
sg13
VGrass
p146
sg15
V60
p147
sg17
V65
p148
sg19
g20
sbag1
(g2
g3
Ntp149
Rp150
(dp151
g7
V333
p152
sg9
VSwablu
p153
sg11
VSw,Sh,
p154
sg13
VGrass
p155
sg15
V60
p156
sg17
V65
p157
sg19
g20
sbag1
(g2
g3
Ntp158
Rp159
(dp160
g7
V460
p161
sg9
VAbomasnow
p162
sg11
VSw,Sh,
p163
sg13
VGrass
p164
sg15
V60
p165
sg17
V65
p166
sg19
g20
sbag1
(g2
g3
Ntp167
Rp168
(dp169
g7
V531
p170
sg9
VAudino
p171
sg11
VSw,Sh,
p172
sg13
VGrass
p173
sg15
V60
p174
sg17
V65
p175
sg19
g20
sbag1
(g2
g3
Ntp176
Rp177
(dp178
g7
V575
p179
sg9
VGothorita
p180
sg11
g62
sg13
VGrass
p181
sg15
V60
p182
sg17
V65
p183
sg19
g20
sbag1
(g2
g3
Ntp184
Rp185
(dp186
g7
V578
p187
sg9
VDuosion
p188
sg11
g71
sg13
VGrass
p189
sg15
V60
p190
sg17
V65
p191
sg19
g20
sbag1
(g2
g3
Ntp192
Rp193
(dp194
g7
V583
p195
sg9
VVanillish
p196
sg11
VSw,Sh,
p197
sg13
VGrass
p198
sg15
V60
p199
sg17
V65
p200
sg19
g20
sbag1
(g2
g3
Ntp201
Rp202
(dp203
g7
V615
p204
sg9
VCryogonal
p205
sg11
VSw,Sh,
p206
sg13
VGrass
p207
sg15
V60
p208
sg17
V65
p209
sg19
g20
sbag1
(g2
g3
Ntp210
Rp211
(dp212
g7
V698
p213
sg9
VAmaura
p214
sg11
VSw,Sh,
p215
sg13
VGrass
p216
sg15
V60
p217
sg17
V65
p218
sg19
g20
sbag1
(g2
g3
Ntp219
Rp220
(dp221
g7
V778
p222
sg9
VMimikyu
p223
sg11
VSw,Sh,
p224
sg13
VGrass
p225
sg15
V60
p226
sg17
V65
p227
sg19
g20
sbag1
(g2
g3
Ntp228
Rp229
(dp230
g7
V832
p231
sg9
VDubwool
p232
sg11
VSw,Sh,
p233
sg13
VGrass
p234
sg15
V60
p235
sg17
V65
p236
sg19
g20
sbag1
(g2
g3
Ntp237
Rp238
(dp239
g7
V857
p240
sg9
VHattrem
p241
sg11
VSw,Sh,
p242
sg13
VGrass
p243
sg15
V60
p244
sg17
V65
p245
sg19
g20
sbag1
(g2
g3
Ntp246
Rp247
(dp248
g7
V029
p249
sg9
VNidoran\u2640
p250
sg11
VSw,Sh,
p251
sg13
VWanderer
p252
sg15
V60
p253
sg17
g253
sg19
g20
sbag1
(g2
g3
Ntp254
Rp255
(dp256
g7
V032
p257
sg9
VNidoran\u2642
p258
sg11
VSw,Sh,
p259
sg13
VWanderer
p260
sg15
V60
p261
sg17
g261
sg19
g20
sbag1
(g2
g3
Ntp262
Rp263
(dp264
g7
V778
p265
sg9
VMimikyu
p266
sg11
VSw,Sh,
p267
sg13
VWanderer
p268
sg15
V62
p269
sg17
g269
sg19
g20
sbag1
(g2
g3
Ntp270
Rp271
(dp272
g7
V124
p273
sg9
VJynx
p274
sg11
VSw,Sh,
p275
sg13
VWanderer
p276
sg15
V62
p277
sg17
g277
sg19
g20
sbag1
(g2
g3
Ntp278
Rp279
(dp280
g7
V143
p281
sg9
VSnorlax
p282
sg11
VSw,Sh,
p283
sg13
VWanderer
p284
sg15
V65
p285
sg17
g285
sg19
g20
sbag1
(g2
g3
Ntp286
Rp287
(dp288
g7
V461
p289
sg9
VWeavile
p290
sg11
VSw,Sh,
p291
sg13
VWanderer
p292
sg15
V63
p293
sg17
g293
sg19
g20
sbag1
(g2
g3
Ntp294
Rp295
(dp296
g7
V584
p297
sg9
VVanilluxe
p298
sg11
VSw,Sh,
p299
sg13
VWanderer
p300
sg15
V65
p301
sg17
g301
sg19
g20
sbag1
(g2
g3
Ntp302
Rp303
(dp304
g7
V698
p305
sg9
VAmaura
p306
sg11
VSw,Sh,
p307
sg13
VWanderer
p308
sg15
V60
p309
sg17
g309
sg19
g20
sbag1
(g2
g3
Ntp310
Rp311
(dp312
g7
V126
p313
sg9
VMagmar
p314
sg11
VSw,Sh,
p315
sg13
VWanderer
p316
sg15
V62
p317
sg17
g317
sg19
g20
sbag1
(g2
g3
Ntp318
Rp319
(dp320
g7
V333
p321
sg9
VSwablu
p322
sg11
VSw,Sh,
p323
sg13
VWanderer
p324
sg15
V60
p325
sg17
g325
sg19
g20
sbag1
(g2
g3
Ntp326
Rp327
(dp328
g7
V615
p329
sg9
VCryogonal
p330
sg11
VSw,Sh,
p331
sg13
VWanderer
p332
sg15
V62
p333
sg17
g333
sg19
g20
sbag1
(g2
g3
Ntp334
Rp335
(dp336
g7
V698
p337
sg9
VAmaura
p338
sg11
VSw,Sh,
p339
sg13
VWanderer
p340
sg15
V60
p341
sg17
g341
sg19
g20
sbag1
(g2
g3
Ntp342
Rp343
(dp344
g7
V778
p345
sg9
VMimikyu
p346
sg11
VSw,Sh,
p347
sg13
VWanderer
p348
sg15
V62
p349
sg17
g349
sg19
g20
sbag1
(g2
g3
Ntp350
Rp351
(dp352
g7
V832
p353
sg9
VDubwool
p354
sg11
VSw,Sh,
p355
sg13
VWanderer
p356
sg15
V63
p357
sg17
g357
sg19
g20
sbag1
(g2
g3
Ntp358
Rp359
(dp360
g7
V143
p361
sg9
VSnorlax
p362
sg11
VSw,Sh,
p363
sg13
VWanderer
p364
sg15
V65
p365
sg17
g365
sg19
g20
sbag1
(g2
g3
Ntp366
Rp367
(dp368
g7
V460
p369
sg9
VAbomasnow
p370
sg11
VSw,Sh,
p371
sg13
VWanderer
p372
sg15
V65
p373
sg17
g373
sg19
g20
sbag1
(g2
g3
Ntp374
Rp375
(dp376
g7
V698
p377
sg9
VAmaura
p378
sg11
VSw,Sh,
p379
sg13
VWanderer
p380
sg15
V60
p381
sg17
g381
sg19
g20
sbag1
(g2
g3
Ntp382
Rp383
(dp384
g7
V832
p385
sg9
VDubwool
p386
sg11
VSw,Sh,
p387
sg13
VWanderer
p388
sg15
V63
p389
sg17
g389
sg19
g20
sbag1
(g2
g3
Ntp390
Rp391
(dp392
g7
V858
p393
sg9
VHatterene
p394
sg11
VSw,Sh,
p395
sg13
VWanderer
p396
sg15
V65
p397
sg17
g397
sg19
g20
sbag1
(g2
g3
Ntp398
Rp399
(dp400
g7
V143
p401
sg9
VSnorlax
p402
sg11
VSw,Sh,
p403
sg13
VWanderer
p404
sg15
V65
p405
sg17
g405
sg19
g20
sbag1
(g2
g3
Ntp406
Rp407
(dp408
g7
V359
p409
sg9
VAbsol
p410
sg11
VSw,Sh,
p411
sg13
VWanderer
p412
sg15
V62
p413
sg17
g413
sg19
g20
sbag1
(g2
g3
Ntp414
Rp415
(dp416
g7
V460
p417
sg9
VAbomasnow
p418
sg11
VSw,Sh,
p419
sg13
VWanderer
p420
sg15
V65
p421
sg17
g421
sg19
g20
sbag1
(g2
g3
Ntp422
Rp423
(dp424
g7
V576
p425
sg9
VGothitelle
p426
sg11
g62
sg13
VWanderer
p427
sg15
V65
p428
sg17
g428
sg19
g20
sbag1
(g2
g3
Ntp429
Rp430
(dp431
g7
V579
p432
sg9
VReuniclus
p433
sg11
g71
sg13
VWanderer
p434
sg15
V65
p435
sg17
g435
sg19
g20
sbag1
(g2
g3
Ntp436
Rp437
(dp438
g7
V584
p439
sg9
VVanilluxe
p440
sg11
VSw,Sh,
p441
sg13
VWanderer
p442
sg15
V65
p443
sg17
g443
sg19
g20
sbag1
(g2
g3
Ntp444
Rp445
(dp446
g7
V461
p447
sg9
VWeavile
p448
sg11
VSw,Sh,
p449
sg13
VWanderer
p450
sg15
V63
p451
sg17
g451
sg19
g20
sbag1
(g2
g3
Ntp452
Rp453
(dp454
g7
V615
p455
sg9
VCryogonal
p456
sg11
VSw,Sh,
p457
sg13
VWanderer
p458
sg15
V62
p459
sg17
g459
sg19
g20
sbag1
(g2
g3
Ntp460
Rp461
(dp462
g7
V698
p463
sg9
VAmaura
p464
sg11
VSw,Sh,
p465
sg13
VWanderer
p466
sg15
V60
p467
sg17
g467
sg19
g20
sbag1
(g2
g3
Ntp468
Rp469
(dp470
g7
V832
p471
sg9
VDubwool
p472
sg11
VSw,Sh,
p473
sg13
VWanderer
p474
sg15
V63
p475
sg17
g475
sg19
g20
sbag1
(g2
g3
Ntp476
Rp477
(dp478
g7
V858
p479
sg9
VHatterene
p480
sg11
VSw,Sh,
p481
sg13
VWanderer
p482
sg15
V65
p483
sg17
g483
sg19
g20
sbag1
(g2
g3
Ntp484
Rp485
(dp486
g7
V124
p487
sg9
VJynx
p488
sg11
VSw,Sh,
p489
sg13
VWanderer
p490
sg15
V62
p491
sg17
g491
sg19
g20
sbag1
(g2
g3
Ntp492
Rp493
(dp494
g7
V133
p495
sg9
VEevee
p496
sg11
VSw,Sh,
p497
sg13
VWanderer
p498
sg15
V60
p499
sg17
g499
sg19
g20
sbag1
(g2
g3
Ntp500
Rp501
(dp502
g7
V333
p503
sg9
VSwablu
p504
sg11
VSw,Sh,
p505
sg13
VWanderer
p506
sg15
V60
p507
sg17
g507
sg19
g20
sbag1
(g2
g3
Ntp508
Rp509
(dp510
g7
V698
p511
sg9
VAmaura
p512
sg11
VSw,Sh,
p513
sg13
VWanderer
p514
sg15
V60
p515
sg17
g515
sg19
g20
sbag1
(g2
g3
Ntp516
Rp517
(dp518
g7
V832
p519
sg9
VDubwool
p520
sg11
VSw,Sh,
p521
sg13
VWanderer
p522
sg15
V63
p523
sg17
g523
sg19
g20
sbag1
(g2
g3
Ntp524
Rp525
(dp526
g7
V858
p527
sg9
VHatterene
p528
sg11
VSw,Sh,
p529
sg13
VWanderer
p530
sg15
V65
p531
sg17
g531
sg19
g20
sbag1
(g2
g3
Ntp532
Rp533
(dp534
g7
V531
p535
sg9
VAudino
p536
sg11
VSw,Sh,
p537
sg13
VWanderer
p538
sg15
V62
p539
sg17
g539
sg19
V0
p540
sbag1
(g2
g3
Ntp541
Rp542
(dp543
g7
V029
p544
sg9
VNidoran\u2640
p545
sg11
VSw,Sh,
p546
sg13
VWanderer
p547
sg15
V60
p548
sg17
g548
sg19
g20
sbag1
(g2
g3
Ntp549
Rp550
(dp551
g7
V032
p552
sg9
VNidoran\u2642
p553
sg11
VSw,Sh,
p554
sg13
VWanderer
p555
sg15
V60
p556
sg17
g556
sg19
g20
sbag1
(g2
g3
Ntp557
Rp558
(dp559
g7
V778
p560
sg9
VMimikyu
p561
sg11
VSw,Sh,
p562
sg13
VWanderer
p563
sg15
V62
p564
sg17
g564
sg19
g20
sbag1
(g2
g3
Ntp565
Rp566
(dp567
g7
V531
p568
sg9
VAudino
p569
sg11
VSw,Sh,
p570
sg13
VWanderer
p571
sg15
V62
p572
sg17
g572
sg19
V0
p573
sbag1
(g2
g3
Ntp574
Rp575
(dp576
g7
V531
p577
sg9
VAudino
p578
sg11
VSw,Sh,
p579
sg13
VWanderer
p580
sg15
V62
p581
sg17
g581
sg19
V0
p582
sbag1
(g2
g3
Ntp583
Rp584
(dp585
g7
V029
p586
sg9
VNidoran\u2640
p587
sg11
VSw,Sh,
p588
sg13
VWanderer
p589
sg15
V60
p590
sg17
g590
sg19
g20
sbag1
(g2
g3
Ntp591
Rp592
(dp593
g7
V032
p594
sg9
VNidoran\u2642
p595
sg11
VSw,Sh,
p596
sg13
VWanderer
p597
sg15
V60
p598
sg17
g598
sg19
g20
sbag1
(g2
g3
Ntp599
Rp600
(dp601
g7
V778
p602
sg9
VMimikyu
p603
sg11
VSw,Sh,
p604
sg13
VWanderer
p605
sg15
V62
p606
sg17
g606
sg19
g20
sbag1
(g2
g3
Ntp607
Rp608
(dp609
g7
V531
p610
sg9
VAudino
p611
sg11
VSw,Sh,
p612
sg13
VWanderer
p613
sg15
V62
p614
sg17
g614
sg19
V0
p615
sba.