(lp0
ccopy_reg
_reconstructor
p1
(c__main__
WildPokemon
p2
c__builtin__
object
p3
Ntp4
Rp5
(dp6
VpDexNo
p7
V093
p8
sVpSpecies
p9
VHaunter
p10
sVpGames
p11
VX,Y,
p12
sVpArea
p13
VCave
p14
sVpMinLevel
p15
V38
p16
sVpMaxLevel
p17
V40
p18
sVpRate
p19
V16
p20
sbag1
(g2
g3
Ntp21
Rp22
(dp23
g7
V124
p24
sg9
VJynx
p25
sg11
VX,Y,
p26
sg13
VCave
p27
sg15
V39
p28
sg17
V40
p29
sg19
V20
p30
sbag1
(g2
g3
Ntp31
Rp32
(dp33
g7
V221
p34
sg9
VPiloswine
p35
sg11
VX,Y,
p36
sg13
VCave
p37
sg15
V38
p38
sg17
V39
p39
sg19
V20
p40
sbag1
(g2
g3
Ntp41
Rp42
(dp43
g7
V614
p44
sg9
VBeartic
p45
sg11
VX,Y,
p46
sg13
VCave
p47
sg15
V39
p48
sg17
V40
p49
sg19
V20
p50
sbag1
(g2
g3
Ntp51
Rp52
(dp53
g7
V615
p54
sg9
VCryogonal
p55
sg11
VX,Y,
p56
sg13
VCave
p57
sg15
V40
p58
sg17
g58
sg19
V4
p59
sbag1
(g2
g3
Ntp60
Rp61
(dp62
g7
V712
p63
sg9
VBergmite
p64
sg11
VX,Y,
p65
sg13
VCave
p66
sg15
V39
p67
sg17
V40
p68
sg19
V20
p69
sbag1
(g2
g3
Ntp70
Rp71
(dp72
g7
V093
p73
sg9
VHaunter
p74
sg11
VX,
p75
sg13
VCave
p76
sg15
V38
p77
sg17
V40
p78
sg19
V16
p79
sbag1
(g2
g3
Ntp80
Rp81
(dp82
g7
V093
p83
sg9
VHaunter
p84
sg11
VY,
p85
sg13
VCave
p86
sg15
V38
p87
sg17
V40
p88
sg19
V20
p89
sbag1
(g2
g3
Ntp90
Rp91
(dp92
g7
V124
p93
sg9
VJynx
p94
sg11
VX,Y,
p95
sg13
VCave
p96
sg15
V39
p97
sg17
V40
p98
sg19
V20
p99
sbag1
(g2
g3
Ntp100
Rp101
(dp102
g7
V221
p103
sg9
VPiloswine
p104
sg11
VX,Y,
p105
sg13
VCave
p106
sg15
V38
p107
sg17
V39
p108
sg19
V20
p109
sbag1
(g2
g3
Ntp110
Rp111
(dp112
g7
V614
p113
sg9
VBeartic
p114
sg11
VX,Y,
p115
sg13
VCave
p116
sg15
V39
p117
sg17
V40
p118
sg19
V20
p119
sbag1
(g2
g3
Ntp120
Rp121
(dp122
g7
V615
p123
sg9
VCryogonal
p124
sg11
g75
sg13
VCave
p125
sg15
V40
p126
sg17
g126
sg19
V4
p127
sbag1
(g2
g3
Ntp128
Rp129
(dp130
g7
V712
p131
sg9
VBergmite
p132
sg11
VX,Y,
p133
sg13
VCave
p134
sg15
V39
p135
sg17
V40
p136
sg19
V20
p137
sbag1
(g2
g3
Ntp138
Rp139
(dp140
g7
V238
p141
sg9
VSmoochum
p142
sg11
VX,Y,
p143
sg13
VHorde Encounter
p144
sg15
V21
p145
sg17
g145
sg19
V5
p146
sbag1
(g2
g3
Ntp147
Rp148
(dp149
g7
V582
p150
sg9
VVanillite
p151
sg11
VX,Y,
p152
sg13
VHorde Encounter
p153
sg15
V20
p154
sg17
g154
sg19
V60
p155
sbag1
(g2
g3
Ntp156
Rp157
(dp158
g7
V613
p159
sg9
VCubchoo
p160
sg11
VX,Y,
p161
sg13
VHorde Encounter
p162
sg15
V20
p163
sg17
g163
sg19
V35
p164
sbag1
(g2
g3
Ntp165
Rp166
(dp167
g7
V061
p168
sg9
VPoliwhirl
p169
sg11
VX,Y,
p170
sg13
VSurf
p171
sg15
V38
p172
sg17
V40
p173
sg19
V66
p174
sbag1
(g2
g3
Ntp175
Rp176
(dp177
g7
V419
p178
sg9
VFloatzel
p179
sg11
VX,Y,
p180
sg13
VSurf
p181
sg15
V38
p182
sg17
V40
p183
sg19
V34
p184
sbag1
(g2
g3
Ntp185
Rp186
(dp187
g7
V060
p188
sg9
VPoliwag
p189
sg11
VX,Y,
p190
sg13
VFish Old
p191
sg15
V20
p192
sg17
g192
sg19
V100
p193
sbag1
(g2
g3
Ntp194
Rp195
(dp196
g7
V061
p197
sg9
VPoliwhirl
p198
sg11
VX,Y,
p199
sg13
VFish Good
p200
sg15
V30
p201
sg17
g201
sg19
V35
p202
sbag1
(g2
g3
Ntp203
Rp204
(dp205
g7
V550
p206
sg9
VBasculin
p207
sg11
g85
sg13
VFish Good
p208
sg15
V30
p209
sg17
g209
sg19
V65
p210
sbag1
(g2
g3
Ntp211
Rp212
(dp213
g7
V550
p214
sg9
VBasculin
p215
sg11
g75
sg13
VFish Good
p216
sg15
V30
p217
sg17
g217
sg19
V65
p218
sbag1
(g2
g3
Ntp219
Rp220
(dp221
g7
V061
p222
sg9
VPoliwhirl
p223
sg11
VX,Y,
p224
sg13
VFish Super
p225
sg15
V40
p226
sg17
g226
sg19
V65
p227
sbag1
(g2
g3
Ntp228
Rp229
(dp230
g7
V550
p231
sg9
VBasculin
p232
sg11
g75
sg13
VFish Super
p233
sg15
V40
p234
sg17
g234
sg19
V35
p235
sbag1
(g2
g3
Ntp236
Rp237
(dp238
g7
V550
p239
sg9
VBasculin
p240
sg11
g85
sg13
VFish Super
p241
sg15
V40
p242
sg17
g242
sg19
V35
p243
sba.