(lp0
ccopy_reg
_reconstructor
p1
(c__main__
WildPokemon
p2
c__builtin__
object
p3
Ntp4
Rp5
(dp6
VpDexNo
p7
V129
p8
sVpSpecies
p9
VMagikarp
p10
sVpGames
p11
VR,B,Y,
p12
sVpArea
p13
VFish Old
p14
sVpMinLevel
p15
V5
p16
sVpMaxLevel
p17
g16
sVpRate
p18
V100
p19
sbag1
(g2
g3
Ntp20
Rp21
(dp22
g7
V060
p23
sg9
VPoliwag
p24
sg11
VR,B,Y,
p25
sg13
VFish Good
p26
sg15
V10
p27
sg17
g27
sg18
V50
p28
sbag1
(g2
g3
Ntp29
Rp30
(dp31
g7
V098
p32
sg9
VKrabby
p33
sg11
VR,B,
p34
sg13
VFish Super
p35
sg15
V15
p36
sg17
g36
sg18
V25
p37
sbag1
(g2
g3
Ntp38
Rp39
(dp40
g7
V118
p41
sg9
VGoldeen
p42
sg11
VR,B,
p43
sg13
VFish Super
p44
sg15
V15
p45
sg17
g45
sg18
V25
p46
sbag1
(g2
g3
Ntp47
Rp48
(dp49
g7
V119
p50
sg9
VSeaking
p51
sg11
VR,B,
p52
sg13
VFish Super
p53
sg15
V23
p54
sg17
g54
sg18
V25
p55
sbag1
(g2
g3
Ntp56
Rp57
(dp58
g7
V129
p59
sg9
VMagikarp
p60
sg11
VR,B,
p61
sg13
VFish Super
p62
sg15
V15
p63
sg17
g63
sg18
V25
p64
sbag1
(g2
g3
Ntp65
Rp66
(dp67
g7
V129
p68
sg9
VMagikarp
p69
sg11
VY,
p70
sg13
VFish Super
p71
sg15
g16
sg17
V15
p72
sg18
V90
p73
sbag1
(g2
g3
Ntp74
Rp75
(dp76
g7
V130
p77
sg9
VGyarados
p78
sg11
g70
sg13
VFish Super
p79
sg15
V15
p80
sg17
g80
sg18
V10
p81
sbag1
(g2
g3
Ntp82
Rp83
(dp84
g7
V129
p85
sg9
VMagikarp
p86
sg11
VG,S,C,
p87
sg13
VSurf
p88
sg15
V10
p89
sg17
V24
p90
sg18
V100
p91
sbag1
(g2
g3
Ntp92
Rp93
(dp94
g7
V129
p95
sg9
VMagikarp
p96
sg11
VG,S,C,
p97
sg13
VFish Old
p98
sg15
V10
p99
sg17
g99
sg18
V100
p100
sbag1
(g2
g3
Ntp101
Rp102
(dp103
g7
V129
p104
sg9
VMagikarp
p105
sg11
VG,S,C,
p106
sg13
VFish Good
p107
sg15
V20
p108
sg17
g108
sg18
V90
p109
sbag1
(g2
g3
Ntp110
Rp111
(dp112
g7
V130
p113
sg9
VGyarados
p114
sg11
VG,S,C,
p115
sg13
VFish Good
p116
sg15
V20
p117
sg17
g117
sg18
V10
p118
sbag1
(g2
g3
Ntp119
Rp120
(dp121
g7
V129
p122
sg9
VMagikarp
p123
sg11
VG,S,C,
p124
sg13
VFish Super
p125
sg15
V40
p126
sg17
g126
sg18
V70
p127
sbag1
(g2
g3
Ntp128
Rp129
(dp130
g7
V130
p131
sg9
VGyarados
p132
sg11
VG,S,C,
p133
sg13
VFish Super
p134
sg15
V40
p135
sg17
g135
sg18
V30
p136
sbag1
(g2
g3
Ntp137
Rp138
(dp139
g7
V054
p140
sg9
VPsyduck
p141
sg11
VFR,
p142
sg13
VSurf
p143
sg15
V20
p144
sg17
V40
p145
sg18
V100
p146
sbag1
(g2
g3
Ntp147
Rp148
(dp149
g7
V079
p150
sg9
VSlowpoke
p151
sg11
VLG,
p152
sg13
VSurf
p153
sg15
V20
p154
sg17
V40
p155
sg18
V100
p156
sbag1
(g2
g3
Ntp157
Rp158
(dp159
g7
V129
p160
sg9
VMagikarp
p161
sg11
VFR,LG,
p162
sg13
VFish Old
p163
sg15
g16
sg17
g16
sg18
V100
p164
sbag1
(g2
g3
Ntp165
Rp166
(dp167
g7
V060
p168
sg9
VPoliwag
p169
sg11
VFR,LG,
p170
sg13
VFish Good
p171
sg15
g16
sg17
V15
p172
sg18
V60
p173
sbag1
(g2
g3
Ntp174
Rp175
(dp176
g7
V118
p177
sg9
VGoldeen
p178
sg11
VFR,LG,
p179
sg13
VFish Good
p180
sg15
g16
sg17
V15
p181
sg18
V20
p182
sbag1
(g2
g3
Ntp183
Rp184
(dp185
g7
V129
p186
sg9
VMagikarp
p187
sg11
VFR,LG,
p188
sg13
VFish Good
p189
sg15
g16
sg17
V15
p190
sg18
V20
p191
sbag1
(g2
g3
Ntp192
Rp193
(dp194
g7
V118
p195
sg9
VGoldeen
p196
sg11
VFR,LG,
p197
sg13
VFish Super
p198
sg15
V15
p199
sg17
V25
p200
sg18
V40
p201
sbag1
(g2
g3
Ntp202
Rp203
(dp204
g7
V119
p205
sg9
VSeaking
p206
sg11
VFR,LG,
p207
sg13
VFish Super
p208
sg15
V20
p209
sg17
V30
p210
sg18
V40
p211
sbag1
(g2
g3
Ntp212
Rp213
(dp214
g7
V130
p215
sg9
VGyarados
p216
sg11
VFR,LG,
p217
sg13
VFish Super
p218
sg15
V15
p219
sg17
V25
p220
sg18
V15
p221
sbag1
(g2
g3
Ntp222
Rp223
(dp224
g7
V054
p225
sg9
VPsyduck
p226
sg11
g142
sg13
VFish Super
p227
sg15
V15
p228
sg17
V35
p229
sg18
V5
p230
sbag1
(g2
g3
Ntp231
Rp232
(dp233
g7
V079
p234
sg9
VSlowpoke
p235
sg11
g152
sg13
VFish Super
p236
sg15
V15
p237
sg17
V35
p238
sg18
V5
p239
sbag1
(g2
g3
Ntp240
Rp241
(dp242
g7
V129
p243
sg9
VMagikarp
p244
sg11
VHG,SS,
p245
sg13
VSurf
p246
sg15
V10
p247
sg17
V20
p248
sg18
V100
p249
sbag1
(g2
g3
Ntp250
Rp251
(dp252
g7
V129
p253
sg9
VMagikarp
p254
sg11
VHG,SS,
p255
sg13
VFish Old
p256
sg15
V10
p257
sg17
g257
sg18
V100
p258
sbag1
(g2
g3
Ntp259
Rp260
(dp261
g7
V129
p262
sg9
VMagikarp
p263
sg11
VHG,SS,
p264
sg13
VFish Good
p265
sg15
V20
p266
sg17
g266
sg18
V97
p267
sbag1
(g2
g3
Ntp268
Rp269
(dp270
g7
V130
p271
sg9
VGyarados
p272
sg11
VHG,SS,
p273
sg13
VFish Good
p274
sg15
V20
p275
sg17
g275
sg18
V3
p276
sbag1
(g2
g3
Ntp277
Rp278
(dp279
g7
V129
p280
sg9
VMagikarp
p281
sg11
VHG,SS,
p282
sg13
VFish Super
p283
sg15
V40
p284
sg17
g284
sg18
V70
p285
sbag1
(g2
g3
Ntp286
Rp287
(dp288
g7
V130
p289
sg9
VGyarados
p290
sg11
VHG,SS,
p291
sg13
VFish Super
p292
sg15
V40
p293
sg17
g293
sg18
V30
p294
sbag1
(g2
g3
Ntp295
Rp296
(dp297
g7
V163
p298
sg9
VHoothoot
p299
sg11
VHG,SS,
p300
sg13
VHeadbutt
p301
sg15
V26
p302
sg17
V34
p303
sg18
V65
p304
sbag1
(g2
g3
Ntp305
Rp306
(dp307
g7
V163
p308
sg9
VHoothoot
p309
sg11
VHG,SS,
p310
sg13
VHeadbutt
p311
sg15
V21
p312
sg17
V23
p313
sg18
V50
p314
sbag1
(g2
g3
Ntp315
Rp316
(dp317
g7
V167
p318
sg9
VSpinarak
p319
sg11
VHG,
p320
sg13
VHeadbutt
p321
sg15
V21
p322
sg17
V23
p323
sg18
V30
p324
sbag1
(g2
g3
Ntp325
Rp326
(dp327
g7
V165
p328
sg9
VLedyba
p329
sg11
VSS,
p330
sg13
VHeadbutt
p331
sg15
V21
p332
sg17
V23
p333
sg18
V30
p334
sbag1
(g2
g3
Ntp335
Rp336
(dp337
g7
V265
p338
sg9
VWurmple
p339
sg11
VHG,SS,
p340
sg13
VHeadbutt
p341
sg15
V21
p342
sg17
V34
p343
sg18
V20
p344
sbag1
(g2
g3
Ntp345
Rp346
(dp347
g7
V114
p348
sg9
VTangela
p349
sg11
VHG,SS,
p350
sg13
VHeadbutt
p351
sg15
V26
p352
sg17
V34
p353
sg18
V15
p354
sbag1
(g2
g3
Ntp355
Rp356
(dp357
g7
V016
p358
sg9
VPidgey
p359
sg11
VPi,Ev,
p360
sg13
VSky
p361
sg15
V3
p362
sg17
V56
p363
sg18
V60
p364
sbag1
(g2
g3
Ntp365
Rp366
(dp367
g7
V017
p368
sg9
VPidgeotto
p369
sg11
VPi,Ev,
p370
sg13
VSky
p371
sg15
g362
sg17
V56
p372
sg18
V35
p373
sbag1
(g2
g3
Ntp374
Rp375
(dp376
g7
V018
p377
sg9
VPidgeot
p378
sg11
VPi,Ev,
p379
sg13
VSky
p380
sg15
g362
sg17
V56
p381
sg18
V5
p382
sbag1
(g2
g3
Ntp383
Rp384
(dp385
g7
V105
p386
sg9
VMarowak
p387
sg11
VPi,Ev,
p388
sg13
VTrade
p389
sg15
V38
p390
sg17
g390
sg18
V0
p391
sba.