(lp0
ccopy_reg
_reconstructor
p1
(c__main__
WildPokemon
p2
c__builtin__
object
p3
Ntp4
Rp5
(dp6
VpDexNo
p7
V112
p8
sVpSpecies
p9
VRhydon
p10
sVpGames
p11
VSw,
p12
sVpArea
p13
VGrass
p14
sVpMinLevel
p15
V43
p16
sVpMaxLevel
p17
V46
p18
sVpRate
p19
V25
p20
sbag1
(g2
g3
Ntp21
Rp22
(dp23
g7
V112
p24
sg9
VRhydon
p25
sg11
VSh,
p26
sg13
VGrass
p27
sg15
V44
p28
sg17
V49
p29
sg19
V25
p30
sbag1
(g2
g3
Ntp31
Rp32
(dp33
g7
V554
p34
sg9
VDarumaka
p35
sg11
g12
sg13
VGrass
p36
sg15
V43
p37
sg17
V46
p38
sg19
V5
p39
sbag1
(g2
g3
Ntp40
Rp41
(dp42
g7
V583
p43
sg9
VVanillish
p44
sg11
g12
sg13
VGrass
p45
sg15
V43
p46
sg17
V46
p47
sg19
V30
p48
sbag1
(g2
g3
Ntp49
Rp50
(dp51
g7
V583
p52
sg9
VVanillish
p53
sg11
g26
sg13
VGrass
p54
sg15
V44
p55
sg17
V49
p56
sg19
V35
p57
sbag1
(g2
g3
Ntp58
Rp59
(dp60
g7
V600
p61
sg9
VKlang
p62
sg11
g12
sg13
VGrass
p63
sg15
V43
p64
sg17
V46
p65
sg19
V30
p66
sbag1
(g2
g3
Ntp67
Rp68
(dp69
g7
V600
p70
sg9
VKlang
p71
sg11
g26
sg13
VGrass
p72
sg15
V44
p73
sg17
V49
p74
sg19
V30
p75
sbag1
(g2
g3
Ntp76
Rp77
(dp78
g7
V872
p79
sg9
VSnom
p80
sg11
g12
sg13
VGrass
p81
sg15
V43
p82
sg17
V46
p83
sg19
V10
p84
sbag1
(g2
g3
Ntp85
Rp86
(dp87
g7
V872
p88
sg9
VSnom
p89
sg11
g26
sg13
VGrass
p90
sg15
V44
p91
sg17
V49
p92
sg19
V10
p93
sbag1
(g2
g3
Ntp94
Rp95
(dp96
g7
V122
p97
sg9
VMr. Mime
p98
sg11
VSw,Sh,
p99
sg13
VGrass
p100
sg15
V45
p101
sg17
V48
p102
sg19
V30
p103
sbag1
(g2
g3
Ntp104
Rp105
(dp106
g7
V362
p107
sg9
VGlalie
p108
sg11
VSw,Sh,
p109
sg13
VGrass
p110
sg15
V45
p111
sg17
V48
p112
sg19
V10
p113
sbag1
(g2
g3
Ntp114
Rp115
(dp116
g7
V459
p117
sg9
VSnover
p118
sg11
VSw,Sh,
p119
sg13
VGrass
p120
sg15
V45
p121
sg17
V48
p122
sg19
V20
p123
sbag1
(g2
g3
Ntp124
Rp125
(dp126
g7
V584
p127
sg9
VVanilluxe
p128
sg11
VSw,Sh,
p129
sg13
VGrass
p130
sg15
V45
p131
sg17
V48
p132
sg19
V10
p133
sbag1
(g2
g3
Ntp134
Rp135
(dp136
g7
V613
p137
sg9
VCubchoo
p138
sg11
VSw,Sh,
p139
sg13
VGrass
p140
sg15
V45
p141
sg17
V48
p142
sg19
V30
p143
sbag1
(g2
g3
Ntp144
Rp145
(dp146
g7
V460
p147
sg9
VAbomasnow
p148
sg11
VSw,Sh,
p149
sg13
VGrass
p150
sg15
V44
p151
sg17
V46
p152
sg19
V28
p153
sbag1
(g2
g3
Ntp154
Rp155
(dp156
g7
V554
p157
sg9
VDarumaka
p158
sg11
g12
sg13
VGrass
p159
sg15
V44
p160
sg17
V46
p161
sg19
V5
p162
sbag1
(g2
g3
Ntp163
Rp164
(dp165
g7
V583
p166
sg9
VVanillish
p167
sg11
g12
sg13
VGrass
p168
sg15
V44
p169
sg17
V46
p170
sg19
V30
p171
sbag1
(g2
g3
Ntp172
Rp173
(dp174
g7
V583
p175
sg9
VVanillish
p176
sg11
g26
sg13
VGrass
p177
sg15
V44
p178
sg17
V46
p179
sg19
V35
p180
sbag1
(g2
g3
Ntp181
Rp182
(dp183
g7
V614
p184
sg9
VBeartic
p185
sg11
VSw,Sh,
p186
sg13
VGrass
p187
sg15
V44
p188
sg17
V46
p189
sg19
V25
p190
sbag1
(g2
g3
Ntp191
Rp192
(dp193
g7
V872
p194
sg9
VSnom
p195
sg11
VSw,Sh,
p196
sg13
VGrass
p197
sg15
V44
p198
sg17
V46
p199
sg19
V10
p200
sbag1
(g2
g3
Ntp201
Rp202
(dp203
g7
V874
p204
sg9
VStonjourner
p205
sg11
g12
sg13
VGrass
p206
sg15
V44
p207
sg17
V46
p208
sg19
V2
p209
sbag1
(g2
g3
Ntp210
Rp211
(dp212
g7
V875
p213
sg9
VEiscue
p214
sg11
g26
sg13
VGrass
p215
sg15
V44
p216
sg17
V46
p217
sg19
V2
p218
sbag1
(g2
g3
Ntp219
Rp220
(dp221
g7
V122
p222
sg9
VMr. Mime
p223
sg11
VSw,Sh,
p224
sg13
VGrass
p225
sg15
V45
p226
sg17
V48
p227
sg19
V0
p228
sbag1
(g2
g3
Ntp229
Rp230
(dp231
g7
V215
p232
sg9
VSneasel
p233
sg11
VSw,Sh,
p234
sg13
VGrass
p235
sg15
V45
p236
sg17
V48
p237
sg19
V14
p238
sbag1
(g2
g3
Ntp239
Rp240
(dp241
g7
V459
p242
sg9
VSnover
p243
sg11
VSw,Sh,
p244
sg13
VGrass
p245
sg15
V45
p246
sg17
V48
p247
sg19
V30
p248
sbag1
(g2
g3
Ntp249
Rp250
(dp251
g7
V613
p252
sg9
VCubchoo
p253
sg11
VSw,Sh,
p254
sg13
VGrass
p255
sg15
V45
p256
sg17
V48
p257
sg19
g228
sbag1
(g2
g3
Ntp258
Rp259
(dp260
g7
V884
p261
sg9
VDuraludon
p262
sg11
VSw,Sh,
p263
sg13
VGrass
p264
sg15
V45
p265
sg17
V48
p266
sg19
V1
p267
sbag1
(g2
g3
Ntp268
Rp269
(dp270
g7
V460
p271
sg9
VAbomasnow
p272
sg11
VSw,Sh,
p273
sg13
VWanderer
p274
sg15
V55
p275
sg17
g275
sg19
V0
p276
sbag1
(g2
g3
Ntp277
Rp278
(dp279
g7
V614
p280
sg9
VBeartic
p281
sg11
VSw,Sh,
p282
sg13
VWanderer
p283
sg15
V55
p284
sg17
g284
sg19
V0
p285
sba.