(lp0
ccopy_reg
_reconstructor
p1
(c__main__
WildPokemon
p2
c__builtin__
object
p3
Ntp4
Rp5
(dp6
VpDexNo
p7
V163
p8
sVpSpecies
p9
VHoothoot
p10
sVpGames
p11
VSw,Sh,
p12
sVpArea
p13
VGrass
p14
sVpMinLevel
p15
V4
p16
sVpMaxLevel
p17
V6
p18
sVpRate
p19
V5
p20
sbag1
(g2
g3
Ntp21
Rp22
(dp23
g7
V270
p24
sg9
VLotad
p25
sg11
VSh,
p26
sg13
VGrass
p27
sg15
g16
sg17
g18
sg19
V20
p28
sbag1
(g2
g3
Ntp29
Rp30
(dp31
g7
V273
p32
sg9
VSeedot
p33
sg11
VSw,
p34
sg13
VGrass
p35
sg15
g16
sg17
g18
sg19
V20
p36
sbag1
(g2
g3
Ntp37
Rp38
(dp39
g7
V509
p40
sg9
VPurrloin
p41
sg11
VSw,Sh,
p42
sg13
VGrass
p43
sg15
g16
sg17
g18
sg19
V10
p44
sbag1
(g2
g3
Ntp45
Rp46
(dp47
g7
V821
p48
sg9
VRookidee
p49
sg11
VSw,Sh,
p50
sg13
VGrass
p51
sg15
g16
sg17
g18
sg19
V25
p52
sbag1
(g2
g3
Ntp53
Rp54
(dp55
g7
V824
p56
sg9
VBlipbug
p57
sg11
VSw,Sh,
p58
sg13
VGrass
p59
sg15
g16
sg17
g18
sg19
V40
p60
sbag1
(g2
g3
Ntp61
Rp62
(dp63
g7
V129
p64
sg9
VMagikarp
p65
sg11
VSw,Sh,
p66
sg13
VFishing
p67
sg15
g16
sg17
g18
sg19
V80
p68
sbag1
(g2
g3
Ntp69
Rp70
(dp71
g7
V833
p72
sg9
VChewtle
p73
sg11
VSw,Sh,
p74
sg13
VFishing
p75
sg15
g16
sg17
g18
sg19
V15
p76
sbag1
(g2
g3
Ntp77
Rp78
(dp79
g7
V846
p80
sg9
VArrokuda
p81
sg11
VSw,Sh,
p82
sg13
VFishing
p83
sg15
g16
sg17
g18
sg19
V5
p84
sbag1
(g2
g3
Ntp85
Rp86
(dp87
g7
V263
p88
sg9
VZigzagoon
p89
sg11
VSw,Sh,
p90
sg13
VGrass
p91
sg15
V5
p92
sg17
V7
p93
sg19
V2
p94
sbag1
(g2
g3
Ntp95
Rp96
(dp97
g7
V819
p98
sg9
VSkwovet
p99
sg11
VSw,Sh,
p100
sg13
VGrass
p101
sg15
g92
sg17
g93
sg19
V38
p102
sbag1
(g2
g3
Ntp103
Rp104
(dp105
g7
V821
p106
sg9
VRookidee
p107
sg11
VSw,Sh,
p108
sg13
VGrass
p109
sg15
g92
sg17
g93
sg19
V30
p110
sbag1
(g2
g3
Ntp111
Rp112
(dp113
g7
V827
p114
sg9
VNickit
p115
sg11
VSw,Sh,
p116
sg13
VGrass
p117
sg15
g92
sg17
g93
sg19
V15
p118
sbag1
(g2
g3
Ntp119
Rp120
(dp121
g7
V833
p122
sg9
VChewtle
p123
sg11
VSw,Sh,
p124
sg13
VGrass
p125
sg15
g92
sg17
g93
sg19
V10
p126
sbag1
(g2
g3
Ntp127
Rp128
(dp129
g7
V835
p130
sg9
VYamper
p131
sg11
VSw,Sh,
p132
sg13
VGrass
p133
sg15
g92
sg17
g93
sg19
V5
p134
sbag1
(g2
g3
Ntp135
Rp136
(dp137
g7
V833
p138
sg9
VChewtle
p139
sg11
VSw,Sh,
p140
sg13
VWanderer
p141
sg15
V8
p142
sg17
g142
sg19
V0
p143
sbag1
(g2
g3
Ntp144
Rp145
(dp146
g7
V835
p147
sg9
VYamper
p148
sg11
VSw,Sh,
p149
sg13
VWanderer
p150
sg15
g142
sg17
g142
sg19
V0
p151
sbag1
(g2
g3
Ntp152
Rp153
(dp154
g7
V270
p155
sg9
VLotad
p156
sg11
g26
sg13
VGrass
p157
sg15
V37
p158
sg17
V40
p159
sg19
V20
p160
sbag1
(g2
g3
Ntp161
Rp162
(dp163
g7
V273
p164
sg9
VSeedot
p165
sg11
g34
sg13
VGrass
p166
sg15
V37
p167
sg17
V40
p168
sg19
V20
p169
sbag1
(g2
g3
Ntp170
Rp171
(dp172
g7
V509
p173
sg9
VPurrloin
p174
sg11
VSw,Sh,
p175
sg13
VGrass
p176
sg15
V37
p177
sg17
V40
p178
sg19
V30
p179
sbag1
(g2
g3
Ntp180
Rp181
(dp182
g7
V824
p183
sg9
VBlipbug
p184
sg11
VSw,Sh,
p185
sg13
VGrass
p186
sg15
V37
p187
sg17
V40
p188
sg19
V10
p189
sbag1
(g2
g3
Ntp190
Rp191
(dp192
g7
V829
p193
sg9
VGossifleur
p194
sg11
VSw,Sh,
p195
sg13
VGrass
p196
sg15
V37
p197
sg17
V40
p198
sg19
V35
p199
sbag1
(g2
g3
Ntp200
Rp201
(dp202
g7
V833
p203
sg9
VChewtle
p204
sg11
VSw,Sh,
p205
sg13
VGrass
p206
sg15
V37
p207
sg17
V40
p208
sg19
V5
p209
sbag1
(g2
g3
Ntp210
Rp211
(dp212
g7
V129
p213
sg9
VMagikarp
p214
sg11
VSw,Sh,
p215
sg13
VFishing
p216
sg15
V37
p217
sg17
V40
p218
sg19
V59
p219
sbag1
(g2
g3
Ntp220
Rp221
(dp222
g7
V349
p223
sg9
VFeebas
p224
sg11
VSw,Sh,
p225
sg13
VFishing
p226
sg15
V37
p227
sg17
V40
p228
sg19
V1
p229
sbag1
(g2
g3
Ntp230
Rp231
(dp232
g7
V833
p233
sg9
VChewtle
p234
sg11
VSw,Sh,
p235
sg13
VFishing
p236
sg15
V37
p237
sg17
V40
p238
sg19
V40
p239
sbag1
(g2
g3
Ntp240
Rp241
(dp242
g7
V263
p243
sg9
VZigzagoon
p244
sg11
VSw,Sh,
p245
sg13
VGrass
p246
sg15
V40
p247
sg17
V43
p248
sg19
V50
p249
sbag1
(g2
g3
Ntp250
Rp251
(dp252
g7
V824
p253
sg9
VBlipbug
p254
sg11
VSw,Sh,
p255
sg13
VGrass
p256
sg15
V40
p257
sg17
V43
p258
sg19
V30
p259
sbag1
(g2
g3
Ntp260
Rp261
(dp262
g7
V827
p263
sg9
VNickit
p264
sg11
VSw,Sh,
p265
sg13
VGrass
p266
sg15
V40
p267
sg17
V43
p268
sg19
V15
p269
sbag1
(g2
g3
Ntp270
Rp271
(dp272
g7
V835
p273
sg9
VYamper
p274
sg11
VSw,Sh,
p275
sg13
VGrass
p276
sg15
V40
p277
sg17
V43
p278
sg19
V5
p279
sbag1
(g2
g3
Ntp280
Rp281
(dp282
g7
V130
p283
sg9
VGyarados
p284
sg11
VSw,Sh,
p285
sg13
VSurf
p286
sg15
V38
p287
sg17
V40
p288
sg19
V2
p289
sbag1
(g2
g3
Ntp290
Rp291
(dp292
g7
V846
p293
sg9
VArrokuda
p294
sg11
VSw,Sh,
p295
sg13
VSurf
p296
sg15
V38
p297
sg17
V40
p298
sg19
V70
p299
sbag1
(g2
g3
Ntp300
Rp301
(dp302
g7
V847
p303
sg9
VBarraskewda
p304
sg11
VSw,Sh,
p305
sg13
VSurf
p306
sg15
V38
p307
sg17
V40
p308
sg19
V28
p309
sbag1
(g2
g3
Ntp310
Rp311
(dp312
g7
V131
p313
sg9
VLapras
p314
sg11
VSw,Sh,
p315
sg13
VWanderer
p316
sg15
V55
p317
sg17
g317
sg19
V0
p318
sbag1
(g2
g3
Ntp319
Rp320
(dp321
g7
V834
p322
sg9
VDrednaw
p323
sg11
VSw,Sh,
p324
sg13
VWanderer
p325
sg15
V50
p326
sg17
g326
sg19
V0
p327
sbag1
(g2
g3
Ntp328
Rp329
(dp330
g7
V862
p331
sg9
VObstagoon
p332
sg11
VSw,Sh,
p333
sg13
VWanderer
p334
sg15
V50
p335
sg17
g335
sg19
V0
p336
sba.