(lp0
ccopy_reg
_reconstructor
p1
(c__main__
WildPokemon
p2
c__builtin__
object
p3
Ntp4
Rp5
(dp6
VpDexNo
p7
V213
p8
sVpSpecies
p9
VShuckle
p10
sVpGames
p11
VSw,Sh,
p12
sVpArea
p13
VCave
p14
sVpMinLevel
p15
V20
p16
sVpMaxLevel
p17
V24
p18
sVpRate
p19
V5
p20
sbag1
(g2
g3
Ntp21
Rp22
(dp23
g7
V422
p24
sg9
VShellos
p25
sg11
VSw,Sh,
p26
sg13
VCave
p27
sg15
V20
p28
sg17
V24
p29
sg19
V25
p30
sbag1
(g2
g3
Ntp31
Rp32
(dp33
g7
V453
p34
sg9
VCroagunk
p35
sg11
VSh,
p36
sg13
VCave
p37
sg15
V20
p38
sg17
V24
p39
sg19
V15
p40
sbag1
(g2
g3
Ntp41
Rp42
(dp43
g7
V559
p44
sg9
VScraggy
p45
sg11
VSw,
p46
sg13
VCave
p47
sg15
V20
p48
sg17
V24
p49
sg19
V15
p50
sbag1
(g2
g3
Ntp51
Rp52
(dp53
g7
V688
p54
sg9
VBinacle
p55
sg11
VSw,Sh,
p56
sg13
VCave
p57
sg15
V20
p58
sg17
V24
p59
sg19
V15
p60
sbag1
(g2
g3
Ntp61
Rp62
(dp63
g7
V714
p64
sg9
VNoibat
p65
sg11
VSw,Sh,
p66
sg13
VCave
p67
sg15
V20
p68
sg17
V24
p69
sg19
V10
p70
sbag1
(g2
g3
Ntp71
Rp72
(dp73
g7
V767
p74
sg9
VWimpod
p75
sg11
VSw,Sh,
p76
sg13
VCave
p77
sg15
V20
p78
sg17
V24
p79
sg19
V25
p80
sbag1
(g2
g3
Ntp81
Rp82
(dp83
g7
V833
p84
sg9
VChewtle
p85
sg11
VSw,Sh,
p86
sg13
VCave
p87
sg15
V20
p88
sg17
V24
p89
sg19
V5
p90
sbag1
(g2
g3
Ntp91
Rp92
(dp93
g7
V339
p94
sg9
VBarboach
p95
sg11
VSw,Sh,
p96
sg13
VFishing
p97
sg15
V20
p98
sg17
V24
p99
sg19
V55
p100
sbag1
(g2
g3
Ntp101
Rp102
(dp103
g7
V341
p104
sg9
VCorphish
p105
sg11
VSw,Sh,
p106
sg13
VFishing
p107
sg15
V20
p108
sg17
V24
p109
sg19
V15
p110
sbag1
(g2
g3
Ntp111
Rp112
(dp113
g7
V833
p114
sg9
VChewtle
p115
sg11
VSw,Sh,
p116
sg13
VFishing
p117
sg15
V20
p118
sg17
V24
p119
sg19
V30
p120
sbag1
(g2
g3
Ntp121
Rp122
(dp123
g7
V618
p124
sg9
VStunfisk
p125
sg11
VSw,Sh,
p126
sg13
VWanderer
p127
sg15
V25
p128
sg17
g128
sg19
V0
p129
sbag1
(g2
g3
Ntp130
Rp131
(dp132
g7
V423
p133
sg9
VGastrodon
p134
sg11
VSw,Sh,
p135
sg13
VWanderer
p136
sg15
V50
p137
sg17
g137
sg19
V0
p138
sbag1
(g2
g3
Ntp139
Rp140
(dp141
g7
V834
p142
sg9
VDrednaw
p143
sg11
VSw,Sh,
p144
sg13
VWanderer
p145
sg15
V24
p146
sg17
g146
sg19
V0
p147
sba.