(lp0
ccopy_reg
_reconstructor
p1
(c__main__
WildPokemon
p2
c__builtin__
object
p3
Ntp4
Rp5
(dp6
VpDexNo
p7
V050
p8
sVpSpecies
p9
VDiglett
p10
sVpGames
p11
VSw,Sh,
p12
sVpArea
p13
VCave
p14
sVpMinLevel
p15
V11
p16
sVpMaxLevel
p17
V14
p18
sVpRate
p19
V10
p20
sbag1
(g2
g3
Ntp21
Rp22
(dp23
g7
V524
p24
sg9
VRoggenrola
p25
sg11
VSw,
p26
sg13
VCave
p27
sg15
V11
p28
sg17
V14
p29
sg19
V5
p30
sbag1
(g2
g3
Ntp31
Rp32
(dp33
g7
V524
p34
sg9
VRoggenrola
p35
sg11
VSh,
p36
sg13
VCave
p37
sg15
V11
p38
sg17
V14
p39
sg19
V25
p40
sbag1
(g2
g3
Ntp41
Rp42
(dp43
g7
V527
p44
sg9
VWoobat
p45
sg11
VSw,Sh,
p46
sg13
VCave
p47
sg15
V11
p48
sg17
V14
p49
sg19
V15
p50
sbag1
(g2
g3
Ntp51
Rp52
(dp53
g7
V529
p54
sg9
VDrilbur
p55
sg11
VSw,Sh,
p56
sg13
VCave
p57
sg15
V11
p58
sg17
V14
p59
sg19
V10
p60
sbag1
(g2
g3
Ntp61
Rp62
(dp63
g7
V532
p64
sg9
VTimburr
p65
sg11
g26
sg13
VCave
p66
sg15
V11
p67
sg17
V14
p68
sg19
V25
p69
sbag1
(g2
g3
Ntp70
Rp71
(dp72
g7
V532
p73
sg9
VTimburr
p74
sg11
g36
sg13
VCave
p75
sg15
V11
p76
sg17
V14
p77
sg19
V5
p78
sbag1
(g2
g3
Ntp79
Rp80
(dp81
g7
V837
p82
sg9
VRolycoly
p83
sg11
VSw,Sh,
p84
sg13
VCave
p85
sg15
V11
p86
sg17
V14
p87
sg19
V35
p88
sbag1
(g2
g3
Ntp89
Rp90
(dp91
g7
V838
p92
sg9
VCarkol
p93
sg11
VSw,Sh,
p94
sg13
VWanderer
p95
sg15
V18
p96
sg17
g96
sg19
V0
p97
sbag1
(g2
g3
Ntp98
Rp99
(dp100
g7
V527
p101
sg9
VWoobat
p102
sg11
VSw,Sh,
p103
sg13
VWanderer
p104
sg15
V16
p105
sg17
g105
sg19
V0
p106
sba.