(lp0
ccopy_reg
_reconstructor
p1
(c__main__
WildPokemon
p2
c__builtin__
object
p3
Ntp4
Rp5
(dp6
VpDexNo
p7
V066
p8
sVpSpecies
p9
VMachop
p10
sVpGames
p11
VSw,Sh,
p12
sVpArea
p13
VGrass
p14
sVpMinLevel
p15
V8
p16
sVpMaxLevel
p17
V13
p18
sVpRate
p19
V20
p20
sbag1
(g2
g3
Ntp21
Rp22
(dp23
g7
V599
p24
sg9
VKlink
p25
sg11
VSw,Sh,
p26
sg13
VGrass
p27
sg15
g16
sg17
V13
p28
sg19
V9
p29
sbag1
(g2
g3
Ntp30
Rp31
(dp32
g7
V674
p33
sg9
VPancham
p34
sg11
VSw,Sh,
p35
sg13
VGrass
p36
sg15
g16
sg17
V13
p37
sg19
V20
p38
sbag1
(g2
g3
Ntp39
Rp40
(dp41
g7
V749
p42
sg9
VMudbray
p43
sg11
VSw,Sh,
p44
sg13
VGrass
p45
sg15
g16
sg17
V13
p46
sg19
V15
p47
sbag1
(g2
g3
Ntp48
Rp49
(dp50
g7
V821
p51
sg9
VRookidee
p52
sg11
VSw,Sh,
p53
sg13
VGrass
p54
sg15
g16
sg17
V13
p55
sg19
V35
p56
sbag1
(g2
g3
Ntp57
Rp58
(dp59
g7
V850
p60
sg9
VSizzlipede
p61
sg11
VSw,Sh,
p62
sg13
VGrass
p63
sg15
g16
sg17
V13
p64
sg19
V1
p65
sbag1
(g2
g3
Ntp66
Rp67
(dp68
g7
V420
p69
sg9
VCherubi
p70
sg11
VSw,Sh,
p71
sg13
VBerry tree
p72
sg15
g16
sg17
V13
p73
sg19
V20
p74
sbag1
(g2
g3
Ntp75
Rp76
(dp77
g7
V819
p78
sg9
VSkwovet
p79
sg11
VSw,Sh,
p80
sg13
VBerry tree
p81
sg15
g16
sg17
V13
p82
sg19
V80
p83
sbag1
(g2
g3
Ntp84
Rp85
(dp86
g7
V037
p87
sg9
VVulpix
p88
sg11
VSw,
p89
sg13
VGrass
p90
sg15
V10
p91
sg17
V14
p92
sg19
V15
p93
sbag1
(g2
g3
Ntp94
Rp95
(dp96
g7
V058
p97
sg9
VGrowlithe
p98
sg11
VSh,
p99
sg13
VGrass
p100
sg15
V10
p101
sg17
V14
p102
sg19
V15
p103
sbag1
(g2
g3
Ntp104
Rp105
(dp106
g7
V236
p107
sg9
VTyrogue
p108
sg11
VSw,Sh,
p109
sg13
VGrass
p110
sg15
V10
p111
sg17
V14
p112
sg19
V2
p113
sbag1
(g2
g3
Ntp114
Rp115
(dp116
g7
V263
p117
sg9
VZigzagoon
p118
sg11
VSw,Sh,
p119
sg13
VGrass
p120
sg15
V10
p121
sg17
V14
p122
sg19
V38
p123
sbag1
(g2
g3
Ntp124
Rp125
(dp126
g7
V434
p127
sg9
VStunky
p128
sg11
VSw,Sh,
p129
sg13
VGrass
p130
sg15
V10
p131
sg17
V14
p132
sg19
V10
p133
sbag1
(g2
g3
Ntp134
Rp135
(dp136
g7
V568
p137
sg9
VTrubbish
p138
sg11
VSw,Sh,
p139
sg13
VGrass
p140
sg15
V10
p141
sg17
V14
p142
sg19
V5
p143
sbag1
(g2
g3
Ntp144
Rp145
(dp146
g7
V829
p147
sg9
VGossifleur
p148
sg11
VSw,Sh,
p149
sg13
VGrass
p150
sg15
V10
p151
sg17
V14
p152
sg19
V30
p153
sbag1
(g2
g3
Ntp154
Rp155
(dp156
g7
V568
p157
sg9
VTrubbish
p158
sg11
VSw,Sh,
p159
sg13
VGrass
p160
sg15
V10
p161
sg17
V13
p162
sg19
V1
p163
sbag1
(g2
g3
Ntp164
Rp165
(dp166
g7
V837
p167
sg9
VRolycoly
p168
sg11
VSw,Sh,
p169
sg13
VGrass
p170
sg15
V10
p171
sg17
V13
p172
sg19
V99
p173
sbag1
(g2
g3
Ntp174
Rp175
(dp176
g7
V822
p177
sg9
VCorvisquire
p178
sg11
VSw,Sh,
p179
sg13
VWanderer
p180
sg15
V18
p181
sg17
g181
sg19
V0
p182
sba.