(lp0
ccopy_reg
_reconstructor
p1
(c__main__
WildPokemon
p2
c__builtin__
object
p3
Ntp4
Rp5
(dp6
VpDexNo
p7
V010
p8
sVpSpecies
p9
VCaterpie
p10
sVpGames
p11
VSw,Sh,
p12
sVpArea
p13
VGrass
p14
sVpMinLevel
p15
V2
p16
sVpMaxLevel
p17
V5
p18
sVpRate
p19
V15
p20
sbag1
(g2
g3
Ntp21
Rp22
(dp23
g7
V163
p24
sg9
VHoothoot
p25
sg11
VSw,Sh,
p26
sg13
VGrass
p27
sg15
g16
sg17
g18
sg19
V5
p28
sbag1
(g2
g3
Ntp29
Rp30
(dp31
g7
V736
p32
sg9
VGrubbin
p33
sg11
VSw,Sh,
p34
sg13
VGrass
p35
sg15
g16
sg17
g18
sg19
V10
p36
sbag1
(g2
g3
Ntp37
Rp38
(dp39
g7
V819
p40
sg9
VSkwovet
p41
sg11
VSw,Sh,
p42
sg13
VGrass
p43
sg15
g16
sg17
g18
sg19
V40
p44
sbag1
(g2
g3
Ntp45
Rp46
(dp47
g7
V824
p48
sg9
VBlipbug
p49
sg11
VSw,Sh,
p50
sg13
VGrass
p51
sg15
g16
sg17
g18
sg19
V30
p52
sbag1
(g2
g3
Ntp53
Rp54
(dp55
g7
V819
p56
sg9
VSkwovet
p57
sg11
VSw,Sh,
p58
sg13
VGrass
p59
sg15
V3
p60
sg17
V6
p61
sg19
V50
p62
sbag1
(g2
g3
Ntp63
Rp64
(dp65
g7
V821
p66
sg9
VRookidee
p67
sg11
VSw,Sh,
p68
sg13
VGrass
p69
sg15
g60
sg17
g61
sg19
V30
p70
sbag1
(g2
g3
Ntp71
Rp72
(dp73
g7
V827
p74
sg9
VNickit
p75
sg11
VSw,Sh,
p76
sg13
VGrass
p77
sg15
g60
sg17
g61
sg19
V5
p78
sbag1
(g2
g3
Ntp79
Rp80
(dp81
g7
V831
p82
sg9
VWooloo
p83
sg11
VSw,Sh,
p84
sg13
VGrass
p85
sg15
g60
sg17
g61
sg19
V15
p86
sba.