(lp0
ccopy_reg
_reconstructor
p1
(c__main__
WildPokemon
p2
c__builtin__
object
p3
Ntp4
Rp5
(dp6
VpDexNo
p7
V271
p8
sVpSpecies
p9
VLombre
p10
sVpGames
p11
VSh,
p12
sVpArea
p13
VGrass
p14
sVpMinLevel
p15
V16
p16
sVpMaxLevel
p17
V18
p18
sVpRate
p19
V20
p20
sbag1
(g2
g3
Ntp21
Rp22
(dp23
g7
V274
p24
sg9
VNuzleaf
p25
sg11
VSw,
p26
sg13
VGrass
p27
sg15
V16
p28
sg17
V18
p29
sg19
V20
p30
sbag1
(g2
g3
Ntp31
Rp32
(dp33
g7
V290
p34
sg9
VNincada
p35
sg11
VSw,Sh,
p36
sg13
VGrass
p37
sg15
V16
p38
sg17
V18
p39
sg19
V5
p40
sbag1
(g2
g3
Ntp41
Rp42
(dp43
g7
V677
p44
sg9
VEspurr
p45
sg11
VSw,Sh,
p46
sg13
VGrass
p47
sg15
V16
p48
sg17
V18
p49
sg19
V20
p50
sbag1
(g2
g3
Ntp51
Rp52
(dp53
g7
V682
p54
sg9
VSpritzee
p55
sg11
g12
sg13
VGrass
p56
sg15
V16
p57
sg17
V18
p58
sg19
V14
p59
sbag1
(g2
g3
Ntp60
Rp61
(dp62
g7
V684
p63
sg9
VSwirlix
p64
sg11
g26
sg13
VGrass
p65
sg15
V16
p66
sg17
V18
p67
sg19
V14
p68
sbag1
(g2
g3
Ntp69
Rp70
(dp71
g7
V751
p72
sg9
VDewpider
p73
sg11
VSw,Sh,
p74
sg13
VGrass
p75
sg15
V16
p76
sg17
V18
p77
sg19
V5
p78
sbag1
(g2
g3
Ntp79
Rp80
(dp81
g7
V825
p82
sg9
VDottler
p83
sg11
VSw,Sh,
p84
sg13
VGrass
p85
sg15
V16
p86
sg17
V18
p87
sg19
V26
p88
sbag1
(g2
g3
Ntp89
Rp90
(dp91
g7
V840
p92
sg9
VApplin
p93
sg11
VSw,Sh,
p94
sg13
VGrass
p95
sg15
V16
p96
sg17
V18
p97
sg19
V10
p98
sbag1
(g2
g3
Ntp99
Rp100
(dp101
g7
V819
p102
sg9
VSkwovet
p103
sg11
VSw,Sh,
p104
sg13
VBerry tree
p105
sg15
V16
p106
sg17
V18
p107
sg19
V100
p108
sbag1
(g2
g3
Ntp109
Rp110
(dp111
g7
V118
p112
sg9
VGoldeen
p113
sg11
VSw,Sh,
p114
sg13
VFishing
p115
sg15
V16
p116
sg17
V18
p117
sg19
V10
p118
sbag1
(g2
g3
Ntp119
Rp120
(dp121
g7
V129
p122
sg9
VMagikarp
p123
sg11
VSw,Sh,
p124
sg13
VFishing
p125
sg15
V16
p126
sg17
V18
p127
sg19
V70
p128
sbag1
(g2
g3
Ntp129
Rp130
(dp131
g7
V833
p132
sg9
VChewtle
p133
sg11
VSw,Sh,
p134
sg13
VFishing
p135
sg15
V16
p136
sg17
V18
p137
sg19
V20
p138
sbag1
(g2
g3
Ntp139
Rp140
(dp141
g7
V083
p142
sg9
VFarfetch'd
p143
sg11
g26
sg13
VGrass
p144
sg15
V19
p145
sg17
V21
p146
sg19
V5
p147
sbag1
(g2
g3
Ntp148
Rp149
(dp150
g7
V202
p151
sg9
VWobbuffet
p152
sg11
VSw,Sh,
p153
sg13
VGrass
p154
sg15
V19
p155
sg17
V21
p156
sg19
V10
p157
sbag1
(g2
g3
Ntp158
Rp159
(dp160
g7
V425
p161
sg9
VDrifloon
p162
sg11
VSw,Sh,
p163
sg13
VGrass
p164
sg15
V19
p165
sg17
V21
p166
sg19
V5
p167
sbag1
(g2
g3
Ntp168
Rp169
(dp170
g7
V572
p171
sg9
VMinccino
p172
sg11
g26
sg13
VGrass
p173
sg15
V19
p174
sg17
V21
p175
sg19
V15
p176
sbag1
(g2
g3
Ntp177
Rp178
(dp179
g7
V572
p180
sg9
VMinccino
p181
sg11
g12
sg13
VGrass
p182
sg15
V19
p183
sg17
V21
p184
sg19
V20
p185
sbag1
(g2
g3
Ntp186
Rp187
(dp188
g7
V682
p189
sg9
VSpritzee
p190
sg11
g12
sg13
VGrass
p191
sg15
V19
p192
sg17
V21
p193
sg19
V30
p194
sbag1
(g2
g3
Ntp195
Rp196
(dp197
g7
V684
p198
sg9
VSwirlix
p199
sg11
g26
sg13
VGrass
p200
sg15
V19
p201
sg17
V21
p202
sg19
V30
p203
sbag1
(g2
g3
Ntp204
Rp205
(dp206
g7
V759
p207
sg9
VStufful
p208
sg11
VSw,Sh,
p209
sg13
VGrass
p210
sg15
V19
p211
sg17
V21
p212
sg19
V35
p213
sbag1
(g2
g3
Ntp214
Rp215
(dp216
g7
V830
p217
sg9
VEldegoss
p218
sg11
VSw,Sh,
p219
sg13
VWanderer
p220
sg15
V22
p221
sg17
g221
sg19
V0
p222
sbag1
(g2
g3
Ntp223
Rp224
(dp225
g7
V848
p226
sg9
VToxel
p227
sg11
VSw,Sh,
p228
sg13
VGift
p229
sg15
V1
p230
sg17
g230
sg19
V0
p231
sba.