(lp0
ccopy_reg
_reconstructor
p1
(c__main__
WildPokemon
p2
c__builtin__
object
p3
Ntp4
Rp5
(dp6
VpDexNo
p7
V510
p8
sVpSpecies
p9
VLiepard
p10
sVpGames
p11
VSw,Sh,
p12
sVpArea
p13
VGrass
p14
sVpMinLevel
p15
V28
p16
sVpMaxLevel
p17
V40
p18
sVpRate
p19
V0
p20
sbag1
(g2
g3
Ntp21
Rp22
(dp23
g7
V510
p24
sg9
VLiepard
p25
sg11
VSw,Sh,
p26
sg13
VGrass
p27
sg15
V36
p28
sg17
V40
p29
sg19
g20
sbag1
(g2
g3
Ntp30
Rp31
(dp32
g7
V537
p33
sg9
VSeismitoad
p34
sg11
VSw,Sh,
p35
sg13
VGrass
p36
sg15
V28
p37
sg17
V40
p38
sg19
g20
sbag1
(g2
g3
Ntp39
Rp40
(dp41
g7
V537
p42
sg9
VSeismitoad
p43
sg11
VSw,Sh,
p44
sg13
VGrass
p45
sg15
V36
p46
sg17
V40
p47
sg19
g20
sbag1
(g2
g3
Ntp48
Rp49
(dp50
g7
V588
p51
sg9
VKarrablast
p52
sg11
VSw,
p53
sg13
VGrass
p54
sg15
V28
p55
sg17
V40
p56
sg19
g20
sbag1
(g2
g3
Ntp57
Rp58
(dp59
g7
V588
p60
sg9
VKarrablast
p61
sg11
VSh,
p62
sg13
VGrass
p63
sg15
V28
p64
sg17
V40
p65
sg19
g20
sbag1
(g2
g3
Ntp66
Rp67
(dp68
g7
V588
p69
sg9
VKarrablast
p70
sg11
g53
sg13
VGrass
p71
sg15
V36
p72
sg17
V40
p73
sg19
g20
sbag1
(g2
g3
Ntp74
Rp75
(dp76
g7
V588
p77
sg9
VKarrablast
p78
sg11
g62
sg13
VGrass
p79
sg15
V36
p80
sg17
V40
p81
sg19
g20
sbag1
(g2
g3
Ntp82
Rp83
(dp84
g7
V616
p85
sg9
VShelmet
p86
sg11
g53
sg13
VGrass
p87
sg15
V28
p88
sg17
V40
p89
sg19
g20
sbag1
(g2
g3
Ntp90
Rp91
(dp92
g7
V616
p93
sg9
VShelmet
p94
sg11
g62
sg13
VGrass
p95
sg15
V28
p96
sg17
V40
p97
sg19
g20
sbag1
(g2
g3
Ntp98
Rp99
(dp100
g7
V616
p101
sg9
VShelmet
p102
sg11
g53
sg13
VGrass
p103
sg15
V36
p104
sg17
V40
p105
sg19
g20
sbag1
(g2
g3
Ntp106
Rp107
(dp108
g7
V616
p109
sg9
VShelmet
p110
sg11
g62
sg13
VGrass
p111
sg15
V36
p112
sg17
V40
p113
sg19
g20
sbag1
(g2
g3
Ntp114
Rp115
(dp116
g7
V678
p117
sg9
VMeowstic
p118
sg11
g53
sg13
VGrass
p119
sg15
V28
p120
sg17
V40
p121
sg19
g20
sbag1
(g2
g3
Ntp122
Rp123
(dp124
g7
V678
p125
sg9
VMeowstic
p126
sg11
g53
sg13
VGrass
p127
sg15
V36
p128
sg17
V40
p129
sg19
g20
sbag1
(g2
g3
Ntp130
Rp131
(dp132
g7
V678
p133
sg9
VMeowstic
p134
sg11
g62
sg13
VGrass
p135
sg15
V28
p136
sg17
V40
p137
sg19
g20
sbag1
(g2
g3
Ntp138
Rp139
(dp140
g7
V678
p141
sg9
VMeowstic
p142
sg11
g62
sg13
VGrass
p143
sg15
V36
p144
sg17
V40
p145
sg19
g20
sbag1
(g2
g3
Ntp146
Rp147
(dp148
g7
V823
p149
sg9
VCorviknight
p150
sg11
VSw,Sh,
p151
sg13
VGrass
p152
sg15
V28
p153
sg17
V40
p154
sg19
g20
sbag1
(g2
g3
Ntp155
Rp156
(dp157
g7
V823
p158
sg9
VCorviknight
p159
sg11
VSw,Sh,
p160
sg13
VGrass
p161
sg15
V36
p162
sg17
V40
p163
sg19
g20
sbag1
(g2
g3
Ntp164
Rp165
(dp166
g7
V848
p167
sg9
VToxel
p168
sg11
VSw,Sh,
p169
sg13
VGrass
p170
sg15
V28
p171
sg17
V40
p172
sg19
g20
sbag1
(g2
g3
Ntp173
Rp174
(dp175
g7
V848
p176
sg9
VToxel
p177
sg11
VSw,Sh,
p178
sg13
VGrass
p179
sg15
V36
p180
sg17
V40
p181
sg19
g20
sbag1
(g2
g3
Ntp182
Rp183
(dp184
g7
V820
p185
sg9
VGreedent
p186
sg11
VSw,Sh,
p187
sg13
VBerry tree
p188
sg15
V36
p189
sg17
V40
p190
sg19
V100
p191
sbag1
(g2
g3
Ntp192
Rp193
(dp194
g7
V510
p195
sg9
VLiepard
p196
sg11
VSw,Sh,
p197
sg13
VGrass
p198
sg15
V37
p199
sg17
V41
p200
sg19
V15
p201
sbag1
(g2
g3
Ntp202
Rp203
(dp204
g7
V596
p205
sg9
VGalvantula
p206
sg11
VSw,Sh,
p207
sg13
VGrass
p208
sg15
V37
p209
sg17
V41
p210
sg19
V20
p211
sbag1
(g2
g3
Ntp212
Rp213
(dp214
g7
V686
p215
sg9
VInkay
p216
sg11
VSw,Sh,
p217
sg13
VGrass
p218
sg15
V37
p219
sg17
V41
p220
sg19
V10
p221
sbag1
(g2
g3
Ntp222
Rp223
(dp224
g7
V828
p225
sg9
VThievul
p226
sg11
VSw,Sh,
p227
sg13
VGrass
p228
sg15
V37
p229
sg17
V41
p230
sg19
V20
p231
sbag1
(g2
g3
Ntp232
Rp233
(dp234
g7
V863
p235
sg9
VPerrserker
p236
sg11
VSw,Sh,
p237
sg13
VGrass
p238
sg15
V37
p239
sg17
V41
p240
sg19
V30
p241
sbag1
(g2
g3
Ntp242
Rp243
(dp244
g7
V877
p245
sg9
VMorpeko
p246
sg11
VSw,Sh,
p247
sg13
VGrass
p248
sg15
V37
p249
sg17
V41
p250
sg19
V5
p251
sba.