(lp0
ccopy_reg
_reconstructor
p1
(c__main__
WildPokemon
p2
c__builtin__
object
p3
Ntp4
Rp5
(dp6
VpDexNo
p7
V099
p8
sVpSpecies
p9
VKingler
p10
sVpGames
p11
VSw,Sh,
p12
sVpArea
p13
VGrass
p14
sVpMinLevel
p15
V38
p16
sVpMaxLevel
p17
V42
p18
sVpRate
p19
V25
p20
sbag1
(g2
g3
Ntp21
Rp22
(dp23
g7
V224
p24
sg9
VOctillery
p25
sg11
VSw,Sh,
p26
sg13
VGrass
p27
sg15
V38
p28
sg17
V42
p29
sg19
V30
p30
sbag1
(g2
g3
Ntp31
Rp32
(dp33
g7
V845
p34
sg9
VCramorant
p35
sg11
VSw,Sh,
p36
sg13
VGrass
p37
sg15
V38
p38
sg17
V42
p39
sg19
V40
p40
sbag1
(g2
g3
Ntp41
Rp42
(dp43
g7
V871
p44
sg9
VPincurchin
p45
sg11
VSw,Sh,
p46
sg13
VGrass
p47
sg15
V38
p48
sg17
V42
p49
sg19
V5
p50
sbag1
(g2
g3
Ntp51
Rp52
(dp53
g7
V224
p54
sg9
VOctillery
p55
sg11
VSw,Sh,
p56
sg13
VFishing
p57
sg15
V38
p58
sg17
V42
p59
sg19
V60
p60
sbag1
(g2
g3
Ntp61
Rp62
(dp63
g7
V746
p64
sg9
VWishiwashi
p65
sg11
VSw,Sh,
p66
sg13
VFishing
p67
sg15
V38
p68
sg17
V42
p69
sg19
V30
p70
sbag1
(g2
g3
Ntp71
Rp72
(dp73
g7
V771
p74
sg9
VPyukumuku
p75
sg11
VSw,Sh,
p76
sg13
VFishing
p77
sg15
V38
p78
sg17
V42
p79
sg19
V10
p80
sbag1
(g2
g3
Ntp81
Rp82
(dp83
g7
V279
p84
sg9
VPelipper
p85
sg11
VSw,Sh,
p86
sg13
VGrass
p87
sg15
V41
p88
sg17
V44
p89
sg19
V40
p90
sbag1
(g2
g3
Ntp91
Rp92
(dp93
g7
V423
p94
sg9
VGastrodon
p95
sg11
VSw,Sh,
p96
sg13
VGrass
p97
sg15
V41
p98
sg17
V44
p99
sg19
V15
p100
sbag1
(g2
g3
Ntp101
Rp102
(dp103
g7
V593
p104
sg9
VJellicent
p105
sg11
VSw,
p106
sg13
VGrass
p107
sg15
V41
p108
sg17
V44
p109
sg19
V5
p110
sbag1
(g2
g3
Ntp111
Rp112
(dp113
g7
V593
p114
sg9
VJellicent
p115
sg11
VSh,
p116
sg13
VGrass
p117
sg15
V41
p118
sg17
V44
p119
sg19
V35
p120
sbag1
(g2
g3
Ntp121
Rp122
(dp123
g7
V747
p124
sg9
VMareanie
p125
sg11
g106
sg13
VGrass
p126
sg15
V41
p127
sg17
V44
p128
sg19
V35
p129
sbag1
(g2
g3
Ntp130
Rp131
(dp132
g7
V747
p133
sg9
VMareanie
p134
sg11
g116
sg13
VGrass
p135
sg15
V41
p136
sg17
V44
p137
sg19
V5
p138
sbag1
(g2
g3
Ntp139
Rp140
(dp141
g7
V771
p142
sg9
VPyukumuku
p143
sg11
VSw,Sh,
p144
sg13
VGrass
p145
sg15
V41
p146
sg17
V44
p147
sg19
V5
p148
sbag1
(g2
g3
Ntp149
Rp150
(dp151
g7
V211
p152
sg9
VQwilfish
p153
sg11
VSw,Sh,
p154
sg13
VSurf
p155
sg15
V39
p156
sg17
V43
p157
sg19
V30
p158
sbag1
(g2
g3
Ntp159
Rp160
(dp161
g7
V279
p162
sg9
VPelipper
p163
sg11
VSw,Sh,
p164
sg13
VSurf
p165
sg15
V39
p166
sg17
V43
p167
sg19
V40
p168
sbag1
(g2
g3
Ntp169
Rp170
(dp171
g7
V458
p172
sg9
VMantyke
p173
sg11
VSw,Sh,
p174
sg13
VSurf
p175
sg15
V39
p176
sg17
V43
p177
sg19
V25
p178
sbag1
(g2
g3
Ntp179
Rp180
(dp181
g7
V593
p182
sg9
VJellicent
p183
sg11
VSw,Sh,
p184
sg13
VSurf
p185
sg15
V39
p186
sg17
V43
p187
sg19
V5
p188
sbag1
(g2
g3
Ntp189
Rp190
(dp191
g7
V362
p192
sg9
VGlalie
p193
sg11
VSw,Sh,
p194
sg13
VWanderer
p195
sg15
V55
p196
sg17
g196
sg19
V0
p197
sbag1
(g2
g3
Ntp198
Rp199
(dp200
g7
V423
p201
sg9
VGastrodon
p202
sg11
VSw,Sh,
p203
sg13
VGrass
p204
sg15
V39
p205
sg17
V43
p206
sg19
V30
p207
sbag1
(g2
g3
Ntp208
Rp209
(dp210
g7
V686
p211
sg9
VInkay
p212
sg11
VSw,Sh,
p213
sg13
VGrass
p214
sg15
V39
p215
sg17
V43
p216
sg19
V25
p217
sbag1
(g2
g3
Ntp218
Rp219
(dp220
g7
V845
p221
sg9
VCramorant
p222
sg11
VSw,Sh,
p223
sg13
VGrass
p224
sg15
V39
p225
sg17
V43
p226
sg19
V40
p227
sbag1
(g2
g3
Ntp228
Rp229
(dp230
g7
V871
p231
sg9
VPincurchin
p232
sg11
VSw,Sh,
p233
sg13
VGrass
p234
sg15
V39
p235
sg17
V43
p236
sg19
V5
p237
sbag1
(g2
g3
Ntp238
Rp239
(dp240
g7
V820
p241
sg9
VGreedent
p242
sg11
VSw,Sh,
p243
sg13
VBerry tree
p244
sg15
V39
p245
sg17
V43
p246
sg19
V100
p247
sbag1
(g2
g3
Ntp248
Rp249
(dp250
g7
V131
p251
sg9
VLapras
p252
sg11
VSw,Sh,
p253
sg13
VFishing
p254
sg15
V39
p255
sg17
V43
p256
sg19
V1
p257
sbag1
(g2
g3
Ntp258
Rp259
(dp260
g7
V226
p261
sg9
VMantine
p262
sg11
VSw,Sh,
p263
sg13
VFishing
p264
sg15
V39
p265
sg17
V43
p266
sg19
V10
p267
sbag1
(g2
g3
Ntp268
Rp269
(dp270
g7
V320
p271
sg9
VWailmer
p272
sg11
VSw,Sh,
p273
sg13
VFishing
p274
sg15
V39
p275
sg17
V43
p276
sg19
V34
p277
sbag1
(g2
g3
Ntp278
Rp279
(dp280
g7
V321
p281
sg9
VWailord
p282
sg11
VSw,Sh,
p283
sg13
VFishing
p284
sg15
V39
p285
sg17
V43
p286
sg19
V5
p287
sbag1
(g2
g3
Ntp288
Rp289
(dp290
g7
V458
p291
sg9
VMantyke
p292
sg11
VSw,Sh,
p293
sg13
VFishing
p294
sg15
V39
p295
sg17
V43
p296
sg19
V50
p297
sbag1
(g2
g3
Ntp298
Rp299
(dp300
g7
V224
p301
sg9
VOctillery
p302
sg11
VSw,Sh,
p303
sg13
VGrass
p304
sg15
V39
p305
sg17
V43
p306
sg19
V24
p307
sbag1
(g2
g3
Ntp308
Rp309
(dp310
g7
V689
p311
sg9
VBarbaracle
p312
sg11
g106
sg13
VGrass
p313
sg15
V39
p314
sg17
V43
p315
sg19
V10
p316
sbag1
(g2
g3
Ntp317
Rp318
(dp319
g7
V689
p320
sg9
VBarbaracle
p321
sg11
g116
sg13
VGrass
p322
sg15
V39
p323
sg17
V43
p324
sg19
V20
p325
sbag1
(g2
g3
Ntp326
Rp327
(dp328
g7
V712
p329
sg9
VBergmite
p330
sg11
g106
sg13
VGrass
p331
sg15
V39
p332
sg17
V43
p333
sg19
V15
p334
sbag1
(g2
g3
Ntp335
Rp336
(dp337
g7
V712
p338
sg9
VBergmite
p339
sg11
g116
sg13
VGrass
p340
sg15
V39
p341
sg17
V43
p342
sg19
V20
p343
sbag1
(g2
g3
Ntp344
Rp345
(dp346
g7
V748
p347
sg9
VToxapex
p348
sg11
g106
sg13
VGrass
p349
sg15
V39
p350
sg17
V43
p351
sg19
V20
p352
sbag1
(g2
g3
Ntp353
Rp354
(dp355
g7
V748
p356
sg9
VToxapex
p357
sg11
g116
sg13
VGrass
p358
sg15
V39
p359
sg17
V43
p360
sg19
V5
p361
sbag1
(g2
g3
Ntp362
Rp363
(dp364
g7
V781
p365
sg9
VDhelmise
p366
sg11
VSw,Sh,
p367
sg13
VGrass
p368
sg15
V39
p369
sg17
V43
p370
sg19
V1
p371
sbag1
(g2
g3
Ntp372
Rp373
(dp374
g7
V852
p375
sg9
VClobbopus
p376
sg11
VSw,Sh,
p377
sg13
VGrass
p378
sg15
V39
p379
sg17
V43
p380
sg19
V30
p381
sbag1
(g2
g3
Ntp382
Rp383
(dp384
g7
V223
p385
sg9
VRemoraid
p386
sg11
VSw,Sh,
p387
sg13
VSurf
p388
sg15
V39
p389
sg17
V43
p390
sg19
V15
p391
sbag1
(g2
g3
Ntp392
Rp393
(dp394
g7
V226
p395
sg9
VMantine
p396
sg11
VSw,Sh,
p397
sg13
VSurf
p398
sg15
V39
p399
sg17
V43
p400
sg19
V10
p401
sbag1
(g2
g3
Ntp402
Rp403
(dp404
g7
V320
p405
sg9
VWailmer
p406
sg11
VSw,Sh,
p407
sg13
VSurf
p408
sg15
V39
p409
sg17
V43
p410
sg19
V40
p411
sbag1
(g2
g3
Ntp412
Rp413
(dp414
g7
V458
p415
sg9
VMantyke
p416
sg11
VSw,Sh,
p417
sg13
VSurf
p418
sg15
V39
p419
sg17
V43
p420
sg19
V35
p421
sbag1
(g2
g3
Ntp422
Rp423
(dp424
g7
V853
p425
sg9
VGrapploct
p426
sg11
VSw,Sh,
p427
sg13
VWanderer
p428
sg15
V50
p429
sg17
g429
sg19
V0
p430
sbag1
(g2
g3
Ntp431
Rp432
(dp433
g7
V510
p434
sg9
VLiepard
p435
sg11
VSw,Sh,
p436
sg13
VGrass
p437
sg15
V40
p438
sg17
V44
p439
sg19
V25
p440
sbag1
(g2
g3
Ntp441
Rp442
(dp443
g7
V828
p444
sg9
VThievul
p445
sg11
VSw,Sh,
p446
sg13
VGrass
p447
sg15
V40
p448
sg17
V44
p449
sg19
V30
p450
sbag1
(g2
g3
Ntp451
Rp452
(dp453
g7
V863
p454
sg9
VPerrserker
p455
sg11
VSw,Sh,
p456
sg13
VGrass
p457
sg15
V40
p458
sg17
V44
p459
sg19
V40
p460
sbag1
(g2
g3
Ntp461
Rp462
(dp463
g7
V877
p464
sg9
VMorpeko
p465
sg11
VSw,Sh,
p466
sg13
VGrass
p467
sg15
V40
p468
sg17
V44
p469
sg19
V5
p470
sbag1
(g2
g3
Ntp471
Rp472
(dp473
g7
V820
p474
sg9
VGreedent
p475
sg11
VSw,Sh,
p476
sg13
VBerry tree
p477
sg15
V40
p478
sg17
V44
p479
sg19
V100
p480
sbag1
(g2
g3
Ntp481
Rp482
(dp483
g7
V593
p484
sg9
VJellicent
p485
sg11
VSw,Sh,
p486
sg13
VGrass
p487
sg15
V40
p488
sg17
V44
p489
sg19
V0
p490
sbag1
(g2
g3
Ntp491
Rp492
(dp493
g7
V712
p494
sg9
VBergmite
p495
sg11
VSw,Sh,
p496
sg13
VGrass
p497
sg15
V40
p498
sg17
V44
p499
sg19
V40
p500
sbag1
(g2
g3
Ntp501
Rp502
(dp503
g7
V747
p504
sg9
VMareanie
p505
sg11
VSw,Sh,
p506
sg13
VGrass
p507
sg15
V40
p508
sg17
V44
p509
sg19
V24
p510
sbag1
(g2
g3
Ntp511
Rp512
(dp513
g7
V748
p514
sg9
VToxapex
p515
sg11
VSw,Sh,
p516
sg13
VGrass
p517
sg15
V40
p518
sg17
V44
p519
sg19
g490
sbag1
(g2
g3
Ntp520
Rp521
(dp522
g7
V781
p523
sg9
VDhelmise
p524
sg11
VSw,Sh,
p525
sg13
VGrass
p526
sg15
V40
p527
sg17
V44
p528
sg19
V1
p529
sbag1
(g2
g3
Ntp530
Rp531
(dp532
g7
V852
p533
sg9
VClobbopus
p534
sg11
VSw,Sh,
p535
sg13
VGrass
p536
sg15
V40
p537
sg17
V44
p538
sg19
V30
p539
sba.