(lp0
ccopy_reg
_reconstructor
p1
(c__main__
WildPokemon
p2
c__builtin__
object
p3
Ntp4
Rp5
(dp6
VpDexNo
p7
V052
p8
sVpSpecies
p9
VMeowth
p10
sVpGames
p11
VSw,Sh,
p12
sVpArea
p13
VGrass
p14
sVpMinLevel
p15
V13
p16
sVpMaxLevel
p17
V15
p18
sVpRate
p19
V35
p20
sbag1
(g2
g3
Ntp21
Rp22
(dp23
g7
V406
p24
sg9
VBudew
p25
sg11
VSw,Sh,
p26
sg13
VGrass
p27
sg15
V13
p28
sg17
V15
p29
sg19
V4
p30
sbag1
(g2
g3
Ntp31
Rp32
(dp33
g7
V595
p34
sg9
VJoltik
p35
sg11
VSw,Sh,
p36
sg13
VGrass
p37
sg15
V13
p38
sg17
V15
p39
sg19
V10
p40
sbag1
(g2
g3
Ntp41
Rp42
(dp43
g7
V597
p44
sg9
VFerroseed
p45
sg11
VSw,Sh,
p46
sg13
VGrass
p47
sg15
V13
p48
sg17
V15
p49
sg19
V1
p50
sbag1
(g2
g3
Ntp51
Rp52
(dp53
g7
V742
p54
sg9
VCutiefly
p55
sg11
VSw,Sh,
p56
sg13
VGrass
p57
sg15
V13
p58
sg17
V15
p59
sg19
V5
p60
sbag1
(g2
g3
Ntp61
Rp62
(dp63
g7
V831
p64
sg9
VWooloo
p65
sg11
VSw,Sh,
p66
sg13
VGrass
p67
sg15
V13
p68
sg17
V15
p69
sg19
V25
p70
sbag1
(g2
g3
Ntp71
Rp72
(dp73
g7
V868
p74
sg9
VMilcery
p75
sg11
VSw,Sh,
p76
sg13
VGrass
p77
sg15
V13
p78
sg17
V15
p79
sg19
V20
p80
sbag1
(g2
g3
Ntp81
Rp82
(dp83
g7
V819
p84
sg9
VSkwovet
p85
sg11
VSw,Sh,
p86
sg13
VBerry tree
p87
sg15
V13
p88
sg17
V15
p89
sg19
V100
p90
sbag1
(g2
g3
Ntp91
Rp92
(dp93
g7
V118
p94
sg9
VGoldeen
p95
sg11
VSw,Sh,
p96
sg13
VFishing
p97
sg15
V13
p98
sg17
V15
p99
sg19
V10
p100
sbag1
(g2
g3
Ntp101
Rp102
(dp103
g7
V129
p104
sg9
VMagikarp
p105
sg11
VSw,Sh,
p106
sg13
VFishing
p107
sg15
V13
p108
sg17
V15
p109
sg19
V70
p110
sbag1
(g2
g3
Ntp111
Rp112
(dp113
g7
V833
p114
sg9
VChewtle
p115
sg11
VSw,Sh,
p116
sg13
VFishing
p117
sg15
V13
p118
sg17
V15
p119
sg19
V20
p120
sbag1
(g2
g3
Ntp121
Rp122
(dp123
g7
V025
p124
sg9
VPikachu
p125
sg11
VSw,
p126
sg13
VGrass
p127
sg15
V14
p128
sg17
V16
p129
sg19
V5
p130
sbag1
(g2
g3
Ntp131
Rp132
(dp133
g7
V025
p134
sg9
VPikachu
p135
sg11
VSh,
p136
sg13
VGrass
p137
sg15
V14
p138
sg17
V16
p139
sg19
V1
p140
sbag1
(g2
g3
Ntp141
Rp142
(dp143
g7
V052
p144
sg9
VMeowth
p145
sg11
VSw,Sh,
p146
sg13
VGrass
p147
sg15
V14
p148
sg17
V16
p149
sg19
V23
p150
sbag1
(g2
g3
Ntp151
Rp152
(dp153
g7
V133
p154
sg9
VEevee
p155
sg11
g126
sg13
VGrass
p156
sg15
V14
p157
sg17
V16
p158
sg19
V1
p159
sbag1
(g2
g3
Ntp160
Rp161
(dp162
g7
V133
p163
sg9
VEevee
p164
sg11
g136
sg13
VGrass
p165
sg15
V14
p166
sg17
V16
p167
sg19
V5
p168
sbag1
(g2
g3
Ntp169
Rp170
(dp171
g7
V309
p172
sg9
VElectrike
p173
sg11
VSw,Sh,
p174
sg13
VGrass
p175
sg15
V14
p176
sg17
V16
p177
sg19
V30
p178
sbag1
(g2
g3
Ntp179
Rp180
(dp181
g7
V710
p182
sg9
VPumpkaboo
p183
sg11
VSw,Sh,
p184
sg13
VGrass
p185
sg15
V14
p186
sg17
V16
p187
sg19
V10
p188
sbag1
(g2
g3
Ntp189
Rp190
(dp191
g7
V710
p192
sg9
VPumpkaboo
p193
sg11
VSw,Sh,
p194
sg13
VGrass
p195
sg15
V14
p196
sg17
V16
p197
sg19
V5
p198
sbag1
(g2
g3
Ntp199
Rp200
(dp201
g7
V710
p202
sg9
VPumpkaboo
p203
sg11
VSw,Sh,
p204
sg13
VGrass
p205
sg15
V14
p206
sg17
V16
p207
sg19
V5
p208
sbag1
(g2
g3
Ntp209
Rp210
(dp211
g7
V710
p212
sg9
VPumpkaboo
p213
sg11
VSw,Sh,
p214
sg13
VGrass
p215
sg15
V14
p216
sg17
V16
p217
sg19
V1
p218
sbag1
(g2
g3
Ntp219
Rp220
(dp221
g7
V835
p222
sg9
VYamper
p223
sg11
VSw,Sh,
p224
sg13
VGrass
p225
sg15
V14
p226
sg17
V16
p227
sg19
V20
p228
sbag1
(g2
g3
Ntp229
Rp230
(dp231
g7
V050
p232
sg9
VDiglett
p233
sg11
VSw,Sh,
p234
sg13
VWanderer
p235
sg15
V17
p236
sg17
g236
sg19
V0
p237
sba.