(lp0
ccopy_reg
_reconstructor
p1
(c__main__
WildPokemon
p2
c__builtin__
object
p3
Ntp4
Rp5
(dp6
VpDexNo
p7
V093
p8
sVpSpecies
p9
VHaunter
p10
sVpGames
p11
VSw,Sh,
p12
sVpArea
p13
VGrass
p14
sVpMinLevel
p15
V38
p16
sVpMaxLevel
p17
V40
p18
sVpRate
p19
V10
p20
sbag1
(g2
g3
Ntp21
Rp22
(dp23
g7
V111
p24
sg9
VRhyhorn
p25
sg11
VSw,Sh,
p26
sg13
VGrass
p27
sg15
V38
p28
sg17
V40
p29
sg19
V20
p30
sbag1
(g2
g3
Ntp31
Rp32
(dp33
g7
V356
p34
sg9
VDusclops
p35
sg11
VSw,Sh,
p36
sg13
VGrass
p37
sg15
V38
p38
sg17
V40
p39
sg19
V15
p40
sbag1
(g2
g3
Ntp41
Rp42
(dp43
g7
V437
p44
sg9
VBronzong
p45
sg11
VSw,Sh,
p46
sg13
VGrass
p47
sg15
V38
p48
sg17
V40
p49
sg19
V10
p50
sbag1
(g2
g3
Ntp51
Rp52
(dp53
g7
V450
p54
sg9
VHippowdon
p55
sg11
VSw,Sh,
p56
sg13
VGrass
p57
sg15
V38
p58
sg17
V40
p59
sg19
V8
p60
sbag1
(g2
g3
Ntp61
Rp62
(dp63
g7
V452
p64
sg9
VDrapion
p65
sg11
VSw,Sh,
p66
sg13
VGrass
p67
sg15
V38
p68
sg17
V40
p69
sg19
V5
p70
sbag1
(g2
g3
Ntp71
Rp72
(dp73
g7
V844
p74
sg9
VSandaconda
p75
sg11
VSw,Sh,
p76
sg13
VGrass
p77
sg15
V38
p78
sg17
V40
p79
sg19
V30
p80
sbag1
(g2
g3
Ntp81
Rp82
(dp83
g7
V870
p84
sg9
VFalinks
p85
sg11
VSw,Sh,
p86
sg13
VGrass
p87
sg15
V38
p88
sg17
V40
p89
sg19
V2
p90
sbag1
(g2
g3
Ntp91
Rp92
(dp93
g7
V337
p94
sg9
VLunatone
p95
sg11
VSh,
p96
sg13
VGrass
p97
sg15
V39
p98
sg17
V41
p99
sg19
V5
p100
sbag1
(g2
g3
Ntp101
Rp102
(dp103
g7
V338
p104
sg9
VSolrock
p105
sg11
VSw,
p106
sg13
VGrass
p107
sg15
V39
p108
sg17
V41
p109
sg19
V5
p110
sbag1
(g2
g3
Ntp111
Rp112
(dp113
g7
V525
p114
sg9
VBoldore
p115
sg11
g106
sg13
VGrass
p116
sg15
V39
p117
sg17
V41
p118
sg19
V10
p119
sbag1
(g2
g3
Ntp120
Rp121
(dp122
g7
V525
p123
sg9
VBoldore
p124
sg11
g96
sg13
VGrass
p125
sg15
V39
p126
sg17
V41
p127
sg19
V25
p128
sbag1
(g2
g3
Ntp129
Rp130
(dp131
g7
V533
p132
sg9
VGurdurr
p133
sg11
g106
sg13
VGrass
p134
sg15
V39
p135
sg17
V41
p136
sg19
V25
p137
sbag1
(g2
g3
Ntp138
Rp139
(dp140
g7
V533
p141
sg9
VGurdurr
p142
sg11
g96
sg13
VGrass
p143
sg15
V39
p144
sg17
V41
p145
sg19
V10
p146
sbag1
(g2
g3
Ntp147
Rp148
(dp149
g7
V622
p150
sg9
VGolett
p151
sg11
VSw,Sh,
p152
sg13
VGrass
p153
sg15
V39
p154
sg17
V41
p155
sg19
V25
p156
sbag1
(g2
g3
Ntp157
Rp158
(dp159
g7
V624
p160
sg9
VPawniard
p161
sg11
VSw,Sh,
p162
sg13
VGrass
p163
sg15
V39
p164
sg17
V41
p165
sg19
V20
p166
sbag1
(g2
g3
Ntp167
Rp168
(dp169
g7
V627
p170
sg9
VRufflet
p171
sg11
g106
sg13
VGrass
p172
sg15
V39
p173
sg17
V41
p174
sg19
V10
p175
sbag1
(g2
g3
Ntp176
Rp177
(dp178
g7
V629
p179
sg9
VVullaby
p180
sg11
g96
sg13
VGrass
p181
sg15
V39
p182
sg17
V41
p183
sg19
V10
p184
sbag1
(g2
g3
Ntp185
Rp186
(dp187
g7
V777
p188
sg9
VTogedemaru
p189
sg11
VSw,Sh,
p190
sg13
VGrass
p191
sg15
V39
p192
sg17
V41
p193
sg19
V5
p194
sbag1
(g2
g3
Ntp195
Rp196
(dp197
g7
V558
p198
sg9
VCrustle
p199
sg11
VSw,Sh,
p200
sg13
VWanderer
p201
sg15
V40
p202
sg17
g202
sg19
V0
p203
sbag1
(g2
g3
Ntp204
Rp205
(dp206
g7
V870
p207
sg9
VFalinks
p208
sg11
VSw,Sh,
p209
sg13
VWanderer
p210
sg15
V40
p211
sg17
g211
sg19
V0
p212
sbag1
(g2
g3
Ntp213
Rp214
(dp215
g7
V215
p216
sg9
VSneasel
p217
sg11
VSw,Sh,
p218
sg13
VGrass
p219
sg15
V38
p220
sg17
V41
p221
sg19
V25
p222
sbag1
(g2
g3
Ntp223
Rp224
(dp225
g7
V225
p226
sg9
VDelibird
p227
sg11
g106
sg13
VGrass
p228
sg15
V38
p229
sg17
V41
p230
sg19
V10
p231
sbag1
(g2
g3
Ntp232
Rp233
(dp234
g7
V225
p235
sg9
VDelibird
p236
sg11
g96
sg13
VGrass
p237
sg15
V38
p238
sg17
V41
p239
sg19
V15
p240
sbag1
(g2
g3
Ntp241
Rp242
(dp243
g7
V459
p244
sg9
VSnover
p245
sg11
VSw,Sh,
p246
sg13
VGrass
p247
sg15
V38
p248
sg17
V41
p249
sg19
V20
p250
sbag1
(g2
g3
Ntp251
Rp252
(dp253
g7
V554
p254
sg9
VDarumaka
p255
sg11
g106
sg13
VGrass
p256
sg15
V38
p257
sg17
V41
p258
sg19
V5
p259
sbag1
(g2
g3
Ntp260
Rp261
(dp262
g7
V872
p263
sg9
VSnom
p264
sg11
VSw,Sh,
p265
sg13
VGrass
p266
sg15
V38
p267
sg17
V41
p268
sg19
V40
p269
sbag1
(g2
g3
Ntp270
Rp271
(dp272
g7
V215
p273
sg9
VSneasel
p274
sg11
VSw,Sh,
p275
sg13
VGrass
p276
sg15
V39
p277
sg17
V43
p278
sg19
V20
p279
sbag1
(g2
g3
Ntp280
Rp281
(dp282
g7
V361
p283
sg9
VSnorunt
p284
sg11
VSw,Sh,
p285
sg13
VGrass
p286
sg15
V39
p287
sg17
V43
p288
sg19
V25
p289
sbag1
(g2
g3
Ntp290
Rp291
(dp292
g7
V538
p293
sg9
VThroh
p294
sg11
g96
sg13
VGrass
p295
sg15
V39
p296
sg17
V43
p297
sg19
V5
p298
sbag1
(g2
g3
Ntp299
Rp300
(dp301
g7
V539
p302
sg9
VSawk
p303
sg11
g106
sg13
VGrass
p304
sg15
V39
p305
sg17
V43
p306
sg19
V5
p307
sbag1
(g2
g3
Ntp308
Rp309
(dp310
g7
V583
p311
sg9
VVanillish
p312
sg11
VSw,Sh,
p313
sg13
VGrass
p314
sg15
V39
p315
sg17
V43
p316
sg19
V10
p317
sbag1
(g2
g3
Ntp318
Rp319
(dp320
g7
V872
p321
sg9
VSnom
p322
sg11
VSw,Sh,
p323
sg13
VGrass
p324
sg15
V39
p325
sg17
V43
p326
sg19
V40
p327
sba.