(lp0
ccopy_reg
_reconstructor
p1
(c__main__
WildPokemon
p2
c__builtin__
object
p3
Ntp4
Rp5
(dp6
VpDexNo
p7
V324
p8
sVpSpecies
p9
VTorkoal
p10
sVpGames
p11
VSw,Sh,
p12
sVpArea
p13
VGrass
p14
sVpMinLevel
p15
V28
p16
sVpMaxLevel
p17
V30
p18
sVpRate
p19
V5
p20
sbag1
(g2
g3
Ntp21
Rp22
(dp23
g7
V355
p24
sg9
VDuskull
p25
sg11
VSw,Sh,
p26
sg13
VGrass
p27
sg15
V28
p28
sg17
V30
p29
sg19
V18
p30
sbag1
(g2
g3
Ntp31
Rp32
(dp33
g7
V449
p34
sg9
VHippopotas
p35
sg11
VSw,Sh,
p36
sg13
VGrass
p37
sg15
V28
p38
sg17
V30
p39
sg19
V10
p40
sbag1
(g2
g3
Ntp41
Rp42
(dp43
g7
V451
p44
sg9
VSkorupi
p45
sg11
VSw,Sh,
p46
sg13
VGrass
p47
sg15
V28
p48
sg17
V30
p49
sg19
V10
p50
sbag1
(g2
g3
Ntp51
Rp52
(dp53
g7
V631
p54
sg9
VHeatmor
p55
sg11
VSw,
p56
sg13
VGrass
p57
sg15
V28
p58
sg17
V30
p59
sg19
V5
p60
sbag1
(g2
g3
Ntp61
Rp62
(dp63
g7
V631
p64
sg9
VHeatmor
p65
sg11
VSh,
p66
sg13
VGrass
p67
sg15
V28
p68
sg17
V30
p69
sg19
V20
p70
sbag1
(g2
g3
Ntp71
Rp72
(dp73
g7
V632
p74
sg9
VDurant
p75
sg11
g56
sg13
VGrass
p76
sg15
V28
p77
sg17
V30
p78
sg19
V20
p79
sbag1
(g2
g3
Ntp80
Rp81
(dp82
g7
V632
p83
sg9
VDurant
p84
sg11
g66
sg13
VGrass
p85
sg15
V28
p86
sg17
V30
p87
sg19
V5
p88
sbag1
(g2
g3
Ntp89
Rp90
(dp91
g7
V701
p92
sg9
VHawlucha
p93
sg11
VSw,Sh,
p94
sg13
VGrass
p95
sg15
V28
p96
sg17
V30
p97
sg19
V2
p98
sbag1
(g2
g3
Ntp99
Rp100
(dp101
g7
V843
p102
sg9
VSilicobra
p103
sg11
VSw,Sh,
p104
sg13
VGrass
p105
sg15
V28
p106
sg17
V30
p107
sg19
V30
p108
sbag1
(g2
g3
Ntp109
Rp110
(dp111
g7
V820
p112
sg9
VGreedent
p113
sg11
VSw,Sh,
p114
sg13
VBerry tree
p115
sg15
V28
p116
sg17
V30
p117
sg19
V100
p118
sbag1
(g2
g3
Ntp119
Rp120
(dp121
g7
V118
p122
sg9
VGoldeen
p123
sg11
VSw,Sh,
p124
sg13
VFishing
p125
sg15
V28
p126
sg17
V30
p127
sg19
V10
p128
sbag1
(g2
g3
Ntp129
Rp130
(dp131
g7
V129
p132
sg9
VMagikarp
p133
sg11
VSw,Sh,
p134
sg13
VFishing
p135
sg15
V28
p136
sg17
V30
p137
sg19
V70
p138
sbag1
(g2
g3
Ntp139
Rp140
(dp141
g7
V834
p142
sg9
VDrednaw
p143
sg11
VSw,Sh,
p144
sg13
VFishing
p145
sg15
V28
p146
sg17
V30
p147
sg19
V20
p148
sbag1
(g2
g3
Ntp149
Rp150
(dp151
g7
V051
p152
sg9
VDugtrio
p153
sg11
VSw,Sh,
p154
sg13
VGrass
p155
sg15
V29
p156
sg17
V33
p157
sg19
V20
p158
sbag1
(g2
g3
Ntp159
Rp160
(dp161
g7
V328
p162
sg9
VTrapinch
p163
sg11
g56
sg13
VGrass
p164
sg15
V29
p165
sg17
V33
p166
sg19
V1
p167
sbag1
(g2
g3
Ntp168
Rp169
(dp170
g7
V328
p171
sg9
VTrapinch
p172
sg11
g66
sg13
VGrass
p173
sg15
V29
p174
sg17
V33
p175
sg19
V5
p176
sbag1
(g2
g3
Ntp177
Rp178
(dp179
g7
V556
p180
sg9
VMaractus
p181
sg11
VSw,Sh,
p182
sg13
VGrass
p183
sg15
V29
p184
sg17
V33
p185
sg19
V10
p186
sbag1
(g2
g3
Ntp187
Rp188
(dp189
g7
V562
p190
sg9
VYamask
p191
sg11
VSw,Sh,
p192
sg13
VGrass
p193
sg15
V29
p194
sg17
V33
p195
sg19
V35
p196
sbag1
(g2
g3
Ntp197
Rp198
(dp199
g7
V610
p200
sg9
VAxew
p201
sg11
g56
sg13
VGrass
p202
sg15
V29
p203
sg17
V33
p204
sg19
V5
p205
sbag1
(g2
g3
Ntp206
Rp207
(dp208
g7
V610
p209
sg9
VAxew
p210
sg11
g66
sg13
VGrass
p211
sg15
V29
p212
sg17
V33
p213
sg19
V1
p214
sbag1
(g2
g3
Ntp215
Rp216
(dp217
g7
V694
p218
sg9
VHelioptile
p219
sg11
VSw,Sh,
p220
sg13
VGrass
p221
sg15
V29
p222
sg17
V33
p223
sg19
V29
p224
sbag1
(g2
g3
Ntp225
Rp226
(dp227
g7
V880
p228
sg9
VDracozolt
p229
sg11
VSw,Sh,
p230
sg13
VFossil
p231
sg15
V10
p232
sg17
g232
sg19
V0
p233
sbag1
(g2
g3
Ntp234
Rp235
(dp236
g7
V881
p237
sg9
VArctozolt
p238
sg11
VSw,Sh,
p239
sg13
VFossil
p240
sg15
V10
p241
sg17
g241
sg19
V0
p242
sbag1
(g2
g3
Ntp243
Rp244
(dp245
g7
V882
p246
sg9
VDracovish
p247
sg11
VSw,Sh,
p248
sg13
VFossil
p249
sg15
V10
p250
sg17
g250
sg19
V0
p251
sbag1
(g2
g3
Ntp252
Rp253
(dp254
g7
V883
p255
sg9
VArctovish
p256
sg11
VSw,Sh,
p257
sg13
VFossil
p258
sg15
V10
p259
sg17
g259
sg19
V0
p260
sba.