(lp0
ccopy_reg
_reconstructor
p1
(c__main__
WildPokemon
p2
c__builtin__
object
p3
Ntp4
Rp5
(dp6
VpDexNo
p7
V067
p8
sVpSpecies
p9
VMachoke
p10
sVpGames
p11
VSw,Sh,
p12
sVpArea
p13
VGrass
p14
sVpMinLevel
p15
V30
p16
sVpMaxLevel
p17
V35
p18
sVpRate
p19
V0
p20
sbag1
(g2
g3
Ntp21
Rp22
(dp23
g7
V093
p24
sg9
VHaunter
p25
sg11
VSw,Sh,
p26
sg13
VGrass
p27
sg15
V30
p28
sg17
V35
p29
sg19
g20
sbag1
(g2
g3
Ntp30
Rp31
(dp32
g7
V095
p33
sg9
VOnix
p34
sg11
VSw,Sh,
p35
sg13
VGrass
p36
sg15
V30
p37
sg17
V35
p38
sg19
g20
sbag1
(g2
g3
Ntp39
Rp40
(dp41
g7
V178
p42
sg9
VXatu
p43
sg11
VSw,Sh,
p44
sg13
VGrass
p45
sg15
V30
p46
sg17
V35
p47
sg19
g20
sbag1
(g2
g3
Ntp48
Rp49
(dp50
g7
V195
p51
sg9
VQuagsire
p52
sg11
VSw,Sh,
p53
sg13
VGrass
p54
sg15
V30
p55
sg17
V35
p56
sg19
g20
sbag1
(g2
g3
Ntp57
Rp58
(dp59
g7
V220
p60
sg9
VSwinub
p61
sg11
VSw,Sh,
p62
sg13
VGrass
p63
sg15
V30
p64
sg17
V35
p65
sg19
g20
sbag1
(g2
g3
Ntp66
Rp67
(dp68
g7
V225
p69
sg9
VDelibird
p70
sg11
VSw,Sh,
p71
sg13
VGrass
p72
sg15
V30
p73
sg17
V35
p74
sg19
g20
sbag1
(g2
g3
Ntp75
Rp76
(dp77
g7
V271
p78
sg9
VLombre
p79
sg11
VSh,
p80
sg13
VGrass
p81
sg15
V30
p82
sg17
V35
p83
sg19
g20
sbag1
(g2
g3
Ntp84
Rp85
(dp86
g7
V274
p87
sg9
VNuzleaf
p88
sg11
VSw,
p89
sg13
VGrass
p90
sg15
V30
p91
sg17
V35
p92
sg19
g20
sbag1
(g2
g3
Ntp93
Rp94
(dp95
g7
V310
p96
sg9
VManectric
p97
sg11
VSw,Sh,
p98
sg13
VGrass
p99
sg15
V30
p100
sg17
V35
p101
sg19
g20
sbag1
(g2
g3
Ntp102
Rp103
(dp104
g7
V342
p105
sg9
VCrawdaunt
p106
sg11
VSw,Sh,
p107
sg13
VGrass
p108
sg15
V30
p109
sg17
V35
p110
sg19
g20
sbag1
(g2
g3
Ntp111
Rp112
(dp113
g7
V436
p114
sg9
VBronzor
p115
sg11
g89
sg13
VGrass
p116
sg15
V30
p117
sg17
V35
p118
sg19
g20
sbag1
(g2
g3
Ntp119
Rp120
(dp121
g7
V436
p122
sg9
VBronzor
p123
sg11
g80
sg13
VGrass
p124
sg15
V30
p125
sg17
V35
p126
sg19
g20
sbag1
(g2
g3
Ntp127
Rp128
(dp129
g7
V510
p130
sg9
VLiepard
p131
sg11
VSw,Sh,
p132
sg13
VGrass
p133
sg15
V30
p134
sg17
V35
p135
sg19
g20
sbag1
(g2
g3
Ntp136
Rp137
(dp138
g7
V520
p139
sg9
VTranquill
p140
sg11
VSw,Sh,
p141
sg13
VGrass
p142
sg15
V30
p143
sg17
V35
p144
sg19
g20
sbag1
(g2
g3
Ntp145
Rp146
(dp147
g7
V557
p148
sg9
VDwebble
p149
sg11
VSw,Sh,
p150
sg13
VGrass
p151
sg15
V30
p152
sg17
V35
p153
sg19
g20
sbag1
(g2
g3
Ntp154
Rp155
(dp156
g7
V660
p157
sg9
VDiggersby
p158
sg11
VSw,Sh,
p159
sg13
VGrass
p160
sg15
V30
p161
sg17
V35
p162
sg19
g20
sbag1
(g2
g3
Ntp163
Rp164
(dp165
g7
V750
p166
sg9
VMudsdale
p167
sg11
VSw,Sh,
p168
sg13
VGrass
p169
sg15
V30
p170
sg17
V35
p171
sg19
g20
sbag1
(g2
g3
Ntp172
Rp173
(dp174
g7
V760
p175
sg9
VBewear
p176
sg11
g89
sg13
VGrass
p177
sg15
V30
p178
sg17
V35
p179
sg19
g20
sbag1
(g2
g3
Ntp180
Rp181
(dp182
g7
V760
p183
sg9
VBewear
p184
sg11
g80
sg13
VGrass
p185
sg15
V30
p186
sg17
V35
p187
sg19
g20
sbag1
(g2
g3
Ntp188
Rp189
(dp190
g7
V420
p191
sg9
VCherubi
p192
sg11
VSw,Sh,
p193
sg13
VBerry tree
p194
sg15
V30
p195
sg17
V35
p196
sg19
V30
p197
sbag1
(g2
g3
Ntp198
Rp199
(dp200
g7
V820
p201
sg9
VGreedent
p202
sg11
VSw,Sh,
p203
sg13
VBerry tree
p204
sg15
V30
p205
sg17
V35
p206
sg19
V70
p207
sbag1
(g2
g3
Ntp208
Rp209
(dp210
g7
V090
p211
sg9
VShellder
p212
sg11
VSw,Sh,
p213
sg13
VFishing
p214
sg15
V30
p215
sg17
V35
p216
sg19
V60
p217
sbag1
(g2
g3
Ntp218
Rp219
(dp220
g7
V091
p221
sg9
VCloyster
p222
sg11
VSw,Sh,
p223
sg13
VFishing
p224
sg15
V30
p225
sg17
V35
p226
sg19
V5
p227
sbag1
(g2
g3
Ntp228
Rp229
(dp230
g7
V130
p231
sg9
VGyarados
p232
sg11
VSw,Sh,
p233
sg13
VFishing
p234
sg15
V30
p235
sg17
V35
p236
sg19
V10
p237
sbag1
(g2
g3
Ntp238
Rp239
(dp240
g7
V771
p241
sg9
VPyukumuku
p242
sg11
VSw,Sh,
p243
sg13
VFishing
p244
sg15
V30
p245
sg17
V35
p246
sg19
V25
p247
sbag1
(g2
g3
Ntp248
Rp249
(dp250
g7
V037
p251
sg9
VVulpix
p252
sg11
g89
sg13
VGrass
p253
sg15
V33
p254
sg17
V38
p255
sg19
g20
sbag1
(g2
g3
Ntp256
Rp257
(dp258
g7
V058
p259
sg9
VGrowlithe
p260
sg11
g80
sg13
VGrass
p261
sg15
V33
p262
sg17
V38
p263
sg19
g20
sbag1
(g2
g3
Ntp264
Rp265
(dp266
g7
V066
p267
sg9
VMachop
p268
sg11
g89
sg13
VGrass
p269
sg15
V33
p270
sg17
V38
p271
sg19
g20
sbag1
(g2
g3
Ntp272
Rp273
(dp274
g7
V066
p275
sg9
VMachop
p276
sg11
g80
sg13
VGrass
p277
sg15
V33
p278
sg17
V38
p279
sg19
g20
sbag1
(g2
g3
Ntp280
Rp281
(dp282
g7
V067
p283
sg9
VMachoke
p284
sg11
g89
sg13
VGrass
p285
sg15
V33
p286
sg17
V38
p287
sg19
g20
sbag1
(g2
g3
Ntp288
Rp289
(dp290
g7
V092
p291
sg9
VGastly
p292
sg11
VSw,Sh,
p293
sg13
VGrass
p294
sg15
V33
p295
sg17
V38
p296
sg19
g20
sbag1
(g2
g3
Ntp297
Rp298
(dp299
g7
V177
p300
sg9
VNatu
p301
sg11
VSw,Sh,
p302
sg13
VGrass
p303
sg15
V33
p304
sg17
V38
p305
sg19
g20
sbag1
(g2
g3
Ntp306
Rp307
(dp308
g7
V194
p309
sg9
VWooper
p310
sg11
VSw,Sh,
p311
sg13
VGrass
p312
sg15
V33
p313
sg17
V38
p314
sg19
g20
sbag1
(g2
g3
Ntp315
Rp316
(dp317
g7
V225
p318
sg9
VDelibird
p319
sg11
VSw,Sh,
p320
sg13
VGrass
p321
sg15
V33
p322
sg17
V38
p323
sg19
g20
sbag1
(g2
g3
Ntp324
Rp325
(dp326
g7
V236
p327
sg9
VTyrogue
p328
sg11
VSw,Sh,
p329
sg13
VGrass
p330
sg15
V33
p331
sg17
V38
p332
sg19
g20
sbag1
(g2
g3
Ntp333
Rp334
(dp335
g7
V271
p336
sg9
VLombre
p337
sg11
g80
sg13
VGrass
p338
sg15
V33
p339
sg17
V38
p340
sg19
g20
sbag1
(g2
g3
Ntp341
Rp342
(dp343
g7
V274
p344
sg9
VNuzleaf
p345
sg11
g89
sg13
VGrass
p346
sg15
V33
p347
sg17
V38
p348
sg19
g20
sbag1
(g2
g3
Ntp349
Rp350
(dp351
g7
V309
p352
sg9
VElectrike
p353
sg11
VSw,Sh,
p354
sg13
VGrass
p355
sg15
V33
p356
sg17
V38
p357
sg19
g20
sbag1
(g2
g3
Ntp358
Rp359
(dp360
g7
V355
p361
sg9
VDuskull
p362
sg11
VSw,Sh,
p363
sg13
VGrass
p364
sg15
V33
p365
sg17
V38
p366
sg19
g20
sbag1
(g2
g3
Ntp367
Rp368
(dp369
g7
V361
p370
sg9
VSnorunt
p371
sg11
VSw,Sh,
p372
sg13
VGrass
p373
sg15
V33
p374
sg17
V38
p375
sg19
g20
sbag1
(g2
g3
Ntp376
Rp377
(dp378
g7
V436
p379
sg9
VBronzor
p380
sg11
VSw,Sh,
p381
sg13
VGrass
p382
sg15
V33
p383
sg17
V38
p384
sg19
g20
sbag1
(g2
g3
Ntp385
Rp386
(dp387
g7
V459
p388
sg9
VSnover
p389
sg11
VSw,Sh,
p390
sg13
VGrass
p391
sg15
V33
p392
sg17
V38
p393
sg19
g20
sbag1
(g2
g3
Ntp394
Rp395
(dp396
g7
V517
p397
sg9
VMunna
p398
sg11
VSw,Sh,
p399
sg13
VGrass
p400
sg15
V33
p401
sg17
V38
p402
sg19
g20
sbag1
(g2
g3
Ntp403
Rp404
(dp405
g7
V536
p406
sg9
VPalpitoad
p407
sg11
VSw,Sh,
p408
sg13
VGrass
p409
sg15
V33
p410
sg17
V38
p411
sg19
g20
sbag1
(g2
g3
Ntp412
Rp413
(dp414
g7
V622
p415
sg9
VGolett
p416
sg11
VSw,Sh,
p417
sg13
VGrass
p418
sg15
V33
p419
sg17
V38
p420
sg19
g20
sbag1
(g2
g3
Ntp421
Rp422
(dp423
g7
V749
p424
sg9
VMudbray
p425
sg11
VSw,Sh,
p426
sg13
VGrass
p427
sg15
V33
p428
sg17
V38
p429
sg19
g20
sbag1
(g2
g3
Ntp430
Rp431
(dp432
g7
V759
p433
sg9
VStufful
p434
sg11
VSw,Sh,
p435
sg13
VGrass
p436
sg15
V33
p437
sg17
V38
p438
sg19
g20
sbag1
(g2
g3
Ntp439
Rp440
(dp441
g7
V208
p442
sg9
VSteelix
p443
sg11
VSw,Sh,
p444
sg13
VWanderer
p445
sg15
V50
p446
sg17
g446
sg19
V0
p447
sbag1
(g2
g3
Ntp448
Rp449
(dp450
g7
V112
p451
sg9
VRhydon
p452
sg11
VSw,Sh,
p453
sg13
VWanderer
p454
sg15
V46
p455
sg17
g455
sg19
g20
sbag1
(g2
g3
Ntp456
Rp457
(dp458
g7
V356
p459
sg9
VDusclops
p460
sg11
VSw,Sh,
p461
sg13
VWanderer
p462
sg15
V46
p463
sg17
g463
sg19
g20
sbag1
(g2
g3
Ntp464
Rp465
(dp466
g7
V437
p467
sg9
VBronzong
p468
sg11
VSw,Sh,
p469
sg13
VWanderer
p470
sg15
V46
p471
sg17
g471
sg19
g20
sbag1
(g2
g3
Ntp472
Rp473
(dp474
g7
V460
p475
sg9
VAbomasnow
p476
sg11
VSw,Sh,
p477
sg13
VWanderer
p478
sg15
V46
p479
sg17
g479
sg19
g20
sbag1
(g2
g3
Ntp480
Rp481
(dp482
g7
V623
p483
sg9
VGolurk
p484
sg11
VSw,Sh,
p485
sg13
VWanderer
p486
sg15
V46
p487
sg17
g487
sg19
g20
sbag1
(g2
g3
Ntp488
Rp489
(dp490
g7
V750
p491
sg9
VMudsdale
p492
sg11
VSw,Sh,
p493
sg13
VWanderer
p494
sg15
V46
p495
sg17
g495
sg19
g20
sbag1
(g2
g3
Ntp496
Rp497
(dp498
g7
V884
p499
sg9
VDuraludon
p500
sg11
VSw,Sh,
p501
sg13
VWanderer
p502
sg15
V65
p503
sg17
g503
sg19
V0
p504
sbag1
(g2
g3
Ntp505
Rp506
(dp507
g7
V625
p508
sg9
VBisharp
p509
sg11
VSw,Sh,
p510
sg13
VWanderer
p511
sg15
V52
p512
sg17
g512
sg19
V0
p513
sbag1
(g2
g3
Ntp514
Rp515
(dp516
g7
V362
p517
sg9
VGlalie
p518
sg11
VSw,Sh,
p519
sg13
VWanderer
p520
sg15
V46
p521
sg17
g521
sg19
g20
sbag1
(g2
g3
Ntp522
Rp523
(dp524
g7
V518
p525
sg9
VMusharna
p526
sg11
VSw,Sh,
p527
sg13
VWanderer
p528
sg15
V46
p529
sg17
g529
sg19
g20
sbag1
(g2
g3
Ntp530
Rp531
(dp532
g7
V596
p533
sg9
VGalvantula
p534
sg11
VSw,Sh,
p535
sg13
VWanderer
p536
sg15
V46
p537
sg17
g537
sg19
g20
sbag1
(g2
g3
Ntp538
Rp539
(dp540
g7
V738
p541
sg9
VVikavolt
p542
sg11
VSw,Sh,
p543
sg13
VWanderer
p544
sg15
V46
p545
sg17
g545
sg19
g20
sba.