(lp0
ccopy_reg
_reconstructor
p1
(c__main__
WildPokemon
p2
c__builtin__
object
p3
Ntp4
Rp5
(dp6
VpDexNo
p7
V029
p8
sVpSpecies
p9
VNidoran\u2640
p10
sVpGames
p11
VSw,Sh,
p12
sVpArea
p13
VGrass
p14
sVpMinLevel
p15
V60
p16
sVpMaxLevel
p17
V65
p18
sVpRate
p19
V0
p20
sbag1
(g2
g3
Ntp21
Rp22
(dp23
g7
V032
p24
sg9
VNidoran\u2642
p25
sg11
VSw,Sh,
p26
sg13
VGrass
p27
sg15
V60
p28
sg17
V65
p29
sg19
g20
sbag1
(g2
g3
Ntp30
Rp31
(dp32
g7
V239
p33
sg9
VElekid
p34
sg11
VSw,Sh,
p35
sg13
VGrass
p36
sg15
V60
p37
sg17
V65
p38
sg19
g20
sbag1
(g2
g3
Ntp39
Rp40
(dp41
g7
V240
p42
sg9
VMagby
p43
sg11
VSw,Sh,
p44
sg13
VGrass
p45
sg15
V60
p46
sg17
V65
p47
sg19
g20
sbag1
(g2
g3
Ntp48
Rp49
(dp50
g7
V333
p51
sg9
VSwablu
p52
sg11
VSw,Sh,
p53
sg13
VGrass
p54
sg15
V60
p55
sg17
V65
p56
sg19
g20
sbag1
(g2
g3
Ntp57
Rp58
(dp59
g7
V439
p60
sg9
VMime Jr.
p61
sg11
VSw,Sh,
p62
sg13
VGrass
p63
sg15
V60
p64
sg17
V65
p65
sg19
g20
sbag1
(g2
g3
Ntp66
Rp67
(dp68
g7
V582
p69
sg9
VVanillite
p70
sg11
VSw,Sh,
p71
sg13
VGrass
p72
sg15
V60
p73
sg17
V65
p74
sg19
g20
sbag1
(g2
g3
Ntp75
Rp76
(dp77
g7
V616
p78
sg9
VShelmet
p79
sg11
VSw,Sh,
p80
sg13
VGrass
p81
sg15
V60
p82
sg17
V65
p83
sg19
g20
sbag1
(g2
g3
Ntp84
Rp85
(dp86
g7
V751
p87
sg9
VDewpider
p88
sg11
VSw,Sh,
p89
sg13
VGrass
p90
sg15
V60
p91
sg17
V65
p92
sg19
g20
sbag1
(g2
g3
Ntp93
Rp94
(dp95
g7
V831
p96
sg9
VWooloo
p97
sg11
VSw,Sh,
p98
sg13
VGrass
p99
sg15
V60
p100
sg17
V65
p101
sg19
g20
sbag1
(g2
g3
Ntp102
Rp103
(dp104
g7
V856
p105
sg9
VHatenna
p106
sg11
VSw,Sh,
p107
sg13
VGrass
p108
sg15
V60
p109
sg17
V65
p110
sg19
g20
sbag1
(g2
g3
Ntp111
Rp112
(dp113
g7
V819
p114
sg9
VSkwovet
p115
sg11
VSw,Sh,
p116
sg13
VBerry tree
p117
sg15
V60
p118
sg17
V65
p119
sg19
V80
p120
sbag1
(g2
g3
Ntp121
Rp122
(dp123
g7
V820
p124
sg9
VGreedent
p125
sg11
VSw,Sh,
p126
sg13
VBerry tree
p127
sg15
V60
p128
sg17
V65
p129
sg19
V20
p130
sbag1
(g2
g3
Ntp131
Rp132
(dp133
g7
V129
p134
sg9
VMagikarp
p135
sg11
VSw,Sh,
p136
sg13
VFishing
p137
sg15
V60
p138
sg17
V65
p139
sg19
V20
p140
sbag1
(g2
g3
Ntp141
Rp142
(dp143
g7
V130
p144
sg9
VGyarados
p145
sg11
VSw,Sh,
p146
sg13
VFishing
p147
sg15
V60
p148
sg17
V65
p149
sg19
V15
p150
sbag1
(g2
g3
Ntp151
Rp152
(dp153
g7
V339
p154
sg9
VBarboach
p155
sg11
VSw,Sh,
p156
sg13
VFishing
p157
sg15
V60
p158
sg17
V65
p159
sg19
V20
p160
sbag1
(g2
g3
Ntp161
Rp162
(dp163
g7
V340
p164
sg9
VWhiscash
p165
sg11
VSw,Sh,
p166
sg13
VFishing
p167
sg15
V60
p168
sg17
V65
p169
sg19
V15
p170
sbag1
(g2
g3
Ntp171
Rp172
(dp173
g7
V345
p174
sg9
VLileep
p175
sg11
VSw,Sh,
p176
sg13
VFishing
p177
sg15
V60
p178
sg17
V65
p179
sg19
V10
p180
sbag1
(g2
g3
Ntp181
Rp182
(dp183
g7
V550
p184
sg9
VBasculin
p185
sg11
VSw,
p186
sg13
VFishing
p187
sg15
V60
p188
sg17
V65
p189
sg19
V20
p190
sbag1
(g2
g3
Ntp191
Rp192
(dp193
g7
V550
p194
sg9
VBasculin
p195
sg11
VSh,
p196
sg13
VFishing
p197
sg15
V60
p198
sg17
V65
p199
sg19
V20
p200
sbag1
(g2
g3
Ntp201
Rp202
(dp203
g7
V029
p204
sg9
VNidoran\u2640
p205
sg11
g186
sg13
VGrass
p206
sg15
V60
p207
sg17
V65
p208
sg19
g20
sbag1
(g2
g3
Ntp209
Rp210
(dp211
g7
V029
p212
sg9
VNidoran\u2640
p213
sg11
g196
sg13
VGrass
p214
sg15
V60
p215
sg17
V65
p216
sg19
g20
sbag1
(g2
g3
Ntp217
Rp218
(dp219
g7
V032
p220
sg9
VNidoran\u2642
p221
sg11
g186
sg13
VGrass
p222
sg15
V60
p223
sg17
V65
p224
sg19
g20
sbag1
(g2
g3
Ntp225
Rp226
(dp227
g7
V032
p228
sg9
VNidoran\u2642
p229
sg11
g196
sg13
VGrass
p230
sg15
V60
p231
sg17
V65
p232
sg19
g20
sbag1
(g2
g3
Ntp233
Rp234
(dp235
g7
V035
p236
sg9
VClefairy
p237
sg11
VSw,Sh,
p238
sg13
VGrass
p239
sg15
V60
p240
sg17
V65
p241
sg19
g20
sbag1
(g2
g3
Ntp242
Rp243
(dp244
g7
V125
p245
sg9
VElectabuzz
p246
sg11
VSw,Sh,
p247
sg13
VGrass
p248
sg15
V60
p249
sg17
V65
p250
sg19
g20
sbag1
(g2
g3
Ntp251
Rp252
(dp253
g7
V126
p254
sg9
VMagmar
p255
sg11
VSw,Sh,
p256
sg13
VGrass
p257
sg15
V60
p258
sg17
V65
p259
sg19
g20
sbag1
(g2
g3
Ntp260
Rp261
(dp262
g7
V133
p263
sg9
VEevee
p264
sg11
VSw,Sh,
p265
sg13
VGrass
p266
sg15
V60
p267
sg17
V65
p268
sg19
g20
sbag1
(g2
g3
Ntp269
Rp270
(dp271
g7
V264
p272
sg9
VLinoone
p273
sg11
VSw,Sh,
p274
sg13
VGrass
p275
sg15
V60
p276
sg17
V65
p277
sg19
g20
sbag1
(g2
g3
Ntp278
Rp279
(dp280
g7
V333
p281
sg9
VSwablu
p282
sg11
VSw,Sh,
p283
sg13
VGrass
p284
sg15
V60
p285
sg17
V65
p286
sg19
g20
sbag1
(g2
g3
Ntp287
Rp288
(dp289
g7
V359
p290
sg9
VAbsol
p291
sg11
VSw,Sh,
p292
sg13
VGrass
p293
sg15
V60
p294
sg17
V65
p295
sg19
g20
sbag1
(g2
g3
Ntp296
Rp297
(dp298
g7
V361
p299
sg9
VSnorunt
p300
sg11
VSw,Sh,
p301
sg13
VGrass
p302
sg15
V60
p303
sg17
V65
p304
sg19
g20
sbag1
(g2
g3
Ntp305
Rp306
(dp307
g7
V437
p308
sg9
VBronzong
p309
sg11
g186
sg13
VGrass
p310
sg15
V60
p311
sg17
V65
p312
sg19
g20
sbag1
(g2
g3
Ntp313
Rp314
(dp315
g7
V437
p316
sg9
VBronzong
p317
sg11
g196
sg13
VGrass
p318
sg15
V60
p319
sg17
V65
p320
sg19
g20
sbag1
(g2
g3
Ntp321
Rp322
(dp323
g7
V531
p324
sg9
VAudino
p325
sg11
VSw,Sh,
p326
sg13
VGrass
p327
sg15
V60
p328
sg17
V65
p329
sg19
g20
sbag1
(g2
g3
Ntp330
Rp331
(dp332
g7
V533
p333
sg9
VGurdurr
p334
sg11
VSw,Sh,
p335
sg13
VGrass
p336
sg15
V60
p337
sg17
V65
p338
sg19
g20
sbag1
(g2
g3
Ntp339
Rp340
(dp341
g7
V583
p342
sg9
VVanillish
p343
sg11
VSw,Sh,
p344
sg13
VGrass
p345
sg15
V60
p346
sg17
V65
p347
sg19
g20
sbag1
(g2
g3
Ntp348
Rp349
(dp350
g7
V596
p351
sg9
VGalvantula
p352
sg11
VSw,Sh,
p353
sg13
VGrass
p354
sg15
V60
p355
sg17
V65
p356
sg19
g20
sbag1
(g2
g3
Ntp357
Rp358
(dp359
g7
V608
p360
sg9
VLampent
p361
sg11
VSw,Sh,
p362
sg13
VGrass
p363
sg15
V60
p364
sg17
V65
p365
sg19
g20
sbag1
(g2
g3
Ntp366
Rp367
(dp368
g7
V615
p369
sg9
VCryogonal
p370
sg11
VSw,Sh,
p371
sg13
VGrass
p372
sg15
V60
p373
sg17
V65
p374
sg19
g20
sbag1
(g2
g3
Ntp375
Rp376
(dp377
g7
V631
p378
sg9
VHeatmor
p379
sg11
VSw,Sh,
p380
sg13
VGrass
p381
sg15
V60
p382
sg17
V65
p383
sg19
g20
sbag1
(g2
g3
Ntp384
Rp385
(dp386
g7
V632
p387
sg9
VDurant
p388
sg11
VSw,Sh,
p389
sg13
VGrass
p390
sg15
V60
p391
sg17
V65
p392
sg19
g20
sbag1
(g2
g3
Ntp393
Rp394
(dp395
g7
V752
p396
sg9
VAraquanid
p397
sg11
VSw,Sh,
p398
sg13
VGrass
p399
sg15
V60
p400
sg17
V65
p401
sg19
g20
sbag1
(g2
g3
Ntp402
Rp403
(dp404
g7
V778
p405
sg9
VMimikyu
p406
sg11
VSw,Sh,
p407
sg13
VGrass
p408
sg15
V60
p409
sg17
V65
p410
sg19
g20
sbag1
(g2
g3
Ntp411
Rp412
(dp413
g7
V832
p414
sg9
VDubwool
p415
sg11
VSw,Sh,
p416
sg13
VGrass
p417
sg15
V60
p418
sg17
V65
p419
sg19
g20
sbag1
(g2
g3
Ntp420
Rp421
(dp422
g7
V857
p423
sg9
VHattrem
p424
sg11
VSw,Sh,
p425
sg13
VGrass
p426
sg15
V60
p427
sg17
V65
p428
sg19
g20
sbag1
(g2
g3
Ntp429
Rp430
(dp431
g7
V860
p432
sg9
VMorgrem
p433
sg11
VSw,Sh,
p434
sg13
VGrass
p435
sg15
V60
p436
sg17
V65
p437
sg19
g20
sbag1
(g2
g3
Ntp438
Rp439
(dp440
g7
V874
p441
sg9
VStonjourner
p442
sg11
g186
sg13
VGrass
p443
sg15
V60
p444
sg17
V65
p445
sg19
g20
sbag1
(g2
g3
Ntp446
Rp447
(dp448
g7
V129
p449
sg9
VMagikarp
p450
sg11
VSw,Sh,
p451
sg13
VGrass
p452
sg15
V60
p453
sg17
V65
p454
sg19
g20
sbag1
(g2
g3
Ntp455
Rp456
(dp457
g7
V339
p458
sg9
VBarboach
p459
sg11
VSw,Sh,
p460
sg13
VGrass
p461
sg15
V60
p462
sg17
V65
p463
sg19
g20
sbag1
(g2
g3
Ntp464
Rp465
(dp466
g7
V349
p467
sg9
VFeebas
p468
sg11
VSw,Sh,
p469
sg13
VGrass
p470
sg15
V60
p471
sg17
V65
p472
sg19
g20
sbag1
(g2
g3
Ntp473
Rp474
(dp475
g7
V550
p476
sg9
VBasculin
p477
sg11
g186
sg13
VGrass
p478
sg15
V60
p479
sg17
V65
p480
sg19
g20
sbag1
(g2
g3
Ntp481
Rp482
(dp483
g7
V550
p484
sg9
VBasculin
p485
sg11
g196
sg13
VGrass
p486
sg15
V60
p487
sg17
V65
p488
sg19
g20
sbag1
(g2
g3
Ntp489
Rp490
(dp491
g7
V583
p492
sg9
VVanillish
p493
sg11
VSw,Sh,
p494
sg13
VGrass
p495
sg15
V60
p496
sg17
V65
p497
sg19
g20
sbag1
(g2
g3
Ntp498
Rp499
(dp500
g7
V640
p501
sg9
VVirizion
p502
sg11
VSw,Sh,
p503
sg13
VWanderer
p504
sg15
V70
p505
sg17
g505
sg19
V0
p506
sbag1
(g2
g3
Ntp507
Rp508
(dp509
g7
V437
p510
sg9
VBronzong
p511
sg11
VSw,Sh,
p512
sg13
VWanderer
p513
sg15
V63
p514
sg17
g514
sg19
V0
p515
sbag1
(g2
g3
Ntp516
Rp517
(dp518
g7
V030
p519
sg9
VNidorina
p520
sg11
VSw,Sh,
p521
sg13
VWanderer
p522
sg15
V63
p523
sg17
g523
sg19
g20
sbag1
(g2
g3
Ntp524
Rp525
(dp526
g7
V033
p527
sg9
VNidorino
p528
sg11
VSw,Sh,
p529
sg13
VWanderer
p530
sg15
V63
p531
sg17
g531
sg19
g20
sbag1
(g2
g3
Ntp532
Rp533
(dp534
g7
V031
p535
sg9
VNidoqueen
p536
sg11
VSw,Sh,
p537
sg13
VWanderer
p538
sg15
V65
p539
sg17
g539
sg19
g20
sbag1
(g2
g3
Ntp540
Rp541
(dp542
g7
V034
p543
sg9
VNidoking
p544
sg11
VSw,Sh,
p545
sg13
VWanderer
p546
sg15
V65
p547
sg17
g547
sg19
g20
sbag1
(g2
g3
Ntp548
Rp549
(dp550
g7
V125
p551
sg9
VElectabuzz
p552
sg11
VSw,Sh,
p553
sg13
VWanderer
p554
sg15
V63
p555
sg17
g555
sg19
g20
sbag1
(g2
g3
Ntp556
Rp557
(dp558
g7
V126
p559
sg9
VMagmar
p560
sg11
VSw,Sh,
p561
sg13
VWanderer
p562
sg15
V62
p563
sg17
g563
sg19
g20
sbag1
(g2
g3
Ntp564
Rp565
(dp566
g7
V359
p567
sg9
VAbsol
p568
sg11
VSw,Sh,
p569
sg13
VWanderer
p570
sg15
V65
p571
sg17
g571
sg19
g20
sbag1
(g2
g3
Ntp572
Rp573
(dp574
g7
V861
p575
sg9
VGrimmsnarl
p576
sg11
VSw,Sh,
p577
sg13
VWanderer
p578
sg15
V65
p579
sg17
g579
sg19
g20
sbag1
(g2
g3
Ntp580
Rp581
(dp582
g7
V030
p583
sg9
VNidorina
p584
sg11
VSw,Sh,
p585
sg13
VWanderer
p586
sg15
V63
p587
sg17
g587
sg19
g20
sbag1
(g2
g3
Ntp588
Rp589
(dp590
g7
V033
p591
sg9
VNidorino
p592
sg11
VSw,Sh,
p593
sg13
VWanderer
p594
sg15
V63
p595
sg17
g595
sg19
g20
sbag1
(g2
g3
Ntp596
Rp597
(dp598
g7
V030
p599
sg9
VNidorina
p600
sg11
VSw,Sh,
p601
sg13
VWanderer
p602
sg15
V63
p603
sg17
g603
sg19
g20
sbag1
(g2
g3
Ntp604
Rp605
(dp606
g7
V033
p607
sg9
VNidorino
p608
sg11
VSw,Sh,
p609
sg13
VWanderer
p610
sg15
V63
p611
sg17
g611
sg19
g20
sbag1
(g2
g3
Ntp612
Rp613
(dp614
g7
V596
p615
sg9
VGalvantula
p616
sg11
VSw,Sh,
p617
sg13
VWanderer
p618
sg15
V63
p619
sg17
g619
sg19
g20
sbag1
(g2
g3
Ntp620
Rp621
(dp622
g7
V615
p623
sg9
VCryogonal
p624
sg11
VSw,Sh,
p625
sg13
VWanderer
p626
sg15
V62
p627
sg17
g627
sg19
g20
sbag1
(g2
g3
Ntp628
Rp629
(dp630
g7
V631
p631
sg9
VHeatmor
p632
sg11
VSw,Sh,
p633
sg13
VWanderer
p634
sg15
V63
p635
sg17
g635
sg19
g20
sbag1
(g2
g3
Ntp636
Rp637
(dp638
g7
V030
p639
sg9
VNidorina
p640
sg11
VSw,Sh,
p641
sg13
VWanderer
p642
sg15
V63
p643
sg17
g643
sg19
g20
sbag1
(g2
g3
Ntp644
Rp645
(dp646
g7
V033
p647
sg9
VNidorino
p648
sg11
VSw,Sh,
p649
sg13
VWanderer
p650
sg15
V63
p651
sg17
g651
sg19
g20
sbag1
(g2
g3
Ntp652
Rp653
(dp654
g7
V036
p655
sg9
VClefable
p656
sg11
VSw,Sh,
p657
sg13
VWanderer
p658
sg15
V63
p659
sg17
g659
sg19
g20
sbag1
(g2
g3
Ntp660
Rp661
(dp662
g7
V584
p663
sg9
VVanilluxe
p664
sg11
VSw,Sh,
p665
sg13
VWanderer
p666
sg15
V65
p667
sg17
g667
sg19
g20
sbag1
(g2
g3
Ntp668
Rp669
(dp670
g7
V632
p671
sg9
VDurant
p672
sg11
VSw,Sh,
p673
sg13
VWanderer
p674
sg15
V63
p675
sg17
g675
sg19
g20
sbag1
(g2
g3
Ntp676
Rp677
(dp678
g7
V752
p679
sg9
VAraquanid
p680
sg11
VSw,Sh,
p681
sg13
VWanderer
p682
sg15
V65
p683
sg17
g683
sg19
g20
sbag1
(g2
g3
Ntp684
Rp685
(dp686
g7
V832
p687
sg9
VDubwool
p688
sg11
VSw,Sh,
p689
sg13
VWanderer
p690
sg15
V63
p691
sg17
g691
sg19
g20
sbag1
(g2
g3
Ntp692
Rp693
(dp694
g7
V862
p695
sg9
VObstagoon
p696
sg11
VSw,Sh,
p697
sg13
VWanderer
p698
sg15
V65
p699
sg17
g699
sg19
g20
sbag1
(g2
g3
Ntp700
Rp701
(dp702
g7
V033
p703
sg9
VNidorino
p704
sg11
VSw,Sh,
p705
sg13
VWanderer
p706
sg15
V63
p707
sg17
g707
sg19
g20
sbag1
(g2
g3
Ntp708
Rp709
(dp710
g7
V126
p711
sg9
VMagmar
p712
sg11
VSw,Sh,
p713
sg13
VWanderer
p714
sg15
V62
p715
sg17
g715
sg19
g20
sbag1
(g2
g3
Ntp716
Rp717
(dp718
g7
V133
p719
sg9
VEevee
p720
sg11
VSw,Sh,
p721
sg13
VWanderer
p722
sg15
V60
p723
sg17
g723
sg19
g20
sbag1
(g2
g3
Ntp724
Rp725
(dp726
g7
V196
p727
sg9
VEspeon
p728
sg11
VSw,Sh,
p729
sg13
VWanderer
p730
sg15
V63
p731
sg17
g731
sg19
g20
sbag1
(g2
g3
Ntp732
Rp733
(dp734
g7
V197
p735
sg9
VUmbreon
p736
sg11
VSw,Sh,
p737
sg13
VWanderer
p738
sg15
V63
p739
sg17
g739
sg19
g20
sbag1
(g2
g3
Ntp740
Rp741
(dp742
g7
V362
p743
sg9
VGlalie
p744
sg11
VSw,Sh,
p745
sg13
VWanderer
p746
sg15
V65
p747
sg17
g747
sg19
g20
sbag1
(g2
g3
Ntp748
Rp749
(dp750
g7
V596
p751
sg9
VGalvantula
p752
sg11
VSw,Sh,
p753
sg13
VWanderer
p754
sg15
V63
p755
sg17
g755
sg19
g20
sbag1
(g2
g3
Ntp756
Rp757
(dp758
g7
V030
p759
sg9
VNidorina
p760
sg11
VSw,Sh,
p761
sg13
VWanderer
p762
sg15
V63
p763
sg17
g763
sg19
g20
sbag1
(g2
g3
Ntp764
Rp765
(dp766
g7
V362
p767
sg9
VGlalie
p768
sg11
VSw,Sh,
p769
sg13
VWanderer
p770
sg15
V65
p771
sg17
g771
sg19
g20
sbag1
(g2
g3
Ntp772
Rp773
(dp774
g7
V471
p775
sg9
VGlaceon
p776
sg11
VSw,Sh,
p777
sg13
VWanderer
p778
sg15
V63
p779
sg17
g779
sg19
g20
sbag1
(g2
g3
Ntp780
Rp781
(dp782
g7
V534
p783
sg9
VConkeldurr
p784
sg11
VSw,Sh,
p785
sg13
VWanderer
p786
sg15
V65
p787
sg17
g787
sg19
g20
sbag1
(g2
g3
Ntp788
Rp789
(dp790
g7
V596
p791
sg9
VGalvantula
p792
sg11
VSw,Sh,
p793
sg13
VWanderer
p794
sg15
V63
p795
sg17
g795
sg19
g20
sbag1
(g2
g3
Ntp796
Rp797
(dp798
g7
V609
p799
sg9
VChandelure
p800
sg11
VSw,Sh,
p801
sg13
VWanderer
p802
sg15
V65
p803
sg17
g803
sg19
g20
sbag1
(g2
g3
Ntp804
Rp805
(dp806
g7
V752
p807
sg9
VAraquanid
p808
sg11
VSw,Sh,
p809
sg13
VWanderer
p810
sg15
V65
p811
sg17
g811
sg19
g20
sbag1
(g2
g3
Ntp812
Rp813
(dp814
g7
V778
p815
sg9
VMimikyu
p816
sg11
VSw,Sh,
p817
sg13
VWanderer
p818
sg15
V62
p819
sg17
g819
sg19
g20
sbag1
(g2
g3
Ntp820
Rp821
(dp822
g7
V143
p823
sg9
VSnorlax
p824
sg11
g196
sg13
VWanderer
p825
sg15
V65
p826
sg17
g826
sg19
V0
p827
sbag1
(g2
g3
Ntp828
Rp829
(dp830
g7
V874
p831
sg9
VStonjourner
p832
sg11
g186
sg13
VWanderer
p833
sg15
V63
p834
sg17
g834
sg19
V0
p835
sbag1
(g2
g3
Ntp836
Rp837
(dp838
g7
V030
p839
sg9
VNidorina
p840
sg11
VSw,Sh,
p841
sg13
VWanderer
p842
sg15
V63
p843
sg17
g843
sg19
g20
sbag1
(g2
g3
Ntp844
Rp845
(dp846
g7
V333
p847
sg9
VSwablu
p848
sg11
VSw,Sh,
p849
sg13
VWanderer
p850
sg15
V60
p851
sg17
g851
sg19
g20
sbag1
(g2
g3
Ntp852
Rp853
(dp854
g7
V437
p855
sg9
VBronzong
p856
sg11
VSw,Sh,
p857
sg13
VWanderer
p858
sg15
V63
p859
sg17
g859
sg19
g20
sbag1
(g2
g3
Ntp860
Rp861
(dp862
g7
V631
p863
sg9
VHeatmor
p864
sg11
VSw,Sh,
p865
sg13
VWanderer
p866
sg15
V63
p867
sg17
g867
sg19
g20
sbag1
(g2
g3
Ntp868
Rp869
(dp870
g7
V752
p871
sg9
VAraquanid
p872
sg11
VSw,Sh,
p873
sg13
VWanderer
p874
sg15
V65
p875
sg17
g875
sg19
g20
sbag1
(g2
g3
Ntp876
Rp877
(dp878
g7
V632
p879
sg9
VDurant
p880
sg11
VSw,Sh,
p881
sg13
VWanderer
p882
sg15
V63
p883
sg17
g883
sg19
g20
sbag1
(g2
g3
Ntp884
Rp885
(dp886
g7
V820
p887
sg9
VGreedent
p888
sg11
VSw,Sh,
p889
sg13
VWanderer
p890
sg15
V65
p891
sg17
g891
sg19
g20
sbag1
(g2
g3
Ntp892
Rp893
(dp894
g7
V031
p895
sg9
VNidoqueen
p896
sg11
VSw,Sh,
p897
sg13
VWanderer
p898
sg15
V65
p899
sg17
g899
sg19
g20
sbag1
(g2
g3
Ntp900
Rp901
(dp902
g7
V125
p903
sg9
VElectabuzz
p904
sg11
VSw,Sh,
p905
sg13
VWanderer
p906
sg15
V63
p907
sg17
g907
sg19
g20
sbag1
(g2
g3
Ntp908
Rp909
(dp910
g7
V126
p911
sg9
VMagmar
p912
sg11
VSw,Sh,
p913
sg13
VWanderer
p914
sg15
V62
p915
sg17
g915
sg19
g20
sbag1
(g2
g3
Ntp916
Rp917
(dp918
g7
V362
p919
sg9
VGlalie
p920
sg11
VSw,Sh,
p921
sg13
VWanderer
p922
sg15
V65
p923
sg17
g923
sg19
g20
sbag1
(g2
g3
Ntp924
Rp925
(dp926
g7
V470
p927
sg9
VLeafeon
p928
sg11
VSw,Sh,
p929
sg13
VWanderer
p930
sg15
V63
p931
sg17
g931
sg19
g20
sbag1
(g2
g3
Ntp932
Rp933
(dp934
g7
V478
p935
sg9
VFroslass
p936
sg11
VSw,Sh,
p937
sg13
VWanderer
p938
sg15
V65
p939
sg17
g939
sg19
g20
sbag1
(g2
g3
Ntp940
Rp941
(dp942
g7
V861
p943
sg9
VGrimmsnarl
p944
sg11
VSw,Sh,
p945
sg13
VWanderer
p946
sg15
V65
p947
sg17
g947
sg19
g20
sbag1
(g2
g3
Ntp948
Rp949
(dp950
g7
V862
p951
sg9
VObstagoon
p952
sg11
VSw,Sh,
p953
sg13
VWanderer
p954
sg15
V65
p955
sg17
g955
sg19
g20
sbag1
(g2
g3
Ntp956
Rp957
(dp958
g7
V030
p959
sg9
VNidorina
p960
sg11
VSw,Sh,
p961
sg13
VWanderer
p962
sg15
V63
p963
sg17
g963
sg19
g20
sbag1
(g2
g3
Ntp964
Rp965
(dp966
g7
V136
p967
sg9
VFlareon
p968
sg11
VSw,Sh,
p969
sg13
VWanderer
p970
sg15
V63
p971
sg17
g971
sg19
g20
sbag1
(g2
g3
Ntp972
Rp973
(dp974
g7
V534
p975
sg9
VConkeldurr
p976
sg11
VSw,Sh,
p977
sg13
VWanderer
p978
sg15
V65
p979
sg17
g979
sg19
g20
sbag1
(g2
g3
Ntp980
Rp981
(dp982
g7
V596
p983
sg9
VGalvantula
p984
sg11
VSw,Sh,
p985
sg13
VWanderer
p986
sg15
V63
p987
sg17
g987
sg19
g20
sbag1
(g2
g3
Ntp988
Rp989
(dp990
g7
V609
p991
sg9
VChandelure
p992
sg11
VSw,Sh,
p993
sg13
VWanderer
p994
sg15
V65
p995
sg17
g995
sg19
g20
sbag1
(g2
g3
Ntp996
Rp997
(dp998
g7
V615
p999
sg9
VCryogonal
p1000
sg11
VSw,Sh,
p1001
sg13
VWanderer
p1002
sg15
V62
p1003
sg17
g1003
sg19
g20
sbag1
(g2
g3
Ntp1004
Rp1005
(dp1006
g7
V752
p1007
sg9
VAraquanid
p1008
sg11
VSw,Sh,
p1009
sg13
VWanderer
p1010
sg15
V65
p1011
sg17
g1011
sg19
g20
sbag1
(g2
g3
Ntp1012
Rp1013
(dp1014
g7
V030
p1015
sg9
VNidorina
p1016
sg11
VSw,Sh,
p1017
sg13
VWanderer
p1018
sg15
V63
p1019
sg17
g1019
sg19
g20
sbag1
(g2
g3
Ntp1020
Rp1021
(dp1022
g7
V033
p1023
sg9
VNidorino
p1024
sg11
VSw,Sh,
p1025
sg13
VWanderer
p1026
sg15
V63
p1027
sg17
g1027
sg19
g20
sbag1
(g2
g3
Ntp1028
Rp1029
(dp1030
g7
V036
p1031
sg9
VClefable
p1032
sg11
VSw,Sh,
p1033
sg13
VWanderer
p1034
sg15
V63
p1035
sg17
g1035
sg19
g20
sbag1
(g2
g3
Ntp1036
Rp1037
(dp1038
g7
V437
p1039
sg9
VBronzong
p1040
sg11
VSw,Sh,
p1041
sg13
VWanderer
p1042
sg15
V63
p1043
sg17
g1043
sg19
g20
sbag1
(g2
g3
Ntp1044
Rp1045
(dp1046
g7
V478
p1047
sg9
VFroslass
p1048
sg11
VSw,Sh,
p1049
sg13
VWanderer
p1050
sg15
V65
p1051
sg17
g1051
sg19
g20
sbag1
(g2
g3
Ntp1052
Rp1053
(dp1054
g7
V596
p1055
sg9
VGalvantula
p1056
sg11
VSw,Sh,
p1057
sg13
VWanderer
p1058
sg15
V63
p1059
sg17
g1059
sg19
g20
sbag1
(g2
g3
Ntp1060
Rp1061
(dp1062
g7
V030
p1063
sg9
VNidorina
p1064
sg11
VSw,Sh,
p1065
sg13
VWanderer
p1066
sg15
V63
p1067
sg17
g1067
sg19
g20
sbag1
(g2
g3
Ntp1068
Rp1069
(dp1070
g7
V033
p1071
sg9
VNidorino
p1072
sg11
VSw,Sh,
p1073
sg13
VWanderer
p1074
sg15
V63
p1075
sg17
g1075
sg19
g20
sbag1
(g2
g3
Ntp1076
Rp1077
(dp1078
g7
V609
p1079
sg9
VChandelure
p1080
sg11
VSw,Sh,
p1081
sg13
VWanderer
p1082
sg15
V65
p1083
sg17
g1083
sg19
g20
sbag1
(g2
g3
Ntp1084
Rp1085
(dp1086
g7
V034
p1087
sg9
VNidoking
p1088
sg11
VSw,Sh,
p1089
sg13
VWanderer
p1090
sg15
V65
p1091
sg17
g1091
sg19
g20
sbag1
(g2
g3
Ntp1092
Rp1093
(dp1094
g7
V333
p1095
sg9
VSwablu
p1096
sg11
VSw,Sh,
p1097
sg13
VWanderer
p1098
sg15
V60
p1099
sg17
g1099
sg19
g20
sbag1
(g2
g3
Ntp1100
Rp1101
(dp1102
g7
V471
p1103
sg9
VGlaceon
p1104
sg11
VSw,Sh,
p1105
sg13
VWanderer
p1106
sg15
V63
p1107
sg17
g1107
sg19
g20
sbag1
(g2
g3
Ntp1108
Rp1109
(dp1110
g7
V584
p1111
sg9
VVanilluxe
p1112
sg11
VSw,Sh,
p1113
sg13
VWanderer
p1114
sg15
V65
p1115
sg17
g1115
sg19
g20
sbag1
(g2
g3
Ntp1116
Rp1117
(dp1118
g7
V632
p1119
sg9
VDurant
p1120
sg11
VSw,Sh,
p1121
sg13
VWanderer
p1122
sg15
V63
p1123
sg17
g1123
sg19
g20
sbag1
(g2
g3
Ntp1124
Rp1125
(dp1126
g7
V752
p1127
sg9
VAraquanid
p1128
sg11
VSw,Sh,
p1129
sg13
VWanderer
p1130
sg15
V65
p1131
sg17
g1131
sg19
g20
sbag1
(g2
g3
Ntp1132
Rp1133
(dp1134
g7
V832
p1135
sg9
VDubwool
p1136
sg11
VSw,Sh,
p1137
sg13
VWanderer
p1138
sg15
V63
p1139
sg17
g1139
sg19
g20
sbag1
(g2
g3
Ntp1140
Rp1141
(dp1142
g7
V858
p1143
sg9
VHatterene
p1144
sg11
VSw,Sh,
p1145
sg13
VWanderer
p1146
sg15
V65
p1147
sg17
g1147
sg19
g20
sbag1
(g2
g3
Ntp1148
Rp1149
(dp1150
g7
V031
p1151
sg9
VNidoqueen
p1152
sg11
VSw,Sh,
p1153
sg13
VWanderer
p1154
sg15
V65
p1155
sg17
g1155
sg19
g20
sbag1
(g2
g3
Ntp1156
Rp1157
(dp1158
g7
V034
p1159
sg9
VNidoking
p1160
sg11
VSw,Sh,
p1161
sg13
VWanderer
p1162
sg15
V65
p1163
sg17
g1163
sg19
g20
sbag1
(g2
g3
Ntp1164
Rp1165
(dp1166
g7
V134
p1167
sg9
VVaporeon
p1168
sg11
VSw,Sh,
p1169
sg13
VWanderer
p1170
sg15
V63
p1171
sg17
g1171
sg19
g20
sbag1
(g2
g3
Ntp1172
Rp1173
(dp1174
g7
V362
p1175
sg9
VGlalie
p1176
sg11
VSw,Sh,
p1177
sg13
VWanderer
p1178
sg15
V65
p1179
sg17
g1179
sg19
g20
sbag1
(g2
g3
Ntp1180
Rp1181
(dp1182
g7
V466
p1183
sg9
VElectivire
p1184
sg11
VSw,Sh,
p1185
sg13
VWanderer
p1186
sg15
V65
p1187
sg17
g1187
sg19
g20
sbag1
(g2
g3
Ntp1188
Rp1189
(dp1190
g7
V467
p1191
sg9
VMagmortar
p1192
sg11
VSw,Sh,
p1193
sg13
VWanderer
p1194
sg15
V63
p1195
sg17
g1195
sg19
g20
sbag1
(g2
g3
Ntp1196
Rp1197
(dp1198
g7
V862
p1199
sg9
VObstagoon
p1200
sg11
VSw,Sh,
p1201
sg13
VWanderer
p1202
sg15
V65
p1203
sg17
g1203
sg19
g20
sbag1
(g2
g3
Ntp1204
Rp1205
(dp1206
g7
V034
p1207
sg9
VNidoking
p1208
sg11
VSw,Sh,
p1209
sg13
VWanderer
p1210
sg15
V65
p1211
sg17
g1211
sg19
g20
sbag1
(g2
g3
Ntp1212
Rp1213
(dp1214
g7
V135
p1215
sg9
VJolteon
p1216
sg11
VSw,Sh,
p1217
sg13
VWanderer
p1218
sg15
V63
p1219
sg17
g1219
sg19
g20
sbag1
(g2
g3
Ntp1220
Rp1221
(dp1222
g7
V143
p1223
sg9
VSnorlax
p1224
sg11
g196
sg13
VWanderer
p1225
sg15
V65
p1226
sg17
g1226
sg19
g20
sbag1
(g2
g3
Ntp1227
Rp1228
(dp1229
g7
V334
p1230
sg9
VAltaria
p1231
sg11
VSw,Sh,
p1232
sg13
VWanderer
p1233
sg15
V65
p1234
sg17
g1234
sg19
g20
sbag1
(g2
g3
Ntp1235
Rp1236
(dp1237
g7
V359
p1238
sg9
VAbsol
p1239
sg11
VSw,Sh,
p1240
sg13
VWanderer
p1241
sg15
V65
p1242
sg17
g1242
sg19
g20
sbag1
(g2
g3
Ntp1243
Rp1244
(dp1245
g7
V700
p1246
sg9
VSylveon
p1247
sg11
VSw,Sh,
p1248
sg13
VWanderer
p1249
sg15
V63
p1250
sg17
g1250
sg19
g20
sbag1
(g2
g3
Ntp1251
Rp1252
(dp1253
g7
V752
p1254
sg9
VAraquanid
p1255
sg11
VSw,Sh,
p1256
sg13
VWanderer
p1257
sg15
V65
p1258
sg17
g1258
sg19
g20
sbag1
(g2
g3
Ntp1259
Rp1260
(dp1261
g7
V874
p1262
sg9
VStonjourner
p1263
sg11
g186
sg13
VWanderer
p1264
sg15
V63
p1265
sg17
g1265
sg19
g20
sbag1
(g2
g3
Ntp1266
Rp1267
(dp1268
g7
V030
p1269
sg9
VNidorina
p1270
sg11
VSw,Sh,
p1271
sg13
VWanderer
p1272
sg15
V63
p1273
sg17
g1273
sg19
g20
sbag1
(g2
g3
Ntp1274
Rp1275
(dp1276
g7
V033
p1277
sg9
VNidorino
p1278
sg11
VSw,Sh,
p1279
sg13
VWanderer
p1280
sg15
V63
p1281
sg17
g1281
sg19
g20
sbag1
(g2
g3
Ntp1282
Rp1283
(dp1284
g7
V126
p1285
sg9
VMagmar
p1286
sg11
VSw,Sh,
p1287
sg13
VWanderer
p1288
sg15
V62
p1289
sg17
g1289
sg19
g20
sbag1
(g2
g3
Ntp1290
Rp1291
(dp1292
g7
V609
p1293
sg9
VChandelure
p1294
sg11
VSw,Sh,
p1295
sg13
VWanderer
p1296
sg15
V65
p1297
sg17
g1297
sg19
g20
sbag1
(g2
g3
Ntp1298
Rp1299
(dp1300
g7
V615
p1301
sg9
VCryogonal
p1302
sg11
VSw,Sh,
p1303
sg13
VWanderer
p1304
sg15
V62
p1305
sg17
g1305
sg19
g20
sbag1
(g2
g3
Ntp1306
Rp1307
(dp1308
g7
V752
p1309
sg9
VAraquanid
p1310
sg11
VSw,Sh,
p1311
sg13
VWanderer
p1312
sg15
V65
p1313
sg17
g1313
sg19
g20
sbag1
(g2
g3
Ntp1314
Rp1315
(dp1316
g7
V030
p1317
sg9
VNidorina
p1318
sg11
VSw,Sh,
p1319
sg13
VWanderer
p1320
sg15
V63
p1321
sg17
g1321
sg19
g20
sbag1
(g2
g3
Ntp1322
Rp1323
(dp1324
g7
V584
p1325
sg9
VVanilluxe
p1326
sg11
VSw,Sh,
p1327
sg13
VWanderer
p1328
sg15
V65
p1329
sg17
g1329
sg19
g20
sbag1
(g2
g3
Ntp1330
Rp1331
(dp1332
g7
V596
p1333
sg9
VGalvantula
p1334
sg11
VSw,Sh,
p1335
sg13
VWanderer
p1336
sg15
V63
p1337
sg17
g1337
sg19
g20
sbag1
(g2
g3
Ntp1338
Rp1339
(dp1340
g7
V632
p1341
sg9
VDurant
p1342
sg11
VSw,Sh,
p1343
sg13
VWanderer
p1344
sg15
V63
p1345
sg17
g1345
sg19
g20
sbag1
(g2
g3
Ntp1346
Rp1347
(dp1348
g7
V752
p1349
sg9
VAraquanid
p1350
sg11
VSw,Sh,
p1351
sg13
VWanderer
p1352
sg15
V65
p1353
sg17
g1353
sg19
g20
sbag1
(g2
g3
Ntp1354
Rp1355
(dp1356
g7
V778
p1357
sg9
VMimikyu
p1358
sg11
VSw,Sh,
p1359
sg13
VWanderer
p1360
sg15
V62
p1361
sg17
g1361
sg19
g20
sbag1
(g2
g3
Ntp1362
Rp1363
(dp1364
g7
V832
p1365
sg9
VDubwool
p1366
sg11
VSw,Sh,
p1367
sg13
VWanderer
p1368
sg15
V63
p1369
sg17
g1369
sg19
g20
sbag1
(g2
g3
Ntp1370
Rp1371
(dp1372
g7
V862
p1373
sg9
VObstagoon
p1374
sg11
VSw,Sh,
p1375
sg13
VWanderer
p1376
sg15
V65
p1377
sg17
g1377
sg19
g20
sbag1
(g2
g3
Ntp1378
Rp1379
(dp1380
g7
V030
p1381
sg9
VNidorina
p1382
sg11
VSw,Sh,
p1383
sg13
VWanderer
p1384
sg15
V63
p1385
sg17
g1385
sg19
g20
sbag1
(g2
g3
Ntp1386
Rp1387
(dp1388
g7
V125
p1389
sg9
VElectabuzz
p1390
sg11
VSw,Sh,
p1391
sg13
VWanderer
p1392
sg15
V63
p1393
sg17
g1393
sg19
g20
sbag1
(g2
g3
Ntp1394
Rp1395
(dp1396
g7
V197
p1397
sg9
VUmbreon
p1398
sg11
VSw,Sh,
p1399
sg13
VWanderer
p1400
sg15
V63
p1401
sg17
g1401
sg19
g20
sbag1
(g2
g3
Ntp1402
Rp1403
(dp1404
g7
V362
p1405
sg9
VGlalie
p1406
sg11
VSw,Sh,
p1407
sg13
VWanderer
p1408
sg15
V65
p1409
sg17
g1409
sg19
g20
sbag1
(g2
g3
Ntp1410
Rp1411
(dp1412
g7
V437
p1413
sg9
VBronzong
p1414
sg11
VSw,Sh,
p1415
sg13
VWanderer
p1416
sg15
V63
p1417
sg17
g1417
sg19
g20
sbag1
(g2
g3
Ntp1418
Rp1419
(dp1420
g7
V470
p1421
sg9
VLeafeon
p1422
sg11
VSw,Sh,
p1423
sg13
VWanderer
p1424
sg15
V63
p1425
sg17
g1425
sg19
g20
sbag1
(g2
g3
Ntp1426
Rp1427
(dp1428
g7
V615
p1429
sg9
VCryogonal
p1430
sg11
VSw,Sh,
p1431
sg13
VWanderer
p1432
sg15
V62
p1433
sg17
g1433
sg19
g20
sbag1
(g2
g3
Ntp1434
Rp1435
(dp1436
g7
V631
p1437
sg9
VHeatmor
p1438
sg11
VSw,Sh,
p1439
sg13
VWanderer
p1440
sg15
V63
p1441
sg17
g1441
sg19
g20
sbag1
(g2
g3
Ntp1442
Rp1443
(dp1444
g7
V031
p1445
sg9
VNidoqueen
p1446
sg11
VSw,Sh,
p1447
sg13
VWanderer
p1448
sg15
V65
p1449
sg17
g1449
sg19
g20
sbag1
(g2
g3
Ntp1450
Rp1451
(dp1452
g7
V034
p1453
sg9
VNidoking
p1454
sg11
VSw,Sh,
p1455
sg13
VWanderer
p1456
sg15
V65
p1457
sg17
g1457
sg19
g20
sbag1
(g2
g3
Ntp1458
Rp1459
(dp1460
g7
V466
p1461
sg9
VElectivire
p1462
sg11
VSw,Sh,
p1463
sg13
VWanderer
p1464
sg15
V65
p1465
sg17
g1465
sg19
g20
sbag1
(g2
g3
Ntp1466
Rp1467
(dp1468
g7
V467
p1469
sg9
VMagmortar
p1470
sg11
VSw,Sh,
p1471
sg13
VWanderer
p1472
sg15
V63
p1473
sg17
g1473
sg19
g20
sbag1
(g2
g3
Ntp1474
Rp1475
(dp1476
g7
V036
p1477
sg9
VClefable
p1478
sg11
VSw,Sh,
p1479
sg13
VWanderer
p1480
sg15
V63
p1481
sg17
g1481
sg19
g20
sbag1
(g2
g3
Ntp1482
Rp1483
(dp1484
g7
V334
p1485
sg9
VAltaria
p1486
sg11
VSw,Sh,
p1487
sg13
VWanderer
p1488
sg15
V65
p1489
sg17
g1489
sg19
g20
sbag1
(g2
g3
Ntp1490
Rp1491
(dp1492
g7
V359
p1493
sg9
VAbsol
p1494
sg11
VSw,Sh,
p1495
sg13
VWanderer
p1496
sg15
V65
p1497
sg17
g1497
sg19
g20
sbag1
(g2
g3
Ntp1498
Rp1499
(dp1500
g7
V362
p1501
sg9
VGlalie
p1502
sg11
VSw,Sh,
p1503
sg13
VWanderer
p1504
sg15
V65
p1505
sg17
g1505
sg19
g20
sbag1
(g2
g3
Ntp1506
Rp1507
(dp1508
g7
V437
p1509
sg9
VBronzong
p1510
sg11
VSw,Sh,
p1511
sg13
VWanderer
p1512
sg15
V63
p1513
sg17
g1513
sg19
g20
sbag1
(g2
g3
Ntp1514
Rp1515
(dp1516
g7
V596
p1517
sg9
VGalvantula
p1518
sg11
VSw,Sh,
p1519
sg13
VWanderer
p1520
sg15
V63
p1521
sg17
g1521
sg19
g20
sbag1
(g2
g3
Ntp1522
Rp1523
(dp1524
g7
V632
p1525
sg9
VDurant
p1526
sg11
VSw,Sh,
p1527
sg13
VWanderer
p1528
sg15
V63
p1529
sg17
g1529
sg19
g20
sbag1
(g2
g3
Ntp1530
Rp1531
(dp1532
g7
V832
p1533
sg9
VDubwool
p1534
sg11
VSw,Sh,
p1535
sg13
VWanderer
p1536
sg15
V63
p1537
sg17
g1537
sg19
g20
sbag1
(g2
g3
Ntp1538
Rp1539
(dp1540
g7
V125
p1541
sg9
VElectabuzz
p1542
sg11
VSw,Sh,
p1543
sg13
VWanderer
p1544
sg15
V63
p1545
sg17
g1545
sg19
g20
sbag1
(g2
g3
Ntp1546
Rp1547
(dp1548
g7
V126
p1549
sg9
VMagmar
p1550
sg11
VSw,Sh,
p1551
sg13
VWanderer
p1552
sg15
V62
p1553
sg17
g1553
sg19
g20
sbag1
(g2
g3
Ntp1554
Rp1555
(dp1556
g7
V437
p1557
sg9
VBronzong
p1558
sg11
VSw,Sh,
p1559
sg13
VWanderer
p1560
sg15
V63
p1561
sg17
g1561
sg19
g20
sbag1
(g2
g3
Ntp1562
Rp1563
(dp1564
g7
V584
p1565
sg9
VVanilluxe
p1566
sg11
VSw,Sh,
p1567
sg13
VWanderer
p1568
sg15
V65
p1569
sg17
g1569
sg19
g20
sbag1
(g2
g3
Ntp1570
Rp1571
(dp1572
g7
V752
p1573
sg9
VAraquanid
p1574
sg11
VSw,Sh,
p1575
sg13
VWanderer
p1576
sg15
V65
p1577
sg17
g1577
sg19
g20
sbag1
(g2
g3
Ntp1578
Rp1579
(dp1580
g7
V030
p1581
sg9
VNidorina
p1582
sg11
VSw,Sh,
p1583
sg13
VWanderer
p1584
sg15
V63
p1585
sg17
g1585
sg19
g20
sbag1
(g2
g3
Ntp1586
Rp1587
(dp1588
g7
V033
p1589
sg9
VNidorino
p1590
sg11
VSw,Sh,
p1591
sg13
VWanderer
p1592
sg15
V63
p1593
sg17
g1593
sg19
g20
sbag1
(g2
g3
Ntp1594
Rp1595
(dp1596
g7
V631
p1597
sg9
VHeatmor
p1598
sg11
VSw,Sh,
p1599
sg13
VWanderer
p1600
sg15
V63
p1601
sg17
g1601
sg19
g20
sbag1
(g2
g3
Ntp1602
Rp1603
(dp1604
g7
V143
p1605
sg9
VSnorlax
p1606
sg11
g196
sg13
VWanderer
p1607
sg15
V65
p1608
sg17
g1608
sg19
V0
p1609
sbag1
(g2
g3
Ntp1610
Rp1611
(dp1612
g7
V874
p1613
sg9
VStonjourner
p1614
sg11
g186
sg13
VWanderer
p1615
sg15
V63
p1616
sg17
g1616
sg19
V0
p1617
sbag1
(g2
g3
Ntp1618
Rp1619
(dp1620
g7
V031
p1621
sg9
VNidoqueen
p1622
sg11
VSw,Sh,
p1623
sg13
VWanderer
p1624
sg15
V65
p1625
sg17
g1625
sg19
g20
sbag1
(g2
g3
Ntp1626
Rp1627
(dp1628
g7
V125
p1629
sg9
VElectabuzz
p1630
sg11
VSw,Sh,
p1631
sg13
VWanderer
p1632
sg15
V63
p1633
sg17
g1633
sg19
g20
sbag1
(g2
g3
Ntp1634
Rp1635
(dp1636
g7
V126
p1637
sg9
VMagmar
p1638
sg11
VSw,Sh,
p1639
sg13
VWanderer
p1640
sg15
V62
p1641
sg17
g1641
sg19
g20
sbag1
(g2
g3
Ntp1642
Rp1643
(dp1644
g7
V362
p1645
sg9
VGlalie
p1646
sg11
VSw,Sh,
p1647
sg13
VWanderer
p1648
sg15
V65
p1649
sg17
g1649
sg19
g20
sbag1
(g2
g3
Ntp1650
Rp1651
(dp1652
g7
V609
p1653
sg9
VChandelure
p1654
sg11
VSw,Sh,
p1655
sg13
VWanderer
p1656
sg15
V65
p1657
sg17
g1657
sg19
g20
sbag1
(g2
g3
Ntp1658
Rp1659
(dp1660
g7
V752
p1661
sg9
VAraquanid
p1662
sg11
VSw,Sh,
p1663
sg13
VWanderer
p1664
sg15
V65
p1665
sg17
g1665
sg19
g20
sbag1
(g2
g3
Ntp1666
Rp1667
(dp1668
g7
V778
p1669
sg9
VMimikyu
p1670
sg11
VSw,Sh,
p1671
sg13
VWanderer
p1672
sg15
V62
p1673
sg17
g1673
sg19
g20
sbag1
(g2
g3
Ntp1674
Rp1675
(dp1676
g7
V036
p1677
sg9
VClefable
p1678
sg11
VSw,Sh,
p1679
sg13
VWanderer
p1680
sg15
V63
p1681
sg17
g1681
sg19
g20
sbag1
(g2
g3
Ntp1682
Rp1683
(dp1684
g7
V135
p1685
sg9
VJolteon
p1686
sg11
VSw,Sh,
p1687
sg13
VWanderer
p1688
sg15
V63
p1689
sg17
g1689
sg19
g20
sbag1
(g2
g3
Ntp1690
Rp1691
(dp1692
g7
V437
p1693
sg9
VBronzong
p1694
sg11
VSw,Sh,
p1695
sg13
VWanderer
p1696
sg15
V63
p1697
sg17
g1697
sg19
g20
sbag1
(g2
g3
Ntp1698
Rp1699
(dp1700
g7
V471
p1701
sg9
VGlaceon
p1702
sg11
VSw,Sh,
p1703
sg13
VWanderer
p1704
sg15
V63
p1705
sg17
g1705
sg19
g20
sbag1
(g2
g3
Ntp1706
Rp1707
(dp1708
g7
V534
p1709
sg9
VConkeldurr
p1710
sg11
VSw,Sh,
p1711
sg13
VWanderer
p1712
sg15
V65
p1713
sg17
g1713
sg19
g20
sbag1
(g2
g3
Ntp1714
Rp1715
(dp1716
g7
V615
p1717
sg9
VCryogonal
p1718
sg11
VSw,Sh,
p1719
sg13
VWanderer
p1720
sg15
V62
p1721
sg17
g1721
sg19
g20
sbag1
(g2
g3
Ntp1722
Rp1723
(dp1724
g7
V632
p1725
sg9
VDurant
p1726
sg11
VSw,Sh,
p1727
sg13
VWanderer
p1728
sg15
V63
p1729
sg17
g1729
sg19
g20
sbag1
(g2
g3
Ntp1730
Rp1731
(dp1732
g7
V862
p1733
sg9
VObstagoon
p1734
sg11
VSw,Sh,
p1735
sg13
VWanderer
p1736
sg15
V65
p1737
sg17
g1737
sg19
g20
sbag1
(g2
g3
Ntp1738
Rp1739
(dp1740
g7
V143
p1741
sg9
VSnorlax
p1742
sg11
g196
sg13
VWanderer
p1743
sg15
V65
p1744
sg17
g1744
sg19
V0
p1745
sbag1
(g2
g3
Ntp1746
Rp1747
(dp1748
g7
V874
p1749
sg9
VStonjourner
p1750
sg11
g186
sg13
VWanderer
p1751
sg15
V63
p1752
sg17
g1752
sg19
V0
p1753
sbag1
(g2
g3
Ntp1754
Rp1755
(dp1756
g7
V030
p1757
sg9
VNidorina
p1758
sg11
VSw,Sh,
p1759
sg13
VWanderer
p1760
sg15
V63
p1761
sg17
g1761
sg19
g20
sbag1
(g2
g3
Ntp1762
Rp1763
(dp1764
g7
V033
p1765
sg9
VNidorino
p1766
sg11
VSw,Sh,
p1767
sg13
VWanderer
p1768
sg15
V63
p1769
sg17
g1769
sg19
g20
sbag1
(g2
g3
Ntp1770
Rp1771
(dp1772
g7
V134
p1773
sg9
VVaporeon
p1774
sg11
VSw,Sh,
p1775
sg13
VWanderer
p1776
sg15
V63
p1777
sg17
g1777
sg19
g20
sbag1
(g2
g3
Ntp1778
Rp1779
(dp1780
g7
V359
p1781
sg9
VAbsol
p1782
sg11
VSw,Sh,
p1783
sg13
VWanderer
p1784
sg15
V65
p1785
sg17
g1785
sg19
g20
sbag1
(g2
g3
Ntp1786
Rp1787
(dp1788
g7
V632
p1789
sg9
VDurant
p1790
sg11
VSw,Sh,
p1791
sg13
VWanderer
p1792
sg15
V63
p1793
sg17
g1793
sg19
g20
sbag1
(g2
g3
Ntp1794
Rp1795
(dp1796
g7
V752
p1797
sg9
VAraquanid
p1798
sg11
VSw,Sh,
p1799
sg13
VWanderer
p1800
sg15
V65
p1801
sg17
g1801
sg19
g20
sbag1
(g2
g3
Ntp1802
Rp1803
(dp1804
g7
V858
p1805
sg9
VHatterene
p1806
sg11
VSw,Sh,
p1807
sg13
VWanderer
p1808
sg15
V65
p1809
sg17
g1809
sg19
g20
sbag1
(g2
g3
Ntp1810
Rp1811
(dp1812
g7
V031
p1813
sg9
VNidoqueen
p1814
sg11
VSw,Sh,
p1815
sg13
VWanderer
p1816
sg15
V65
p1817
sg17
g1817
sg19
g20
sbag1
(g2
g3
Ntp1818
Rp1819
(dp1820
g7
V034
p1821
sg9
VNidoking
p1822
sg11
VSw,Sh,
p1823
sg13
VWanderer
p1824
sg15
V65
p1825
sg17
g1825
sg19
g20
sbag1
(g2
g3
Ntp1826
Rp1827
(dp1828
g7
V466
p1829
sg9
VElectivire
p1830
sg11
VSw,Sh,
p1831
sg13
VWanderer
p1832
sg15
V65
p1833
sg17
g1833
sg19
g20
sbag1
(g2
g3
Ntp1834
Rp1835
(dp1836
g7
V467
p1837
sg9
VMagmortar
p1838
sg11
VSw,Sh,
p1839
sg13
VWanderer
p1840
sg15
V63
p1841
sg17
g1841
sg19
g20
sbag1
(g2
g3
Ntp1842
Rp1843
(dp1844
g7
V340
p1845
sg9
VWhiscash
p1846
sg11
VSw,Sh,
p1847
sg13
VWanderer
p1848
sg15
V65
p1849
sg17
g1849
sg19
V0
p1850
sbag1
(g2
g3
Ntp1851
Rp1852
(dp1853
g7
V130
p1854
sg9
VGyarados
p1855
sg11
VSw,Sh,
p1856
sg13
VWanderer
p1857
sg15
V67
p1858
sg17
g1858
sg19
g20
sbag1
(g2
g3
Ntp1859
Rp1860
(dp1861
g7
V350
p1862
sg9
VMilotic
p1863
sg11
VSw,Sh,
p1864
sg13
VWanderer
p1865
sg15
V67
p1866
sg17
g1866
sg19
g20
sbag1
(g2
g3
Ntp1867
Rp1868
(dp1869
g7
V130
p1870
sg9
VGyarados
p1871
sg11
VSw,Sh,
p1872
sg13
VWanderer
p1873
sg15
V67
p1874
sg17
g1874
sg19
g20
sbag1
(g2
g3
Ntp1875
Rp1876
(dp1877
g7
V340
p1878
sg9
VWhiscash
p1879
sg11
VSw,Sh,
p1880
sg13
VWanderer
p1881
sg15
V65
p1882
sg17
g1882
sg19
g20
sbag1
(g2
g3
Ntp1883
Rp1884
(dp1885
g7
V130
p1886
sg9
VGyarados
p1887
sg11
VSw,Sh,
p1888
sg13
VWanderer
p1889
sg15
V67
p1890
sg17
g1890
sg19
g20
sbag1
(g2
g3
Ntp1891
Rp1892
(dp1893
g7
V350
p1894
sg9
VMilotic
p1895
sg11
VSw,Sh,
p1896
sg13
VWanderer
p1897
sg15
V67
p1898
sg17
g1898
sg19
g20
sbag1
(g2
g3
Ntp1899
Rp1900
(dp1901
g7
V142
p1902
sg9
VAerodactyl
p1903
sg11
VSw,Sh,
p1904
sg13
VWanderer
p1905
sg15
V65
p1906
sg17
g1906
sg19
V0
p1907
sbag1
(g2
g3
Ntp1908
Rp1909
(dp1910
g7
V142
p1911
sg9
VAerodactyl
p1912
sg11
VSw,Sh,
p1913
sg13
VWanderer
p1914
sg15
V65
p1915
sg17
g1915
sg19
V0
p1916
sbag1
(g2
g3
Ntp1917
Rp1918
(dp1919
g7
V142
p1920
sg9
VAerodactyl
p1921
sg11
VSw,Sh,
p1922
sg13
VWanderer
p1923
sg15
V65
p1924
sg17
g1924
sg19
V0
p1925
sbag1
(g2
g3
Ntp1926
Rp1927
(dp1928
g7
V029
p1929
sg9
VNidoran\u2640
p1930
sg11
VSw,Sh,
p1931
sg13
VWanderer
p1932
sg15
V60
p1933
sg17
g1933
sg19
g20
sbag1
(g2
g3
Ntp1934
Rp1935
(dp1936
g7
V032
p1937
sg9
VNidoran\u2642
p1938
sg11
VSw,Sh,
p1939
sg13
VWanderer
p1940
sg15
V60
p1941
sg17
g1941
sg19
g20
sbag1
(g2
g3
Ntp1942
Rp1943
(dp1944
g7
V034
p1945
sg9
VNidoking
p1946
sg11
VSw,Sh,
p1947
sg13
VWanderer
p1948
sg15
V65
p1949
sg17
g1949
sg19
g20
sbag1
(g2
g3
Ntp1950
Rp1951
(dp1952
g7
V531
p1953
sg9
VAudino
p1954
sg11
VSw,Sh,
p1955
sg13
VWanderer
p1956
sg15
V62
p1957
sg17
g1957
sg19
V0
p1958
sbag1
(g2
g3
Ntp1959
Rp1960
(dp1961
g7
V531
p1962
sg9
VAudino
p1963
sg11
VSw,Sh,
p1964
sg13
VWanderer
p1965
sg15
V62
p1966
sg17
g1966
sg19
V0
p1967
sbag1
(g2
g3
Ntp1968
Rp1969
(dp1970
g7
V531
p1971
sg9
VAudino
p1972
sg11
VSw,Sh,
p1973
sg13
VWanderer
p1974
sg15
V62
p1975
sg17
g1975
sg19
V0
p1976
sbag1
(g2
g3
Ntp1977
Rp1978
(dp1979
g7
V031
p1980
sg9
VNidoqueen
p1981
sg11
VSw,Sh,
p1982
sg13
VWanderer
p1983
sg15
V65
p1984
sg17
g1984
sg19
g20
sbag1
(g2
g3
Ntp1985
Rp1986
(dp1987
g7
V034
p1988
sg9
VNidoking
p1989
sg11
VSw,Sh,
p1990
sg13
VWanderer
p1991
sg15
V65
p1992
sg17
g1992
sg19
g20
sbag1
(g2
g3
Ntp1993
Rp1994
(dp1995
g7
V861
p1996
sg9
VGrimmsnarl
p1997
sg11
VSw,Sh,
p1998
sg13
VWanderer
p1999
sg15
V65
p2000
sg17
g2000
sg19
g20
sba.