(lp0
ccopy_reg
_reconstructor
p1
(c__main__
WildPokemon
p2
c__builtin__
object
p3
Ntp4
Rp5
(dp6
VpDexNo
p7
V042
p8
sVpSpecies
p9
VGolbat
p10
sVpGames
p11
VB,W,
p12
sVpArea
p13
VGrass
p14
sVpMinLevel
p15
V48
p16
sVpMaxLevel
p17
V50
p18
sVpRate
p19
V15
p20
sbag1
(g2
g3
Ntp21
Rp22
(dp23
g7
V114
p24
sg9
VTangela
p25
sg11
VB,W,
p26
sg13
VGrass
p27
sg15
V47
p28
sg17
V49
p29
sg19
V25
p30
sbag1
(g2
g3
Ntp31
Rp32
(dp33
g7
V277
p34
sg9
VSwellow
p35
sg11
VB,W,
p36
sg13
VGrass
p37
sg15
V47
p38
sg17
g38
sg19
V20
p39
sbag1
(g2
g3
Ntp40
Rp41
(dp42
g7
V337
p43
sg9
VLunatone
p44
sg11
VB,W,
p45
sg13
VGrass
p46
sg15
V48
p47
sg17
g47
sg19
V10
p48
sbag1
(g2
g3
Ntp49
Rp50
(dp51
g7
V338
p52
sg9
VSolrock
p53
sg11
VB,W,
p54
sg13
VGrass
p55
sg15
V48
p56
sg17
g56
sg19
V10
p57
sbag1
(g2
g3
Ntp58
Rp59
(dp60
g7
V359
p61
sg9
VAbsol
p62
sg11
VB,W,
p63
sg13
VGrass
p64
sg15
V48
p65
sg17
V50
p66
sg19
V10
p67
sbag1
(g2
g3
Ntp68
Rp69
(dp70
g7
V426
p71
sg9
VDrifblim
p72
sg11
VB,W,
p73
sg13
VGrass
p74
sg15
V49
p75
sg17
g75
sg19
V10
p76
sbag1
(g2
g3
Ntp77
Rp78
(dp79
g7
V042
p80
sg9
VGolbat
p81
sg11
VB,W,
p82
sg13
VDark
p83
sg15
V58
p84
sg17
V60
p85
sg19
V15
p86
sbag1
(g2
g3
Ntp87
Rp88
(dp89
g7
V114
p90
sg9
VTangela
p91
sg11
VB,W,
p92
sg13
VDark
p93
sg15
V57
p94
sg17
V59
p95
sg19
V25
p96
sbag1
(g2
g3
Ntp97
Rp98
(dp99
g7
V277
p100
sg9
VSwellow
p101
sg11
VB,W,
p102
sg13
VDark
p103
sg15
V57
p104
sg17
g104
sg19
V20
p105
sbag1
(g2
g3
Ntp106
Rp107
(dp108
g7
V337
p109
sg9
VLunatone
p110
sg11
VB,W,
p111
sg13
VDark
p112
sg15
V58
p113
sg17
g113
sg19
V10
p114
sbag1
(g2
g3
Ntp115
Rp116
(dp117
g7
V338
p118
sg9
VSolrock
p119
sg11
VB,W,
p120
sg13
VDark
p121
sg15
V58
p122
sg17
g122
sg19
V10
p123
sbag1
(g2
g3
Ntp124
Rp125
(dp126
g7
V359
p127
sg9
VAbsol
p128
sg11
VB,W,
p129
sg13
VDark
p130
sg15
V58
p131
sg17
V60
p132
sg19
V10
p133
sbag1
(g2
g3
Ntp134
Rp135
(dp136
g7
V426
p137
sg9
VDrifblim
p138
sg11
VB,W,
p139
sg13
VDark
p140
sg15
V59
p141
sg17
g141
sg19
V10
p142
sbag1
(g2
g3
Ntp143
Rp144
(dp145
g7
V169
p146
sg9
VCrobat
p147
sg11
VB,W,
p148
sg13
VRustling
p149
sg15
V50
p150
sg17
g150
sg19
V5
p151
sbag1
(g2
g3
Ntp152
Rp153
(dp154
g7
V465
p155
sg9
VTangrowth
p156
sg11
VB,W,
p157
sg13
VRustling
p158
sg15
V50
p159
sg17
g159
sg19
V5
p160
sbag1
(g2
g3
Ntp161
Rp162
(dp163
g7
V531
p164
sg9
VAudino
p165
sg11
VB,W,
p166
sg13
VRustling
p167
sg15
V47
p168
sg17
V50
p169
sg19
V80
p170
sbag1
(g2
g3
Ntp171
Rp172
(dp173
g7
V587
p174
sg9
VEmolga
p175
sg11
VB,W,
p176
sg13
VRustling
p177
sg15
V48
p178
sg17
g178
sg19
V10
p179
sbag1
(g2
g3
Ntp180
Rp181
(dp182
g7
V221
p183
sg9
VPiloswine
p184
sg11
VB,W,
p185
sg13
VCave
p186
sg15
V47
p187
sg17
V49
p188
sg19
V25
p189
sbag1
(g2
g3
Ntp190
Rp191
(dp192
g7
V042
p193
sg9
VGolbat
p194
sg11
VB,W,
p195
sg13
VCave
p196
sg15
V47
p197
sg17
g197
sg19
V20
p198
sbag1
(g2
g3
Ntp199
Rp200
(dp201
g7
V215
p202
sg9
VSneasel
p203
sg11
VB,W,
p204
sg13
VCave
p205
sg15
V48
p206
sg17
g206
sg19
V10
p207
sbag1
(g2
g3
Ntp208
Rp209
(dp210
g7
V225
p211
sg9
VDelibird
p212
sg11
VB,W,
p213
sg13
VCave
p214
sg15
V48
p215
sg17
g215
sg19
V10
p216
sbag1
(g2
g3
Ntp217
Rp218
(dp219
g7
V337
p220
sg9
VLunatone
p221
sg11
VB,W,
p222
sg13
VCave
p223
sg15
V50
p224
sg17
g224
sg19
V10
p225
sbag1
(g2
g3
Ntp226
Rp227
(dp228
g7
V338
p229
sg9
VSolrock
p230
sg11
VB,W,
p231
sg13
VCave
p232
sg15
V50
p233
sg17
g233
sg19
V10
p234
sbag1
(g2
g3
Ntp235
Rp236
(dp237
g7
V124
p238
sg9
VJynx
p239
sg11
VB,W,
p240
sg13
VCave
p241
sg15
V48
p242
sg17
V50
p243
sg19
V10
p244
sbag1
(g2
g3
Ntp245
Rp246
(dp247
g7
V525
p248
sg9
VBoldore
p249
sg11
VB,W,
p250
sg13
VCave
p251
sg15
V49
p252
sg17
g252
sg19
V5
p253
sbag1
(g2
g3
Ntp254
Rp255
(dp256
g7
V530
p257
sg9
VExcadrill
p258
sg11
VB,W,
p259
sg13
VDust
p260
sg15
V47
p261
sg17
V50
p262
sg19
V100
p263
sbag1
(g2
g3
Ntp264
Rp265
(dp266
g7
V550
p267
sg9
VBasculin
p268
sg11
VB,
p269
sg13
VSurf
p270
sg15
V25
p271
sg17
V55
p272
sg19
V70
p273
sbag1
(g2
g3
Ntp274
Rp275
(dp276
g7
V550
p277
sg9
VBasculin
p278
sg11
VW,
p279
sg13
VSurf
p280
sg15
V25
p281
sg17
V55
p282
sg19
V70
p283
sbag1
(g2
g3
Ntp284
Rp285
(dp286
g7
V086
p287
sg9
VSeel
p288
sg11
VB,W,
p289
sg13
VSurf
p290
sg15
V25
p291
sg17
V55
p292
sg19
V30
p293
sbag1
(g2
g3
Ntp294
Rp295
(dp296
g7
V086
p297
sg9
VSeel
p298
sg11
VB,W,
p299
sg13
VRippling
p300
sg15
V26
p301
sg17
V60
p302
sg19
V60
p303
sbag1
(g2
g3
Ntp304
Rp305
(dp306
g7
V550
p307
sg9
VBasculin
p308
sg11
g269
sg13
VRippling
p309
sg15
V25
p310
sg17
V60
p311
sg19
V30
p312
sbag1
(g2
g3
Ntp313
Rp314
(dp315
g7
V550
p316
sg9
VBasculin
p317
sg11
g279
sg13
VRippling
p318
sg15
V25
p319
sg17
V60
p320
sg19
V30
p321
sbag1
(g2
g3
Ntp322
Rp323
(dp324
g7
V087
p325
sg9
VDewgong
p326
sg11
VB,W,
p327
sg13
VRippling
p328
sg15
V35
p329
sg17
V70
p330
sg19
V10
p331
sbag1
(g2
g3
Ntp332
Rp333
(dp334
g7
V060
p335
sg9
VPoliwag
p336
sg11
VB,W,
p337
sg13
VFishing
p338
sg15
V35
p339
sg17
V55
p340
sg19
V65
p341
sbag1
(g2
g3
Ntp342
Rp343
(dp344
g7
V550
p345
sg9
VBasculin
p346
sg11
g269
sg13
VFishing
p347
sg15
V35
p348
sg17
V55
p349
sg19
V30
p350
sbag1
(g2
g3
Ntp351
Rp352
(dp353
g7
V550
p354
sg9
VBasculin
p355
sg11
g279
sg13
VFishing
p356
sg15
V35
p357
sg17
V55
p358
sg19
V30
p359
sbag1
(g2
g3
Ntp360
Rp361
(dp362
g7
V061
p363
sg9
VPoliwhirl
p364
sg11
VB,W,
p365
sg13
VFishing
p366
sg15
V35
p367
sg17
V55
p368
sg19
V5
p369
sbag1
(g2
g3
Ntp370
Rp371
(dp372
g7
V061
p373
sg9
VPoliwhirl
p374
sg11
VB,W,
p375
sg13
VRippling
p376
sg15
V35
p377
sg17
V70
p378
sg19
V65
p379
sbag1
(g2
g3
Ntp380
Rp381
(dp382
g7
V550
p383
sg9
VBasculin
p384
sg11
g279
sg13
VRippling
p385
sg15
V35
p386
sg17
V60
p387
sg19
V30
p388
sbag1
(g2
g3
Ntp389
Rp390
(dp391
g7
V550
p392
sg9
VBasculin
p393
sg11
g269
sg13
VRippling
p394
sg15
V35
p395
sg17
V60
p396
sg19
V30
p397
sbag1
(g2
g3
Ntp398
Rp399
(dp400
g7
V062
p401
sg9
VPoliwrath
p402
sg11
VB,W,
p403
sg13
VRippling
p404
sg15
V45
p405
sg17
V70
p406
sg19
V5
p407
sbag1
(g2
g3
Ntp408
Rp409
(dp410
g7
V035
p411
sg9
VClefairy
p412
sg11
VB,W,
p413
sg13
VGrass
p414
sg15
V52
p415
sg17
V54
p416
sg19
V30
p417
sbag1
(g2
g3
Ntp418
Rp419
(dp420
g7
V221
p421
sg9
VPiloswine
p422
sg11
VB,W,
p423
sg13
VGrass
p424
sg15
V52
p425
sg17
V54
p426
sg19
V25
p427
sbag1
(g2
g3
Ntp428
Rp429
(dp430
g7
V132
p431
sg9
VDitto
p432
sg11
VB,W,
p433
sg13
VGrass
p434
sg15
V53
p435
sg17
V55
p436
sg19
V15
p437
sbag1
(g2
g3
Ntp438
Rp439
(dp440
g7
V337
p441
sg9
VLunatone
p442
sg11
VB,W,
p443
sg13
VGrass
p444
sg15
V55
p445
sg17
g445
sg19
V10
p446
sbag1
(g2
g3
Ntp447
Rp448
(dp449
g7
V338
p450
sg9
VSolrock
p451
sg11
VB,W,
p452
sg13
VGrass
p453
sg15
V55
p454
sg17
g454
sg19
V10
p455
sbag1
(g2
g3
Ntp456
Rp457
(dp458
g7
V375
p459
sg9
VMetang
p460
sg11
VB,W,
p461
sg13
VGrass
p462
sg15
V53
p463
sg17
V55
p464
sg19
V10
p465
sbag1
(g2
g3
Ntp466
Rp467
(dp468
g7
V035
p469
sg9
VClefairy
p470
sg11
VB,W,
p471
sg13
VDark
p472
sg15
V62
p473
sg17
V64
p474
sg19
V30
p475
sbag1
(g2
g3
Ntp476
Rp477
(dp478
g7
V221
p479
sg9
VPiloswine
p480
sg11
VB,W,
p481
sg13
VDark
p482
sg15
V62
p483
sg17
V64
p484
sg19
V25
p485
sbag1
(g2
g3
Ntp486
Rp487
(dp488
g7
V132
p489
sg9
VDitto
p490
sg11
VB,W,
p491
sg13
VDark
p492
sg15
V63
p493
sg17
V65
p494
sg19
V15
p495
sbag1
(g2
g3
Ntp496
Rp497
(dp498
g7
V337
p499
sg9
VLunatone
p500
sg11
VB,W,
p501
sg13
VDark
p502
sg15
V64
p503
sg17
V65
p504
sg19
V10
p505
sbag1
(g2
g3
Ntp506
Rp507
(dp508
g7
V338
p509
sg9
VSolrock
p510
sg11
VB,W,
p511
sg13
VDark
p512
sg15
V64
p513
sg17
V65
p514
sg19
V10
p515
sbag1
(g2
g3
Ntp516
Rp517
(dp518
g7
V375
p519
sg9
VMetang
p520
sg11
VB,W,
p521
sg13
VDark
p522
sg15
V63
p523
sg17
V65
p524
sg19
V10
p525
sbag1
(g2
g3
Ntp526
Rp527
(dp528
g7
V531
p529
sg9
VAudino
p530
sg11
VB,W,
p531
sg13
VRustling
p532
sg15
V52
p533
sg17
V55
p534
sg19
V85
p535
sbag1
(g2
g3
Ntp536
Rp537
(dp538
g7
V473
p539
sg9
VMamoswine
p540
sg11
VB,W,
p541
sg13
VRustling
p542
sg15
V55
p543
sg17
g543
sg19
V5
p544
sbag1
(g2
g3
Ntp545
Rp546
(dp547
g7
V036
p548
sg9
VClefable
p549
sg11
VB,W,
p550
sg13
VRustling
p551
sg15
V55
p552
sg17
g552
sg19
V5
p553
sbag1
(g2
g3
Ntp554
Rp555
(dp556
g7
V376
p557
sg9
VMetagross
p558
sg11
VB,W,
p559
sg13
VRustling
p560
sg15
V55
p561
sg17
g561
sg19
V5
p562
sbag1
(g2
g3
Ntp563
Rp564
(dp565
g7
V221
p566
sg9
VPiloswine
p567
sg11
VB,W,
p568
sg13
VCave
p569
sg15
V57
p570
sg17
V59
p571
sg19
V25
p572
sbag1
(g2
g3
Ntp573
Rp574
(dp575
g7
V042
p576
sg9
VGolbat
p577
sg11
VB,W,
p578
sg13
VCave
p579
sg15
V57
p580
sg17
g580
sg19
V20
p581
sbag1
(g2
g3
Ntp582
Rp583
(dp584
g7
V215
p585
sg9
VSneasel
p586
sg11
VB,W,
p587
sg13
VCave
p588
sg15
V58
p589
sg17
g589
sg19
V10
p590
sbag1
(g2
g3
Ntp591
Rp592
(dp593
g7
V225
p594
sg9
VDelibird
p595
sg11
VB,W,
p596
sg13
VCave
p597
sg15
V58
p598
sg17
g598
sg19
V10
p599
sbag1
(g2
g3
Ntp600
Rp601
(dp602
g7
V337
p603
sg9
VLunatone
p604
sg11
VB,W,
p605
sg13
VCave
p606
sg15
V60
p607
sg17
g607
sg19
V10
p608
sbag1
(g2
g3
Ntp609
Rp610
(dp611
g7
V338
p612
sg9
VSolrock
p613
sg11
VB,W,
p614
sg13
VCave
p615
sg15
V60
p616
sg17
g616
sg19
V10
p617
sbag1
(g2
g3
Ntp618
Rp619
(dp620
g7
V124
p621
sg9
VJynx
p622
sg11
VB,W,
p623
sg13
VCave
p624
sg15
V58
p625
sg17
V60
p626
sg19
V10
p627
sbag1
(g2
g3
Ntp628
Rp629
(dp630
g7
V525
p631
sg9
VBoldore
p632
sg11
VB,W,
p633
sg13
VCave
p634
sg15
V59
p635
sg17
g635
sg19
V5
p636
sbag1
(g2
g3
Ntp637
Rp638
(dp639
g7
V530
p640
sg9
VExcadrill
p641
sg11
VB,W,
p642
sg13
VDust
p643
sg15
V57
p644
sg17
V60
p645
sg19
V100
p646
sbag1
(g2
g3
Ntp647
Rp648
(dp649
g7
V550
p650
sg9
VBasculin
p651
sg11
g269
sg13
VSurf
p652
sg15
V25
p653
sg17
V55
p654
sg19
V70
p655
sbag1
(g2
g3
Ntp656
Rp657
(dp658
g7
V550
p659
sg9
VBasculin
p660
sg11
g279
sg13
VSurf
p661
sg15
V25
p662
sg17
V55
p663
sg19
V70
p664
sbag1
(g2
g3
Ntp665
Rp666
(dp667
g7
V086
p668
sg9
VSeel
p669
sg11
VB,W,
p670
sg13
VSurf
p671
sg15
V25
p672
sg17
V55
p673
sg19
V30
p674
sbag1
(g2
g3
Ntp675
Rp676
(dp677
g7
V086
p678
sg9
VSeel
p679
sg11
VB,W,
p680
sg13
VRippling
p681
sg15
V25
p682
sg17
V60
p683
sg19
V60
p684
sbag1
(g2
g3
Ntp685
Rp686
(dp687
g7
V550
p688
sg9
VBasculin
p689
sg11
g269
sg13
VRippling
p690
sg15
V25
p691
sg17
V60
p692
sg19
V30
p693
sbag1
(g2
g3
Ntp694
Rp695
(dp696
g7
V550
p697
sg9
VBasculin
p698
sg11
g279
sg13
VRippling
p699
sg15
V25
p700
sg17
V60
p701
sg19
V30
p702
sbag1
(g2
g3
Ntp703
Rp704
(dp705
g7
V087
p706
sg9
VDewgong
p707
sg11
VB,W,
p708
sg13
VRippling
p709
sg15
V35
p710
sg17
V70
p711
sg19
V10
p712
sbag1
(g2
g3
Ntp713
Rp714
(dp715
g7
V060
p716
sg9
VPoliwag
p717
sg11
VB,W,
p718
sg13
VFishing
p719
sg15
V35
p720
sg17
V55
p721
sg19
V65
p722
sbag1
(g2
g3
Ntp723
Rp724
(dp725
g7
V550
p726
sg9
VBasculin
p727
sg11
g269
sg13
VFishing
p728
sg15
V35
p729
sg17
V55
p730
sg19
V30
p731
sbag1
(g2
g3
Ntp732
Rp733
(dp734
g7
V550
p735
sg9
VBasculin
p736
sg11
g279
sg13
VFishing
p737
sg15
V35
p738
sg17
V55
p739
sg19
V30
p740
sbag1
(g2
g3
Ntp741
Rp742
(dp743
g7
V061
p744
sg9
VPoliwhirl
p745
sg11
VB,W,
p746
sg13
VFishing
p747
sg15
V35
p748
sg17
V55
p749
sg19
V5
p750
sbag1
(g2
g3
Ntp751
Rp752
(dp753
g7
V061
p754
sg9
VPoliwhirl
p755
sg11
VB,W,
p756
sg13
VRippling
p757
sg15
V35
p758
sg17
V70
p759
sg19
V65
p760
sbag1
(g2
g3
Ntp761
Rp762
(dp763
g7
V550
p764
sg9
VBasculin
p765
sg11
g279
sg13
VRippling
p766
sg15
V35
p767
sg17
V60
p768
sg19
V30
p769
sbag1
(g2
g3
Ntp770
Rp771
(dp772
g7
V550
p773
sg9
VBasculin
p774
sg11
g269
sg13
VRippling
p775
sg15
V35
p776
sg17
V60
p777
sg19
V30
p778
sbag1
(g2
g3
Ntp779
Rp780
(dp781
g7
V062
p782
sg9
VPoliwrath
p783
sg11
VB,W,
p784
sg13
VRippling
p785
sg15
V45
p786
sg17
V70
p787
sg19
V5
p788
sbag1
(g2
g3
Ntp789
Rp790
(dp791
g7
V646
p792
sg9
VKyurem
p793
sg11
VB,W,
p794
sg13
VSpecial
p795
sg15
V75
p796
sg17
g796
sg19
V0
p797
sbag1
(g2
g3
Ntp798
Rp799
(dp800
g7
V035
p801
sg9
VClefairy
p802
sg11
VB2,W2,
p803
sg13
VGrass
p804
sg15
V45
p805
sg17
V47
p806
sg19
V15
p807
sbag1
(g2
g3
Ntp808
Rp809
(dp810
g7
V114
p811
sg9
VTangela
p812
sg11
VB2,W2,
p813
sg13
VGrass
p814
sg15
V44
p815
sg17
V45
p816
sg19
V30
p817
sbag1
(g2
g3
Ntp818
Rp819
(dp820
g7
V225
p821
sg9
VDelibird
p822
sg11
VB2,W2,
p823
sg13
VGrass
p824
sg15
V44
p825
sg17
g825
sg19
V5
p826
sbag1
(g2
g3
Ntp827
Rp828
(dp829
g7
V279
p830
sg9
VPelipper
p831
sg11
VB2,W2,
p832
sg13
VGrass
p833
sg15
V45
p834
sg17
g834
sg19
V20
p835
sbag1
(g2
g3
Ntp836
Rp837
(dp838
g7
V337
p839
sg9
VLunatone
p840
sg11
VB2,W2,
p841
sg13
VGrass
p842
sg15
V45
p843
sg17
g843
sg19
V10
p844
sbag1
(g2
g3
Ntp845
Rp846
(dp847
g7
V338
p848
sg9
VSolrock
p849
sg11
VB2,W2,
p850
sg13
VGrass
p851
sg15
V46
p852
sg17
g852
sg19
V10
p853
sbag1
(g2
g3
Ntp854
Rp855
(dp856
g7
V583
p857
sg9
VVanillish
p858
sg11
VB2,W2,
p859
sg13
VGrass
p860
sg15
V45
p861
sg17
V47
p862
sg19
V10
p863
sbag1
(g2
g3
Ntp864
Rp865
(dp866
g7
V035
p867
sg9
VClefairy
p868
sg11
VB2,W2,
p869
sg13
VDark
p870
sg15
V50
p871
sg17
V52
p872
sg19
V15
p873
sbag1
(g2
g3
Ntp874
Rp875
(dp876
g7
V114
p877
sg9
VTangela
p878
sg11
VB2,W2,
p879
sg13
VDark
p880
sg15
V49
p881
sg17
V50
p882
sg19
V30
p883
sbag1
(g2
g3
Ntp884
Rp885
(dp886
g7
V225
p887
sg9
VDelibird
p888
sg11
VB2,W2,
p889
sg13
VDark
p890
sg15
V49
p891
sg17
g891
sg19
V5
p892
sbag1
(g2
g3
Ntp893
Rp894
(dp895
g7
V279
p896
sg9
VPelipper
p897
sg11
VB2,W2,
p898
sg13
VDark
p899
sg15
V50
p900
sg17
g900
sg19
V20
p901
sbag1
(g2
g3
Ntp902
Rp903
(dp904
g7
V337
p905
sg9
VLunatone
p906
sg11
VB2,W2,
p907
sg13
VDark
p908
sg15
V50
p909
sg17
g909
sg19
V10
p910
sbag1
(g2
g3
Ntp911
Rp912
(dp913
g7
V338
p914
sg9
VSolrock
p915
sg11
VB2,W2,
p916
sg13
VDark
p917
sg15
V51
p918
sg17
g918
sg19
V10
p919
sbag1
(g2
g3
Ntp920
Rp921
(dp922
g7
V583
p923
sg9
VVanillish
p924
sg11
VB2,W2,
p925
sg13
VDark
p926
sg15
V50
p927
sg17
V52
p928
sg19
V10
p929
sbag1
(g2
g3
Ntp930
Rp931
(dp932
g7
V036
p933
sg9
VClefable
p934
sg11
VB2,W2,
p935
sg13
VRustling
p936
sg15
V47
p937
sg17
g937
sg19
V5
p938
sbag1
(g2
g3
Ntp939
Rp940
(dp941
g7
V465
p942
sg9
VTangrowth
p943
sg11
VB2,W2,
p944
sg13
VRustling
p945
sg15
V47
p946
sg17
g946
sg19
V5
p947
sbag1
(g2
g3
Ntp948
Rp949
(dp950
g7
V584
p951
sg9
VVanilluxe
p952
sg11
VB2,W2,
p953
sg13
VRustling
p954
sg15
V47
p955
sg17
g955
sg19
V5
p956
sbag1
(g2
g3
Ntp957
Rp958
(dp959
g7
V531
p960
sg9
VAudino
p961
sg11
VB2,W2,
p962
sg13
VRustling
p963
sg15
V44
p964
sg17
V47
p965
sg19
V85
p966
sbag1
(g2
g3
Ntp967
Rp968
(dp969
g7
V035
p970
sg9
VClefairy
p971
sg11
VB2,W2,
p972
sg13
VCave
p973
sg15
V44
p974
sg17
V46
p975
sg19
V15
p976
sbag1
(g2
g3
Ntp977
Rp978
(dp979
g7
V215
p980
sg9
VSneasel
p981
sg11
VB2,W2,
p982
sg13
VCave
p983
sg15
V44
p984
sg17
g984
sg19
V20
p985
sbag1
(g2
g3
Ntp986
Rp987
(dp988
g7
V221
p989
sg9
VPiloswine
p990
sg11
VB2,W2,
p991
sg13
VCave
p992
sg15
V44
p993
sg17
V46
p994
sg19
V25
p995
sbag1
(g2
g3
Ntp996
Rp997
(dp998
g7
V225
p999
sg9
VDelibird
p1000
sg11
VB2,W2,
p1001
sg13
VCave
p1002
sg15
V47
p1003
sg17
g1003
sg19
V5
p1004
sbag1
(g2
g3
Ntp1005
Rp1006
(dp1007
g7
V337
p1008
sg9
VLunatone
p1009
sg11
VB2,W2,
p1010
sg13
VCave
p1011
sg15
V46
p1012
sg17
g1012
sg19
V10
p1013
sbag1
(g2
g3
Ntp1014
Rp1015
(dp1016
g7
V338
p1017
sg9
VSolrock
p1018
sg11
VB2,W2,
p1019
sg13
VCave
p1020
sg15
V46
p1021
sg17
g1021
sg19
V10
p1022
sbag1
(g2
g3
Ntp1023
Rp1024
(dp1025
g7
V583
p1026
sg9
VVanillish
p1027
sg11
VB2,W2,
p1028
sg13
VCave
p1029
sg15
V45
p1030
sg17
V47
p1031
sg19
V15
p1032
sbag1
(g2
g3
Ntp1033
Rp1034
(dp1035
g7
V530
p1036
sg9
VExcadrill
p1037
sg11
VB2,W2,
p1038
sg13
VDust
p1039
sg15
V44
p1040
sg17
V47
p1041
sg19
V100
p1042
sbag1
(g2
g3
Ntp1043
Rp1044
(dp1045
g7
V086
p1046
sg9
VSeel
p1047
sg11
VB2,W2,
p1048
sg13
VSurf
p1049
sg15
V35
p1050
sg17
V50
p1051
sg19
V30
p1052
sbag1
(g2
g3
Ntp1053
Rp1054
(dp1055
g7
V550
p1056
sg9
VBasculin
p1057
sg11
VB2,
p1058
sg13
VSurf
p1059
sg15
V35
p1060
sg17
V50
p1061
sg19
V70
p1062
sbag1
(g2
g3
Ntp1063
Rp1064
(dp1065
g7
V550
p1066
sg9
VBasculin
p1067
sg11
VW2,
p1068
sg13
VSurf
p1069
sg15
V35
p1070
sg17
V50
p1071
sg19
V70
p1072
sbag1
(g2
g3
Ntp1073
Rp1074
(dp1075
g7
V086
p1076
sg9
VSeel
p1077
sg11
VB2,W2,
p1078
sg13
VRippling
p1079
sg15
V35
p1080
sg17
V50
p1081
sg19
V60
p1082
sbag1
(g2
g3
Ntp1083
Rp1084
(dp1085
g7
V087
p1086
sg9
VDewgong
p1087
sg11
VB2,W2,
p1088
sg13
VRippling
p1089
sg15
V40
p1090
sg17
V50
p1091
sg19
V10
p1092
sbag1
(g2
g3
Ntp1093
Rp1094
(dp1095
g7
V550
p1096
sg9
VBasculin
p1097
sg11
g1058
sg13
VRippling
p1098
sg15
V35
p1099
sg17
V50
p1100
sg19
V30
p1101
sbag1
(g2
g3
Ntp1102
Rp1103
(dp1104
g7
V550
p1105
sg9
VBasculin
p1106
sg11
g1068
sg13
VRippling
p1107
sg15
V35
p1108
sg17
V50
p1109
sg19
V30
p1110
sbag1
(g2
g3
Ntp1111
Rp1112
(dp1113
g7
V060
p1114
sg9
VPoliwag
p1115
sg11
VB2,W2,
p1116
sg13
VFish Super
p1117
sg15
V40
p1118
sg17
V70
p1119
sg19
V70
p1120
sbag1
(g2
g3
Ntp1121
Rp1122
(dp1123
g7
V550
p1124
sg9
VBasculin
p1125
sg11
g1058
sg13
VFish Super
p1126
sg15
V40
p1127
sg17
V60
p1128
sg19
V30
p1129
sbag1
(g2
g3
Ntp1130
Rp1131
(dp1132
g7
V550
p1133
sg9
VBasculin
p1134
sg11
g1068
sg13
VFish Super
p1135
sg15
V40
p1136
sg17
V60
p1137
sg19
V30
p1138
sbag1
(g2
g3
Ntp1139
Rp1140
(dp1141
g7
V061
p1142
sg9
VPoliwhirl
p1143
sg11
VB2,W2,
p1144
sg13
VFish Super
p1145
sg15
V40
p1146
sg17
V70
p1147
sg19
V65
p1148
sbag1
(g2
g3
Ntp1149
Rp1150
(dp1151
g7
V062
p1152
sg9
VPoliwrath
p1153
sg11
VB2,W2,
p1154
sg13
VFish Super
p1155
sg15
V50
p1156
sg17
V70
p1157
sg19
V5
p1158
sbag1
(g2
g3
Ntp1159
Rp1160
(dp1161
g7
V550
p1162
sg9
VBasculin
p1163
sg11
g1058
sg13
VFish Super
p1164
sg15
V40
p1165
sg17
V60
p1166
sg19
V30
p1167
sbag1
(g2
g3
Ntp1168
Rp1169
(dp1170
g7
V550
p1171
sg9
VBasculin
p1172
sg11
g1068
sg13
VFish Super
p1173
sg15
V40
p1174
sg17
V60
p1175
sg19
V30
p1176
sbag1
(g2
g3
Ntp1177
Rp1178
(dp1179
g7
V035
p1180
sg9
VClefairy
p1181
sg11
VB2,W2,
p1182
sg13
VGrass
p1183
sg15
V45
p1184
sg17
g1184
sg19
V20
p1185
sbag1
(g2
g3
Ntp1186
Rp1187
(dp1188
g7
V132
p1189
sg9
VDitto
p1190
sg11
VB2,W2,
p1191
sg13
VGrass
p1192
sg15
V45
p1193
sg17
V47
p1194
sg19
V15
p1195
sbag1
(g2
g3
Ntp1196
Rp1197
(dp1198
g7
V221
p1199
sg9
VPiloswine
p1200
sg11
VB2,W2,
p1201
sg13
VGrass
p1202
sg15
V44
p1203
sg17
V46
p1204
sg19
V30
p1205
sbag1
(g2
g3
Ntp1206
Rp1207
(dp1208
g7
V225
p1209
sg9
VDelibird
p1210
sg11
VB2,W2,
p1211
sg13
VGrass
p1212
sg15
V44
p1213
sg17
g1213
sg19
V5
p1214
sbag1
(g2
g3
Ntp1215
Rp1216
(dp1217
g7
V337
p1218
sg9
VLunatone
p1219
sg11
VB2,W2,
p1220
sg13
VGrass
p1221
sg15
V46
p1222
sg17
g1222
sg19
V10
p1223
sbag1
(g2
g3
Ntp1224
Rp1225
(dp1226
g7
V338
p1227
sg9
VSolrock
p1228
sg11
VB2,W2,
p1229
sg13
VGrass
p1230
sg15
V46
p1231
sg17
g1231
sg19
V10
p1232
sbag1
(g2
g3
Ntp1233
Rp1234
(dp1235
g7
V375
p1236
sg9
VMetang
p1237
sg11
VB2,W2,
p1238
sg13
VGrass
p1239
sg15
V45
p1240
sg17
V47
p1241
sg19
V10
p1242
sbag1
(g2
g3
Ntp1243
Rp1244
(dp1245
g7
V035
p1246
sg9
VClefairy
p1247
sg11
VB2,W2,
p1248
sg13
VDark
p1249
sg15
V50
p1250
sg17
g1250
sg19
V20
p1251
sbag1
(g2
g3
Ntp1252
Rp1253
(dp1254
g7
V132
p1255
sg9
VDitto
p1256
sg11
VB2,W2,
p1257
sg13
VDark
p1258
sg15
V50
p1259
sg17
V52
p1260
sg19
V15
p1261
sbag1
(g2
g3
Ntp1262
Rp1263
(dp1264
g7
V221
p1265
sg9
VPiloswine
p1266
sg11
VB2,W2,
p1267
sg13
VDark
p1268
sg15
V49
p1269
sg17
V51
p1270
sg19
V30
p1271
sbag1
(g2
g3
Ntp1272
Rp1273
(dp1274
g7
V225
p1275
sg9
VDelibird
p1276
sg11
VB2,W2,
p1277
sg13
VDark
p1278
sg15
V49
p1279
sg17
g1279
sg19
V5
p1280
sbag1
(g2
g3
Ntp1281
Rp1282
(dp1283
g7
V337
p1284
sg9
VLunatone
p1285
sg11
VB2,W2,
p1286
sg13
VDark
p1287
sg15
V51
p1288
sg17
g1288
sg19
V10
p1289
sbag1
(g2
g3
Ntp1290
Rp1291
(dp1292
g7
V338
p1293
sg9
VSolrock
p1294
sg11
VB2,W2,
p1295
sg13
VDark
p1296
sg15
V51
p1297
sg17
g1297
sg19
V10
p1298
sbag1
(g2
g3
Ntp1299
Rp1300
(dp1301
g7
V375
p1302
sg9
VMetang
p1303
sg11
VB2,W2,
p1304
sg13
VDark
p1305
sg15
V50
p1306
sg17
V52
p1307
sg19
V10
p1308
sbag1
(g2
g3
Ntp1309
Rp1310
(dp1311
g7
V531
p1312
sg9
VAudino
p1313
sg11
VB2,W2,
p1314
sg13
VRustling
p1315
sg15
V44
p1316
sg17
V47
p1317
sg19
V85
p1318
sbag1
(g2
g3
Ntp1319
Rp1320
(dp1321
g7
V036
p1322
sg9
VClefable
p1323
sg11
VB2,W2,
p1324
sg13
VRustling
p1325
sg15
V47
p1326
sg17
g1326
sg19
V5
p1327
sbag1
(g2
g3
Ntp1328
Rp1329
(dp1330
g7
V376
p1331
sg9
VMetagross
p1332
sg11
VB2,W2,
p1333
sg13
VRustling
p1334
sg15
V47
p1335
sg17
g1335
sg19
V5
p1336
sbag1
(g2
g3
Ntp1337
Rp1338
(dp1339
g7
V473
p1340
sg9
VMamoswine
p1341
sg11
VB2,W2,
p1342
sg13
VRustling
p1343
sg15
V47
p1344
sg17
g1344
sg19
V5
p1345
sbag1
(g2
g3
Ntp1346
Rp1347
(dp1348
g7
V035
p1349
sg9
VClefairy
p1350
sg11
VB2,W2,
p1351
sg13
VCave
p1352
sg15
V44
p1353
sg17
V46
p1354
sg19
V15
p1355
sbag1
(g2
g3
Ntp1356
Rp1357
(dp1358
g7
V215
p1359
sg9
VSneasel
p1360
sg11
VB2,W2,
p1361
sg13
VCave
p1362
sg15
V44
p1363
sg17
g1363
sg19
V20
p1364
sbag1
(g2
g3
Ntp1365
Rp1366
(dp1367
g7
V221
p1368
sg9
VPiloswine
p1369
sg11
VB2,W2,
p1370
sg13
VCave
p1371
sg15
V44
p1372
sg17
V46
p1373
sg19
V25
p1374
sbag1
(g2
g3
Ntp1375
Rp1376
(dp1377
g7
V225
p1378
sg9
VDelibird
p1379
sg11
VB2,W2,
p1380
sg13
VCave
p1381
sg15
V47
p1382
sg17
g1382
sg19
V5
p1383
sbag1
(g2
g3
Ntp1384
Rp1385
(dp1386
g7
V337
p1387
sg9
VLunatone
p1388
sg11
VB2,W2,
p1389
sg13
VCave
p1390
sg15
V46
p1391
sg17
g1391
sg19
V10
p1392
sbag1
(g2
g3
Ntp1393
Rp1394
(dp1395
g7
V338
p1396
sg9
VSolrock
p1397
sg11
VB2,W2,
p1398
sg13
VCave
p1399
sg15
V46
p1400
sg17
g1400
sg19
V10
p1401
sbag1
(g2
g3
Ntp1402
Rp1403
(dp1404
g7
V583
p1405
sg9
VVanillish
p1406
sg11
VB2,W2,
p1407
sg13
VCave
p1408
sg15
V45
p1409
sg17
V47
p1410
sg19
V15
p1411
sbag1
(g2
g3
Ntp1412
Rp1413
(dp1414
g7
V530
p1415
sg9
VExcadrill
p1416
sg11
VB2,W2,
p1417
sg13
VDust
p1418
sg15
V44
p1419
sg17
V47
p1420
sg19
V100
p1421
sbag1
(g2
g3
Ntp1422
Rp1423
(dp1424
g7
V086
p1425
sg9
VSeel
p1426
sg11
VB2,W2,
p1427
sg13
VSurf
p1428
sg15
V35
p1429
sg17
V50
p1430
sg19
V30
p1431
sbag1
(g2
g3
Ntp1432
Rp1433
(dp1434
g7
V550
p1435
sg9
VBasculin
p1436
sg11
g1058
sg13
VSurf
p1437
sg15
V35
p1438
sg17
V50
p1439
sg19
V70
p1440
sbag1
(g2
g3
Ntp1441
Rp1442
(dp1443
g7
V550
p1444
sg9
VBasculin
p1445
sg11
g1068
sg13
VSurf
p1446
sg15
V35
p1447
sg17
V50
p1448
sg19
V70
p1449
sbag1
(g2
g3
Ntp1450
Rp1451
(dp1452
g7
V086
p1453
sg9
VSeel
p1454
sg11
VB2,W2,
p1455
sg13
VRippling
p1456
sg15
V35
p1457
sg17
V50
p1458
sg19
V60
p1459
sbag1
(g2
g3
Ntp1460
Rp1461
(dp1462
g7
V087
p1463
sg9
VDewgong
p1464
sg11
VB2,W2,
p1465
sg13
VRippling
p1466
sg15
V40
p1467
sg17
V50
p1468
sg19
V10
p1469
sbag1
(g2
g3
Ntp1470
Rp1471
(dp1472
g7
V550
p1473
sg9
VBasculin
p1474
sg11
g1058
sg13
VRippling
p1475
sg15
V35
p1476
sg17
V50
p1477
sg19
V30
p1478
sbag1
(g2
g3
Ntp1479
Rp1480
(dp1481
g7
V550
p1482
sg9
VBasculin
p1483
sg11
g1068
sg13
VRippling
p1484
sg15
V35
p1485
sg17
V50
p1486
sg19
V30
p1487
sbag1
(g2
g3
Ntp1488
Rp1489
(dp1490
g7
V060
p1491
sg9
VPoliwag
p1492
sg11
VB2,W2,
p1493
sg13
VFish Super
p1494
sg15
V40
p1495
sg17
V70
p1496
sg19
V70
p1497
sbag1
(g2
g3
Ntp1498
Rp1499
(dp1500
g7
V550
p1501
sg9
VBasculin
p1502
sg11
g1058
sg13
VFish Super
p1503
sg15
V40
p1504
sg17
V60
p1505
sg19
V30
p1506
sbag1
(g2
g3
Ntp1507
Rp1508
(dp1509
g7
V550
p1510
sg9
VBasculin
p1511
sg11
g1068
sg13
VFish Super
p1512
sg15
V40
p1513
sg17
V60
p1514
sg19
V30
p1515
sbag1
(g2
g3
Ntp1516
Rp1517
(dp1518
g7
V061
p1519
sg9
VPoliwhirl
p1520
sg11
VB2,W2,
p1521
sg13
VRippling
p1522
sg15
V40
p1523
sg17
V70
p1524
sg19
V65
p1525
sbag1
(g2
g3
Ntp1526
Rp1527
(dp1528
g7
V062
p1529
sg9
VPoliwrath
p1530
sg11
VB2,W2,
p1531
sg13
VRippling
p1532
sg15
V50
p1533
sg17
V70
p1534
sg19
V5
p1535
sbag1
(g2
g3
Ntp1536
Rp1537
(dp1538
g7
V550
p1539
sg9
VBasculin
p1540
sg11
g1058
sg13
VRippling
p1541
sg15
V40
p1542
sg17
V60
p1543
sg19
V30
p1544
sbag1
(g2
g3
Ntp1545
Rp1546
(dp1547
g7
V550
p1548
sg9
VBasculin
p1549
sg11
g1068
sg13
VRippling
p1550
sg15
V40
p1551
sg17
V60
p1552
sg19
V30
p1553
sbag1
(g2
g3
Ntp1554
Rp1555
(dp1556
g7
V646
p1557
sg9
VKyurem
p1558
sg11
g1058
sg13
VSpecial
p1559
sg15
V55
p1560
sg17
g1560
sg19
V0
p1561
sbag1
(g2
g3
Ntp1562
Rp1563
(dp1564
g7
V646
p1565
sg9
VKyurem
p1566
sg11
g1068
sg13
VSpecial
p1567
sg15
V55
p1568
sg17
g1568
sg19
V0
p1569
sbag1
(g2
g3
Ntp1570
Rp1571
(dp1572
g7
V646
p1573
sg9
VKyurem
p1574
sg11
VB2,W2,
p1575
sg13
VSpecial
p1576
sg15
V70
p1577
sg17
g1577
sg19
V0
p1578
sba.