(lp0
ccopy_reg
_reconstructor
p1
(c__main__
WildPokemon
p2
c__builtin__
object
p3
Ntp4
Rp5
(dp6
VpDexNo
p7
V050
p8
sVpSpecies
p9
VDiglett
p10
sVpGames
p11
VSw,Sh,
p12
sVpArea
p13
VGrass
p14
sVpMinLevel
p15
V26
p16
sVpMaxLevel
p17
V28
p18
sVpRate
p19
V0
p20
sbag1
(g2
g3
Ntp21
Rp22
(dp23
g7
V066
p24
sg9
VMachop
p25
sg11
VSw,Sh,
p26
sg13
VGrass
p27
sg15
V26
p28
sg17
V28
p29
sg19
g20
sbag1
(g2
g3
Ntp30
Rp31
(dp32
g7
V066
p33
sg9
VMachop
p34
sg11
VSw,Sh,
p35
sg13
VGrass
p36
sg15
V27
p37
sg17
V29
p38
sg19
g20
sbag1
(g2
g3
Ntp39
Rp40
(dp41
g7
V109
p42
sg9
VKoffing
p43
sg11
VSw,Sh,
p44
sg13
VGrass
p45
sg15
V26
p46
sg17
V28
p47
sg19
g20
sbag1
(g2
g3
Ntp48
Rp49
(dp50
g7
V109
p51
sg9
VKoffing
p52
sg11
VSw,Sh,
p53
sg13
VGrass
p54
sg15
V27
p55
sg17
V29
p56
sg19
g20
sbag1
(g2
g3
Ntp57
Rp58
(dp59
g7
V220
p60
sg9
VSwinub
p61
sg11
VSw,Sh,
p62
sg13
VGrass
p63
sg15
V26
p64
sg17
V28
p65
sg19
g20
sbag1
(g2
g3
Ntp66
Rp67
(dp68
g7
V315
p69
sg9
VRoselia
p70
sg11
VSw,Sh,
p71
sg13
VGrass
p72
sg15
V27
p73
sg17
V29
p74
sg19
g20
sbag1
(g2
g3
Ntp75
Rp76
(dp77
g7
V324
p78
sg9
VTorkoal
p79
sg11
VSw,Sh,
p80
sg13
VGrass
p81
sg15
V26
p82
sg17
V28
p83
sg19
g20
sbag1
(g2
g3
Ntp84
Rp85
(dp86
g7
V406
p87
sg9
VBudew
p88
sg11
VSw,Sh,
p89
sg13
VGrass
p90
sg15
V27
p91
sg17
V29
p92
sg19
g20
sbag1
(g2
g3
Ntp93
Rp94
(dp95
g7
V422
p96
sg9
VShellos
p97
sg11
VSw,Sh,
p98
sg13
VGrass
p99
sg15
V26
p100
sg17
V28
p101
sg19
g20
sbag1
(g2
g3
Ntp102
Rp103
(dp104
g7
V450
p105
sg9
VHippowdon
p106
sg11
VSw,Sh,
p107
sg13
VGrass
p108
sg15
V26
p109
sg17
V28
p110
sg19
g20
sbag1
(g2
g3
Ntp111
Rp112
(dp113
g7
V451
p114
sg9
VSkorupi
p115
sg11
VSw,Sh,
p116
sg13
VGrass
p117
sg15
V26
p118
sg17
V28
p119
sg19
g20
sbag1
(g2
g3
Ntp120
Rp121
(dp122
g7
V451
p123
sg9
VSkorupi
p124
sg11
VSw,Sh,
p125
sg13
VGrass
p126
sg15
V27
p127
sg17
V29
p128
sg19
g20
sbag1
(g2
g3
Ntp129
Rp130
(dp131
g7
V459
p132
sg9
VSnover
p133
sg11
VSw,Sh,
p134
sg13
VGrass
p135
sg15
V26
p136
sg17
V28
p137
sg19
g20
sbag1
(g2
g3
Ntp138
Rp139
(dp140
g7
V595
p141
sg9
VJoltik
p142
sg11
VSw,Sh,
p143
sg13
VGrass
p144
sg15
V26
p145
sg17
V28
p146
sg19
g20
sbag1
(g2
g3
Ntp147
Rp148
(dp149
g7
V613
p150
sg9
VCubchoo
p151
sg11
VSw,Sh,
p152
sg13
VGrass
p153
sg15
V26
p154
sg17
V28
p155
sg19
g20
sbag1
(g2
g3
Ntp156
Rp157
(dp158
g7
V660
p159
sg9
VDiggersby
p160
sg11
VSw,Sh,
p161
sg13
VGrass
p162
sg15
V26
p163
sg17
V28
p164
sg19
g20
sbag1
(g2
g3
Ntp165
Rp166
(dp167
g7
V778
p168
sg9
VMimikyu
p169
sg11
VSw,Sh,
p170
sg13
VGrass
p171
sg15
V26
p172
sg17
V28
p173
sg19
g20
sbag1
(g2
g3
Ntp174
Rp175
(dp176
g7
V825
p177
sg9
VDottler
p178
sg11
VSw,Sh,
p179
sg13
VGrass
p180
sg15
V26
p181
sg17
V28
p182
sg19
g20
sbag1
(g2
g3
Ntp183
Rp184
(dp185
g7
V825
p186
sg9
VDottler
p187
sg11
VSw,Sh,
p188
sg13
VGrass
p189
sg15
V27
p190
sg17
V29
p191
sg19
g20
sbag1
(g2
g3
Ntp192
Rp193
(dp194
g7
V840
p195
sg9
VApplin
p196
sg11
VSw,Sh,
p197
sg13
VGrass
p198
sg15
V26
p199
sg17
V28
p200
sg19
g20
sbag1
(g2
g3
Ntp201
Rp202
(dp203
g7
V859
p204
sg9
VImpidimp
p205
sg11
VSw,Sh,
p206
sg13
VGrass
p207
sg15
V26
p208
sg17
V28
p209
sg19
g20
sbag1
(g2
g3
Ntp210
Rp211
(dp212
g7
V868
p213
sg9
VMilcery
p214
sg11
VSw,Sh,
p215
sg13
VGrass
p216
sg15
V26
p217
sg17
V28
p218
sg19
g20
sbag1
(g2
g3
Ntp219
Rp220
(dp221
g7
V420
p222
sg9
VCherubi
p223
sg11
VSw,Sh,
p224
sg13
VBerry tree
p225
sg15
V26
p226
sg17
V28
p227
sg19
V25
p228
sbag1
(g2
g3
Ntp229
Rp230
(dp231
g7
V820
p232
sg9
VGreedent
p233
sg11
VSw,Sh,
p234
sg13
VBerry tree
p235
sg15
V26
p236
sg17
V28
p237
sg19
V75
p238
sbag1
(g2
g3
Ntp239
Rp240
(dp241
g7
V130
p242
sg9
VGyarados
p243
sg11
VSw,Sh,
p244
sg13
VFishing
p245
sg15
V26
p246
sg17
V28
p247
sg19
V5
p248
sbag1
(g2
g3
Ntp249
Rp250
(dp251
g7
V170
p252
sg9
VChinchou
p253
sg11
VSw,Sh,
p254
sg13
VFishing
p255
sg15
V26
p256
sg17
V28
p257
sg19
V10
p258
sbag1
(g2
g3
Ntp259
Rp260
(dp261
g7
V747
p262
sg9
VMareanie
p263
sg11
VSw,Sh,
p264
sg13
VFishing
p265
sg15
V26
p266
sg17
V28
p267
sg19
V35
p268
sbag1
(g2
g3
Ntp269
Rp270
(dp271
g7
V834
p272
sg9
VDrednaw
p273
sg11
VSw,Sh,
p274
sg13
VFishing
p275
sg15
V26
p276
sg17
V28
p277
sg19
V50
p278
sbag1
(g2
g3
Ntp279
Rp280
(dp281
g7
V012
p282
sg9
VButterfree
p283
sg11
VSw,Sh,
p284
sg13
VGrass
p285
sg15
V28
p286
sg17
V30
p287
sg19
g20
sbag1
(g2
g3
Ntp288
Rp289
(dp290
g7
V044
p291
sg9
VGloom
p292
sg11
VSw,Sh,
p293
sg13
VGrass
p294
sg15
V28
p295
sg17
V30
p296
sg19
g20
sbag1
(g2
g3
Ntp297
Rp298
(dp299
g7
V083
p300
sg9
VFarfetch'd
p301
sg11
VSw,
p302
sg13
VGrass
p303
sg15
V28
p304
sg17
V30
p305
sg19
g20
sbag1
(g2
g3
Ntp306
Rp307
(dp308
g7
V111
p309
sg9
VRhyhorn
p310
sg11
VSw,Sh,
p311
sg13
VGrass
p312
sg15
V28
p313
sg17
V30
p314
sg19
g20
sbag1
(g2
g3
Ntp315
Rp316
(dp317
g7
V177
p318
sg9
VNatu
p319
sg11
VSw,Sh,
p320
sg13
VGrass
p321
sg15
V28
p322
sg17
V30
p323
sg19
g20
sbag1
(g2
g3
Ntp324
Rp325
(dp326
g7
V222
p327
sg9
VCorsola
p328
sg11
VSh,
p329
sg13
VGrass
p330
sg15
V28
p331
sg17
V30
p332
sg19
g20
sbag1
(g2
g3
Ntp333
Rp334
(dp335
g7
V225
p336
sg9
VDelibird
p337
sg11
VSw,Sh,
p338
sg13
VGrass
p339
sg15
V28
p340
sg17
V30
p341
sg19
g20
sbag1
(g2
g3
Ntp342
Rp343
(dp344
g7
V520
p345
sg9
VTranquill
p346
sg11
VSw,Sh,
p347
sg13
VGrass
p348
sg15
V28
p349
sg17
V30
p350
sg19
g20
sbag1
(g2
g3
Ntp351
Rp352
(dp353
g7
V527
p354
sg9
VWoobat
p355
sg11
VSw,Sh,
p356
sg13
VGrass
p357
sg15
V28
p358
sg17
V30
p359
sg19
g20
sbag1
(g2
g3
Ntp360
Rp361
(dp362
g7
V529
p363
sg9
VDrilbur
p364
sg11
VSw,Sh,
p365
sg13
VGrass
p366
sg15
V28
p367
sg17
V30
p368
sg19
g20
sbag1
(g2
g3
Ntp369
Rp370
(dp371
g7
V536
p372
sg9
VPalpitoad
p373
sg11
VSw,Sh,
p374
sg13
VGrass
p375
sg15
V28
p376
sg17
V30
p377
sg19
g20
sbag1
(g2
g3
Ntp378
Rp379
(dp380
g7
V538
p381
sg9
VThroh
p382
sg11
g329
sg13
VGrass
p383
sg15
V28
p384
sg17
V30
p385
sg19
g20
sbag1
(g2
g3
Ntp386
Rp387
(dp388
g7
V539
p389
sg9
VSawk
p390
sg11
g302
sg13
VGrass
p391
sg15
V28
p392
sg17
V30
p393
sg19
g20
sbag1
(g2
g3
Ntp394
Rp395
(dp396
g7
V582
p397
sg9
VVanillite
p398
sg11
VSw,Sh,
p399
sg13
VGrass
p400
sg15
V28
p401
sg17
V30
p402
sg19
g20
sbag1
(g2
g3
Ntp403
Rp404
(dp405
g7
V595
p406
sg9
VJoltik
p407
sg11
VSw,Sh,
p408
sg13
VGrass
p409
sg15
V28
p410
sg17
V30
p411
sg19
g20
sbag1
(g2
g3
Ntp412
Rp413
(dp414
g7
V613
p415
sg9
VCubchoo
p416
sg11
VSw,Sh,
p417
sg13
VGrass
p418
sg15
V28
p419
sg17
V30
p420
sg19
g20
sbag1
(g2
g3
Ntp421
Rp422
(dp423
g7
V624
p424
sg9
VPawniard
p425
sg11
VSw,Sh,
p426
sg13
VGrass
p427
sg15
V28
p428
sg17
V30
p429
sg19
g20
sbag1
(g2
g3
Ntp430
Rp431
(dp432
g7
V631
p433
sg9
VHeatmor
p434
sg11
g302
sg13
VGrass
p435
sg15
V28
p436
sg17
V30
p437
sg19
g20
sbag1
(g2
g3
Ntp438
Rp439
(dp440
g7
V631
p441
sg9
VHeatmor
p442
sg11
g329
sg13
VGrass
p443
sg15
V28
p444
sg17
V30
p445
sg19
g20
sbag1
(g2
g3
Ntp446
Rp447
(dp448
g7
V632
p449
sg9
VDurant
p450
sg11
g302
sg13
VGrass
p451
sg15
V28
p452
sg17
V30
p453
sg19
g20
sbag1
(g2
g3
Ntp454
Rp455
(dp456
g7
V632
p457
sg9
VDurant
p458
sg11
g329
sg13
VGrass
p459
sg15
V28
p460
sg17
V30
p461
sg19
g20
sbag1
(g2
g3
Ntp462
Rp463
(dp464
g7
V682
p465
sg9
VSpritzee
p466
sg11
g329
sg13
VGrass
p467
sg15
V28
p468
sg17
V30
p469
sg19
g20
sbag1
(g2
g3
Ntp470
Rp471
(dp472
g7
V684
p473
sg9
VSwirlix
p474
sg11
g302
sg13
VGrass
p475
sg15
V28
p476
sg17
V30
p477
sg19
g20
sbag1
(g2
g3
Ntp478
Rp479
(dp480
g7
V694
p481
sg9
VHelioptile
p482
sg11
VSw,Sh,
p483
sg13
VGrass
p484
sg15
V28
p485
sg17
V30
p486
sg19
g20
sbag1
(g2
g3
Ntp487
Rp488
(dp489
g7
V710
p490
sg9
VPumpkaboo
p491
sg11
VSw,Sh,
p492
sg13
VGrass
p493
sg15
V28
p494
sg17
V30
p495
sg19
g20
sbag1
(g2
g3
Ntp496
Rp497
(dp498
g7
V710
p499
sg9
VPumpkaboo
p500
sg11
VSw,Sh,
p501
sg13
VGrass
p502
sg15
V28
p503
sg17
V30
p504
sg19
g20
sbag1
(g2
g3
Ntp505
Rp506
(dp507
g7
V710
p508
sg9
VPumpkaboo
p509
sg11
VSw,Sh,
p510
sg13
VGrass
p511
sg15
V28
p512
sg17
V30
p513
sg19
g20
sbag1
(g2
g3
Ntp514
Rp515
(dp516
g7
V710
p517
sg9
VPumpkaboo
p518
sg11
VSw,Sh,
p519
sg13
VGrass
p520
sg15
V28
p521
sg17
V30
p522
sg19
g20
sbag1
(g2
g3
Ntp523
Rp524
(dp525
g7
V742
p526
sg9
VCutiefly
p527
sg11
VSw,Sh,
p528
sg13
VGrass
p529
sg15
V28
p530
sg17
V30
p531
sg19
g20
sbag1
(g2
g3
Ntp532
Rp533
(dp534
g7
V755
p535
sg9
VMorelull
p536
sg11
VSw,Sh,
p537
sg13
VGrass
p538
sg15
V28
p539
sg17
V30
p540
sg19
g20
sbag1
(g2
g3
Ntp541
Rp542
(dp543
g7
V767
p544
sg9
VWimpod
p545
sg11
VSw,Sh,
p546
sg13
VGrass
p547
sg15
V28
p548
sg17
V30
p549
sg19
g20
sbag1
(g2
g3
Ntp550
Rp551
(dp552
g7
V827
p553
sg9
VNickit
p554
sg11
VSw,Sh,
p555
sg13
VGrass
p556
sg15
V28
p557
sg17
V30
p558
sg19
g20
sbag1
(g2
g3
Ntp559
Rp560
(dp561
g7
V833
p562
sg9
VChewtle
p563
sg11
VSw,Sh,
p564
sg13
VGrass
p565
sg15
V28
p566
sg17
V30
p567
sg19
g20
sbag1
(g2
g3
Ntp568
Rp569
(dp570
g7
V835
p571
sg9
VYamper
p572
sg11
VSw,Sh,
p573
sg13
VGrass
p574
sg15
V28
p575
sg17
V30
p576
sg19
g20
sbag1
(g2
g3
Ntp577
Rp578
(dp579
g7
V051
p580
sg9
VDugtrio
p581
sg11
g302
sg13
VDirt
p582
sg15
V31
p583
sg17
V34
p584
sg19
g20
sbag1
(g2
g3
Ntp585
Rp586
(dp587
g7
V051
p588
sg9
VDugtrio
p589
sg11
g329
sg13
VDirt
p590
sg15
V31
p591
sg17
V34
p592
sg19
g20
sbag1
(g2
g3
Ntp593
Rp594
(dp595
g7
V525
p596
sg9
VBoldore
p597
sg11
g302
sg13
VDirt
p598
sg15
V31
p599
sg17
V34
p600
sg19
V10
p601
sbag1
(g2
g3
Ntp602
Rp603
(dp604
g7
V525
p605
sg9
VBoldore
p606
sg11
g329
sg13
VDirt
p607
sg15
V31
p608
sg17
V34
p609
sg19
V30
p610
sbag1
(g2
g3
Ntp611
Rp612
(dp613
g7
V530
p614
sg9
VExcadrill
p615
sg11
g302
sg13
VDirt
p616
sg15
V31
p617
sg17
V34
p618
sg19
g20
sbag1
(g2
g3
Ntp619
Rp620
(dp621
g7
V530
p622
sg9
VExcadrill
p623
sg11
g329
sg13
VDirt
p624
sg15
V31
p625
sg17
V34
p626
sg19
g20
sbag1
(g2
g3
Ntp627
Rp628
(dp629
g7
V520
p630
sg9
VTranquill
p631
sg11
VSw,Sh,
p632
sg13
VFlying
p633
sg15
V28
p634
sg17
V30
p635
sg19
V60
p636
sbag1
(g2
g3
Ntp637
Rp638
(dp639
g7
V822
p640
sg9
VCorvisquire
p641
sg11
VSw,Sh,
p642
sg13
VFlying
p643
sg15
V28
p644
sg17
V30
p645
sg19
V40
p646
sbag1
(g2
g3
Ntp647
Rp648
(dp649
g7
V422
p650
sg9
VShellos
p651
sg11
VSw,Sh,
p652
sg13
VSurf
p653
sg15
V41
p654
sg17
V42
p655
sg19
g20
sbag1
(g2
g3
Ntp656
Rp657
(dp658
g7
V422
p659
sg9
VShellos
p660
sg11
VSw,Sh,
p661
sg13
VSurf
p662
sg15
V41
p663
sg17
V45
p664
sg19
g20
sbag1
(g2
g3
Ntp665
Rp666
(dp667
g7
V582
p668
sg9
VVanillite
p669
sg11
VSw,Sh,
p670
sg13
VSurf
p671
sg15
V41
p672
sg17
V42
p673
sg19
g20
sbag1
(g2
g3
Ntp674
Rp675
(dp676
g7
V582
p677
sg9
VVanillite
p678
sg11
VSw,Sh,
p679
sg13
VSurf
p680
sg15
V41
p681
sg17
V45
p682
sg19
g20
sbag1
(g2
g3
Ntp683
Rp684
(dp685
g7
V592
p686
sg9
VFrillish
p687
sg11
VSw,Sh,
p688
sg13
VSurf
p689
sg15
V41
p690
sg17
V42
p691
sg19
g20
sbag1
(g2
g3
Ntp692
Rp693
(dp694
g7
V592
p695
sg9
VFrillish
p696
sg11
VSw,Sh,
p697
sg13
VSurf
p698
sg15
V41
p699
sg17
V45
p700
sg19
g20
sbag1
(g2
g3
Ntp701
Rp702
(dp703
g7
V686
p704
sg9
VInkay
p705
sg11
VSw,Sh,
p706
sg13
VSurf
p707
sg15
V41
p708
sg17
V45
p709
sg19
g20
sbag1
(g2
g3
Ntp710
Rp711
(dp712
g7
V208
p713
sg9
VSteelix
p714
sg11
VSw,Sh,
p715
sg13
VWanderer
p716
sg15
V50
p717
sg17
g717
sg19
V0
p718
sbag1
(g2
g3
Ntp719
Rp720
(dp721
g7
V863
p722
sg9
VPerrserker
p723
sg11
VSw,Sh,
p724
sg13
VWanderer
p725
sg15
V65
p726
sg17
g726
sg19
V0
p727
sbag1
(g2
g3
Ntp728
Rp729
(dp730
g7
V068
p731
sg9
VMachamp
p732
sg11
VSw,Sh,
p733
sg13
VWanderer
p734
sg15
V60
p735
sg17
g735
sg19
g20
sbag1
(g2
g3
Ntp736
Rp737
(dp738
g7
V460
p739
sg9
VAbomasnow
p740
sg11
VSw,Sh,
p741
sg13
VWanderer
p742
sg15
V60
p743
sg17
g743
sg19
g20
sbag1
(g2
g3
Ntp744
Rp745
(dp746
g7
V537
p747
sg9
VSeismitoad
p748
sg11
VSw,Sh,
p749
sg13
VWanderer
p750
sg15
V60
p751
sg17
g751
sg19
g20
sbag1
(g2
g3
Ntp752
Rp753
(dp754
g7
V178
p755
sg9
VXatu
p756
sg11
VSw,Sh,
p757
sg13
VWanderer
p758
sg15
V41
p759
sg17
g759
sg19
g20
sbag1
(g2
g3
Ntp760
Rp761
(dp762
g7
V521
p763
sg9
VUnfezant
p764
sg11
VSw,Sh,
p765
sg13
VWanderer
p766
sg15
V41
p767
sg17
g767
sg19
g20
sbag1
(g2
g3
Ntp768
Rp769
(dp770
g7
V045
p771
sg9
VVileplume
p772
sg11
VSw,Sh,
p773
sg13
VWanderer
p774
sg15
V41
p775
sg17
g775
sg19
g20
sbag1
(g2
g3
Ntp776
Rp777
(dp778
g7
V182
p779
sg9
VBellossom
p780
sg11
VSw,Sh,
p781
sg13
VWanderer
p782
sg15
V41
p783
sg17
g783
sg19
g20
sbag1
(g2
g3
Ntp784
Rp785
(dp786
g7
V423
p787
sg9
VGastrodon
p788
sg11
VSw,Sh,
p789
sg13
VWanderer
p790
sg15
V56
p791
sg17
g791
sg19
V0
p792
sba.