(lp0
ccopy_reg
_reconstructor
p1
(c__main__
WildPokemon
p2
c__builtin__
object
p3
Ntp4
Rp5
(dp6
VpDexNo
p7
V051
p8
sVpSpecies
p9
VDugtrio
p10
sVpGames
p11
VSw,Sh,
p12
sVpArea
p13
VGrass
p14
sVpMinLevel
p15
V26
p16
sVpMaxLevel
p17
V28
p18
sVpRate
p19
V0
p20
sbag1
(g2
g3
Ntp21
Rp22
(dp23
g7
V225
p24
sg9
VDelibird
p25
sg11
VSw,Sh,
p26
sg13
VGrass
p27
sg15
V26
p28
sg17
V28
p29
sg19
g20
sbag1
(g2
g3
Ntp30
Rp31
(dp32
g7
V271
p33
sg9
VLombre
p34
sg11
VSh,
p35
sg13
VGrass
p36
sg15
V27
p37
sg17
V29
p38
sg19
g20
sbag1
(g2
g3
Ntp39
Rp40
(dp41
g7
V274
p42
sg9
VNuzleaf
p43
sg11
VSw,
p44
sg13
VGrass
p45
sg15
V27
p46
sg17
V29
p47
sg19
g20
sbag1
(g2
g3
Ntp48
Rp49
(dp50
g7
V343
p51
sg9
VBaltoy
p52
sg11
VSw,Sh,
p53
sg13
VGrass
p54
sg15
V26
p55
sg17
V28
p56
sg19
g20
sbag1
(g2
g3
Ntp57
Rp58
(dp59
g7
V355
p60
sg9
VDuskull
p61
sg11
VSw,Sh,
p62
sg13
VGrass
p63
sg15
V26
p64
sg17
V28
p65
sg19
g20
sbag1
(g2
g3
Ntp66
Rp67
(dp68
g7
V361
p69
sg9
VSnorunt
p70
sg11
VSw,Sh,
p71
sg13
VGrass
p72
sg15
V26
p73
sg17
V28
p74
sg19
g20
sbag1
(g2
g3
Ntp75
Rp76
(dp77
g7
V422
p78
sg9
VShellos
p79
sg11
VSw,Sh,
p80
sg13
VGrass
p81
sg15
V26
p82
sg17
V28
p83
sg19
g20
sbag1
(g2
g3
Ntp84
Rp85
(dp86
g7
V434
p87
sg9
VStunky
p88
sg11
VSw,Sh,
p89
sg13
VGrass
p90
sg15
V27
p91
sg17
V29
p92
sg19
g20
sbag1
(g2
g3
Ntp93
Rp94
(dp95
g7
V459
p96
sg9
VSnover
p97
sg11
VSw,Sh,
p98
sg13
VGrass
p99
sg15
V26
p100
sg17
V28
p101
sg19
g20
sbag1
(g2
g3
Ntp102
Rp103
(dp104
g7
V517
p105
sg9
VMunna
p106
sg11
VSw,Sh,
p107
sg13
VGrass
p108
sg15
V26
p109
sg17
V28
p110
sg19
g20
sbag1
(g2
g3
Ntp111
Rp112
(dp113
g7
V517
p114
sg9
VMunna
p115
sg11
VSw,Sh,
p116
sg13
VGrass
p117
sg15
V27
p118
sg17
V29
p119
sg19
g20
sbag1
(g2
g3
Ntp120
Rp121
(dp122
g7
V529
p123
sg9
VDrilbur
p124
sg11
VSw,Sh,
p125
sg13
VGrass
p126
sg15
V26
p127
sg17
V28
p128
sg19
g20
sbag1
(g2
g3
Ntp129
Rp130
(dp131
g7
V536
p132
sg9
VPalpitoad
p133
sg11
VSw,Sh,
p134
sg13
VGrass
p135
sg15
V26
p136
sg17
V28
p137
sg19
g20
sbag1
(g2
g3
Ntp138
Rp139
(dp140
g7
V588
p141
sg9
VKarrablast
p142
sg11
g44
sg13
VGrass
p143
sg15
V27
p144
sg17
V29
p145
sg19
g20
sbag1
(g2
g3
Ntp146
Rp147
(dp148
g7
V595
p149
sg9
VJoltik
p150
sg11
VSw,Sh,
p151
sg13
VGrass
p152
sg15
V26
p153
sg17
V28
p154
sg19
g20
sbag1
(g2
g3
Ntp155
Rp156
(dp157
g7
V616
p158
sg9
VShelmet
p159
sg11
g35
sg13
VGrass
p160
sg15
V27
p161
sg17
V29
p162
sg19
g20
sbag1
(g2
g3
Ntp163
Rp164
(dp165
g7
V622
p166
sg9
VGolett
p167
sg11
VSw,Sh,
p168
sg13
VGrass
p169
sg15
V26
p170
sg17
V28
p171
sg19
g20
sbag1
(g2
g3
Ntp172
Rp173
(dp174
g7
V624
p175
sg9
VPawniard
p176
sg11
VSw,Sh,
p177
sg13
VGrass
p178
sg15
V26
p179
sg17
V28
p180
sg19
g20
sbag1
(g2
g3
Ntp181
Rp182
(dp183
g7
V749
p184
sg9
VMudbray
p185
sg11
VSw,Sh,
p186
sg13
VGrass
p187
sg15
V26
p188
sg17
V28
p189
sg19
g20
sbag1
(g2
g3
Ntp190
Rp191
(dp192
g7
V825
p193
sg9
VDottler
p194
sg11
VSw,Sh,
p195
sg13
VGrass
p196
sg15
V26
p197
sg17
V28
p198
sg19
g20
sbag1
(g2
g3
Ntp199
Rp200
(dp201
g7
V825
p202
sg9
VDottler
p203
sg11
VSw,Sh,
p204
sg13
VGrass
p205
sg15
V27
p206
sg17
V29
p207
sg19
g20
sbag1
(g2
g3
Ntp208
Rp209
(dp210
g7
V830
p211
sg9
VEldegoss
p212
sg11
VSw,Sh,
p213
sg13
VGrass
p214
sg15
V26
p215
sg17
V28
p216
sg19
g20
sbag1
(g2
g3
Ntp217
Rp218
(dp219
g7
V830
p220
sg9
VEldegoss
p221
sg11
VSw,Sh,
p222
sg13
VGrass
p223
sg15
V27
p224
sg17
V29
p225
sg19
g20
sbag1
(g2
g3
Ntp226
Rp227
(dp228
g7
V848
p229
sg9
VToxel
p230
sg11
VSw,Sh,
p231
sg13
VGrass
p232
sg15
V26
p233
sg17
V28
p234
sg19
g20
sbag1
(g2
g3
Ntp235
Rp236
(dp237
g7
V420
p238
sg9
VCherubi
p239
sg11
VSw,Sh,
p240
sg13
VBerry tree
p241
sg15
V26
p242
sg17
V28
p243
sg19
V25
p244
sbag1
(g2
g3
Ntp245
Rp246
(dp247
g7
V820
p248
sg9
VGreedent
p249
sg11
VSw,Sh,
p250
sg13
VBerry tree
p251
sg15
V26
p252
sg17
V28
p253
sg19
V75
p254
sbag1
(g2
g3
Ntp255
Rp256
(dp257
g7
V098
p258
sg9
VKrabby
p259
sg11
VSw,Sh,
p260
sg13
VFishing
p261
sg15
V26
p262
sg17
V28
p263
sg19
V35
p264
sbag1
(g2
g3
Ntp265
Rp266
(dp267
g7
V118
p268
sg9
VGoldeen
p269
sg11
VSw,Sh,
p270
sg13
VFishing
p271
sg15
V26
p272
sg17
V28
p273
sg19
V50
p274
sbag1
(g2
g3
Ntp275
Rp276
(dp277
g7
V130
p278
sg9
VGyarados
p279
sg11
VSw,Sh,
p280
sg13
VFishing
p281
sg15
V26
p282
sg17
V28
p283
sg19
V5
p284
sbag1
(g2
g3
Ntp285
Rp286
(dp287
g7
V341
p288
sg9
VCorphish
p289
sg11
VSw,Sh,
p290
sg13
VFishing
p291
sg15
V26
p292
sg17
V28
p293
sg19
V10
p294
sbag1
(g2
g3
Ntp295
Rp296
(dp297
g7
V035
p298
sg9
VClefairy
p299
sg11
VSw,Sh,
p300
sg13
VGrass
p301
sg15
V28
p302
sg17
V30
p303
sg19
g20
sbag1
(g2
g3
Ntp304
Rp305
(dp306
g7
V044
p307
sg9
VGloom
p308
sg11
VSw,Sh,
p309
sg13
VGrass
p310
sg15
V28
p311
sg17
V30
p312
sg19
g20
sbag1
(g2
g3
Ntp313
Rp314
(dp315
g7
V164
p316
sg9
VNoctowl
p317
sg11
VSw,Sh,
p318
sg13
VGrass
p319
sg15
V28
p320
sg17
V30
p321
sg19
g20
sbag1
(g2
g3
Ntp322
Rp323
(dp324
g7
V195
p325
sg9
VQuagsire
p326
sg11
VSw,Sh,
p327
sg13
VGrass
p328
sg15
V28
p329
sg17
V30
p330
sg19
g20
sbag1
(g2
g3
Ntp331
Rp332
(dp333
g7
V213
p334
sg9
VShuckle
p335
sg11
VSw,Sh,
p336
sg13
VGrass
p337
sg15
V28
p338
sg17
V30
p339
sg19
g20
sbag1
(g2
g3
Ntp340
Rp341
(dp342
g7
V215
p343
sg9
VSneasel
p344
sg11
VSw,Sh,
p345
sg13
VGrass
p346
sg15
V28
p347
sg17
V30
p348
sg19
g20
sbag1
(g2
g3
Ntp349
Rp350
(dp351
g7
V264
p352
sg9
VLinoone
p353
sg11
VSw,Sh,
p354
sg13
VGrass
p355
sg15
V28
p356
sg17
V30
p357
sg19
g20
sbag1
(g2
g3
Ntp358
Rp359
(dp360
g7
V310
p361
sg9
VManectric
p362
sg11
VSw,Sh,
p363
sg13
VGrass
p364
sg15
V28
p365
sg17
V30
p366
sg19
g20
sbag1
(g2
g3
Ntp367
Rp368
(dp369
g7
V324
p370
sg9
VTorkoal
p371
sg11
VSw,Sh,
p372
sg13
VGrass
p373
sg15
V28
p374
sg17
V30
p375
sg19
g20
sbag1
(g2
g3
Ntp376
Rp377
(dp378
g7
V447
p379
sg9
VRiolu
p380
sg11
VSw,Sh,
p381
sg13
VGrass
p382
sg15
V28
p383
sg17
V30
p384
sg19
g20
sbag1
(g2
g3
Ntp385
Rp386
(dp387
g7
V453
p388
sg9
VCroagunk
p389
sg11
g35
sg13
VGrass
p390
sg15
V28
p391
sg17
V30
p392
sg19
g20
sbag1
(g2
g3
Ntp393
Rp394
(dp395
g7
V510
p396
sg9
VLiepard
p397
sg11
VSw,Sh,
p398
sg13
VGrass
p399
sg15
V28
p400
sg17
V30
p401
sg19
g20
sbag1
(g2
g3
Ntp402
Rp403
(dp404
g7
V559
p405
sg9
VScraggy
p406
sg11
g44
sg13
VGrass
p407
sg15
V28
p408
sg17
V30
p409
sg19
g20
sbag1
(g2
g3
Ntp410
Rp411
(dp412
g7
V572
p413
sg9
VMinccino
p414
sg11
VSw,Sh,
p415
sg13
VGrass
p416
sg15
V28
p417
sg17
V30
p418
sg19
V10
p419
sbag1
(g2
g3
Ntp420
Rp421
(dp422
g7
V574
p423
sg9
VGothita
p424
sg11
g44
sg13
VGrass
p425
sg15
V28
p426
sg17
V30
p427
sg19
g20
sbag1
(g2
g3
Ntp428
Rp429
(dp430
g7
V577
p431
sg9
VSolosis
p432
sg11
g35
sg13
VGrass
p433
sg15
V28
p434
sg17
V30
p435
sg19
g20
sbag1
(g2
g3
Ntp436
Rp437
(dp438
g7
V582
p439
sg9
VVanillite
p440
sg11
VSw,Sh,
p441
sg13
VGrass
p442
sg15
V28
p443
sg17
V30
p444
sg19
g20
sbag1
(g2
g3
Ntp445
Rp446
(dp447
g7
V660
p448
sg9
VDiggersby
p449
sg11
VSw,Sh,
p450
sg13
VGrass
p451
sg15
V28
p452
sg17
V30
p453
sg19
g20
sbag1
(g2
g3
Ntp454
Rp455
(dp456
g7
V834
p457
sg9
VDrednaw
p458
sg11
VSw,Sh,
p459
sg13
VGrass
p460
sg15
V28
p461
sg17
V30
p462
sg19
g20
sbag1
(g2
g3
Ntp463
Rp464
(dp465
g7
V838
p466
sg9
VCarkol
p467
sg11
VSw,Sh,
p468
sg13
VGrass
p469
sg15
V28
p470
sg17
V30
p471
sg19
g20
sbag1
(g2
g3
Ntp472
Rp473
(dp474
g7
V035
p475
sg9
VClefairy
p476
sg11
g35
sg13
VGrass
p477
sg15
V28
p478
sg17
V32
p479
sg19
g20
sbag1
(g2
g3
Ntp480
Rp481
(dp482
g7
V035
p483
sg9
VClefairy
p484
sg11
g44
sg13
VGrass
p485
sg15
V29
p486
sg17
V32
p487
sg19
g20
sbag1
(g2
g3
Ntp488
Rp489
(dp490
g7
V044
p491
sg9
VGloom
p492
sg11
VSw,Sh,
p493
sg13
VGrass
p494
sg15
V29
p495
sg17
V32
p496
sg19
g20
sbag1
(g2
g3
Ntp497
Rp498
(dp499
g7
V194
p500
sg9
VWooper
p501
sg11
VSw,Sh,
p502
sg13
VGrass
p503
sg15
V29
p504
sg17
V32
p505
sg19
g20
sbag1
(g2
g3
Ntp506
Rp507
(dp508
g7
V213
p509
sg9
VShuckle
p510
sg11
VSw,Sh,
p511
sg13
VGrass
p512
sg15
V29
p513
sg17
V32
p514
sg19
g20
sbag1
(g2
g3
Ntp515
Rp516
(dp517
g7
V215
p518
sg9
VSneasel
p519
sg11
VSw,Sh,
p520
sg13
VGrass
p521
sg15
V29
p522
sg17
V32
p523
sg19
g20
sbag1
(g2
g3
Ntp524
Rp525
(dp526
g7
V263
p527
sg9
VZigzagoon
p528
sg11
g35
sg13
VGrass
p529
sg15
V28
p530
sg17
V32
p531
sg19
g20
sbag1
(g2
g3
Ntp532
Rp533
(dp534
g7
V263
p535
sg9
VZigzagoon
p536
sg11
g44
sg13
VGrass
p537
sg15
V29
p538
sg17
V32
p539
sg19
g20
sbag1
(g2
g3
Ntp540
Rp541
(dp542
g7
V263
p543
sg9
VZigzagoon
p544
sg11
g35
sg13
VGrass
p545
sg15
V29
p546
sg17
V32
p547
sg19
g20
sbag1
(g2
g3
Ntp548
Rp549
(dp550
g7
V324
p551
sg9
VTorkoal
p552
sg11
VSw,Sh,
p553
sg13
VGrass
p554
sg15
V29
p555
sg17
V32
p556
sg19
g20
sbag1
(g2
g3
Ntp557
Rp558
(dp559
g7
V447
p560
sg9
VRiolu
p561
sg11
VSw,Sh,
p562
sg13
VGrass
p563
sg15
V29
p564
sg17
V32
p565
sg19
g20
sbag1
(g2
g3
Ntp566
Rp567
(dp568
g7
V453
p569
sg9
VCroagunk
p570
sg11
g35
sg13
VGrass
p571
sg15
V29
p572
sg17
V32
p573
sg19
g20
sbag1
(g2
g3
Ntp574
Rp575
(dp576
g7
V559
p577
sg9
VScraggy
p578
sg11
g44
sg13
VGrass
p579
sg15
V29
p580
sg17
V32
p581
sg19
g20
sbag1
(g2
g3
Ntp582
Rp583
(dp584
g7
V575
p585
sg9
VGothorita
p586
sg11
g44
sg13
VGrass
p587
sg15
V29
p588
sg17
V32
p589
sg19
g20
sbag1
(g2
g3
Ntp590
Rp591
(dp592
g7
V577
p593
sg9
VSolosis
p594
sg11
g35
sg13
VGrass
p595
sg15
V28
p596
sg17
V32
p597
sg19
g20
sbag1
(g2
g3
Ntp598
Rp599
(dp600
g7
V582
p601
sg9
VVanillite
p602
sg11
VSw,Sh,
p603
sg13
VGrass
p604
sg15
V29
p605
sg17
V32
p606
sg19
g20
sbag1
(g2
g3
Ntp607
Rp608
(dp609
g7
V659
p610
sg9
VBunnelby
p611
sg11
VSw,Sh,
p612
sg13
VGrass
p613
sg15
V29
p614
sg17
V32
p615
sg19
g20
sbag1
(g2
g3
Ntp616
Rp617
(dp618
g7
V824
p619
sg9
VBlipbug
p620
sg11
VSw,Sh,
p621
sg13
VGrass
p622
sg15
V29
p623
sg17
V32
p624
sg19
g20
sbag1
(g2
g3
Ntp625
Rp626
(dp627
g7
V833
p628
sg9
VChewtle
p629
sg11
g35
sg13
VGrass
p630
sg15
V28
p631
sg17
V32
p632
sg19
g20
sbag1
(g2
g3
Ntp633
Rp634
(dp635
g7
V833
p636
sg9
VChewtle
p637
sg11
g44
sg13
VGrass
p638
sg15
V29
p639
sg17
V32
p640
sg19
g20
sbag1
(g2
g3
Ntp641
Rp642
(dp643
g7
V833
p644
sg9
VChewtle
p645
sg11
g35
sg13
VGrass
p646
sg15
V29
p647
sg17
V32
p648
sg19
g20
sbag1
(g2
g3
Ntp649
Rp650
(dp651
g7
V837
p652
sg9
VRolycoly
p653
sg11
VSw,Sh,
p654
sg13
VGrass
p655
sg15
V29
p656
sg17
V32
p657
sg19
g20
sbag1
(g2
g3
Ntp658
Rp659
(dp660
g7
V035
p661
sg9
VClefairy
p662
sg11
VSw,Sh,
p663
sg13
VGrass
p664
sg15
V28
p665
sg17
V30
p666
sg19
g20
sbag1
(g2
g3
Ntp667
Rp668
(dp669
g7
V044
p670
sg9
VGloom
p671
sg11
VSw,Sh,
p672
sg13
VGrass
p673
sg15
V28
p674
sg17
V30
p675
sg19
g20
sbag1
(g2
g3
Ntp676
Rp677
(dp678
g7
V163
p679
sg9
VHoothoot
p680
sg11
VSw,Sh,
p681
sg13
VGrass
p682
sg15
V28
p683
sg17
V30
p684
sg19
g20
sbag1
(g2
g3
Ntp685
Rp686
(dp687
g7
V194
p688
sg9
VWooper
p689
sg11
VSw,Sh,
p690
sg13
VGrass
p691
sg15
V28
p692
sg17
V30
p693
sg19
g20
sbag1
(g2
g3
Ntp694
Rp695
(dp696
g7
V213
p697
sg9
VShuckle
p698
sg11
VSw,Sh,
p699
sg13
VGrass
p700
sg15
V28
p701
sg17
V30
p702
sg19
g20
sbag1
(g2
g3
Ntp703
Rp704
(dp705
g7
V215
p706
sg9
VSneasel
p707
sg11
VSw,Sh,
p708
sg13
VGrass
p709
sg15
V28
p710
sg17
V30
p711
sg19
g20
sbag1
(g2
g3
Ntp712
Rp713
(dp714
g7
V324
p715
sg9
VTorkoal
p716
sg11
VSw,Sh,
p717
sg13
VGrass
p718
sg15
V28
p719
sg17
V30
p720
sg19
g20
sbag1
(g2
g3
Ntp721
Rp722
(dp723
g7
V447
p724
sg9
VRiolu
p725
sg11
VSw,Sh,
p726
sg13
VGrass
p727
sg15
V28
p728
sg17
V30
p729
sg19
g20
sbag1
(g2
g3
Ntp730
Rp731
(dp732
g7
V453
p733
sg9
VCroagunk
p734
sg11
g35
sg13
VGrass
p735
sg15
V28
p736
sg17
V30
p737
sg19
g20
sbag1
(g2
g3
Ntp738
Rp739
(dp740
g7
V559
p741
sg9
VScraggy
p742
sg11
g44
sg13
VGrass
p743
sg15
V28
p744
sg17
V30
p745
sg19
g20
sbag1
(g2
g3
Ntp746
Rp747
(dp748
g7
V574
p749
sg9
VGothita
p750
sg11
g44
sg13
VGrass
p751
sg15
V28
p752
sg17
V30
p753
sg19
g20
sbag1
(g2
g3
Ntp754
Rp755
(dp756
g7
V577
p757
sg9
VSolosis
p758
sg11
g35
sg13
VGrass
p759
sg15
V28
p760
sg17
V30
p761
sg19
g20
sbag1
(g2
g3
Ntp762
Rp763
(dp764
g7
V582
p765
sg9
VVanillite
p766
sg11
VSw,Sh,
p767
sg13
VGrass
p768
sg15
V28
p769
sg17
V30
p770
sg19
g20
sbag1
(g2
g3
Ntp771
Rp772
(dp773
g7
V659
p774
sg9
VBunnelby
p775
sg11
VSw,Sh,
p776
sg13
VGrass
p777
sg15
V28
p778
sg17
V30
p779
sg19
g20
sbag1
(g2
g3
Ntp780
Rp781
(dp782
g7
V824
p783
sg9
VBlipbug
p784
sg11
VSw,Sh,
p785
sg13
VGrass
p786
sg15
V28
p787
sg17
V30
p788
sg19
g20
sbag1
(g2
g3
Ntp789
Rp790
(dp791
g7
V825
p792
sg9
VDottler
p793
sg11
VSw,Sh,
p794
sg13
VGrass
p795
sg15
V28
p796
sg17
V30
p797
sg19
g20
sbag1
(g2
g3
Ntp798
Rp799
(dp800
g7
V833
p801
sg9
VChewtle
p802
sg11
VSw,Sh,
p803
sg13
VGrass
p804
sg15
V28
p805
sg17
V30
p806
sg19
g20
sbag1
(g2
g3
Ntp807
Rp808
(dp809
g7
V837
p810
sg9
VRolycoly
p811
sg11
VSw,Sh,
p812
sg13
VGrass
p813
sg15
V28
p814
sg17
V30
p815
sg19
g20
sbag1
(g2
g3
Ntp816
Rp817
(dp818
g7
V111
p819
sg9
VRhyhorn
p820
sg11
g44
sg13
VDirt
p821
sg15
V31
p822
sg17
V34
p823
sg19
g20
sbag1
(g2
g3
Ntp824
Rp825
(dp826
g7
V111
p827
sg9
VRhyhorn
p828
sg11
g35
sg13
VDirt
p829
sg15
V31
p830
sg17
V34
p831
sg19
g20
sbag1
(g2
g3
Ntp832
Rp833
(dp834
g7
V525
p835
sg9
VBoldore
p836
sg11
g44
sg13
VDirt
p837
sg15
V31
p838
sg17
V34
p839
sg19
V10
p840
sbag1
(g2
g3
Ntp841
Rp842
(dp843
g7
V525
p844
sg9
VBoldore
p845
sg11
g35
sg13
VDirt
p846
sg15
V31
p847
sg17
V34
p848
sg19
V30
p849
sbag1
(g2
g3
Ntp850
Rp851
(dp852
g7
V837
p853
sg9
VRolycoly
p854
sg11
g44
sg13
VDirt
p855
sg15
V31
p856
sg17
V34
p857
sg19
g20
sbag1
(g2
g3
Ntp858
Rp859
(dp860
g7
V837
p861
sg9
VRolycoly
p862
sg11
g35
sg13
VDirt
p863
sg15
V31
p864
sg17
V34
p865
sg19
g20
sbag1
(g2
g3
Ntp866
Rp867
(dp868
g7
V337
p869
sg9
VLunatone
p870
sg11
g35
sg13
VDirt
p871
sg15
V41
p872
sg17
V44
p873
sg19
V100
p874
sbag1
(g2
g3
Ntp875
Rp876
(dp877
g7
V338
p878
sg9
VSolrock
p879
sg11
g44
sg13
VDirt
p880
sg15
V41
p881
sg17
V44
p882
sg19
V100
p883
sbag1
(g2
g3
Ntp884
Rp885
(dp886
g7
V094
p887
sg9
VGengar
p888
sg11
VSw,Sh,
p889
sg13
VWanderer
p890
sg15
V60
p891
sg17
g891
sg19
g20
sbag1
(g2
g3
Ntp892
Rp893
(dp894
g7
V768
p895
sg9
VGolisopod
p896
sg11
VSw,Sh,
p897
sg13
VWanderer
p898
sg15
V60
p899
sg17
g899
sg19
g20
sbag1
(g2
g3
Ntp900
Rp901
(dp902
g7
V614
p903
sg9
VBeartic
p904
sg11
VSw,Sh,
p905
sg13
VWanderer
p906
sg15
V60
p907
sg17
g907
sg19
g20
sbag1
(g2
g3
Ntp908
Rp909
(dp910
g7
V839
p911
sg9
VCoalossal
p912
sg11
VSw,Sh,
p913
sg13
VWanderer
p914
sg15
V65
p915
sg17
g915
sg19
V0
p916
sbag1
(g2
g3
Ntp917
Rp918
(dp919
g7
V823
p920
sg9
VCorviknight
p921
sg11
VSw,Sh,
p922
sg13
VWanderer
p923
sg15
V39
p924
sg17
g924
sg19
V0
p925
sbag1
(g2
g3
Ntp926
Rp927
(dp928
g7
V362
p929
sg9
VGlalie
p930
sg11
VSw,Sh,
p931
sg13
VWanderer
p932
sg15
V46
p933
sg17
g933
sg19
g20
sbag1
(g2
g3
Ntp934
Rp935
(dp936
g7
V530
p937
sg9
VExcadrill
p938
sg11
VSw,Sh,
p939
sg13
VWanderer
p940
sg15
V46
p941
sg17
g941
sg19
g20
sbag1
(g2
g3
Ntp942
Rp943
(dp944
g7
V537
p945
sg9
VSeismitoad
p946
sg11
VSw,Sh,
p947
sg13
VWanderer
p948
sg15
V46
p949
sg17
g949
sg19
g20
sbag1
(g2
g3
Ntp950
Rp951
(dp952
g7
V573
p953
sg9
VCinccino
p954
sg11
VSw,Sh,
p955
sg13
VWanderer
p956
sg15
V46
p957
sg17
g957
sg19
g20
sbag1
(g2
g3
Ntp958
Rp959
(dp960
g7
V596
p961
sg9
VGalvantula
p962
sg11
VSw,Sh,
p963
sg13
VWanderer
p964
sg15
V46
p965
sg17
g965
sg19
g20
sbag1
(g2
g3
Ntp966
Rp967
(dp968
g7
V826
p969
sg9
VOrbeetle
p970
sg11
VSw,Sh,
p971
sg13
VWanderer
p972
sg15
V41
p973
sg17
g973
sg19
V0
p974
sbag1
(g2
g3
Ntp975
Rp976
(dp977
g7
V834
p978
sg9
VDrednaw
p979
sg11
VSw,Sh,
p980
sg13
VWanderer
p981
sg15
V36
p982
sg17
g982
sg19
V0
p983
sbag1
(g2
g3
Ntp984
Rp985
(dp986
g7
V680
p987
sg9
VDoublade
p988
sg11
VSw,Sh,
p989
sg13
VWanderer
p990
sg15
V56
p991
sg17
g991
sg19
g20
sbag1
(g2
g3
Ntp992
Rp993
(dp994
g7
V681
p995
sg9
VAegislash
p996
sg11
VSw,Sh,
p997
sg13
VWanderer
p998
sg15
V58
p999
sg17
g999
sg19
g20
sba.