(lp0
ccopy_reg
_reconstructor
p1
(c__main__
WildPokemon
p2
c__builtin__
object
p3
Ntp4
Rp5
(dp6
VpDexNo
p7
V077
p8
sVpSpecies
p9
VPonyta
p10
sVpGames
p11
VSh,
p12
sVpArea
p13
VGrass
p14
sVpMinLevel
p15
V34
p16
sVpMaxLevel
p17
V36
p18
sVpRate
p19
V10
p20
sbag1
(g2
g3
Ntp21
Rp22
(dp23
g7
V682
p24
sg9
VSpritzee
p25
sg11
g12
sg13
VGrass
p26
sg15
V34
p27
sg17
V36
p28
sg19
V10
p29
sbag1
(g2
g3
Ntp30
Rp31
(dp32
g7
V684
p33
sg9
VSwirlix
p34
sg11
VSw,
p35
sg13
VGrass
p36
sg15
V34
p37
sg17
V36
p38
sg19
V10
p39
sbag1
(g2
g3
Ntp40
Rp41
(dp42
g7
V708
p43
sg9
VPhantump
p44
sg11
VSw,Sh,
p45
sg13
VGrass
p46
sg15
V34
p47
sg17
V36
p48
sg19
V10
p49
sbag1
(g2
g3
Ntp50
Rp51
(dp52
g7
V756
p53
sg9
VShiinotic
p54
sg11
g35
sg13
VGrass
p55
sg15
V34
p56
sg17
V36
p57
sg19
V20
p58
sbag1
(g2
g3
Ntp59
Rp60
(dp61
g7
V756
p62
sg9
VShiinotic
p63
sg11
g12
sg13
VGrass
p64
sg15
V34
p65
sg17
V36
p66
sg19
V15
p67
sbag1
(g2
g3
Ntp68
Rp69
(dp70
g7
V765
p71
sg9
VOranguru
p72
sg11
g12
sg13
VGrass
p73
sg15
V34
p74
sg17
V36
p75
sg19
V9
p76
sbag1
(g2
g3
Ntp77
Rp78
(dp79
g7
V766
p80
sg9
VPassimian
p81
sg11
g35
sg13
VGrass
p82
sg15
V34
p83
sg17
V36
p84
sg19
V9
p85
sbag1
(g2
g3
Ntp86
Rp87
(dp88
g7
V854
p89
sg9
VSinistea
p90
sg11
VSw,Sh,
p91
sg13
VGrass
p92
sg15
V34
p93
sg17
V36
p94
sg19
V10
p95
sbag1
(g2
g3
Ntp96
Rp97
(dp98
g7
V854
p99
sg9
VSinistea
p100
sg11
VSw,Sh,
p101
sg13
VGrass
p102
sg15
V34
p103
sg17
V36
p104
sg19
V1
p105
sbag1
(g2
g3
Ntp106
Rp107
(dp108
g7
V857
p109
sg9
VHattrem
p110
sg11
g35
sg13
VGrass
p111
sg15
V34
p112
sg17
V36
p113
sg19
V15
p114
sbag1
(g2
g3
Ntp115
Rp116
(dp117
g7
V857
p118
sg9
VHattrem
p119
sg11
g12
sg13
VGrass
p120
sg15
V34
p121
sg17
V36
p122
sg19
V10
p123
sbag1
(g2
g3
Ntp124
Rp125
(dp126
g7
V860
p127
sg9
VMorgrem
p128
sg11
VSw,Sh,
p129
sg13
VGrass
p130
sg15
V34
p131
sg17
V36
p132
sg19
V20
p133
sbag1
(g2
g3
Ntp134
Rp135
(dp136
g7
V876
p137
sg9
VIndeedee
p138
sg11
g35
sg13
VGrass
p139
sg15
V34
p140
sg17
V36
p141
sg19
V5
p142
sbag1
(g2
g3
Ntp143
Rp144
(dp145
g7
V876
p146
sg9
VIndeedee
p147
sg11
g12
sg13
VGrass
p148
sg15
V34
p149
sg17
V36
p150
sg19
V5
p151
sbag1
(g2
g3
Ntp152
Rp153
(dp154
g7
V859
p155
sg9
VImpidimp
p156
sg11
VSw,Sh,
p157
sg13
VWanderer
p158
sg15
V31
p159
sg17
g159
sg19
V0
p160
sbag1
(g2
g3
Ntp161
Rp162
(dp163
g7
V860
p164
sg9
VMorgrem
p165
sg11
VSw,Sh,
p166
sg13
VWanderer
p167
sg15
V38
p168
sg17
g168
sg19
V0
p169
sba.