(lp0
ccopy_reg
_reconstructor
p1
(c__main__
WildPokemon
p2
c__builtin__
object
p3
Ntp4
Rp5
(dp6
VpDexNo
p7
V066
p8
sVpSpecies
p9
VMachop
p10
sVpGames
p11
VX,Y,
p12
sVpArea
p13
VCave
p14
sVpMinLevel
p15
V15
p16
sVpMaxLevel
p17
V17
p18
sVpRate
p19
V30
p20
sbag1
(g2
g3
Ntp21
Rp22
(dp23
g7
V095
p24
sg9
VOnix
p25
sg11
VX,Y,
p26
sg13
VCave
p27
sg15
V17
p28
sg17
g28
sg19
V10
p29
sbag1
(g2
g3
Ntp30
Rp31
(dp32
g7
V104
p33
sg9
VCubone
p34
sg11
VX,Y,
p35
sg13
VCave
p36
sg15
V15
p37
sg17
V16
p38
sg19
V20
p39
sbag1
(g2
g3
Ntp40
Rp41
(dp42
g7
V111
p43
sg9
VRhyhorn
p44
sg11
VX,Y,
p45
sg13
VCave
p46
sg15
V17
p47
sg17
g47
sg19
V10
p48
sbag1
(g2
g3
Ntp49
Rp50
(dp51
g7
V115
p52
sg9
VKangaskhan
p53
sg11
VX,Y,
p54
sg13
VCave
p55
sg15
V17
p56
sg17
g56
sg19
V5
p57
sbag1
(g2
g3
Ntp58
Rp59
(dp60
g7
V303
p61
sg9
VMawile
p62
sg11
VX,Y,
p63
sg13
VCave
p64
sg15
V15
p65
sg17
V16
p66
sg19
V5
p67
sbag1
(g2
g3
Ntp68
Rp69
(dp70
g7
V337
p71
sg9
VLunatone
p72
sg11
VX,Y,
p73
sg13
VCave
p74
sg15
V17
p75
sg17
g75
sg19
V10
p76
sbag1
(g2
g3
Ntp77
Rp78
(dp79
g7
V338
p80
sg9
VSolrock
p81
sg11
VX,Y,
p82
sg13
VCave
p83
sg15
V17
p84
sg17
g84
sg19
V10
p85
sbag1
(g2
g3
Ntp86
Rp87
(dp88
g7
V527
p89
sg9
VWoobat
p90
sg11
VX,Y,
p91
sg13
VCeiling
p92
sg15
V15
p93
sg17
V17
p94
sg19
V85
p95
sbag1
(g2
g3
Ntp96
Rp97
(dp98
g7
V597
p99
sg9
VFerroseed
p100
sg11
VX,Y,
p101
sg13
VCeiling
p102
sg15
V15
p103
sg17
V17
p104
sg19
V15
p105
sbag1
(g2
g3
Ntp106
Rp107
(dp108
g7
V095
p109
sg9
VOnix
p110
sg11
VX,Y,
p111
sg13
VRock Smash
p112
sg15
V15
p113
sg17
V17
p114
sg19
V35
p115
sbag1
(g2
g3
Ntp116
Rp117
(dp118
g7
V557
p119
sg9
VDwebble
p120
sg11
VX,Y,
p121
sg13
VRock Smash
p122
sg15
V15
p123
sg17
V17
p124
sg19
V65
p125
sba.