(lp0
ccopy_reg
_reconstructor
p1
(c__main__
WildPokemon
p2
c__builtin__
object
p3
Ntp4
Rp5
(dp6
VpDexNo
p7
V041
p8
sVpSpecies
p9
VZubat
p10
sVpGames
p11
VRu,S,E,
p12
sVpArea
p13
VCave
p14
sVpMinLevel
p15
V7
p16
sVpMaxLevel
p17
V8
p18
sVpRate
p19
V30
p20
sbag1
(g2
g3
Ntp21
Rp22
(dp23
g7
V063
p24
sg9
VAbra
p25
sg11
VRu,S,E,
p26
sg13
VCave
p27
sg15
g18
sg17
g18
sg19
V10
p28
sbag1
(g2
g3
Ntp29
Rp30
(dp31
g7
V074
p32
sg9
VGeodude
p33
sg11
VRu,S,E,
p34
sg13
VCave
p35
sg15
V6
p36
sg17
V9
p37
sg19
V10
p38
sbag1
(g2
g3
Ntp39
Rp40
(dp41
g7
V296
p42
sg9
VMakuhita
p43
sg11
VRu,S,E,
p44
sg13
VCave
p45
sg15
g36
sg17
V10
p46
sg19
V50
p47
sbag1
(g2
g3
Ntp48
Rp49
(dp50
g7
V041
p51
sg9
VZubat
p52
sg11
VRu,S,E,
p53
sg13
VCave
p54
sg15
g16
sg17
g18
sg19
V30
p55
sbag1
(g2
g3
Ntp56
Rp57
(dp58
g7
V063
p59
sg9
VAbra
p60
sg11
VRu,S,E,
p61
sg13
VCave
p62
sg15
g18
sg17
g18
sg19
V10
p63
sbag1
(g2
g3
Ntp64
Rp65
(dp66
g7
V296
p67
sg9
VMakuhita
p68
sg11
VRu,S,E,
p69
sg13
VCave
p70
sg15
g36
sg17
V10
p71
sg19
V50
p72
sbag1
(g2
g3
Ntp73
Rp74
(dp75
g7
V304
p76
sg9
VAron
p77
sg11
VRu,S,E,
p78
sg13
VCave
p79
sg15
g16
sg17
g18
sg19
V10
p80
sbag1
(g2
g3
Ntp81
Rp82
(dp83
g7
V041
p84
sg9
VZubat
p85
sg11
VRu,S,E,
p86
sg13
VCave
p87
sg15
g37
sg17
V10
p88
sg19
V30
p89
sbag1
(g2
g3
Ntp90
Rp91
(dp92
g7
V063
p93
sg9
VAbra
p94
sg11
VRu,S,E,
p95
sg13
VCave
p96
sg15
g37
sg17
g37
sg19
V10
p97
sbag1
(g2
g3
Ntp98
Rp99
(dp100
g7
V296
p101
sg9
VMakuhita
p102
sg11
VRu,S,E,
p103
sg13
VCave
p104
sg15
V10
p105
sg17
V11
p106
sg19
V10
p107
sbag1
(g2
g3
Ntp108
Rp109
(dp110
g7
V302
p111
sg9
VSableye
p112
sg11
VS,E,
p113
sg13
VCave
p114
sg15
g37
sg17
V11
p115
sg19
V10
p116
sbag1
(g2
g3
Ntp117
Rp118
(dp119
g7
V303
p120
sg9
VMawile
p121
sg11
VRu,
p122
sg13
VCave
p123
sg15
g37
sg17
V11
p124
sg19
V10
p125
sbag1
(g2
g3
Ntp126
Rp127
(dp128
g7
V304
p129
sg9
VAron
p130
sg11
VRu,S,E,
p131
sg13
VCave
p132
sg15
g37
sg17
V11
p133
sg19
V40
p134
sbag1
(g2
g3
Ntp135
Rp136
(dp137
g7
V041
p138
sg9
VZubat
p139
sg11
VRu,S,E,
p140
sg13
VCave
p141
sg15
V10
p142
sg17
V11
p143
sg19
V30
p144
sbag1
(g2
g3
Ntp145
Rp146
(dp147
g7
V063
p148
sg9
VAbra
p149
sg11
VRu,S,E,
p150
sg13
VCave
p151
sg15
V10
p152
sg17
g152
sg19
V10
p153
sbag1
(g2
g3
Ntp154
Rp155
(dp156
g7
V302
p157
sg9
VSableye
p158
sg11
VS,E,
p159
sg13
VCave
p160
sg15
V10
p161
sg17
V12
p162
sg19
V20
p163
sbag1
(g2
g3
Ntp164
Rp165
(dp166
g7
V303
p167
sg9
VMawile
p168
sg11
g122
sg13
VCave
p169
sg15
V10
p170
sg17
V12
p171
sg19
V20
p172
sbag1
(g2
g3
Ntp173
Rp174
(dp175
g7
V304
p176
sg9
VAron
p177
sg11
VRu,S,E,
p178
sg13
VCave
p179
sg15
V10
p180
sg17
V12
p181
sg19
V40
p182
sbag1
(g2
g3
Ntp183
Rp184
(dp185
g7
V074
p186
sg9
VGeodude
p187
sg11
VRu,S,E,
p188
sg13
VRock Smash
p189
sg15
V5
p190
sg17
V20
p191
sg19
V70
p192
sbag1
(g2
g3
Ntp193
Rp194
(dp195
g7
V299
p196
sg9
VNosepass
p197
sg11
VRu,S,E,
p198
sg13
VRock Smash
p199
sg15
V10
p200
sg17
V20
p201
sg19
V30
p202
sbag1
(g2
g3
Ntp203
Rp204
(dp205
g7
V041
p206
sg9
VZubat
p207
sg11
VOR,AS,
p208
sg13
VCave
p209
sg15
g37
sg17
V12
p210
sg19
V40
p211
sbag1
(g2
g3
Ntp212
Rp213
(dp214
g7
V063
p215
sg9
VAbra
p216
sg11
VOR,AS,
p217
sg13
VCave
p218
sg15
V10
p219
sg17
V12
p220
sg19
V15
p221
sbag1
(g2
g3
Ntp222
Rp223
(dp224
g7
V074
p225
sg9
VGeodude
p226
sg11
VOR,AS,
p227
sg13
VCave
p228
sg15
V10
p229
sg17
V12
p230
sg19
V5
p231
sbag1
(g2
g3
Ntp232
Rp233
(dp234
g7
V296
p235
sg9
VMakuhita
p236
sg11
VOR,AS,
p237
sg13
VCave
p238
sg15
g37
sg17
V12
p239
sg19
V40
p240
sbag1
(g2
g3
Ntp241
Rp242
(dp243
g7
V041
p244
sg9
VZubat
p245
sg11
VOR,AS,
p246
sg13
VHorde Encounter
p247
sg15
g36
sg17
g36
sg19
V60
p248
sbag1
(g2
g3
Ntp249
Rp250
(dp251
g7
V074
p252
sg9
VGeodude
p253
sg11
VOR,AS,
p254
sg13
VHorde Encounter
p255
sg15
g36
sg17
g36
sg19
V0
p256
sbag1
(g2
g3
Ntp257
Rp258
(dp259
g7
V296
p260
sg9
VMakuhita
p261
sg11
VOR,AS,
p262
sg13
VHorde Encounter
p263
sg15
g36
sg17
g36
sg19
V0
p264
sbag1
(g2
g3
Ntp265
Rp266
(dp267
g7
V296
p268
sg9
VMakuhita
p269
sg11
VOR,AS,
p270
sg13
VHorde Encounter
p271
sg15
g36
sg17
g36
sg19
V5
p272
sbag1
(g2
g3
Ntp273
Rp274
(dp275
g7
V095
p276
sg9
VOnix
p277
sg11
VOR,AS,
p278
sg13
VCave
p279
sg15
V12
p280
sg17
g280
sg19
V0
p281
sbag1
(g2
g3
Ntp282
Rp283
(dp284
g7
V532
p285
sg9
VTimburr
p286
sg11
VOR,AS,
p287
sg13
VCave
p288
sg15
V12
p289
sg17
g289
sg19
V0
p290
sbag1
(g2
g3
Ntp291
Rp292
(dp293
g7
V610
p294
sg9
VAxew
p295
sg11
VOR,AS,
p296
sg13
VCave
p297
sg15
V12
p298
sg17
g298
sg19
V0
p299
sbag1
(g2
g3
Ntp300
Rp301
(dp302
g7
V041
p303
sg9
VZubat
p304
sg11
VOR,AS,
p305
sg13
VCave
p306
sg15
V10
p307
sg17
V12
p308
sg19
V30
p309
sbag1
(g2
g3
Ntp310
Rp311
(dp312
g7
V063
p313
sg9
VAbra
p314
sg11
VOR,AS,
p315
sg13
VCave
p316
sg15
V10
p317
sg17
V12
p318
sg19
V20
p319
sbag1
(g2
g3
Ntp320
Rp321
(dp322
g7
V296
p323
sg9
VMakuhita
p324
sg11
VOR,AS,
p325
sg13
VCave
p326
sg15
V10
p327
sg17
V12
p328
sg19
V20
p329
sbag1
(g2
g3
Ntp330
Rp331
(dp332
g7
V304
p333
sg9
VAron
p334
sg11
VOR,AS,
p335
sg13
VCave
p336
sg15
V10
p337
sg17
V12
p338
sg19
V30
p339
sbag1
(g2
g3
Ntp340
Rp341
(dp342
g7
V041
p343
sg9
VZubat
p344
sg11
VOR,AS,
p345
sg13
VHorde Encounter
p346
sg15
g36
sg17
g36
sg19
V60
p347
sbag1
(g2
g3
Ntp348
Rp349
(dp350
g7
V304
p351
sg9
VAron
p352
sg11
VOR,AS,
p353
sg13
VHorde Encounter
p354
sg15
g36
sg17
g36
sg19
V40
p355
sbag1
(g2
g3
Ntp356
Rp357
(dp358
g7
V095
p359
sg9
VOnix
p360
sg11
VOR,AS,
p361
sg13
VCave
p362
sg15
V12
p363
sg17
g363
sg19
V0
p364
sbag1
(g2
g3
Ntp365
Rp366
(dp367
g7
V532
p368
sg9
VTimburr
p369
sg11
VOR,AS,
p370
sg13
VCave
p371
sg15
V12
p372
sg17
g372
sg19
V0
p373
sbag1
(g2
g3
Ntp374
Rp375
(dp376
g7
V610
p377
sg9
VAxew
p378
sg11
VOR,AS,
p379
sg13
VCave
p380
sg15
V12
p381
sg17
g381
sg19
V0
p382
sbag1
(g2
g3
Ntp383
Rp384
(dp385
g7
V041
p386
sg9
VZubat
p387
sg11
VOR,AS,
p388
sg13
VCave
p389
sg15
V10
p390
sg17
V12
p391
sg19
V30
p392
sbag1
(g2
g3
Ntp393
Rp394
(dp395
g7
V063
p396
sg9
VAbra
p397
sg11
VOR,AS,
p398
sg13
VCave
p399
sg15
V10
p400
sg17
V12
p401
sg19
V20
p402
sbag1
(g2
g3
Ntp403
Rp404
(dp405
g7
V303
p406
sg9
VMawile
p407
sg11
VOR,
p408
sg13
VCave
p409
sg15
V10
p410
sg17
V12
p411
sg19
V20
p412
sbag1
(g2
g3
Ntp413
Rp414
(dp415
g7
V302
p416
sg9
VSableye
p417
sg11
VAS,
p418
sg13
VCave
p419
sg15
V10
p420
sg17
V12
p421
sg19
V20
p422
sbag1
(g2
g3
Ntp423
Rp424
(dp425
g7
V304
p426
sg9
VAron
p427
sg11
VOR,AS,
p428
sg13
VCave
p429
sg15
V10
p430
sg17
V12
p431
sg19
V30
p432
sbag1
(g2
g3
Ntp433
Rp434
(dp435
g7
V041
p436
sg9
VZubat
p437
sg11
VOR,AS,
p438
sg13
VHorde Encounter
p439
sg15
g36
sg17
g36
sg19
V60
p440
sbag1
(g2
g3
Ntp441
Rp442
(dp443
g7
V302
p444
sg9
VSableye
p445
sg11
g418
sg13
VHorde Encounter
p446
sg15
g36
sg17
g36
sg19
V5
p447
sbag1
(g2
g3
Ntp448
Rp449
(dp450
g7
V303
p451
sg9
VMawile
p452
sg11
g408
sg13
VHorde Encounter
p453
sg15
g36
sg17
g36
sg19
V5
p454
sbag1
(g2
g3
Ntp455
Rp456
(dp457
g7
V304
p458
sg9
VAron
p459
sg11
VOR,AS,
p460
sg13
VHorde Encounter
p461
sg15
g36
sg17
g36
sg19
V35
p462
sbag1
(g2
g3
Ntp463
Rp464
(dp465
g7
V095
p466
sg9
VOnix
p467
sg11
VOR,AS,
p468
sg13
VCave
p469
sg15
V12
p470
sg17
g470
sg19
V0
p471
sbag1
(g2
g3
Ntp472
Rp473
(dp474
g7
V532
p475
sg9
VTimburr
p476
sg11
VOR,AS,
p477
sg13
VCave
p478
sg15
V12
p479
sg17
g479
sg19
V0
p480
sbag1
(g2
g3
Ntp481
Rp482
(dp483
g7
V610
p484
sg9
VAxew
p485
sg11
VOR,AS,
p486
sg13
VCave
p487
sg15
V12
p488
sg17
g488
sg19
V0
p489
sbag1
(g2
g3
Ntp490
Rp491
(dp492
g7
V074
p493
sg9
VGeodude
p494
sg11
VOR,AS,
p495
sg13
VRock Smash
p496
sg15
V10
p497
sg17
V12
p498
sg19
V84
p499
sbag1
(g2
g3
Ntp500
Rp501
(dp502
g7
V299
p503
sg9
VNosepass
p504
sg11
VOR,AS,
p505
sg13
VRock Smash
p506
sg15
V10
p507
sg17
V12
p508
sg19
V16
p509
sba.