(lp0
ccopy_reg
_reconstructor
p1
(c__main__
WildPokemon
p2
c__builtin__
object
p3
Ntp4
Rp5
(dp6
VpDexNo
p7
V054
p8
sVpSpecies
p9
VPsyduck
p10
sVpGames
p11
VD,P,
p12
sVpArea
p13
VSurf
p14
sVpMinLevel
p15
V20
p16
sVpMaxLevel
p17
V40
p18
sVpRate
p19
V5
p20
sbag1
(g2
g3
Ntp21
Rp22
(dp23
g7
V183
p24
sg9
VMarill
p25
sg11
VD,P,
p26
sg13
VSurf
p27
sg15
V20
p28
sg17
V30
p29
sg19
V30
p30
sbag1
(g2
g3
Ntp31
Rp32
(dp33
g7
V194
p34
sg9
VWooper
p35
sg11
VD,P,
p36
sg13
VSurf
p37
sg15
V20
p38
sg17
V30
p39
sg19
V60
p40
sbag1
(g2
g3
Ntp41
Rp42
(dp43
g7
V194
p44
sg9
VWooper
p45
sg11
VPt,
p46
sg13
VSurf
p47
sg15
V20
p48
sg17
V30
p49
sg19
V90
p50
sbag1
(g2
g3
Ntp51
Rp52
(dp53
g7
V195
p54
sg9
VQuagsire
p55
sg11
VD,P,
p56
sg13
VSurf
p57
sg15
V20
p58
sg17
V40
p59
sg19
V5
p60
sbag1
(g2
g3
Ntp61
Rp62
(dp63
g7
V195
p64
sg9
VQuagsire
p65
sg11
g46
sg13
VSurf
p66
sg15
V20
p67
sg17
V40
p68
sg19
V10
p69
sbag1
(g2
g3
Ntp70
Rp71
(dp72
g7
V129
p73
sg9
VMagikarp
p74
sg11
VD,P,
p75
sg13
VFish Old
p76
sg15
V3
p77
sg17
V10
p78
sg19
V100
p79
sbag1
(g2
g3
Ntp80
Rp81
(dp82
g7
V129
p83
sg9
VMagikarp
p84
sg11
g46
sg13
VFish Old
p85
sg15
g77
sg17
V15
p86
sg19
V100
p87
sbag1
(g2
g3
Ntp88
Rp89
(dp90
g7
V129
p91
sg9
VMagikarp
p92
sg11
VD,P,Pt,
p93
sg13
VFish Good
p94
sg15
V10
p95
sg17
V25
p96
sg19
V55
p97
sbag1
(g2
g3
Ntp98
Rp99
(dp100
g7
V130
p101
sg9
VGyarados
p102
sg11
VD,P,
p103
sg13
VFish Good
p104
sg15
V15
p105
sg17
V30
p106
sg19
V5
p107
sbag1
(g2
g3
Ntp108
Rp109
(dp110
g7
V339
p111
sg9
VBarboach
p112
sg11
VD,P,
p113
sg13
VFish Good
p114
sg15
V15
p115
sg17
V20
p116
sg19
V40
p117
sbag1
(g2
g3
Ntp118
Rp119
(dp120
g7
V339
p121
sg9
VBarboach
p122
sg11
g46
sg13
VFish Good
p123
sg15
V10
p124
sg17
V25
p125
sg19
V45
p126
sbag1
(g2
g3
Ntp127
Rp128
(dp129
g7
V130
p130
sg9
VGyarados
p131
sg11
VD,P,
p132
sg13
VFish Super
p133
sg15
V40
p134
sg17
V55
p135
sg19
V15
p136
sbag1
(g2
g3
Ntp137
Rp138
(dp139
g7
V130
p140
sg9
VGyarados
p141
sg11
g46
sg13
VFish Super
p142
sg15
V30
p143
sg17
V55
p144
sg19
V40
p145
sbag1
(g2
g3
Ntp146
Rp147
(dp148
g7
V318
p149
sg9
VCarvanha
p150
sg11
VD,P,
p151
sg13
VFish Super
p152
sg15
V15
p153
sg17
V30
p154
sg19
V45
p155
sbag1
(g2
g3
Ntp156
Rp157
(dp158
g7
V318
p159
sg9
VCarvanha
p160
sg11
g46
sg13
VFish Super
p161
sg15
V30
p162
sg17
V55
p163
sg19
V45
p164
sbag1
(g2
g3
Ntp165
Rp166
(dp167
g7
V340
p168
sg9
VWhiscash
p169
sg11
VD,P,
p170
sg13
VFish Super
p171
sg15
V30
p172
sg17
V55
p173
sg19
V40
p174
sbag1
(g2
g3
Ntp175
Rp176
(dp177
g7
V340
p178
sg9
VWhiscash
p179
sg11
g46
sg13
VFish Super
p180
sg15
V20
p181
sg17
V50
p182
sg19
V15
p183
sbag1
(g2
g3
Ntp184
Rp185
(dp186
g7
V054
p187
sg9
VPsyduck
p188
sg11
VD,P,
p189
sg13
VGrass
p190
sg15
V24,26
p191
sg17
g191
sg19
V8
p192
sbag1
(g2
g3
Ntp193
Rp194
(dp195
g7
V114
p196
sg9
VTangela
p197
sg11
g46
sg13
VGrass
p198
sg15
V30
p199
sg17
V31
p200
sg19
V5
p201
sbag1
(g2
g3
Ntp202
Rp203
(dp204
g7
V163
p205
sg9
VHoothoot
p206
sg11
VD,P,
p207
sg13
VGrass
p208
sg15
V24
p209
sg17
g209
sg19
V10
p210
sbag1
(g2
g3
Ntp211
Rp212
(dp213
g7
V164
p214
sg9
VNoctowl
p215
sg11
VD,P,
p216
sg13
VGrass
p217
sg15
V26
p218
sg17
g218
sg19
V10
p219
sbag1
(g2
g3
Ntp220
Rp221
(dp222
g7
V164
p223
sg9
VNoctowl
p224
sg11
g46
sg13
VGrass
p225
sg15
V28,30
p226
sg17
g226
sg19
V20
p227
sbag1
(g2
g3
Ntp228
Rp229
(dp230
g7
V183
p231
sg9
VMarill
p232
sg11
VD,P,
p233
sg13
VGrass
p234
sg15
V25
p235
sg17
V26
p236
sg19
V15
p237
sbag1
(g2
g3
Ntp238
Rp239
(dp240
g7
V193
p241
sg9
VYanma
p242
sg11
g46
sg13
VGrass
p243
sg15
V30
p244
sg17
V31
p245
sg19
V5
p246
sbag1
(g2
g3
Ntp247
Rp248
(dp249
g7
V194
p250
sg9
VWooper
p251
sg11
VD,P,
p252
sg13
VGrass
p253
sg15
V24
p254
sg17
g254
sg19
V20
p255
sbag1
(g2
g3
Ntp256
Rp257
(dp258
g7
V194
p259
sg9
VWooper
p260
sg11
g46
sg13
VGrass
p261
sg15
V28
p262
sg17
V30
p263
sg19
V40
p264
sbag1
(g2
g3
Ntp265
Rp266
(dp267
g7
V195
p268
sg9
VQuagsire
p269
sg11
VD,P,
p270
sg13
VGrass
p271
sg15
V25
p272
sg17
V26
p273
sg19
V15
p274
sbag1
(g2
g3
Ntp275
Rp276
(dp277
g7
V195
p278
sg9
VQuagsire
p279
sg11
g46
sg13
VGrass
p280
sg15
V30
p281
sg17
g281
sg19
V10
p282
sbag1
(g2
g3
Ntp283
Rp284
(dp285
g7
V298
p286
sg9
VAzurill
p287
sg11
VD,P,
p288
sg13
VGrass
p289
sg15
V24
p290
sg17
g290
sg19
V1
p291
sbag1
(g2
g3
Ntp292
Rp293
(dp294
g7
V357
p295
sg9
VTropius
p296
sg11
g46
sg13
VGrass
p297
sg15
V28,30
p298
sg17
g298
sg19
V20
p299
sbag1
(g2
g3
Ntp300
Rp301
(dp302
g7
V396
p303
sg9
VStarly
p304
sg11
VD,P,
p305
sg13
VGrass
p306
sg15
V26
p307
sg17
g307
sg19
V10
p308
sbag1
(g2
g3
Ntp309
Rp310
(dp311
g7
V399
p312
sg9
VBidoof
p313
sg11
VD,P,
p314
sg13
VGrass
p315
sg15
V26
p316
sg17
g316
sg19
V1
p317
sbag1
(g2
g3
Ntp318
Rp319
(dp320
g7
V400
p321
sg9
VBibarel
p322
sg11
VD,P,
p323
sg13
VGrass
p324
sg15
V25
p325
sg17
g325
sg19
V20
p326
sbag1
(g2
g3
Ntp327
Rp328
(dp329
g7
V400
p330
sg9
VBibarel
p331
sg11
g46
sg13
VGrass
p332
sg15
V28
p333
sg17
g333
sg19
V20
p334
sbag1
(g2
g3
Ntp335
Rp336
(dp337
g7
V406
p338
sg9
VBudew
p339
sg11
VD,P,
p340
sg13
VGrass
p341
sg15
V24
p342
sg17
g342
sg19
V10
p343
sbag1
(g2
g3
Ntp344
Rp345
(dp346
g7
V024
p347
sg9
VArbok
p348
sg11
VD,P,
p349
sg13
VFR
p350
sg15
V24,26
p351
sg17
g351
sg19
V8
p352
sbag1
(g2
g3
Ntp353
Rp354
(dp355
g7
V024
p356
sg9
VArbok
p357
sg11
g46
sg13
VFR
p358
sg15
V30
p359
sg17
g359
sg19
V8
p360
sbag1
(g2
g3
Ntp361
Rp362
(dp363
g7
V054
p364
sg9
VPsyduck
p365
sg11
VD,P,
p366
sg13
VGrass
p367
sg15
V22,24
p368
sg17
g368
sg19
V8
p369
sbag1
(g2
g3
Ntp370
Rp371
(dp372
g7
V114
p373
sg9
VTangela
p374
sg11
g46
sg13
VGrass
p375
sg15
V27
p376
sg17
V30
p377
sg19
V25
p378
sbag1
(g2
g3
Ntp379
Rp380
(dp381
g7
V114
p382
sg9
VTangela
p383
sg11
g46
sg13
VGrass
p384
sg15
V28
p385
sg17
V30
p386
sg19
V15
p387
sbag1
(g2
g3
Ntp388
Rp389
(dp390
g7
V163
p391
sg9
VHoothoot
p392
sg11
VD,P,
p393
sg13
VGrass
p394
sg15
V22,24
p395
sg17
g395
sg19
V20
p396
sbag1
(g2
g3
Ntp397
Rp398
(dp399
g7
V163
p400
sg9
VHoothoot
p401
sg11
g46
sg13
VGrass
p402
sg15
V27
p403
sg17
g403
sg19
V10
p404
sbag1
(g2
g3
Ntp405
Rp406
(dp407
g7
V164
p408
sg9
VNoctowl
p409
sg11
g46
sg13
VGrass
p410
sg15
V28
p411
sg17
g411
sg19
V10
p412
sbag1
(g2
g3
Ntp413
Rp414
(dp415
g7
V183
p416
sg9
VMarill
p417
sg11
VD,P,
p418
sg13
VGrass
p419
sg15
V23
p420
sg17
V24
p421
sg19
V15
p422
sbag1
(g2
g3
Ntp423
Rp424
(dp425
g7
V193
p426
sg9
VYanma
p427
sg11
g46
sg13
VGrass
p428
sg15
V29
p429
sg17
V30
p430
sg19
V5
p431
sbag1
(g2
g3
Ntp432
Rp433
(dp434
g7
V194
p435
sg9
VWooper
p436
sg11
VD,P,
p437
sg13
VGrass
p438
sg15
V22
p439
sg17
g439
sg19
V20
p440
sbag1
(g2
g3
Ntp441
Rp442
(dp443
g7
V194
p444
sg9
VWooper
p445
sg11
g46
sg13
VGrass
p446
sg15
V27
p447
sg17
V29
p448
sg19
V30
p449
sbag1
(g2
g3
Ntp450
Rp451
(dp452
g7
V195
p453
sg9
VQuagsire
p454
sg11
VD,P,
p455
sg13
VGrass
p456
sg15
V23
p457
sg17
V24
p458
sg19
V15
p459
sbag1
(g2
g3
Ntp460
Rp461
(dp462
g7
V195
p463
sg9
VQuagsire
p464
sg11
g46
sg13
VGrass
p465
sg15
V29
p466
sg17
g466
sg19
V10
p467
sbag1
(g2
g3
Ntp468
Rp469
(dp470
g7
V298
p471
sg9
VAzurill
p472
sg11
VD,P,
p473
sg13
VGrass
p474
sg15
V22
p475
sg17
g475
sg19
V1
p476
sbag1
(g2
g3
Ntp477
Rp478
(dp479
g7
V396
p480
sg9
VStarly
p481
sg11
VD,P,
p482
sg13
VGrass
p483
sg15
V24
p484
sg17
g484
sg19
V10
p485
sbag1
(g2
g3
Ntp486
Rp487
(dp488
g7
V399
p489
sg9
VBidoof
p490
sg11
VD,P,
p491
sg13
VGrass
p492
sg15
V24
p493
sg17
g493
sg19
V1
p494
sbag1
(g2
g3
Ntp495
Rp496
(dp497
g7
V400
p498
sg9
VBibarel
p499
sg11
VD,P,
p500
sg13
VGrass
p501
sg15
V23
p502
sg17
g502
sg19
V20
p503
sbag1
(g2
g3
Ntp504
Rp505
(dp506
g7
V400
p507
sg9
VBibarel
p508
sg11
g46
sg13
VGrass
p509
sg15
V27
p510
sg17
V28
p511
sg19
V30
p512
sbag1
(g2
g3
Ntp513
Rp514
(dp515
g7
V400
p516
sg9
VBibarel
p517
sg11
g46
sg13
VGrass
p518
sg15
V27
p519
sg17
g519
sg19
V20
p520
sbag1
(g2
g3
Ntp521
Rp522
(dp523
g7
V406
p524
sg9
VBudew
p525
sg11
VD,P,
p526
sg13
VGrass
p527
sg15
V22
p528
sg17
g528
sg19
V10
p529
sbag1
(g2
g3
Ntp530
Rp531
(dp532
g7
V024
p533
sg9
VArbok
p534
sg11
VD,P,
p535
sg13
VFR
p536
sg15
V22,24
p537
sg17
g537
sg19
V8
p538
sbag1
(g2
g3
Ntp539
Rp540
(dp541
g7
V024
p542
sg9
VArbok
p543
sg11
g46
sg13
VFR
p544
sg15
V29
p545
sg17
g545
sg19
V8
p546
sbag1
(g2
g3
Ntp547
Rp548
(dp549
g7
V114
p550
sg9
VTangela
p551
sg11
g46
sg13
VGrass
p552
sg15
V28
p553
sg17
V29
p554
sg19
V5
p555
sbag1
(g2
g3
Ntp556
Rp557
(dp558
g7
V163
p559
sg9
VHoothoot
p560
sg11
VD,P,
p561
sg13
VGrass
p562
sg15
V20,22
p563
sg17
g563
sg19
V20
p564
sbag1
(g2
g3
Ntp565
Rp566
(dp567
g7
V163
p568
sg9
VHoothoot
p569
sg11
g46
sg13
VGrass
p570
sg15
V26
p571
sg17
V27
p572
sg19
V20
p573
sbag1
(g2
g3
Ntp574
Rp575
(dp576
g7
V183
p577
sg9
VMarill
p578
sg11
VD,P,
p579
sg13
VGrass
p580
sg15
V21
p581
sg17
V22
p582
sg19
V15
p583
sbag1
(g2
g3
Ntp584
Rp585
(dp586
g7
V193
p587
sg9
VYanma
p588
sg11
g46
sg13
VGrass
p589
sg15
V26
p590
sg17
V29
p591
sg19
V25
p592
sbag1
(g2
g3
Ntp593
Rp594
(dp595
g7
V193
p596
sg9
VYanma
p597
sg11
g46
sg13
VGrass
p598
sg15
V27
p599
sg17
V29
p600
sg19
V15
p601
sbag1
(g2
g3
Ntp602
Rp603
(dp604
g7
V194
p605
sg9
VWooper
p606
sg11
VD,P,
p607
sg13
VGrass
p608
sg15
V20
p609
sg17
g609
sg19
V20
p610
sbag1
(g2
g3
Ntp611
Rp612
(dp613
g7
V194
p614
sg9
VWooper
p615
sg11
g46
sg13
VGrass
p616
sg15
V26
p617
sg17
V28
p618
sg19
V30
p619
sbag1
(g2
g3
Ntp620
Rp621
(dp622
g7
V195
p623
sg9
VQuagsire
p624
sg11
VD,P,
p625
sg13
VGrass
p626
sg15
V21
p627
sg17
V22
p628
sg19
V15
p629
sbag1
(g2
g3
Ntp630
Rp631
(dp632
g7
V195
p633
sg9
VQuagsire
p634
sg11
g46
sg13
VGrass
p635
sg15
V28
p636
sg17
g636
sg19
V10
p637
sbag1
(g2
g3
Ntp638
Rp639
(dp640
g7
V298
p641
sg9
VAzurill
p642
sg11
VD,P,
p643
sg13
VGrass
p644
sg15
V20
p645
sg17
g645
sg19
V5
p646
sbag1
(g2
g3
Ntp647
Rp648
(dp649
g7
V396
p650
sg9
VStarly
p651
sg11
VD,P,
p652
sg13
VGrass
p653
sg15
V22
p654
sg17
g654
sg19
V10
p655
sbag1
(g2
g3
Ntp656
Rp657
(dp658
g7
V399
p659
sg9
VBidoof
p660
sg11
VD,P,
p661
sg13
VGrass
p662
sg15
V22
p663
sg17
g663
sg19
V5
p664
sbag1
(g2
g3
Ntp665
Rp666
(dp667
g7
V400
p668
sg9
VBibarel
p669
sg11
VD,P,
p670
sg13
VGrass
p671
sg15
V21
p672
sg17
g672
sg19
V20
p673
sbag1
(g2
g3
Ntp674
Rp675
(dp676
g7
V400
p677
sg9
VBibarel
p678
sg11
g46
sg13
VGrass
p679
sg15
V26
p680
sg17
V27
p681
sg19
V30
p682
sbag1
(g2
g3
Ntp683
Rp684
(dp685
g7
V400
p686
sg9
VBibarel
p687
sg11
g46
sg13
VGrass
p688
sg15
V26
p689
sg17
g689
sg19
V20
p690
sbag1
(g2
g3
Ntp691
Rp692
(dp693
g7
V406
p694
sg9
VBudew
p695
sg11
VD,P,
p696
sg13
VGrass
p697
sg15
V20
p698
sg17
g698
sg19
V10
p699
sbag1
(g2
g3
Ntp700
Rp701
(dp702
g7
V024
p703
sg9
VArbok
p704
sg11
VD,P,
p705
sg13
VFR
p706
sg15
V20,22
p707
sg17
g707
sg19
V8
p708
sbag1
(g2
g3
Ntp709
Rp710
(dp711
g7
V024
p712
sg9
VArbok
p713
sg11
g46
sg13
VFR
p714
sg15
V28
p715
sg17
g715
sg19
V8
p716
sbag1
(g2
g3
Ntp717
Rp718
(dp719
g7
V054
p720
sg9
VPsyduck
p721
sg11
VD,P,
p722
sg13
VGrass
p723
sg15
V20,22
p724
sg17
g724
sg19
V8
p725
sbag1
(g2
g3
Ntp726
Rp727
(dp728
g7
V114
p729
sg9
VTangela
p730
sg11
g46
sg13
VGrass
p731
sg15
V28
p732
sg17
V29
p733
sg19
V5
p734
sbag1
(g2
g3
Ntp735
Rp736
(dp737
g7
V163
p738
sg9
VHoothoot
p739
sg11
VD,P,
p740
sg13
VGrass
p741
sg15
V20,22
p742
sg17
g742
sg19
V20
p743
sbag1
(g2
g3
Ntp744
Rp745
(dp746
g7
V163
p747
sg9
VHoothoot
p748
sg11
g46
sg13
VGrass
p749
sg15
V26
p750
sg17
V27
p751
sg19
V20
p752
sbag1
(g2
g3
Ntp753
Rp754
(dp755
g7
V183
p756
sg9
VMarill
p757
sg11
VD,P,
p758
sg13
VGrass
p759
sg15
V21
p760
sg17
V22
p761
sg19
V15
p762
sbag1
(g2
g3
Ntp763
Rp764
(dp765
g7
V193
p766
sg9
VYanma
p767
sg11
g46
sg13
VGrass
p768
sg15
V26
p769
sg17
V29
p770
sg19
V25
p771
sbag1
(g2
g3
Ntp772
Rp773
(dp774
g7
V193
p775
sg9
VYanma
p776
sg11
g46
sg13
VGrass
p777
sg15
V27
p778
sg17
V29
p779
sg19
V15
p780
sbag1
(g2
g3
Ntp781
Rp782
(dp783
g7
V194
p784
sg9
VWooper
p785
sg11
VD,P,
p786
sg13
VGrass
p787
sg15
V20
p788
sg17
g788
sg19
V20
p789
sbag1
(g2
g3
Ntp790
Rp791
(dp792
g7
V194
p793
sg9
VWooper
p794
sg11
g46
sg13
VGrass
p795
sg15
V26
p796
sg17
V28
p797
sg19
V30
p798
sbag1
(g2
g3
Ntp799
Rp800
(dp801
g7
V195
p802
sg9
VQuagsire
p803
sg11
VD,P,
p804
sg13
VGrass
p805
sg15
V21
p806
sg17
V22
p807
sg19
V15
p808
sbag1
(g2
g3
Ntp809
Rp810
(dp811
g7
V195
p812
sg9
VQuagsire
p813
sg11
g46
sg13
VGrass
p814
sg15
V28
p815
sg17
g815
sg19
V10
p816
sbag1
(g2
g3
Ntp817
Rp818
(dp819
g7
V298
p820
sg9
VAzurill
p821
sg11
VD,P,
p822
sg13
VGrass
p823
sg15
V20
p824
sg17
g824
sg19
V1
p825
sbag1
(g2
g3
Ntp826
Rp827
(dp828
g7
V396
p829
sg9
VStarly
p830
sg11
VD,P,
p831
sg13
VGrass
p832
sg15
V22
p833
sg17
g833
sg19
V10
p834
sbag1
(g2
g3
Ntp835
Rp836
(dp837
g7
V399
p838
sg9
VBidoof
p839
sg11
VD,P,
p840
sg13
VGrass
p841
sg15
V22
p842
sg17
g842
sg19
V1
p843
sbag1
(g2
g3
Ntp844
Rp845
(dp846
g7
V400
p847
sg9
VBibarel
p848
sg11
VD,P,
p849
sg13
VGrass
p850
sg15
V21
p851
sg17
g851
sg19
V20
p852
sbag1
(g2
g3
Ntp853
Rp854
(dp855
g7
V400
p856
sg9
VBibarel
p857
sg11
g46
sg13
VGrass
p858
sg15
V26
p859
sg17
V27
p860
sg19
V30
p861
sbag1
(g2
g3
Ntp862
Rp863
(dp864
g7
V400
p865
sg9
VBibarel
p866
sg11
g46
sg13
VGrass
p867
sg15
V26
p868
sg17
g868
sg19
V20
p869
sbag1
(g2
g3
Ntp870
Rp871
(dp872
g7
V406
p873
sg9
VBudew
p874
sg11
VD,P,
p875
sg13
VGrass
p876
sg15
V20
p877
sg17
g877
sg19
V10
p878
sbag1
(g2
g3
Ntp879
Rp880
(dp881
g7
V024
p882
sg9
VArbok
p883
sg11
VD,P,
p884
sg13
VFR
p885
sg15
V20,22
p886
sg17
g886
sg19
V8
p887
sbag1
(g2
g3
Ntp888
Rp889
(dp890
g7
V024
p891
sg9
VArbok
p892
sg11
g46
sg13
VFR
p893
sg15
V28
p894
sg17
g894
sg19
V8
p895
sbag1
(g2
g3
Ntp896
Rp897
(dp898
g7
V055
p899
sg9
VGolduck
p900
sg11
VD,P,
p901
sg13
VGrass
p902
sg15
V22,24,26
p903
sg17
g903
sg19
V0
p904
sbag1
(g2
g3
Ntp905
Rp906
(dp907
g7
V114
p908
sg9
VTangela
p909
sg11
g46
sg13
VGrass
p910
sg15
V27
p911
sg17
V30
p912
sg19
V0
p913
sbag1
(g2
g3
Ntp914
Rp915
(dp916
g7
V193
p917
sg9
VYanma
p918
sg11
g46
sg13
VGrass
p919
sg15
V27
p920
sg17
V30
p921
sg19
V0
p922
sbag1
(g2
g3
Ntp923
Rp924
(dp925
g7
V195
p926
sg9
VQuagsire
p927
sg11
g46
sg13
VGrass
p928
sg15
V27
p929
sg17
V30
p930
sg19
V0
p931
sbag1
(g2
g3
Ntp932
Rp933
(dp934
g7
V315
p935
sg9
VRoselia
p936
sg11
VD,P,
p937
sg13
VGrass
p938
sg15
V22,24,26
p939
sg17
g939
sg19
V0
p940
sbag1
(g2
g3
Ntp941
Rp942
(dp943
g7
V357
p944
sg9
VTropius
p945
sg11
g46
sg13
VGrass
p946
sg15
V27
p947
sg17
V30
p948
sg19
V0
p949
sbag1
(g2
g3
Ntp950
Rp951
(dp952
g7
V397
p953
sg9
VStaravia
p954
sg11
VD,P,
p955
sg13
VGrass
p956
sg15
V22,24,26
p957
sg17
g957
sg19
V0
p958
sbag1
(g2
g3
Ntp959
Rp960
(dp961
g7
V451
p962
sg9
VSkorupi
p963
sg11
VD,P,
p964
sg13
VGrass
p965
sg15
V22,24,26
p966
sg17
g966
sg19
V0
p967
sbag1
(g2
g3
Ntp968
Rp969
(dp970
g7
V451
p971
sg9
VSkorupi
p972
sg11
g46
sg13
VGrass
p973
sg15
V27
p974
sg17
V30
p975
sg19
V0
p976
sbag1
(g2
g3
Ntp977
Rp978
(dp979
g7
V453
p980
sg9
VCroagunk
p981
sg11
VD,P,
p982
sg13
VGrass
p983
sg15
V22,24,26
p984
sg17
g984
sg19
V0
p985
sbag1
(g2
g3
Ntp986
Rp987
(dp988
g7
V453
p989
sg9
VCroagunk
p990
sg11
g46
sg13
VGrass
p991
sg15
V27
p992
sg17
V30
p993
sg19
V0
p994
sbag1
(g2
g3
Ntp995
Rp996
(dp997
g7
V455
p998
sg9
VCarnivine
p999
sg11
VD,P,
p1000
sg13
VGrass
p1001
sg15
V22,24,26
p1002
sg17
g1002
sg19
V0
p1003
sbag1
(g2
g3
Ntp1004
Rp1005
(dp1006
g7
V455
p1007
sg9
VCarnivine
p1008
sg11
g46
sg13
VGrass
p1009
sg15
V27
p1010
sg17
V30
p1011
sg19
V0
p1012
sbag1
(g2
g3
Ntp1013
Rp1014
(dp1015
g7
V183
p1016
sg9
VMarill
p1017
sg11
VD,P,
p1018
sg13
VGrass
p1019
sg15
V22,24,26
p1020
sg17
g1020
sg19
V0
p1021
sbag1
(g2
g3
Ntp1022
Rp1023
(dp1024
g7
V194
p1025
sg9
VWooper
p1026
sg11
VD,P,
p1027
sg13
VGrass
p1028
sg15
V22,24,26
p1029
sg17
g1029
sg19
V0
p1030
sbag1
(g2
g3
Ntp1031
Rp1032
(dp1033
g7
V194
p1034
sg9
VWooper
p1035
sg11
g46
sg13
VGrass
p1036
sg15
V27
p1037
sg17
V30
p1038
sg19
V0
p1039
sbag1
(g2
g3
Ntp1040
Rp1041
(dp1042
g7
V195
p1043
sg9
VQuagsire
p1044
sg11
VD,P,
p1045
sg13
VGrass
p1046
sg15
V22,24,26
p1047
sg17
g1047
sg19
V0
p1048
sbag1
(g2
g3
Ntp1049
Rp1050
(dp1051
g7
V298
p1052
sg9
VAzurill
p1053
sg11
VD,P,
p1054
sg13
VGrass
p1055
sg15
V22,24,26
p1056
sg17
g1056
sg19
V0
p1057
sbag1
(g2
g3
Ntp1058
Rp1059
(dp1060
g7
V399
p1061
sg9
VBidoof
p1062
sg11
VD,P,
p1063
sg13
VGrass
p1064
sg15
V22,24,26
p1065
sg17
g1065
sg19
V0
p1066
sbag1
(g2
g3
Ntp1067
Rp1068
(dp1069
g7
V400
p1070
sg9
VBibarel
p1071
sg11
VD,P,
p1072
sg13
VGrass
p1073
sg15
V22,24,26
p1074
sg17
g1074
sg19
V0
p1075
sbag1
(g2
g3
Ntp1076
Rp1077
(dp1078
g7
V046
p1079
sg9
VParas
p1080
sg11
VD,P,
p1081
sg13
VGrass
p1082
sg15
V22,24,26
p1083
sg17
g1083
sg19
V0
p1084
sbag1
(g2
g3
Ntp1085
Rp1086
(dp1087
g7
V046
p1088
sg9
VParas
p1089
sg11
g46
sg13
VGrass
p1090
sg15
V27
p1091
sg17
V30
p1092
sg19
V0
p1093
sbag1
(g2
g3
Ntp1094
Rp1095
(dp1096
g7
V102
p1097
sg9
VExeggcute
p1098
sg11
VD,P,
p1099
sg13
VGrass
p1100
sg15
V22,24,26
p1101
sg17
g1101
sg19
V0
p1102
sbag1
(g2
g3
Ntp1103
Rp1104
(dp1105
g7
V102
p1106
sg9
VExeggcute
p1107
sg11
g46
sg13
VGrass
p1108
sg15
V27
p1109
sg17
V30
p1110
sg19
V0
p1111
sbag1
(g2
g3
Ntp1112
Rp1113
(dp1114
g7
V115
p1115
sg9
VKangaskhan
p1116
sg11
VD,P,
p1117
sg13
VGrass
p1118
sg15
V22,24,26
p1119
sg17
g1119
sg19
V0
p1120
sbag1
(g2
g3
Ntp1121
Rp1122
(dp1123
g7
V115
p1124
sg9
VKangaskhan
p1125
sg11
g46
sg13
VGrass
p1126
sg15
V27
p1127
sg17
V30
p1128
sg19
V0
p1129
sbag1
(g2
g3
Ntp1130
Rp1131
(dp1132
g7
V193
p1133
sg9
VYanma
p1134
sg11
VD,P,
p1135
sg13
VGrass
p1136
sg15
V22,24,26
p1137
sg17
g1137
sg19
V0
p1138
sbag1
(g2
g3
Ntp1139
Rp1140
(dp1141
g7
V285
p1142
sg9
VShroomish
p1143
sg11
VD,P,
p1144
sg13
VGrass
p1145
sg15
V22,24,26
p1146
sg17
g1146
sg19
V0
p1147
sbag1
(g2
g3
Ntp1148
Rp1149
(dp1150
g7
V285
p1151
sg9
VShroomish
p1152
sg11
g46
sg13
VGrass
p1153
sg15
V27
p1154
sg17
V30
p1155
sg19
V0
p1156
sbag1
(g2
g3
Ntp1157
Rp1158
(dp1159
g7
V316
p1160
sg9
VGulpin
p1161
sg11
VD,P,
p1162
sg13
VGrass
p1163
sg15
V22,24,26
p1164
sg17
g1164
sg19
V0
p1165
sbag1
(g2
g3
Ntp1166
Rp1167
(dp1168
g7
V316
p1169
sg9
VGulpin
p1170
sg11
g46
sg13
VGrass
p1171
sg15
V27
p1172
sg17
V30
p1173
sg19
V0
p1174
sbag1
(g2
g3
Ntp1175
Rp1176
(dp1177
g7
V352
p1178
sg9
VKecleon
p1179
sg11
g46
sg13
VGrass
p1180
sg15
V27
p1181
sg17
V30
p1182
sg19
V0
p1183
sbag1
(g2
g3
Ntp1184
Rp1185
(dp1186
g7
V452
p1187
sg9
VDrapion
p1188
sg11
VD,P,
p1189
sg13
VGrass
p1190
sg15
V22,24,26
p1191
sg17
g1191
sg19
V0
p1192
sbag1
(g2
g3
Ntp1193
Rp1194
(dp1195
g7
V452
p1196
sg9
VDrapion
p1197
sg11
g46
sg13
VGrass
p1198
sg15
V27
p1199
sg17
V30
p1200
sg19
V0
p1201
sbag1
(g2
g3
Ntp1202
Rp1203
(dp1204
g7
V454
p1205
sg9
VToxicroak
p1206
sg11
VD,P,
p1207
sg13
VGrass
p1208
sg15
V22,24,26
p1209
sg17
g1209
sg19
V0
p1210
sbag1
(g2
g3
Ntp1211
Rp1212
(dp1213
g7
V454
p1214
sg9
VToxicroak
p1215
sg11
g46
sg13
VGrass
p1216
sg15
V27
p1217
sg17
V30
p1218
sg19
V0
p1219
sba.