(lp0
ccopy_reg
_reconstructor
p1
(c__main__
WildPokemon
p2
c__builtin__
object
p3
Ntp4
Rp5
(dp6
VpDexNo
p7
V051
p8
sVpSpecies
p9
VDugtrio
p10
sVpGames
p11
VSu,M,
p12
sVpArea
p13
VSand
p14
sVpMinLevel
p15
V28
p16
sVpMaxLevel
p17
V31
p18
sVpRate
p19
V30
p20
sbag1
(g2
g3
Ntp21
Rp22
(dp23
g7
V551
p24
sg9
VSandile
p25
sg11
VSu,M,
p26
sg13
VSand
p27
sg15
V28
p28
sg17
V31
p29
sg19
V70
p30
sbag1
(g2
g3
Ntp31
Rp32
(dp33
g7
V051
p34
sg9
VDugtrio
p35
sg11
VSu,M,
p36
sg13
VSand cloud
p37
sg15
V28
p38
sg17
V31
p39
sg19
V20
p40
sbag1
(g2
g3
Ntp41
Rp42
(dp43
g7
V328
p44
sg9
VTrapinch
p45
sg11
VSu,M,
p46
sg13
VSand cloud
p47
sg15
V28
p48
sg17
V31
p49
sg19
V10
p50
sbag1
(g2
g3
Ntp51
Rp52
(dp53
g7
V551
p54
sg9
VSandile
p55
sg11
VSu,M,
p56
sg13
VSand cloud
p57
sg15
V28
p58
sg17
V31
p59
sg19
V70
p60
sbag1
(g2
g3
Ntp61
Rp62
(dp63
g7
V000
p64
sg9
VAny
p65
sg11
VSu,M,
p66
sg13
VSand
p67
sg15
V28
p68
sg17
V31
p69
sg19
V10
p70
sbag1
(g2
g3
Ntp71
Rp72
(dp73
g7
V000
p74
sg9
VAny
p75
sg11
VSu,M,
p76
sg13
VSand
p77
sg15
V28
p78
sg17
V31
p79
sg19
V1
p80
sbag1
(g2
g3
Ntp81
Rp82
(dp83
g7
V000
p84
sg9
VAny
p85
sg11
VSu,M,
p86
sg13
VSand
p87
sg15
V28
p88
sg17
V31
p89
sg19
V11
p90
sbag1
(g2
g3
Ntp91
Rp92
(dp93
g7
V000
p94
sg9
VAny
p95
sg11
VSu,M,
p96
sg13
VSand cloud
p97
sg15
V28
p98
sg17
V31
p99
sg19
V10
p100
sbag1
(g2
g3
Ntp101
Rp102
(dp103
g7
V000
p104
sg9
VAny
p105
sg11
VSu,M,
p106
sg13
VSand cloud
p107
sg15
V28
p108
sg17
V31
p109
sg19
V1
p110
sbag1
(g2
g3
Ntp111
Rp112
(dp113
g7
V000
p114
sg9
VAny
p115
sg11
VSu,M,
p116
sg13
VSand cloud
p117
sg15
V28
p118
sg17
V31
p119
sg19
V11
p120
sbag1
(g2
g3
Ntp121
Rp122
(dp123
g7
V797
p124
sg9
VCelesteela
p125
sg11
VM,
p126
sg13
VSand
p127
sg15
V65
p128
sg17
g128
sg19
V0
p129
sbag1
(g2
g3
Ntp130
Rp131
(dp132
g7
V051
p133
sg9
VDugtrio
p134
sg11
VUS,
p135
sg13
VSand
p136
sg15
V32
p137
sg17
V35
p138
sg19
V30
p139
sbag1
(g2
g3
Ntp140
Rp141
(dp142
g7
V051
p143
sg9
VDugtrio
p144
sg11
VUM,
p145
sg13
VSand
p146
sg15
V32
p147
sg17
V35
p148
sg19
V30
p149
sbag1
(g2
g3
Ntp150
Rp151
(dp152
g7
V552
p153
sg9
VKrokorok
p154
sg11
g135
sg13
VSand
p155
sg15
V32
p156
sg17
V35
p157
sg19
V70
p158
sbag1
(g2
g3
Ntp159
Rp160
(dp161
g7
V552
p162
sg9
VKrokorok
p163
sg11
g145
sg13
VSand
p164
sg15
V32
p165
sg17
V35
p166
sg19
V70
p167
sbag1
(g2
g3
Ntp168
Rp169
(dp170
g7
V051
p171
sg9
VDugtrio
p172
sg11
g135
sg13
VSand cloud
p173
sg15
V32
p174
sg17
V35
p175
sg19
V20
p176
sbag1
(g2
g3
Ntp177
Rp178
(dp179
g7
V051
p180
sg9
VDugtrio
p181
sg11
g145
sg13
VSand cloud
p182
sg15
V32
p183
sg17
V35
p184
sg19
V20
p185
sbag1
(g2
g3
Ntp186
Rp187
(dp188
g7
V328
p189
sg9
VTrapinch
p190
sg11
g135
sg13
VSand cloud
p191
sg15
V32
p192
sg17
V35
p193
sg19
V10
p194
sbag1
(g2
g3
Ntp195
Rp196
(dp197
g7
V328
p198
sg9
VTrapinch
p199
sg11
g145
sg13
VSand cloud
p200
sg15
V32
p201
sg17
V35
p202
sg19
V10
p203
sbag1
(g2
g3
Ntp204
Rp205
(dp206
g7
V552
p207
sg9
VKrokorok
p208
sg11
g135
sg13
VSand cloud
p209
sg15
V32
p210
sg17
V35
p211
sg19
V70
p212
sbag1
(g2
g3
Ntp213
Rp214
(dp215
g7
V552
p216
sg9
VKrokorok
p217
sg11
g145
sg13
VSand cloud
p218
sg15
V32
p219
sg17
V35
p220
sg19
V70
p221
sbag1
(g2
g3
Ntp222
Rp223
(dp224
g7
V000
p225
sg9
VAny
p226
sg11
VUS,UM,
p227
sg13
VSand
p228
sg15
V32
p229
sg17
V35
p230
sg19
V10
p231
sbag1
(g2
g3
Ntp232
Rp233
(dp234
g7
V000
p235
sg9
VAny
p236
sg11
VUS,UM,
p237
sg13
VSand
p238
sg15
V32
p239
sg17
V35
p240
sg19
V1
p241
sbag1
(g2
g3
Ntp242
Rp243
(dp244
g7
V000
p245
sg9
VAny
p246
sg11
VUS,UM,
p247
sg13
VSand
p248
sg15
V32
p249
sg17
V35
p250
sg19
V11
p251
sbag1
(g2
g3
Ntp252
Rp253
(dp254
g7
V000
p255
sg9
VAny
p256
sg11
VUS,UM,
p257
sg13
VSand cloud
p258
sg15
V32
p259
sg17
V35
p260
sg19
V10
p261
sbag1
(g2
g3
Ntp262
Rp263
(dp264
g7
V000
p265
sg9
VAny
p266
sg11
VUS,UM,
p267
sg13
VSand cloud
p268
sg15
V32
p269
sg17
V35
p270
sg19
V1
p271
sbag1
(g2
g3
Ntp272
Rp273
(dp274
g7
V000
p275
sg9
VAny
p276
sg11
VUS,UM,
p277
sg13
VSand cloud
p278
sg15
V32
p279
sg17
V35
p280
sg19
V11
p281
sba.