(lp0
ccopy_reg
_reconstructor
p1
(c__main__
WildPokemon
p2
c__builtin__
object
p3
Ntp4
Rp5
(dp6
VpDexNo
p7
V037
p8
sVpSpecies
p9
VVulpix
p10
sVpGames
p11
VSh,
p12
sVpArea
p13
VGrass
p14
sVpMinLevel
p15
V28
p16
sVpMaxLevel
p17
V30
p18
sVpRate
p19
V0
p20
sbag1
(g2
g3
Ntp21
Rp22
(dp23
g7
V051
p24
sg9
VDugtrio
p25
sg11
VSw,Sh,
p26
sg13
VGrass
p27
sg15
V28
p28
sg17
V30
p29
sg19
g20
sbag1
(g2
g3
Ntp30
Rp31
(dp32
g7
V058
p33
sg9
VGrowlithe
p34
sg11
VSw,
p35
sg13
VGrass
p36
sg15
V28
p37
sg17
V30
p38
sg19
g20
sbag1
(g2
g3
Ntp39
Rp40
(dp41
g7
V067
p42
sg9
VMachoke
p43
sg11
VSw,Sh,
p44
sg13
VGrass
p45
sg15
V28
p46
sg17
V30
p47
sg19
g20
sbag1
(g2
g3
Ntp48
Rp49
(dp50
g7
V220
p51
sg9
VSwinub
p52
sg11
VSw,Sh,
p53
sg13
VGrass
p54
sg15
V28
p55
sg17
V30
p56
sg19
g20
sbag1
(g2
g3
Ntp57
Rp58
(dp59
g7
V225
p60
sg9
VDelibird
p61
sg11
VSw,Sh,
p62
sg13
VGrass
p63
sg15
V28
p64
sg17
V30
p65
sg19
g20
sbag1
(g2
g3
Ntp66
Rp67
(dp68
g7
V279
p69
sg9
VPelipper
p70
sg11
VSw,Sh,
p71
sg13
VGrass
p72
sg15
V28
p73
sg17
V30
p74
sg19
g20
sbag1
(g2
g3
Ntp75
Rp76
(dp77
g7
V343
p78
sg9
VBaltoy
p79
sg11
VSw,Sh,
p80
sg13
VGrass
p81
sg15
V28
p82
sg17
V30
p83
sg19
g20
sbag1
(g2
g3
Ntp84
Rp85
(dp86
g7
V361
p87
sg9
VSnorunt
p88
sg11
VSw,Sh,
p89
sg13
VGrass
p90
sg15
V28
p91
sg17
V30
p92
sg19
g20
sbag1
(g2
g3
Ntp93
Rp94
(dp95
g7
V529
p96
sg9
VDrilbur
p97
sg11
VSw,Sh,
p98
sg13
VGrass
p99
sg15
V28
p100
sg17
V30
p101
sg19
g20
sbag1
(g2
g3
Ntp102
Rp103
(dp104
g7
V557
p105
sg9
VDwebble
p106
sg11
VSw,Sh,
p107
sg13
VGrass
p108
sg15
V28
p109
sg17
V30
p110
sg19
g20
sbag1
(g2
g3
Ntp111
Rp112
(dp113
g7
V582
p114
sg9
VVanillite
p115
sg11
VSw,Sh,
p116
sg13
VGrass
p117
sg15
V28
p118
sg17
V30
p119
sg19
g20
sbag1
(g2
g3
Ntp120
Rp121
(dp122
g7
V588
p123
sg9
VKarrablast
p124
sg11
g35
sg13
VGrass
p125
sg15
V28
p126
sg17
V30
p127
sg19
g20
sbag1
(g2
g3
Ntp128
Rp129
(dp130
g7
V588
p131
sg9
VKarrablast
p132
sg11
g12
sg13
VGrass
p133
sg15
V28
p134
sg17
V30
p135
sg19
g20
sbag1
(g2
g3
Ntp136
Rp137
(dp138
g7
V599
p139
sg9
VKlink
p140
sg11
VSw,Sh,
p141
sg13
VGrass
p142
sg15
V28
p143
sg17
V30
p144
sg19
V10
p145
sbag1
(g2
g3
Ntp146
Rp147
(dp148
g7
V616
p149
sg9
VShelmet
p150
sg11
g35
sg13
VGrass
p151
sg15
V28
p152
sg17
V30
p153
sg19
g20
sbag1
(g2
g3
Ntp154
Rp155
(dp156
g7
V616
p157
sg9
VShelmet
p158
sg11
g12
sg13
VGrass
p159
sg15
V28
p160
sg17
V30
p161
sg19
g20
sbag1
(g2
g3
Ntp162
Rp163
(dp164
g7
V677
p165
sg9
VEspurr
p166
sg11
VSw,Sh,
p167
sg13
VGrass
p168
sg15
V28
p169
sg17
V30
p170
sg19
g20
sbag1
(g2
g3
Ntp171
Rp172
(dp173
g7
V679
p174
sg9
VHonedge
p175
sg11
VSw,Sh,
p176
sg13
VGrass
p177
sg15
V28
p178
sg17
V30
p179
sg19
g20
sbag1
(g2
g3
Ntp180
Rp181
(dp182
g7
V686
p183
sg9
VInkay
p184
sg11
VSw,Sh,
p185
sg13
VGrass
p186
sg15
V28
p187
sg17
V30
p188
sg19
g20
sbag1
(g2
g3
Ntp189
Rp190
(dp191
g7
V701
p192
sg9
VHawlucha
p193
sg11
VSw,Sh,
p194
sg13
VGrass
p195
sg15
V28
p196
sg17
V30
p197
sg19
g20
sbag1
(g2
g3
Ntp198
Rp199
(dp200
g7
V737
p201
sg9
VCharjabug
p202
sg11
VSw,Sh,
p203
sg13
VGrass
p204
sg15
V28
p205
sg17
V30
p206
sg19
g20
sbag1
(g2
g3
Ntp207
Rp208
(dp209
g7
V822
p210
sg9
VCorvisquire
p211
sg11
VSw,Sh,
p212
sg13
VGrass
p213
sg15
V28
p214
sg17
V30
p215
sg19
g20
sbag1
(g2
g3
Ntp216
Rp217
(dp218
g7
V828
p219
sg9
VThievul
p220
sg11
VSw,Sh,
p221
sg13
VGrass
p222
sg15
V28
p223
sg17
V30
p224
sg19
g20
sbag1
(g2
g3
Ntp225
Rp226
(dp227
g7
V832
p228
sg9
VDubwool
p229
sg11
VSw,Sh,
p230
sg13
VGrass
p231
sg15
V28
p232
sg17
V30
p233
sg19
g20
sbag1
(g2
g3
Ntp234
Rp235
(dp236
g7
V848
p237
sg9
VToxel
p238
sg11
VSw,Sh,
p239
sg13
VGrass
p240
sg15
V28
p241
sg17
V30
p242
sg19
g20
sbag1
(g2
g3
Ntp243
Rp244
(dp245
g7
V856
p246
sg9
VHatenna
p247
sg11
VSw,Sh,
p248
sg13
VGrass
p249
sg15
V28
p250
sg17
V30
p251
sg19
g20
sbag1
(g2
g3
Ntp252
Rp253
(dp254
g7
V859
p255
sg9
VImpidimp
p256
sg11
VSw,Sh,
p257
sg13
VGrass
p258
sg15
V28
p259
sg17
V30
p260
sg19
g20
sbag1
(g2
g3
Ntp261
Rp262
(dp263
g7
V420
p264
sg9
VCherubi
p265
sg11
VSw,Sh,
p266
sg13
VBerry tree
p267
sg15
V28
p268
sg17
V30
p269
sg19
V25
p270
sbag1
(g2
g3
Ntp271
Rp272
(dp273
g7
V820
p274
sg9
VGreedent
p275
sg11
VSw,Sh,
p276
sg13
VBerry tree
p277
sg15
V28
p278
sg17
V30
p279
sg19
V75
p280
sbag1
(g2
g3
Ntp281
Rp282
(dp283
g7
V067
p284
sg9
VMachoke
p285
sg11
VSw,Sh,
p286
sg13
VGrass
p287
sg15
V29
p288
sg17
V31
p289
sg19
g20
sbag1
(g2
g3
Ntp290
Rp291
(dp292
g7
V092
p293
sg9
VGastly
p294
sg11
VSw,Sh,
p295
sg13
VGrass
p296
sg15
V29
p297
sg17
V31
p298
sg19
g20
sbag1
(g2
g3
Ntp299
Rp300
(dp301
g7
V185
p302
sg9
VSudowoodo
p303
sg11
VSw,Sh,
p304
sg13
VGrass
p305
sg15
V29
p306
sg17
V31
p307
sg19
g20
sbag1
(g2
g3
Ntp308
Rp309
(dp310
g7
V202
p311
sg9
VWobbuffet
p312
sg11
VSw,Sh,
p313
sg13
VGrass
p314
sg15
V29
p315
sg17
V31
p316
sg19
g20
sbag1
(g2
g3
Ntp317
Rp318
(dp319
g7
V215
p320
sg9
VSneasel
p321
sg11
VSw,Sh,
p322
sg13
VGrass
p323
sg15
V29
p324
sg17
V31
p325
sg19
g20
sbag1
(g2
g3
Ntp326
Rp327
(dp328
g7
V328
p329
sg9
VTrapinch
p330
sg11
g12
sg13
VGrass
p331
sg15
V29
p332
sg17
V31
p333
sg19
g20
sbag1
(g2
g3
Ntp334
Rp335
(dp336
g7
V361
p337
sg9
VSnorunt
p338
sg11
VSw,Sh,
p339
sg13
VGrass
p340
sg15
V29
p341
sg17
V31
p342
sg19
g20
sbag1
(g2
g3
Ntp343
Rp344
(dp345
g7
V536
p346
sg9
VPalpitoad
p347
sg11
VSw,Sh,
p348
sg13
VGrass
p349
sg15
V29
p350
sg17
V31
p351
sg19
g20
sbag1
(g2
g3
Ntp352
Rp353
(dp354
g7
V556
p355
sg9
VMaractus
p356
sg11
VSw,Sh,
p357
sg13
VGrass
p358
sg15
V29
p359
sg17
V31
p360
sg19
g20
sbag1
(g2
g3
Ntp361
Rp362
(dp363
g7
V610
p364
sg9
VAxew
p365
sg11
g35
sg13
VGrass
p366
sg15
V29
p367
sg17
V31
p368
sg19
g20
sbag1
(g2
g3
Ntp369
Rp370
(dp371
g7
V613
p372
sg9
VCubchoo
p373
sg11
VSw,Sh,
p374
sg13
VGrass
p375
sg15
V29
p376
sg17
V31
p377
sg19
g20
sbag1
(g2
g3
Ntp378
Rp379
(dp380
g7
V679
p381
sg9
VHonedge
p382
sg11
VSw,Sh,
p383
sg13
VGrass
p384
sg15
V29
p385
sg17
V31
p386
sg19
g20
sbag1
(g2
g3
Ntp387
Rp388
(dp389
g7
V710
p390
sg9
VPumpkaboo
p391
sg11
VSw,Sh,
p392
sg13
VGrass
p393
sg15
V29
p394
sg17
V31
p395
sg19
g20
sbag1
(g2
g3
Ntp396
Rp397
(dp398
g7
V710
p399
sg9
VPumpkaboo
p400
sg11
VSw,Sh,
p401
sg13
VGrass
p402
sg15
V29
p403
sg17
V31
p404
sg19
g20
sbag1
(g2
g3
Ntp405
Rp406
(dp407
g7
V710
p408
sg9
VPumpkaboo
p409
sg11
VSw,Sh,
p410
sg13
VGrass
p411
sg15
V29
p412
sg17
V31
p413
sg19
g20
sbag1
(g2
g3
Ntp414
Rp415
(dp416
g7
V710
p417
sg9
VPumpkaboo
p418
sg11
VSw,Sh,
p419
sg13
VGrass
p420
sg15
V29
p421
sg17
V31
p422
sg19
V1
p423
sbag1
(g2
g3
Ntp424
Rp425
(dp426
g7
V755
p427
sg9
VMorelull
p428
sg11
VSw,Sh,
p429
sg13
VGrass
p430
sg15
V29
p431
sg17
V31
p432
sg19
g20
sbag1
(g2
g3
Ntp433
Rp434
(dp435
g7
V759
p436
sg9
VStufful
p437
sg11
VSw,Sh,
p438
sg13
VGrass
p439
sg15
V29
p440
sg17
V31
p441
sg19
g20
sbag1
(g2
g3
Ntp442
Rp443
(dp444
g7
V767
p445
sg9
VWimpod
p446
sg11
VSw,Sh,
p447
sg13
VGrass
p448
sg15
V29
p449
sg17
V31
p450
sg19
g20
sbag1
(g2
g3
Ntp451
Rp452
(dp453
g7
V521
p454
sg9
VUnfezant
p455
sg11
VSw,Sh,
p456
sg13
VFlying
p457
sg15
V36
p458
sg17
V39
p459
sg19
V60
p460
sbag1
(g2
g3
Ntp461
Rp462
(dp463
g7
V822
p464
sg9
VCorvisquire
p465
sg11
VSw,Sh,
p466
sg13
VFlying
p467
sg15
V36
p468
sg17
V39
p469
sg19
V40
p470
sbag1
(g2
g3
Ntp471
Rp472
(dp473
g7
V701
p474
sg9
VHawlucha
p475
sg11
VSw,Sh,
p476
sg13
VWanderer
p477
sg15
V36
p478
sg17
g478
sg19
V0
p479
sbag1
(g2
g3
Ntp480
Rp481
(dp482
g7
V823
p483
sg9
VCorviknight
p484
sg11
VSw,Sh,
p485
sg13
VWanderer
p486
sg15
V38
p487
sg17
g487
sg19
V0
p488
sbag1
(g2
g3
Ntp489
Rp490
(dp491
g7
V045
p492
sg9
VVileplume
p493
sg11
VSw,Sh,
p494
sg13
VWanderer
p495
sg15
V41
p496
sg17
g496
sg19
g20
sbag1
(g2
g3
Ntp497
Rp498
(dp499
g7
V407
p500
sg9
VRoserade
p501
sg11
VSw,Sh,
p502
sg13
VWanderer
p503
sg15
V41
p504
sg17
g504
sg19
g20
sbag1
(g2
g3
Ntp505
Rp506
(dp507
g7
V460
p508
sg9
VAbomasnow
p509
sg11
VSw,Sh,
p510
sg13
VWanderer
p511
sg15
V41
p512
sg17
g512
sg19
g20
sbag1
(g2
g3
Ntp513
Rp514
(dp515
g7
V879
p516
sg9
VCopperajah
p517
sg11
VSw,Sh,
p518
sg13
VWanderer
p519
sg15
V65
p520
sg17
g520
sg19
V0
p521
sbag1
(g2
g3
Ntp522
Rp523
(dp524
g7
V600
p525
sg9
VKlang
p526
sg11
VSw,Sh,
p527
sg13
VWanderer
p528
sg15
V46
p529
sg17
g529
sg19
g20
sbag1
(g2
g3
Ntp530
Rp531
(dp532
g7
V601
p533
sg9
VKlinklang
p534
sg11
VSw,Sh,
p535
sg13
VWanderer
p536
sg15
V49
p537
sg17
g537
sg19
g20
sbag1
(g2
g3
Ntp538
Rp539
(dp540
g7
V711
p541
sg9
VGourgeist
p542
sg11
VSw,Sh,
p543
sg13
VWanderer
p544
sg15
V41
p545
sg17
g545
sg19
V0
p546
sba.