(lp0
ccopy_reg
_reconstructor
p1
(c__main__
WildPokemon
p2
c__builtin__
object
p3
Ntp4
Rp5
(dp6
VpDexNo
p7
V120
p8
sVpSpecies
p9
VStaryu
p10
sVpGames
p11
VSu,M,
p12
sVpArea
p13
VSand cloud
p14
sVpMinLevel
p15
V21
p16
sVpMaxLevel
p17
V24
p18
sVpRate
p19
V80
p20
sbag1
(g2
g3
Ntp21
Rp22
(dp23
g7
V769
p24
sg9
VSandygast
p25
sg11
VSu,M,
p26
sg13
VSand cloud
p27
sg15
V21
p28
sg17
V24
p29
sg19
V20
p30
sbag1
(g2
g3
Ntp31
Rp32
(dp33
g7
V072
p34
sg9
VTentacool
p35
sg11
VSu,M,
p36
sg13
VSurf
p37
sg15
V21
p38
sg17
V24
p39
sg19
V30
p40
sbag1
(g2
g3
Ntp41
Rp42
(dp43
g7
V278
p44
sg9
VWingull
p45
sg11
VSu,M,
p46
sg13
VSurf
p47
sg15
V21
p48
sg17
V24
p49
sg19
V20
p50
sbag1
(g2
g3
Ntp51
Rp52
(dp53
g7
V456
p54
sg9
VFinneon
p55
sg11
VSu,M,
p56
sg13
VSurf
p57
sg15
V21
p58
sg17
V24
p59
sg19
V30
p60
sbag1
(g2
g3
Ntp61
Rp62
(dp63
g7
V771
p64
sg9
VPyukumuku
p65
sg11
VSu,M,
p66
sg13
VSurf
p67
sg15
V21
p68
sg17
V24
p69
sg19
V20
p70
sbag1
(g2
g3
Ntp71
Rp72
(dp73
g7
V072
p74
sg9
VTentacool
p75
sg11
VSu,M,
p76
sg13
VWater splashes
p77
sg15
V21
p78
sg17
V24
p79
sg19
V100
p80
sbag1
(g2
g3
Ntp81
Rp82
(dp83
g7
V120
p84
sg9
VStaryu
p85
sg11
VUS,UM,
p86
sg13
VSand cloud
p87
sg15
V22
p88
sg17
V25
p89
sg19
V70
p90
sbag1
(g2
g3
Ntp91
Rp92
(dp93
g7
V769
p94
sg9
VSandygast
p95
sg11
VUS,UM,
p96
sg13
VSand cloud
p97
sg15
V22
p98
sg17
V25
p99
sg19
V30
p100
sbag1
(g2
g3
Ntp101
Rp102
(dp103
g7
V072
p104
sg9
VTentacool
p105
sg11
VUS,UM,
p106
sg13
VSurf
p107
sg15
V22
p108
sg17
V25
p109
sg19
V30
p110
sbag1
(g2
g3
Ntp111
Rp112
(dp113
g7
V278
p114
sg9
VWingull
p115
sg11
VUS,UM,
p116
sg13
VSurf
p117
sg15
V22
p118
sg17
V25
p119
sg19
V10
p120
sbag1
(g2
g3
Ntp121
Rp122
(dp123
g7
V456
p124
sg9
VFinneon
p125
sg11
VUS,UM,
p126
sg13
VSurf
p127
sg15
V22
p128
sg17
V25
p129
sg19
V30
p130
sbag1
(g2
g3
Ntp131
Rp132
(dp133
g7
V771
p134
sg9
VPyukumuku
p135
sg11
VUS,UM,
p136
sg13
VSurf
p137
sg15
V22
p138
sg17
V25
p139
sg19
V30
p140
sbag1
(g2
g3
Ntp141
Rp142
(dp143
g7
V771
p144
sg9
VPyukumuku
p145
sg11
VUS,UM,
p146
sg13
VSurf
p147
sg15
V22
p148
sg17
V25
p149
sg19
V10
p150
sbag1
(g2
g3
Ntp151
Rp152
(dp153
g7
V072
p154
sg9
VTentacool
p155
sg11
VUS,UM,
p156
sg13
VWater splashes
p157
sg15
V22
p158
sg17
V25
p159
sg19
V100
p160
sba.