(lp0
ccopy_reg
_reconstructor
p1
(c__main__
WildPokemon
p2
c__builtin__
object
p3
Ntp4
Rp5
(dp6
VpDexNo
p7
V072
p8
sVpSpecies
p9
VTentacool
p10
sVpGames
p11
VSu,M,
p12
sVpArea
p13
VSurf
p14
sVpMinLevel
p15
V15
p16
sVpMaxLevel
p17
V18
p18
sVpRate
p19
V40
p20
sbag1
(g2
g3
Ntp21
Rp22
(dp23
g7
V278
p24
sg9
VWingull
p25
sg11
VSu,M,
p26
sg13
VSurf
p27
sg15
V15
p28
sg17
V18
p29
sg19
V20
p30
sbag1
(g2
g3
Ntp31
Rp32
(dp33
g7
V456
p34
sg9
VFinneon
p35
sg11
VSu,M,
p36
sg13
VSurf
p37
sg15
V15
p38
sg17
V18
p39
sg19
V40
p40
sbag1
(g2
g3
Ntp41
Rp42
(dp43
g7
V019
p44
sg9
VRattata
p45
sg11
VSu,M,
p46
sg13
VGrass
p47
sg15
V5
p48
sg17
V8
p49
sg19
V20
p50
sbag1
(g2
g3
Ntp51
Rp52
(dp53
g7
V052
p54
sg9
VMeowth
p55
sg11
VSu,M,
p56
sg13
VGrass
p57
sg15
g48
sg17
g49
sg19
V10
p58
sbag1
(g2
g3
Ntp59
Rp60
(dp61
g7
V063
p62
sg9
VAbra
p63
sg11
VSu,M,
p64
sg13
VGrass
p65
sg15
g48
sg17
g49
sg19
V25
p66
sbag1
(g2
g3
Ntp67
Rp68
(dp69
g7
V081
p70
sg9
VMagnemite
p71
sg11
VSu,M,
p72
sg13
VGrass
p73
sg15
g48
sg17
g49
sg19
V10
p74
sbag1
(g2
g3
Ntp75
Rp76
(dp77
g7
V088
p78
sg9
VGrimer
p79
sg11
VSu,M,
p80
sg13
VGrass
p81
sg15
g48
sg17
g49
sg19
V10
p82
sbag1
(g2
g3
Ntp83
Rp84
(dp85
g7
V172
p86
sg9
VPichu
p87
sg11
VSu,M,
p88
sg13
VGrass
p89
sg15
g48
sg17
g49
sg19
V5
p90
sbag1
(g2
g3
Ntp91
Rp92
(dp93
g7
V278
p94
sg9
VWingull
p95
sg11
VSu,M,
p96
sg13
VGrass
p97
sg15
g48
sg17
g49
sg19
V20
p98
sbag1
(g2
g3
Ntp99
Rp100
(dp101
g7
V734
p102
sg9
VYungoos
p103
sg11
VSu,M,
p104
sg13
VGrass
p105
sg15
g48
sg17
g49
sg19
V20
p106
sbag1
(g2
g3
Ntp107
Rp108
(dp109
g7
V599
p110
sg9
VKlink
p111
sg11
VSu,M,
p112
sg13
VGrass
p113
sg15
g49
sg17
g49
sg19
V0
p114
sbag1
(g2
g3
Ntp115
Rp116
(dp117
g7
V801
p118
sg9
VMagearna
p119
sg11
VSu,M,
p120
sg13
VGift
p121
sg15
V50
p122
sg17
g122
sg19
V0
p123
sbag1
(g2
g3
Ntp124
Rp125
(dp126
g7
V072
p127
sg9
VTentacool
p128
sg11
VUS,UM,
p129
sg13
VSurf
p130
sg15
V15
p131
sg17
V18
p132
sg19
V40
p133
sbag1
(g2
g3
Ntp134
Rp135
(dp136
g7
V278
p137
sg9
VWingull
p138
sg11
VUS,UM,
p139
sg13
VSurf
p140
sg15
V15
p141
sg17
V18
p142
sg19
V20
p143
sbag1
(g2
g3
Ntp144
Rp145
(dp146
g7
V456
p147
sg9
VFinneon
p148
sg11
VUS,UM,
p149
sg13
VSurf
p150
sg15
V15
p151
sg17
V18
p152
sg19
V20
p153
sbag1
(g2
g3
Ntp154
Rp155
(dp156
g7
V458
p157
sg9
VMantyke
p158
sg11
VUS,UM,
p159
sg13
VSurf
p160
sg15
V15
p161
sg17
V18
p162
sg19
V20
p163
sbag1
(g2
g3
Ntp164
Rp165
(dp166
g7
V052
p167
sg9
VMeowth
p168
sg11
VUS,UM,
p169
sg13
VGrass
p170
sg15
V6
p171
sg17
V9
p172
sg19
V10
p173
sbag1
(g2
g3
Ntp174
Rp175
(dp176
g7
V063
p177
sg9
VAbra
p178
sg11
VUS,UM,
p179
sg13
VGrass
p180
sg15
g171
sg17
g172
sg19
V10
p181
sbag1
(g2
g3
Ntp182
Rp183
(dp184
g7
V081
p185
sg9
VMagnemite
p186
sg11
VUS,UM,
p187
sg13
VGrass
p188
sg15
g171
sg17
g172
sg19
V10
p189
sbag1
(g2
g3
Ntp190
Rp191
(dp192
g7
V088
p193
sg9
VGrimer
p194
sg11
VUS,UM,
p195
sg13
VGrass
p196
sg15
g171
sg17
g172
sg19
V5
p197
sbag1
(g2
g3
Ntp198
Rp199
(dp200
g7
V278
p201
sg9
VWingull
p202
sg11
VUS,UM,
p203
sg13
VGrass
p204
sg15
g171
sg17
g172
sg19
V40
p205
sbag1
(g2
g3
Ntp206
Rp207
(dp208
g7
V439
p209
sg9
VMime Jr.
p210
sg11
VUS,UM,
p211
sg13
VGrass
p212
sg15
g171
sg17
g172
sg19
V10
p213
sbag1
(g2
g3
Ntp214
Rp215
(dp216
g7
V676
p217
sg9
VFurfrou
p218
sg11
VUS,UM,
p219
sg13
VGrass
p220
sg15
g171
sg17
g172
sg19
V15
p221
sbag1
(g2
g3
Ntp222
Rp223
(dp224
g7
V052
p225
sg9
VMeowth
p226
sg11
VUS,UM,
p227
sg13
VGrass
p228
sg15
g171
sg17
g172
sg19
V10
p229
sbag1
(g2
g3
Ntp230
Rp231
(dp232
g7
V063
p233
sg9
VAbra
p234
sg11
VUS,UM,
p235
sg13
VGrass
p236
sg15
g171
sg17
g172
sg19
V20
p237
sbag1
(g2
g3
Ntp238
Rp239
(dp240
g7
V081
p241
sg9
VMagnemite
p242
sg11
VUS,UM,
p243
sg13
VGrass
p244
sg15
g171
sg17
g172
sg19
V10
p245
sbag1
(g2
g3
Ntp246
Rp247
(dp248
g7
V088
p249
sg9
VGrimer
p250
sg11
VUS,UM,
p251
sg13
VGrass
p252
sg15
g171
sg17
g172
sg19
V10
p253
sbag1
(g2
g3
Ntp254
Rp255
(dp256
g7
V278
p257
sg9
VWingull
p258
sg11
VUS,UM,
p259
sg13
VGrass
p260
sg15
g171
sg17
g172
sg19
V5
p261
sbag1
(g2
g3
Ntp262
Rp263
(dp264
g7
V439
p265
sg9
VMime Jr.
p266
sg11
VUS,UM,
p267
sg13
VGrass
p268
sg15
g171
sg17
g172
sg19
V20
p269
sbag1
(g2
g3
Ntp270
Rp271
(dp272
g7
V676
p273
sg9
VFurfrou
p274
sg11
VUS,UM,
p275
sg13
VGrass
p276
sg15
g171
sg17
g172
sg19
V25
p277
sbag1
(g2
g3
Ntp278
Rp279
(dp280
g7
V760
p281
sg9
VBewear
p282
sg11
VUS,UM,
p283
sg13
VSpecial
p284
sg15
V28
p285
sg17
g285
sg19
V0
p286
sbag1
(g2
g3
Ntp287
Rp288
(dp289
g7
V097
p290
sg9
VHypno
p291
sg11
VUS,UM,
p292
sg13
VSpecial
p293
sg15
V29
p294
sg17
g294
sg19
V0
p295
sbag1
(g2
g3
Ntp296
Rp297
(dp298
g7
V664
p299
sg9
VScatterbug
p300
sg11
VUS,UM,
p301
sg13
VGrass
p302
sg15
g172
sg17
g172
sg19
V0
p303
sbag1
(g2
g3
Ntp304
Rp305
(dp306
g7
V801
p307
sg9
VMagearna
p308
sg11
VUS,UM,
p309
sg13
VGift
p310
sg15
V50
p311
sg17
g311
sg19
V0
p312
sbag1
(g2
g3
Ntp313
Rp314
(dp315
g7
V025
p316
sg9
VPikachu
p317
sg11
VSu,M,
p318
sg13
VGrass
p319
sg15
V20
p320
sg17
V23
p321
sg19
V5
p322
sbag1
(g2
g3
Ntp323
Rp324
(dp325
g7
V731
p326
sg9
VPikipek
p327
sg11
VSu,M,
p328
sg13
VGrass
p329
sg15
V20
p330
sg17
V23
p331
sg19
V50
p332
sbag1
(g2
g3
Ntp333
Rp334
(dp335
g7
V734
p336
sg9
VYungoos
p337
sg11
VSu,M,
p338
sg13
VGrass
p339
sg15
V20
p340
sg17
V23
p341
sg19
V30
p342
sbag1
(g2
g3
Ntp343
Rp344
(dp345
g7
V744
p346
sg9
VRockruff
p347
sg11
VSu,M,
p348
sg13
VGrass
p349
sg15
V20
p350
sg17
V23
p351
sg19
V15
p352
sba.