(lp0
ccopy_reg
_reconstructor
p1
(c__main__
WildPokemon
p2
c__builtin__
object
p3
Ntp4
Rp5
(dp6
VpDexNo
p7
V041
p8
sVpSpecies
p9
VZubat
p10
sVpGames
p11
VSu,M,
p12
sVpArea
p13
VGrass
p14
sVpMinLevel
p15
V7
p16
sVpMaxLevel
p17
V10
p18
sVpRate
p19
V20
p20
sbag1
(g2
g3
Ntp21
Rp22
(dp23
g7
V092
p24
sg9
VGastly
p25
sg11
VSu,M,
p26
sg13
VGrass
p27
sg15
g16
sg17
V10
p28
sg19
V50
p29
sbag1
(g2
g3
Ntp30
Rp31
(dp32
g7
V200
p33
sg9
VMisdreavus
p34
sg11
VSu,M,
p35
sg13
VGrass
p36
sg15
g16
sg17
V10
p37
sg19
V30
p38
sbag1
(g2
g3
Ntp39
Rp40
(dp41
g7
V425
p42
sg9
VDrifloon
p43
sg11
VSu,M,
p44
sg13
VGrass
p45
sg15
g16
sg17
V10
p46
sg19
V30
p47
sbag1
(g2
g3
Ntp48
Rp49
(dp50
g7
V607
p51
sg9
VLitwick
p52
sg11
VSu,M,
p53
sg13
VGrass
p54
sg15
V10
p55
sg17
g55
sg19
V0
p56
sbag1
(g2
g3
Ntp57
Rp58
(dp59
g7
V041
p60
sg9
VZubat
p61
sg11
VUS,UM,
p62
sg13
VGrass
p63
sg15
V6
p64
sg17
V9
p65
sg19
V20
p66
sbag1
(g2
g3
Ntp67
Rp68
(dp69
g7
V092
p70
sg9
VGastly
p71
sg11
VUS,UM,
p72
sg13
VGrass
p73
sg15
g64
sg17
g65
sg19
V40
p74
sbag1
(g2
g3
Ntp75
Rp76
(dp77
g7
V198
p78
sg9
VMurkrow
p79
sg11
VUS,UM,
p80
sg13
VGrass
p81
sg15
g64
sg17
g65
sg19
V40
p82
sbag1
(g2
g3
Ntp83
Rp84
(dp85
g7
V425
p86
sg9
VDrifloon
p87
sg11
VUS,UM,
p88
sg13
VGrass
p89
sg15
g64
sg17
g65
sg19
V40
p90
sbag1
(g2
g3
Ntp91
Rp92
(dp93
g7
V607
p94
sg9
VLitwick
p95
sg11
VUS,UM,
p96
sg13
VGrass
p97
sg15
g65
sg17
g65
sg19
V0
p98
sba.