(lp0
ccopy_reg
_reconstructor
p1
(c__main__
WildPokemon
p2
c__builtin__
object
p3
Ntp4
Rp5
(dp6
VpDexNo
p7
V735
p8
sVpSpecies
p9
VGumshoos
p10
sVpGames
p11
VUS,
p12
sVpArea
p13
VGift
p14
sVpMinLevel
p15
V20
p16
sVpMaxLevel
p17
g16
sVpRate
p18
V0
p19
sbag1
(g2
g3
Ntp20
Rp21
(dp22
g7
V020
p23
sg9
VRaticate
p24
sg11
VUM,
p25
sg13
VGift
p26
sg15
V20
p27
sg17
g27
sg18
V0
p28
sbag1
(g2
g3
Ntp29
Rp30
(dp31
g7
V105
p32
sg9
VMarowak
p33
sg11
g12
sg13
VGift
p34
sg15
V25
p35
sg17
g35
sg18
V0
p36
sbag1
(g2
g3
Ntp37
Rp38
(dp39
g7
V752
p40
sg9
VAraquanid
p41
sg11
g25
sg13
VGift
p42
sg15
V25
p43
sg17
g43
sg18
V0
p44
sbag1
(g2
g3
Ntp45
Rp46
(dp47
g7
V754
p48
sg9
VLurantis
p49
sg11
g12
sg13
VGift
p50
sg15
V30
p51
sg17
g51
sg18
V0
p52
sbag1
(g2
g3
Ntp53
Rp54
(dp55
g7
V758
p56
sg9
VSalazzle
p57
sg11
g25
sg13
VGift
p58
sg15
V30
p59
sg17
g59
sg18
V0
p60
sbag1
(g2
g3
Ntp61
Rp62
(dp63
g7
V738
p64
sg9
VVikavolt
p65
sg11
g12
sg13
VGift
p66
sg15
V35
p67
sg17
g67
sg18
V0
p68
sbag1
(g2
g3
Ntp69
Rp70
(dp71
g7
V777
p72
sg9
VTogedemaru
p73
sg11
g25
sg13
VGift
p74
sg15
V35
p75
sg17
g75
sg18
V0
p76
sbag1
(g2
g3
Ntp77
Rp78
(dp79
g7
V778
p80
sg9
VMimikyu
p81
sg11
VUS,UM,
p82
sg13
VGift
p83
sg15
V40
p84
sg17
g84
sg18
V0
p85
sbag1
(g2
g3
Ntp86
Rp87
(dp88
g7
V743
p89
sg9
VRibombee
p90
sg11
g12
sg13
VGift
p91
sg15
V50
p92
sg17
g92
sg18
V0
p93
sbag1
(g2
g3
Ntp94
Rp95
(dp96
g7
V784
p97
sg9
VKommo-o
p98
sg11
g25
sg13
VGift
p99
sg15
V50
p100
sg17
g100
sg18
V0
p101
sba.