(lp0
ccopy_reg
_reconstructor
p1
(c__main__
WildPokemon
p2
c__builtin__
object
p3
Ntp4
Rp5
(dp6
VpDexNo
p7
V025
p8
sVpSpecies
p9
VPikachu
p10
sVpGames
p11
VUS,UM,
p12
sVpArea
p13
VGift
p14
sVpMinLevel
p15
V40
p16
sVpMaxLevel
p17
g16
sVpRate
p18
V0
p19
sba.