(lp0
ccopy_reg
_reconstructor
p1
(c__main__
WildPokemon
p2
c__builtin__
object
p3
Ntp4
Rp5
(dp6
VpDexNo
p7
V072
p8
sVpSpecies
p9
VTentacool
p10
sVpGames
p11
VRu,S,E,
p12
sVpArea
p13
VSurf
p14
sVpMinLevel
p15
V5
p16
sVpMaxLevel
p17
V35
p18
sVpRate
p19
V60
p20
sbag1
(g2
g3
Ntp21
Rp22
(dp23
g7
V278
p24
sg9
VWingull
p25
sg11
VRu,S,E,
p26
sg13
VSurf
p27
sg15
V10
p28
sg17
V30
p29
sg19
V35
p30
sbag1
(g2
g3
Ntp31
Rp32
(dp33
g7
V279
p34
sg9
VPelipper
p35
sg11
VRu,S,E,
p36
sg13
VSurf
p37
sg15
V25
p38
sg17
V30
p39
sg19
V5
p40
sbag1
(g2
g3
Ntp41
Rp42
(dp43
g7
V072
p44
sg9
VTentacool
p45
sg11
VRu,S,E,
p46
sg13
VFish Old
p47
sg15
g16
sg17
V10
p48
sg19
V30
p49
sbag1
(g2
g3
Ntp50
Rp51
(dp52
g7
V129
p53
sg9
VMagikarp
p54
sg11
VRu,S,E,
p55
sg13
VFish Old
p56
sg15
g16
sg17
V10
p57
sg19
V70
p58
sbag1
(g2
g3
Ntp59
Rp60
(dp61
g7
V072
p62
sg9
VTentacool
p63
sg11
VRu,S,E,
p64
sg13
VFish Good
p65
sg15
V10
p66
sg17
V30
p67
sg19
V20
p68
sbag1
(g2
g3
Ntp69
Rp70
(dp71
g7
V129
p72
sg9
VMagikarp
p73
sg11
VRu,S,E,
p74
sg13
VFish Good
p75
sg15
V10
p76
sg17
V30
p77
sg19
V60
p78
sbag1
(g2
g3
Ntp79
Rp80
(dp81
g7
V320
p82
sg9
VWailmer
p83
sg11
VRu,S,E,
p84
sg13
VFish Good
p85
sg15
V10
p86
sg17
V30
p87
sg19
V20
p88
sbag1
(g2
g3
Ntp89
Rp90
(dp91
g7
V319
p92
sg9
VSharpedo
p93
sg11
VRu,S,E,
p94
sg13
VFish Super
p95
sg15
V30
p96
sg17
V35
p97
sg19
V40
p98
sbag1
(g2
g3
Ntp99
Rp100
(dp101
g7
V320
p102
sg9
VWailmer
p103
sg11
VRu,S,E,
p104
sg13
VFish Super
p105
sg15
V25
p106
sg17
V45
p107
sg19
V60
p108
sbag1
(g2
g3
Ntp109
Rp110
(dp111
g7
V072
p112
sg9
VTentacool
p113
sg11
VOR,AS,
p114
sg13
VSurf
p115
sg15
V25
p116
sg17
g116
sg19
V50
p117
sbag1
(g2
g3
Ntp118
Rp119
(dp120
g7
V073
p121
sg9
VTentacruel
p122
sg11
VOR,AS,
p123
sg13
VSurf
p124
sg15
V30
p125
sg17
g125
sg19
V15
p126
sbag1
(g2
g3
Ntp127
Rp128
(dp129
g7
V279
p130
sg9
VPelipper
p131
sg11
VOR,AS,
p132
sg13
VSurf
p133
sg15
V25
p134
sg17
V35
p135
sg19
V35
p136
sbag1
(g2
g3
Ntp137
Rp138
(dp139
g7
V456
p140
sg9
VFinneon
p141
sg11
VOR,AS,
p142
sg13
VSurf
p143
sg15
V30
p144
sg17
g144
sg19
V0
p145
sbag1
(g2
g3
Ntp146
Rp147
(dp148
g7
V592
p149
sg9
VFrillish
p150
sg11
VOR,AS,
p151
sg13
VSurf
p152
sg15
V30
p153
sg17
g153
sg19
V0
p154
sbag1
(g2
g3
Ntp155
Rp156
(dp157
g7
V594
p158
sg9
VAlomomola
p159
sg11
VOR,AS,
p160
sg13
VSurf
p161
sg15
V30
p162
sg17
g162
sg19
V0
p163
sbag1
(g2
g3
Ntp164
Rp165
(dp166
g7
V072
p167
sg9
VTentacool
p168
sg11
VOR,AS,
p169
sg13
VFish Old
p170
sg15
g16
sg17
g16
sg19
V35
p171
sbag1
(g2
g3
Ntp172
Rp173
(dp174
g7
V129
p175
sg9
VMagikarp
p176
sg11
VOR,AS,
p177
sg13
VFish Old
p178
sg15
V10
p179
sg17
V15
p180
sg19
V65
p181
sbag1
(g2
g3
Ntp182
Rp183
(dp184
g7
V072
p185
sg9
VTentacool
p186
sg11
VOR,AS,
p187
sg13
VFish Good
p188
sg15
V25
p189
sg17
g189
sg19
V35
p190
sbag1
(g2
g3
Ntp191
Rp192
(dp193
g7
V129
p194
sg9
VMagikarp
p195
sg11
VOR,AS,
p196
sg13
VFish Good
p197
sg15
V25
p198
sg17
g198
sg19
V60
p199
sbag1
(g2
g3
Ntp200
Rp201
(dp202
g7
V320
p203
sg9
VWailmer
p204
sg11
VOR,AS,
p205
sg13
VFish Good
p206
sg15
V25
p207
sg17
g207
sg19
V5
p208
sbag1
(g2
g3
Ntp209
Rp210
(dp211
g7
V116
p212
sg9
VHorsea
p213
sg11
VOR,AS,
p214
sg13
VFish Super
p215
sg15
V30
p216
sg17
g216
sg19
V35
p217
sbag1
(g2
g3
Ntp218
Rp219
(dp220
g7
V117
p221
sg9
VSeadra
p222
sg11
VOR,AS,
p223
sg13
VFish Super
p224
sg15
V40
p225
sg17
g225
sg19
V5
p226
sbag1
(g2
g3
Ntp227
Rp228
(dp229
g7
V320
p230
sg9
VWailmer
p231
sg11
VOR,AS,
p232
sg13
VFish Super
p233
sg15
V35
p234
sg17
g234
sg19
V60
p235
sba.