(lp0
ccopy_reg
_reconstructor
p1
(c__main__
WildPokemon
p2
c__builtin__
object
p3
Ntp4
Rp5
(dp6
VpDexNo
p7
V043
p8
sVpSpecies
p9
VOddish
p10
sVpGames
p11
VRu,S,
p12
sVpArea
p13
VGrass
p14
sVpMinLevel
p15
V13
p16
sVpMaxLevel
p17
g16
sVpRate
p18
V10
p19
sbag1
(g2
g3
Ntp20
Rp21
(dp22
g7
V043
p23
sg9
VOddish
p24
sg11
VE,
p25
sg13
VGrass
p26
sg15
V13
p27
sg17
V14
p28
sg18
V40
p29
sbag1
(g2
g3
Ntp30
Rp31
(dp32
g7
V183
p33
sg9
VMarill
p34
sg11
VRu,S,E,
p35
sg13
VGrass
p36
sg15
V13
p37
sg17
g37
sg18
V10
p38
sbag1
(g2
g3
Ntp39
Rp40
(dp41
g7
V261
p42
sg9
VPoochyena
p43
sg11
g25
sg13
VGrass
p44
sg15
V13
p45
sg17
V14
p46
sg18
V30
p47
sbag1
(g2
g3
Ntp48
Rp49
(dp50
g7
V263
p51
sg9
VZigzagoon
p52
sg11
VRu,S,
p53
sg13
VGrass
p54
sg15
V13
p55
sg17
V14
p56
sg18
V30
p57
sbag1
(g2
g3
Ntp58
Rp59
(dp60
g7
V273
p61
sg9
VSeedot
p62
sg11
g25
sg13
VGrass
p63
sg15
V13
p64
sg17
g64
sg18
V1
p65
sbag1
(g2
g3
Ntp66
Rp67
(dp68
g7
V283
p69
sg9
VSurskit
p70
sg11
VRu,S,
p71
sg13
VGrass
p72
sg15
V13
p73
sg17
g73
sg18
V1
p74
sbag1
(g2
g3
Ntp75
Rp76
(dp77
g7
V313
p78
sg9
VVolbeat
p79
sg11
VRu,E,
p80
sg13
VGrass
p81
sg15
V13
p82
sg17
g82
sg18
V1
p83
sbag1
(g2
g3
Ntp84
Rp85
(dp86
g7
V313
p87
sg9
VVolbeat
p88
sg11
VS,
p89
sg13
VGrass
p90
sg15
V13
p91
sg17
V14
p92
sg18
V18
p93
sbag1
(g2
g3
Ntp94
Rp95
(dp96
g7
V314
p97
sg9
VIllumise
p98
sg11
VRu,E,
p99
sg13
VGrass
p100
sg15
V13
p101
sg17
V14
p102
sg18
V18
p103
sbag1
(g2
g3
Ntp104
Rp105
(dp106
g7
V314
p107
sg9
VIllumise
p108
sg11
g89
sg13
VGrass
p109
sg15
V13
p110
sg17
g110
sg18
V1
p111
sbag1
(g2
g3
Ntp112
Rp113
(dp114
g7
V315
p115
sg9
VRoselia
p116
sg11
VRu,S,
p117
sg13
VGrass
p118
sg15
V13
p119
sg17
V14
p120
sg18
V30
p121
sbag1
(g2
g3
Ntp122
Rp123
(dp124
g7
V118
p125
sg9
VGoldeen
p126
sg11
g25
sg13
VSurf
p127
sg15
V20
p128
sg17
V30
p129
sg18
V1
p130
sbag1
(g2
g3
Ntp131
Rp132
(dp133
g7
V183
p134
sg9
VMarill
p135
sg11
VRu,S,E,
p136
sg13
VSurf
p137
sg15
V5
p138
sg17
V35
p139
sg18
V99
p140
sbag1
(g2
g3
Ntp141
Rp142
(dp143
g7
V283
p144
sg9
VSurskit
p145
sg11
VRu,S,
p146
sg13
VSurf
p147
sg15
V20
p148
sg17
V30
p149
sg18
V1
p150
sbag1
(g2
g3
Ntp151
Rp152
(dp153
g7
V118
p154
sg9
VGoldeen
p155
sg11
VRu,S,E,
p156
sg13
VFish Old
p157
sg15
g138
sg17
V10
p158
sg18
V30
p159
sbag1
(g2
g3
Ntp160
Rp161
(dp162
g7
V129
p163
sg9
VMagikarp
p164
sg11
VRu,S,E,
p165
sg13
VFish Old
p166
sg15
g138
sg17
V10
p167
sg18
V70
p168
sbag1
(g2
g3
Ntp169
Rp170
(dp171
g7
V118
p172
sg9
VGoldeen
p173
sg11
VRu,S,E,
p174
sg13
VFish Good
p175
sg15
V10
p176
sg17
V30
p177
sg18
V20
p178
sbag1
(g2
g3
Ntp179
Rp180
(dp181
g7
V129
p182
sg9
VMagikarp
p183
sg11
VRu,S,E,
p184
sg13
VFish Good
p185
sg15
V10
p186
sg17
V30
p187
sg18
V60
p188
sbag1
(g2
g3
Ntp189
Rp190
(dp191
g7
V341
p192
sg9
VCorphish
p193
sg11
VRu,S,E,
p194
sg13
VFish Good
p195
sg15
V10
p196
sg17
V30
p197
sg18
V20
p198
sbag1
(g2
g3
Ntp199
Rp200
(dp201
g7
V341
p202
sg9
VCorphish
p203
sg11
VRu,S,E,
p204
sg13
VFish Super
p205
sg15
V20
p206
sg17
V45
p207
sg18
V100
p208
sbag1
(g2
g3
Ntp209
Rp210
(dp211
g7
V283
p212
sg9
VSurskit
p213
sg11
VRu,S,
p214
sg13
VSwarm
p215
sg15
V15
p216
sg17
g216
sg18
V50
p217
sbag1
(g2
g3
Ntp218
Rp219
(dp220
g7
V273
p221
sg9
VSeedot
p222
sg11
g25
sg13
VSwarm
p223
sg15
V13
p224
sg17
g224
sg18
V50
p225
sbag1
(g2
g3
Ntp226
Rp227
(dp228
g7
V043
p229
sg9
VOddish
p230
sg11
VOR,AS,
p231
sg13
VGrass
p232
sg15
V14
p233
sg17
g233
sg18
V10
p234
sbag1
(g2
g3
Ntp235
Rp236
(dp237
g7
V183
p238
sg9
VMarill
p239
sg11
VOR,AS,
p240
sg13
VGrass
p241
sg15
V11
p242
sg17
V13
p243
sg18
V15
p244
sbag1
(g2
g3
Ntp245
Rp246
(dp247
g7
V263
p248
sg9
VZigzagoon
p249
sg11
VOR,AS,
p250
sg13
VGrass
p251
sg15
V12
p252
sg17
V14
p253
sg18
V30
p254
sbag1
(g2
g3
Ntp255
Rp256
(dp257
g7
V283
p258
sg9
VSurskit
p259
sg11
VOR,AS,
p260
sg13
VGrass
p261
sg15
V14
p262
sg17
g262
sg18
V1
p263
sbag1
(g2
g3
Ntp264
Rp265
(dp266
g7
V313
p267
sg9
VVolbeat
p268
sg11
VOR,
p269
sg13
VGrass
p270
sg15
V14
p271
sg17
g271
sg18
V4
p272
sbag1
(g2
g3
Ntp273
Rp274
(dp275
g7
V313
p276
sg9
VVolbeat
p277
sg11
VAS,
p278
sg13
VGrass
p279
sg15
V11
p280
sg17
V13
p281
sg18
V20
p282
sbag1
(g2
g3
Ntp283
Rp284
(dp285
g7
V314
p286
sg9
VIllumise
p287
sg11
g269
sg13
VGrass
p288
sg15
V11
p289
sg17
V13
p290
sg18
V20
p291
sbag1
(g2
g3
Ntp292
Rp293
(dp294
g7
V314
p295
sg9
VIllumise
p296
sg11
g278
sg13
VGrass
p297
sg15
V14
p298
sg17
g298
sg18
V4
p299
sbag1
(g2
g3
Ntp300
Rp301
(dp302
g7
V315
p303
sg9
VRoselia
p304
sg11
VOR,AS,
p305
sg13
VGrass
p306
sg15
V12
p307
sg17
V14
p308
sg18
V20
p309
sbag1
(g2
g3
Ntp310
Rp311
(dp312
g7
V043
p313
sg9
VOddish
p314
sg11
VOR,AS,
p315
sg13
VHorde Encounter
p316
sg15
V7
p317
sg17
g317
sg18
V0
p318
sbag1
(g2
g3
Ntp319
Rp320
(dp321
g7
V183
p322
sg9
VMarill
p323
sg11
VOR,AS,
p324
sg13
VHorde Encounter
p325
sg15
g317
sg17
g317
sg18
V5
p326
sbag1
(g2
g3
Ntp327
Rp328
(dp329
g7
V263
p330
sg9
VZigzagoon
p331
sg11
VOR,AS,
p332
sg13
VHorde Encounter
p333
sg15
g317
sg17
g317
sg18
V0
p334
sbag1
(g2
g3
Ntp335
Rp336
(dp337
g7
V315
p338
sg9
VRoselia
p339
sg11
VOR,AS,
p340
sg13
VHorde Encounter
p341
sg15
g317
sg17
g317
sg18
V35
p342
sbag1
(g2
g3
Ntp343
Rp344
(dp345
g7
V019
p346
sg9
VRattata
p347
sg11
VOR,AS,
p348
sg13
VGrass
p349
sg15
V14
p350
sg17
g350
sg18
V0
p351
sbag1
(g2
g3
Ntp352
Rp353
(dp354
g7
V535
p355
sg9
VTympole
p356
sg11
VOR,AS,
p357
sg13
VGrass
p358
sg15
V14
p359
sg17
g359
sg18
V0
p360
sbag1
(g2
g3
Ntp361
Rp362
(dp363
g7
V585
p364
sg9
VDeerling
p365
sg11
VOR,AS,
p366
sg13
VGrass
p367
sg15
V14
p368
sg17
g368
sg18
V0
p369
sbag1
(g2
g3
Ntp370
Rp371
(dp372
g7
V183
p373
sg9
VMarill
p374
sg11
VOR,AS,
p375
sg13
VSurf
p376
sg15
V15
p377
sg17
g377
sg18
V50
p378
sbag1
(g2
g3
Ntp379
Rp380
(dp381
g7
V184
p382
sg9
VAzumarill
p383
sg11
VOR,AS,
p384
sg13
VSurf
p385
sg15
V20
p386
sg17
V25
p387
sg18
V31
p388
sbag1
(g2
g3
Ntp389
Rp390
(dp391
g7
V283
p392
sg9
VSurskit
p393
sg11
VOR,AS,
p394
sg13
VSurf
p395
sg15
V20
p396
sg17
g396
sg18
V15
p397
sbag1
(g2
g3
Ntp398
Rp399
(dp400
g7
V284
p401
sg9
VMasquerain
p402
sg11
VOR,AS,
p403
sg13
VSurf
p404
sg15
V25
p405
sg17
g405
sg18
V4
p406
sbag1
(g2
g3
Ntp407
Rp408
(dp409
g7
V118
p410
sg9
VGoldeen
p411
sg11
VOR,AS,
p412
sg13
VFish Old
p413
sg15
g138
sg17
g138
sg18
V35
p414
sbag1
(g2
g3
Ntp415
Rp416
(dp417
g7
V129
p418
sg9
VMagikarp
p419
sg11
VOR,AS,
p420
sg13
VFish Old
p421
sg15
V10
p422
sg17
V15
p423
sg18
V65
p424
sbag1
(g2
g3
Ntp425
Rp426
(dp427
g7
V118
p428
sg9
VGoldeen
p429
sg11
VOR,AS,
p430
sg13
VFish Good
p431
sg15
V25
p432
sg17
g432
sg18
V35
p433
sbag1
(g2
g3
Ntp434
Rp435
(dp436
g7
V129
p437
sg9
VMagikarp
p438
sg11
VOR,AS,
p439
sg13
VFish Good
p440
sg15
V25
p441
sg17
g441
sg18
V60
p442
sbag1
(g2
g3
Ntp443
Rp444
(dp445
g7
V341
p446
sg9
VCorphish
p447
sg11
VOR,AS,
p448
sg13
VFish Good
p449
sg15
V25
p450
sg17
g450
sg18
V5
p451
sbag1
(g2
g3
Ntp452
Rp453
(dp454
g7
V341
p455
sg9
VCorphish
p456
sg11
VOR,AS,
p457
sg13
VFish Super
p458
sg15
V30
p459
sg17
V35
p460
sg18
V95
p461
sbag1
(g2
g3
Ntp462
Rp463
(dp464
g7
V342
p465
sg9
VCrawdaunt
p466
sg11
VOR,AS,
p467
sg13
VFish Super
p468
sg15
V40
p469
sg17
g469
sg18
V5
p470
sba.