(lp0
ccopy_reg
_reconstructor
p1
(c__main__
WildPokemon
p2
c__builtin__
object
p3
Ntp4
Rp5
(dp6
VpDexNo
p7
V072
p8
sVpSpecies
p9
VTentacool
p10
sVpGames
p11
VRu,S,E,
p12
sVpArea
p13
VSurf
p14
sVpMinLevel
p15
V5
p16
sVpMaxLevel
p17
V35
p18
sVpRate
p19
V60
p20
sbag1
(g2
g3
Ntp21
Rp22
(dp23
g7
V278
p24
sg9
VWingull
p25
sg11
VRu,S,E,
p26
sg13
VSurf
p27
sg15
V10
p28
sg17
V30
p29
sg19
V35
p30
sbag1
(g2
g3
Ntp31
Rp32
(dp33
g7
V279
p34
sg9
VPelipper
p35
sg11
VRu,S,E,
p36
sg13
VSurf
p37
sg15
V25
p38
sg17
V30
p39
sg19
V5
p40
sbag1
(g2
g3
Ntp41
Rp42
(dp43
g7
V072
p44
sg9
VTentacool
p45
sg11
VRu,S,E,
p46
sg13
VFish Old
p47
sg15
g16
sg17
V10
p48
sg19
V30
p49
sbag1
(g2
g3
Ntp50
Rp51
(dp52
g7
V129
p53
sg9
VMagikarp
p54
sg11
VRu,S,E,
p55
sg13
VFish Old
p56
sg15
g16
sg17
V10
p57
sg19
V70
p58
sbag1
(g2
g3
Ntp59
Rp60
(dp61
g7
V129
p62
sg9
VMagikarp
p63
sg11
VRu,S,E,
p64
sg13
VFish Good
p65
sg15
V10
p66
sg17
V30
p67
sg19
V60
p68
sbag1
(g2
g3
Ntp69
Rp70
(dp71
g7
V320
p72
sg9
VWailmer
p73
sg11
VRu,S,E,
p74
sg13
VFish Good
p75
sg15
V10
p76
sg17
V30
p77
sg19
V20
p78
sbag1
(g2
g3
Ntp79
Rp80
(dp81
g7
V370
p82
sg9
VLuvdisc
p83
sg11
VRu,S,E,
p84
sg13
VFish Good
p85
sg15
V10
p86
sg17
V30
p87
sg19
V20
p88
sbag1
(g2
g3
Ntp89
Rp90
(dp91
g7
V222
p92
sg9
VCorsola
p93
sg11
VRu,S,E,
p94
sg13
VFish Super
p95
sg15
V30
p96
sg17
V35
p97
sg19
V15
p98
sbag1
(g2
g3
Ntp99
Rp100
(dp101
g7
V320
p102
sg9
VWailmer
p103
sg11
VRu,S,E,
p104
sg13
VFish Super
p105
sg15
V30
p106
sg17
V45
p107
sg19
V45
p108
sbag1
(g2
g3
Ntp109
Rp110
(dp111
g7
V370
p112
sg9
VLuvdisc
p113
sg11
VRu,S,E,
p114
sg13
VFish Super
p115
sg15
V30
p116
sg17
V35
p117
sg19
V40
p118
sbag1
(g2
g3
Ntp119
Rp120
(dp121
g7
V072
p122
sg9
VTentacool
p123
sg11
VOR,AS,
p124
sg13
VSurf
p125
sg15
V25
p126
sg17
g126
sg19
V50
p127
sbag1
(g2
g3
Ntp128
Rp129
(dp130
g7
V073
p131
sg9
VTentacruel
p132
sg11
VOR,AS,
p133
sg13
VSurf
p134
sg15
V30
p135
sg17
g135
sg19
V15
p136
sbag1
(g2
g3
Ntp137
Rp138
(dp139
g7
V279
p140
sg9
VPelipper
p141
sg11
VOR,AS,
p142
sg13
VSurf
p143
sg15
V25
p144
sg17
V35
p145
sg19
V35
p146
sbag1
(g2
g3
Ntp147
Rp148
(dp149
g7
V072
p150
sg9
VTentacool
p151
sg11
VOR,AS,
p152
sg13
VFish Old
p153
sg15
g16
sg17
g16
sg19
V35
p154
sbag1
(g2
g3
Ntp155
Rp156
(dp157
g7
V129
p158
sg9
VMagikarp
p159
sg11
VOR,AS,
p160
sg13
VFish Old
p161
sg15
V10
p162
sg17
V15
p163
sg19
V65
p164
sbag1
(g2
g3
Ntp165
Rp166
(dp167
g7
V129
p168
sg9
VMagikarp
p169
sg11
VOR,AS,
p170
sg13
VFish Good
p171
sg15
V25
p172
sg17
g172
sg19
V60
p173
sbag1
(g2
g3
Ntp174
Rp175
(dp176
g7
V320
p177
sg9
VWailmer
p178
sg11
VOR,AS,
p179
sg13
VFish Good
p180
sg15
V25
p181
sg17
g181
sg19
V5
p182
sbag1
(g2
g3
Ntp183
Rp184
(dp185
g7
V370
p186
sg9
VLuvdisc
p187
sg11
VOR,AS,
p188
sg13
VFish Good
p189
sg15
V25
p190
sg17
g190
sg19
V35
p191
sbag1
(g2
g3
Ntp192
Rp193
(dp194
g7
V222
p195
sg9
VCorsola
p196
sg11
VOR,AS,
p197
sg13
VFish Super
p198
sg15
V40
p199
sg17
g199
sg19
V5
p200
sbag1
(g2
g3
Ntp201
Rp202
(dp203
g7
V320
p204
sg9
VWailmer
p205
sg11
VOR,AS,
p206
sg13
VFish Super
p207
sg15
V30
p208
sg17
g208
sg19
V35
p209
sbag1
(g2
g3
Ntp210
Rp211
(dp212
g7
V370
p213
sg9
VLuvdisc
p214
sg11
VOR,AS,
p215
sg13
VFish Super
p216
sg15
V35
p217
sg17
g217
sg19
V60
p218
sba.