(lp0
ccopy_reg
_reconstructor
p1
(c__main__
WildPokemon
p2
c__builtin__
object
p3
Ntp4
Rp5
(dp6
VpDexNo
p7
V261
p8
sVpSpecies
p9
VPoochyena
p10
sVpGames
p11
VRu,S,
p12
sVpArea
p13
VGrass
p14
sVpMinLevel
p15
V2
p16
sVpMaxLevel
p17
V4
p18
sVpRate
p19
V30
p20
sbag1
(g2
g3
Ntp21
Rp22
(dp23
g7
V261
p24
sg9
VPoochyena
p25
sg11
VE,
p26
sg13
VGrass
p27
sg15
g16
sg17
g18
sg19
V60
p28
sbag1
(g2
g3
Ntp29
Rp30
(dp31
g7
V263
p32
sg9
VZigzagoon
p33
sg11
VRu,S,
p34
sg13
VGrass
p35
sg15
g16
sg17
g18
sg19
V60
p36
sbag1
(g2
g3
Ntp37
Rp38
(dp39
g7
V263
p40
sg9
VZigzagoon
p41
sg11
g26
sg13
VGrass
p42
sg15
V3
p43
sg17
g18
sg19
V20
p44
sbag1
(g2
g3
Ntp45
Rp46
(dp47
g7
V278
p48
sg9
VWingull
p49
sg11
VRu,S,
p50
sg13
VGrass
p51
sg15
g16
sg17
g18
sg19
V10
p52
sbag1
(g2
g3
Ntp53
Rp54
(dp55
g7
V278
p56
sg9
VWingull
p57
sg11
g26
sg13
VGrass
p58
sg15
g16
sg17
g18
sg19
V20
p59
sbag1
(g2
g3
Ntp60
Rp61
(dp62
g7
V072
p63
sg9
VTentacool
p64
sg11
VRu,S,E,
p65
sg13
VSurf
p66
sg15
V5
p67
sg17
V35
p68
sg19
V60
p69
sbag1
(g2
g3
Ntp70
Rp71
(dp72
g7
V278
p73
sg9
VWingull
p74
sg11
VRu,S,E,
p75
sg13
VSurf
p76
sg15
V10
p77
sg17
V30
p78
sg19
V35
p79
sbag1
(g2
g3
Ntp80
Rp81
(dp82
g7
V279
p83
sg9
VPelipper
p84
sg11
VRu,S,E,
p85
sg13
VSurf
p86
sg15
V25
p87
sg17
V30
p88
sg19
V5
p89
sbag1
(g2
g3
Ntp90
Rp91
(dp92
g7
V072
p93
sg9
VTentacool
p94
sg11
VRu,S,E,
p95
sg13
VFish Old
p96
sg15
g67
sg17
V10
p97
sg19
V30
p98
sbag1
(g2
g3
Ntp99
Rp100
(dp101
g7
V129
p102
sg9
VMagikarp
p103
sg11
VRu,S,E,
p104
sg13
VFish Old
p105
sg15
g67
sg17
V10
p106
sg19
V70
p107
sbag1
(g2
g3
Ntp108
Rp109
(dp110
g7
V072
p111
sg9
VTentacool
p112
sg11
VRu,S,E,
p113
sg13
VFish Good
p114
sg15
V10
p115
sg17
V30
p116
sg19
V20
p117
sbag1
(g2
g3
Ntp118
Rp119
(dp120
g7
V129
p121
sg9
VMagikarp
p122
sg11
VRu,S,E,
p123
sg13
VFish Good
p124
sg15
V10
p125
sg17
V30
p126
sg19
V60
p127
sbag1
(g2
g3
Ntp128
Rp129
(dp130
g7
V320
p131
sg9
VWailmer
p132
sg11
VRu,S,E,
p133
sg13
VFish Good
p134
sg15
V10
p135
sg17
V30
p136
sg19
V20
p137
sbag1
(g2
g3
Ntp138
Rp139
(dp140
g7
V319
p141
sg9
VSharpedo
p142
sg11
VRu,S,E,
p143
sg13
VFish Super
p144
sg15
V30
p145
sg17
V35
p146
sg19
V40
p147
sbag1
(g2
g3
Ntp148
Rp149
(dp150
g7
V320
p151
sg9
VWailmer
p152
sg11
VRu,S,E,
p153
sg13
VFish Super
p154
sg15
V25
p155
sg17
V45
p156
sg19
V60
p157
sbag1
(g2
g3
Ntp158
Rp159
(dp160
g7
V261
p161
sg9
VPoochyena
p162
sg11
VOR,AS,
p163
sg13
VGrass
p164
sg15
g16
sg17
g43
sg19
V40
p165
sbag1
(g2
g3
Ntp166
Rp167
(dp168
g7
V263
p169
sg9
VZigzagoon
p170
sg11
VOR,AS,
p171
sg13
VGrass
p172
sg15
g16
sg17
g43
sg19
V40
p173
sbag1
(g2
g3
Ntp174
Rp175
(dp176
g7
V278
p177
sg9
VWingull
p178
sg11
VOR,AS,
p179
sg13
VGrass
p180
sg15
g16
sg17
g43
sg19
V20
p181
sbag1
(g2
g3
Ntp182
Rp183
(dp184
g7
V261
p185
sg9
VPoochyena
p186
sg11
VOR,AS,
p187
sg13
VHorde Encounter
p188
sg15
g16
sg17
g16
sg19
V35
p189
sbag1
(g2
g3
Ntp190
Rp191
(dp192
g7
V263
p193
sg9
VZigzagoon
p194
sg11
VOR,AS,
p195
sg13
VHorde Encounter
p196
sg15
g16
sg17
g16
sg19
V60
p197
sbag1
(g2
g3
Ntp198
Rp199
(dp200
g7
V278
p201
sg9
VWingull
p202
sg11
VOR,AS,
p203
sg13
VHorde Encounter
p204
sg15
g16
sg17
g16
sg19
V5
p205
sbag1
(g2
g3
Ntp206
Rp207
(dp208
g7
V422
p209
sg9
VShellos
p210
sg11
VOR,
p211
sg13
VGrass
p212
sg15
g43
sg17
g43
sg19
V0
p213
sbag1
(g2
g3
Ntp214
Rp215
(dp216
g7
V422
p217
sg9
VShellos
p218
sg11
VAS,
p219
sg13
VGrass
p220
sg15
g43
sg17
g43
sg19
V0
p221
sbag1
(g2
g3
Ntp222
Rp223
(dp224
g7
V441
p225
sg9
VChatot
p226
sg11
VOR,AS,
p227
sg13
VGrass
p228
sg15
g43
sg17
g43
sg19
V0
p229
sbag1
(g2
g3
Ntp230
Rp231
(dp232
g7
V506
p233
sg9
VLillipup
p234
sg11
VOR,AS,
p235
sg13
VGrass
p236
sg15
g43
sg17
g43
sg19
V0
p237
sbag1
(g2
g3
Ntp238
Rp239
(dp240
g7
V072
p241
sg9
VTentacool
p242
sg11
VOR,AS,
p243
sg13
VSurf
p244
sg15
V20
p245
sg17
V25
p246
sg19
V65
p247
sbag1
(g2
g3
Ntp248
Rp249
(dp250
g7
V278
p251
sg9
VWingull
p252
sg11
VOR,AS,
p253
sg13
VSurf
p254
sg15
V20
p255
sg17
g255
sg19
V30
p256
sbag1
(g2
g3
Ntp257
Rp258
(dp259
g7
V279
p260
sg9
VPelipper
p261
sg11
VOR,AS,
p262
sg13
VSurf
p263
sg15
V25
p264
sg17
V30
p265
sg19
V5
p266
sbag1
(g2
g3
Ntp267
Rp268
(dp269
g7
V072
p270
sg9
VTentacool
p271
sg11
VOR,AS,
p272
sg13
VFish Old
p273
sg15
g67
sg17
g67
sg19
V35
p274
sbag1
(g2
g3
Ntp275
Rp276
(dp277
g7
V129
p278
sg9
VMagikarp
p279
sg11
VOR,AS,
p280
sg13
VFish Old
p281
sg15
V10
p282
sg17
V15
p283
sg19
V65
p284
sbag1
(g2
g3
Ntp285
Rp286
(dp287
g7
V072
p288
sg9
VTentacool
p289
sg11
VOR,AS,
p290
sg13
VFish Good
p291
sg15
V25
p292
sg17
g292
sg19
V35
p293
sbag1
(g2
g3
Ntp294
Rp295
(dp296
g7
V129
p297
sg9
VMagikarp
p298
sg11
VOR,AS,
p299
sg13
VFish Good
p300
sg15
V25
p301
sg17
g301
sg19
V60
p302
sbag1
(g2
g3
Ntp303
Rp304
(dp305
g7
V320
p306
sg9
VWailmer
p307
sg11
VOR,AS,
p308
sg13
VFish Good
p309
sg15
V25
p310
sg17
g310
sg19
V5
p311
sbag1
(g2
g3
Ntp312
Rp313
(dp314
g7
V320
p315
sg9
VWailmer
p316
sg11
VOR,AS,
p317
sg13
VFish Super
p318
sg15
V30
p319
sg17
V40
p320
sg19
V100
p321
sba.