(lp0
ccopy_reg
_reconstructor
p1
(c__main__
WildPokemon
p2
c__builtin__
object
p3
Ntp4
Rp5
(dp6
VpDexNo
p7
V360
p8
sVpSpecies
p9
VWynaut
p10
sVpGames
p11
VRu,S,E,
p12
sVpArea
p13
VGrass
p14
sVpMinLevel
p15
V5
p16
sVpMaxLevel
p17
V50
p18
sVpRate
p19
V100
p20
sbag1
(g2
g3
Ntp21
Rp22
(dp23
g7
V072
p24
sg9
VTentacool
p25
sg11
VRu,S,E,
p26
sg13
VSurf
p27
sg15
g16
sg17
V35
p28
sg19
V60
p29
sbag1
(g2
g3
Ntp30
Rp31
(dp32
g7
V278
p33
sg9
VWingull
p34
sg11
VRu,S,E,
p35
sg13
VSurf
p36
sg15
V10
p37
sg17
V30
p38
sg19
V35
p39
sbag1
(g2
g3
Ntp40
Rp41
(dp42
g7
V279
p43
sg9
VPelipper
p44
sg11
VRu,S,E,
p45
sg13
VSurf
p46
sg15
V25
p47
sg17
V30
p48
sg19
V5
p49
sbag1
(g2
g3
Ntp50
Rp51
(dp52
g7
V072
p53
sg9
VTentacool
p54
sg11
VRu,S,E,
p55
sg13
VFish Old
p56
sg15
g16
sg17
V10
p57
sg19
V30
p58
sbag1
(g2
g3
Ntp59
Rp60
(dp61
g7
V129
p62
sg9
VMagikarp
p63
sg11
VRu,S,E,
p64
sg13
VFish Old
p65
sg15
g16
sg17
V10
p66
sg19
V70
p67
sbag1
(g2
g3
Ntp68
Rp69
(dp70
g7
V072
p71
sg9
VTentacool
p72
sg11
VRu,S,E,
p73
sg13
VFish Good
p74
sg15
V10
p75
sg17
V30
p76
sg19
V20
p77
sbag1
(g2
g3
Ntp78
Rp79
(dp80
g7
V129
p81
sg9
VMagikarp
p82
sg11
VRu,S,E,
p83
sg13
VFish Good
p84
sg15
V10
p85
sg17
V30
p86
sg19
V60
p87
sbag1
(g2
g3
Ntp88
Rp89
(dp90
g7
V320
p91
sg9
VWailmer
p92
sg11
VRu,S,E,
p93
sg13
VFish Good
p94
sg15
V10
p95
sg17
V30
p96
sg19
V20
p97
sbag1
(g2
g3
Ntp98
Rp99
(dp100
g7
V319
p101
sg9
VSharpedo
p102
sg11
VRu,S,E,
p103
sg13
VFish Super
p104
sg15
V30
p105
sg17
V35
p106
sg19
V40
p107
sbag1
(g2
g3
Ntp108
Rp109
(dp110
g7
V320
p111
sg9
VWailmer
p112
sg11
VRu,S,E,
p113
sg13
VFish Super
p114
sg15
V25
p115
sg17
V45
p116
sg19
V60
p117
sbag1
(g2
g3
Ntp118
Rp119
(dp120
g7
V072
p121
sg9
VTentacool
p122
sg11
VOR,AS,
p123
sg13
VSurf
p124
sg15
V25
p125
sg17
g125
sg19
V50
p126
sbag1
(g2
g3
Ntp127
Rp128
(dp129
g7
V073
p130
sg9
VTentacruel
p131
sg11
VOR,AS,
p132
sg13
VSurf
p133
sg15
V30
p134
sg17
g134
sg19
V15
p135
sbag1
(g2
g3
Ntp136
Rp137
(dp138
g7
V279
p139
sg9
VPelipper
p140
sg11
VOR,AS,
p141
sg13
VSurf
p142
sg15
V25
p143
sg17
V35
p144
sg19
V35
p145
sbag1
(g2
g3
Ntp146
Rp147
(dp148
g7
V456
p149
sg9
VFinneon
p150
sg11
VOR,AS,
p151
sg13
VSurf
p152
sg15
V30
p153
sg17
g153
sg19
V0
p154
sbag1
(g2
g3
Ntp155
Rp156
(dp157
g7
V592
p158
sg9
VFrillish
p159
sg11
VOR,AS,
p160
sg13
VSurf
p161
sg15
V30
p162
sg17
g162
sg19
V0
p163
sbag1
(g2
g3
Ntp164
Rp165
(dp166
g7
V594
p167
sg9
VAlomomola
p168
sg11
VOR,AS,
p169
sg13
VSurf
p170
sg15
V30
p171
sg17
g171
sg19
V0
p172
sbag1
(g2
g3
Ntp173
Rp174
(dp175
g7
V072
p176
sg9
VTentacool
p177
sg11
VOR,AS,
p178
sg13
VFish Old
p179
sg15
g16
sg17
g16
sg19
V35
p180
sbag1
(g2
g3
Ntp181
Rp182
(dp183
g7
V129
p184
sg9
VMagikarp
p185
sg11
VOR,AS,
p186
sg13
VFish Old
p187
sg15
V10
p188
sg17
V15
p189
sg19
V65
p190
sbag1
(g2
g3
Ntp191
Rp192
(dp193
g7
V072
p194
sg9
VTentacool
p195
sg11
VOR,AS,
p196
sg13
VFish Good
p197
sg15
V25
p198
sg17
g198
sg19
V35
p199
sbag1
(g2
g3
Ntp200
Rp201
(dp202
g7
V129
p203
sg9
VMagikarp
p204
sg11
VOR,AS,
p205
sg13
VFish Good
p206
sg15
V25
p207
sg17
g207
sg19
V60
p208
sbag1
(g2
g3
Ntp209
Rp210
(dp211
g7
V320
p212
sg9
VWailmer
p213
sg11
VOR,AS,
p214
sg13
VFish Good
p215
sg15
V25
p216
sg17
g216
sg19
V5
p217
sbag1
(g2
g3
Ntp218
Rp219
(dp220
g7
V116
p221
sg9
VHorsea
p222
sg11
VOR,AS,
p223
sg13
VFish Super
p224
sg15
V30
p225
sg17
g225
sg19
V35
p226
sbag1
(g2
g3
Ntp227
Rp228
(dp229
g7
V117
p230
sg9
VSeadra
p231
sg11
VOR,AS,
p232
sg13
VFish Super
p233
sg15
V40
p234
sg17
g234
sg19
V5
p235
sbag1
(g2
g3
Ntp236
Rp237
(dp238
g7
V320
p239
sg9
VWailmer
p240
sg11
VOR,AS,
p241
sg13
VFish Super
p242
sg15
V35
p243
sg17
g243
sg19
V60
p244
sbag1
(g2
g3
Ntp245
Rp246
(dp247
g7
V170
p248
sg9
VChinchou
p249
sg11
VOR,AS,
p250
sg13
VSeaweed
p251
sg15
V25
p252
sg17
g252
sg19
V50
p253
sbag1
(g2
g3
Ntp254
Rp255
(dp256
g7
V171
p257
sg9
VLanturn
p258
sg11
VOR,AS,
p259
sg13
VSeaweed
p260
sg15
V30
p261
sg17
g261
sg19
V15
p262
sbag1
(g2
g3
Ntp263
Rp264
(dp265
g7
V366
p266
sg9
VClamperl
p267
sg11
VOR,AS,
p268
sg13
VSeaweed
p269
sg15
V30
p270
sg17
g270
sg19
V30
p271
sbag1
(g2
g3
Ntp272
Rp273
(dp274
g7
V369
p275
sg9
VRelicanth
p276
sg11
VOR,AS,
p277
sg13
VSeaweed
p278
sg15
V30
p279
sg17
V35
p280
sg19
V5
p281
sba.