(lp0
ccopy_reg
_reconstructor
p1
(c__main__
WildPokemon
p2
c__builtin__
object
p3
Ntp4
Rp5
(dp6
VpDexNo
p7
V043
p8
sVpSpecies
p9
VOddish
p10
sVpGames
p11
VRu,S,E,
p12
sVpArea
p13
VGrass
p14
sVpMinLevel
p15
V13
p16
sVpMaxLevel
p17
g16
sVpRate
p18
V10
p19
sbag1
(g2
g3
Ntp20
Rp21
(dp22
g7
V263
p23
sg9
VZigzagoon
p24
sg11
VRu,S,
p25
sg13
VGrass
p26
sg15
V12
p27
sg17
g27
sg18
V20
p28
sbag1
(g2
g3
Ntp29
Rp30
(dp31
g7
V261
p32
sg9
VPoochyena
p33
sg11
VE,
p34
sg13
VGrass
p35
sg15
V12
p36
sg17
g36
sg18
V20
p37
sbag1
(g2
g3
Ntp38
Rp39
(dp40
g7
V278
p41
sg9
VWingull
p42
sg11
VRu,S,E,
p43
sg13
VGrass
p44
sg15
V12
p45
sg17
g45
sg18
V8
p46
sbag1
(g2
g3
Ntp47
Rp48
(dp49
g7
V309
p50
sg9
VElectrike
p51
sg11
VRu,S,E,
p52
sg13
VGrass
p53
sg15
V12
p54
sg17
V13
p55
sg18
V30
p56
sbag1
(g2
g3
Ntp57
Rp58
(dp59
g7
V311
p60
sg9
VPlusle
p61
sg11
VRu,E,
p62
sg13
VGrass
p63
sg15
V12
p64
sg17
V13
p65
sg18
V2
p66
sbag1
(g2
g3
Ntp67
Rp68
(dp69
g7
V311
p70
sg9
VPlusle
p71
sg11
VS,
p72
sg13
VGrass
p73
sg15
V13
p74
sg17
g74
sg18
V15
p75
sbag1
(g2
g3
Ntp76
Rp77
(dp78
g7
V312
p79
sg9
VMinun
p80
sg11
VRu,E,
p81
sg13
VGrass
p82
sg15
V13
p83
sg17
g83
sg18
V15
p84
sbag1
(g2
g3
Ntp85
Rp86
(dp87
g7
V312
p88
sg9
VMinun
p89
sg11
g72
sg13
VGrass
p90
sg15
V12
p91
sg17
V13
p92
sg18
V2
p93
sbag1
(g2
g3
Ntp94
Rp95
(dp96
g7
V316
p97
sg9
VGulpin
p98
sg11
VRu,S,E,
p99
sg13
VGrass
p100
sg15
V12
p101
sg17
V13
p102
sg18
V15
p103
sbag1
(g2
g3
Ntp104
Rp105
(dp106
g7
V072
p107
sg9
VTentacool
p108
sg11
VRu,S,E,
p109
sg13
VSurf
p110
sg15
V5
p111
sg17
V35
p112
sg18
V60
p113
sbag1
(g2
g3
Ntp114
Rp115
(dp116
g7
V278
p117
sg9
VWingull
p118
sg11
VRu,S,E,
p119
sg13
VSurf
p120
sg15
V10
p121
sg17
V30
p122
sg18
V35
p123
sbag1
(g2
g3
Ntp124
Rp125
(dp126
g7
V279
p127
sg9
VPelipper
p128
sg11
VRu,S,E,
p129
sg13
VSurf
p130
sg15
V25
p131
sg17
V30
p132
sg18
V5
p133
sbag1
(g2
g3
Ntp134
Rp135
(dp136
g7
V072
p137
sg9
VTentacool
p138
sg11
VRu,S,E,
p139
sg13
VFish Old
p140
sg15
g111
sg17
V10
p141
sg18
V30
p142
sbag1
(g2
g3
Ntp143
Rp144
(dp145
g7
V129
p146
sg9
VMagikarp
p147
sg11
VRu,S,E,
p148
sg13
VFish Old
p149
sg15
g111
sg17
V10
p150
sg18
V70
p151
sbag1
(g2
g3
Ntp152
Rp153
(dp154
g7
V072
p155
sg9
VTentacool
p156
sg11
VRu,S,E,
p157
sg13
VFish Good
p158
sg15
V10
p159
sg17
V30
p160
sg18
V20
p161
sbag1
(g2
g3
Ntp162
Rp163
(dp164
g7
V129
p165
sg9
VMagikarp
p166
sg11
VRu,S,E,
p167
sg13
VFish Good
p168
sg15
V10
p169
sg17
V30
p170
sg18
V60
p171
sbag1
(g2
g3
Ntp172
Rp173
(dp174
g7
V320
p175
sg9
VWailmer
p176
sg11
VRu,S,E,
p177
sg13
VFish Good
p178
sg15
V10
p179
sg17
V30
p180
sg18
V20
p181
sbag1
(g2
g3
Ntp182
Rp183
(dp184
g7
V320
p185
sg9
VWailmer
p186
sg11
VRu,S,E,
p187
sg13
VFish Super
p188
sg15
V20
p189
sg17
V45
p190
sg18
V100
p191
sbag1
(g2
g3
Ntp192
Rp193
(dp194
g7
V309
p195
sg9
VElectrike
p196
sg11
VOR,AS,
p197
sg13
VGrass
p198
sg15
V10
p199
sg17
V13
p200
sg18
V40
p201
sbag1
(g2
g3
Ntp202
Rp203
(dp204
g7
V263
p205
sg9
VZigzagoon
p206
sg11
VOR,AS,
p207
sg13
VGrass
p208
sg15
V13
p209
sg17
g209
sg18
V10
p210
sbag1
(g2
g3
Ntp211
Rp212
(dp213
g7
V316
p214
sg9
VGulpin
p215
sg11
VOR,AS,
p216
sg13
VGrass
p217
sg15
V13
p218
sg17
g218
sg18
V10
p219
sbag1
(g2
g3
Ntp220
Rp221
(dp222
g7
V043
p223
sg9
VOddish
p224
sg11
VOR,AS,
p225
sg13
VGrass
p226
sg15
V13
p227
sg17
g227
sg18
V10
p228
sbag1
(g2
g3
Ntp229
Rp230
(dp231
g7
V278
p232
sg9
VWingull
p233
sg11
VOR,AS,
p234
sg13
VGrass
p235
sg15
V13
p236
sg17
g236
sg18
V10
p237
sbag1
(g2
g3
Ntp238
Rp239
(dp240
g7
V312
p241
sg9
VMinun
p242
sg11
VOR,
p243
sg13
VGrass
p244
sg15
V11
p245
sg17
V13
p246
sg18
V16
p247
sbag1
(g2
g3
Ntp248
Rp249
(dp250
g7
V311
p251
sg9
VPlusle
p252
sg11
VAS,
p253
sg13
VGrass
p254
sg15
V11
p255
sg17
V13
p256
sg18
V16
p257
sbag1
(g2
g3
Ntp258
Rp259
(dp260
g7
V100
p261
sg9
VVoltorb
p262
sg11
VOR,AS,
p263
sg13
VGrass
p264
sg15
V13
p265
sg17
g265
sg18
V4
p266
sbag1
(g2
g3
Ntp267
Rp268
(dp269
g7
V081
p270
sg9
VMagnemite
p271
sg11
VOR,AS,
p272
sg13
VHorde Encounter
p273
sg15
V6
p274
sg17
g274
sg18
V60
p275
sbag1
(g2
g3
Ntp276
Rp277
(dp278
g7
V311
p279
sg9
VPlusle
p280
sg11
g253
sg13
VHorde Encounter
p281
sg15
g274
sg17
g274
sg18
V35
p282
sbag1
(g2
g3
Ntp283
Rp284
(dp285
g7
V311
p286
sg9
VPlusle
p287
sg11
VOR,AS,
p288
sg13
VHorde Encounter
p289
sg15
g274
sg17
g274
sg18
V0
p290
sbag1
(g2
g3
Ntp291
Rp292
(dp293
g7
V312
p294
sg9
VMinun
p295
sg11
g243
sg13
VHorde Encounter
p296
sg15
g274
sg17
g274
sg18
V35
p297
sbag1
(g2
g3
Ntp298
Rp299
(dp300
g7
V312
p301
sg9
VMinun
p302
sg11
VOR,AS,
p303
sg13
VHorde Encounter
p304
sg15
g274
sg17
g274
sg18
V0
p305
sbag1
(g2
g3
Ntp306
Rp307
(dp308
g7
V422
p309
sg9
VShellos
p310
sg11
g243
sg13
VGrass
p311
sg15
V13
p312
sg17
g312
sg18
V0
p313
sbag1
(g2
g3
Ntp314
Rp315
(dp316
g7
V422
p317
sg9
VShellos
p318
sg11
g253
sg13
VGrass
p319
sg15
V13
p320
sg17
g320
sg18
V0
p321
sbag1
(g2
g3
Ntp322
Rp323
(dp324
g7
V568
p325
sg9
VTrubbish
p326
sg11
VOR,AS,
p327
sg13
VGrass
p328
sg15
V13
p329
sg17
g329
sg18
V0
p330
sbag1
(g2
g3
Ntp331
Rp332
(dp333
g7
V441
p334
sg9
VChatot
p335
sg11
VOR,AS,
p336
sg13
VGrass
p337
sg15
V13
p338
sg17
g338
sg18
V0
p339
sbag1
(g2
g3
Ntp340
Rp341
(dp342
g7
V072
p343
sg9
VTentacool
p344
sg11
VOR,AS,
p345
sg13
VSurf
p346
sg15
V20
p347
sg17
V25
p348
sg18
V60
p349
sbag1
(g2
g3
Ntp350
Rp351
(dp352
g7
V278
p353
sg9
VWingull
p354
sg11
VOR,AS,
p355
sg13
VSurf
p356
sg15
V20
p357
sg17
g357
sg18
V35
p358
sbag1
(g2
g3
Ntp359
Rp360
(dp361
g7
V279
p362
sg9
VPelipper
p363
sg11
VOR,AS,
p364
sg13
VSurf
p365
sg15
V25
p366
sg17
V30
p367
sg18
V5
p368
sbag1
(g2
g3
Ntp369
Rp370
(dp371
g7
V072
p372
sg9
VTentacool
p373
sg11
VOR,AS,
p374
sg13
VFish Old
p375
sg15
g111
sg17
g111
sg18
V35
p376
sbag1
(g2
g3
Ntp377
Rp378
(dp379
g7
V129
p380
sg9
VMagikarp
p381
sg11
VOR,AS,
p382
sg13
VFish Old
p383
sg15
V10
p384
sg17
V15
p385
sg18
V65
p386
sbag1
(g2
g3
Ntp387
Rp388
(dp389
g7
V072
p390
sg9
VTentacool
p391
sg11
VOR,AS,
p392
sg13
VFish Good
p393
sg15
V25
p394
sg17
g394
sg18
V35
p395
sbag1
(g2
g3
Ntp396
Rp397
(dp398
g7
V129
p399
sg9
VMagikarp
p400
sg11
VOR,AS,
p401
sg13
VFish Good
p402
sg15
V25
p403
sg17
g403
sg18
V60
p404
sbag1
(g2
g3
Ntp405
Rp406
(dp407
g7
V320
p408
sg9
VWailmer
p409
sg11
VOR,AS,
p410
sg13
VFish Good
p411
sg15
V25
p412
sg17
g412
sg18
V5
p413
sbag1
(g2
g3
Ntp414
Rp415
(dp416
g7
V320
p417
sg9
VWailmer
p418
sg11
VOR,AS,
p419
sg13
VFish Super
p420
sg15
V30
p421
sg17
V40
p422
sg18
V100
p423
sba.