(lp0
ccopy_reg
_reconstructor
p1
(c__main__
WildPokemon
p2
c__builtin__
object
p3
Ntp4
Rp5
(dp6
VpDexNo
p7
V063
p8
sVpSpecies
p9
VAbra
p10
sVpGames
p11
VE,
p12
sVpArea
p13
VGrass
p14
sVpMinLevel
p15
V7
p16
sVpMaxLevel
p17
g16
sVpRate
p18
V10
p19
sbag1
(g2
g3
Ntp20
Rp21
(dp22
g7
V261
p23
sg9
VPoochyena
p24
sg11
g12
sg13
VGrass
p25
sg15
V6
p26
sg17
V8
p27
sg18
V28
p28
sbag1
(g2
g3
Ntp29
Rp30
(dp31
g7
V263
p32
sg9
VZigzagoon
p33
sg11
VRu,S,
p34
sg13
VGrass
p35
sg15
g26
sg17
g27
sg18
V28
p36
sbag1
(g2
g3
Ntp37
Rp38
(dp39
g7
V276
p40
sg9
VTaillow
p41
sg11
VRu,S,E,
p42
sg13
VGrass
p43
sg15
g26
sg17
g27
sg18
V20
p44
sbag1
(g2
g3
Ntp45
Rp46
(dp47
g7
V290
p48
sg9
VNincada
p49
sg11
VRu,S,E,
p50
sg13
VGrass
p51
sg15
g26
sg17
g16
sg18
V20
p52
sbag1
(g2
g3
Ntp53
Rp54
(dp55
g7
V293
p56
sg9
VWhismur
p57
sg11
VRu,S,
p58
sg13
VGrass
p59
sg15
g26
sg17
g16
sg18
V30
p60
sbag1
(g2
g3
Ntp61
Rp62
(dp63
g7
V293
p64
sg9
VWhismur
p65
sg11
g12
sg13
VGrass
p66
sg15
g26
sg17
g26
sg18
V20
p67
sbag1
(g2
g3
Ntp68
Rp69
(dp70
g7
V300
p71
sg9
VSkitty
p72
sg11
VRu,S,E,
p73
sg13
VGrass
p74
sg15
g16
sg17
g27
sg18
V2
p75
sbag1
(g2
g3
Ntp76
Rp77
(dp78
g7
V300
p79
sg9
VSkitty
p80
sg11
VRu,S,
p81
sg13
VSwarm
p82
sg15
V15
p83
sg17
g83
sg18
V50
p84
sbag1
(g2
g3
Ntp85
Rp86
(dp87
g7
V300
p88
sg9
VSkitty
p89
sg11
g12
sg13
VSwarm
p90
sg15
g27
sg17
g27
sg18
V50
p91
sbag1
(g2
g3
Ntp92
Rp93
(dp94
g7
V263
p95
sg9
VZigzagoon
p96
sg11
VOR,AS,
p97
sg13
VGrass
p98
sg15
g26
sg17
g27
sg18
V30
p99
sbag1
(g2
g3
Ntp100
Rp101
(dp102
g7
V276
p103
sg9
VTaillow
p104
sg11
VOR,AS,
p105
sg13
VGrass
p106
sg15
g26
sg17
g27
sg18
V15
p107
sbag1
(g2
g3
Ntp108
Rp109
(dp110
g7
V290
p111
sg9
VNincada
p112
sg11
VOR,AS,
p113
sg13
VGrass
p114
sg15
g26
sg17
g27
sg18
V20
p115
sbag1
(g2
g3
Ntp116
Rp117
(dp118
g7
V293
p119
sg9
VWhismur
p120
sg11
VOR,AS,
p121
sg13
VGrass
p122
sg15
V5
p123
sg17
g16
sg18
V30
p124
sbag1
(g2
g3
Ntp125
Rp126
(dp127
g7
V300
p128
sg9
VSkitty
p129
sg11
VOR,AS,
p130
sg13
VGrass
p131
sg15
g27
sg17
g27
sg18
V5
p132
sbag1
(g2
g3
Ntp133
Rp134
(dp135
g7
V263
p136
sg9
VZigzagoon
p137
sg11
VOR,AS,
p138
sg13
VHorde Encounter
p139
sg15
V4
p140
sg17
g140
sg18
V60
p141
sbag1
(g2
g3
Ntp142
Rp143
(dp144
g7
V290
p145
sg9
VNincada
p146
sg11
VOR,AS,
p147
sg13
VHorde Encounter
p148
sg15
g140
sg17
g140
sg18
V35
p149
sbag1
(g2
g3
Ntp150
Rp151
(dp152
g7
V300
p153
sg9
VSkitty
p154
sg11
VOR,AS,
p155
sg13
VHorde Encounter
p156
sg15
g140
sg17
g140
sg18
V5
p157
sbag1
(g2
g3
Ntp158
Rp159
(dp160
g7
V133
p161
sg9
VEevee
p162
sg11
VOR,AS,
p163
sg13
VGrass
p164
sg15
g27
sg17
g27
sg18
V0
p165
sbag1
(g2
g3
Ntp166
Rp167
(dp168
g7
V519
p169
sg9
VPidove
p170
sg11
VOR,AS,
p171
sg13
VGrass
p172
sg15
g27
sg17
g27
sg18
V0
p173
sbag1
(g2
g3
Ntp174
Rp175
(dp176
g7
V595
p177
sg9
VJoltik
p178
sg11
VOR,AS,
p179
sg13
VGrass
p180
sg15
g27
sg17
g27
sg18
V0
p181
sba.