(lp0
ccopy_reg
_reconstructor
p1
(c__main__
WildPokemon
p2
c__builtin__
object
p3
Ntp4
Rp5
(dp6
VpDexNo
p7
V027
p8
sVpSpecies
p9
VSandshrew
p10
sVpGames
p11
VRu,S,
p12
sVpArea
p13
VGrass
p14
sVpMinLevel
p15
V14
p16
sVpMaxLevel
p17
V16
p18
sVpRate
p19
V25
p20
sbag1
(g2
g3
Ntp21
Rp22
(dp23
g7
V218
p24
sg9
VSlugma
p25
sg11
VE,
p26
sg13
VGrass
p27
sg15
V14
p28
sg17
V16
p29
sg19
V25
p30
sbag1
(g2
g3
Ntp31
Rp32
(dp33
g7
V227
p34
sg9
VSkarmory
p35
sg11
VRu,S,E,
p36
sg13
VGrass
p37
sg15
V16
p38
sg17
g38
sg19
V5
p39
sbag1
(g2
g3
Ntp40
Rp41
(dp42
g7
V327
p43
sg9
VSpinda
p44
sg11
VRu,S,E,
p45
sg13
VGrass
p46
sg15
V14
p47
sg17
V16
p48
sg19
V70
p49
sbag1
(g2
g3
Ntp50
Rp51
(dp52
g7
V327
p53
sg9
VSpinda
p54
sg11
VOR,AS,
p55
sg13
VGrass
p56
sg15
V15
p57
sg17
V18
p58
sg19
V60
p59
sbag1
(g2
g3
Ntp60
Rp61
(dp62
g7
V027
p63
sg9
VSandshrew
p64
sg11
VOR,AS,
p65
sg13
VGrass
p66
sg15
V15
p67
sg17
V18
p68
sg19
V35
p69
sbag1
(g2
g3
Ntp70
Rp71
(dp72
g7
V227
p73
sg9
VSkarmory
p74
sg11
VOR,AS,
p75
sg13
VGrass
p76
sg15
V16
p77
sg17
V18
p78
sg19
V5
p79
sbag1
(g2
g3
Ntp80
Rp81
(dp82
g7
V227
p83
sg9
VSkarmory
p84
sg11
VOR,AS,
p85
sg13
VHorde Encounter
p86
sg15
V9
p87
sg17
g87
sg19
V5
p88
sbag1
(g2
g3
Ntp89
Rp90
(dp91
g7
V327
p92
sg9
VSpinda
p93
sg11
VOR,AS,
p94
sg13
VHorde Encounter
p95
sg15
g87
sg17
g87
sg19
V95
p96
sbag1
(g2
g3
Ntp97
Rp98
(dp99
g7
V559
p100
sg9
VScraggy
p101
sg11
VOR,AS,
p102
sg13
VGrass
p103
sg15
V18
p104
sg17
g104
sg19
V0
p105
sbag1
(g2
g3
Ntp106
Rp107
(dp108
g7
V626
p109
sg9
VBouffalant
p110
sg11
VOR,AS,
p111
sg13
VGrass
p112
sg15
V18
p113
sg17
g113
sg19
V0
p114
sbag1
(g2
g3
Ntp115
Rp116
(dp117
g7
V707
p118
sg9
VKlefki
p119
sg11
VOR,AS,
p120
sg13
VGrass
p121
sg15
V18
p122
sg17
g122
sg19
V0
p123
sba.