(lp0
ccopy_reg
_reconstructor
p1
(c__main__
WildPokemon
p2
c__builtin__
object
p3
Ntp4
Rp5
(dp6
VpDexNo
p7
V066
p8
sVpSpecies
p9
VMachop
p10
sVpGames
p11
VRu,S,
p12
sVpArea
p13
VGrass
p14
sVpMinLevel
p15
V14
p16
sVpMaxLevel
p17
V16
p18
sVpRate
p19
V25
p20
sbag1
(g2
g3
Ntp21
Rp22
(dp23
g7
V183
p24
sg9
VMarill
p25
sg11
VE,
p26
sg13
VGrass
p27
sg15
V14
p28
sg17
V16
p29
sg19
V25
p30
sbag1
(g2
g3
Ntp31
Rp32
(dp33
g7
V322
p34
sg9
VNumel
p35
sg11
VRu,S,E,
p36
sg13
VGrass
p37
sg15
V14
p38
sg17
V16
p39
sg19
V75
p40
sbag1
(g2
g3
Ntp41
Rp42
(dp43
g7
V066
p44
sg9
VMachop
p45
sg11
VOR,AS,
p46
sg13
VGrass
p47
sg15
V13
p48
sg17
V16
p49
sg19
V40
p50
sbag1
(g2
g3
Ntp51
Rp52
(dp53
g7
V322
p54
sg9
VNumel
p55
sg11
VOR,AS,
p56
sg13
VGrass
p57
sg15
V13
p58
sg17
V16
p59
sg19
V60
p60
sbag1
(g2
g3
Ntp61
Rp62
(dp63
g7
V066
p64
sg9
VMachop
p65
sg11
VOR,AS,
p66
sg13
VHorde Encounter
p67
sg15
V8
p68
sg17
g68
sg19
V35
p69
sbag1
(g2
g3
Ntp70
Rp71
(dp72
g7
V322
p73
sg9
VNumel
p74
sg11
VOR,AS,
p75
sg13
VHorde Encounter
p76
sg15
g68
sg17
g68
sg19
V65
p77
sbag1
(g2
g3
Ntp78
Rp79
(dp80
g7
V077
p81
sg9
VPonyta
p82
sg11
VOR,AS,
p83
sg13
VGrass
p84
sg15
V16
p85
sg17
g85
sg19
V0
p86
sbag1
(g2
g3
Ntp87
Rp88
(dp89
g7
V236
p90
sg9
VTyrogue
p91
sg11
VOR,AS,
p92
sg13
VGrass
p93
sg15
V16
p94
sg17
g94
sg19
V0
p95
sbag1
(g2
g3
Ntp96
Rp97
(dp98
g7
V539
p99
sg9
VSawk
p100
sg11
VAS,
p101
sg13
VGrass
p102
sg15
V16
p103
sg17
g103
sg19
V0
p104
sbag1
(g2
g3
Ntp105
Rp106
(dp107
g7
V538
p108
sg9
VThroh
p109
sg11
VOR,
p110
sg13
VGrass
p111
sg15
V16
p112
sg17
g112
sg19
V0
p113
sbag1
(g2
g3
Ntp114
Rp115
(dp116
g7
V066
p117
sg9
VMachop
p118
sg11
VOR,AS,
p119
sg13
VGrass
p120
sg15
V14
p121
sg17
V17
p122
sg19
V35
p123
sbag1
(g2
g3
Ntp124
Rp125
(dp126
g7
V322
p127
sg9
VNumel
p128
sg11
VOR,AS,
p129
sg13
VGrass
p130
sg15
V14
p131
sg17
V17
p132
sg19
V65
p133
sbag1
(g2
g3
Ntp134
Rp135
(dp136
g7
V066
p137
sg9
VMachop
p138
sg11
VOR,AS,
p139
sg13
VHorde Encounter
p140
sg15
g68
sg17
g68
sg19
V35
p141
sbag1
(g2
g3
Ntp142
Rp143
(dp144
g7
V322
p145
sg9
VNumel
p146
sg11
VOR,AS,
p147
sg13
VHorde Encounter
p148
sg15
g68
sg17
g68
sg19
V65
p149
sbag1
(g2
g3
Ntp150
Rp151
(dp152
g7
V077
p153
sg9
VPonyta
p154
sg11
VOR,AS,
p155
sg13
VGrass
p156
sg15
V17
p157
sg17
g157
sg19
V0
p158
sbag1
(g2
g3
Ntp159
Rp160
(dp161
g7
V236
p162
sg9
VTyrogue
p163
sg11
VOR,AS,
p164
sg13
VGrass
p165
sg15
V17
p166
sg17
g166
sg19
V0
p167
sbag1
(g2
g3
Ntp168
Rp169
(dp170
g7
V539
p171
sg9
VSawk
p172
sg11
g101
sg13
VGrass
p173
sg15
V17
p174
sg17
g174
sg19
V0
p175
sbag1
(g2
g3
Ntp176
Rp177
(dp178
g7
V538
p179
sg9
VThroh
p180
sg11
g110
sg13
VGrass
p181
sg15
V17
p182
sg17
g182
sg19
V0
p183
sba.