(lp0
ccopy_reg
_reconstructor
p1
(c__main__
WildPokemon
p2
c__builtin__
object
p3
Ntp4
Rp5
(dp6
VpDexNo
p7
V043
p8
sVpSpecies
p9
VOddish
p10
sVpGames
p11
VRu,S,E,
p12
sVpArea
p13
VLong grass
p14
sVpMinLevel
p15
V24
p16
sVpMaxLevel
p17
V27
p18
sVpRate
p19
V30
p20
sbag1
(g2
g3
Ntp21
Rp22
(dp23
g7
V263
p24
sg9
VZigzagoon
p25
sg11
VRu,S,E,
p26
sg13
VLong grass
p27
sg15
V25
p28
sg17
V27
p29
sg19
V30
p30
sbag1
(g2
g3
Ntp31
Rp32
(dp33
g7
V264
p34
sg9
VLinoone
p35
sg11
VRu,S,E,
p36
sg13
VLong grass
p37
sg15
V25
p38
sg17
V27
p39
sg19
V30
p40
sbag1
(g2
g3
Ntp41
Rp42
(dp43
g7
V352
p44
sg9
VKecleon
p45
sg11
VRu,S,E,
p46
sg13
VLong grass
p47
sg15
V25
p48
sg17
g48
sg19
V1
p49
sbag1
(g2
g3
Ntp50
Rp51
(dp52
g7
V357
p53
sg9
VTropius
p54
sg11
VRu,S,E,
p55
sg13
VLong grass
p56
sg15
V25
p57
sg17
V27
p58
sg19
V9
p59
sbag1
(g2
g3
Ntp60
Rp61
(dp62
g7
V072
p63
sg9
VTentacool
p64
sg11
VRu,S,E,
p65
sg13
VSurf
p66
sg15
V5
p67
sg17
V35
p68
sg19
V60
p69
sbag1
(g2
g3
Ntp70
Rp71
(dp72
g7
V278
p73
sg9
VWingull
p74
sg11
VRu,S,E,
p75
sg13
VSurf
p76
sg15
V10
p77
sg17
V30
p78
sg19
V35
p79
sbag1
(g2
g3
Ntp80
Rp81
(dp82
g7
V279
p83
sg9
VPelipper
p84
sg11
VRu,S,E,
p85
sg13
VSurf
p86
sg15
V25
p87
sg17
V30
p88
sg19
V5
p89
sbag1
(g2
g3
Ntp90
Rp91
(dp92
g7
V072
p93
sg9
VTentacool
p94
sg11
VRu,S,E,
p95
sg13
VFish Old
p96
sg15
g67
sg17
V10
p97
sg19
V30
p98
sbag1
(g2
g3
Ntp99
Rp100
(dp101
g7
V129
p102
sg9
VMagikarp
p103
sg11
VRu,S,E,
p104
sg13
VFish Old
p105
sg15
g67
sg17
V10
p106
sg19
V70
p107
sbag1
(g2
g3
Ntp108
Rp109
(dp110
g7
V072
p111
sg9
VTentacool
p112
sg11
VRu,S,E,
p113
sg13
VFish Good
p114
sg15
V10
p115
sg17
V30
p116
sg19
V20
p117
sbag1
(g2
g3
Ntp118
Rp119
(dp120
g7
V129
p121
sg9
VMagikarp
p122
sg11
VRu,S,E,
p123
sg13
VFish Good
p124
sg15
V10
p125
sg17
V30
p126
sg19
V60
p127
sbag1
(g2
g3
Ntp128
Rp129
(dp130
g7
V318
p131
sg9
VCarvanha
p132
sg11
VRu,S,E,
p133
sg13
VFish Good
p134
sg15
V10
p135
sg17
V30
p136
sg19
V20
p137
sbag1
(g2
g3
Ntp138
Rp139
(dp140
g7
V318
p141
sg9
VCarvanha
p142
sg11
VRu,S,E,
p143
sg13
VFish Super
p144
sg15
V20
p145
sg17
V45
p146
sg19
V100
p147
sbag1
(g2
g3
Ntp148
Rp149
(dp150
g7
V349
p151
sg9
VFeebas
p152
sg11
VRu,S,E,
p153
sg13
VFish Old
p154
sg15
V20
p155
sg17
V25
p156
sg19
V0
p157
sbag1
(g2
g3
Ntp158
Rp159
(dp160
g7
V349
p161
sg9
VFeebas
p162
sg11
VRu,S,E,
p163
sg13
VFish Good
p164
sg15
V20
p165
sg17
V25
p166
sg19
V0
p167
sbag1
(g2
g3
Ntp168
Rp169
(dp170
g7
V349
p171
sg9
VFeebas
p172
sg11
VRu,S,E,
p173
sg13
VFish Super
p174
sg15
V20
p175
sg17
V25
p176
sg19
V0
p177
sbag1
(g2
g3
Ntp178
Rp179
(dp180
g7
V352
p181
sg9
VKecleon
p182
sg11
VRu,S,E,
p183
sg13
VSpecial
p184
sg15
V30
p185
sg17
g185
sg19
V0
p186
sbag1
(g2
g3
Ntp187
Rp188
(dp189
g7
V044
p190
sg9
VGloom
p191
sg11
VOR,AS,
p192
sg13
VTall grass
p193
sg15
V22
p194
sg17
V25
p195
sg19
V40
p196
sbag1
(g2
g3
Ntp197
Rp198
(dp199
g7
V264
p200
sg9
VLinoone
p201
sg11
VOR,AS,
p202
sg13
VTall grass
p203
sg15
V22
p204
sg17
V25
p205
sg19
V40
p206
sbag1
(g2
g3
Ntp207
Rp208
(dp209
g7
V352
p210
sg9
VKecleon
p211
sg11
VOR,AS,
p212
sg13
VTall grass
p213
sg15
V25
p214
sg17
g214
sg19
V5
p215
sbag1
(g2
g3
Ntp216
Rp217
(dp218
g7
V357
p219
sg9
VTropius
p220
sg11
VOR,AS,
p221
sg13
VTall grass
p222
sg15
V23
p223
sg17
V25
p224
sg19
V15
p225
sbag1
(g2
g3
Ntp226
Rp227
(dp228
g7
V043
p229
sg9
VOddish
p230
sg11
VOR,AS,
p231
sg13
VHorde Encounter
p232
sg15
V12
p233
sg17
g233
sg19
V100
p234
sbag1
(g2
g3
Ntp235
Rp236
(dp237
g7
V072
p238
sg9
VTentacool
p239
sg11
VOR,AS,
p240
sg13
VSurf
p241
sg15
V20
p242
sg17
V25
p243
sg19
V65
p244
sbag1
(g2
g3
Ntp245
Rp246
(dp247
g7
V278
p248
sg9
VWingull
p249
sg11
VOR,AS,
p250
sg13
VSurf
p251
sg15
V20
p252
sg17
g252
sg19
V30
p253
sbag1
(g2
g3
Ntp254
Rp255
(dp256
g7
V279
p257
sg9
VPelipper
p258
sg11
VOR,AS,
p259
sg13
VSurf
p260
sg15
V25
p261
sg17
V30
p262
sg19
V5
p263
sbag1
(g2
g3
Ntp264
Rp265
(dp266
g7
V072
p267
sg9
VTentacool
p268
sg11
VOR,AS,
p269
sg13
VFish Old
p270
sg15
g67
sg17
g67
sg19
V35
p271
sbag1
(g2
g3
Ntp272
Rp273
(dp274
g7
V129
p275
sg9
VMagikarp
p276
sg11
VOR,AS,
p277
sg13
VFish Old
p278
sg15
V10
p279
sg17
g279
sg19
V60
p280
sbag1
(g2
g3
Ntp281
Rp282
(dp283
g7
V349
p284
sg9
VFeebas
p285
sg11
VOR,AS,
p286
sg13
VFish Old
p287
sg15
V15
p288
sg17
g288
sg19
V5
p289
sbag1
(g2
g3
Ntp290
Rp291
(dp292
g7
V129
p293
sg9
VMagikarp
p294
sg11
VOR,AS,
p295
sg13
VFish Good
p296
sg15
V25
p297
sg17
g297
sg19
V60
p298
sbag1
(g2
g3
Ntp299
Rp300
(dp301
g7
V318
p302
sg9
VCarvanha
p303
sg11
VOR,AS,
p304
sg13
VFish Good
p305
sg15
V25
p306
sg17
g306
sg19
V35
p307
sbag1
(g2
g3
Ntp308
Rp309
(dp310
g7
V349
p311
sg9
VFeebas
p312
sg11
VOR,AS,
p313
sg13
VFish Good
p314
sg15
V25
p315
sg17
g315
sg19
V5
p316
sbag1
(g2
g3
Ntp317
Rp318
(dp319
g7
V318
p320
sg9
VCarvanha
p321
sg11
VOR,AS,
p322
sg13
VFish Super
p323
sg15
V35
p324
sg17
g324
sg19
V60
p325
sbag1
(g2
g3
Ntp326
Rp327
(dp328
g7
V319
p329
sg9
VSharpedo
p330
sg11
VOR,AS,
p331
sg13
VFish Super
p332
sg15
V40
p333
sg17
g333
sg19
V35
p334
sbag1
(g2
g3
Ntp335
Rp336
(dp337
g7
V349
p338
sg9
VFeebas
p339
sg11
VOR,AS,
p340
sg13
VFish Super
p341
sg15
V35
p342
sg17
g342
sg19
V5
p343
sbag1
(g2
g3
Ntp344
Rp345
(dp346
g7
V349
p347
sg9
VFeebas
p348
sg11
VOR,AS,
p349
sg13
VFish Old
p350
sg15
V15
p351
sg17
g351
sg19
V0
p352
sbag1
(g2
g3
Ntp353
Rp354
(dp355
g7
V349
p356
sg9
VFeebas
p357
sg11
VOR,AS,
p358
sg13
VFish Good
p359
sg15
V25
p360
sg17
g360
sg19
V0
p361
sbag1
(g2
g3
Ntp362
Rp363
(dp364
g7
V349
p365
sg9
VFeebas
p366
sg11
VOR,AS,
p367
sg13
VFish Super
p368
sg15
V35
p369
sg17
g369
sg19
V0
p370
sbag1
(g2
g3
Ntp371
Rp372
(dp373
g7
V352
p374
sg9
VKecleon
p375
sg11
VOR,AS,
p376
sg13
VSpecial
p377
sg15
V30
p378
sg17
g378
sg19
V0
p379
sba.