(lp0
ccopy_reg
_reconstructor
p1
(c__main__
WildPokemon
p2
c__builtin__
object
p3
Ntp4
Rp5
(dp6
VpDexNo
p7
V072
p8
sVpSpecies
p9
VTentacool
p10
sVpGames
p11
VRu,S,E,
p12
sVpArea
p13
VSurf
p14
sVpMinLevel
p15
V5
p16
sVpMaxLevel
p17
V35
p18
sVpRate
p19
V60
p20
sbag1
(g2
g3
Ntp21
Rp22
(dp23
g7
V278
p24
sg9
VWingull
p25
sg11
VRu,S,E,
p26
sg13
VSurf
p27
sg15
V10
p28
sg17
V30
p29
sg19
V35
p30
sbag1
(g2
g3
Ntp31
Rp32
(dp33
g7
V279
p34
sg9
VPelipper
p35
sg11
VRu,S,E,
p36
sg13
VSurf
p37
sg15
V25
p38
sg17
V30
p39
sg19
V4
p40
sbag1
(g2
g3
Ntp41
Rp42
(dp43
g7
V321
p44
sg9
VWailord
p45
sg11
VRu,
p46
sg13
VSurf
p47
sg15
V35
p48
sg17
V40
p49
sg19
V1
p50
sbag1
(g2
g3
Ntp51
Rp52
(dp53
g7
V321
p54
sg9
VWailord
p55
sg11
VS,E,
p56
sg13
VSurf
p57
sg15
V25
p58
sg17
V30
p59
sg19
V1
p60
sbag1
(g2
g3
Ntp61
Rp62
(dp63
g7
V072
p64
sg9
VTentacool
p65
sg11
VRu,S,E,
p66
sg13
VFish Old
p67
sg15
g16
sg17
V10
p68
sg19
V30
p69
sbag1
(g2
g3
Ntp70
Rp71
(dp72
g7
V129
p73
sg9
VMagikarp
p74
sg11
VRu,S,E,
p75
sg13
VFish Old
p76
sg15
g16
sg17
V10
p77
sg19
V70
p78
sbag1
(g2
g3
Ntp79
Rp80
(dp81
g7
V072
p82
sg9
VTentacool
p83
sg11
VRu,S,E,
p84
sg13
VFish Good
p85
sg15
V10
p86
sg17
V30
p87
sg19
V20
p88
sbag1
(g2
g3
Ntp89
Rp90
(dp91
g7
V129
p92
sg9
VMagikarp
p93
sg11
VRu,S,E,
p94
sg13
VFish Good
p95
sg15
V10
p96
sg17
V30
p97
sg19
V60
p98
sbag1
(g2
g3
Ntp99
Rp100
(dp101
g7
V320
p102
sg9
VWailmer
p103
sg11
VRu,S,E,
p104
sg13
VFish Good
p105
sg15
V10
p106
sg17
V30
p107
sg19
V20
p108
sbag1
(g2
g3
Ntp109
Rp110
(dp111
g7
V319
p112
sg9
VSharpedo
p113
sg11
VRu,S,E,
p114
sg13
VFish Super
p115
sg15
V30
p116
sg17
V35
p117
sg19
V40
p118
sbag1
(g2
g3
Ntp119
Rp120
(dp121
g7
V320
p122
sg9
VWailmer
p123
sg11
VRu,S,E,
p124
sg13
VFish Super
p125
sg15
V25
p126
sg17
V45
p127
sg19
V60
p128
sbag1
(g2
g3
Ntp129
Rp130
(dp131
g7
V072
p132
sg9
VTentacool
p133
sg11
VOR,AS,
p134
sg13
VSurf
p135
sg15
V25
p136
sg17
g136
sg19
V50
p137
sbag1
(g2
g3
Ntp138
Rp139
(dp140
g7
V073
p141
sg9
VTentacruel
p142
sg11
VOR,AS,
p143
sg13
VSurf
p144
sg15
V30
p145
sg17
g145
sg19
V15
p146
sbag1
(g2
g3
Ntp147
Rp148
(dp149
g7
V279
p150
sg9
VPelipper
p151
sg11
VOR,AS,
p152
sg13
VSurf
p153
sg15
V25
p154
sg17
V35
p155
sg19
V35
p156
sbag1
(g2
g3
Ntp157
Rp158
(dp159
g7
V456
p160
sg9
VFinneon
p161
sg11
VOR,AS,
p162
sg13
VSurf
p163
sg15
V30
p164
sg17
g164
sg19
V0
p165
sbag1
(g2
g3
Ntp166
Rp167
(dp168
g7
V592
p169
sg9
VFrillish
p170
sg11
VOR,AS,
p171
sg13
VSurf
p172
sg15
V30
p173
sg17
g173
sg19
V0
p174
sbag1
(g2
g3
Ntp175
Rp176
(dp177
g7
V594
p178
sg9
VAlomomola
p179
sg11
VOR,AS,
p180
sg13
VSurf
p181
sg15
V30
p182
sg17
g182
sg19
V0
p183
sbag1
(g2
g3
Ntp184
Rp185
(dp186
g7
V072
p187
sg9
VTentacool
p188
sg11
VOR,AS,
p189
sg13
VFish Old
p190
sg15
g16
sg17
g16
sg19
V35
p191
sbag1
(g2
g3
Ntp192
Rp193
(dp194
g7
V129
p195
sg9
VMagikarp
p196
sg11
VOR,AS,
p197
sg13
VFish Old
p198
sg15
V10
p199
sg17
V15
p200
sg19
V65
p201
sbag1
(g2
g3
Ntp202
Rp203
(dp204
g7
V072
p205
sg9
VTentacool
p206
sg11
VOR,AS,
p207
sg13
VFish Good
p208
sg15
V25
p209
sg17
g209
sg19
V35
p210
sbag1
(g2
g3
Ntp211
Rp212
(dp213
g7
V129
p214
sg9
VMagikarp
p215
sg11
VOR,AS,
p216
sg13
VFish Good
p217
sg15
V25
p218
sg17
g218
sg19
V60
p219
sbag1
(g2
g3
Ntp220
Rp221
(dp222
g7
V320
p223
sg9
VWailmer
p224
sg11
VOR,AS,
p225
sg13
VFish Good
p226
sg15
V25
p227
sg17
g227
sg19
V5
p228
sbag1
(g2
g3
Ntp229
Rp230
(dp231
g7
V320
p232
sg9
VWailmer
p233
sg11
VOR,AS,
p234
sg13
VFish Super
p235
sg15
V30
p236
sg17
V40
p237
sg19
V100
p238
sbag1
(g2
g3
Ntp239
Rp240
(dp241
g7
V170
p242
sg9
VChinchou
p243
sg11
VOR,AS,
p244
sg13
VSeaweed
p245
sg15
V25
p246
sg17
g246
sg19
V50
p247
sbag1
(g2
g3
Ntp248
Rp249
(dp250
g7
V171
p251
sg9
VLanturn
p252
sg11
VOR,AS,
p253
sg13
VSeaweed
p254
sg15
V30
p255
sg17
g255
sg19
V15
p256
sbag1
(g2
g3
Ntp257
Rp258
(dp259
g7
V366
p260
sg9
VClamperl
p261
sg11
VOR,AS,
p262
sg13
VSeaweed
p263
sg15
V30
p264
sg17
g264
sg19
V30
p265
sbag1
(g2
g3
Ntp266
Rp267
(dp268
g7
V369
p269
sg9
VRelicanth
p270
sg11
VOR,AS,
p271
sg13
VSeaweed
p272
sg15
V30
p273
sg17
V35
p274
sg19
V5
p275
sba.