(lp0
ccopy_reg
_reconstructor
p1
(c__main__
WildPokemon
p2
c__builtin__
object
p3
Ntp4
Rp5
(dp6
VpDexNo
p7
V261
p8
sVpSpecies
p9
VPoochyena
p10
sVpGames
p11
VRu,S,
p12
sVpArea
p13
VGrass
p14
sVpMinLevel
p15
V2
p16
sVpMaxLevel
p17
V3
p18
sVpRate
p19
V10
p20
sbag1
(g2
g3
Ntp21
Rp22
(dp23
g7
V261
p24
sg9
VPoochyena
p25
sg11
VE,
p26
sg13
VGrass
p27
sg15
g16
sg17
g18
sg19
V45
p28
sbag1
(g2
g3
Ntp29
Rp30
(dp31
g7
V263
p32
sg9
VZigzagoon
p33
sg11
VRu,S,
p34
sg13
VGrass
p35
sg15
g16
sg17
g18
sg19
V45
p36
sbag1
(g2
g3
Ntp37
Rp38
(dp39
g7
V263
p40
sg9
VZigzagoon
p41
sg11
g26
sg13
VGrass
p42
sg15
g16
sg17
g18
sg19
V10
p43
sbag1
(g2
g3
Ntp44
Rp45
(dp46
g7
V265
p47
sg9
VWurmple
p48
sg11
VRu,S,E,
p49
sg13
VGrass
p50
sg15
g16
sg17
g18
sg19
V45
p51
sbag1
(g2
g3
Ntp52
Rp53
(dp54
g7
V252
p55
sg9
VTreecko
p56
sg11
VRu,S,E,
p57
sg13
VStarter
p58
sg15
V5
p59
sg17
g59
sg19
V0
p60
sbag1
(g2
g3
Ntp61
Rp62
(dp63
g7
V255
p64
sg9
VTorchic
p65
sg11
VRu,S,E,
p66
sg13
VStarter
p67
sg15
g59
sg17
g59
sg19
V0
p68
sbag1
(g2
g3
Ntp69
Rp70
(dp71
g7
V258
p72
sg9
VMudkip
p73
sg11
VRu,S,E,
p74
sg13
VStarter
p75
sg15
g59
sg17
g59
sg19
V0
p76
sbag1
(g2
g3
Ntp77
Rp78
(dp79
g7
V261
p80
sg9
VPoochyena
p81
sg11
VRu,S,
p82
sg13
VSpecial
p83
sg15
g16
sg17
g16
sg19
V0
p84
sbag1
(g2
g3
Ntp85
Rp86
(dp87
g7
V263
p88
sg9
VZigzagoon
p89
sg11
g26
sg13
VSpecial
p90
sg15
g16
sg17
g16
sg19
V0
p91
sbag1
(g2
g3
Ntp92
Rp93
(dp94
g7
V261
p95
sg9
VPoochyena
p96
sg11
VOR,AS,
p97
sg13
VGrass
p98
sg15
g16
sg17
g16
sg19
V20
p99
sbag1
(g2
g3
Ntp100
Rp101
(dp102
g7
V263
p103
sg9
VZigzagoon
p104
sg11
VOR,AS,
p105
sg13
VGrass
p106
sg15
g16
sg17
g16
sg19
V40
p107
sbag1
(g2
g3
Ntp108
Rp109
(dp110
g7
V265
p111
sg9
VWurmple
p112
sg11
VOR,AS,
p113
sg13
VGrass
p114
sg15
g16
sg17
g16
sg19
V40
p115
sbag1
(g2
g3
Ntp116
Rp117
(dp118
g7
V261
p119
sg9
VPoochyena
p120
sg11
VOR,AS,
p121
sg13
VHorde Encounter
p122
sg15
g16
sg17
g16
sg19
V5
p123
sbag1
(g2
g3
Ntp124
Rp125
(dp126
g7
V263
p127
sg9
VZigzagoon
p128
sg11
VOR,AS,
p129
sg13
VHorde Encounter
p130
sg15
g16
sg17
g16
sg19
V95
p131
sbag1
(g2
g3
Ntp132
Rp133
(dp134
g7
V506
p135
sg9
VLillipup
p136
sg11
VOR,AS,
p137
sg13
VGrass
p138
sg15
g16
sg17
g16
sg19
V0
p139
sbag1
(g2
g3
Ntp140
Rp141
(dp142
g7
V540
p143
sg9
VSewaddle
p144
sg11
VOR,AS,
p145
sg13
VGrass
p146
sg15
g16
sg17
g16
sg19
V0
p147
sbag1
(g2
g3
Ntp148
Rp149
(dp150
g7
V570
p151
sg9
VZorua
p152
sg11
VOR,AS,
p153
sg13
VGrass
p154
sg15
g16
sg17
g16
sg19
V0
p155
sbag1
(g2
g3
Ntp156
Rp157
(dp158
g7
V261
p159
sg9
VPoochyena
p160
sg11
VOR,AS,
p161
sg13
VSpecial
p162
sg15
g18
sg17
g18
sg19
V0
p163
sbag1
(g2
g3
Ntp164
Rp165
(dp166
g7
V265
p167
sg9
VWurmple
p168
sg11
VOR,AS,
p169
sg13
VSpecial
p170
sg15
g18
sg17
g18
sg19
V0
p171
sbag1
(g2
g3
Ntp172
Rp173
(dp174
g7
V261
p175
sg9
VPoochyena
p176
sg11
VOR,AS,
p177
sg13
VSpecial
p178
sg15
g59
sg17
g59
sg19
V0
p179
sbag1
(g2
g3
Ntp180
Rp181
(dp182
g7
V252
p183
sg9
VTreecko
p184
sg11
VOR,AS,
p185
sg13
VStarter
p186
sg15
g59
sg17
g59
sg19
V0
p187
sbag1
(g2
g3
Ntp188
Rp189
(dp190
g7
V255
p191
sg9
VTorchic
p192
sg11
VOR,AS,
p193
sg13
VStarter
p194
sg15
g59
sg17
g59
sg19
V0
p195
sbag1
(g2
g3
Ntp196
Rp197
(dp198
g7
V258
p199
sg9
VMudkip
p200
sg11
VOR,AS,
p201
sg13
VStarter
p202
sg15
g59
sg17
g59
sg19
V0
p203
sbag1
(g2
g3
Ntp204
Rp205
(dp206
g7
V152
p207
sg9
VChikorita
p208
sg11
VOR,AS,
p209
sg13
VGift
p210
sg15
g59
sg17
g59
sg19
V0
p211
sbag1
(g2
g3
Ntp212
Rp213
(dp214
g7
V155
p215
sg9
VCyndaquil
p216
sg11
VOR,AS,
p217
sg13
VGift
p218
sg15
g59
sg17
g59
sg19
V0
p219
sbag1
(g2
g3
Ntp220
Rp221
(dp222
g7
V158
p223
sg9
VTotodile
p224
sg11
VOR,AS,
p225
sg13
VGift
p226
sg15
g59
sg17
g59
sg19
V0
p227
sbag1
(g2
g3
Ntp228
Rp229
(dp230
g7
V495
p231
sg9
VSnivy
p232
sg11
VOR,AS,
p233
sg13
VGift
p234
sg15
g59
sg17
g59
sg19
V0
p235
sbag1
(g2
g3
Ntp236
Rp237
(dp238
g7
V498
p239
sg9
VTepig
p240
sg11
VOR,AS,
p241
sg13
VGift
p242
sg15
g59
sg17
g59
sg19
V0
p243
sbag1
(g2
g3
Ntp244
Rp245
(dp246
g7
V501
p247
sg9
VOshawott
p248
sg11
VOR,AS,
p249
sg13
VGift
p250
sg15
g59
sg17
g59
sg19
V0
p251
sbag1
(g2
g3
Ntp252
Rp253
(dp254
g7
V387
p255
sg9
VTurtwig
p256
sg11
VOR,AS,
p257
sg13
VGift
p258
sg15
g59
sg17
g59
sg19
V0
p259
sbag1
(g2
g3
Ntp260
Rp261
(dp262
g7
V390
p263
sg9
VChimchar
p264
sg11
VOR,AS,
p265
sg13
VGift
p266
sg15
g59
sg17
g59
sg19
V0
p267
sbag1
(g2
g3
Ntp268
Rp269
(dp270
g7
V393
p271
sg9
VPiplup
p272
sg11
VOR,AS,
p273
sg13
VGift
p274
sg15
g59
sg17
g59
sg19
V0
p275
sba.