(lp0
ccopy_reg
_reconstructor
p1
(c__main__
WildPokemon
p2
c__builtin__
object
p3
Ntp4
Rp5
(dp6
VpDexNo
p7
V039
p8
sVpSpecies
p9
VJigglypuff
p10
sVpGames
p11
VRu,S,E,
p12
sVpArea
p13
VGrass
p14
sVpMinLevel
p15
V24
p16
sVpMaxLevel
p17
V25
p18
sVpRate
p19
V10
p20
sbag1
(g2
g3
Ntp21
Rp22
(dp23
g7
V276
p24
sg9
VTaillow
p25
sg11
VRu,S,E,
p26
sg13
VGrass
p27
sg15
V23
p28
sg17
V25
p29
sg19
V40
p30
sbag1
(g2
g3
Ntp31
Rp32
(dp33
g7
V277
p34
sg9
VSwellow
p35
sg11
VRu,S,E,
p36
sg13
VGrass
p37
sg15
V25
p38
sg17
g38
sg19
V10
p39
sbag1
(g2
g3
Ntp40
Rp41
(dp42
g7
V278
p43
sg9
VWingull
p44
sg11
VRu,S,E,
p45
sg13
VGrass
p46
sg15
V24
p47
sg17
V26
p48
sg19
V10
p49
sbag1
(g2
g3
Ntp50
Rp51
(dp52
g7
V333
p53
sg9
VSwablu
p54
sg11
VRu,S,E,
p55
sg13
VGrass
p56
sg15
V23
p57
sg17
V25
p58
sg19
V30
p59
sbag1
(g2
g3
Ntp60
Rp61
(dp62
g7
V072
p63
sg9
VTentacool
p64
sg11
VRu,S,E,
p65
sg13
VSurf
p66
sg15
V5
p67
sg17
V35
p68
sg19
V60
p69
sbag1
(g2
g3
Ntp70
Rp71
(dp72
g7
V278
p73
sg9
VWingull
p74
sg11
VRu,S,E,
p75
sg13
VSurf
p76
sg15
V10
p77
sg17
V30
p78
sg19
V35
p79
sbag1
(g2
g3
Ntp80
Rp81
(dp82
g7
V279
p83
sg9
VPelipper
p84
sg11
VRu,S,E,
p85
sg13
VSurf
p86
sg15
V25
p87
sg17
V30
p88
sg19
V5
p89
sbag1
(g2
g3
Ntp90
Rp91
(dp92
g7
V072
p93
sg9
VTentacool
p94
sg11
VRu,S,E,
p95
sg13
VFish Old
p96
sg15
g67
sg17
V10
p97
sg19
V30
p98
sbag1
(g2
g3
Ntp99
Rp100
(dp101
g7
V129
p102
sg9
VMagikarp
p103
sg11
VRu,S,E,
p104
sg13
VFish Old
p105
sg15
g67
sg17
V10
p106
sg19
V70
p107
sbag1
(g2
g3
Ntp108
Rp109
(dp110
g7
V072
p111
sg9
VTentacool
p112
sg11
VRu,S,E,
p113
sg13
VFish Good
p114
sg15
V10
p115
sg17
V30
p116
sg19
V20
p117
sbag1
(g2
g3
Ntp118
Rp119
(dp120
g7
V129
p121
sg9
VMagikarp
p122
sg11
VRu,S,E,
p123
sg13
VFish Good
p124
sg15
V10
p125
sg17
V30
p126
sg19
V60
p127
sbag1
(g2
g3
Ntp128
Rp129
(dp130
g7
V320
p131
sg9
VWailmer
p132
sg11
VRu,S,E,
p133
sg13
VFish Good
p134
sg15
V10
p135
sg17
V30
p136
sg19
V20
p137
sbag1
(g2
g3
Ntp138
Rp139
(dp140
g7
V320
p141
sg9
VWailmer
p142
sg11
VRu,S,E,
p143
sg13
VFish Super
p144
sg15
V20
p145
sg17
V45
p146
sg19
V100
p147
sbag1
(g2
g3
Ntp148
Rp149
(dp150
g7
V039
p151
sg9
VJigglypuff
p152
sg11
VOR,AS,
p153
sg13
VGrass
p154
sg15
V18
p155
sg17
V20
p156
sg19
V10
p157
sbag1
(g2
g3
Ntp158
Rp159
(dp160
g7
V276
p161
sg9
VTaillow
p162
sg11
VOR,AS,
p163
sg13
VGrass
p164
sg15
V17
p165
sg17
V20
p166
sg19
V40
p167
sbag1
(g2
g3
Ntp168
Rp169
(dp170
g7
V278
p171
sg9
VWingull
p172
sg11
VOR,AS,
p173
sg13
VGrass
p174
sg15
V20
p175
sg17
g175
sg19
V10
p176
sbag1
(g2
g3
Ntp177
Rp178
(dp179
g7
V333
p180
sg9
VSwablu
p181
sg11
VOR,AS,
p182
sg13
VGrass
p183
sg15
V17
p184
sg17
V20
p185
sg19
V40
p186
sbag1
(g2
g3
Ntp187
Rp188
(dp189
g7
V333
p190
sg9
VSwablu
p191
sg11
VOR,AS,
p192
sg13
VHorde Encounter
p193
sg15
V10
p194
sg17
g194
sg19
V100
p195
sbag1
(g2
g3
Ntp196
Rp197
(dp198
g7
V519
p199
sg9
VPidove
p200
sg11
VOR,AS,
p201
sg13
VGrass
p202
sg15
V20
p203
sg17
g203
sg19
V0
p204
sbag1
(g2
g3
Ntp205
Rp206
(dp207
g7
V200
p208
sg9
VMisdreavus
p209
sg11
VOR,AS,
p210
sg13
VGrass
p211
sg15
V20
p212
sg17
g212
sg19
V0
p213
sbag1
(g2
g3
Ntp214
Rp215
(dp216
g7
V035
p217
sg9
VClefairy
p218
sg11
VOR,AS,
p219
sg13
VGrass
p220
sg15
V20
p221
sg17
g221
sg19
V0
p222
sbag1
(g2
g3
Ntp223
Rp224
(dp225
g7
V072
p226
sg9
VTentacool
p227
sg11
VOR,AS,
p228
sg13
VSurf
p229
sg15
V20
p230
sg17
V25
p231
sg19
V65
p232
sbag1
(g2
g3
Ntp233
Rp234
(dp235
g7
V278
p236
sg9
VWingull
p237
sg11
VOR,AS,
p238
sg13
VSurf
p239
sg15
V20
p240
sg17
g240
sg19
V30
p241
sbag1
(g2
g3
Ntp242
Rp243
(dp244
g7
V279
p245
sg9
VPelipper
p246
sg11
VOR,AS,
p247
sg13
VSurf
p248
sg15
V25
p249
sg17
V30
p250
sg19
V5
p251
sbag1
(g2
g3
Ntp252
Rp253
(dp254
g7
V072
p255
sg9
VTentacool
p256
sg11
VOR,AS,
p257
sg13
VFish Old
p258
sg15
g67
sg17
g67
sg19
V35
p259
sbag1
(g2
g3
Ntp260
Rp261
(dp262
g7
V129
p263
sg9
VMagikarp
p264
sg11
VOR,AS,
p265
sg13
VFish Old
p266
sg15
V10
p267
sg17
V15
p268
sg19
V65
p269
sbag1
(g2
g3
Ntp270
Rp271
(dp272
g7
V072
p273
sg9
VTentacool
p274
sg11
VOR,AS,
p275
sg13
VFish Good
p276
sg15
V25
p277
sg17
g277
sg19
V35
p278
sbag1
(g2
g3
Ntp279
Rp280
(dp281
g7
V129
p282
sg9
VMagikarp
p283
sg11
VOR,AS,
p284
sg13
VFish Good
p285
sg15
V25
p286
sg17
g286
sg19
V60
p287
sbag1
(g2
g3
Ntp288
Rp289
(dp290
g7
V320
p291
sg9
VWailmer
p292
sg11
VOR,AS,
p293
sg13
VFish Good
p294
sg15
V25
p295
sg17
g295
sg19
V5
p296
sbag1
(g2
g3
Ntp297
Rp298
(dp299
g7
V320
p300
sg9
VWailmer
p301
sg11
VOR,AS,
p302
sg13
VFish Super
p303
sg15
V30
p304
sg17
V40
p305
sg19
V100
p306
sba.