(lp0
ccopy_reg
_reconstructor
p1
(c__main__
WildPokemon
p2
c__builtin__
object
p3
Ntp4
Rp5
(dp6
VpDexNo
p7
V263
p8
sVpSpecies
p9
VZigzagoon
p10
sVpGames
p11
VRu,S,E,
p12
sVpArea
p13
VGrass
p14
sVpMinLevel
p15
V24
p16
sVpMaxLevel
p17
V26
p18
sVpRate
p19
V30
p20
sbag1
(g2
g3
Ntp21
Rp22
(dp23
g7
V264
p24
sg9
VLinoone
p25
sg11
VRu,S,E,
p26
sg13
VGrass
p27
sg15
V26
p28
sg17
g28
sg19
V10
p29
sbag1
(g2
g3
Ntp30
Rp31
(dp32
g7
V278
p33
sg9
VWingull
p34
sg11
VRu,S,E,
p35
sg13
VGrass
p36
sg15
V25
p37
sg17
V27
p38
sg19
V19
p39
sbag1
(g2
g3
Ntp40
Rp41
(dp42
g7
V309
p43
sg9
VElectrike
p44
sg11
VRu,S,E,
p45
sg13
VGrass
p46
sg15
V24
p47
sg17
V26
p48
sg19
V30
p49
sbag1
(g2
g3
Ntp50
Rp51
(dp52
g7
V310
p53
sg9
VManectric
p54
sg11
VRu,S,E,
p55
sg13
VGrass
p56
sg15
V26
p57
sg17
g57
sg19
V10
p58
sbag1
(g2
g3
Ntp59
Rp60
(dp61
g7
V352
p62
sg9
VKecleon
p63
sg11
VRu,S,E,
p64
sg13
VGrass
p65
sg15
V25
p66
sg17
g66
sg19
V1
p67
sbag1
(g2
g3
Ntp68
Rp69
(dp70
g7
V072
p71
sg9
VTentacool
p72
sg11
VRu,S,E,
p73
sg13
VSurf
p74
sg15
V5
p75
sg17
V35
p76
sg19
V60
p77
sbag1
(g2
g3
Ntp78
Rp79
(dp80
g7
V278
p81
sg9
VWingull
p82
sg11
VRu,S,E,
p83
sg13
VSurf
p84
sg15
V10
p85
sg17
V30
p86
sg19
V35
p87
sbag1
(g2
g3
Ntp88
Rp89
(dp90
g7
V279
p91
sg9
VPelipper
p92
sg11
VRu,S,E,
p93
sg13
VSurf
p94
sg15
V25
p95
sg17
V30
p96
sg19
V5
p97
sbag1
(g2
g3
Ntp98
Rp99
(dp100
g7
V072
p101
sg9
VTentacool
p102
sg11
VRu,S,E,
p103
sg13
VFish Old
p104
sg15
g75
sg17
V10
p105
sg19
V30
p106
sbag1
(g2
g3
Ntp107
Rp108
(dp109
g7
V129
p110
sg9
VMagikarp
p111
sg11
VRu,S,E,
p112
sg13
VFish Old
p113
sg15
g75
sg17
V10
p114
sg19
V70
p115
sbag1
(g2
g3
Ntp116
Rp117
(dp118
g7
V072
p119
sg9
VTentacool
p120
sg11
VRu,S,E,
p121
sg13
VFish Good
p122
sg15
V10
p123
sg17
V30
p124
sg19
V20
p125
sbag1
(g2
g3
Ntp126
Rp127
(dp128
g7
V129
p129
sg9
VMagikarp
p130
sg11
VRu,S,E,
p131
sg13
VFish Good
p132
sg15
V10
p133
sg17
V30
p134
sg19
V60
p135
sbag1
(g2
g3
Ntp136
Rp137
(dp138
g7
V318
p139
sg9
VCarvanha
p140
sg11
VRu,S,E,
p141
sg13
VFish Good
p142
sg15
V10
p143
sg17
V30
p144
sg19
V20
p145
sbag1
(g2
g3
Ntp146
Rp147
(dp148
g7
V318
p149
sg9
VCarvanha
p150
sg11
VRu,S,E,
p151
sg13
VFish Super
p152
sg15
V20
p153
sg17
V45
p154
sg19
V60
p155
sbag1
(g2
g3
Ntp156
Rp157
(dp158
g7
V319
p159
sg9
VSharpedo
p160
sg11
VRu,S,E,
p161
sg13
VFish Super
p162
sg15
V30
p163
sg17
V35
p164
sg19
V40
p165
sbag1
(g2
g3
Ntp166
Rp167
(dp168
g7
V264
p169
sg9
VLinoone
p170
sg11
VOR,AS,
p171
sg13
VGrass
p172
sg15
V21
p173
sg17
V24
p174
sg19
V40
p175
sbag1
(g2
g3
Ntp176
Rp177
(dp178
g7
V278
p179
sg9
VWingull
p180
sg11
VOR,AS,
p181
sg13
VGrass
p182
sg15
V22
p183
sg17
V24
p184
sg19
V15
p185
sbag1
(g2
g3
Ntp186
Rp187
(dp188
g7
V309
p189
sg9
VElectrike
p190
sg11
VOR,AS,
p191
sg13
VGrass
p192
sg15
V21
p193
sg17
V24
p194
sg19
V40
p195
sbag1
(g2
g3
Ntp196
Rp197
(dp198
g7
V352
p199
sg9
VKecleon
p200
sg11
VOR,AS,
p201
sg13
VGrass
p202
sg15
V24
p203
sg17
g203
sg19
V5
p204
sbag1
(g2
g3
Ntp205
Rp206
(dp207
g7
V264
p208
sg9
VLinoone
p209
sg11
VOR,AS,
p210
sg13
VTall grass
p211
sg15
V21
p212
sg17
V23
p213
sg19
V40
p214
sbag1
(g2
g3
Ntp215
Rp216
(dp217
g7
V279
p218
sg9
VPelipper
p219
sg11
VOR,AS,
p220
sg13
VTall grass
p221
sg15
V22
p222
sg17
V24
p223
sg19
V15
p224
sbag1
(g2
g3
Ntp225
Rp226
(dp227
g7
V309
p228
sg9
VElectrike
p229
sg11
VOR,AS,
p230
sg13
VTall grass
p231
sg15
V21
p232
sg17
V24
p233
sg19
V40
p234
sbag1
(g2
g3
Ntp235
Rp236
(dp237
g7
V352
p238
sg9
VKecleon
p239
sg11
VOR,AS,
p240
sg13
VTall grass
p241
sg15
V24
p242
sg17
g242
sg19
V5
p243
sbag1
(g2
g3
Ntp244
Rp245
(dp246
g7
V278
p247
sg9
VWingull
p248
sg11
VOR,AS,
p249
sg13
VGrass
p250
sg15
V12
p251
sg17
g251
sg19
V35
p252
sbag1
(g2
g3
Ntp253
Rp254
(dp255
g7
V309
p256
sg9
VElectrike
p257
sg11
VOR,AS,
p258
sg13
VGrass
p259
sg15
V12
p260
sg17
g260
sg19
V60
p261
sbag1
(g2
g3
Ntp262
Rp263
(dp264
g7
V352
p265
sg9
VKecleon
p266
sg11
VOR,AS,
p267
sg13
VGrass
p268
sg15
V12
p269
sg17
g269
sg19
V5
p270
sbag1
(g2
g3
Ntp271
Rp272
(dp273
g7
V278
p274
sg9
VWingull
p275
sg11
VOR,AS,
p276
sg13
VTall grass
p277
sg15
V12
p278
sg17
g278
sg19
V35
p279
sbag1
(g2
g3
Ntp280
Rp281
(dp282
g7
V309
p283
sg9
VElectrike
p284
sg11
VOR,AS,
p285
sg13
VTall grass
p286
sg15
V12
p287
sg17
g287
sg19
V60
p288
sbag1
(g2
g3
Ntp289
Rp290
(dp291
g7
V352
p292
sg9
VKecleon
p293
sg11
VOR,AS,
p294
sg13
VTall grass
p295
sg15
V12
p296
sg17
g296
sg19
V5
p297
sbag1
(g2
g3
Ntp298
Rp299
(dp300
g7
V020
p301
sg9
VRaticate
p302
sg11
VOR,AS,
p303
sg13
VGrass
p304
sg15
V24
p305
sg17
g305
sg19
V0
p306
sbag1
(g2
g3
Ntp307
Rp308
(dp309
g7
V190
p310
sg9
VAipom
p311
sg11
VOR,AS,
p312
sg13
VGrass
p313
sg15
V24
p314
sg17
g314
sg19
V0
p315
sbag1
(g2
g3
Ntp316
Rp317
(dp318
g7
V404
p319
sg9
VLuxio
p320
sg11
VOR,AS,
p321
sg13
VGrass
p322
sg15
V24
p323
sg17
g323
sg19
V0
p324
sbag1
(g2
g3
Ntp325
Rp326
(dp327
g7
V020
p328
sg9
VRaticate
p329
sg11
VOR,AS,
p330
sg13
VTall grass
p331
sg15
V24
p332
sg17
g332
sg19
V0
p333
sbag1
(g2
g3
Ntp334
Rp335
(dp336
g7
V190
p337
sg9
VAipom
p338
sg11
VOR,AS,
p339
sg13
VTall grass
p340
sg15
V24
p341
sg17
g341
sg19
V0
p342
sbag1
(g2
g3
Ntp343
Rp344
(dp345
g7
V404
p346
sg9
VLuxio
p347
sg11
VOR,AS,
p348
sg13
VTall grass
p349
sg15
V24
p350
sg17
g350
sg19
V0
p351
sbag1
(g2
g3
Ntp352
Rp353
(dp354
g7
V072
p355
sg9
VTentacool
p356
sg11
VOR,AS,
p357
sg13
VSurf
p358
sg15
V20
p359
sg17
V25
p360
sg19
V65
p361
sbag1
(g2
g3
Ntp362
Rp363
(dp364
g7
V278
p365
sg9
VWingull
p366
sg11
VOR,AS,
p367
sg13
VSurf
p368
sg15
V20
p369
sg17
g369
sg19
V30
p370
sbag1
(g2
g3
Ntp371
Rp372
(dp373
g7
V279
p374
sg9
VPelipper
p375
sg11
VOR,AS,
p376
sg13
VSurf
p377
sg15
V25
p378
sg17
V30
p379
sg19
V5
p380
sbag1
(g2
g3
Ntp381
Rp382
(dp383
g7
V072
p384
sg9
VTentacool
p385
sg11
VOR,AS,
p386
sg13
VFish Old
p387
sg15
g75
sg17
g75
sg19
V35
p388
sbag1
(g2
g3
Ntp389
Rp390
(dp391
g7
V129
p392
sg9
VMagikarp
p393
sg11
VOR,AS,
p394
sg13
VFish Old
p395
sg15
V10
p396
sg17
V15
p397
sg19
V65
p398
sbag1
(g2
g3
Ntp399
Rp400
(dp401
g7
V072
p402
sg9
VTentacool
p403
sg11
VOR,AS,
p404
sg13
VFish Good
p405
sg15
V25
p406
sg17
g406
sg19
V35
p407
sbag1
(g2
g3
Ntp408
Rp409
(dp410
g7
V129
p411
sg9
VMagikarp
p412
sg11
VOR,AS,
p413
sg13
VFish Good
p414
sg15
V25
p415
sg17
g415
sg19
V60
p416
sbag1
(g2
g3
Ntp417
Rp418
(dp419
g7
V318
p420
sg9
VCarvanha
p421
sg11
VOR,AS,
p422
sg13
VFish Good
p423
sg15
V25
p424
sg17
g424
sg19
V5
p425
sbag1
(g2
g3
Ntp426
Rp427
(dp428
g7
V318
p429
sg9
VCarvanha
p430
sg11
VOR,AS,
p431
sg13
VFish Super
p432
sg15
V30
p433
sg17
V35
p434
sg19
V95
p435
sbag1
(g2
g3
Ntp436
Rp437
(dp438
g7
V319
p439
sg9
VSharpedo
p440
sg11
VOR,AS,
p441
sg13
VFish Super
p442
sg15
V40
p443
sg17
g443
sg19
V5
p444
sba.