(lp0
ccopy_reg
_reconstructor
p1
(c__main__
WildPokemon
p2
c__builtin__
object
p3
Ntp4
Rp5
(dp6
VpDexNo
p7
V043
p8
sVpSpecies
p9
VOddish
p10
sVpGames
p11
VRu,S,E,
p12
sVpArea
p13
VLong grass
p14
sVpMinLevel
p15
V25
p16
sVpMaxLevel
p17
V27
p18
sVpRate
p19
V25
p20
sbag1
(g2
g3
Ntp21
Rp22
(dp23
g7
V183
p24
sg9
VMarill
p25
sg11
VRu,S,E,
p26
sg13
VLong grass
p27
sg15
V25
p28
sg17
V27
p29
sg19
V15
p30
sbag1
(g2
g3
Ntp31
Rp32
(dp33
g7
V261
p34
sg9
VPoochyena
p35
sg11
VE,
p36
sg13
VLong grass
p37
sg15
V25
p38
sg17
g38
sg19
V20
p39
sbag1
(g2
g3
Ntp40
Rp41
(dp42
g7
V262
p43
sg9
VMightyena
p44
sg11
g36
sg13
VLong grass
p45
sg15
V25
p46
sg17
V27
p47
sg19
V30
p48
sbag1
(g2
g3
Ntp49
Rp50
(dp51
g7
V263
p52
sg9
VZigzagoon
p53
sg11
VRu,S,
p54
sg13
VLong grass
p55
sg15
V25
p56
sg17
g56
sg19
V20
p57
sbag1
(g2
g3
Ntp58
Rp59
(dp60
g7
V264
p61
sg9
VLinoone
p62
sg11
VRu,S,
p63
sg13
VLong grass
p64
sg15
V25
p65
sg17
V27
p66
sg19
V30
p67
sbag1
(g2
g3
Ntp68
Rp69
(dp70
g7
V273
p71
sg9
VSeedot
p72
sg11
g36
sg13
VLong grass
p73
sg15
V25
p74
sg17
g74
sg19
V1
p75
sbag1
(g2
g3
Ntp76
Rp77
(dp78
g7
V283
p79
sg9
VSurskit
p80
sg11
VRu,S,
p81
sg13
VLong grass
p82
sg15
V25
p83
sg17
g83
sg19
V1
p84
sbag1
(g2
g3
Ntp85
Rp86
(dp87
g7
V352
p88
sg9
VKecleon
p89
sg11
VRu,S,E,
p90
sg13
VLong grass
p91
sg15
V25
p92
sg17
g92
sg19
V1
p93
sbag1
(g2
g3
Ntp94
Rp95
(dp96
g7
V359
p97
sg9
VAbsol
p98
sg11
VRu,S,E,
p99
sg13
VLong grass
p100
sg15
V25
p101
sg17
V27
p102
sg19
V8
p103
sbag1
(g2
g3
Ntp104
Rp105
(dp106
g7
V118
p107
sg9
VGoldeen
p108
sg11
g36
sg13
VSurf
p109
sg15
V20
p110
sg17
V30
p111
sg19
V1
p112
sbag1
(g2
g3
Ntp113
Rp114
(dp115
g7
V183
p116
sg9
VMarill
p117
sg11
VRu,S,E,
p118
sg13
VSurf
p119
sg15
V5
p120
sg17
V35
p121
sg19
V99
p122
sbag1
(g2
g3
Ntp123
Rp124
(dp125
g7
V283
p126
sg9
VSurskit
p127
sg11
VRu,S,
p128
sg13
VSurf
p129
sg15
V20
p130
sg17
V30
p131
sg19
V1
p132
sbag1
(g2
g3
Ntp133
Rp134
(dp135
g7
V118
p136
sg9
VGoldeen
p137
sg11
VRu,S,E,
p138
sg13
VFish Old
p139
sg15
g120
sg17
V10
p140
sg19
V30
p141
sbag1
(g2
g3
Ntp142
Rp143
(dp144
g7
V129
p145
sg9
VMagikarp
p146
sg11
VRu,S,E,
p147
sg13
VFish Old
p148
sg15
g120
sg17
V10
p149
sg19
V70
p150
sbag1
(g2
g3
Ntp151
Rp152
(dp153
g7
V118
p154
sg9
VGoldeen
p155
sg11
VRu,S,E,
p156
sg13
VFish Good
p157
sg15
V10
p158
sg17
V30
p159
sg19
V20
p160
sbag1
(g2
g3
Ntp161
Rp162
(dp163
g7
V129
p164
sg9
VMagikarp
p165
sg11
VRu,S,E,
p166
sg13
VFish Good
p167
sg15
V10
p168
sg17
V30
p169
sg19
V60
p170
sbag1
(g2
g3
Ntp171
Rp172
(dp173
g7
V339
p174
sg9
VBarboach
p175
sg11
VRu,S,E,
p176
sg13
VFish Good
p177
sg15
V10
p178
sg17
V30
p179
sg19
V20
p180
sbag1
(g2
g3
Ntp181
Rp182
(dp183
g7
V339
p184
sg9
VBarboach
p185
sg11
VRu,S,E,
p186
sg13
VFish Super
p187
sg15
V20
p188
sg17
V45
p189
sg19
V100
p190
sbag1
(g2
g3
Ntp191
Rp192
(dp193
g7
V352
p194
sg9
VKecleon
p195
sg11
VRu,S,E,
p196
sg13
VSpecial
p197
sg15
V30
p198
sg17
g198
sg19
V0
p199
sbag1
(g2
g3
Ntp200
Rp201
(dp202
g7
V283
p203
sg9
VSurskit
p204
sg11
VRu,S,
p205
sg13
VSwarm
p206
sg15
V28
p207
sg17
g207
sg19
V50
p208
sbag1
(g2
g3
Ntp209
Rp210
(dp211
g7
V273
p212
sg9
VSeedot
p213
sg11
g36
sg13
VSwarm
p214
sg15
V25
p215
sg17
g215
sg19
V50
p216
sbag1
(g2
g3
Ntp217
Rp218
(dp219
g7
V044
p220
sg9
VGloom
p221
sg11
VOR,AS,
p222
sg13
VTall grass
p223
sg15
V24
p224
sg17
V27
p225
sg19
V40
p226
sbag1
(g2
g3
Ntp227
Rp228
(dp229
g7
V264
p230
sg9
VLinoone
p231
sg11
VOR,AS,
p232
sg13
VTall grass
p233
sg15
V24
p234
sg17
V27
p235
sg19
V40
p236
sbag1
(g2
g3
Ntp237
Rp238
(dp239
g7
V352
p240
sg9
VKecleon
p241
sg11
VOR,AS,
p242
sg13
VTall grass
p243
sg15
V27
p244
sg17
g244
sg19
V5
p245
sbag1
(g2
g3
Ntp246
Rp247
(dp248
g7
V357
p249
sg9
VTropius
p250
sg11
VOR,AS,
p251
sg13
VTall grass
p252
sg15
V27
p253
sg17
g253
sg19
V10
p254
sbag1
(g2
g3
Ntp255
Rp256
(dp257
g7
V359
p258
sg9
VAbsol
p259
sg11
VOR,AS,
p260
sg13
VTall grass
p261
sg15
V27
p262
sg17
g262
sg19
V5
p263
sbag1
(g2
g3
Ntp264
Rp265
(dp266
g7
V043
p267
sg9
VOddish
p268
sg11
VOR,AS,
p269
sg13
VHorde Encounter
p270
sg15
V13
p271
sg17
g271
sg19
V60
p272
sbag1
(g2
g3
Ntp273
Rp274
(dp275
g7
V183
p276
sg9
VMarill
p277
sg11
VOR,AS,
p278
sg13
VHorde Encounter
p279
sg15
V13
p280
sg17
g280
sg19
V35
p281
sbag1
(g2
g3
Ntp282
Rp283
(dp284
g7
V352
p285
sg9
VKecleon
p286
sg11
VOR,AS,
p287
sg13
VHorde Encounter
p288
sg15
V13
p289
sg17
g289
sg19
V5
p290
sbag1
(g2
g3
Ntp291
Rp292
(dp293
g7
V184
p294
sg9
VAzumarill
p295
sg11
VOR,AS,
p296
sg13
VSurf
p297
sg15
V20
p298
sg17
V30
p299
sg19
V66
p300
sbag1
(g2
g3
Ntp301
Rp302
(dp303
g7
V283
p304
sg9
VSurskit
p305
sg11
VOR,AS,
p306
sg13
VSurf
p307
sg15
V20
p308
sg17
g308
sg19
V30
p309
sbag1
(g2
g3
Ntp310
Rp311
(dp312
g7
V284
p313
sg9
VMasquerain
p314
sg11
VOR,AS,
p315
sg13
VSurf
p316
sg15
V25
p317
sg17
g317
sg19
V4
p318
sbag1
(g2
g3
Ntp319
Rp320
(dp321
g7
V072
p322
sg9
VTentacool
p323
sg11
VOR,AS,
p324
sg13
VFish Old
p325
sg15
g120
sg17
g120
sg19
V35
p326
sbag1
(g2
g3
Ntp327
Rp328
(dp329
g7
V129
p330
sg9
VMagikarp
p331
sg11
VOR,AS,
p332
sg13
VFish Old
p333
sg15
V10
p334
sg17
V15
p335
sg19
V65
p336
sbag1
(g2
g3
Ntp337
Rp338
(dp339
g7
V072
p340
sg9
VTentacool
p341
sg11
VOR,AS,
p342
sg13
VFish Good
p343
sg15
V25
p344
sg17
g344
sg19
V35
p345
sbag1
(g2
g3
Ntp346
Rp347
(dp348
g7
V129
p349
sg9
VMagikarp
p350
sg11
VOR,AS,
p351
sg13
VFish Good
p352
sg15
V25
p353
sg17
g353
sg19
V60
p354
sbag1
(g2
g3
Ntp355
Rp356
(dp357
g7
V339
p358
sg9
VBarboach
p359
sg11
VOR,AS,
p360
sg13
VFish Good
p361
sg15
V25
p362
sg17
g362
sg19
V5
p363
sbag1
(g2
g3
Ntp364
Rp365
(dp366
g7
V339
p367
sg9
VBarboach
p368
sg11
VOR,AS,
p369
sg13
VFish Super
p370
sg15
V30
p371
sg17
V40
p372
sg19
V100
p373
sbag1
(g2
g3
Ntp374
Rp375
(dp376
g7
V352
p377
sg9
VKecleon
p378
sg11
VOR,AS,
p379
sg13
VSpecial
p380
sg15
V30
p381
sg17
g381
sg19
V0
p382
sbag1
(g2
g3
Ntp383
Rp384
(dp385
g7
V044
p386
sg9
VGloom
p387
sg11
VOR,AS,
p388
sg13
VTall grass
p389
sg15
V24
p390
sg17
V27
p391
sg19
V40
p392
sbag1
(g2
g3
Ntp393
Rp394
(dp395
g7
V264
p396
sg9
VLinoone
p397
sg11
VOR,AS,
p398
sg13
VTall grass
p399
sg15
V24
p400
sg17
V27
p401
sg19
V40
p402
sbag1
(g2
g3
Ntp403
Rp404
(dp405
g7
V352
p406
sg9
VKecleon
p407
sg11
VOR,AS,
p408
sg13
VTall grass
p409
sg15
V27
p410
sg17
g410
sg19
V5
p411
sbag1
(g2
g3
Ntp412
Rp413
(dp414
g7
V357
p415
sg9
VTropius
p416
sg11
VOR,AS,
p417
sg13
VTall grass
p418
sg15
V27
p419
sg17
g419
sg19
V10
p420
sbag1
(g2
g3
Ntp421
Rp422
(dp423
g7
V359
p424
sg9
VAbsol
p425
sg11
VOR,AS,
p426
sg13
VTall grass
p427
sg15
V27
p428
sg17
g428
sg19
V5
p429
sbag1
(g2
g3
Ntp430
Rp431
(dp432
g7
V043
p433
sg9
VOddish
p434
sg11
VOR,AS,
p435
sg13
VHorde Encounter
p436
sg15
V13
p437
sg17
g437
sg19
V60
p438
sbag1
(g2
g3
Ntp439
Rp440
(dp441
g7
V183
p442
sg9
VMarill
p443
sg11
VOR,AS,
p444
sg13
VHorde Encounter
p445
sg15
V13
p446
sg17
g446
sg19
V35
p447
sbag1
(g2
g3
Ntp448
Rp449
(dp450
g7
V352
p451
sg9
VKecleon
p452
sg11
VOR,AS,
p453
sg13
VHorde Encounter
p454
sg15
V13
p455
sg17
g455
sg19
V5
p456
sbag1
(g2
g3
Ntp457
Rp458
(dp459
g7
V184
p460
sg9
VAzumarill
p461
sg11
VOR,AS,
p462
sg13
VSurf
p463
sg15
V20
p464
sg17
V30
p465
sg19
V66
p466
sbag1
(g2
g3
Ntp467
Rp468
(dp469
g7
V283
p470
sg9
VSurskit
p471
sg11
VOR,AS,
p472
sg13
VSurf
p473
sg15
V20
p474
sg17
g474
sg19
V30
p475
sbag1
(g2
g3
Ntp476
Rp477
(dp478
g7
V284
p479
sg9
VMasquerain
p480
sg11
VOR,AS,
p481
sg13
VSurf
p482
sg15
V25
p483
sg17
g483
sg19
V4
p484
sbag1
(g2
g3
Ntp485
Rp486
(dp487
g7
V118
p488
sg9
VGoldeen
p489
sg11
VOR,AS,
p490
sg13
VFish Old
p491
sg15
g120
sg17
g120
sg19
V35
p492
sbag1
(g2
g3
Ntp493
Rp494
(dp495
g7
V129
p496
sg9
VMagikarp
p497
sg11
VOR,AS,
p498
sg13
VFish Old
p499
sg15
V10
p500
sg17
V15
p501
sg19
V65
p502
sbag1
(g2
g3
Ntp503
Rp504
(dp505
g7
V118
p506
sg9
VGoldeen
p507
sg11
VOR,AS,
p508
sg13
VFish Good
p509
sg15
V25
p510
sg17
g510
sg19
V35
p511
sbag1
(g2
g3
Ntp512
Rp513
(dp514
g7
V129
p515
sg9
VMagikarp
p516
sg11
VOR,AS,
p517
sg13
VFish Good
p518
sg15
V25
p519
sg17
g519
sg19
V60
p520
sbag1
(g2
g3
Ntp521
Rp522
(dp523
g7
V339
p524
sg9
VBarboach
p525
sg11
VOR,AS,
p526
sg13
VFish Good
p527
sg15
V25
p528
sg17
g528
sg19
V5
p529
sbag1
(g2
g3
Ntp530
Rp531
(dp532
g7
V339
p533
sg9
VBarboach
p534
sg11
VOR,AS,
p535
sg13
VFish Super
p536
sg15
V30
p537
sg17
V40
p538
sg19
V100
p539
sba.