(lp0
ccopy_reg
_reconstructor
p1
(c__main__
WildPokemon
p2
c__builtin__
object
p3
Ntp4
Rp5
(dp6
VpDexNo
p7
V043
p8
sVpSpecies
p9
VOddish
p10
sVpGames
p11
VRu,S,E,
p12
sVpArea
p13
VGrass
p14
sVpMinLevel
p15
V26
p16
sVpMaxLevel
p17
V28
p18
sVpRate
p19
V15
p20
sbag1
(g2
g3
Ntp21
Rp22
(dp23
g7
V044
p24
sg9
VGloom
p25
sg11
VRu,S,E,
p26
sg13
VGrass
p27
sg15
V28
p28
sg17
g28
sg19
V5
p29
sbag1
(g2
g3
Ntp30
Rp31
(dp32
g7
V261
p33
sg9
VPoochyena
p34
sg11
VE,
p35
sg13
VGrass
p36
sg15
V26
p37
sg17
g37
sg19
V20
p38
sbag1
(g2
g3
Ntp39
Rp40
(dp41
g7
V262
p42
sg9
VMightyena
p43
sg11
g35
sg13
VGrass
p44
sg15
V26
p45
sg17
V28
p46
sg19
V20
p47
sbag1
(g2
g3
Ntp48
Rp49
(dp50
g7
V263
p51
sg9
VZigzagoon
p52
sg11
VRu,S,
p53
sg13
VGrass
p54
sg15
V26
p55
sg17
g55
sg19
V20
p56
sbag1
(g2
g3
Ntp57
Rp58
(dp59
g7
V264
p60
sg9
VLinoone
p61
sg11
VRu,S,
p62
sg13
VGrass
p63
sg15
V26
p64
sg17
V28
p65
sg19
V20
p66
sbag1
(g2
g3
Ntp67
Rp68
(dp69
g7
V278
p70
sg9
VWingull
p71
sg11
VRu,S,E,
p72
sg13
VGrass
p73
sg15
V26
p74
sg17
V28
p75
sg19
V9
p76
sbag1
(g2
g3
Ntp77
Rp78
(dp79
g7
V352
p80
sg9
VKecleon
p81
sg11
VRu,S,E,
p82
sg13
VGrass
p83
sg15
V25
p84
sg17
g84
sg19
V1
p85
sbag1
(g2
g3
Ntp86
Rp87
(dp88
g7
V353
p89
sg9
VShuppet
p90
sg11
VS,E,
p91
sg13
VGrass
p92
sg15
V26
p93
sg17
V28
p94
sg19
V30
p95
sbag1
(g2
g3
Ntp96
Rp97
(dp98
g7
V355
p99
sg9
VDuskull
p100
sg11
VRu,
p101
sg13
VGrass
p102
sg15
V26
p103
sg17
V28
p104
sg19
V30
p105
sbag1
(g2
g3
Ntp106
Rp107
(dp108
g7
V072
p109
sg9
VTentacool
p110
sg11
VRu,S,E,
p111
sg13
VSurf
p112
sg15
V5
p113
sg17
V35
p114
sg19
V60
p115
sbag1
(g2
g3
Ntp116
Rp117
(dp118
g7
V278
p119
sg9
VWingull
p120
sg11
VRu,S,E,
p121
sg13
VSurf
p122
sg15
V10
p123
sg17
V30
p124
sg19
V35
p125
sbag1
(g2
g3
Ntp126
Rp127
(dp128
g7
V279
p129
sg9
VPelipper
p130
sg11
VRu,S,E,
p131
sg13
VSurf
p132
sg15
V25
p133
sg17
V30
p134
sg19
V5
p135
sbag1
(g2
g3
Ntp136
Rp137
(dp138
g7
V072
p139
sg9
VTentacool
p140
sg11
VRu,S,E,
p141
sg13
VFish Old
p142
sg15
g113
sg17
V10
p143
sg19
V30
p144
sbag1
(g2
g3
Ntp145
Rp146
(dp147
g7
V129
p148
sg9
VMagikarp
p149
sg11
VRu,S,E,
p150
sg13
VFish Old
p151
sg15
g113
sg17
V10
p152
sg19
V70
p153
sbag1
(g2
g3
Ntp154
Rp155
(dp156
g7
V072
p157
sg9
VTentacool
p158
sg11
VRu,S,E,
p159
sg13
VFish Good
p160
sg15
V10
p161
sg17
V30
p162
sg19
V20
p163
sbag1
(g2
g3
Ntp164
Rp165
(dp166
g7
V129
p167
sg9
VMagikarp
p168
sg11
VRu,S,E,
p169
sg13
VFish Good
p170
sg15
V10
p171
sg17
V30
p172
sg19
V60
p173
sbag1
(g2
g3
Ntp174
Rp175
(dp176
g7
V320
p177
sg9
VWailmer
p178
sg11
VRu,S,E,
p179
sg13
VFish Good
p180
sg15
V10
p181
sg17
V30
p182
sg19
V20
p183
sbag1
(g2
g3
Ntp184
Rp185
(dp186
g7
V320
p187
sg9
VWailmer
p188
sg11
VRu,S,E,
p189
sg13
VFish Super
p190
sg15
V20
p191
sg17
V45
p192
sg19
V100
p193
sbag1
(g2
g3
Ntp194
Rp195
(dp196
g7
V044
p197
sg9
VGloom
p198
sg11
VOR,AS,
p199
sg13
VGrass
p200
sg15
V28
p201
sg17
V30
p202
sg19
V30
p203
sbag1
(g2
g3
Ntp204
Rp205
(dp206
g7
V264
p207
sg9
VLinoone
p208
sg11
VOR,AS,
p209
sg13
VGrass
p210
sg15
V28
p211
sg17
V30
p212
sg19
V30
p213
sbag1
(g2
g3
Ntp214
Rp215
(dp216
g7
V279
p217
sg9
VPelipper
p218
sg11
VOR,AS,
p219
sg13
VGrass
p220
sg15
V30
p221
sg17
g221
sg19
V5
p222
sbag1
(g2
g3
Ntp223
Rp224
(dp225
g7
V352
p226
sg9
VKecleon
p227
sg11
VOR,AS,
p228
sg13
VGrass
p229
sg15
V30
p230
sg17
g230
sg19
V5
p231
sbag1
(g2
g3
Ntp232
Rp233
(dp234
g7
V353
p235
sg9
VShuppet
p236
sg11
VOR,AS,
p237
sg13
VGrass
p238
sg15
V27
p239
sg17
V29
p240
sg19
V30
p241
sbag1
(g2
g3
Ntp242
Rp243
(dp244
g7
V044
p245
sg9
VGloom
p246
sg11
VOR,AS,
p247
sg13
VTall grass
p248
sg15
V28
p249
sg17
V30
p250
sg19
V30
p251
sbag1
(g2
g3
Ntp252
Rp253
(dp254
g7
V264
p255
sg9
VLinoone
p256
sg11
VOR,AS,
p257
sg13
VTall grass
p258
sg15
V28
p259
sg17
V30
p260
sg19
V30
p261
sbag1
(g2
g3
Ntp262
Rp263
(dp264
g7
V279
p265
sg9
VPelipper
p266
sg11
VOR,AS,
p267
sg13
VTall grass
p268
sg15
V30
p269
sg17
g269
sg19
V5
p270
sbag1
(g2
g3
Ntp271
Rp272
(dp273
g7
V352
p274
sg9
VKecleon
p275
sg11
VOR,AS,
p276
sg13
VTall grass
p277
sg15
V30
p278
sg17
g278
sg19
V5
p279
sbag1
(g2
g3
Ntp280
Rp281
(dp282
g7
V353
p283
sg9
VShuppet
p284
sg11
VOR,AS,
p285
sg13
VTall grass
p286
sg15
V27
p287
sg17
V29
p288
sg19
V30
p289
sbag1
(g2
g3
Ntp290
Rp291
(dp292
g7
V278
p293
sg9
VWingull
p294
sg11
VOR,AS,
p295
sg13
VGrass
p296
sg15
V15
p297
sg17
g297
sg19
V35
p298
sbag1
(g2
g3
Ntp299
Rp300
(dp301
g7
V352
p302
sg9
VKecleon
p303
sg11
VOR,AS,
p304
sg13
VGrass
p305
sg15
V15
p306
sg17
g306
sg19
V5
p307
sbag1
(g2
g3
Ntp308
Rp309
(dp310
g7
V353
p311
sg9
VShuppet
p312
sg11
VOR,AS,
p313
sg13
VGrass
p314
sg15
V15
p315
sg17
g315
sg19
V60
p316
sbag1
(g2
g3
Ntp317
Rp318
(dp319
g7
V278
p320
sg9
VWingull
p321
sg11
VOR,AS,
p322
sg13
VTall grass
p323
sg15
V15
p324
sg17
g324
sg19
V35
p325
sbag1
(g2
g3
Ntp326
Rp327
(dp328
g7
V352
p329
sg9
VKecleon
p330
sg11
VOR,AS,
p331
sg13
VTall grass
p332
sg15
V15
p333
sg17
g333
sg19
V5
p334
sbag1
(g2
g3
Ntp335
Rp336
(dp337
g7
V353
p338
sg9
VShuppet
p339
sg11
VOR,AS,
p340
sg13
VTall grass
p341
sg15
V15
p342
sg17
g342
sg19
V60
p343
sbag1
(g2
g3
Ntp344
Rp345
(dp346
g7
V097
p347
sg9
VHypno
p348
sg11
VOR,AS,
p349
sg13
VGrass
p350
sg15
V30
p351
sg17
g351
sg19
V0
p352
sbag1
(g2
g3
Ntp353
Rp354
(dp355
g7
V190
p356
sg9
VAipom
p357
sg11
VOR,AS,
p358
sg13
VGrass
p359
sg15
V30
p360
sg17
g360
sg19
V0
p361
sbag1
(g2
g3
Ntp362
Rp363
(dp364
g7
V605
p365
sg9
VElgyem
p366
sg11
VOR,AS,
p367
sg13
VGrass
p368
sg15
V30
p369
sg17
g369
sg19
V0
p370
sbag1
(g2
g3
Ntp371
Rp372
(dp373
g7
V097
p374
sg9
VHypno
p375
sg11
VOR,AS,
p376
sg13
VTall grass
p377
sg15
V30
p378
sg17
g378
sg19
V0
p379
sbag1
(g2
g3
Ntp380
Rp381
(dp382
g7
V190
p383
sg9
VAipom
p384
sg11
VOR,AS,
p385
sg13
VTall grass
p386
sg15
V30
p387
sg17
g387
sg19
V0
p388
sbag1
(g2
g3
Ntp389
Rp390
(dp391
g7
V605
p392
sg9
VElgyem
p393
sg11
VOR,AS,
p394
sg13
VTall grass
p395
sg15
V30
p396
sg17
g396
sg19
V0
p397
sba.