(lp0
ccopy_reg
_reconstructor
p1
(c__main__
WildPokemon
p2
c__builtin__
object
p3
Ntp4
Rp5
(dp6
VpDexNo
p7
V270
p8
sVpSpecies
p9
VLotad
p10
sVpGames
p11
VS,E,
p12
sVpArea
p13
VGrass
p14
sVpMinLevel
p15
V15
p16
sVpMaxLevel
p17
V16
p18
sVpRate
p19
V30
p20
sbag1
(g2
g3
Ntp21
Rp22
(dp23
g7
V271
p24
sg9
VLombre
p25
sg11
VS,
p26
sg13
VGrass
p27
sg15
V16
p28
sg17
V18
p29
sg19
V10
p30
sbag1
(g2
g3
Ntp31
Rp32
(dp33
g7
V271
p34
sg9
VLombre
p35
sg11
VE,
p36
sg13
VGrass
p37
sg15
V16
p38
sg17
V18
p39
sg19
V20
p40
sbag1
(g2
g3
Ntp41
Rp42
(dp43
g7
V273
p44
sg9
VSeedot
p45
sg11
VRu,
p46
sg13
VGrass
p47
sg15
V15
p48
sg17
V16
p49
sg19
V30
p50
sbag1
(g2
g3
Ntp51
Rp52
(dp53
g7
V274
p54
sg9
VNuzleaf
p55
sg11
g46
sg13
VGrass
p56
sg15
V16
p57
sg17
V18
p58
sg19
V10
p59
sbag1
(g2
g3
Ntp60
Rp61
(dp62
g7
V274
p63
sg9
VNuzleaf
p64
sg11
g36
sg13
VGrass
p65
sg15
V15
p66
sg17
g66
sg19
V1
p67
sbag1
(g2
g3
Ntp68
Rp69
(dp70
g7
V283
p71
sg9
VSurskit
p72
sg11
VRu,S,
p73
sg13
VGrass
p74
sg15
V15
p75
sg17
g75
sg19
V1
p76
sbag1
(g2
g3
Ntp77
Rp78
(dp79
g7
V333
p80
sg9
VSwablu
p81
sg11
VRu,S,E,
p82
sg13
VGrass
p83
sg15
V15
p84
sg17
V17
p85
sg19
V40
p86
sbag1
(g2
g3
Ntp87
Rp88
(dp89
g7
V335
p90
sg9
VZangoose
p91
sg11
g46
sg13
VGrass
p92
sg15
V15
p93
sg17
V17
p94
sg19
V19
p95
sbag1
(g2
g3
Ntp96
Rp97
(dp98
g7
V336
p99
sg9
VSeviper
p100
sg11
g26
sg13
VGrass
p101
sg15
V15
p102
sg17
V17
p103
sg19
V19
p104
sbag1
(g2
g3
Ntp105
Rp106
(dp107
g7
V336
p108
sg9
VSeviper
p109
sg11
g36
sg13
VGrass
p110
sg15
V15
p111
sg17
V17
p112
sg19
V9
p113
sbag1
(g2
g3
Ntp114
Rp115
(dp116
g7
V074
p117
sg9
VGeodude
p118
sg11
VRu,S,E,
p119
sg13
VRock Smash
p120
sg15
V5
p121
sg17
V20
p122
sg19
V100
p123
sbag1
(g2
g3
Ntp124
Rp125
(dp126
g7
V118
p127
sg9
VGoldeen
p128
sg11
g36
sg13
VSurf
p129
sg15
V20
p130
sg17
V30
p131
sg19
V1
p132
sbag1
(g2
g3
Ntp133
Rp134
(dp135
g7
V183
p136
sg9
VMarill
p137
sg11
VRu,S,E,
p138
sg13
VSurf
p139
sg15
g121
sg17
V35
p140
sg19
V99
p141
sbag1
(g2
g3
Ntp142
Rp143
(dp144
g7
V283
p145
sg9
VSurskit
p146
sg11
VRu,S,
p147
sg13
VSurf
p148
sg15
V20
p149
sg17
V30
p150
sg19
V1
p151
sbag1
(g2
g3
Ntp152
Rp153
(dp154
g7
V118
p155
sg9
VGoldeen
p156
sg11
VRu,S,E,
p157
sg13
VFish Old
p158
sg15
g121
sg17
V10
p159
sg19
V30
p160
sbag1
(g2
g3
Ntp161
Rp162
(dp163
g7
V129
p164
sg9
VMagikarp
p165
sg11
VRu,S,E,
p166
sg13
VFish Old
p167
sg15
g121
sg17
V10
p168
sg19
V70
p169
sbag1
(g2
g3
Ntp170
Rp171
(dp172
g7
V118
p173
sg9
VGoldeen
p174
sg11
VRu,S,E,
p175
sg13
VFish Good
p176
sg15
V10
p177
sg17
V30
p178
sg19
V20
p179
sbag1
(g2
g3
Ntp180
Rp181
(dp182
g7
V129
p183
sg9
VMagikarp
p184
sg11
VRu,S,E,
p185
sg13
VFish Good
p186
sg15
V10
p187
sg17
V30
p188
sg19
V60
p189
sbag1
(g2
g3
Ntp190
Rp191
(dp192
g7
V339
p193
sg9
VBarboach
p194
sg11
VRu,S,E,
p195
sg13
VFish Good
p196
sg15
V10
p197
sg17
V30
p198
sg19
V20
p199
sbag1
(g2
g3
Ntp200
Rp201
(dp202
g7
V339
p203
sg9
VBarboach
p204
sg11
VRu,S,E,
p205
sg13
VFish Super
p206
sg15
V20
p207
sg17
V45
p208
sg19
V100
p209
sbag1
(g2
g3
Ntp210
Rp211
(dp212
g7
V283
p213
sg9
VSurskit
p214
sg11
VRu,S,
p215
sg13
VSwarm
p216
sg15
V15
p217
sg17
g217
sg19
V50
p218
sbag1
(g2
g3
Ntp219
Rp220
(dp221
g7
V274
p222
sg9
VNuzleaf
p223
sg11
g36
sg13
VSwarm
p224
sg15
V15
p225
sg17
g225
sg19
V50
p226
sbag1
(g2
g3
Ntp227
Rp228
(dp229
g7
V271
p230
sg9
VLombre
p231
sg11
VAS,
p232
sg13
VGrass
p233
sg15
V16
p234
sg17
V19
p235
sg19
V40
p236
sbag1
(g2
g3
Ntp237
Rp238
(dp239
g7
V274
p240
sg9
VNuzleaf
p241
sg11
VOR,
p242
sg13
VGrass
p243
sg15
V16
p244
sg17
V19
p245
sg19
V40
p246
sbag1
(g2
g3
Ntp247
Rp248
(dp249
g7
V283
p250
sg9
VSurskit
p251
sg11
VOR,AS,
p252
sg13
VGrass
p253
sg15
V19
p254
sg17
g254
sg19
V1
p255
sbag1
(g2
g3
Ntp256
Rp257
(dp258
g7
V333
p259
sg9
VSwablu
p260
sg11
VOR,AS,
p261
sg13
VGrass
p262
sg15
V16
p263
sg17
V19
p264
sg19
V40
p265
sbag1
(g2
g3
Ntp266
Rp267
(dp268
g7
V335
p269
sg9
VZangoose
p270
sg11
g242
sg13
VGrass
p271
sg15
V17
p272
sg17
V19
p273
sg19
V19
p274
sbag1
(g2
g3
Ntp275
Rp276
(dp277
g7
V336
p278
sg9
VSeviper
p279
sg11
g232
sg13
VGrass
p280
sg15
V17
p281
sg17
V19
p282
sg19
V19
p283
sbag1
(g2
g3
Ntp284
Rp285
(dp286
g7
V270
p287
sg9
VLotad
p288
sg11
g232
sg13
VHorde Encounter
p289
sg15
V9
p290
sg17
g290
sg19
V0
p291
sbag1
(g2
g3
Ntp292
Rp293
(dp294
g7
V273
p295
sg9
VSeedot
p296
sg11
g242
sg13
VHorde Encounter
p297
sg15
g290
sg17
g290
sg19
V35
p298
sbag1
(g2
g3
Ntp299
Rp300
(dp301
g7
V333
p302
sg9
VSwablu
p303
sg11
g232
sg13
VHorde Encounter
p304
sg15
g290
sg17
g290
sg19
V0
p305
sbag1
(g2
g3
Ntp306
Rp307
(dp308
g7
V333
p309
sg9
VSwablu
p310
sg11
VOR,AS,
p311
sg13
VHorde Encounter
p312
sg15
g290
sg17
g290
sg19
V65
p313
sbag1
(g2
g3
Ntp314
Rp315
(dp316
g7
V200
p317
sg9
VMisdreavus
p318
sg11
VOR,AS,
p319
sg13
VGrass
p320
sg15
V19
p321
sg17
g321
sg19
V0
p322
sbag1
(g2
g3
Ntp323
Rp324
(dp325
g7
V451
p326
sg9
VSkorupi
p327
sg11
VOR,AS,
p328
sg13
VGrass
p329
sg15
V19
p330
sg17
g330
sg19
V0
p331
sbag1
(g2
g3
Ntp332
Rp333
(dp334
g7
V535
p335
sg9
VTympole
p336
sg11
VOR,AS,
p337
sg13
VGrass
p338
sg15
V19
p339
sg17
g339
sg19
V0
p340
sbag1
(g2
g3
Ntp341
Rp342
(dp343
g7
V183
p344
sg9
VMarill
p345
sg11
VOR,AS,
p346
sg13
VSurf
p347
sg15
V15
p348
sg17
g348
sg19
V50
p349
sbag1
(g2
g3
Ntp350
Rp351
(dp352
g7
V184
p353
sg9
VAzumarill
p354
sg11
VOR,AS,
p355
sg13
VSurf
p356
sg15
V20
p357
sg17
V25
p358
sg19
V31
p359
sbag1
(g2
g3
Ntp360
Rp361
(dp362
g7
V283
p363
sg9
VSurskit
p364
sg11
VOR,AS,
p365
sg13
VSurf
p366
sg15
V20
p367
sg17
g367
sg19
V15
p368
sbag1
(g2
g3
Ntp369
Rp370
(dp371
g7
V284
p372
sg9
VMasquerain
p373
sg11
VOR,AS,
p374
sg13
VSurf
p375
sg15
V25
p376
sg17
g376
sg19
V4
p377
sbag1
(g2
g3
Ntp378
Rp379
(dp380
g7
V118
p381
sg9
VGoldeen
p382
sg11
VOR,AS,
p383
sg13
VFish Old
p384
sg15
g121
sg17
g121
sg19
V35
p385
sbag1
(g2
g3
Ntp386
Rp387
(dp388
g7
V129
p389
sg9
VMagikarp
p390
sg11
VOR,AS,
p391
sg13
VFish Old
p392
sg15
V10
p393
sg17
V15
p394
sg19
V65
p395
sbag1
(g2
g3
Ntp396
Rp397
(dp398
g7
V118
p399
sg9
VGoldeen
p400
sg11
VOR,AS,
p401
sg13
VFish Good
p402
sg15
V25
p403
sg17
g403
sg19
V35
p404
sbag1
(g2
g3
Ntp405
Rp406
(dp407
g7
V129
p408
sg9
VMagikarp
p409
sg11
VOR,AS,
p410
sg13
VFish Good
p411
sg15
V25
p412
sg17
g412
sg19
V60
p413
sbag1
(g2
g3
Ntp414
Rp415
(dp416
g7
V339
p417
sg9
VBarboach
p418
sg11
VOR,AS,
p419
sg13
VFish Good
p420
sg15
V25
p421
sg17
g421
sg19
V5
p422
sbag1
(g2
g3
Ntp423
Rp424
(dp425
g7
V339
p426
sg9
VBarboach
p427
sg11
VOR,AS,
p428
sg13
VFish Super
p429
sg15
V30
p430
sg17
V40
p431
sg19
V100
p432
sbag1
(g2
g3
Ntp433
Rp434
(dp435
g7
V074
p436
sg9
VGeodude
p437
sg11
VOR,AS,
p438
sg13
VRock Smash
p439
sg15
g121
sg17
V20
p440
sg19
V100
p441
sba.