(lp0
ccopy_reg
_reconstructor
p1
(c__main__
WildPokemon
p2
c__builtin__
object
p3
Ntp4
Rp5
(dp6
VpDexNo
p7
V072
p8
sVpSpecies
p9
VTentacool
p10
sVpGames
p11
VRu,S,E,
p12
sVpArea
p13
VSurf
p14
sVpMinLevel
p15
V5
p16
sVpMaxLevel
p17
V35
p18
sVpRate
p19
V60
p20
sbag1
(g2
g3
Ntp21
Rp22
(dp23
g7
V278
p24
sg9
VWingull
p25
sg11
VRu,S,E,
p26
sg13
VSurf
p27
sg15
V10
p28
sg17
V30
p29
sg19
V35
p30
sbag1
(g2
g3
Ntp31
Rp32
(dp33
g7
V279
p34
sg9
VPelipper
p35
sg11
VRu,S,E,
p36
sg13
VSurf
p37
sg15
V25
p38
sg17
V30
p39
sg19
V5
p40
sbag1
(g2
g3
Ntp41
Rp42
(dp43
g7
V072
p44
sg9
VTentacool
p45
sg11
VRu,S,E,
p46
sg13
VFish Old
p47
sg15
g16
sg17
V10
p48
sg19
V30
p49
sbag1
(g2
g3
Ntp50
Rp51
(dp52
g7
V129
p53
sg9
VMagikarp
p54
sg11
VRu,S,E,
p55
sg13
VFish Old
p56
sg15
g16
sg17
V10
p57
sg19
V70
p58
sbag1
(g2
g3
Ntp59
Rp60
(dp61
g7
V072
p62
sg9
VTentacool
p63
sg11
VRu,S,E,
p64
sg13
VFish Good
p65
sg15
V10
p66
sg17
V30
p67
sg19
V20
p68
sbag1
(g2
g3
Ntp69
Rp70
(dp71
g7
V129
p72
sg9
VMagikarp
p73
sg11
VRu,S,E,
p74
sg13
VFish Good
p75
sg15
V10
p76
sg17
V30
p77
sg19
V60
p78
sbag1
(g2
g3
Ntp79
Rp80
(dp81
g7
V320
p82
sg9
VWailmer
p83
sg11
VRu,S,E,
p84
sg13
VFish Good
p85
sg15
V10
p86
sg17
V30
p87
sg19
V20
p88
sbag1
(g2
g3
Ntp89
Rp90
(dp91
g7
V319
p92
sg9
VSharpedo
p93
sg11
VRu,S,E,
p94
sg13
VFish Super
p95
sg15
V30
p96
sg17
V35
p97
sg19
V40
p98
sbag1
(g2
g3
Ntp99
Rp100
(dp101
g7
V320
p102
sg9
VWailmer
p103
sg11
VRu,S,E,
p104
sg13
VFish Super
p105
sg15
V25
p106
sg17
V45
p107
sg19
V60
p108
sbag1
(g2
g3
Ntp109
Rp110
(dp111
g7
V170
p112
sg9
VChinchou
p113
sg11
VRu,S,E,
p114
sg13
VDive
p115
sg15
V20
p116
sg17
V30
p117
sg19
V30
p118
sbag1
(g2
g3
Ntp119
Rp120
(dp121
g7
V366
p122
sg9
VClamperl
p123
sg11
VRu,S,E,
p124
sg13
VDive
p125
sg15
V20
p126
sg17
V35
p127
sg19
V65
p128
sbag1
(g2
g3
Ntp129
Rp130
(dp131
g7
V369
p132
sg9
VRelicanth
p133
sg11
VRu,S,E,
p134
sg13
VDive
p135
sg15
V30
p136
sg17
V35
p137
sg19
V5
p138
sbag1
(g2
g3
Ntp139
Rp140
(dp141
g7
V072
p142
sg9
VTentacool
p143
sg11
VOR,AS,
p144
sg13
VSurf
p145
sg15
V25
p146
sg17
g146
sg19
V50
p147
sbag1
(g2
g3
Ntp148
Rp149
(dp150
g7
V073
p151
sg9
VTentacruel
p152
sg11
VOR,AS,
p153
sg13
VSurf
p154
sg15
V30
p155
sg17
g155
sg19
V15
p156
sbag1
(g2
g3
Ntp157
Rp158
(dp159
g7
V279
p160
sg9
VPelipper
p161
sg11
VOR,AS,
p162
sg13
VSurf
p163
sg15
V25
p164
sg17
V35
p165
sg19
V35
p166
sbag1
(g2
g3
Ntp167
Rp168
(dp169
g7
V456
p170
sg9
VFinneon
p171
sg11
VOR,AS,
p172
sg13
VSurf
p173
sg15
V30
p174
sg17
g174
sg19
V0
p175
sbag1
(g2
g3
Ntp176
Rp177
(dp178
g7
V592
p179
sg9
VFrillish
p180
sg11
VOR,AS,
p181
sg13
VSurf
p182
sg15
V30
p183
sg17
g183
sg19
V0
p184
sbag1
(g2
g3
Ntp185
Rp186
(dp187
g7
V594
p188
sg9
VAlomomola
p189
sg11
VOR,AS,
p190
sg13
VSurf
p191
sg15
V30
p192
sg17
g192
sg19
V0
p193
sbag1
(g2
g3
Ntp194
Rp195
(dp196
g7
V072
p197
sg9
VTentacool
p198
sg11
VOR,AS,
p199
sg13
VFish Old
p200
sg15
g16
sg17
g16
sg19
V35
p201
sbag1
(g2
g3
Ntp202
Rp203
(dp204
g7
V129
p205
sg9
VMagikarp
p206
sg11
VOR,AS,
p207
sg13
VFish Old
p208
sg15
V10
p209
sg17
V15
p210
sg19
V65
p211
sbag1
(g2
g3
Ntp212
Rp213
(dp214
g7
V072
p215
sg9
VTentacool
p216
sg11
VOR,AS,
p217
sg13
VFish Good
p218
sg15
V25
p219
sg17
g219
sg19
V35
p220
sbag1
(g2
g3
Ntp221
Rp222
(dp223
g7
V129
p224
sg9
VMagikarp
p225
sg11
VOR,AS,
p226
sg13
VFish Good
p227
sg15
V25
p228
sg17
g228
sg19
V60
p229
sbag1
(g2
g3
Ntp230
Rp231
(dp232
g7
V320
p233
sg9
VWailmer
p234
sg11
VOR,AS,
p235
sg13
VFish Good
p236
sg15
V25
p237
sg17
g237
sg19
V5
p238
sbag1
(g2
g3
Ntp239
Rp240
(dp241
g7
V320
p242
sg9
VWailmer
p243
sg11
VOR,AS,
p244
sg13
VFish Super
p245
sg15
V30
p246
sg17
V40
p247
sg19
V100
p248
sbag1
(g2
g3
Ntp249
Rp250
(dp251
g7
V170
p252
sg9
VChinchou
p253
sg11
VOR,AS,
p254
sg13
VSeaweed
p255
sg15
V25
p256
sg17
g256
sg19
V50
p257
sbag1
(g2
g3
Ntp258
Rp259
(dp260
g7
V171
p261
sg9
VLanturn
p262
sg11
VOR,AS,
p263
sg13
VSeaweed
p264
sg15
V30
p265
sg17
g265
sg19
V15
p266
sbag1
(g2
g3
Ntp267
Rp268
(dp269
g7
V366
p270
sg9
VClamperl
p271
sg11
VOR,AS,
p272
sg13
VSeaweed
p273
sg15
V30
p274
sg17
g274
sg19
V30
p275
sbag1
(g2
g3
Ntp276
Rp277
(dp278
g7
V369
p279
sg9
VRelicanth
p280
sg11
VOR,AS,
p281
sg13
VSeaweed
p282
sg15
V30
p283
sg17
V35
p284
sg19
V5
p285
sba.