(lp0
ccopy_reg
_reconstructor
p1
(c__main__
WildPokemon
p2
c__builtin__
object
p3
Ntp4
Rp5
(dp6
VpDexNo
p7
V027
p8
sVpSpecies
p9
VSandshrew
p10
sVpGames
p11
VRu,S,E,
p12
sVpArea
p13
VSand
p14
sVpMinLevel
p15
V19
p16
sVpMaxLevel
p17
V21
p18
sVpRate
p19
V35
p20
sbag1
(g2
g3
Ntp21
Rp22
(dp23
g7
V328
p24
sg9
VTrapinch
p25
sg11
VRu,S,E,
p26
sg13
VSand
p27
sg15
V19
p28
sg17
V21
p29
sg19
V35
p30
sbag1
(g2
g3
Ntp31
Rp32
(dp33
g7
V331
p34
sg9
VCacnea
p35
sg11
VRu,S,
p36
sg13
VSand
p37
sg15
V19
p38
sg17
V21
p39
sg19
V20
p40
sbag1
(g2
g3
Ntp41
Rp42
(dp43
g7
V331
p44
sg9
VCacnea
p45
sg11
VE,
p46
sg13
VSand
p47
sg15
V20
p48
sg17
V22
p49
sg19
V6
p50
sbag1
(g2
g3
Ntp51
Rp52
(dp53
g7
V343
p54
sg9
VBaltoy
p55
sg11
VRu,S,
p56
sg13
VSand
p57
sg15
V20
p58
sg17
V22
p59
sg19
V10
p60
sbag1
(g2
g3
Ntp61
Rp62
(dp63
g7
V343
p64
sg9
VBaltoy
p65
sg11
g46
sg13
VSand
p66
sg15
V19
p67
sg17
V21
p68
sg19
V24
p69
sbag1
(g2
g3
Ntp70
Rp71
(dp72
g7
V074
p73
sg9
VGeodude
p74
sg11
VRu,S,E,
p75
sg13
VRock Smash
p76
sg15
V5
p77
sg17
V20
p78
sg19
V100
p79
sbag1
(g2
g3
Ntp80
Rp81
(dp82
g7
V118
p83
sg9
VGoldeen
p84
sg11
g46
sg13
VSurf
p85
sg15
V20
p86
sg17
V30
p87
sg19
V1
p88
sbag1
(g2
g3
Ntp89
Rp90
(dp91
g7
V183
p92
sg9
VMarill
p93
sg11
VRu,S,E,
p94
sg13
VSurf
p95
sg15
g77
sg17
V35
p96
sg19
V99
p97
sbag1
(g2
g3
Ntp98
Rp99
(dp100
g7
V283
p101
sg9
VSurskit
p102
sg11
VRu,S,
p103
sg13
VSurf
p104
sg15
V20
p105
sg17
V30
p106
sg19
V1
p107
sbag1
(g2
g3
Ntp108
Rp109
(dp110
g7
V118
p111
sg9
VGoldeen
p112
sg11
VRu,S,E,
p113
sg13
VFish Old
p114
sg15
g77
sg17
V10
p115
sg19
V30
p116
sbag1
(g2
g3
Ntp117
Rp118
(dp119
g7
V129
p120
sg9
VMagikarp
p121
sg11
VRu,S,E,
p122
sg13
VFish Old
p123
sg15
g77
sg17
V10
p124
sg19
V70
p125
sbag1
(g2
g3
Ntp126
Rp127
(dp128
g7
V118
p129
sg9
VGoldeen
p130
sg11
VRu,S,E,
p131
sg13
VFish Good
p132
sg15
V10
p133
sg17
V30
p134
sg19
V20
p135
sbag1
(g2
g3
Ntp136
Rp137
(dp138
g7
V129
p139
sg9
VMagikarp
p140
sg11
VRu,S,E,
p141
sg13
VFish Good
p142
sg15
V10
p143
sg17
V30
p144
sg19
V60
p145
sbag1
(g2
g3
Ntp146
Rp147
(dp148
g7
V339
p149
sg9
VBarboach
p150
sg11
VRu,S,E,
p151
sg13
VFish Good
p152
sg15
V10
p153
sg17
V30
p154
sg19
V20
p155
sbag1
(g2
g3
Ntp156
Rp157
(dp158
g7
V339
p159
sg9
VBarboach
p160
sg11
VRu,S,E,
p161
sg13
VFish Super
p162
sg15
V20
p163
sg17
V45
p164
sg19
V100
p165
sbag1
(g2
g3
Ntp166
Rp167
(dp168
g7
V074
p169
sg9
VGeodude
p170
sg11
VOR,AS,
p171
sg13
VRock Smash
p172
sg15
V13
p173
sg17
V16
p174
sg19
V100
p175
sbag1
(g2
g3
Ntp176
Rp177
(dp178
g7
V183
p179
sg9
VMarill
p180
sg11
VOR,AS,
p181
sg13
VSurf
p182
sg15
V15
p183
sg17
g183
sg19
V50
p184
sbag1
(g2
g3
Ntp185
Rp186
(dp187
g7
V184
p188
sg9
VAzumarill
p189
sg11
VOR,AS,
p190
sg13
VSurf
p191
sg15
V20
p192
sg17
V25
p193
sg19
V31
p194
sbag1
(g2
g3
Ntp195
Rp196
(dp197
g7
V283
p198
sg9
VSurskit
p199
sg11
VOR,AS,
p200
sg13
VSurf
p201
sg15
V20
p202
sg17
g202
sg19
V15
p203
sbag1
(g2
g3
Ntp204
Rp205
(dp206
g7
V284
p207
sg9
VMasquerain
p208
sg11
VOR,AS,
p209
sg13
VSurf
p210
sg15
V25
p211
sg17
g211
sg19
V4
p212
sbag1
(g2
g3
Ntp213
Rp214
(dp215
g7
V118
p216
sg9
VGoldeen
p217
sg11
VOR,AS,
p218
sg13
VFish Old
p219
sg15
g77
sg17
g77
sg19
V35
p220
sbag1
(g2
g3
Ntp221
Rp222
(dp223
g7
V129
p224
sg9
VMagikarp
p225
sg11
VOR,AS,
p226
sg13
VFish Old
p227
sg15
V10
p228
sg17
V15
p229
sg19
V65
p230
sbag1
(g2
g3
Ntp231
Rp232
(dp233
g7
V118
p234
sg9
VGoldeen
p235
sg11
VOR,AS,
p236
sg13
VFish Good
p237
sg15
V25
p238
sg17
g238
sg19
V35
p239
sbag1
(g2
g3
Ntp240
Rp241
(dp242
g7
V129
p243
sg9
VMagikarp
p244
sg11
VOR,AS,
p245
sg13
VFish Good
p246
sg15
V25
p247
sg17
g247
sg19
V60
p248
sbag1
(g2
g3
Ntp249
Rp250
(dp251
g7
V339
p252
sg9
VBarboach
p253
sg11
VOR,AS,
p254
sg13
VFish Good
p255
sg15
V25
p256
sg17
g256
sg19
V5
p257
sbag1
(g2
g3
Ntp258
Rp259
(dp260
g7
V339
p261
sg9
VBarboach
p262
sg11
VOR,AS,
p263
sg13
VFish Super
p264
sg15
V30
p265
sg17
V40
p266
sg19
V100
p267
sbag1
(g2
g3
Ntp268
Rp269
(dp270
g7
V027
p271
sg9
VSandshrew
p272
sg11
VOR,AS,
p273
sg13
VSand
p274
sg15
V20
p275
sg17
V23
p276
sg19
V40
p277
sbag1
(g2
g3
Ntp278
Rp279
(dp280
g7
V328
p281
sg9
VTrapinch
p282
sg11
VOR,AS,
p283
sg13
VSand
p284
sg15
V20
p285
sg17
V22
p286
sg19
V20
p287
sbag1
(g2
g3
Ntp288
Rp289
(dp290
g7
V331
p291
sg9
VCacnea
p292
sg11
VOR,AS,
p293
sg13
VSand
p294
sg15
V21
p295
sg17
V23
p296
sg19
V20
p297
sbag1
(g2
g3
Ntp298
Rp299
(dp300
g7
V343
p301
sg9
VBaltoy
p302
sg11
VOR,AS,
p303
sg13
VSand
p304
sg15
V21
p305
sg17
V23
p306
sg19
V20
p307
sbag1
(g2
g3
Ntp308
Rp309
(dp310
g7
V027
p311
sg9
VSandshrew
p312
sg11
VOR,AS,
p313
sg13
VHorde Encounter
p314
sg15
V11
p315
sg17
g315
sg19
V100
p316
sbag1
(g2
g3
Ntp317
Rp318
(dp319
g7
V443
p320
sg9
VGible
p321
sg11
VOR,AS,
p322
sg13
VSand
p323
sg15
V23
p324
sg17
g324
sg19
V0
p325
sbag1
(g2
g3
Ntp326
Rp327
(dp328
g7
V551
p329
sg9
VSandile
p330
sg11
VOR,AS,
p331
sg13
VSand
p332
sg15
V23
p333
sg17
g333
sg19
V0
p334
sbag1
(g2
g3
Ntp335
Rp336
(dp337
g7
V557
p338
sg9
VDwebble
p339
sg11
VOR,AS,
p340
sg13
VSand
p341
sg15
V23
p342
sg17
g342
sg19
V0
p343
sba.