(lp0
ccopy_reg
_reconstructor
p1
(c__main__
WildPokemon
p2
c__builtin__
object
p3
Ntp4
Rp5
(dp6
VpDexNo
p7
V043
p8
sVpSpecies
p9
VOddish
p10
sVpGames
p11
VRu,S,E,
p12
sVpArea
p13
VGrass
p14
sVpMinLevel
p15
V26
p16
sVpMaxLevel
p17
V28
p18
sVpRate
p19
V15
p20
sbag1
(g2
g3
Ntp21
Rp22
(dp23
g7
V044
p24
sg9
VGloom
p25
sg11
VRu,S,E,
p26
sg13
VGrass
p27
sg15
V28
p28
sg17
g28
sg19
V5
p29
sbag1
(g2
g3
Ntp30
Rp31
(dp32
g7
V261
p33
sg9
VPoochyena
p34
sg11
VE,
p35
sg13
VGrass
p36
sg15
V26
p37
sg17
g37
sg19
V20
p38
sbag1
(g2
g3
Ntp39
Rp40
(dp41
g7
V262
p42
sg9
VMightyena
p43
sg11
g35
sg13
VGrass
p44
sg15
V26
p45
sg17
V28
p46
sg19
V20
p47
sbag1
(g2
g3
Ntp48
Rp49
(dp50
g7
V263
p51
sg9
VZigzagoon
p52
sg11
VRu,S,
p53
sg13
VGrass
p54
sg15
V26
p55
sg17
g55
sg19
V20
p56
sbag1
(g2
g3
Ntp57
Rp58
(dp59
g7
V264
p60
sg9
VLinoone
p61
sg11
VRu,S,
p62
sg13
VGrass
p63
sg15
V26
p64
sg17
V28
p65
sg19
V20
p66
sbag1
(g2
g3
Ntp67
Rp68
(dp69
g7
V278
p70
sg9
VWingull
p71
sg11
VRu,S,E,
p72
sg13
VGrass
p73
sg15
V26
p74
sg17
V28
p75
sg19
V9
p76
sbag1
(g2
g3
Ntp77
Rp78
(dp79
g7
V352
p80
sg9
VKecleon
p81
sg11
VRu,S,E,
p82
sg13
VGrass
p83
sg15
V25
p84
sg17
g84
sg19
V1
p85
sbag1
(g2
g3
Ntp86
Rp87
(dp88
g7
V353
p89
sg9
VShuppet
p90
sg11
VS,E,
p91
sg13
VGrass
p92
sg15
V26
p93
sg17
V28
p94
sg19
V30
p95
sbag1
(g2
g3
Ntp96
Rp97
(dp98
g7
V355
p99
sg9
VDuskull
p100
sg11
VRu,
p101
sg13
VGrass
p102
sg15
V26
p103
sg17
V28
p104
sg19
V30
p105
sbag1
(g2
g3
Ntp106
Rp107
(dp108
g7
V072
p109
sg9
VTentacool
p110
sg11
VRu,S,E,
p111
sg13
VSurf
p112
sg15
V5
p113
sg17
V35
p114
sg19
V60
p115
sbag1
(g2
g3
Ntp116
Rp117
(dp118
g7
V278
p119
sg9
VWingull
p120
sg11
VRu,S,E,
p121
sg13
VSurf
p122
sg15
V10
p123
sg17
V30
p124
sg19
V35
p125
sbag1
(g2
g3
Ntp126
Rp127
(dp128
g7
V279
p129
sg9
VPelipper
p130
sg11
VRu,S,E,
p131
sg13
VSurf
p132
sg15
V25
p133
sg17
V30
p134
sg19
V5
p135
sbag1
(g2
g3
Ntp136
Rp137
(dp138
g7
V072
p139
sg9
VTentacool
p140
sg11
VRu,S,E,
p141
sg13
VFish Old
p142
sg15
g113
sg17
V10
p143
sg19
V30
p144
sbag1
(g2
g3
Ntp145
Rp146
(dp147
g7
V129
p148
sg9
VMagikarp
p149
sg11
VRu,S,E,
p150
sg13
VFish Old
p151
sg15
g113
sg17
V10
p152
sg19
V70
p153
sbag1
(g2
g3
Ntp154
Rp155
(dp156
g7
V072
p157
sg9
VTentacool
p158
sg11
VRu,S,E,
p159
sg13
VFish Good
p160
sg15
V10
p161
sg17
V30
p162
sg19
V20
p163
sbag1
(g2
g3
Ntp164
Rp165
(dp166
g7
V129
p167
sg9
VMagikarp
p168
sg11
VRu,S,E,
p169
sg13
VFish Good
p170
sg15
V10
p171
sg17
V30
p172
sg19
V60
p173
sbag1
(g2
g3
Ntp174
Rp175
(dp176
g7
V320
p177
sg9
VWailmer
p178
sg11
VRu,S,E,
p179
sg13
VFish Good
p180
sg15
V10
p181
sg17
V30
p182
sg19
V20
p183
sbag1
(g2
g3
Ntp184
Rp185
(dp186
g7
V320
p187
sg9
VWailmer
p188
sg11
VRu,S,E,
p189
sg13
VFish Super
p190
sg15
V20
p191
sg17
V45
p192
sg19
V100
p193
sbag1
(g2
g3
Ntp194
Rp195
(dp196
g7
V044
p197
sg9
VGloom
p198
sg11
VOR,AS,
p199
sg13
VTall grass
p200
sg15
V29
p201
sg17
V31
p202
sg19
V30
p203
sbag1
(g2
g3
Ntp204
Rp205
(dp206
g7
V264
p207
sg9
VLinoone
p208
sg11
VOR,AS,
p209
sg13
VTall grass
p210
sg15
V29
p211
sg17
V31
p212
sg19
V30
p213
sbag1
(g2
g3
Ntp214
Rp215
(dp216
g7
V279
p217
sg9
VPelipper
p218
sg11
VOR,AS,
p219
sg13
VTall grass
p220
sg15
V31
p221
sg17
g221
sg19
V5
p222
sbag1
(g2
g3
Ntp223
Rp224
(dp225
g7
V352
p226
sg9
VKecleon
p227
sg11
VOR,AS,
p228
sg13
VTall grass
p229
sg15
V31
p230
sg17
g230
sg19
V5
p231
sbag1
(g2
g3
Ntp232
Rp233
(dp234
g7
V353
p235
sg9
VShuppet
p236
sg11
VOR,AS,
p237
sg13
VTall grass
p238
sg15
V28
p239
sg17
V30
p240
sg19
V30
p241
sbag1
(g2
g3
Ntp242
Rp243
(dp244
g7
V278
p245
sg9
VWingull
p246
sg11
VOR,AS,
p247
sg13
VHorde Encounter
p248
sg15
V15
p249
sg17
g249
sg19
V35
p250
sbag1
(g2
g3
Ntp251
Rp252
(dp253
g7
V352
p254
sg9
VKecleon
p255
sg11
VOR,AS,
p256
sg13
VHorde Encounter
p257
sg15
V15
p258
sg17
g258
sg19
V5
p259
sbag1
(g2
g3
Ntp260
Rp261
(dp262
g7
V353
p263
sg9
VShuppet
p264
sg11
VOR,AS,
p265
sg13
VHorde Encounter
p266
sg15
V15
p267
sg17
g267
sg19
V60
p268
sbag1
(g2
g3
Ntp269
Rp270
(dp271
g7
V183
p272
sg9
VMarill
p273
sg11
VOR,AS,
p274
sg13
VSurf
p275
sg15
V20
p276
sg17
g276
sg19
V50
p277
sbag1
(g2
g3
Ntp278
Rp279
(dp280
g7
V184
p281
sg9
VAzumarill
p282
sg11
VOR,AS,
p283
sg13
VSurf
p284
sg15
V25
p285
sg17
V30
p286
sg19
V16
p287
sbag1
(g2
g3
Ntp288
Rp289
(dp290
g7
V283
p291
sg9
VSurskit
p292
sg11
VOR,AS,
p293
sg13
VSurf
p294
sg15
V20
p295
sg17
g295
sg19
V30
p296
sbag1
(g2
g3
Ntp297
Rp298
(dp299
g7
V284
p300
sg9
VMasquerain
p301
sg11
VOR,AS,
p302
sg13
VSurf
p303
sg15
V25
p304
sg17
g304
sg19
V4
p305
sbag1
(g2
g3
Ntp306
Rp307
(dp308
g7
V118
p309
sg9
VGoldeen
p310
sg11
VOR,AS,
p311
sg13
VFish Old
p312
sg15
g113
sg17
g113
sg19
V35
p313
sbag1
(g2
g3
Ntp314
Rp315
(dp316
g7
V129
p317
sg9
VMagikarp
p318
sg11
VOR,AS,
p319
sg13
VFish Old
p320
sg15
V10
p321
sg17
V15
p322
sg19
V65
p323
sbag1
(g2
g3
Ntp324
Rp325
(dp326
g7
V118
p327
sg9
VGoldeen
p328
sg11
VOR,AS,
p329
sg13
VFish Good
p330
sg15
V25
p331
sg17
g331
sg19
V35
p332
sbag1
(g2
g3
Ntp333
Rp334
(dp335
g7
V129
p336
sg9
VMagikarp
p337
sg11
VOR,AS,
p338
sg13
VFish Good
p339
sg15
V25
p340
sg17
g340
sg19
V60
p341
sbag1
(g2
g3
Ntp342
Rp343
(dp344
g7
V341
p345
sg9
VCorphish
p346
sg11
VOR,AS,
p347
sg13
VFish Good
p348
sg15
V25
p349
sg17
g349
sg19
V5
p350
sbag1
(g2
g3
Ntp351
Rp352
(dp353
g7
V341
p354
sg9
VCorphish
p355
sg11
VOR,AS,
p356
sg13
VFish Super
p357
sg15
V30
p358
sg17
V35
p359
sg19
V95
p360
sbag1
(g2
g3
Ntp361
Rp362
(dp363
g7
V342
p364
sg9
VCrawdaunt
p365
sg11
VOR,AS,
p366
sg13
VFish Super
p367
sg15
V40
p368
sg17
g368
sg19
V5
p369
sba.