(lp0
ccopy_reg
_reconstructor
p1
(c__main__
WildPokemon
p2
c__builtin__
object
p3
Ntp4
Rp5
(dp6
VpDexNo
p7
V183
p8
sVpSpecies
p9
VMarill
p10
sVpGames
p11
VE,
p12
sVpArea
p13
VGrass
p14
sVpMinLevel
p15
V4
p16
sVpMaxLevel
p17
V5
p18
sVpRate
p19
V20
p20
sbag1
(g2
g3
Ntp21
Rp22
(dp23
g7
V261
p24
sg9
VPoochyena
p25
sg11
g12
sg13
VGrass
p26
sg15
g16
sg17
g18
sg19
V40
p27
sbag1
(g2
g3
Ntp28
Rp29
(dp30
g7
V263
p31
sg9
VZigzagoon
p32
sg11
VRu,S,
p33
sg13
VGrass
p34
sg15
g16
sg17
g18
sg19
V50
p35
sbag1
(g2
g3
Ntp36
Rp37
(dp38
g7
V265
p39
sg9
VWurmple
p40
sg11
VRu,S,
p41
sg13
VGrass
p42
sg15
g16
sg17
g18
sg19
V30
p43
sbag1
(g2
g3
Ntp44
Rp45
(dp46
g7
V265
p47
sg9
VWurmple
p48
sg11
g12
sg13
VGrass
p49
sg15
g16
sg17
g16
sg19
V20
p50
sbag1
(g2
g3
Ntp51
Rp52
(dp53
g7
V276
p54
sg9
VTaillow
p55
sg11
VRu,S,E,
p56
sg13
VGrass
p57
sg15
g16
sg17
g18
sg19
V10
p58
sbag1
(g2
g3
Ntp59
Rp60
(dp61
g7
V278
p62
sg9
VWingull
p63
sg11
VRu,S,E,
p64
sg13
VGrass
p65
sg15
V3
p66
sg17
g18
sg19
V10
p67
sbag1
(g2
g3
Ntp68
Rp69
(dp70
g7
V278
p71
sg9
VWingull
p72
sg11
VRu,S,E,
p73
sg13
VSurf
p74
sg15
V10
p75
sg17
V30
p76
sg19
V95
p77
sbag1
(g2
g3
Ntp78
Rp79
(dp80
g7
V279
p81
sg9
VPelipper
p82
sg11
VRu,S,E,
p83
sg13
VSurf
p84
sg15
V25
p85
sg17
V30
p86
sg19
V5
p87
sbag1
(g2
g3
Ntp88
Rp89
(dp90
g7
V129
p91
sg9
VMagikarp
p92
sg11
VRu,S,E,
p93
sg13
VFish Old
p94
sg15
g18
sg17
V10
p95
sg19
V100
p96
sbag1
(g2
g3
Ntp97
Rp98
(dp99
g7
V129
p100
sg9
VMagikarp
p101
sg11
VRu,S,E,
p102
sg13
VFish Good
p103
sg15
V10
p104
sg17
V30
p105
sg19
V100
p106
sbag1
(g2
g3
Ntp107
Rp108
(dp109
g7
V129
p110
sg9
VMagikarp
p111
sg11
VRu,S,E,
p112
sg13
VFish Super
p113
sg15
V20
p114
sg17
V45
p115
sg19
V100
p116
sbag1
(g2
g3
Ntp117
Rp118
(dp119
g7
V263
p120
sg9
VZigzagoon
p121
sg11
VOR,AS,
p122
sg13
VGrass
p123
sg15
V2
p124
sg17
g18
sg19
V40
p125
sbag1
(g2
g3
Ntp126
Rp127
(dp128
g7
V265
p129
sg9
VWurmple
p130
sg11
VOR,AS,
p131
sg13
VGrass
p132
sg15
g124
sg17
g18
sg19
V40
p133
sbag1
(g2
g3
Ntp134
Rp135
(dp136
g7
V276
p137
sg9
VTaillow
p138
sg11
VOR,AS,
p139
sg13
VGrass
p140
sg15
g66
sg17
g18
sg19
V5
p141
sbag1
(g2
g3
Ntp142
Rp143
(dp144
g7
V278
p145
sg9
VWingull
p146
sg11
VOR,AS,
p147
sg13
VGrass
p148
sg15
g66
sg17
g18
sg19
V15
p149
sbag1
(g2
g3
Ntp150
Rp151
(dp152
g7
V263
p153
sg9
VZigzagoon
p154
sg11
VOR,AS,
p155
sg13
VHorde Encounter
p156
sg15
g124
sg17
g124
sg19
V95
p157
sbag1
(g2
g3
Ntp158
Rp159
(dp160
g7
V278
p161
sg9
VWingull
p162
sg11
VOR,AS,
p163
sg13
VHorde Encounter
p164
sg15
g124
sg17
g124
sg19
V5
p165
sbag1
(g2
g3
Ntp166
Rp167
(dp168
g7
V441
p169
sg9
VChatot
p170
sg11
VOR,AS,
p171
sg13
VGrass
p172
sg15
g18
sg17
g18
sg19
V0
p173
sbag1
(g2
g3
Ntp174
Rp175
(dp176
g7
V519
p177
sg9
VPidove
p178
sg11
VOR,AS,
p179
sg13
VGrass
p180
sg15
g18
sg17
g18
sg19
V0
p181
sbag1
(g2
g3
Ntp182
Rp183
(dp184
g7
V540
p185
sg9
VSewaddle
p186
sg11
VOR,AS,
p187
sg13
VGrass
p188
sg15
g18
sg17
g18
sg19
V0
p189
sbag1
(g2
g3
Ntp190
Rp191
(dp192
g7
V278
p193
sg9
VWingull
p194
sg11
VOR,AS,
p195
sg13
VSurf
p196
sg15
V15
p197
sg17
V20
p198
sg19
V95
p199
sbag1
(g2
g3
Ntp200
Rp201
(dp202
g7
V279
p203
sg9
VPelipper
p204
sg11
VOR,AS,
p205
sg13
VSurf
p206
sg15
V25
p207
sg17
g207
sg19
V5
p208
sbag1
(g2
g3
Ntp209
Rp210
(dp211
g7
V129
p212
sg9
VMagikarp
p213
sg11
VOR,AS,
p214
sg13
VFish Old
p215
sg15
g18
sg17
V15
p216
sg19
V100
p217
sbag1
(g2
g3
Ntp218
Rp219
(dp220
g7
V129
p221
sg9
VMagikarp
p222
sg11
VOR,AS,
p223
sg13
VFish Good
p224
sg15
V25
p225
sg17
g225
sg19
V100
p226
sbag1
(g2
g3
Ntp227
Rp228
(dp229
g7
V129
p230
sg9
VMagikarp
p231
sg11
VOR,AS,
p232
sg13
VFish Super
p233
sg15
V30
p234
sg17
V40
p235
sg19
V100
p236
sbag1
(g2
g3
Ntp237
Rp238
(dp239
g7
V263
p240
sg9
VZigzagoon
p241
sg11
VOR,AS,
p242
sg13
VGrass
p243
sg15
g16
sg17
V7
p244
sg19
V40
p245
sbag1
(g2
g3
Ntp246
Rp247
(dp248
g7
V265
p249
sg9
VWurmple
p250
sg11
VOR,AS,
p251
sg13
VGrass
p252
sg15
g16
sg17
g244
sg19
V40
p253
sbag1
(g2
g3
Ntp254
Rp255
(dp256
g7
V276
p257
sg9
VTaillow
p258
sg11
VOR,AS,
p259
sg13
VGrass
p260
sg15
g18
sg17
g244
sg19
V15
p261
sbag1
(g2
g3
Ntp262
Rp263
(dp264
g7
V278
p265
sg9
VWingull
p266
sg11
VOR,AS,
p267
sg13
VGrass
p268
sg15
g18
sg17
g244
sg19
V5
p269
sbag1
(g2
g3
Ntp270
Rp271
(dp272
g7
V263
p273
sg9
VZigzagoon
p274
sg11
VOR,AS,
p275
sg13
VHorde Encounter
p276
sg15
g66
sg17
g66
sg19
V95
p277
sbag1
(g2
g3
Ntp278
Rp279
(dp280
g7
V276
p281
sg9
VTaillow
p282
sg11
VOR,AS,
p283
sg13
VHorde Encounter
p284
sg15
g66
sg17
g66
sg19
V5
p285
sbag1
(g2
g3
Ntp286
Rp287
(dp288
g7
V441
p289
sg9
VChatot
p290
sg11
VOR,AS,
p291
sg13
VGrass
p292
sg15
g244
sg17
g244
sg19
V0
p293
sbag1
(g2
g3
Ntp294
Rp295
(dp296
g7
V519
p297
sg9
VPidove
p298
sg11
VOR,AS,
p299
sg13
VGrass
p300
sg15
g244
sg17
g244
sg19
V0
p301
sbag1
(g2
g3
Ntp302
Rp303
(dp304
g7
V540
p305
sg9
VSewaddle
p306
sg11
VOR,AS,
p307
sg13
VGrass
p308
sg15
g244
sg17
g244
sg19
V0
p309
sbag1
(g2
g3
Ntp310
Rp311
(dp312
g7
V278
p313
sg9
VWingull
p314
sg11
VOR,AS,
p315
sg13
VSurf
p316
sg15
V15
p317
sg17
V20
p318
sg19
V95
p319
sbag1
(g2
g3
Ntp320
Rp321
(dp322
g7
V279
p323
sg9
VPelipper
p324
sg11
VOR,AS,
p325
sg13
VSurf
p326
sg15
V25
p327
sg17
g327
sg19
V5
p328
sbag1
(g2
g3
Ntp329
Rp330
(dp331
g7
V129
p332
sg9
VMagikarp
p333
sg11
VOR,AS,
p334
sg13
VFish Old
p335
sg15
g18
sg17
V15
p336
sg19
V100
p337
sbag1
(g2
g3
Ntp338
Rp339
(dp340
g7
V129
p341
sg9
VMagikarp
p342
sg11
VOR,AS,
p343
sg13
VFish Good
p344
sg15
V25
p345
sg17
g345
sg19
V100
p346
sbag1
(g2
g3
Ntp347
Rp348
(dp349
g7
V129
p350
sg9
VMagikarp
p351
sg11
VOR,AS,
p352
sg13
VFish Super
p353
sg15
V30
p354
sg17
V40
p355
sg19
V100
p356
sba.