(lp0
ccopy_reg
_reconstructor
p1
(c__main__
WildPokemon
p2
c__builtin__
object
p3
Ntp4
Rp5
(dp6
VpDexNo
p7
V025
p8
sVpSpecies
p9
VPikachu
p10
sVpGames
p11
VRu,S,E,
p12
sVpArea
p13
VGrass
p14
sVpMinLevel
p15
V25
p16
sVpMaxLevel
p17
V27
p18
sVpRate
p19
V5
p20
sbag1
(g2
g3
Ntp21
Rp22
(dp23
g7
V043
p24
sg9
VOddish
p25
sg11
VRu,S,E,
p26
sg13
VGrass
p27
sg15
V25
p28
sg17
V27
p29
sg19
V40
p30
sbag1
(g2
g3
Ntp31
Rp32
(dp33
g7
V044
p34
sg9
VGloom
p35
sg11
VRu,S,E,
p36
sg13
VGrass
p37
sg15
V25
p38
sg17
g38
sg19
V5
p39
sbag1
(g2
g3
Ntp40
Rp41
(dp42
g7
V084
p43
sg9
VDoduo
p44
sg11
VRu,S,E,
p45
sg13
VGrass
p46
sg15
V25
p47
sg17
g47
sg19
V10
p48
sbag1
(g2
g3
Ntp49
Rp50
(dp51
g7
V177
p52
sg9
VNatu
p53
sg11
VRu,S,E,
p54
sg13
VGrass
p55
sg15
V25
p56
sg17
g56
sg19
V10
p57
sbag1
(g2
g3
Ntp58
Rp59
(dp60
g7
V203
p61
sg9
VGirafarig
p62
sg11
VRu,S,E,
p63
sg13
VGrass
p64
sg15
V25
p65
sg17
V27
p66
sg19
V20
p67
sbag1
(g2
g3
Ntp68
Rp69
(dp70
g7
V202
p71
sg9
VWobbuffet
p72
sg11
VRu,S,E,
p73
sg13
VGrass
p74
sg15
V27
p75
sg17
V29
p76
sg19
V10
p77
sbag1
(g2
g3
Ntp78
Rp79
(dp80
g7
V025
p81
sg9
VPikachu
p82
sg11
VRu,S,E,
p83
sg13
VGrass
p84
sg15
V25
p85
sg17
V27
p86
sg19
V5
p87
sbag1
(g2
g3
Ntp88
Rp89
(dp90
g7
V043
p91
sg9
VOddish
p92
sg11
VRu,S,E,
p93
sg13
VGrass
p94
sg15
V25
p95
sg17
V27
p96
sg19
V40
p97
sbag1
(g2
g3
Ntp98
Rp99
(dp100
g7
V044
p101
sg9
VGloom
p102
sg11
VRu,S,E,
p103
sg13
VGrass
p104
sg15
V25
p105
sg17
g105
sg19
V5
p106
sbag1
(g2
g3
Ntp107
Rp108
(dp109
g7
V084
p110
sg9
VDoduo
p111
sg11
VRu,S,E,
p112
sg13
VGrass
p113
sg15
V27
p114
sg17
g114
sg19
V10
p115
sbag1
(g2
g3
Ntp116
Rp117
(dp118
g7
V177
p119
sg9
VNatu
p120
sg11
VRu,S,E,
p121
sg13
VGrass
p122
sg15
V25
p123
sg17
g123
sg19
V10
p124
sbag1
(g2
g3
Ntp125
Rp126
(dp127
g7
V203
p128
sg9
VGirafarig
p129
sg11
VRu,S,E,
p130
sg13
VGrass
p131
sg15
V25
p132
sg17
V27
p133
sg19
V20
p134
sbag1
(g2
g3
Ntp135
Rp136
(dp137
g7
V202
p138
sg9
VWobbuffet
p139
sg11
VRu,S,E,
p140
sg13
VGrass
p141
sg15
V27
p142
sg17
V29
p143
sg19
V10
p144
sbag1
(g2
g3
Ntp145
Rp146
(dp147
g7
V054
p148
sg9
VPsyduck
p149
sg11
VRu,S,E,
p150
sg13
VSurf
p151
sg15
V20
p152
sg17
V35
p153
sg19
V100
p154
sbag1
(g2
g3
Ntp155
Rp156
(dp157
g7
V118
p158
sg9
VGoldeen
p159
sg11
VRu,S,E,
p160
sg13
VFish Old
p161
sg15
V5
p162
sg17
V10
p163
sg19
V30
p164
sbag1
(g2
g3
Ntp165
Rp166
(dp167
g7
V129
p168
sg9
VMagikarp
p169
sg11
VRu,S,E,
p170
sg13
VFish Old
p171
sg15
g162
sg17
V10
p172
sg19
V70
p173
sbag1
(g2
g3
Ntp174
Rp175
(dp176
g7
V118
p177
sg9
VGoldeen
p178
sg11
VRu,S,E,
p179
sg13
VFish Good
p180
sg15
V10
p181
sg17
V30
p182
sg19
V40
p183
sbag1
(g2
g3
Ntp184
Rp185
(dp186
g7
V129
p187
sg9
VMagikarp
p188
sg11
VRu,S,E,
p189
sg13
VFish Good
p190
sg15
V10
p191
sg17
V30
p192
sg19
V60
p193
sbag1
(g2
g3
Ntp194
Rp195
(dp196
g7
V118
p197
sg9
VGoldeen
p198
sg11
VRu,S,E,
p199
sg13
VFish Super
p200
sg15
V25
p201
sg17
V35
p202
sg19
V80
p203
sbag1
(g2
g3
Ntp204
Rp205
(dp206
g7
V119
p207
sg9
VSeaking
p208
sg11
VRu,S,E,
p209
sg13
VFish Super
p210
sg15
V25
p211
sg17
V40
p212
sg19
V20
p213
sbag1
(g2
g3
Ntp214
Rp215
(dp216
g7
V043
p217
sg9
VOddish
p218
sg11
VRu,S,E,
p219
sg13
VGrass
p220
sg15
V27
p221
sg17
V29
p222
sg19
V30
p223
sbag1
(g2
g3
Ntp224
Rp225
(dp226
g7
V044
p227
sg9
VGloom
p228
sg11
VRu,S,E,
p229
sg13
VGrass
p230
sg15
V29
p231
sg17
V31
p232
sg19
V15
p233
sbag1
(g2
g3
Ntp234
Rp235
(dp236
g7
V084
p237
sg9
VDoduo
p238
sg11
VRu,S,E,
p239
sg13
VGrass
p240
sg15
V27
p241
sg17
V29
p242
sg19
V15
p243
sbag1
(g2
g3
Ntp244
Rp245
(dp246
g7
V085
p247
sg9
VDodrio
p248
sg11
VRu,S,E,
p249
sg13
VGrass
p250
sg15
V29
p251
sg17
V31
p252
sg19
V5
p253
sbag1
(g2
g3
Ntp254
Rp255
(dp256
g7
V111
p257
sg9
VRhyhorn
p258
sg11
VRu,S,E,
p259
sg13
VGrass
p260
sg15
V27
p261
sg17
V29
p262
sg19
V30
p263
sbag1
(g2
g3
Ntp264
Rp265
(dp266
g7
V127
p267
sg9
VPinsir
p268
sg11
VRu,S,E,
p269
sg13
VGrass
p270
sg15
V27
p271
sg17
V29
p272
sg19
V5
p273
sbag1
(g2
g3
Ntp274
Rp275
(dp276
g7
V054
p277
sg9
VPsyduck
p278
sg11
VRu,S,E,
p279
sg13
VSurf
p280
sg15
V20
p281
sg17
V35
p282
sg19
V95
p283
sbag1
(g2
g3
Ntp284
Rp285
(dp286
g7
V055
p287
sg9
VGolduck
p288
sg11
VRu,S,E,
p289
sg13
VSurf
p290
sg15
V25
p291
sg17
V40
p292
sg19
V5
p293
sbag1
(g2
g3
Ntp294
Rp295
(dp296
g7
V118
p297
sg9
VGoldeen
p298
sg11
VRu,S,E,
p299
sg13
VFish Old
p300
sg15
g162
sg17
V10
p301
sg19
V30
p302
sbag1
(g2
g3
Ntp303
Rp304
(dp305
g7
V129
p306
sg9
VMagikarp
p307
sg11
VRu,S,E,
p308
sg13
VFish Old
p309
sg15
g162
sg17
V10
p310
sg19
V70
p311
sbag1
(g2
g3
Ntp312
Rp313
(dp314
g7
V118
p315
sg9
VGoldeen
p316
sg11
VRu,S,E,
p317
sg13
VFish Good
p318
sg15
V10
p319
sg17
V30
p320
sg19
V40
p321
sbag1
(g2
g3
Ntp322
Rp323
(dp324
g7
V129
p325
sg9
VMagikarp
p326
sg11
VRu,S,E,
p327
sg13
VFish Good
p328
sg15
V10
p329
sg17
V30
p330
sg19
V60
p331
sbag1
(g2
g3
Ntp332
Rp333
(dp334
g7
V118
p335
sg9
VGoldeen
p336
sg11
VRu,S,E,
p337
sg13
VFish Super
p338
sg15
V25
p339
sg17
V35
p340
sg19
V80
p341
sbag1
(g2
g3
Ntp342
Rp343
(dp344
g7
V119
p345
sg9
VSeaking
p346
sg11
VRu,S,E,
p347
sg13
VFish Super
p348
sg15
V25
p349
sg17
V40
p350
sg19
V20
p351
sbag1
(g2
g3
Ntp352
Rp353
(dp354
g7
V043
p355
sg9
VOddish
p356
sg11
VRu,S,E,
p357
sg13
VGrass
p358
sg15
V27
p359
sg17
V29
p360
sg19
V30
p361
sbag1
(g2
g3
Ntp362
Rp363
(dp364
g7
V044
p365
sg9
VGloom
p366
sg11
VRu,S,E,
p367
sg13
VGrass
p368
sg15
V29
p369
sg17
V31
p370
sg19
V15
p371
sbag1
(g2
g3
Ntp372
Rp373
(dp374
g7
V177
p375
sg9
VNatu
p376
sg11
VRu,S,E,
p377
sg13
VGrass
p378
sg15
V27
p379
sg17
V29
p380
sg19
V15
p381
sbag1
(g2
g3
Ntp382
Rp383
(dp384
g7
V178
p385
sg9
VXatu
p386
sg11
VRu,S,E,
p387
sg13
VGrass
p388
sg15
V29
p389
sg17
V31
p390
sg19
V5
p391
sbag1
(g2
g3
Ntp392
Rp393
(dp394
g7
V214
p395
sg9
VHeracross
p396
sg11
VRu,S,E,
p397
sg13
VGrass
p398
sg15
V27
p399
sg17
V29
p400
sg19
V5
p401
sbag1
(g2
g3
Ntp402
Rp403
(dp404
g7
V231
p405
sg9
VPhanpy
p406
sg11
VRu,S,E,
p407
sg13
VGrass
p408
sg15
V27
p409
sg17
V29
p410
sg19
V30
p411
sbag1
(g2
g3
Ntp412
Rp413
(dp414
g7
V074
p415
sg9
VGeodude
p416
sg11
VRu,S,E,
p417
sg13
VRock Smash
p418
sg15
g162
sg17
V30
p419
sg19
V100
p420
sbag1
(g2
g3
Ntp421
Rp422
(dp423
g7
V163
p424
sg9
VHoothoot
p425
sg11
VE,
p426
sg13
VGrass
p427
sg15
V35
p428
sg17
g428
sg19
V5
p429
sbag1
(g2
g3
Ntp430
Rp431
(dp432
g7
V167
p433
sg9
VSpinarak
p434
sg11
g426
sg13
VGrass
p435
sg15
V33
p436
sg17
g436
sg19
V10
p437
sbag1
(g2
g3
Ntp438
Rp439
(dp440
g7
V179
p441
sg9
VMareep
p442
sg11
g426
sg13
VGrass
p443
sg15
V34
p444
sg17
V36
p445
sg19
V30
p446
sbag1
(g2
g3
Ntp447
Rp448
(dp449
g7
V190
p450
sg9
VAipom
p451
sg11
g426
sg13
VGrass
p452
sg15
V34
p453
sg17
g453
sg19
V10
p454
sbag1
(g2
g3
Ntp455
Rp456
(dp457
g7
V191
p458
sg9
VSunkern
p459
sg11
g426
sg13
VGrass
p460
sg15
V33
p461
sg17
V35
p462
sg19
V30
p463
sbag1
(g2
g3
Ntp464
Rp465
(dp466
g7
V207
p467
sg9
VGligar
p468
sg11
g426
sg13
VGrass
p469
sg15
V37
p470
sg17
V40
p471
sg19
V5
p472
sbag1
(g2
g3
Ntp473
Rp474
(dp475
g7
V209
p476
sg9
VSnubbull
p477
sg11
g426
sg13
VGrass
p478
sg15
V34
p479
sg17
g479
sg19
V5
p480
sbag1
(g2
g3
Ntp481
Rp482
(dp483
g7
V234
p484
sg9
VStantler
p485
sg11
g426
sg13
VGrass
p486
sg15
V36
p487
sg17
V39
p488
sg19
V5
p489
sbag1
(g2
g3
Ntp490
Rp491
(dp492
g7
V183
p493
sg9
VMarill
p494
sg11
g426
sg13
VSurf
p495
sg15
V25
p496
sg17
V35
p497
sg19
V39
p498
sbag1
(g2
g3
Ntp499
Rp500
(dp501
g7
V194
p502
sg9
VWooper
p503
sg11
g426
sg13
VSurf
p504
sg15
V25
p505
sg17
V30
p506
sg19
V60
p507
sbag1
(g2
g3
Ntp508
Rp509
(dp510
g7
V195
p511
sg9
VQuagsire
p512
sg11
g426
sg13
VSurf
p513
sg15
V35
p514
sg17
V40
p515
sg19
V1
p516
sbag1
(g2
g3
Ntp517
Rp518
(dp519
g7
V118
p520
sg9
VGoldeen
p521
sg11
g426
sg13
VFish Old
p522
sg15
V25
p523
sg17
V30
p524
sg19
V30
p525
sbag1
(g2
g3
Ntp526
Rp527
(dp528
g7
V129
p529
sg9
VMagikarp
p530
sg11
g426
sg13
VFish Old
p531
sg15
V25
p532
sg17
V30
p533
sg19
V70
p534
sbag1
(g2
g3
Ntp535
Rp536
(dp537
g7
V118
p538
sg9
VGoldeen
p539
sg11
g426
sg13
VFish Good
p540
sg15
V25
p541
sg17
V30
p542
sg19
V20
p543
sbag1
(g2
g3
Ntp544
Rp545
(dp546
g7
V129
p547
sg9
VMagikarp
p548
sg11
g426
sg13
VFish Good
p549
sg15
V25
p550
sg17
V30
p551
sg19
V60
p552
sbag1
(g2
g3
Ntp553
Rp554
(dp555
g7
V223
p556
sg9
VRemoraid
p557
sg11
g426
sg13
VFish Good
p558
sg15
V30
p559
sg17
V35
p560
sg19
V20
p561
sbag1
(g2
g3
Ntp562
Rp563
(dp564
g7
V118
p565
sg9
VGoldeen
p566
sg11
g426
sg13
VFish Super
p567
sg15
V25
p568
sg17
V30
p569
sg19
V40
p570
sbag1
(g2
g3
Ntp571
Rp572
(dp573
g7
V223
p574
sg9
VRemoraid
p575
sg11
g426
sg13
VFish Super
p576
sg15
V25
p577
sg17
V35
p578
sg19
V59
p579
sbag1
(g2
g3
Ntp580
Rp581
(dp582
g7
V224
p583
sg9
VOctillery
p584
sg11
g426
sg13
VFish Super
p585
sg15
V35
p586
sg17
V40
p587
sg19
V1
p588
sbag1
(g2
g3
Ntp589
Rp590
(dp591
g7
V163
p592
sg9
VHoothoot
p593
sg11
g426
sg13
VGrass
p594
sg15
V35
p595
sg17
g595
sg19
V5
p596
sbag1
(g2
g3
Ntp597
Rp598
(dp599
g7
V165
p600
sg9
VLedyba
p601
sg11
g426
sg13
VGrass
p602
sg15
V33
p603
sg17
g603
sg19
V10
p604
sbag1
(g2
g3
Ntp605
Rp606
(dp607
g7
V190
p608
sg9
VAipom
p609
sg11
g426
sg13
VGrass
p610
sg15
V33
p611
sg17
V35
p612
sg19
V30
p613
sbag1
(g2
g3
Ntp614
Rp615
(dp616
g7
V191
p617
sg9
VSunkern
p618
sg11
g426
sg13
VGrass
p619
sg15
V34
p620
sg17
g620
sg19
V10
p621
sbag1
(g2
g3
Ntp622
Rp623
(dp624
g7
V204
p625
sg9
VPineco
p626
sg11
g426
sg13
VGrass
p627
sg15
V34
p628
sg17
g628
sg19
V5
p629
sbag1
(g2
g3
Ntp630
Rp631
(dp632
g7
V216
p633
sg9
VTeddiursa
p634
sg11
g426
sg13
VGrass
p635
sg15
V34
p636
sg17
V36
p637
sg19
V30
p638
sbag1
(g2
g3
Ntp639
Rp640
(dp641
g7
V228
p642
sg9
VHoundour
p643
sg11
g426
sg13
VGrass
p644
sg15
V36
p645
sg17
V39
p646
sg19
V5
p647
sbag1
(g2
g3
Ntp648
Rp649
(dp650
g7
V241
p651
sg9
VMiltank
p652
sg11
g426
sg13
VGrass
p653
sg15
V37
p654
sg17
V40
p655
sg19
V5
p656
sbag1
(g2
g3
Ntp657
Rp658
(dp659
g7
V213
p660
sg9
VShuckle
p661
sg11
g426
sg13
VRock Smash
p662
sg15
V20
p663
sg17
V40
p664
sg19
V100
p665
sbag1
(g2
g3
Ntp666
Rp667
(dp668
g7
V025
p669
sg9
VPikachu
p670
sg11
VOR,AS,
p671
sg13
VGrass
p672
sg15
V28
p673
sg17
V30
p674
sg19
V20
p675
sbag1
(g2
g3
Ntp676
Rp677
(dp678
g7
V044
p679
sg9
VGloom
p680
sg11
VOR,AS,
p681
sg13
VGrass
p682
sg15
V28
p683
sg17
V30
p684
sg19
V30
p685
sbag1
(g2
g3
Ntp686
Rp687
(dp688
g7
V054
p689
sg9
VPsyduck
p690
sg11
VOR,AS,
p691
sg13
VGrass
p692
sg15
V27
p693
sg17
V29
p694
sg19
V20
p695
sbag1
(g2
g3
Ntp696
Rp697
(dp698
g7
V084
p699
sg9
VDoduo
p700
sg11
VOR,AS,
p701
sg13
VGrass
p702
sg15
V28
p703
sg17
V30
p704
sg19
V30
p705
sbag1
(g2
g3
Ntp706
Rp707
(dp708
g7
V044
p709
sg9
VGloom
p710
sg11
VOR,AS,
p711
sg13
VTall grass
p712
sg15
V28
p713
sg17
V30
p714
sg19
V30
p715
sbag1
(g2
g3
Ntp716
Rp717
(dp718
g7
V054
p719
sg9
VPsyduck
p720
sg11
VOR,AS,
p721
sg13
VTall grass
p722
sg15
V27
p723
sg17
V29
p724
sg19
V20
p725
sbag1
(g2
g3
Ntp726
Rp727
(dp728
g7
V084
p729
sg9
VDoduo
p730
sg11
VOR,AS,
p731
sg13
VTall grass
p732
sg15
V28
p733
sg17
V30
p734
sg19
V30
p735
sbag1
(g2
g3
Ntp736
Rp737
(dp738
g7
V203
p739
sg9
VGirafarig
p740
sg11
VOR,AS,
p741
sg13
VTall grass
p742
sg15
V28
p743
sg17
V30
p744
sg19
V20
p745
sbag1
(g2
g3
Ntp746
Rp747
(dp748
g7
V043
p749
sg9
VOddish
p750
sg11
VOR,AS,
p751
sg13
VHorde Encounter
p752
sg15
V15
p753
sg17
g753
sg19
V35
p754
sbag1
(g2
g3
Ntp755
Rp756
(dp757
g7
V054
p758
sg9
VPsyduck
p759
sg11
VOR,AS,
p760
sg13
VHorde Encounter
p761
sg15
V15
p762
sg17
g762
sg19
V5
p763
sbag1
(g2
g3
Ntp764
Rp765
(dp766
g7
V084
p767
sg9
VDoduo
p768
sg11
VOR,AS,
p769
sg13
VHorde Encounter
p770
sg15
V15
p771
sg17
g771
sg19
V60
p772
sbag1
(g2
g3
Ntp773
Rp774
(dp775
g7
V014
p776
sg9
VKakuna
p777
sg11
VOR,AS,
p778
sg13
VGrass
p779
sg15
V30
p780
sg17
g780
sg19
V0
p781
sbag1
(g2
g3
Ntp782
Rp783
(dp784
g7
V017
p785
sg9
VPidgeotto
p786
sg11
VOR,AS,
p787
sg13
VGrass
p788
sg15
V30
p789
sg17
g789
sg19
V0
p790
sbag1
(g2
g3
Ntp791
Rp792
(dp793
g7
V427
p794
sg9
VBuneary
p795
sg11
VOR,AS,
p796
sg13
VGrass
p797
sg15
V30
p798
sg17
g798
sg19
V0
p799
sbag1
(g2
g3
Ntp800
Rp801
(dp802
g7
V054
p803
sg9
VPsyduck
p804
sg11
VOR,AS,
p805
sg13
VSurf
p806
sg15
V20
p807
sg17
V30
p808
sg19
V100
p809
sbag1
(g2
g3
Ntp810
Rp811
(dp812
g7
V118
p813
sg9
VGoldeen
p814
sg11
VOR,AS,
p815
sg13
VFish Old
p816
sg15
g162
sg17
g162
sg19
V35
p817
sbag1
(g2
g3
Ntp818
Rp819
(dp820
g7
V129
p821
sg9
VMagikarp
p822
sg11
VOR,AS,
p823
sg13
VFish Old
p824
sg15
V10
p825
sg17
V15
p826
sg19
V65
p827
sbag1
(g2
g3
Ntp828
Rp829
(dp830
g7
V118
p831
sg9
VGoldeen
p832
sg11
VOR,AS,
p833
sg13
VFish Good
p834
sg15
V25
p835
sg17
g835
sg19
V35
p836
sbag1
(g2
g3
Ntp837
Rp838
(dp839
g7
V129
p840
sg9
VMagikarp
p841
sg11
VOR,AS,
p842
sg13
VFish Good
p843
sg15
V25
p844
sg17
g844
sg19
V65
p845
sbag1
(g2
g3
Ntp846
Rp847
(dp848
g7
V119
p849
sg9
VSeaking
p850
sg11
VOR,AS,
p851
sg13
VFish Super
p852
sg15
V30
p853
sg17
V40
p854
sg19
V100
p855
sbag1
(g2
g3
Ntp856
Rp857
(dp858
g7
V044
p859
sg9
VGloom
p860
sg11
VOR,AS,
p861
sg13
VGrass
p862
sg15
V28
p863
sg17
V30
p864
sg19
V30
p865
sbag1
(g2
g3
Ntp866
Rp867
(dp868
g7
V054
p869
sg9
VPsyduck
p870
sg11
VOR,AS,
p871
sg13
VGrass
p872
sg15
V27
p873
sg17
V29
p874
sg19
V20
p875
sbag1
(g2
g3
Ntp876
Rp877
(dp878
g7
V084
p879
sg9
VDoduo
p880
sg11
VOR,AS,
p881
sg13
VGrass
p882
sg15
V28
p883
sg17
V30
p884
sg19
V30
p885
sbag1
(g2
g3
Ntp886
Rp887
(dp888
g7
V178
p889
sg9
VXatu
p890
sg11
VOR,AS,
p891
sg13
VGrass
p892
sg15
V28
p893
sg17
V30
p894
sg19
V20
p895
sbag1
(g2
g3
Ntp896
Rp897
(dp898
g7
V044
p899
sg9
VGloom
p900
sg11
VOR,AS,
p901
sg13
VTall grass
p902
sg15
V28
p903
sg17
V30
p904
sg19
V30
p905
sbag1
(g2
g3
Ntp906
Rp907
(dp908
g7
V054
p909
sg9
VPsyduck
p910
sg11
VOR,AS,
p911
sg13
VTall grass
p912
sg15
V27
p913
sg17
V29
p914
sg19
V20
p915
sbag1
(g2
g3
Ntp916
Rp917
(dp918
g7
V084
p919
sg9
VDoduo
p920
sg11
VOR,AS,
p921
sg13
VTall grass
p922
sg15
V28
p923
sg17
V30
p924
sg19
V30
p925
sbag1
(g2
g3
Ntp926
Rp927
(dp928
g7
V202
p929
sg9
VWobbuffet
p930
sg11
VOR,AS,
p931
sg13
VTall grass
p932
sg15
V28
p933
sg17
V30
p934
sg19
V20
p935
sbag1
(g2
g3
Ntp936
Rp937
(dp938
g7
V043
p939
sg9
VOddish
p940
sg11
VOR,AS,
p941
sg13
VHorde Encounter
p942
sg15
V15
p943
sg17
g943
sg19
V35
p944
sbag1
(g2
g3
Ntp945
Rp946
(dp947
g7
V054
p948
sg9
VPsyduck
p949
sg11
VOR,AS,
p950
sg13
VHorde Encounter
p951
sg15
V15
p952
sg17
g952
sg19
V5
p953
sbag1
(g2
g3
Ntp954
Rp955
(dp956
g7
V084
p957
sg9
VDoduo
p958
sg11
VOR,AS,
p959
sg13
VHorde Encounter
p960
sg15
V15
p961
sg17
g961
sg19
V60
p962
sbag1
(g2
g3
Ntp963
Rp964
(dp965
g7
V014
p966
sg9
VKakuna
p967
sg11
VOR,AS,
p968
sg13
VGrass
p969
sg15
V30
p970
sg17
g970
sg19
V0
p971
sbag1
(g2
g3
Ntp972
Rp973
(dp974
g7
V017
p975
sg9
VPidgeotto
p976
sg11
VOR,AS,
p977
sg13
VGrass
p978
sg15
V30
p979
sg17
g979
sg19
V0
p980
sbag1
(g2
g3
Ntp981
Rp982
(dp983
g7
V427
p984
sg9
VBuneary
p985
sg11
VOR,AS,
p986
sg13
VGrass
p987
sg15
V30
p988
sg17
g988
sg19
V0
p989
sbag1
(g2
g3
Ntp990
Rp991
(dp992
g7
V054
p993
sg9
VPsyduck
p994
sg11
VOR,AS,
p995
sg13
VSurf
p996
sg15
V20
p997
sg17
V30
p998
sg19
V100
p999
sbag1
(g2
g3
Ntp1000
Rp1001
(dp1002
g7
V118
p1003
sg9
VGoldeen
p1004
sg11
VOR,AS,
p1005
sg13
VFish Old
p1006
sg15
g162
sg17
g162
sg19
V35
p1007
sbag1
(g2
g3
Ntp1008
Rp1009
(dp1010
g7
V129
p1011
sg9
VMagikarp
p1012
sg11
VOR,AS,
p1013
sg13
VFish Old
p1014
sg15
V10
p1015
sg17
V15
p1016
sg19
V65
p1017
sbag1
(g2
g3
Ntp1018
Rp1019
(dp1020
g7
V118
p1021
sg9
VGoldeen
p1022
sg11
VOR,AS,
p1023
sg13
VFish Good
p1024
sg15
V25
p1025
sg17
g1025
sg19
V35
p1026
sbag1
(g2
g3
Ntp1027
Rp1028
(dp1029
g7
V129
p1030
sg9
VMagikarp
p1031
sg11
VOR,AS,
p1032
sg13
VFish Good
p1033
sg15
V25
p1034
sg17
g1034
sg19
V65
p1035
sbag1
(g2
g3
Ntp1036
Rp1037
(dp1038
g7
V119
p1039
sg9
VSeaking
p1040
sg11
VOR,AS,
p1041
sg13
VFish Super
p1042
sg15
V30
p1043
sg17
V40
p1044
sg19
V100
p1045
sbag1
(g2
g3
Ntp1046
Rp1047
(dp1048
g7
V044
p1049
sg9
VGloom
p1050
sg11
VOR,AS,
p1051
sg13
VGrass
p1052
sg15
V28
p1053
sg17
V30
p1054
sg19
V30
p1055
sbag1
(g2
g3
Ntp1056
Rp1057
(dp1058
g7
V054
p1059
sg9
VPsyduck
p1060
sg11
VOR,AS,
p1061
sg13
VGrass
p1062
sg15
V27
p1063
sg17
V29
p1064
sg19
V20
p1065
sbag1
(g2
g3
Ntp1066
Rp1067
(dp1068
g7
V084
p1069
sg9
VDoduo
p1070
sg11
VOR,AS,
p1071
sg13
VGrass
p1072
sg15
V28
p1073
sg17
V30
p1074
sg19
V30
p1075
sbag1
(g2
g3
Ntp1076
Rp1077
(dp1078
g7
V111
p1079
sg9
VRhyhorn
p1080
sg11
VOR,AS,
p1081
sg13
VGrass
p1082
sg15
V28
p1083
sg17
V30
p1084
sg19
V20
p1085
sbag1
(g2
g3
Ntp1086
Rp1087
(dp1088
g7
V044
p1089
sg9
VGloom
p1090
sg11
VOR,AS,
p1091
sg13
VTall grass
p1092
sg15
V28
p1093
sg17
V30
p1094
sg19
V30
p1095
sbag1
(g2
g3
Ntp1096
Rp1097
(dp1098
g7
V054
p1099
sg9
VPsyduck
p1100
sg11
VOR,AS,
p1101
sg13
VTall grass
p1102
sg15
V27
p1103
sg17
V29
p1104
sg19
V20
p1105
sbag1
(g2
g3
Ntp1106
Rp1107
(dp1108
g7
V084
p1109
sg9
VDoduo
p1110
sg11
VOR,AS,
p1111
sg13
VTall grass
p1112
sg15
V28
p1113
sg17
V30
p1114
sg19
V30
p1115
sbag1
(g2
g3
Ntp1116
Rp1117
(dp1118
g7
V214
p1119
sg9
VHeracross
p1120
sg11
VOR,AS,
p1121
sg13
VTall grass
p1122
sg15
V28
p1123
sg17
V30
p1124
sg19
V20
p1125
sbag1
(g2
g3
Ntp1126
Rp1127
(dp1128
g7
V043
p1129
sg9
VOddish
p1130
sg11
VOR,AS,
p1131
sg13
VHorde Encounter
p1132
sg15
V15
p1133
sg17
g1133
sg19
V35
p1134
sbag1
(g2
g3
Ntp1135
Rp1136
(dp1137
g7
V054
p1138
sg9
VPsyduck
p1139
sg11
VOR,AS,
p1140
sg13
VHorde Encounter
p1141
sg15
V15
p1142
sg17
g1142
sg19
V5
p1143
sbag1
(g2
g3
Ntp1144
Rp1145
(dp1146
g7
V084
p1147
sg9
VDoduo
p1148
sg11
VOR,AS,
p1149
sg13
VHorde Encounter
p1150
sg15
V15
p1151
sg17
g1151
sg19
V60
p1152
sbag1
(g2
g3
Ntp1153
Rp1154
(dp1155
g7
V014
p1156
sg9
VKakuna
p1157
sg11
VOR,AS,
p1158
sg13
VGrass
p1159
sg15
V30
p1160
sg17
g1160
sg19
V0
p1161
sbag1
(g2
g3
Ntp1162
Rp1163
(dp1164
g7
V017
p1165
sg9
VPidgeotto
p1166
sg11
VOR,AS,
p1167
sg13
VGrass
p1168
sg15
V30
p1169
sg17
g1169
sg19
V0
p1170
sbag1
(g2
g3
Ntp1171
Rp1172
(dp1173
g7
V427
p1174
sg9
VBuneary
p1175
sg11
VOR,AS,
p1176
sg13
VGrass
p1177
sg15
V30
p1178
sg17
g1178
sg19
V0
p1179
sbag1
(g2
g3
Ntp1180
Rp1181
(dp1182
g7
V054
p1183
sg9
VPsyduck
p1184
sg11
VOR,AS,
p1185
sg13
VSurf
p1186
sg15
V20
p1187
sg17
V30
p1188
sg19
V100
p1189
sbag1
(g2
g3
Ntp1190
Rp1191
(dp1192
g7
V118
p1193
sg9
VGoldeen
p1194
sg11
VOR,AS,
p1195
sg13
VFish Old
p1196
sg15
g162
sg17
g162
sg19
V35
p1197
sbag1
(g2
g3
Ntp1198
Rp1199
(dp1200
g7
V129
p1201
sg9
VMagikarp
p1202
sg11
VOR,AS,
p1203
sg13
VFish Old
p1204
sg15
V10
p1205
sg17
V15
p1206
sg19
V65
p1207
sbag1
(g2
g3
Ntp1208
Rp1209
(dp1210
g7
V118
p1211
sg9
VGoldeen
p1212
sg11
VOR,AS,
p1213
sg13
VFish Good
p1214
sg15
V25
p1215
sg17
g1215
sg19
V35
p1216
sbag1
(g2
g3
Ntp1217
Rp1218
(dp1219
g7
V129
p1220
sg9
VMagikarp
p1221
sg11
VOR,AS,
p1222
sg13
VFish Good
p1223
sg15
V25
p1224
sg17
g1224
sg19
V65
p1225
sbag1
(g2
g3
Ntp1226
Rp1227
(dp1228
g7
V119
p1229
sg9
VSeaking
p1230
sg11
VOR,AS,
p1231
sg13
VFish Super
p1232
sg15
V30
p1233
sg17
V40
p1234
sg19
V100
p1235
sbag1
(g2
g3
Ntp1236
Rp1237
(dp1238
g7
V044
p1239
sg9
VGloom
p1240
sg11
VOR,AS,
p1241
sg13
VGrass
p1242
sg15
V28
p1243
sg17
V30
p1244
sg19
V30
p1245
sbag1
(g2
g3
Ntp1246
Rp1247
(dp1248
g7
V054
p1249
sg9
VPsyduck
p1250
sg11
VOR,AS,
p1251
sg13
VGrass
p1252
sg15
V27
p1253
sg17
V29
p1254
sg19
V20
p1255
sbag1
(g2
g3
Ntp1256
Rp1257
(dp1258
g7
V084
p1259
sg9
VDoduo
p1260
sg11
VOR,AS,
p1261
sg13
VGrass
p1262
sg15
V28
p1263
sg17
V30
p1264
sg19
V30
p1265
sbag1
(g2
g3
Ntp1266
Rp1267
(dp1268
g7
V232
p1269
sg9
VDonphan
p1270
sg11
VOR,AS,
p1271
sg13
VGrass
p1272
sg15
V28
p1273
sg17
V30
p1274
sg19
V20
p1275
sbag1
(g2
g3
Ntp1276
Rp1277
(dp1278
g7
V044
p1279
sg9
VGloom
p1280
sg11
VOR,AS,
p1281
sg13
VTall grass
p1282
sg15
V28
p1283
sg17
V30
p1284
sg19
V30
p1285
sbag1
(g2
g3
Ntp1286
Rp1287
(dp1288
g7
V054
p1289
sg9
VPsyduck
p1290
sg11
VOR,AS,
p1291
sg13
VTall grass
p1292
sg15
V27
p1293
sg17
V29
p1294
sg19
V20
p1295
sbag1
(g2
g3
Ntp1296
Rp1297
(dp1298
g7
V084
p1299
sg9
VDoduo
p1300
sg11
VOR,AS,
p1301
sg13
VTall grass
p1302
sg15
V28
p1303
sg17
V30
p1304
sg19
V30
p1305
sbag1
(g2
g3
Ntp1306
Rp1307
(dp1308
g7
V127
p1309
sg9
VPinsir
p1310
sg11
VOR,AS,
p1311
sg13
VTall grass
p1312
sg15
V28
p1313
sg17
V30
p1314
sg19
V20
p1315
sbag1
(g2
g3
Ntp1316
Rp1317
(dp1318
g7
V043
p1319
sg9
VOddish
p1320
sg11
VOR,AS,
p1321
sg13
VHorde Encounter
p1322
sg15
V15
p1323
sg17
g1323
sg19
V35
p1324
sbag1
(g2
g3
Ntp1325
Rp1326
(dp1327
g7
V054
p1328
sg9
VPsyduck
p1329
sg11
VOR,AS,
p1330
sg13
VHorde Encounter
p1331
sg15
V15
p1332
sg17
g1332
sg19
V5
p1333
sbag1
(g2
g3
Ntp1334
Rp1335
(dp1336
g7
V084
p1337
sg9
VDoduo
p1338
sg11
VOR,AS,
p1339
sg13
VHorde Encounter
p1340
sg15
V15
p1341
sg17
g1341
sg19
V60
p1342
sbag1
(g2
g3
Ntp1343
Rp1344
(dp1345
g7
V014
p1346
sg9
VKakuna
p1347
sg11
VOR,AS,
p1348
sg13
VGrass
p1349
sg15
V30
p1350
sg17
g1350
sg19
V0
p1351
sbag1
(g2
g3
Ntp1352
Rp1353
(dp1354
g7
V017
p1355
sg9
VPidgeotto
p1356
sg11
VOR,AS,
p1357
sg13
VGrass
p1358
sg15
V30
p1359
sg17
g1359
sg19
V0
p1360
sbag1
(g2
g3
Ntp1361
Rp1362
(dp1363
g7
V427
p1364
sg9
VBuneary
p1365
sg11
VOR,AS,
p1366
sg13
VGrass
p1367
sg15
V30
p1368
sg17
g1368
sg19
V0
p1369
sbag1
(g2
g3
Ntp1370
Rp1371
(dp1372
g7
V054
p1373
sg9
VPsyduck
p1374
sg11
VOR,AS,
p1375
sg13
VSurf
p1376
sg15
V20
p1377
sg17
V30
p1378
sg19
V100
p1379
sbag1
(g2
g3
Ntp1380
Rp1381
(dp1382
g7
V118
p1383
sg9
VGoldeen
p1384
sg11
VOR,AS,
p1385
sg13
VFish Old
p1386
sg15
g162
sg17
g162
sg19
V35
p1387
sbag1
(g2
g3
Ntp1388
Rp1389
(dp1390
g7
V129
p1391
sg9
VMagikarp
p1392
sg11
VOR,AS,
p1393
sg13
VFish Old
p1394
sg15
V10
p1395
sg17
V15
p1396
sg19
V65
p1397
sbag1
(g2
g3
Ntp1398
Rp1399
(dp1400
g7
V118
p1401
sg9
VGoldeen
p1402
sg11
VOR,AS,
p1403
sg13
VFish Good
p1404
sg15
V25
p1405
sg17
g1405
sg19
V35
p1406
sbag1
(g2
g3
Ntp1407
Rp1408
(dp1409
g7
V129
p1410
sg9
VMagikarp
p1411
sg11
VOR,AS,
p1412
sg13
VFish Good
p1413
sg15
V25
p1414
sg17
g1414
sg19
V65
p1415
sbag1
(g2
g3
Ntp1416
Rp1417
(dp1418
g7
V119
p1419
sg9
VSeaking
p1420
sg11
VOR,AS,
p1421
sg13
VFish Super
p1422
sg15
V30
p1423
sg17
V40
p1424
sg19
V100
p1425
sba.