(lp0
ccopy_reg
_reconstructor
p1
(c__main__
WildPokemon
p2
c__builtin__
object
p3
Ntp4
Rp5
(dp6
VpDexNo
p7
V261
p8
sVpSpecies
p9
VPoochyena
p10
sVpGames
p11
VRu,S,
p12
sVpArea
p13
VGrass
p14
sVpMinLevel
p15
V3
p16
sVpMaxLevel
p17
V4
p18
sVpRate
p19
V15
p20
sbag1
(g2
g3
Ntp21
Rp22
(dp23
g7
V261
p24
sg9
VPoochyena
p25
sg11
VE,
p26
sg13
VGrass
p27
sg15
g16
sg17
g18
sg19
V30
p28
sbag1
(g2
g3
Ntp29
Rp30
(dp31
g7
V263
p32
sg9
VZigzagoon
p33
sg11
VRu,S,
p34
sg13
VGrass
p35
sg15
g16
sg17
g18
sg19
V30
p36
sbag1
(g2
g3
Ntp37
Rp38
(dp39
g7
V263
p40
sg9
VZigzagoon
p41
sg11
g26
sg13
VGrass
p42
sg15
g16
sg17
g18
sg19
V15
p43
sbag1
(g2
g3
Ntp44
Rp45
(dp46
g7
V265
p47
sg9
VWurmple
p48
sg11
VRu,S,E,
p49
sg13
VGrass
p50
sg15
g16
sg17
g18
sg19
V30
p51
sbag1
(g2
g3
Ntp52
Rp53
(dp54
g7
V270
p55
sg9
VLotad
p56
sg11
VS,E,
p57
sg13
VGrass
p58
sg15
g16
sg17
g18
sg19
V20
p59
sbag1
(g2
g3
Ntp60
Rp61
(dp62
g7
V273
p63
sg9
VSeedot
p64
sg11
VRu,
p65
sg13
VGrass
p66
sg15
g16
sg17
g18
sg19
V20
p67
sbag1
(g2
g3
Ntp68
Rp69
(dp70
g7
V273
p71
sg9
VSeedot
p72
sg11
g26
sg13
VGrass
p73
sg15
g16
sg17
g16
sg19
V1
p74
sbag1
(g2
g3
Ntp75
Rp76
(dp77
g7
V280
p78
sg9
VRalts
p79
sg11
VRu,S,E,
p80
sg13
VGrass
p81
sg15
g18
sg17
g18
sg19
V4
p82
sbag1
(g2
g3
Ntp83
Rp84
(dp85
g7
V283
p86
sg9
VSurskit
p87
sg11
VRu,S,
p88
sg13
VGrass
p89
sg15
g16
sg17
g16
sg19
V1
p90
sbag1
(g2
g3
Ntp91
Rp92
(dp93
g7
V118
p94
sg9
VGoldeen
p95
sg11
g26
sg13
VSurf
p96
sg15
V20
p97
sg17
V30
p98
sg19
V1
p99
sbag1
(g2
g3
Ntp100
Rp101
(dp102
g7
V183
p103
sg9
VMarill
p104
sg11
VRu,S,E,
p105
sg13
VSurf
p106
sg15
V5
p107
sg17
V35
p108
sg19
V99
p109
sbag1
(g2
g3
Ntp110
Rp111
(dp112
g7
V283
p113
sg9
VSurskit
p114
sg11
VRu,S,
p115
sg13
VSurf
p116
sg15
V20
p117
sg17
V30
p118
sg19
V1
p119
sbag1
(g2
g3
Ntp120
Rp121
(dp122
g7
V118
p123
sg9
VGoldeen
p124
sg11
VRu,S,E,
p125
sg13
VFish Old
p126
sg15
g107
sg17
V10
p127
sg19
V30
p128
sbag1
(g2
g3
Ntp129
Rp130
(dp131
g7
V129
p132
sg9
VMagikarp
p133
sg11
VRu,S,E,
p134
sg13
VFish Old
p135
sg15
g107
sg17
V10
p136
sg19
V70
p137
sbag1
(g2
g3
Ntp138
Rp139
(dp140
g7
V118
p141
sg9
VGoldeen
p142
sg11
VRu,S,E,
p143
sg13
VFish Good
p144
sg15
V10
p145
sg17
V30
p146
sg19
V20
p147
sbag1
(g2
g3
Ntp148
Rp149
(dp150
g7
V129
p151
sg9
VMagikarp
p152
sg11
VRu,S,E,
p153
sg13
VFish Good
p154
sg15
V10
p155
sg17
V30
p156
sg19
V60
p157
sbag1
(g2
g3
Ntp158
Rp159
(dp160
g7
V341
p161
sg9
VCorphish
p162
sg11
VRu,S,E,
p163
sg13
VFish Good
p164
sg15
V10
p165
sg17
V30
p166
sg19
V20
p167
sbag1
(g2
g3
Ntp168
Rp169
(dp170
g7
V341
p171
sg9
VCorphish
p172
sg11
VRu,S,E,
p173
sg13
VFish Super
p174
sg15
V20
p175
sg17
V45
p176
sg19
V100
p177
sbag1
(g2
g3
Ntp178
Rp179
(dp180
g7
V283
p181
sg9
VSurskit
p182
sg11
VRu,S,
p183
sg13
VSwarm
p184
sg15
g16
sg17
g16
sg19
V50
p185
sbag1
(g2
g3
Ntp186
Rp187
(dp188
g7
V273
p189
sg9
VSeedot
p190
sg11
g26
sg13
VSwarm
p191
sg15
g16
sg17
g16
sg19
V50
p192
sbag1
(g2
g3
Ntp193
Rp194
(dp195
g7
V261
p196
sg9
VPoochyena
p197
sg11
VOR,AS,
p198
sg13
VGrass
p199
sg15
V2
p200
sg17
g16
sg19
V20
p201
sbag1
(g2
g3
Ntp202
Rp203
(dp204
g7
V263
p205
sg9
VZigzagoon
p206
sg11
VOR,AS,
p207
sg13
VGrass
p208
sg15
g200
sg17
g16
sg19
V30
p209
sbag1
(g2
g3
Ntp210
Rp211
(dp212
g7
V265
p213
sg9
VWurmple
p214
sg11
VOR,AS,
p215
sg13
VGrass
p216
sg15
g200
sg17
g16
sg19
V30
p217
sbag1
(g2
g3
Ntp218
Rp219
(dp220
g7
V270
p221
sg9
VLotad
p222
sg11
VAS,
p223
sg13
VGrass
p224
sg15
g200
sg17
g16
sg19
V15
p225
sbag1
(g2
g3
Ntp226
Rp227
(dp228
g7
V273
p229
sg9
VSeedot
p230
sg11
VOR,
p231
sg13
VGrass
p232
sg15
g200
sg17
g16
sg19
V15
p233
sbag1
(g2
g3
Ntp234
Rp235
(dp236
g7
V280
p237
sg9
VRalts
p238
sg11
VOR,AS,
p239
sg13
VGrass
p240
sg15
g16
sg17
g16
sg19
V4
p241
sbag1
(g2
g3
Ntp242
Rp243
(dp244
g7
V283
p245
sg9
VSurskit
p246
sg11
VOR,AS,
p247
sg13
VGrass
p248
sg15
g16
sg17
g16
sg19
V1
p249
sbag1
(g2
g3
Ntp250
Rp251
(dp252
g7
V263
p253
sg9
VZigzagoon
p254
sg11
VOR,AS,
p255
sg13
VSpecial
p256
sg15
g107
sg17
g107
sg19
V0
p257
sbag1
(g2
g3
Ntp258
Rp259
(dp260
g7
V270
p261
sg9
VLotad
p262
sg11
g223
sg13
VSpecial
p263
sg15
g107
sg17
g107
sg19
V0
p264
sbag1
(g2
g3
Ntp265
Rp266
(dp267
g7
V273
p268
sg9
VSeedot
p269
sg11
g231
sg13
VSpecial
p270
sg15
g107
sg17
g107
sg19
V0
p271
sbag1
(g2
g3
Ntp272
Rp273
(dp274
g7
V283
p275
sg9
VSurskit
p276
sg11
VOR,AS,
p277
sg13
VSpecial
p278
sg15
g107
sg17
g107
sg19
V0
p279
sbag1
(g2
g3
Ntp280
Rp281
(dp282
g7
V263
p283
sg9
VZigzagoon
p284
sg11
VOR,AS,
p285
sg13
VHorde Encounter
p286
sg15
g200
sg17
g200
sg19
V60
p287
sbag1
(g2
g3
Ntp288
Rp289
(dp290
g7
V270
p291
sg9
VLotad
p292
sg11
g223
sg13
VHorde Encounter
p293
sg15
g200
sg17
g200
sg19
V35
p294
sbag1
(g2
g3
Ntp295
Rp296
(dp297
g7
V273
p298
sg9
VSeedot
p299
sg11
g231
sg13
VHorde Encounter
p300
sg15
g200
sg17
g200
sg19
V35
p301
sbag1
(g2
g3
Ntp302
Rp303
(dp304
g7
V280
p305
sg9
VRalts
p306
sg11
VOR,AS,
p307
sg13
VHorde Encounter
p308
sg15
g200
sg17
g200
sg19
V5
p309
sbag1
(g2
g3
Ntp310
Rp311
(dp312
g7
V506
p313
sg9
VLillipup
p314
sg11
VOR,AS,
p315
sg13
VGrass
p316
sg15
g16
sg17
g16
sg19
V0
p317
sbag1
(g2
g3
Ntp318
Rp319
(dp320
g7
V535
p321
sg9
VTympole
p322
sg11
VOR,AS,
p323
sg13
VGrass
p324
sg15
g16
sg17
g16
sg19
V0
p325
sbag1
(g2
g3
Ntp326
Rp327
(dp328
g7
V574
p329
sg9
VGothita
p330
sg11
VOR,AS,
p331
sg13
VGrass
p332
sg15
g16
sg17
g16
sg19
V0
p333
sbag1
(g2
g3
Ntp334
Rp335
(dp336
g7
V183
p337
sg9
VMarill
p338
sg11
VOR,AS,
p339
sg13
VSurf
p340
sg15
V15
p341
sg17
g341
sg19
V50
p342
sbag1
(g2
g3
Ntp343
Rp344
(dp345
g7
V184
p346
sg9
VAzumarill
p347
sg11
VOR,AS,
p348
sg13
VSurf
p349
sg15
V20
p350
sg17
V25
p351
sg19
V31
p352
sbag1
(g2
g3
Ntp353
Rp354
(dp355
g7
V283
p356
sg9
VSurskit
p357
sg11
VOR,AS,
p358
sg13
VSurf
p359
sg15
V20
p360
sg17
g360
sg19
V15
p361
sbag1
(g2
g3
Ntp362
Rp363
(dp364
g7
V284
p365
sg9
VMasquerain
p366
sg11
VOR,AS,
p367
sg13
VSurf
p368
sg15
V25
p369
sg17
g369
sg19
V4
p370
sbag1
(g2
g3
Ntp371
Rp372
(dp373
g7
V118
p374
sg9
VGoldeen
p375
sg11
VOR,AS,
p376
sg13
VFish Old
p377
sg15
g107
sg17
g107
sg19
V35
p378
sbag1
(g2
g3
Ntp379
Rp380
(dp381
g7
V129
p382
sg9
VMagikarp
p383
sg11
VOR,AS,
p384
sg13
VFish Old
p385
sg15
V10
p386
sg17
V15
p387
sg19
V65
p388
sbag1
(g2
g3
Ntp389
Rp390
(dp391
g7
V118
p392
sg9
VGoldeen
p393
sg11
VOR,AS,
p394
sg13
VFish Good
p395
sg15
V25
p396
sg17
g396
sg19
V35
p397
sbag1
(g2
g3
Ntp398
Rp399
(dp400
g7
V129
p401
sg9
VMagikarp
p402
sg11
VOR,AS,
p403
sg13
VFish Good
p404
sg15
V25
p405
sg17
g405
sg19
V60
p406
sbag1
(g2
g3
Ntp407
Rp408
(dp409
g7
V341
p410
sg9
VCorphish
p411
sg11
VOR,AS,
p412
sg13
VFish Good
p413
sg15
V25
p414
sg17
g414
sg19
V5
p415
sbag1
(g2
g3
Ntp416
Rp417
(dp418
g7
V341
p419
sg9
VCorphish
p420
sg11
VOR,AS,
p421
sg13
VFish Super
p422
sg15
V30
p423
sg17
V40
p424
sg19
V100
p425
sba.