(lp0
ccopy_reg
_reconstructor
p1
(c__main__
WildPokemon
p2
c__builtin__
object
p3
Ntp4
Rp5
(dp6
VpDexNo
p7
V415
p8
sVpSpecies
p9
VCombee
p10
sVpGames
p11
VSw,Sh,
p12
sVpArea
p13
VGrass
p14
sVpMinLevel
p15
V43
p16
sVpMaxLevel
p17
V48
p18
sVpRate
p19
V30
p20
sbag1
(g2
g3
Ntp21
Rp22
(dp23
g7
V440
p24
sg9
VHappiny
p25
sg11
VSw,Sh,
p26
sg13
VGrass
p27
sg15
V43
p28
sg17
V48
p29
sg19
V10
p30
sbag1
(g2
g3
Ntp31
Rp32
(dp33
g7
V548
p34
sg9
VPetilil
p35
sg11
VSw,Sh,
p36
sg13
VGrass
p37
sg15
V43
p38
sg17
V48
p39
sg19
V30
p40
sbag1
(g2
g3
Ntp41
Rp42
(dp43
g7
V824
p44
sg9
VBlipbug
p45
sg11
VSw,Sh,
p46
sg13
VGrass
p47
sg15
V43
p48
sg17
V48
p49
sg19
V30
p50
sbag1
(g2
g3
Ntp51
Rp52
(dp53
g7
V129
p54
sg9
VMagikarp
p55
sg11
VSw,Sh,
p56
sg13
VFishing
p57
sg15
V43
p58
sg17
V48
p59
sg19
V60
p60
sbag1
(g2
g3
Ntp61
Rp62
(dp63
g7
V746
p64
sg9
VWishiwashi
p65
sg11
VSw,Sh,
p66
sg13
VFishing
p67
sg15
V43
p68
sg17
V48
p69
sg19
V40
p70
sbag1
(g2
g3
Ntp71
Rp72
(dp73
g7
V113
p74
sg9
VChansey
p75
sg11
VSw,Sh,
p76
sg13
VGrass
p77
sg15
V40
p78
sg17
V45
p79
sg19
V0
p80
sbag1
(g2
g3
Ntp81
Rp82
(dp83
g7
V242
p84
sg9
VBlissey
p85
sg11
VSw,Sh,
p86
sg13
VGrass
p87
sg15
V40
p88
sg17
V45
p89
sg19
g80
sbag1
(g2
g3
Ntp90
Rp91
(dp92
g7
V415
p93
sg9
VCombee
p94
sg11
VSw,Sh,
p95
sg13
VGrass
p96
sg15
V40
p97
sg17
V45
p98
sg19
V82
p99
sbag1
(g2
g3
Ntp100
Rp101
(dp102
g7
V548
p103
sg9
VPetilil
p104
sg11
VSw,Sh,
p105
sg13
VGrass
p106
sg15
V40
p107
sg17
V45
p108
sg19
V16
p109
sbag1
(g2
g3
Ntp110
Rp111
(dp112
g7
V072
p113
sg9
VTentacool
p114
sg11
VSw,Sh,
p115
sg13
VSurf
p116
sg15
V40
p117
sg17
V45
p118
sg19
g80
sbag1
(g2
g3
Ntp119
Rp120
(dp121
g7
V073
p122
sg9
VTentacruel
p123
sg11
VSw,Sh,
p124
sg13
VSurf
p125
sg15
V40
p126
sg17
V45
p127
sg19
g80
sbag1
(g2
g3
Ntp128
Rp129
(dp130
g7
V130
p131
sg9
VGyarados
p132
sg11
VSw,Sh,
p133
sg13
VSurf
p134
sg15
V40
p135
sg17
V45
p136
sg19
V1
p137
sbag1
(g2
g3
Ntp138
Rp139
(dp140
g7
V170
p141
sg9
VChinchou
p142
sg11
VSw,Sh,
p143
sg13
VSurf
p144
sg15
V40
p145
sg17
V45
p146
sg19
g80
sbag1
(g2
g3
Ntp147
Rp148
(dp149
g7
V171
p150
sg9
VLanturn
p151
sg11
VSw,Sh,
p152
sg13
VSurf
p153
sg15
V40
p154
sg17
V45
p155
sg19
g80
sbag1
(g2
g3
Ntp156
Rp157
(dp158
g7
V278
p159
sg9
VWingull
p160
sg11
VSw,Sh,
p161
sg13
VSurf
p162
sg15
V40
p163
sg17
V45
p164
sg19
V30
p165
sbag1
(g2
g3
Ntp166
Rp167
(dp168
g7
V279
p169
sg9
VPelipper
p170
sg11
VSw,Sh,
p171
sg13
VSurf
p172
sg15
V40
p173
sg17
V45
p174
sg19
g80
sbag1
(g2
g3
Ntp175
Rp176
(dp177
g7
V320
p178
sg9
VWailmer
p179
sg11
VSw,Sh,
p180
sg13
VSurf
p181
sg15
V40
p182
sg17
V45
p183
sg19
g80
sbag1
(g2
g3
Ntp184
Rp185
(dp186
g7
V425
p187
sg9
VDrifloon
p188
sg11
VSw,Sh,
p189
sg13
VSurf
p190
sg15
V40
p191
sg17
V45
p192
sg19
g80
sbag1
(g2
g3
Ntp193
Rp194
(dp195
g7
V458
p196
sg9
VMantyke
p197
sg11
VSw,Sh,
p198
sg13
VSurf
p199
sg15
V40
p200
sg17
V45
p201
sg19
g80
sbag1
(g2
g3
Ntp202
Rp203
(dp204
g7
V593
p205
sg9
VJellicent
p206
sg11
VSw,Sh,
p207
sg13
VSurf
p208
sg15
V40
p209
sg17
V45
p210
sg19
g80
sbag1
(g2
g3
Ntp211
Rp212
(dp213
g7
V662
p214
sg9
VFletchinder
p215
sg11
VSw,Sh,
p216
sg13
VSurf
p217
sg15
V40
p218
sg17
V45
p219
sg19
g80
sbag1
(g2
g3
Ntp220
Rp221
(dp222
g7
V690
p223
sg9
VSkrelp
p224
sg11
VSh,
p225
sg13
VSurf
p226
sg15
V40
p227
sg17
V45
p228
sg19
V5
p229
sbag1
(g2
g3
Ntp230
Rp231
(dp232
g7
V691
p233
sg9
VDragalge
p234
sg11
g225
sg13
VSurf
p235
sg15
V40
p236
sg17
V45
p237
sg19
V1
p238
sbag1
(g2
g3
Ntp239
Rp240
(dp241
g7
V692
p242
sg9
VClauncher
p243
sg11
VSw,
p244
sg13
VSurf
p245
sg15
V40
p246
sg17
V45
p247
sg19
V5
p248
sbag1
(g2
g3
Ntp249
Rp250
(dp251
g7
V693
p252
sg9
VClawitzer
p253
sg11
g244
sg13
VSurf
p254
sg15
V40
p255
sg17
V45
p256
sg19
V1
p257
sbag1
(g2
g3
Ntp258
Rp259
(dp260
g7
V549
p261
sg9
VLilligant
p262
sg11
VSw,Sh,
p263
sg13
VWanderer
p264
sg15
V45
p265
sg17
g265
sg19
g80
sbag1
(g2
g3
Ntp266
Rp267
(dp268
g7
V415
p269
sg9
VCombee
p270
sg11
VSw,Sh,
p271
sg13
VWanderer
p272
sg15
V40
p273
sg17
g273
sg19
g80
sbag1
(g2
g3
Ntp274
Rp275
(dp276
g7
V764
p277
sg9
VComfey
p278
sg11
VSw,Sh,
p279
sg13
VWanderer
p280
sg15
V50
p281
sg17
g281
sg19
g80
sbag1
(g2
g3
Ntp282
Rp283
(dp284
g7
V549
p285
sg9
VLilligant
p286
sg11
VSw,Sh,
p287
sg13
VWanderer
p288
sg15
V45
p289
sg17
g289
sg19
g80
sbag1
(g2
g3
Ntp290
Rp291
(dp292
g7
V415
p293
sg9
VCombee
p294
sg11
VSw,Sh,
p295
sg13
VWanderer
p296
sg15
V40
p297
sg17
g297
sg19
g80
sbag1
(g2
g3
Ntp298
Rp299
(dp300
g7
V764
p301
sg9
VComfey
p302
sg11
VSw,Sh,
p303
sg13
VWanderer
p304
sg15
V50
p305
sg17
g305
sg19
g80
sbag1
(g2
g3
Ntp306
Rp307
(dp308
g7
V549
p309
sg9
VLilligant
p310
sg11
VSw,Sh,
p311
sg13
VWanderer
p312
sg15
V45
p313
sg17
g313
sg19
g80
sbag1
(g2
g3
Ntp314
Rp315
(dp316
g7
V415
p317
sg9
VCombee
p318
sg11
VSw,Sh,
p319
sg13
VWanderer
p320
sg15
V40
p321
sg17
g321
sg19
g80
sbag1
(g2
g3
Ntp322
Rp323
(dp324
g7
V764
p325
sg9
VComfey
p326
sg11
VSw,Sh,
p327
sg13
VWanderer
p328
sg15
V50
p329
sg17
g329
sg19
g80
sbag1
(g2
g3
Ntp330
Rp331
(dp332
g7
V549
p333
sg9
VLilligant
p334
sg11
VSw,Sh,
p335
sg13
VWanderer
p336
sg15
V45
p337
sg17
g337
sg19
g80
sbag1
(g2
g3
Ntp338
Rp339
(dp340
g7
V415
p341
sg9
VCombee
p342
sg11
VSw,Sh,
p343
sg13
VWanderer
p344
sg15
V40
p345
sg17
g345
sg19
g80
sbag1
(g2
g3
Ntp346
Rp347
(dp348
g7
V764
p349
sg9
VComfey
p350
sg11
VSw,Sh,
p351
sg13
VWanderer
p352
sg15
V50
p353
sg17
g353
sg19
g80
sbag1
(g2
g3
Ntp354
Rp355
(dp356
g7
V549
p357
sg9
VLilligant
p358
sg11
VSw,Sh,
p359
sg13
VWanderer
p360
sg15
V45
p361
sg17
g361
sg19
g80
sbag1
(g2
g3
Ntp362
Rp363
(dp364
g7
V415
p365
sg9
VCombee
p366
sg11
VSw,Sh,
p367
sg13
VWanderer
p368
sg15
V40
p369
sg17
g369
sg19
g80
sbag1
(g2
g3
Ntp370
Rp371
(dp372
g7
V764
p373
sg9
VComfey
p374
sg11
VSw,Sh,
p375
sg13
VWanderer
p376
sg15
V50
p377
sg17
g377
sg19
g80
sbag1
(g2
g3
Ntp378
Rp379
(dp380
g7
V549
p381
sg9
VLilligant
p382
sg11
VSw,Sh,
p383
sg13
VWanderer
p384
sg15
V45
p385
sg17
g385
sg19
g80
sbag1
(g2
g3
Ntp386
Rp387
(dp388
g7
V415
p389
sg9
VCombee
p390
sg11
VSw,Sh,
p391
sg13
VWanderer
p392
sg15
V40
p393
sg17
g393
sg19
g80
sbag1
(g2
g3
Ntp394
Rp395
(dp396
g7
V764
p397
sg9
VComfey
p398
sg11
VSw,Sh,
p399
sg13
VWanderer
p400
sg15
V50
p401
sg17
g401
sg19
g80
sbag1
(g2
g3
Ntp402
Rp403
(dp404
g7
V052
p405
sg9
VMeowth
p406
sg11
VSw,Sh,
p407
sg13
VTrade
p408
sg15
V15
p409
sg17
g409
sg19
V0
p410
sbag1
(g2
g3
Ntp411
Rp412
(dp413
g7
V077
p414
sg9
VPonyta
p415
sg11
g225
sg13
VTrade
p416
sg15
V15
p417
sg17
g417
sg19
V0
p418
sbag1
(g2
g3
Ntp419
Rp420
(dp421
g7
V083
p422
sg9
VFarfetch'd
p423
sg11
g244
sg13
VTrade
p424
sg15
V15
p425
sg17
g425
sg19
V0
p426
sbag1
(g2
g3
Ntp427
Rp428
(dp429
g7
V103
p430
sg9
VExeggutor
p431
sg11
VSw,Sh,
p432
sg13
VTrade
p433
sg15
V15
p434
sg17
g434
sg19
V0
p435
sbag1
(g2
g3
Ntp436
Rp437
(dp438
g7
V105
p439
sg9
VMarowak
p440
sg11
VSw,Sh,
p441
sg13
VTrade
p442
sg15
V15
p443
sg17
g443
sg19
V0
p444
sbag1
(g2
g3
Ntp445
Rp446
(dp447
g7
V110
p448
sg9
VWeezing
p449
sg11
VSw,Sh,
p450
sg13
VTrade
p451
sg15
V15
p452
sg17
g452
sg19
V0
p453
sbag1
(g2
g3
Ntp454
Rp455
(dp456
g7
V122
p457
sg9
VMr. Mime
p458
sg11
VSw,Sh,
p459
sg13
VTrade
p460
sg15
V15
p461
sg17
g461
sg19
V0
p462
sbag1
(g2
g3
Ntp463
Rp464
(dp465
g7
V222
p466
sg9
VCorsola
p467
sg11
g225
sg13
VTrade
p468
sg15
V15
p469
sg17
g469
sg19
V0
p470
sbag1
(g2
g3
Ntp471
Rp472
(dp473
g7
V263
p474
sg9
VZigzagoon
p475
sg11
VSw,Sh,
p476
sg13
VTrade
p477
sg15
V15
p478
sg17
g478
sg19
V0
p479
sbag1
(g2
g3
Ntp480
Rp481
(dp482
g7
V554
p483
sg9
VDarumaka
p484
sg11
g244
sg13
VTrade
p485
sg15
V15
p486
sg17
g486
sg19
V0
p487
sbag1
(g2
g3
Ntp488
Rp489
(dp490
g7
V618
p491
sg9
VStunfisk
p492
sg11
VSw,Sh,
p493
sg13
VTrade
p494
sg15
V15
p495
sg17
g495
sg19
V0
p496
sba.