(lp0
ccopy_reg
_reconstructor
p1
(c__main__
WildPokemon
p2
c__builtin__
object
p3
Ntp4
Rp5
(dp6
VpDexNo
p7
V129
p8
sVpSpecies
p9
VMagikarp
p10
sVpGames
p11
VSw,Sh,
p12
sVpArea
p13
VFishing
p14
sVpMinLevel
p15
V43
p16
sVpMaxLevel
p17
V48
p18
sVpRate
p19
V60
p20
sbag1
(g2
g3
Ntp21
Rp22
(dp23
g7
V746
p24
sg9
VWishiwashi
p25
sg11
VSw,Sh,
p26
sg13
VFishing
p27
sg15
V43
p28
sg17
V48
p29
sg19
V40
p30
sbag1
(g2
g3
Ntp31
Rp32
(dp33
g7
V072
p34
sg9
VTentacool
p35
sg11
VSw,Sh,
p36
sg13
VSurf
p37
sg15
V40
p38
sg17
V45
p39
sg19
V0
p40
sbag1
(g2
g3
Ntp41
Rp42
(dp43
g7
V073
p44
sg9
VTentacruel
p45
sg11
VSw,Sh,
p46
sg13
VSurf
p47
sg15
V40
p48
sg17
V45
p49
sg19
g40
sbag1
(g2
g3
Ntp50
Rp51
(dp52
g7
V130
p53
sg9
VGyarados
p54
sg11
VSw,Sh,
p55
sg13
VSurf
p56
sg15
V40
p57
sg17
V45
p58
sg19
V1
p59
sbag1
(g2
g3
Ntp60
Rp61
(dp62
g7
V170
p63
sg9
VChinchou
p64
sg11
VSw,Sh,
p65
sg13
VSurf
p66
sg15
V40
p67
sg17
V45
p68
sg19
g40
sbag1
(g2
g3
Ntp69
Rp70
(dp71
g7
V171
p72
sg9
VLanturn
p73
sg11
VSw,Sh,
p74
sg13
VSurf
p75
sg15
V40
p76
sg17
V45
p77
sg19
g40
sbag1
(g2
g3
Ntp78
Rp79
(dp80
g7
V278
p81
sg9
VWingull
p82
sg11
VSw,Sh,
p83
sg13
VSurf
p84
sg15
V40
p85
sg17
V45
p86
sg19
V30
p87
sbag1
(g2
g3
Ntp88
Rp89
(dp90
g7
V279
p91
sg9
VPelipper
p92
sg11
VSw,Sh,
p93
sg13
VSurf
p94
sg15
V40
p95
sg17
V45
p96
sg19
g40
sbag1
(g2
g3
Ntp97
Rp98
(dp99
g7
V320
p100
sg9
VWailmer
p101
sg11
VSw,Sh,
p102
sg13
VSurf
p103
sg15
V40
p104
sg17
V45
p105
sg19
g40
sbag1
(g2
g3
Ntp106
Rp107
(dp108
g7
V425
p109
sg9
VDrifloon
p110
sg11
VSw,Sh,
p111
sg13
VSurf
p112
sg15
V40
p113
sg17
V45
p114
sg19
g40
sbag1
(g2
g3
Ntp115
Rp116
(dp117
g7
V458
p118
sg9
VMantyke
p119
sg11
VSw,Sh,
p120
sg13
VSurf
p121
sg15
V40
p122
sg17
V45
p123
sg19
g40
sbag1
(g2
g3
Ntp124
Rp125
(dp126
g7
V593
p127
sg9
VJellicent
p128
sg11
VSw,Sh,
p129
sg13
VSurf
p130
sg15
V40
p131
sg17
V45
p132
sg19
g40
sbag1
(g2
g3
Ntp133
Rp134
(dp135
g7
V662
p136
sg9
VFletchinder
p137
sg11
VSw,Sh,
p138
sg13
VSurf
p139
sg15
V40
p140
sg17
V45
p141
sg19
g40
sbag1
(g2
g3
Ntp142
Rp143
(dp144
g7
V690
p145
sg9
VSkrelp
p146
sg11
VSh,
p147
sg13
VSurf
p148
sg15
V40
p149
sg17
V45
p150
sg19
V5
p151
sbag1
(g2
g3
Ntp152
Rp153
(dp154
g7
V691
p155
sg9
VDragalge
p156
sg11
g147
sg13
VSurf
p157
sg15
V40
p158
sg17
V45
p159
sg19
V1
p160
sbag1
(g2
g3
Ntp161
Rp162
(dp163
g7
V692
p164
sg9
VClauncher
p165
sg11
VSw,
p166
sg13
VSurf
p167
sg15
V40
p168
sg17
V45
p169
sg19
V5
p170
sbag1
(g2
g3
Ntp171
Rp172
(dp173
g7
V693
p174
sg9
VClawitzer
p175
sg11
g166
sg13
VSurf
p176
sg15
V40
p177
sg17
V45
p178
sg19
V1
p179
sbag1
(g2
g3
Ntp180
Rp181
(dp182
g7
V319
p183
sg9
VSharpedo
p184
sg11
VSw,Sh,
p185
sg13
VSurf
p186
sg15
V40
p187
sg17
V45
p188
sg19
V100
p189
sbag1
(g2
g3
Ntp190
Rp191
(dp192
g7
V117
p193
sg9
VSeadra
p194
sg11
VSw,Sh,
p195
sg13
VWanderer
p196
sg15
V45
p197
sg17
g197
sg19
g40
sbag1
(g2
g3
Ntp198
Rp199
(dp200
g7
V230
p201
sg9
VKingdra
p202
sg11
VSw,Sh,
p203
sg13
VWanderer
p204
sg15
V60
p205
sg17
g205
sg19
g40
sba.