(lp0
ccopy_reg
_reconstructor
p1
(c__main__
WildPokemon
p2
c__builtin__
object
p3
Ntp4
Rp5
(dp6
VpDexNo
p7
V170
p8
sVpSpecies
p9
VChinchou
p10
sVpGames
p11
VSw,Sh,
p12
sVpArea
p13
VFishing
p14
sVpMinLevel
p15
V20
p16
sVpMaxLevel
p17
V24
p18
sVpRate
p19
V20
p20
sbag1
(g2
g3
Ntp21
Rp22
(dp23
g7
V550
p24
sg9
VBasculin
p25
sg11
VSw,
p26
sg13
VFishing
p27
sg15
V20
p28
sg17
V24
p29
sg19
V10
p30
sbag1
(g2
g3
Ntp31
Rp32
(dp33
g7
V550
p34
sg9
VBasculin
p35
sg11
VSh,
p36
sg13
VFishing
p37
sg15
V20
p38
sg17
V24
p39
sg19
V10
p40
sbag1
(g2
g3
Ntp41
Rp42
(dp43
g7
V746
p44
sg9
VWishiwashi
p45
sg11
VSw,Sh,
p46
sg13
VFishing
p47
sg15
V20
p48
sg17
V24
p49
sg19
V5
p50
sbag1
(g2
g3
Ntp51
Rp52
(dp53
g7
V833
p54
sg9
VChewtle
p55
sg11
VSw,Sh,
p56
sg13
VFishing
p57
sg15
V20
p58
sg17
V24
p59
sg19
V15
p60
sbag1
(g2
g3
Ntp61
Rp62
(dp63
g7
V846
p64
sg9
VArrokuda
p65
sg11
VSw,Sh,
p66
sg13
VFishing
p67
sg15
V20
p68
sg17
V24
p69
sg19
V50
p70
sbag1
(g2
g3
Ntp71
Rp72
(dp73
g7
V546
p74
sg9
VCottonee
p75
sg11
VSw,Sh,
p76
sg13
VTrade
p77
sg15
V23
p78
sg17
g78
sg19
V0
p79
sba.