(lp0
ccopy_reg
_reconstructor
p1
(c__main__
WildPokemon
p2
c__builtin__
object
p3
Ntp4
Rp5
(dp6
VpDexNo
p7
V120
p8
sVpSpecies
p9
VStaryu
p10
sVpGames
p11
VB2,W2,
p12
sVpArea
p13
VSurf
p14
sVpMinLevel
p15
V30
p16
sVpMaxLevel
p17
V45
p18
sVpRate
p19
V30
p20
sbag1
(g2
g3
Ntp21
Rp22
(dp23
g7
V550
p24
sg9
VBasculin
p25
sg11
VB2,
p26
sg13
VSurf
p27
sg15
V35
p28
sg17
V45
p29
sg19
V5
p30
sbag1
(g2
g3
Ntp31
Rp32
(dp33
g7
V550
p34
sg9
VBasculin
p35
sg11
VW2,
p36
sg13
VSurf
p37
sg15
V35
p38
sg17
V45
p39
sg19
V5
p40
sbag1
(g2
g3
Ntp41
Rp42
(dp43
g7
V592
p44
sg9
VFrillish
p45
sg11
VB2,W2,
p46
sg13
VSurf
p47
sg15
V30
p48
sg17
V45
p49
sg19
V65
p50
sbag1
(g2
g3
Ntp51
Rp52
(dp53
g7
V121
p54
sg9
VStarmie
p55
sg11
VB2,W2,
p56
sg13
VRippling
p57
sg15
V35
p58
sg17
V45
p59
sg19
V5
p60
sbag1
(g2
g3
Ntp61
Rp62
(dp63
g7
V222
p64
sg9
VCorsola
p65
sg11
VB2,W2,
p66
sg13
VRippling
p67
sg15
V35
p68
sg17
V45
p69
sg19
V30
p70
sbag1
(g2
g3
Ntp71
Rp72
(dp73
g7
V550
p74
sg9
VBasculin
p75
sg11
g26
sg13
VRippling
p76
sg15
V35
p77
sg17
V45
p78
sg19
V5
p79
sbag1
(g2
g3
Ntp80
Rp81
(dp82
g7
V550
p83
sg9
VBasculin
p84
sg11
g36
sg13
VRippling
p85
sg15
V35
p86
sg17
V45
p87
sg19
V5
p88
sbag1
(g2
g3
Ntp89
Rp90
(dp91
g7
V593
p92
sg9
VJellicent
p93
sg11
VB2,W2,
p94
sg13
VRippling
p95
sg15
V35
p96
sg17
V45
p97
sg19
V60
p98
sbag1
(g2
g3
Ntp99
Rp100
(dp101
g7
V090
p102
sg9
VShellder
p103
sg11
VB2,W2,
p104
sg13
VFish Super
p105
sg15
V40
p106
sg17
V60
p107
sg19
V30
p108
sbag1
(g2
g3
Ntp109
Rp110
(dp111
g7
V370
p112
sg9
VLuvdisc
p113
sg11
VB2,W2,
p114
sg13
VFish Super
p115
sg15
V40
p116
sg17
V70
p117
sg19
V70
p118
sbag1
(g2
g3
Ntp119
Rp120
(dp121
g7
V090
p122
sg9
VShellder
p123
sg11
VB2,W2,
p124
sg13
VRippling
p125
sg15
V40
p126
sg17
V70
p127
sg19
V65
p128
sbag1
(g2
g3
Ntp129
Rp130
(dp131
g7
V091
p132
sg9
VCloyster
p133
sg11
VB2,W2,
p134
sg13
VRippling
p135
sg15
V50
p136
sg17
V70
p137
sg19
V5
p138
sbag1
(g2
g3
Ntp139
Rp140
(dp141
g7
V370
p142
sg9
VLuvdisc
p143
sg11
VB2,W2,
p144
sg13
VRippling
p145
sg15
V40
p146
sg17
V60
p147
sg19
V30
p148
sbag1
(g2
g3
Ntp149
Rp150
(dp151
g7
V465
p152
sg9
VTangrowth
p153
sg11
VB2,W2,
p154
sg13
VTrade
p155
sg15
V45
p156
sg17
g156
sg19
V0
p157
sba.