(lp0
ccopy_reg
_reconstructor
p1
(c__main__
WildPokemon
p2
c__builtin__
object
p3
Ntp4
Rp5
(dp6
VpDexNo
p7
V041
p8
sVpSpecies
p9
VZubat
p10
sVpGames
p11
VG,
p12
sVpArea
p13
VCave
p14
sVpMinLevel
p15
V22
p16
sVpMaxLevel
p17
g16
sVpRate
p18
V25
p19
sbag1
(g2
g3
Ntp20
Rp21
(dp22
g7
V041
p23
sg9
VZubat
p24
sg11
VS,
p25
sg13
VCave
p26
sg15
V22
p27
sg17
g27
sg18
V5
p28
sbag1
(g2
g3
Ntp29
Rp30
(dp31
g7
V041
p32
sg9
VZubat
p33
sg11
VC,
p34
sg13
VCave
p35
sg15
V22
p36
sg17
g36
sg18
V30
p37
sbag1
(g2
g3
Ntp38
Rp39
(dp40
g7
V042
p41
sg9
VGolbat
p42
sg11
VG,S,C,
p43
sg13
VCave
p44
sg15
V22
p45
sg17
V24
p46
sg18
V30
p47
sbag1
(g2
g3
Ntp48
Rp49
(dp50
g7
V124
p51
sg9
VJynx
p52
sg11
VG,S,
p53
sg13
VCave
p54
sg15
V20
p55
sg17
g55
sg18
V10
p56
sbag1
(g2
g3
Ntp57
Rp58
(dp59
g7
V220
p60
sg9
VSwinub
p61
sg11
VG,S,
p62
sg13
VCave
p63
sg15
V21
p64
sg17
V23
p65
sg18
V40
p66
sbag1
(g2
g3
Ntp67
Rp68
(dp69
g7
V220
p70
sg9
VSwinub
p71
sg11
g34
sg13
VCave
p72
sg15
V21
p73
sg17
V23
p74
sg18
V40
p75
sbag1
(g2
g3
Ntp76
Rp77
(dp78
g7
V225
p79
sg9
VDelibird
p80
sg11
g25
sg13
VCave
p81
sg15
V22
p82
sg17
g82
sg18
V20
p83
sbag1
(g2
g3
Ntp84
Rp85
(dp86
g7
V225
p87
sg9
VDelibird
p88
sg11
g34
sg13
VCave
p89
sg15
V21
p90
sg17
V23
p91
sg18
V40
p92
sbag1
(g2
g3
Ntp93
Rp94
(dp95
g7
V041
p96
sg9
VZubat
p97
sg11
g12
sg13
VCave
p98
sg15
V22
p99
sg17
g99
sg18
V25
p100
sbag1
(g2
g3
Ntp101
Rp102
(dp103
g7
V041
p104
sg9
VZubat
p105
sg11
g25
sg13
VCave
p106
sg15
V22
p107
sg17
g107
sg18
V5
p108
sbag1
(g2
g3
Ntp109
Rp110
(dp111
g7
V041
p112
sg9
VZubat
p113
sg11
g34
sg13
VCave
p114
sg15
V23
p115
sg17
g115
sg18
V30
p116
sbag1
(g2
g3
Ntp117
Rp118
(dp119
g7
V042
p120
sg9
VGolbat
p121
sg11
VG,S,
p122
sg13
VCave
p123
sg15
V22
p124
sg17
g124
sg18
V30
p125
sbag1
(g2
g3
Ntp126
Rp127
(dp128
g7
V042
p129
sg9
VGolbat
p130
sg11
g34
sg13
VCave
p131
sg15
V23
p132
sg17
V25
p133
sg18
V29
p134
sbag1
(g2
g3
Ntp135
Rp136
(dp137
g7
V124
p138
sg9
VJynx
p139
sg11
VG,S,
p140
sg13
VCave
p141
sg15
V22
p142
sg17
g142
sg18
V5
p143
sbag1
(g2
g3
Ntp144
Rp145
(dp146
g7
V124
p147
sg9
VJynx
p148
sg11
VG,S,
p149
sg13
VCave
p150
sg15
V20
p151
sg17
V22
p152
sg18
V10
p153
sbag1
(g2
g3
Ntp154
Rp155
(dp156
g7
V124
p157
sg9
VJynx
p158
sg11
g34
sg13
VCave
p159
sg15
V22
p160
sg17
g160
sg18
V1
p161
sbag1
(g2
g3
Ntp162
Rp163
(dp164
g7
V215
p165
sg9
VSneasel
p166
sg11
g34
sg13
VCave
p167
sg15
V22
p168
sg17
g168
sg18
V1
p169
sbag1
(g2
g3
Ntp170
Rp171
(dp172
g7
V220
p173
sg9
VSwinub
p174
sg11
VG,S,
p175
sg13
VCave
p176
sg15
V21
p177
sg17
V23
p178
sg18
V40
p179
sbag1
(g2
g3
Ntp180
Rp181
(dp182
g7
V220
p183
sg9
VSwinub
p184
sg11
g34
sg13
VCave
p185
sg15
V22
p186
sg17
g186
sg18
V40
p187
sbag1
(g2
g3
Ntp188
Rp189
(dp190
g7
V225
p191
sg9
VDelibird
p192
sg11
g25
sg13
VCave
p193
sg15
V22
p194
sg17
g194
sg18
V20
p195
sbag1
(g2
g3
Ntp196
Rp197
(dp198
g7
V225
p199
sg9
VDelibird
p200
sg11
g34
sg13
VCave
p201
sg15
V22
p202
sg17
V24
p203
sg18
V40
p204
sbag1
(g2
g3
Ntp205
Rp206
(dp207
g7
V041
p208
sg9
VZubat
p209
sg11
g12
sg13
VCave
p210
sg15
V23
p211
sg17
g211
sg18
V25
p212
sbag1
(g2
g3
Ntp213
Rp214
(dp215
g7
V041
p216
sg9
VZubat
p217
sg11
g25
sg13
VCave
p218
sg15
V23
p219
sg17
g219
sg18
V5
p220
sbag1
(g2
g3
Ntp221
Rp222
(dp223
g7
V041
p224
sg9
VZubat
p225
sg11
g34
sg13
VCave
p226
sg15
V24
p227
sg17
g227
sg18
V30
p228
sbag1
(g2
g3
Ntp229
Rp230
(dp231
g7
V042
p232
sg9
VGolbat
p233
sg11
VG,S,
p234
sg13
VCave
p235
sg15
V23
p236
sg17
g236
sg18
V30
p237
sbag1
(g2
g3
Ntp238
Rp239
(dp240
g7
V042
p241
sg9
VGolbat
p242
sg11
g34
sg13
VCave
p243
sg15
V24
p244
sg17
V26
p245
sg18
V25
p246
sbag1
(g2
g3
Ntp247
Rp248
(dp249
g7
V124
p250
sg9
VJynx
p251
sg11
VG,S,
p252
sg13
VCave
p253
sg15
V22
p254
sg17
g254
sg18
V10
p255
sbag1
(g2
g3
Ntp256
Rp257
(dp258
g7
V124
p259
sg9
VJynx
p260
sg11
g34
sg13
VCave
p261
sg15
V22
p262
sg17
g262
sg18
V5
p263
sbag1
(g2
g3
Ntp264
Rp265
(dp266
g7
V215
p267
sg9
VSneasel
p268
sg11
g34
sg13
VCave
p269
sg15
V22
p270
sg17
g270
sg18
V5
p271
sbag1
(g2
g3
Ntp272
Rp273
(dp274
g7
V220
p275
sg9
VSwinub
p276
sg11
VG,S,
p277
sg13
VCave
p278
sg15
V22
p279
sg17
V24
p280
sg18
V40
p281
sbag1
(g2
g3
Ntp282
Rp283
(dp284
g7
V220
p285
sg9
VSwinub
p286
sg11
g34
sg13
VCave
p287
sg15
V23
p288
sg17
V25
p289
sg18
V40
p290
sbag1
(g2
g3
Ntp291
Rp292
(dp293
g7
V225
p294
sg9
VDelibird
p295
sg11
g25
sg13
VCave
p296
sg15
V23
p297
sg17
g297
sg18
V20
p298
sbag1
(g2
g3
Ntp299
Rp300
(dp301
g7
V225
p302
sg9
VDelibird
p303
sg11
g34
sg13
VCave
p304
sg15
V23
p305
sg17
V25
p306
sg18
V40
p307
sbag1
(g2
g3
Ntp308
Rp309
(dp310
g7
V041
p311
sg9
VZubat
p312
sg11
g12
sg13
VCave
p313
sg15
V24
p314
sg17
g314
sg18
V25
p315
sbag1
(g2
g3
Ntp316
Rp317
(dp318
g7
V041
p319
sg9
VZubat
p320
sg11
g25
sg13
VCave
p321
sg15
V24
p322
sg17
g322
sg18
V5
p323
sbag1
(g2
g3
Ntp324
Rp325
(dp326
g7
V041
p327
sg9
VZubat
p328
sg11
g34
sg13
VCave
p329
sg15
V25
p330
sg17
g330
sg18
V30
p331
sbag1
(g2
g3
Ntp332
Rp333
(dp334
g7
V042
p335
sg9
VGolbat
p336
sg11
VG,S,
p337
sg13
VCave
p338
sg15
V24
p339
sg17
g339
sg18
V30
p340
sbag1
(g2
g3
Ntp341
Rp342
(dp343
g7
V042
p344
sg9
VGolbat
p345
sg11
g34
sg13
VCave
p346
sg15
V25
p347
sg17
g347
sg18
V20
p348
sbag1
(g2
g3
Ntp349
Rp350
(dp351
g7
V124
p352
sg9
VJynx
p353
sg11
VG,S,
p354
sg13
VCave
p355
sg15
V22
p356
sg17
g356
sg18
V5
p357
sbag1
(g2
g3
Ntp358
Rp359
(dp360
g7
V124
p361
sg9
VJynx
p362
sg11
VG,S,
p363
sg13
VCave
p364
sg15
V24
p365
sg17
g365
sg18
V5
p366
sbag1
(g2
g3
Ntp367
Rp368
(dp369
g7
V124
p370
sg9
VJynx
p371
sg11
g34
sg13
VCave
p372
sg15
V22
p373
sg17
V26
p374
sg18
V10
p375
sbag1
(g2
g3
Ntp376
Rp377
(dp378
g7
V215
p379
sg9
VSneasel
p380
sg11
g34
sg13
VCave
p381
sg15
V22
p382
sg17
V26
p383
sg18
V10
p384
sbag1
(g2
g3
Ntp385
Rp386
(dp387
g7
V220
p388
sg9
VSwinub
p389
sg11
VG,S,
p390
sg13
VCave
p391
sg15
V23
p392
sg17
V25
p393
sg18
V40
p394
sbag1
(g2
g3
Ntp395
Rp396
(dp397
g7
V220
p398
sg9
VSwinub
p399
sg11
g34
sg13
VCave
p400
sg15
V24
p401
sg17
V26
p402
sg18
V40
p403
sbag1
(g2
g3
Ntp404
Rp405
(dp406
g7
V225
p407
sg9
VDelibird
p408
sg11
g25
sg13
VCave
p409
sg15
V24
p410
sg17
g410
sg18
V20
p411
sbag1
(g2
g3
Ntp412
Rp413
(dp414
g7
V225
p415
sg9
VDelibird
p416
sg11
g34
sg13
VCave
p417
sg15
V24
p418
sg17
V26
p419
sg18
V40
p420
sbag1
(g2
g3
Ntp421
Rp422
(dp423
g7
V041
p424
sg9
VZubat
p425
sg11
VHG,
p426
sg13
VCave
p427
sg15
V22
p428
sg17
g428
sg18
V25
p429
sbag1
(g2
g3
Ntp430
Rp431
(dp432
g7
V041
p433
sg9
VZubat
p434
sg11
VSS,
p435
sg13
VCave
p436
sg15
V22
p437
sg17
g437
sg18
V5
p438
sbag1
(g2
g3
Ntp439
Rp440
(dp441
g7
V042
p442
sg9
VGolbat
p443
sg11
VHG,SS,
p444
sg13
VCave
p445
sg15
V22
p446
sg17
g446
sg18
V30
p447
sbag1
(g2
g3
Ntp448
Rp449
(dp450
g7
V124
p451
sg9
VJynx
p452
sg11
VHG,SS,
p453
sg13
VCave
p454
sg15
V22
p455
sg17
g455
sg18
V10
p456
sbag1
(g2
g3
Ntp457
Rp458
(dp459
g7
V220
p460
sg9
VSwinub
p461
sg11
VHG,SS,
p462
sg13
VCave
p463
sg15
V21
p464
sg17
V24
p465
sg18
V40
p466
sbag1
(g2
g3
Ntp467
Rp468
(dp469
g7
V225
p470
sg9
VDelibird
p471
sg11
g435
sg13
VCave
p472
sg15
V22
p473
sg17
V23
p474
sg18
V20
p475
sbag1
(g2
g3
Ntp476
Rp477
(dp478
g7
V296
p479
sg9
VMakuhita
p480
sg11
VHG,SS,
p481
sg13
VHoenn
p482
sg15
V22
p483
sg17
g483
sg18
V20
p484
sbag1
(g2
g3
Ntp485
Rp486
(dp487
g7
V359
p488
sg9
VAbsol
p489
sg11
VHG,SS,
p490
sg13
VHoenn
p491
sg15
V21
p492
sg17
V22
p493
sg18
V20
p494
sbag1
(g2
g3
Ntp495
Rp496
(dp497
g7
V433
p498
sg9
VChingling
p499
sg11
VHG,SS,
p500
sg13
VSinnoh
p501
sg15
V22
p502
sg17
g502
sg18
V20
p503
sbag1
(g2
g3
Ntp504
Rp505
(dp506
g7
V436
p507
sg9
VBronzor
p508
sg11
VHG,SS,
p509
sg13
VSinnoh
p510
sg15
V21
p511
sg17
V22
p512
sg18
V20
p513
sba.