(lp0
ccopy_reg
_reconstructor
p1
(c__main__
WildPokemon
p2
c__builtin__
object
p3
Ntp4
Rp5
(dp6
VpDexNo
p7
V086
p8
sVpSpecies
p9
VSeel
p10
sVpGames
p11
VFR,LG,
p12
sVpArea
p13
VCave
p14
sVpMinLevel
p15
V43
p16
sVpMaxLevel
p17
V47
p18
sVpRate
p19
V40
p20
sbag1
(g2
g3
Ntp21
Rp22
(dp23
g7
V042
p24
sg9
VGolbat
p25
sg11
VFR,LG,
p26
sg13
VCave
p27
sg15
V45
p28
sg17
V48
p29
sg19
V25
p30
sbag1
(g2
g3
Ntp31
Rp32
(dp33
g7
V087
p34
sg9
VDewgong
p35
sg11
VFR,LG,
p36
sg13
VCave
p37
sg15
V49
p38
sg17
V53
p39
sg19
V20
p40
sbag1
(g2
g3
Ntp41
Rp42
(dp43
g7
V041
p44
sg9
VZubat
p45
sg11
VFR,LG,
p46
sg13
VCave
p47
sg15
V40
p48
sg17
g48
sg19
V10
p49
sbag1
(g2
g3
Ntp50
Rp51
(dp52
g7
V054
p53
sg9
VPsyduck
p54
sg11
VFR,
p55
sg13
VCave
p56
sg15
V41
p57
sg17
g57
sg19
V5
p58
sbag1
(g2
g3
Ntp59
Rp60
(dp61
g7
V079
p62
sg9
VSlowpoke
p63
sg11
VLG,
p64
sg13
VCave
p65
sg15
V41
p66
sg17
g66
sg19
V5
p67
sbag1
(g2
g3
Ntp68
Rp69
(dp70
g7
V086
p71
sg9
VSeel
p72
sg11
VFR,LG,
p73
sg13
VSurf
p74
sg15
V5
p75
sg17
V35
p76
sg19
V60
p77
sbag1
(g2
g3
Ntp78
Rp79
(dp80
g7
V054
p81
sg9
VPsyduck
p82
sg11
g55
sg13
VSurf
p83
sg15
g75
sg17
V35
p84
sg19
V30
p85
sbag1
(g2
g3
Ntp86
Rp87
(dp88
g7
V079
p89
sg9
VSlowpoke
p90
sg11
g64
sg13
VSurf
p91
sg15
g75
sg17
V35
p92
sg19
V30
p93
sbag1
(g2
g3
Ntp94
Rp95
(dp96
g7
V087
p97
sg9
VDewgong
p98
sg11
VFR,LG,
p99
sg13
VSurf
p100
sg15
V35
p101
sg17
V40
p102
sg19
V5
p103
sbag1
(g2
g3
Ntp104
Rp105
(dp106
g7
V194
p107
sg9
VWooper
p108
sg11
g55
sg13
VSurf
p109
sg15
g75
sg17
V15
p110
sg19
V5
p111
sbag1
(g2
g3
Ntp112
Rp113
(dp114
g7
V183
p115
sg9
VMarill
p116
sg11
g64
sg13
VSurf
p117
sg15
g75
sg17
V15
p118
sg19
V5
p119
sbag1
(g2
g3
Ntp120
Rp121
(dp122
g7
V129
p123
sg9
VMagikarp
p124
sg11
VFR,LG,
p125
sg13
VFish Old
p126
sg15
g75
sg17
g75
sg19
V100
p127
sbag1
(g2
g3
Ntp128
Rp129
(dp130
g7
V060
p131
sg9
VPoliwag
p132
sg11
VFR,LG,
p133
sg13
VFish Good
p134
sg15
g75
sg17
V15
p135
sg19
V60
p136
sbag1
(g2
g3
Ntp137
Rp138
(dp139
g7
V118
p140
sg9
VGoldeen
p141
sg11
VFR,LG,
p142
sg13
VFish Good
p143
sg15
g75
sg17
V15
p144
sg19
V20
p145
sbag1
(g2
g3
Ntp146
Rp147
(dp148
g7
V129
p149
sg9
VMagikarp
p150
sg11
VFR,LG,
p151
sg13
VFish Good
p152
sg15
g75
sg17
V15
p153
sg19
V20
p154
sbag1
(g2
g3
Ntp155
Rp156
(dp157
g7
V060
p158
sg9
VPoliwag
p159
sg11
VFR,LG,
p160
sg13
VFish Super
p161
sg15
V15
p162
sg17
V25
p163
sg19
V40
p164
sbag1
(g2
g3
Ntp165
Rp166
(dp167
g7
V061
p168
sg9
VPoliwhirl
p169
sg11
VFR,LG,
p170
sg13
VFish Super
p171
sg15
V20
p172
sg17
V30
p173
sg19
V40
p174
sbag1
(g2
g3
Ntp175
Rp176
(dp177
g7
V130
p178
sg9
VGyarados
p179
sg11
VFR,LG,
p180
sg13
VFish Super
p181
sg15
V15
p182
sg17
V25
p183
sg19
V15
p184
sbag1
(g2
g3
Ntp185
Rp186
(dp187
g7
V054
p188
sg9
VPsyduck
p189
sg11
g55
sg13
VFish Super
p190
sg15
V15
p191
sg17
V35
p192
sg19
V5
p193
sbag1
(g2
g3
Ntp194
Rp195
(dp196
g7
V079
p197
sg9
VSlowpoke
p198
sg11
g64
sg13
VFish Super
p199
sg15
V15
p200
sg17
V35
p201
sg19
V5
p202
sbag1
(g2
g3
Ntp203
Rp204
(dp205
g7
V220
p206
sg9
VSwinub
p207
sg11
VFR,LG,
p208
sg13
VCave
p209
sg15
V23
p210
sg17
V31
p211
sg19
V50
p212
sbag1
(g2
g3
Ntp213
Rp214
(dp215
g7
V042
p216
sg9
VGolbat
p217
sg11
VFR,LG,
p218
sg13
VCave
p219
sg15
V45
p220
sg17
V48
p221
sg19
V25
p222
sbag1
(g2
g3
Ntp223
Rp224
(dp225
g7
V041
p226
sg9
VZubat
p227
sg11
VFR,LG,
p228
sg13
VCave
p229
sg15
V40
p230
sg17
g230
sg19
V10
p231
sbag1
(g2
g3
Ntp232
Rp233
(dp234
g7
V086
p235
sg9
VSeel
p236
sg11
VFR,LG,
p237
sg13
VCave
p238
sg15
V45
p239
sg17
g239
sg19
V10
p240
sbag1
(g2
g3
Ntp241
Rp242
(dp243
g7
V225
p244
sg9
VDelibird
p245
sg11
g55
sg13
VCave
p246
sg15
V30
p247
sg17
g247
sg19
V5
p248
sbag1
(g2
g3
Ntp249
Rp250
(dp251
g7
V215
p252
sg9
VSneasel
p253
sg11
g64
sg13
VCave
p254
sg15
V30
p255
sg17
g255
sg19
V5
p256
sbag1
(g2
g3
Ntp257
Rp258
(dp259
g7
V086
p260
sg9
VSeel
p261
sg11
VFR,LG,
p262
sg13
VCave
p263
sg15
V43
p264
sg17
V47
p265
sg19
V40
p266
sbag1
(g2
g3
Ntp267
Rp268
(dp269
g7
V042
p270
sg9
VGolbat
p271
sg11
VFR,LG,
p272
sg13
VCave
p273
sg15
V45
p274
sg17
V48
p275
sg19
V25
p276
sbag1
(g2
g3
Ntp277
Rp278
(dp279
g7
V087
p280
sg9
VDewgong
p281
sg11
VFR,LG,
p282
sg13
VCave
p283
sg15
V49
p284
sg17
V53
p285
sg19
V20
p286
sbag1
(g2
g3
Ntp287
Rp288
(dp289
g7
V041
p290
sg9
VZubat
p291
sg11
VFR,LG,
p292
sg13
VCave
p293
sg15
V40
p294
sg17
g294
sg19
V10
p295
sbag1
(g2
g3
Ntp296
Rp297
(dp298
g7
V054
p299
sg9
VPsyduck
p300
sg11
g55
sg13
VCave
p301
sg15
V41
p302
sg17
g302
sg19
V5
p303
sbag1
(g2
g3
Ntp304
Rp305
(dp306
g7
V079
p307
sg9
VSlowpoke
p308
sg11
g64
sg13
VCave
p309
sg15
V41
p310
sg17
g310
sg19
V5
p311
sbag1
(g2
g3
Ntp312
Rp313
(dp314
g7
V072
p315
sg9
VTentacool
p316
sg11
VFR,LG,
p317
sg13
VSurf
p318
sg15
g75
sg17
V45
p319
sg19
V95
p320
sbag1
(g2
g3
Ntp321
Rp322
(dp323
g7
V073
p324
sg9
VTentacruel
p325
sg11
VFR,LG,
p326
sg13
VSurf
p327
sg15
V35
p328
sg17
V45
p329
sg19
V4
p330
sbag1
(g2
g3
Ntp331
Rp332
(dp333
g7
V131
p334
sg9
VLapras
p335
sg11
VFR,LG,
p336
sg13
VSurf
p337
sg15
V30
p338
sg17
V45
p339
sg19
V1
p340
sbag1
(g2
g3
Ntp341
Rp342
(dp343
g7
V129
p344
sg9
VMagikarp
p345
sg11
VFR,LG,
p346
sg13
VFish Old
p347
sg15
g75
sg17
g75
sg19
V100
p348
sbag1
(g2
g3
Ntp349
Rp350
(dp351
g7
V116
p352
sg9
VHorsea
p353
sg11
g55
sg13
VFish Good
p354
sg15
g75
sg17
V15
p355
sg19
V80
p356
sbag1
(g2
g3
Ntp357
Rp358
(dp359
g7
V098
p360
sg9
VKrabby
p361
sg11
g64
sg13
VFish Good
p362
sg15
g75
sg17
V15
p363
sg19
V80
p364
sbag1
(g2
g3
Ntp365
Rp366
(dp367
g7
V129
p368
sg9
VMagikarp
p369
sg11
VFR,LG,
p370
sg13
VFish Good
p371
sg15
g75
sg17
V15
p372
sg19
V20
p373
sbag1
(g2
g3
Ntp374
Rp375
(dp376
g7
V090
p377
sg9
VShellder
p378
sg11
g55
sg13
VFish Super
p379
sg15
V15
p380
sg17
V25
p381
sg19
V40
p382
sbag1
(g2
g3
Ntp383
Rp384
(dp385
g7
V116
p386
sg9
VHorsea
p387
sg11
g55
sg13
VFish Super
p388
sg15
V15
p389
sg17
V25
p390
sg19
V40
p391
sbag1
(g2
g3
Ntp392
Rp393
(dp394
g7
V098
p395
sg9
VKrabby
p396
sg11
g64
sg13
VFish Super
p397
sg15
V15
p398
sg17
V25
p399
sg19
V40
p400
sbag1
(g2
g3
Ntp401
Rp402
(dp403
g7
V120
p404
sg9
VStaryu
p405
sg11
g64
sg13
VFish Super
p406
sg15
V15
p407
sg17
V25
p408
sg19
V40
p409
sbag1
(g2
g3
Ntp410
Rp411
(dp412
g7
V130
p413
sg9
VGyarados
p414
sg11
VFR,LG,
p415
sg13
VFish Super
p416
sg15
V15
p417
sg17
V25
p418
sg19
V15
p419
sbag1
(g2
g3
Ntp420
Rp421
(dp422
g7
V117
p423
sg9
VSeadra
p424
sg11
g55
sg13
VFish Super
p425
sg15
V25
p426
sg17
V35
p427
sg19
V4
p428
sbag1
(g2
g3
Ntp429
Rp430
(dp431
g7
V099
p432
sg9
VKingler
p433
sg11
g64
sg13
VFish Super
p434
sg15
V25
p435
sg17
V35
p436
sg19
V4
p437
sbag1
(g2
g3
Ntp438
Rp439
(dp440
g7
V054
p441
sg9
VPsyduck
p442
sg11
g55
sg13
VFish Super
p443
sg15
V25
p444
sg17
V35
p445
sg19
V1
p446
sbag1
(g2
g3
Ntp447
Rp448
(dp449
g7
V079
p450
sg9
VSlowpoke
p451
sg11
g64
sg13
VFish Super
p452
sg15
V25
p453
sg17
V35
p454
sg19
V1
p455
sba.