(lp0
ccopy_reg
_reconstructor
p1
(c__main__
WildPokemon
p2
c__builtin__
object
p3
Ntp4
Rp5
(dp6
VpDexNo
p7
V536
p8
sVpSpecies
p9
VPalpitoad
p10
sVpGames
p11
VB,W,
p12
sVpArea
p13
VPuddle
p14
sVpMinLevel
p15
V30
p16
sVpMaxLevel
p17
V33
p18
sVpRate
p19
V40
p20
sbag1
(g2
g3
Ntp21
Rp22
(dp23
g7
V616
p24
sg9
VShelmet
p25
sg11
VB,W,
p26
sg13
VPuddle
p27
sg15
V30
p28
sg17
V33
p29
sg19
V40
p30
sbag1
(g2
g3
Ntp31
Rp32
(dp33
g7
V618
p34
sg9
VStunfisk
p35
sg11
VB,W,
p36
sg13
VPuddle
p37
sg15
V31
p38
sg17
V32
p39
sg19
V20
p40
sbag1
(g2
g3
Ntp41
Rp42
(dp43
g7
V618
p44
sg9
VStunfisk
p45
sg11
VB,W,
p46
sg13
VSurf
p47
sg15
V15
p48
sg17
V35
p49
sg19
V100
p50
sbag1
(g2
g3
Ntp51
Rp52
(dp53
g7
V618
p54
sg9
VStunfisk
p55
sg11
VB,W,
p56
sg13
VRippling
p57
sg15
V15
p58
sg17
V40
p59
sg19
V95
p60
sbag1
(g2
g3
Ntp61
Rp62
(dp63
g7
V537
p64
sg9
VSeismitoad
p65
sg11
VB,W,
p66
sg13
VRippling
p67
sg15
V15
p68
sg17
V40
p69
sg19
V5
p70
sbag1
(g2
g3
Ntp71
Rp72
(dp73
g7
V339
p74
sg9
VBarboach
p75
sg11
VB,W,
p76
sg13
VFishing
p77
sg15
V35
p78
sg17
V55
p79
sg19
V70
p80
sbag1
(g2
g3
Ntp81
Rp82
(dp83
g7
V618
p84
sg9
VStunfisk
p85
sg11
VB,W,
p86
sg13
VFishing
p87
sg15
V35
p88
sg17
V55
p89
sg19
V30
p90
sbag1
(g2
g3
Ntp91
Rp92
(dp93
g7
V339
p94
sg9
VBarboach
p95
sg11
VB,W,
p96
sg13
VRippling
p97
sg15
V35
p98
sg17
V60
p99
sg19
V60
p100
sbag1
(g2
g3
Ntp101
Rp102
(dp103
g7
V618
p104
sg9
VStunfisk
p105
sg11
VB,W,
p106
sg13
VRippling
p107
sg15
V35
p108
sg17
V60
p109
sg19
V30
p110
sbag1
(g2
g3
Ntp111
Rp112
(dp113
g7
V340
p114
sg9
VWhiscash
p115
sg11
VB,W,
p116
sg13
VRippling
p117
sg15
V35
p118
sg17
V70
p119
sg19
V10
p120
sbag1
(g2
g3
Ntp121
Rp122
(dp123
g7
V453
p124
sg9
VCroagunk
p125
sg11
VB2,W2,
p126
sg13
VPuddle
p127
sg15
V55
p128
sg17
V56
p129
sg19
V15
p130
sbag1
(g2
g3
Ntp131
Rp132
(dp133
g7
V536
p134
sg9
VPalpitoad
p135
sg11
VB2,W2,
p136
sg13
VPuddle
p137
sg15
V54
p138
sg17
V57
p139
sg19
V40
p140
sbag1
(g2
g3
Ntp141
Rp142
(dp143
g7
V588
p144
sg9
VKarrablast
p145
sg11
VB2,
p146
sg13
VPuddle
p147
sg15
V57
p148
sg17
g148
sg19
V5
p149
sbag1
(g2
g3
Ntp150
Rp151
(dp152
g7
V588
p153
sg9
VKarrablast
p154
sg11
VW2,
p155
sg13
VPuddle
p156
sg15
V54
p157
sg17
g157
sg19
V20
p158
sbag1
(g2
g3
Ntp159
Rp160
(dp161
g7
V616
p162
sg9
VShelmet
p163
sg11
g146
sg13
VPuddle
p164
sg15
V54
p165
sg17
g165
sg19
V20
p166
sbag1
(g2
g3
Ntp167
Rp168
(dp169
g7
V616
p170
sg9
VShelmet
p171
sg11
g155
sg13
VPuddle
p172
sg15
V57
p173
sg17
g173
sg19
V5
p174
sbag1
(g2
g3
Ntp175
Rp176
(dp177
g7
V618
p178
sg9
VStunfisk
p179
sg11
VB2,W2,
p180
sg13
VPuddle
p181
sg15
V55
p182
sg17
V56
p183
sg19
V20
p184
sbag1
(g2
g3
Ntp185
Rp186
(dp187
g7
V618
p188
sg9
VStunfisk
p189
sg11
VB2,W2,
p190
sg13
VSurf
p191
sg15
V45
p192
sg17
V60
p193
sg19
V100
p194
sbag1
(g2
g3
Ntp195
Rp196
(dp197
g7
V537
p198
sg9
VSeismitoad
p199
sg11
VB2,W2,
p200
sg13
VRippling
p201
sg15
V60
p202
sg17
g202
sg19
V5
p203
sbag1
(g2
g3
Ntp204
Rp205
(dp206
g7
V618
p207
sg9
VStunfisk
p208
sg11
VB2,W2,
p209
sg13
VRippling
p210
sg15
V45
p211
sg17
V60
p212
sg19
V95
p213
sbag1
(g2
g3
Ntp214
Rp215
(dp216
g7
V339
p217
sg9
VBarboach
p218
sg11
VB2,W2,
p219
sg13
VFish Super
p220
sg15
V45
p221
sg17
V60
p222
sg19
V70
p223
sbag1
(g2
g3
Ntp224
Rp225
(dp226
g7
V618
p227
sg9
VStunfisk
p228
sg11
VB2,W2,
p229
sg13
VFish Super
p230
sg15
V45
p231
sg17
V60
p232
sg19
V30
p233
sbag1
(g2
g3
Ntp234
Rp235
(dp236
g7
V339
p237
sg9
VBarboach
p238
sg11
VB2,W2,
p239
sg13
VRippling
p240
sg15
V45
p241
sg17
V60
p242
sg19
V60
p243
sbag1
(g2
g3
Ntp244
Rp245
(dp246
g7
V340
p247
sg9
VWhiscash
p248
sg11
VB2,W2,
p249
sg13
VRippling
p250
sg15
V60
p251
sg17
g251
sg19
V10
p252
sbag1
(g2
g3
Ntp253
Rp254
(dp255
g7
V618
p256
sg9
VStunfisk
p257
sg11
VB2,W2,
p258
sg13
VRippling
p259
sg15
V45
p260
sg17
V60
p261
sg19
V30
p262
sba.