(lp0
ccopy_reg
_reconstructor
p1
(c__main__
WildPokemon
p2
c__builtin__
object
p3
Ntp4
Rp5
(dp6
VpDexNo
p7
V010
p8
sVpSpecies
p9
VCaterpie
p10
sVpGames
p11
VG,
p12
sVpArea
p13
VGrass
p14
sVpMinLevel
p15
V5
p16
sVpMaxLevel
p17
V6
p18
sVpRate
p19
V60
p20
sbag1
(g2
g3
Ntp21
Rp22
(dp23
g7
V010
p24
sg9
VCaterpie
p25
sg11
VC,
p26
sg13
VGrass
p27
sg15
g16
sg17
g16
sg19
V30
p28
sbag1
(g2
g3
Ntp29
Rp30
(dp31
g7
V011
p32
sg9
VMetapod
p33
sg11
g12
sg13
VGrass
p34
sg15
g18
sg17
g18
sg19
V30
p35
sbag1
(g2
g3
Ntp36
Rp37
(dp38
g7
V011
p39
sg9
VMetapod
p40
sg11
g12
sg13
VGrass
p41
sg15
g16
sg17
g18
sg19
V30
p42
sbag1
(g2
g3
Ntp43
Rp44
(dp45
g7
V011
p46
sg9
VMetapod
p47
sg11
g26
sg13
VGrass
p48
sg15
V7
p49
sg17
g49
sg19
V20
p50
sbag1
(g2
g3
Ntp51
Rp52
(dp53
g7
V013
p54
sg9
VWeedle
p55
sg11
VS,
p56
sg13
VGrass
p57
sg15
g16
sg17
g18
sg19
V60
p58
sbag1
(g2
g3
Ntp59
Rp60
(dp61
g7
V013
p62
sg9
VWeedle
p63
sg11
g26
sg13
VGrass
p64
sg15
g16
sg17
g16
sg19
V30
p65
sbag1
(g2
g3
Ntp66
Rp67
(dp68
g7
V014
p69
sg9
VKakuna
p70
sg11
g56
sg13
VGrass
p71
sg15
g18
sg17
g18
sg19
V30
p72
sbag1
(g2
g3
Ntp73
Rp74
(dp75
g7
V014
p76
sg9
VKakuna
p77
sg11
g56
sg13
VGrass
p78
sg15
g16
sg17
g18
sg19
V30
p79
sbag1
(g2
g3
Ntp80
Rp81
(dp82
g7
V014
p83
sg9
VKakuna
p84
sg11
g26
sg13
VGrass
p85
sg15
g49
sg17
g49
sg19
V10
p86
sbag1
(g2
g3
Ntp87
Rp88
(dp89
g7
V016
p90
sg9
VPidgey
p91
sg11
g26
sg13
VGrass
p92
sg15
g49
sg17
g49
sg19
V5
p93
sbag1
(g2
g3
Ntp94
Rp95
(dp96
g7
V041
p97
sg9
VZubat
p98
sg11
VG,S,
p99
sg13
VGrass
p100
sg15
g16
sg17
g16
sg19
V5
p101
sbag1
(g2
g3
Ntp102
Rp103
(dp104
g7
V041
p105
sg9
VZubat
p106
sg11
VG,S,
p107
sg13
VGrass
p108
sg15
g16
sg17
g18
sg19
V25
p109
sbag1
(g2
g3
Ntp110
Rp111
(dp112
g7
V043
p113
sg9
VOddish
p114
sg11
VG,S,
p115
sg13
VGrass
p116
sg15
g16
sg17
g18
sg19
V60
p117
sbag1
(g2
g3
Ntp118
Rp119
(dp120
g7
V043
p121
sg9
VOddish
p122
sg11
g26
sg13
VGrass
p123
sg15
g16
sg17
g49
sg19
V50
p124
sbag1
(g2
g3
Ntp125
Rp126
(dp127
g7
V046
p128
sg9
VParas
p129
sg11
VG,S,
p130
sg13
VGrass
p131
sg15
g16
sg17
g18
sg19
V15
p132
sbag1
(g2
g3
Ntp133
Rp134
(dp135
g7
V046
p136
sg9
VParas
p137
sg11
VG,S,
p138
sg13
VGrass
p139
sg15
g18
sg17
g18
sg19
V5
p140
sbag1
(g2
g3
Ntp141
Rp142
(dp143
g7
V046
p144
sg9
VParas
p145
sg11
g26
sg13
VGrass
p146
sg15
g18
sg17
g18
sg19
V5
p147
sbag1
(g2
g3
Ntp148
Rp149
(dp150
g7
V048
p151
sg9
VVenonat
p152
sg11
g26
sg13
VGrass
p153
sg15
g16
sg17
g16
sg19
V30
p154
sbag1
(g2
g3
Ntp155
Rp156
(dp157
g7
V054
p158
sg9
VPsyduck
p159
sg11
g26
sg13
VGrass
p160
sg15
g49
sg17
g49
sg19
V10
p161
sbag1
(g2
g3
Ntp162
Rp163
(dp164
g7
V163
p165
sg9
VHoothoot
p166
sg11
g26
sg13
VGrass
p167
sg15
g49
sg17
g49
sg19
V5
p168
sbag1
(g2
g3
Ntp169
Rp170
(dp171
g7
V054
p172
sg9
VPsyduck
p173
sg11
VG,S,C,
p174
sg13
VSurf
p175
sg15
V10
p176
sg17
V19
p177
sg19
V90
p178
sbag1
(g2
g3
Ntp179
Rp180
(dp181
g7
V055
p182
sg9
VGolduck
p183
sg11
VG,S,C,
p184
sg13
VSurf
p185
sg15
V15
p186
sg17
V19
p187
sg19
V10
p188
sbag1
(g2
g3
Ntp189
Rp190
(dp191
g7
V060
p192
sg9
VPoliwag
p193
sg11
VG,S,C,
p194
sg13
VFish Old
p195
sg15
V10
p196
sg17
g196
sg19
V15
p197
sbag1
(g2
g3
Ntp198
Rp199
(dp200
g7
V129
p201
sg9
VMagikarp
p202
sg11
VG,S,C,
p203
sg13
VFish Old
p204
sg15
V10
p205
sg17
g205
sg19
V85
p206
sbag1
(g2
g3
Ntp207
Rp208
(dp209
g7
V060
p210
sg9
VPoliwag
p211
sg11
VG,S,C,
p212
sg13
VFish Good
p213
sg15
V20
p214
sg17
g214
sg19
V65
p215
sbag1
(g2
g3
Ntp216
Rp217
(dp218
g7
V129
p219
sg9
VMagikarp
p220
sg11
VG,S,C,
p221
sg13
VFish Good
p222
sg15
V20
p223
sg17
g223
sg19
V35
p224
sbag1
(g2
g3
Ntp225
Rp226
(dp227
g7
V060
p228
sg9
VPoliwag
p229
sg11
VG,S,C,
p230
sg13
VFish Super
p231
sg15
V40
p232
sg17
g232
sg19
V80
p233
sbag1
(g2
g3
Ntp234
Rp235
(dp236
g7
V129
p237
sg9
VMagikarp
p238
sg11
VG,S,C,
p239
sg13
VFish Super
p240
sg15
V40
p241
sg17
g241
sg19
V20
p242
sbag1
(g2
g3
Ntp243
Rp244
(dp245
g7
V010
p246
sg9
VCaterpie
p247
sg11
g12
sg13
VHeadbutt
p248
sg15
V10
p249
sg17
g249
sg19
V65
p250
sbag1
(g2
g3
Ntp251
Rp252
(dp253
g7
V011
p254
sg9
VMetapod
p255
sg11
g12
sg13
VHeadbutt
p256
sg15
V10
p257
sg17
g257
sg19
V15
p258
sbag1
(g2
g3
Ntp259
Rp260
(dp261
g7
V012
p262
sg9
VButterfree
p263
sg11
VG,C,
p264
sg13
VHeadbutt
p265
sg15
V10
p266
sg17
g266
sg19
V5
p267
sbag1
(g2
g3
Ntp268
Rp269
(dp270
g7
V013
p271
sg9
VWeedle
p272
sg11
g56
sg13
VHeadbutt
p273
sg15
V10
p274
sg17
g274
sg19
V65
p275
sbag1
(g2
g3
Ntp276
Rp277
(dp278
g7
V014
p279
sg9
VKakuna
p280
sg11
g56
sg13
VHeadbutt
p281
sg15
V10
p282
sg17
g282
sg19
V15
p283
sbag1
(g2
g3
Ntp284
Rp285
(dp286
g7
V015
p287
sg9
VBeedrill
p288
sg11
VS,C,
p289
sg13
VHeadbutt
p290
sg15
V10
p291
sg17
g291
sg19
V5
p292
sbag1
(g2
g3
Ntp293
Rp294
(dp295
g7
V102
p296
sg9
VExeggcute
p297
sg11
VG,S,
p298
sg13
VHeadbutt
p299
sg15
V10
p300
sg17
g300
sg19
V15
p301
sbag1
(g2
g3
Ntp302
Rp303
(dp304
g7
V163
p305
sg9
VHoothoot
p306
sg11
g26
sg13
VHeadbutt
p307
sg15
V10
p308
sg17
g308
sg19
V50
p309
sbag1
(g2
g3
Ntp310
Rp311
(dp312
g7
V164
p313
sg9
VNoctowl
p314
sg11
g26
sg13
VHeadbutt
p315
sg15
V10
p316
sg17
g316
sg19
V10
p317
sbag1
(g2
g3
Ntp318
Rp319
(dp320
g7
V204
p321
sg9
VPineco
p322
sg11
g26
sg13
VHeadbutt
p323
sg15
V10
p324
sg17
g324
sg19
V30
p325
sbag1
(g2
g3
Ntp326
Rp327
(dp328
g7
V010
p329
sg9
VCaterpie
p330
sg11
g12
sg13
VHeadbutt
p331
sg15
V10
p332
sg17
g332
sg19
V50
p333
sbag1
(g2
g3
Ntp334
Rp335
(dp336
g7
V010
p337
sg9
VCaterpie
p338
sg11
g26
sg13
VHeadbutt
p339
sg15
V10
p340
sg17
g340
sg19
V15
p341
sbag1
(g2
g3
Ntp342
Rp343
(dp344
g7
V011
p345
sg9
VMetapod
p346
sg11
g26
sg13
VHeadbutt
p347
sg15
V10
p348
sg17
g348
sg19
V5
p349
sbag1
(g2
g3
Ntp350
Rp351
(dp352
g7
V012
p353
sg9
VButterfree
p354
sg11
g12
sg13
VHeadbutt
p355
sg15
V10
p356
sg17
g356
sg19
V5
p357
sbag1
(g2
g3
Ntp358
Rp359
(dp360
g7
V013
p361
sg9
VWeedle
p362
sg11
g56
sg13
VHeadbutt
p363
sg15
V10
p364
sg17
g364
sg19
V50
p365
sbag1
(g2
g3
Ntp366
Rp367
(dp368
g7
V013
p369
sg9
VWeedle
p370
sg11
g26
sg13
VHeadbutt
p371
sg15
V10
p372
sg17
g372
sg19
V15
p373
sbag1
(g2
g3
Ntp374
Rp375
(dp376
g7
V014
p377
sg9
VKakuna
p378
sg11
g26
sg13
VHeadbutt
p379
sg15
V10
p380
sg17
g380
sg19
V5
p381
sbag1
(g2
g3
Ntp382
Rp383
(dp384
g7
V015
p385
sg9
VBeedrill
p386
sg11
g56
sg13
VHeadbutt
p387
sg15
V10
p388
sg17
g388
sg19
V5
p389
sbag1
(g2
g3
Ntp390
Rp391
(dp392
g7
V102
p393
sg9
VExeggcute
p394
sg11
VG,S,
p395
sg13
VHeadbutt
p396
sg15
V10
p397
sg17
g397
sg19
V15
p398
sbag1
(g2
g3
Ntp399
Rp400
(dp401
g7
V163
p402
sg9
VHoothoot
p403
sg11
g26
sg13
VHeadbutt
p404
sg15
V10
p405
sg17
g405
sg19
V60
p406
sbag1
(g2
g3
Ntp407
Rp408
(dp409
g7
V204
p410
sg9
VPineco
p411
sg11
VG,S,
p412
sg13
VHeadbutt
p413
sg15
V10
p414
sg17
g414
sg19
V30
p415
sbag1
(g2
g3
Ntp416
Rp417
(dp418
g7
V251
p419
sg9
VCelebi
p420
sg11
g26
sg13
VGS
p421
sg15
V30
p422
sg17
g422
sg19
V0
p423
sbag1
(g2
g3
Ntp424
Rp425
(dp426
g7
V010
p427
sg9
VCaterpie
p428
sg11
VHG,
p429
sg13
VGrass
p430
sg15
g16
sg17
g18
sg19
V60
p431
sbag1
(g2
g3
Ntp432
Rp433
(dp434
g7
V011
p435
sg9
VMetapod
p436
sg11
g429
sg13
VGrass
p437
sg15
g16
sg17
g18
sg19
V30
p438
sbag1
(g2
g3
Ntp439
Rp440
(dp441
g7
V013
p442
sg9
VWeedle
p443
sg11
VSS,
p444
sg13
VGrass
p445
sg15
g16
sg17
g18
sg19
V60
p446
sbag1
(g2
g3
Ntp447
Rp448
(dp449
g7
V014
p450
sg9
VKakuna
p451
sg11
g444
sg13
VGrass
p452
sg15
g16
sg17
g18
sg19
V30
p453
sbag1
(g2
g3
Ntp454
Rp455
(dp456
g7
V041
p457
sg9
VZubat
p458
sg11
VHG,SS,
p459
sg13
VGrass
p460
sg15
g16
sg17
g18
sg19
V25
p461
sbag1
(g2
g3
Ntp462
Rp463
(dp464
g7
V043
p465
sg9
VOddish
p466
sg11
VHG,SS,
p467
sg13
VGrass
p468
sg15
g16
sg17
g18
sg19
V60
p469
sbag1
(g2
g3
Ntp470
Rp471
(dp472
g7
V046
p473
sg9
VParas
p474
sg11
VHG,SS,
p475
sg13
VGrass
p476
sg15
g16
sg17
g18
sg19
V15
p477
sbag1
(g2
g3
Ntp478
Rp479
(dp480
g7
V010
p481
sg9
VCaterpie
p482
sg11
g429
sg13
VHeadbutt
p483
sg15
V3
p484
sg17
g16
sg19
V30
p485
sbag1
(g2
g3
Ntp486
Rp487
(dp488
g7
V011
p489
sg9
VMetapod
p490
sg11
g429
sg13
VHeadbutt
p491
sg15
g484
sg17
g16
sg19
V10
p492
sbag1
(g2
g3
Ntp493
Rp494
(dp495
g7
V013
p496
sg9
VWeedle
p497
sg11
g444
sg13
VHeadbutt
p498
sg15
g484
sg17
g16
sg19
V30
p499
sbag1
(g2
g3
Ntp500
Rp501
(dp502
g7
V014
p503
sg9
VKakuna
p504
sg11
g444
sg13
VHeadbutt
p505
sg15
g484
sg17
g16
sg19
V10
p506
sbag1
(g2
g3
Ntp507
Rp508
(dp509
g7
V163
p510
sg9
VHoothoot
p511
sg11
VHG,SS,
p512
sg13
VHeadbutt
p513
sg15
g484
sg17
g16
sg19
V60
p514
sbag1
(g2
g3
Ntp515
Rp516
(dp517
g7
V012
p518
sg9
VButterfree
p519
sg11
g429
sg13
VHeadbutt
p520
sg15
g18
sg17
V8
p521
sg19
V10
p522
sbag1
(g2
g3
Ntp523
Rp524
(dp525
g7
V015
p526
sg9
VBeedrill
p527
sg11
g444
sg13
VHeadbutt
p528
sg15
g18
sg17
g521
sg19
V10
p529
sbag1
(g2
g3
Ntp530
Rp531
(dp532
g7
V163
p533
sg9
VHoothoot
p534
sg11
VHG,SS,
p535
sg13
VHeadbutt
p536
sg15
g18
sg17
g521
sg19
V50
p537
sbag1
(g2
g3
Ntp538
Rp539
(dp540
g7
V164
p541
sg9
VNoctowl
p542
sg11
VHG,SS,
p543
sg13
VHeadbutt
p544
sg15
g18
sg17
g521
sg19
V10
p545
sbag1
(g2
g3
Ntp546
Rp547
(dp548
g7
V204
p549
sg9
VPineco
p550
sg11
VHG,SS,
p551
sg13
VHeadbutt
p552
sg15
g18
sg17
g521
sg19
V30
p553
sbag1
(g2
g3
Ntp554
Rp555
(dp556
g7
V054
p557
sg9
VPsyduck
p558
sg11
VHG,SS,
p559
sg13
VSurf
p560
sg15
g16
sg17
V20
p561
sg19
V90
p562
sbag1
(g2
g3
Ntp563
Rp564
(dp565
g7
V055
p566
sg9
VGolduck
p567
sg11
VHG,SS,
p568
sg13
VSurf
p569
sg15
V10
p570
sg17
V20
p571
sg19
V10
p572
sbag1
(g2
g3
Ntp573
Rp574
(dp575
g7
V060
p576
sg9
VPoliwag
p577
sg11
VHG,SS,
p578
sg13
VFish Old
p579
sg15
V10
p580
sg17
g580
sg19
V15
p581
sbag1
(g2
g3
Ntp582
Rp583
(dp584
g7
V129
p585
sg9
VMagikarp
p586
sg11
VHG,SS,
p587
sg13
VFish Old
p588
sg15
V10
p589
sg17
g589
sg19
V85
p590
sbag1
(g2
g3
Ntp591
Rp592
(dp593
g7
V060
p594
sg9
VPoliwag
p595
sg11
VHG,SS,
p596
sg13
VFish Good
p597
sg15
V20
p598
sg17
g598
sg19
V60
p599
sbag1
(g2
g3
Ntp600
Rp601
(dp602
g7
V129
p603
sg9
VMagikarp
p604
sg11
VHG,SS,
p605
sg13
VFish Good
p606
sg15
V20
p607
sg17
g607
sg19
V40
p608
sbag1
(g2
g3
Ntp609
Rp610
(dp611
g7
V060
p612
sg9
VPoliwag
p613
sg11
VHG,SS,
p614
sg13
VFish Super
p615
sg15
V40
p616
sg17
g616
sg19
V80
p617
sbag1
(g2
g3
Ntp618
Rp619
(dp620
g7
V129
p621
sg9
VMagikarp
p622
sg11
VHG,SS,
p623
sg13
VFish Super
p624
sg15
V40
p625
sg17
g625
sg19
V20
p626
sbag1
(g2
g3
Ntp627
Rp628
(dp629
g7
V172
p630
sg9
VPichu
p631
sg11
VHG,SS,
p632
sg13
VPichu
p633
sg15
V30
p634
sg17
g634
sg19
V0
p635
sbag1
(g2
g3
Ntp636
Rp637
(dp638
g7
V322
p639
sg9
VNumel
p640
sg11
VHG,SS,
p641
sg13
VHoenn
p642
sg15
g18
sg17
g18
sg19
V20
p643
sbag1
(g2
g3
Ntp644
Rp645
(dp646
g7
V325
p647
sg9
VSpoink
p648
sg11
VHG,SS,
p649
sg13
VHoenn
p650
sg15
g16
sg17
g18
sg19
V20
p651
sbag1
(g2
g3
Ntp652
Rp653
(dp654
g7
V406
p655
sg9
VBudew
p656
sg11
VHG,SS,
p657
sg13
VSinnoh
p658
sg15
g16
sg17
g18
sg19
V20
p659
sbag1
(g2
g3
Ntp660
Rp661
(dp662
g7
V455
p663
sg9
VCarnivine
p664
sg11
VHG,SS,
p665
sg13
VSinnoh
p666
sg15
g18
sg17
g18
sg19
V20
p667
sba.