(lp0
ccopy_reg
_reconstructor
p1
(c__main__
WildPokemon
p2
c__builtin__
object
p3
Ntp4
Rp5
(dp6
VpDexNo
p7
V102
p8
sVpSpecies
p9
VExeggcute
p10
sVpGames
p11
VSw,Sh,
p12
sVpArea
p13
VGrass
p14
sVpMinLevel
p15
V43
p16
sVpMaxLevel
p17
V48
p18
sVpRate
p19
V30
p20
sbag1
(g2
g3
Ntp21
Rp22
(dp23
g7
V278
p24
sg9
VWingull
p25
sg11
VSw,Sh,
p26
sg13
VGrass
p27
sg15
V43
p28
sg17
V48
p29
sg19
V30
p30
sbag1
(g2
g3
Ntp31
Rp32
(dp33
g7
V440
p34
sg9
VHappiny
p35
sg11
VSw,Sh,
p36
sg13
VGrass
p37
sg15
V43
p38
sg17
V48
p39
sg19
V10
p40
sbag1
(g2
g3
Ntp41
Rp42
(dp43
g7
V824
p44
sg9
VBlipbug
p45
sg11
VSw,Sh,
p46
sg13
VGrass
p47
sg15
V43
p48
sg17
V48
p49
sg19
V30
p50
sbag1
(g2
g3
Ntp51
Rp52
(dp53
g7
V819
p54
sg9
VSkwovet
p55
sg11
VSw,Sh,
p56
sg13
VBerry tree
p57
sg15
V43
p58
sg17
V48
p59
sg19
V70
p60
sbag1
(g2
g3
Ntp61
Rp62
(dp63
g7
V840
p64
sg9
VApplin
p65
sg11
VSw,Sh,
p66
sg13
VBerry tree
p67
sg15
V43
p68
sg17
V48
p69
sg19
V30
p70
sbag1
(g2
g3
Ntp71
Rp72
(dp73
g7
V129
p74
sg9
VMagikarp
p75
sg11
VSw,Sh,
p76
sg13
VFishing
p77
sg15
V43
p78
sg17
V48
p79
sg19
V60
p80
sbag1
(g2
g3
Ntp81
Rp82
(dp83
g7
V746
p84
sg9
VWishiwashi
p85
sg11
VSw,Sh,
p86
sg13
VFishing
p87
sg15
V43
p88
sg17
V48
p89
sg19
V40
p90
sbag1
(g2
g3
Ntp91
Rp92
(dp93
g7
V102
p94
sg9
VExeggcute
p95
sg11
VSw,Sh,
p96
sg13
VGrass
p97
sg15
V40
p98
sg17
V45
p99
sg19
V16
p100
sbag1
(g2
g3
Ntp101
Rp102
(dp103
g7
V113
p104
sg9
VChansey
p105
sg11
VSw,Sh,
p106
sg13
VGrass
p107
sg15
V40
p108
sg17
V45
p109
sg19
V0
p110
sbag1
(g2
g3
Ntp111
Rp112
(dp113
g7
V242
p114
sg9
VBlissey
p115
sg11
VSw,Sh,
p116
sg13
VGrass
p117
sg15
V40
p118
sg17
V45
p119
sg19
g110
sbag1
(g2
g3
Ntp120
Rp121
(dp122
g7
V278
p123
sg9
VWingull
p124
sg11
VSw,Sh,
p125
sg13
VGrass
p126
sg15
V40
p127
sg17
V45
p128
sg19
V82
p129
sbag1
(g2
g3
Ntp130
Rp131
(dp132
g7
V072
p133
sg9
VTentacool
p134
sg11
VSw,Sh,
p135
sg13
VSurf
p136
sg15
V40
p137
sg17
V45
p138
sg19
g110
sbag1
(g2
g3
Ntp139
Rp140
(dp141
g7
V073
p142
sg9
VTentacruel
p143
sg11
VSw,Sh,
p144
sg13
VSurf
p145
sg15
V40
p146
sg17
V45
p147
sg19
g110
sbag1
(g2
g3
Ntp148
Rp149
(dp150
g7
V116
p151
sg9
VHorsea
p152
sg11
VSw,Sh,
p153
sg13
VSurf
p154
sg15
V40
p155
sg17
V45
p156
sg19
g110
sbag1
(g2
g3
Ntp157
Rp158
(dp159
g7
V130
p160
sg9
VGyarados
p161
sg11
VSw,Sh,
p162
sg13
VSurf
p163
sg15
V40
p164
sg17
V45
p165
sg19
V1
p166
sbag1
(g2
g3
Ntp167
Rp168
(dp169
g7
V170
p170
sg9
VChinchou
p171
sg11
VSw,Sh,
p172
sg13
VSurf
p173
sg15
V40
p174
sg17
V45
p175
sg19
g110
sbag1
(g2
g3
Ntp176
Rp177
(dp178
g7
V171
p179
sg9
VLanturn
p180
sg11
VSw,Sh,
p181
sg13
VSurf
p182
sg15
V40
p183
sg17
V45
p184
sg19
g110
sbag1
(g2
g3
Ntp185
Rp186
(dp187
g7
V278
p188
sg9
VWingull
p189
sg11
VSw,Sh,
p190
sg13
VSurf
p191
sg15
V40
p192
sg17
V45
p193
sg19
V30
p194
sbag1
(g2
g3
Ntp195
Rp196
(dp197
g7
V279
p198
sg9
VPelipper
p199
sg11
VSw,Sh,
p200
sg13
VSurf
p201
sg15
V40
p202
sg17
V45
p203
sg19
g110
sbag1
(g2
g3
Ntp204
Rp205
(dp206
g7
V425
p207
sg9
VDrifloon
p208
sg11
VSw,Sh,
p209
sg13
VSurf
p210
sg15
V40
p211
sg17
V45
p212
sg19
g110
sbag1
(g2
g3
Ntp213
Rp214
(dp215
g7
V458
p216
sg9
VMantyke
p217
sg11
VSw,Sh,
p218
sg13
VSurf
p219
sg15
V40
p220
sg17
V45
p221
sg19
g110
sbag1
(g2
g3
Ntp222
Rp223
(dp224
g7
V593
p225
sg9
VJellicent
p226
sg11
VSw,Sh,
p227
sg13
VSurf
p228
sg15
V40
p229
sg17
V45
p230
sg19
g110
sbag1
(g2
g3
Ntp231
Rp232
(dp233
g7
V662
p234
sg9
VFletchinder
p235
sg11
VSw,Sh,
p236
sg13
VSurf
p237
sg15
V40
p238
sg17
V45
p239
sg19
g110
sbag1
(g2
g3
Ntp240
Rp241
(dp242
g7
V690
p243
sg9
VSkrelp
p244
sg11
VSh,
p245
sg13
VSurf
p246
sg15
V40
p247
sg17
V45
p248
sg19
V5
p249
sbag1
(g2
g3
Ntp250
Rp251
(dp252
g7
V691
p253
sg9
VDragalge
p254
sg11
g245
sg13
VSurf
p255
sg15
V40
p256
sg17
V45
p257
sg19
V1
p258
sbag1
(g2
g3
Ntp259
Rp260
(dp261
g7
V692
p262
sg9
VClauncher
p263
sg11
VSw,
p264
sg13
VSurf
p265
sg15
V40
p266
sg17
V45
p267
sg19
V5
p268
sbag1
(g2
g3
Ntp269
Rp270
(dp271
g7
V693
p272
sg9
VClawitzer
p273
sg11
g264
sg13
VSurf
p274
sg15
V40
p275
sg17
V45
p276
sg19
V1
p277
sbag1
(g2
g3
Ntp278
Rp279
(dp280
g7
V319
p281
sg9
VSharpedo
p282
sg11
VSw,Sh,
p283
sg13
VSurf
p284
sg15
V40
p285
sg17
V45
p286
sg19
V100
p287
sbag1
(g2
g3
Ntp288
Rp289
(dp290
g7
V103
p291
sg9
VExeggutor
p292
sg11
VSw,Sh,
p293
sg13
VWanderer
p294
sg15
V50
p295
sg17
g295
sg19
g110
sbag1
(g2
g3
Ntp296
Rp297
(dp298
g7
V571
p299
sg9
VZoroark
p300
sg11
VSw,Sh,
p301
sg13
VWanderer
p302
sg15
V50
p303
sg17
g303
sg19
g110
sbag1
(g2
g3
Ntp304
Rp305
(dp306
g7
V279
p307
sg9
VPelipper
p308
sg11
VSw,Sh,
p309
sg13
VWanderer
p310
sg15
V45
p311
sg17
g311
sg19
g110
sbag1
(g2
g3
Ntp312
Rp313
(dp314
g7
V462
p315
sg9
VMagnezone
p316
sg11
VSw,Sh,
p317
sg13
VWanderer
p318
sg15
V50
p319
sg17
g319
sg19
g110
sbag1
(g2
g3
Ntp320
Rp321
(dp322
g7
V637
p323
sg9
VVolcarona
p324
sg11
VSw,Sh,
p325
sg13
VWanderer
p326
sg15
V50
p327
sg17
g327
sg19
g110
sbag1
(g2
g3
Ntp328
Rp329
(dp330
g7
V065
p331
sg9
VAlakazam
p332
sg11
VSw,Sh,
p333
sg13
VWanderer
p334
sg15
V50
p335
sg17
g335
sg19
g110
sbag1
(g2
g3
Ntp336
Rp337
(dp338
g7
V764
p339
sg9
VComfey
p340
sg11
VSw,Sh,
p341
sg13
VWanderer
p342
sg15
V50
p343
sg17
g343
sg19
g110
sbag1
(g2
g3
Ntp344
Rp345
(dp346
g7
V052
p347
sg9
VMeowth
p348
sg11
VSw,Sh,
p349
sg13
VTrade
p350
sg15
V15
p351
sg17
g351
sg19
V0
p352
sbag1
(g2
g3
Ntp353
Rp354
(dp355
g7
V077
p356
sg9
VPonyta
p357
sg11
g245
sg13
VTrade
p358
sg15
V15
p359
sg17
g359
sg19
V0
p360
sbag1
(g2
g3
Ntp361
Rp362
(dp363
g7
V083
p364
sg9
VFarfetch'd
p365
sg11
g264
sg13
VTrade
p366
sg15
V15
p367
sg17
g367
sg19
V0
p368
sbag1
(g2
g3
Ntp369
Rp370
(dp371
g7
V103
p372
sg9
VExeggutor
p373
sg11
VSw,Sh,
p374
sg13
VTrade
p375
sg15
V15
p376
sg17
g376
sg19
V0
p377
sbag1
(g2
g3
Ntp378
Rp379
(dp380
g7
V105
p381
sg9
VMarowak
p382
sg11
VSw,Sh,
p383
sg13
VTrade
p384
sg15
V15
p385
sg17
g385
sg19
V0
p386
sbag1
(g2
g3
Ntp387
Rp388
(dp389
g7
V110
p390
sg9
VWeezing
p391
sg11
VSw,Sh,
p392
sg13
VTrade
p393
sg15
V15
p394
sg17
g394
sg19
V0
p395
sbag1
(g2
g3
Ntp396
Rp397
(dp398
g7
V122
p399
sg9
VMr. Mime
p400
sg11
VSw,Sh,
p401
sg13
VTrade
p402
sg15
V15
p403
sg17
g403
sg19
V0
p404
sbag1
(g2
g3
Ntp405
Rp406
(dp407
g7
V222
p408
sg9
VCorsola
p409
sg11
g245
sg13
VTrade
p410
sg15
V15
p411
sg17
g411
sg19
V0
p412
sbag1
(g2
g3
Ntp413
Rp414
(dp415
g7
V263
p416
sg9
VZigzagoon
p417
sg11
VSw,Sh,
p418
sg13
VTrade
p419
sg15
V15
p420
sg17
g420
sg19
V0
p421
sbag1
(g2
g3
Ntp422
Rp423
(dp424
g7
V554
p425
sg9
VDarumaka
p426
sg11
g264
sg13
VTrade
p427
sg15
V15
p428
sg17
g428
sg19
V0
p429
sbag1
(g2
g3
Ntp430
Rp431
(dp432
g7
V618
p433
sg9
VStunfisk
p434
sg11
VSw,Sh,
p435
sg13
VTrade
p436
sg15
V15
p437
sg17
g437
sg19
V0
p438
sba.