(lp0
ccopy_reg
_reconstructor
p1
(c__main__
WildPokemon
p2
c__builtin__
object
p3
Ntp4
Rp5
(dp6
VpDexNo
p7
V072
p8
sVpSpecies
p9
VTentacool
p10
sVpGames
p11
VD,P,
p12
sVpArea
p13
VSurf
p14
sVpMinLevel
p15
V20
p16
sVpMaxLevel
p17
V30
p18
sVpRate
p19
V60
p20
sbag1
(g2
g3
Ntp21
Rp22
(dp23
g7
V072
p24
sg9
VTentacool
p25
sg11
VPt,
p26
sg13
VSurf
p27
sg15
V20
p28
sg17
V30
p29
sg19
V30
p30
sbag1
(g2
g3
Ntp31
Rp32
(dp33
g7
V073
p34
sg9
VTentacruel
p35
sg11
VD,P,
p36
sg13
VSurf
p37
sg15
V20
p38
sg17
V40
p39
sg19
V5
p40
sbag1
(g2
g3
Ntp41
Rp42
(dp43
g7
V073
p44
sg9
VTentacruel
p45
sg11
g26
sg13
VSurf
p46
sg15
V20
p47
sg17
V40
p48
sg19
V1
p49
sbag1
(g2
g3
Ntp50
Rp51
(dp52
g7
V278
p53
sg9
VWingull
p54
sg11
VD,P,
p55
sg13
VSurf
p56
sg15
V20
p57
sg17
V30
p58
sg19
V30
p59
sbag1
(g2
g3
Ntp60
Rp61
(dp62
g7
V278
p63
sg9
VWingull
p64
sg11
g26
sg13
VSurf
p65
sg15
V20
p66
sg17
V30
p67
sg19
V60
p68
sbag1
(g2
g3
Ntp69
Rp70
(dp71
g7
V279
p72
sg9
VPelipper
p73
sg11
VD,P,
p74
sg13
VSurf
p75
sg15
V20
p76
sg17
V40
p77
sg19
V5
p78
sbag1
(g2
g3
Ntp79
Rp80
(dp81
g7
V279
p82
sg9
VPelipper
p83
sg11
g26
sg13
VSurf
p84
sg15
V20
p85
sg17
V40
p86
sg19
V9
p87
sbag1
(g2
g3
Ntp88
Rp89
(dp90
g7
V129
p91
sg9
VMagikarp
p92
sg11
VD,P,
p93
sg13
VFish Old
p94
sg15
V3
p95
sg17
V10
p96
sg19
V100
p97
sbag1
(g2
g3
Ntp98
Rp99
(dp100
g7
V129
p101
sg9
VMagikarp
p102
sg11
g26
sg13
VFish Old
p103
sg15
g95
sg17
V15
p104
sg19
V100
p105
sbag1
(g2
g3
Ntp106
Rp107
(dp108
g7
V129
p109
sg9
VMagikarp
p110
sg11
VD,P,Pt,
p111
sg13
VFish Good
p112
sg15
V10
p113
sg17
V25
p114
sg19
V65
p115
sbag1
(g2
g3
Ntp116
Rp117
(dp118
g7
V456
p119
sg9
VFinneon
p120
sg11
VD,P,Pt,
p121
sg13
VFish Good
p122
sg15
V10
p123
sg17
V25
p124
sg19
V35
p125
sbag1
(g2
g3
Ntp126
Rp127
(dp128
g7
V130
p129
sg9
VGyarados
p130
sg11
VD,P,
p131
sg13
VFish Super
p132
sg15
V30
p133
sg17
V40
p134
sg19
V60
p135
sbag1
(g2
g3
Ntp136
Rp137
(dp138
g7
V130
p139
sg9
VGyarados
p140
sg11
g26
sg13
VFish Super
p141
sg15
V30
p142
sg17
V55
p143
sg19
V60
p144
sbag1
(g2
g3
Ntp145
Rp146
(dp147
g7
V211
p148
sg9
VQwilfish
p149
sg11
VD,P,
p150
sg13
VFish Super
p151
sg15
V20
p152
sg17
V40
p153
sg19
V5
p154
sbag1
(g2
g3
Ntp155
Rp156
(dp157
g7
V211
p158
sg9
VQwilfish
p159
sg11
g26
sg13
VFish Super
p160
sg15
V20
p161
sg17
V50
p162
sg19
V5
p163
sbag1
(g2
g3
Ntp164
Rp165
(dp166
g7
V457
p167
sg9
VLumineon
p168
sg11
VD,P,
p169
sg13
VFish Super
p170
sg15
V20
p171
sg17
V50
p172
sg19
V35
p173
sbag1
(g2
g3
Ntp174
Rp175
(dp176
g7
V457
p177
sg9
VLumineon
p178
sg11
g26
sg13
VFish Super
p179
sg15
V30
p180
sg17
V55
p181
sg19
V35
p182
sbag1
(g2
g3
Ntp183
Rp184
(dp185
g7
V041
p186
sg9
VZubat
p187
sg11
VD,P,Pt,
p188
sg13
VCave
p189
sg15
V30
p190
sg17
g190
sg19
V10
p191
sbag1
(g2
g3
Ntp192
Rp193
(dp194
g7
V042
p195
sg9
VGolbat
p196
sg11
VD,P,
p197
sg13
VCave
p198
sg15
V31
p199
sg17
g199
sg19
V10
p200
sbag1
(g2
g3
Ntp201
Rp202
(dp203
g7
V042
p204
sg9
VGolbat
p205
sg11
g26
sg13
VCave
p206
sg15
V32
p207
sg17
g207
sg19
V10
p208
sbag1
(g2
g3
Ntp209
Rp210
(dp211
g7
V074
p212
sg9
VGeodude
p213
sg11
VD,P,
p214
sg13
VCave
p215
sg15
V29
p216
sg17
V31
p217
sg19
V35
p218
sbag1
(g2
g3
Ntp219
Rp220
(dp221
g7
V074
p222
sg9
VGeodude
p223
sg11
g26
sg13
VCave
p224
sg15
V30
p225
sg17
V32
p226
sg19
V35
p227
sbag1
(g2
g3
Ntp228
Rp229
(dp230
g7
V075
p231
sg9
VGraveler
p232
sg11
VD,P,Pt,
p233
sg13
VCave
p234
sg15
V31
p235
sg17
V33
p236
sg19
V35
p237
sbag1
(g2
g3
Ntp238
Rp239
(dp240
g7
V095
p241
sg9
VOnix
p242
sg11
VD,P,
p243
sg13
VCave
p244
sg15
V32
p245
sg17
V33
p246
sg19
V10
p247
sbag1
(g2
g3
Ntp248
Rp249
(dp250
g7
V095
p251
sg9
VOnix
p252
sg11
g26
sg13
VCave
p253
sg15
V31
p254
sg17
V33
p255
sg19
V10
p256
sbag1
(g2
g3
Ntp257
Rp258
(dp259
g7
V042
p260
sg9
VGolbat
p261
sg11
VD,P,
p262
sg13
VCave
p263
sg15
V30
p264
sg17
V31
p265
sg19
V20
p266
sbag1
(g2
g3
Ntp267
Rp268
(dp269
g7
V042
p270
sg9
VGolbat
p271
sg11
g26
sg13
VCave
p272
sg15
V30
p273
sg17
V32
p274
sg19
V20
p275
sbag1
(g2
g3
Ntp276
Rp277
(dp278
g7
V074
p279
sg9
VGeodude
p280
sg11
VD,P,
p281
sg13
VCave
p282
sg15
V31
p283
sg17
g283
sg19
V1
p284
sbag1
(g2
g3
Ntp285
Rp286
(dp287
g7
V075
p288
sg9
VGraveler
p289
sg11
VD,P,
p290
sg13
VCave
p291
sg15
V29
p292
sg17
V33
p293
sg19
V69
p294
sbag1
(g2
g3
Ntp295
Rp296
(dp297
g7
V075
p298
sg9
VGraveler
p299
sg11
g26
sg13
VCave
p300
sg15
V30
p301
sg17
V33
p302
sg19
V70
p303
sbag1
(g2
g3
Ntp304
Rp305
(dp306
g7
V095
p307
sg9
VOnix
p308
sg11
VD,P,
p309
sg13
VCave
p310
sg15
V32
p311
sg17
V33
p312
sg19
V10
p313
sbag1
(g2
g3
Ntp314
Rp315
(dp316
g7
V095
p317
sg9
VOnix
p318
sg11
g26
sg13
VCave
p319
sg15
V31
p320
sg17
V33
p321
sg19
V10
p322
sbag1
(g2
g3
Ntp323
Rp324
(dp325
g7
V302
p326
sg9
VSableye
p327
sg11
VD,P,
p328
sg13
VS
p329
sg15
V31
p330
sg17
V33
p331
sg19
V8
p332
sbag1
(g2
g3
Ntp333
Rp334
(dp335
g7
V302
p336
sg9
VSableye
p337
sg11
g26
sg13
g329
sg15
V30
p338
sg17
V31
p339
sg19
V8
p340
sbag1
(g2
g3
Ntp341
Rp342
(dp343
g7
V303
p344
sg9
VMawile
p345
sg11
VD,P,
p346
sg13
VR
p347
sg15
V31
p348
sg17
V33
p349
sg19
V8
p350
sbag1
(g2
g3
Ntp351
Rp352
(dp353
g7
V303
p354
sg9
VMawile
p355
sg11
g26
sg13
g347
sg15
V30
p356
sg17
V31
p357
sg19
V8
p358
sbag1
(g2
g3
Ntp359
Rp360
(dp361
g7
V042
p362
sg9
VGolbat
p363
sg11
VD,P,
p364
sg13
VCave
p365
sg15
V30
p366
sg17
V31
p367
sg19
V20
p368
sbag1
(g2
g3
Ntp369
Rp370
(dp371
g7
V042
p372
sg9
VGolbat
p373
sg11
g26
sg13
VCave
p374
sg15
V31
p375
sg17
V33
p376
sg19
V20
p377
sbag1
(g2
g3
Ntp378
Rp379
(dp380
g7
V074
p381
sg9
VGeodude
p382
sg11
VD,P,
p383
sg13
VCave
p384
sg15
V31
p385
sg17
g385
sg19
V1
p386
sbag1
(g2
g3
Ntp387
Rp388
(dp389
g7
V075
p390
sg9
VGraveler
p391
sg11
VD,P,
p392
sg13
VCave
p393
sg15
V29
p394
sg17
V33
p395
sg19
V49
p396
sbag1
(g2
g3
Ntp397
Rp398
(dp399
g7
V075
p400
sg9
VGraveler
p401
sg11
g26
sg13
VCave
p402
sg15
V31
p403
sg17
V34
p404
sg19
V50
p405
sbag1
(g2
g3
Ntp406
Rp407
(dp408
g7
V095
p409
sg9
VOnix
p410
sg11
VD,P,
p411
sg13
VCave
p412
sg15
V31
p413
sg17
V33
p414
sg19
V30
p415
sbag1
(g2
g3
Ntp416
Rp417
(dp418
g7
V095
p419
sg9
VOnix
p420
sg11
g26
sg13
VCave
p421
sg15
V32
p422
sg17
g422
sg19
V20
p423
sbag1
(g2
g3
Ntp424
Rp425
(dp426
g7
V208
p427
sg9
VSteelix
p428
sg11
g26
sg13
VCave
p429
sg15
V33
p430
sg17
V35
p431
sg19
V10
p432
sbag1
(g2
g3
Ntp433
Rp434
(dp435
g7
V302
p436
sg9
VSableye
p437
sg11
VD,P,
p438
sg13
g329
sg15
V31
p439
sg17
V33
p440
sg19
V8
p441
sbag1
(g2
g3
Ntp442
Rp443
(dp444
g7
V302
p445
sg9
VSableye
p446
sg11
g26
sg13
g329
sg15
V31
p447
sg17
V32
p448
sg19
V8
p449
sbag1
(g2
g3
Ntp450
Rp451
(dp452
g7
V303
p453
sg9
VMawile
p454
sg11
VD,P,
p455
sg13
g347
sg15
V31
p456
sg17
V33
p457
sg19
V8
p458
sbag1
(g2
g3
Ntp459
Rp460
(dp461
g7
V303
p462
sg9
VMawile
p463
sg11
g26
sg13
g347
sg15
V31
p464
sg17
V32
p465
sg19
V8
p466
sbag1
(g2
g3
Ntp467
Rp468
(dp469
g7
V042
p470
sg9
VGolbat
p471
sg11
VD,P,
p472
sg13
VCave
p473
sg15
V31
p474
sg17
V32
p475
sg19
V20
p476
sbag1
(g2
g3
Ntp477
Rp478
(dp479
g7
V042
p480
sg9
VGolbat
p481
sg11
g26
sg13
VCave
p482
sg15
V31
p483
sg17
V33
p484
sg19
V20
p485
sbag1
(g2
g3
Ntp486
Rp487
(dp488
g7
V074
p489
sg9
VGeodude
p490
sg11
VD,P,
p491
sg13
VCave
p492
sg15
V32
p493
sg17
g493
sg19
V1
p494
sbag1
(g2
g3
Ntp495
Rp496
(dp497
g7
V075
p498
sg9
VGraveler
p499
sg11
VD,P,
p500
sg13
VCave
p501
sg15
V30
p502
sg17
V34
p503
sg19
V39
p504
sbag1
(g2
g3
Ntp505
Rp506
(dp507
g7
V075
p508
sg9
VGraveler
p509
sg11
g26
sg13
VCave
p510
sg15
V31
p511
sg17
V34
p512
sg19
V50
p513
sbag1
(g2
g3
Ntp514
Rp515
(dp516
g7
V095
p517
sg9
VOnix
p518
sg11
VD,P,
p519
sg13
VCave
p520
sg15
V32
p521
sg17
V33
p522
sg19
V30
p523
sbag1
(g2
g3
Ntp524
Rp525
(dp526
g7
V095
p527
sg9
VOnix
p528
sg11
g26
sg13
VCave
p529
sg15
V32
p530
sg17
g530
sg19
V20
p531
sbag1
(g2
g3
Ntp532
Rp533
(dp534
g7
V208
p535
sg9
VSteelix
p536
sg11
VD,P,
p537
sg13
VCave
p538
sg15
V33
p539
sg17
V34
p540
sg19
V10
p541
sbag1
(g2
g3
Ntp542
Rp543
(dp544
g7
V208
p545
sg9
VSteelix
p546
sg11
g26
sg13
VCave
p547
sg15
V33
p548
sg17
V35
p549
sg19
V10
p550
sbag1
(g2
g3
Ntp551
Rp552
(dp553
g7
V447
p554
sg9
VRiolu
p555
sg11
VD,P,Pt,
p556
sg13
VEgg
p557
sg15
V1
p558
sg17
g558
sg19
V0
p559
sbag1
(g2
g3
Ntp560
Rp561
(dp562
g7
V302
p563
sg9
VSableye
p564
sg11
VD,P,
p565
sg13
g329
sg15
V32
p566
sg17
V34
p567
sg19
V8
p568
sbag1
(g2
g3
Ntp569
Rp570
(dp571
g7
V302
p572
sg9
VSableye
p573
sg11
g26
sg13
g329
sg15
V31
p574
sg17
V32
p575
sg19
V8
p576
sbag1
(g2
g3
Ntp577
Rp578
(dp579
g7
V303
p580
sg9
VMawile
p581
sg11
VD,P,
p582
sg13
g347
sg15
V32
p583
sg17
V34
p584
sg19
V8
p585
sbag1
(g2
g3
Ntp586
Rp587
(dp588
g7
V303
p589
sg9
VMawile
p590
sg11
g26
sg13
g347
sg15
V31
p591
sg17
V32
p592
sg19
V8
p593
sbag1
(g2
g3
Ntp594
Rp595
(dp596
g7
V042
p597
sg9
VGolbat
p598
sg11
VD,P,
p599
sg13
VCave
p600
sg15
V31
p601
sg17
V32
p602
sg19
V20
p603
sbag1
(g2
g3
Ntp604
Rp605
(dp606
g7
V042
p607
sg9
VGolbat
p608
sg11
g26
sg13
VCave
p609
sg15
V31
p610
sg17
V33
p611
sg19
V20
p612
sbag1
(g2
g3
Ntp613
Rp614
(dp615
g7
V074
p616
sg9
VGeodude
p617
sg11
VD,P,
p618
sg13
VCave
p619
sg15
V32
p620
sg17
g620
sg19
V1
p621
sbag1
(g2
g3
Ntp622
Rp623
(dp624
g7
V075
p625
sg9
VGraveler
p626
sg11
VD,P,
p627
sg13
VCave
p628
sg15
V30
p629
sg17
V34
p630
sg19
V39
p631
sbag1
(g2
g3
Ntp632
Rp633
(dp634
g7
V075
p635
sg9
VGraveler
p636
sg11
g26
sg13
VCave
p637
sg15
V31
p638
sg17
V34
p639
sg19
V50
p640
sbag1
(g2
g3
Ntp641
Rp642
(dp643
g7
V095
p644
sg9
VOnix
p645
sg11
VD,P,
p646
sg13
VCave
p647
sg15
V33
p648
sg17
V35
p649
sg19
V30
p650
sbag1
(g2
g3
Ntp651
Rp652
(dp653
g7
V208
p654
sg9
VSteelix
p655
sg11
VD,P,
p656
sg13
VCave
p657
sg15
V33
p658
sg17
V34
p659
sg19
V10
p660
sbag1
(g2
g3
Ntp661
Rp662
(dp663
g7
V208
p664
sg9
VSteelix
p665
sg11
g26
sg13
VCave
p666
sg15
V33
p667
sg17
V35
p668
sg19
V30
p669
sbag1
(g2
g3
Ntp670
Rp671
(dp672
g7
V302
p673
sg9
VSableye
p674
sg11
VD,P,
p675
sg13
g329
sg15
V32
p676
sg17
V34
p677
sg19
V8
p678
sbag1
(g2
g3
Ntp679
Rp680
(dp681
g7
V302
p682
sg9
VSableye
p683
sg11
g26
sg13
g329
sg15
V31
p684
sg17
V32
p685
sg19
V8
p686
sbag1
(g2
g3
Ntp687
Rp688
(dp689
g7
V303
p690
sg9
VMawile
p691
sg11
VD,P,
p692
sg13
g347
sg15
V32
p693
sg17
V34
p694
sg19
V8
p695
sbag1
(g2
g3
Ntp696
Rp697
(dp698
g7
V303
p699
sg9
VMawile
p700
sg11
g26
sg13
g347
sg15
V31
p701
sg17
V32
p702
sg19
V8
p703
sba.