(lp0
ccopy_reg
_reconstructor
p1
(c__main__
WildPokemon
p2
c__builtin__
object
p3
Ntp4
Rp5
(dp6
VpDexNo
p7
V074
p8
sVpSpecies
p9
VGeodude
p10
sVpGames
p11
VG,S,C,
p12
sVpArea
p13
VGrass
p14
sVpMinLevel
p15
V23
p16
sVpMaxLevel
p17
g16
sVpRate
p18
V30
p19
sbag1
(g2
g3
Ntp20
Rp21
(dp22
g7
V075
p23
sg9
VGraveler
p24
sg11
VG,
p25
sg13
VGrass
p26
sg15
V23
p27
sg17
V27
p28
sg18
V40
p29
sbag1
(g2
g3
Ntp30
Rp31
(dp32
g7
V075
p33
sg9
VGraveler
p34
sg11
VS,
p35
sg13
VGrass
p36
sg15
V23
p37
sg17
V25
p38
sg18
V55
p39
sbag1
(g2
g3
Ntp40
Rp41
(dp42
g7
V075
p43
sg9
VGraveler
p44
sg11
VC,
p45
sg13
VGrass
p46
sg15
V23
p47
sg17
g47
sg18
V30
p48
sbag1
(g2
g3
Ntp49
Rp50
(dp51
g7
V075
p52
sg9
VGraveler
p53
sg11
g45
sg13
VGrass
p54
sg15
V23
p55
sg17
V27
p56
sg18
V50
p57
sbag1
(g2
g3
Ntp58
Rp59
(dp60
g7
V207
p61
sg9
VGligar
p62
sg11
VG,C,
p63
sg13
VGrass
p64
sg15
V24
p65
sg17
g65
sg18
V20
p66
sbag1
(g2
g3
Ntp67
Rp68
(dp69
g7
V216
p70
sg9
VTeddiursa
p71
sg11
g25
sg13
VGrass
p72
sg15
V20
p73
sg17
g73
sg18
V10
p74
sbag1
(g2
g3
Ntp75
Rp76
(dp77
g7
V227
p78
sg9
VSkarmory
p79
sg11
g35
sg13
VGrass
p80
sg15
V27
p81
sg17
g81
sg18
V5
p82
sbag1
(g2
g3
Ntp83
Rp84
(dp85
g7
V227
p86
sg9
VSkarmory
p87
sg11
g45
sg13
VGrass
p88
sg15
V27
p89
sg17
g89
sg18
V5
p90
sbag1
(g2
g3
Ntp91
Rp92
(dp93
g7
V231
p94
sg9
VPhanpy
p95
sg11
g35
sg13
VGrass
p96
sg15
V20
p97
sg17
g97
sg18
V10
p98
sbag1
(g2
g3
Ntp99
Rp100
(dp101
g7
V231
p102
sg9
VPhanpy
p103
sg11
g45
sg13
VGrass
p104
sg15
V20
p105
sg17
g105
sg18
V5
p106
sbag1
(g2
g3
Ntp107
Rp108
(dp109
g7
V232
p110
sg9
VDonphan
p111
sg11
g45
sg13
VGrass
p112
sg15
V25
p113
sg17
V30
p114
sg18
V15
p115
sbag1
(g2
g3
Ntp116
Rp117
(dp118
g7
V129
p119
sg9
VMagikarp
p120
sg11
VG,S,C,
p121
sg13
VSurf
p122
sg15
V15
p123
sg17
V24
p124
sg18
V100
p125
sbag1
(g2
g3
Ntp126
Rp127
(dp128
g7
V129
p129
sg9
VMagikarp
p130
sg11
VG,S,C,
p131
sg13
VFish Old
p132
sg15
V10
p133
sg17
g133
sg18
V100
p134
sbag1
(g2
g3
Ntp135
Rp136
(dp137
g7
V129
p138
sg9
VMagikarp
p139
sg11
VG,S,C,
p140
sg13
VFish Good
p141
sg15
V10
p142
sg17
g142
sg18
V90
p143
sbag1
(g2
g3
Ntp144
Rp145
(dp146
g7
V147
p147
sg9
VDratini
p148
sg11
VG,S,C,
p149
sg13
VFish Good
p150
sg15
V10
p151
sg17
g151
sg18
V10
p152
sbag1
(g2
g3
Ntp153
Rp154
(dp155
g7
V129
p156
sg9
VMagikarp
p157
sg11
VG,S,C,
p158
sg13
VFish Super
p159
sg15
V10
p160
sg17
g160
sg18
V60
p161
sbag1
(g2
g3
Ntp162
Rp163
(dp164
g7
V147
p165
sg9
VDratini
p166
sg11
VG,S,C,
p167
sg13
VFish Super
p168
sg15
V10
p169
sg17
g169
sg18
V30
p170
sbag1
(g2
g3
Ntp171
Rp172
(dp173
g7
V148
p174
sg9
VDragonair
p175
sg11
VG,S,C,
p176
sg13
VFish Super
p177
sg15
V10
p178
sg17
g178
sg18
V10
p179
sbag1
(g2
g3
Ntp180
Rp181
(dp182
g7
V074
p183
sg9
VGeodude
p184
sg11
VHG,SS,
p185
sg13
VGrass
p186
sg15
V23
p187
sg17
g187
sg18
V30
p188
sbag1
(g2
g3
Ntp189
Rp190
(dp191
g7
V075
p192
sg9
VGraveler
p193
sg11
VHG,
p194
sg13
VGrass
p195
sg15
V23
p196
sg17
V27
p197
sg18
V40
p198
sbag1
(g2
g3
Ntp199
Rp200
(dp201
g7
V075
p202
sg9
VGraveler
p203
sg11
VSS,
p204
sg13
VGrass
p205
sg15
V23
p206
sg17
V25
p207
sg18
V55
p208
sbag1
(g2
g3
Ntp209
Rp210
(dp211
g7
V207
p212
sg9
VGligar
p213
sg11
g194
sg13
VGrass
p214
sg15
V24
p215
sg17
g215
sg18
V20
p216
sbag1
(g2
g3
Ntp217
Rp218
(dp219
g7
V216
p220
sg9
VTeddiursa
p221
sg11
g204
sg13
VGrass
p222
sg15
V20
p223
sg17
g223
sg18
V10
p224
sbag1
(g2
g3
Ntp225
Rp226
(dp227
g7
V227
p228
sg9
VSkarmory
p229
sg11
g204
sg13
VGrass
p230
sg15
V27
p231
sg17
g231
sg18
V5
p232
sbag1
(g2
g3
Ntp233
Rp234
(dp235
g7
V231
p236
sg9
VPhanpy
p237
sg11
g194
sg13
VGrass
p238
sg15
V20
p239
sg17
g239
sg18
V10
p240
sbag1
(g2
g3
Ntp241
Rp242
(dp243
g7
V129
p244
sg9
VMagikarp
p245
sg11
VHG,SS,
p246
sg13
VSurf
p247
sg15
V2
p248
sg17
V25
p249
sg18
V100
p250
sbag1
(g2
g3
Ntp251
Rp252
(dp253
g7
V060
p254
sg9
VPoliwag
p255
sg11
VHG,SS,
p256
sg13
VFish Old
p257
sg15
V10
p258
sg17
g258
sg18
V15
p259
sbag1
(g2
g3
Ntp260
Rp261
(dp262
g7
V129
p263
sg9
VMagikarp
p264
sg11
VHG,SS,
p265
sg13
VFish Old
p266
sg15
V10
p267
sg17
g267
sg18
V85
p268
sbag1
(g2
g3
Ntp269
Rp270
(dp271
g7
V060
p272
sg9
VPoliwag
p273
sg11
VHG,SS,
p274
sg13
VFish Good
p275
sg15
V20
p276
sg17
g276
sg18
V60
p277
sbag1
(g2
g3
Ntp278
Rp279
(dp280
g7
V129
p281
sg9
VMagikarp
p282
sg11
VHG,SS,
p283
sg13
VFish Good
p284
sg15
V20
p285
sg17
g285
sg18
V40
p286
sbag1
(g2
g3
Ntp287
Rp288
(dp289
g7
V060
p290
sg9
VPoliwag
p291
sg11
VHG,SS,
p292
sg13
VFish Super
p293
sg15
V40
p294
sg17
g294
sg18
V80
p295
sbag1
(g2
g3
Ntp296
Rp297
(dp298
g7
V129
p299
sg9
VMagikarp
p300
sg11
VHG,SS,
p301
sg13
VFish Super
p302
sg15
V40
p303
sg17
g303
sg18
V20
p304
sbag1
(g2
g3
Ntp305
Rp306
(dp307
g7
V021
p308
sg9
VSpearow
p309
sg11
VHG,SS,
p310
sg13
VHeadbutt
p311
sg15
V23
p312
sg17
V27
p313
sg18
V0
p314
sbag1
(g2
g3
Ntp315
Rp316
(dp317
g7
V190
p318
sg9
VAipom
p319
sg11
VHG,SS,
p320
sg13
VHeadbutt
p321
sg15
V23
p322
sg17
V27
p323
sg18
V20
p324
sbag1
(g2
g3
Ntp325
Rp326
(dp327
g7
V214
p328
sg9
VHeracross
p329
sg11
VHG,SS,
p330
sg13
VHeadbutt
p331
sg15
V23
p332
sg17
V25
p333
sg18
V30
p334
sbag1
(g2
g3
Ntp335
Rp336
(dp337
g7
V333
p338
sg9
VSwablu
p339
sg11
VHG,SS,
p340
sg13
VSwarm
p341
sg15
V23
p342
sg17
g342
sg18
V40
p343
sbag1
(g2
g3
Ntp344
Rp345
(dp346
g7
V264
p347
sg9
VLinoone
p348
sg11
VHG,SS,
p349
sg13
VHoenn
p350
sg15
V24
p351
sg17
g351
sg18
V20
p352
sbag1
(g2
g3
Ntp353
Rp354
(dp355
g7
V293
p356
sg9
VWhismur
p357
sg11
VHG,SS,
p358
sg13
VHoenn
p359
sg15
V23
p360
sg17
g360
sg18
V20
p361
sbag1
(g2
g3
Ntp362
Rp363
(dp364
g7
V399
p365
sg9
VBidoof
p366
sg11
VHG,SS,
p367
sg13
VSinnoh
p368
sg15
V24
p369
sg17
g369
sg18
V20
p370
sbag1
(g2
g3
Ntp371
Rp372
(dp373
g7
V418
p374
sg9
VBuizel
p375
sg11
VHG,SS,
p376
sg13
VSinnoh
p377
sg15
V23
p378
sg17
g378
sg18
V20
p379
sba.