(lp0
ccopy_reg
_reconstructor
p1
(c__main__
WildPokemon
p2
c__builtin__
object
p3
Ntp4
Rp5
(dp6
VpDexNo
p7
V017
p8
sVpSpecies
p9
VPidgeotto
p10
sVpGames
p11
VG,S,
p12
sVpArea
p13
VGrass
p14
sVpMinLevel
p15
V17
p16
sVpMaxLevel
p17
g16
sVpRate
p18
V25
p19
sbag1
(g2
g3
Ntp20
Rp21
(dp22
g7
V017
p23
sg9
VPidgeotto
p24
sg11
VC,
p25
sg13
VGrass
p26
sg15
V16
p27
sg17
g27
sg18
V30
p28
sbag1
(g2
g3
Ntp29
Rp30
(dp31
g7
V020
p32
sg9
VRaticate
p33
sg11
g25
sg13
VGrass
p34
sg15
V17
p35
sg17
g35
sg18
V5
p36
sbag1
(g2
g3
Ntp37
Rp38
(dp39
g7
V020
p40
sg9
VRaticate
p41
sg11
g25
sg13
VGrass
p42
sg15
V16
p43
sg17
V17
p44
sg18
V25
p45
sbag1
(g2
g3
Ntp46
Rp47
(dp48
g7
V048
p49
sg9
VVenonat
p50
sg11
VG,S,
p51
sg13
VGrass
p52
sg15
V16
p53
sg17
g53
sg18
V15
p54
sbag1
(g2
g3
Ntp55
Rp56
(dp57
g7
V048
p58
sg9
VVenonat
p59
sg11
g25
sg13
VGrass
p60
sg15
V15
p61
sg17
V17
p62
sg18
V40
p63
sbag1
(g2
g3
Ntp64
Rp65
(dp66
g7
V049
p67
sg9
VVenomoth
p68
sg11
g25
sg13
VGrass
p69
sg15
V17
p70
sg17
g70
sg18
V5
p71
sbag1
(g2
g3
Ntp72
Rp73
(dp74
g7
V083
p75
sg9
VFarfetch'd
p76
sg11
g25
sg13
VGrass
p77
sg15
V16
p78
sg17
g78
sg18
V20
p79
sbag1
(g2
g3
Ntp80
Rp81
(dp82
g7
V161
p83
sg9
VSentret
p84
sg11
g25
sg13
VGrass
p85
sg15
V15
p86
sg17
g86
sg18
V30
p87
sbag1
(g2
g3
Ntp88
Rp89
(dp90
g7
V162
p91
sg9
VFurret
p92
sg11
g25
sg13
VGrass
p93
sg15
V15
p94
sg17
V17
p95
sg18
V15
p96
sbag1
(g2
g3
Ntp97
Rp98
(dp99
g7
V164
p100
sg9
VNoctowl
p101
sg11
VG,S,
p102
sg13
VGrass
p103
sg15
V17
p104
sg17
g104
sg18
V20
p105
sbag1
(g2
g3
Ntp106
Rp107
(dp108
g7
V164
p109
sg9
VNoctowl
p110
sg11
g25
sg13
VGrass
p111
sg15
V16
p112
sg17
g112
sg18
V30
p113
sbag1
(g2
g3
Ntp114
Rp115
(dp116
g7
V179
p117
sg9
VMareep
p118
sg11
VG,S,
p119
sg13
VGrass
p120
sg15
V15
p121
sg17
g121
sg18
V10
p122
sbag1
(g2
g3
Ntp123
Rp124
(dp125
g7
V180
p126
sg9
VFlaaffy
p127
sg11
VG,S,
p128
sg13
VGrass
p129
sg15
V15
p130
sg17
g130
sg18
V40
p131
sbag1
(g2
g3
Ntp132
Rp133
(dp134
g7
V203
p135
sg9
VGirafarig
p136
sg11
VG,S,
p137
sg13
VGrass
p138
sg15
V15
p139
sg17
g139
sg18
V30
p140
sbag1
(g2
g3
Ntp141
Rp142
(dp143
g7
V129
p144
sg9
VMagikarp
p145
sg11
VG,S,C,
p146
sg13
VSurf
p147
sg15
V15
p148
sg17
V24
p149
sg18
V100
p150
sbag1
(g2
g3
Ntp151
Rp152
(dp153
g7
V060
p154
sg9
VPoliwag
p155
sg11
VG,S,C,
p156
sg13
VFish Old
p157
sg15
V10
p158
sg17
g158
sg18
V15
p159
sbag1
(g2
g3
Ntp160
Rp161
(dp162
g7
V129
p163
sg9
VMagikarp
p164
sg11
VG,S,C,
p165
sg13
VFish Old
p166
sg15
V10
p167
sg17
g167
sg18
V85
p168
sbag1
(g2
g3
Ntp169
Rp170
(dp171
g7
V060
p172
sg9
VPoliwag
p173
sg11
VG,S,C,
p174
sg13
VFish Good
p175
sg15
V20
p176
sg17
g176
sg18
V65
p177
sbag1
(g2
g3
Ntp178
Rp179
(dp180
g7
V129
p181
sg9
VMagikarp
p182
sg11
VG,S,C,
p183
sg13
VFish Good
p184
sg15
V20
p185
sg17
g185
sg18
V35
p186
sbag1
(g2
g3
Ntp187
Rp188
(dp189
g7
V060
p190
sg9
VPoliwag
p191
sg11
VG,S,C,
p192
sg13
VFish Super
p193
sg15
V40
p194
sg17
g194
sg18
V80
p195
sbag1
(g2
g3
Ntp196
Rp197
(dp198
g7
V129
p199
sg9
VMagikarp
p200
sg11
VG,S,C,
p201
sg13
VFish Super
p202
sg15
V40
p203
sg17
g203
sg18
V20
p204
sbag1
(g2
g3
Ntp205
Rp206
(dp207
g7
V021
p208
sg9
VSpearow
p209
sg11
VG,S,
p210
sg13
VHeadbutt
p211
sg15
V10
p212
sg17
g212
sg18
V80
p213
sbag1
(g2
g3
Ntp214
Rp215
(dp216
g7
V048
p217
sg9
VVenonat
p218
sg11
g25
sg13
VHeadbutt
p219
sg15
V10
p220
sg17
g220
sg18
V15
p221
sbag1
(g2
g3
Ntp222
Rp223
(dp224
g7
V102
p225
sg9
VExeggcute
p226
sg11
g25
sg13
VHeadbutt
p227
sg15
V10
p228
sg17
g228
sg18
V20
p229
sbag1
(g2
g3
Ntp230
Rp231
(dp232
g7
V163
p233
sg9
VHoothoot
p234
sg11
g25
sg13
VHeadbutt
p235
sg15
V10
p236
sg17
g236
sg18
V65
p237
sbag1
(g2
g3
Ntp238
Rp239
(dp240
g7
V190
p241
sg9
VAipom
p242
sg11
VG,S,
p243
sg13
VHeadbutt
p244
sg15
V10
p245
sg17
g245
sg18
V20
p246
sbag1
(g2
g3
Ntp247
Rp248
(dp249
g7
V021
p250
sg9
VSpearow
p251
sg11
VG,S,
p252
sg13
VHeadbutt
p253
sg15
V10
p254
sg17
g254
sg18
V50
p255
sbag1
(g2
g3
Ntp256
Rp257
(dp258
g7
V102
p259
sg9
VExeggcute
p260
sg11
g25
sg13
VHeadbutt
p261
sg15
V10
p262
sg17
g262
sg18
V20
p263
sbag1
(g2
g3
Ntp264
Rp265
(dp266
g7
V163
p267
sg9
VHoothoot
p268
sg11
g25
sg13
VHeadbutt
p269
sg15
V10
p270
sg17
g270
sg18
V50
p271
sbag1
(g2
g3
Ntp272
Rp273
(dp274
g7
V190
p275
sg9
VAipom
p276
sg11
VG,S,
p277
sg13
VHeadbutt
p278
sg15
V10
p279
sg17
g279
sg18
V20
p280
sbag1
(g2
g3
Ntp281
Rp282
(dp283
g7
V204
p284
sg9
VPineco
p285
sg11
g25
sg13
VHeadbutt
p286
sg15
V10
p287
sg17
g287
sg18
V30
p288
sbag1
(g2
g3
Ntp289
Rp290
(dp291
g7
V214
p292
sg9
VHeracross
p293
sg11
VG,S,
p294
sg13
VHeadbutt
p295
sg15
V10
p296
sg17
g296
sg18
V30
p297
sbag1
(g2
g3
Ntp298
Rp299
(dp300
g7
V017
p301
sg9
VPidgeotto
p302
sg11
VHG,SS,
p303
sg13
VGrass
p304
sg15
V17
p305
sg17
g305
sg18
V25
p306
sbag1
(g2
g3
Ntp307
Rp308
(dp309
g7
V048
p310
sg9
VVenonat
p311
sg11
VHG,SS,
p312
sg13
VGrass
p313
sg15
V16
p314
sg17
g314
sg18
V5
p315
sbag1
(g2
g3
Ntp316
Rp317
(dp318
g7
V048
p319
sg9
VVenonat
p320
sg11
VHG,SS,
p321
sg13
VGrass
p322
sg15
V15
p323
sg17
V17
p324
sg18
V15
p325
sbag1
(g2
g3
Ntp326
Rp327
(dp328
g7
V164
p329
sg9
VNoctowl
p330
sg11
VHG,SS,
p331
sg13
VGrass
p332
sg15
V17
p333
sg17
g333
sg18
V20
p334
sbag1
(g2
g3
Ntp335
Rp336
(dp337
g7
V179
p338
sg9
VMareep
p339
sg11
VHG,SS,
p340
sg13
VGrass
p341
sg15
V15
p342
sg17
g342
sg18
V10
p343
sbag1
(g2
g3
Ntp344
Rp345
(dp346
g7
V179
p347
sg9
VMareep
p348
sg11
VHG,SS,
p349
sg13
VGrass
p350
sg15
V16
p351
sg17
g351
sg18
V5
p352
sbag1
(g2
g3
Ntp353
Rp354
(dp355
g7
V180
p356
sg9
VFlaaffy
p357
sg11
VHG,SS,
p358
sg13
VGrass
p359
sg15
V15
p360
sg17
g360
sg18
V30
p361
sbag1
(g2
g3
Ntp362
Rp363
(dp364
g7
V180
p365
sg9
VFlaaffy
p366
sg11
VHG,SS,
p367
sg13
VGrass
p368
sg15
V15
p369
sg17
V17
p370
sg18
V40
p371
sbag1
(g2
g3
Ntp372
Rp373
(dp374
g7
V203
p375
sg9
VGirafarig
p376
sg11
VHG,SS,
p377
sg13
VGrass
p378
sg15
V15
p379
sg17
g379
sg18
V30
p380
sbag1
(g2
g3
Ntp381
Rp382
(dp383
g7
V129
p384
sg9
VMagikarp
p385
sg11
VHG,SS,
p386
sg13
VSurf
p387
sg15
V5
p388
sg17
V50
p389
sg18
V100
p390
sbag1
(g2
g3
Ntp391
Rp392
(dp393
g7
V060
p394
sg9
VPoliwag
p395
sg11
VHG,SS,
p396
sg13
VFish Old
p397
sg15
V10
p398
sg17
g398
sg18
V15
p399
sbag1
(g2
g3
Ntp400
Rp401
(dp402
g7
V129
p403
sg9
VMagikarp
p404
sg11
VHG,SS,
p405
sg13
VFish Old
p406
sg15
V10
p407
sg17
g407
sg18
V85
p408
sbag1
(g2
g3
Ntp409
Rp410
(dp411
g7
V060
p412
sg9
VPoliwag
p413
sg11
VHG,SS,
p414
sg13
VFish Good
p415
sg15
V20
p416
sg17
g416
sg18
V60
p417
sbag1
(g2
g3
Ntp418
Rp419
(dp420
g7
V129
p421
sg9
VMagikarp
p422
sg11
VHG,SS,
p423
sg13
VFish Good
p424
sg15
V20
p425
sg17
g425
sg18
V40
p426
sbag1
(g2
g3
Ntp427
Rp428
(dp429
g7
V060
p430
sg9
VPoliwag
p431
sg11
VHG,SS,
p432
sg13
VFish Super
p433
sg15
V40
p434
sg17
g434
sg18
V80
p435
sbag1
(g2
g3
Ntp436
Rp437
(dp438
g7
V129
p439
sg9
VMagikarp
p440
sg11
VHG,SS,
p441
sg13
VFish Super
p442
sg15
V40
p443
sg17
g443
sg18
V20
p444
sbag1
(g2
g3
Ntp445
Rp446
(dp447
g7
V102
p448
sg9
VExeggcute
p449
sg11
VHG,SS,
p450
sg13
VHeadbutt
p451
sg15
V15
p452
sg17
V16
p453
sg18
V20
p454
sbag1
(g2
g3
Ntp455
Rp456
(dp457
g7
V163
p458
sg9
VHoothoot
p459
sg11
VHG,SS,
p460
sg13
VHeadbutt
p461
sg15
V15
p462
sg17
V16
p463
sg18
V50
p464
sbag1
(g2
g3
Ntp465
Rp466
(dp467
g7
V204
p468
sg9
VPineco
p469
sg11
VHG,SS,
p470
sg13
VHeadbutt
p471
sg15
V15
p472
sg17
V16
p473
sg18
V30
p474
sbag1
(g2
g3
Ntp475
Rp476
(dp477
g7
V048
p478
sg9
VVenonat
p479
sg11
VHG,SS,
p480
sg13
VHeadbutt
p481
sg15
V17
p482
sg17
V18
p483
sg18
V15
p484
sbag1
(g2
g3
Ntp485
Rp486
(dp487
g7
V102
p488
sg9
VExeggcute
p489
sg11
VHG,SS,
p490
sg13
VHeadbutt
p491
sg15
V17
p492
sg17
V18
p493
sg18
V20
p494
sbag1
(g2
g3
Ntp495
Rp496
(dp497
g7
V163
p498
sg9
VHoothoot
p499
sg11
VHG,SS,
p500
sg13
VHeadbutt
p501
sg15
V17
p502
sg17
V18
p503
sg18
V65
p504
sbag1
(g2
g3
Ntp505
Rp506
(dp507
g7
V264
p508
sg9
VLinoone
p509
sg11
VHG,SS,
p510
sg13
VHoenn
p511
sg15
V17
p512
sg17
g512
sg18
V20
p513
sbag1
(g2
g3
Ntp514
Rp515
(dp516
g7
V293
p517
sg9
VWhismur
p518
sg11
VHG,SS,
p519
sg13
VHoenn
p520
sg15
V15
p521
sg17
g521
sg18
V20
p522
sbag1
(g2
g3
Ntp523
Rp524
(dp525
g7
V399
p526
sg9
VBidoof
p527
sg11
VHG,SS,
p528
sg13
VSinnoh
p529
sg15
V17
p530
sg17
g530
sg18
V20
p531
sbag1
(g2
g3
Ntp532
Rp533
(dp534
g7
V418
p535
sg9
VBuizel
p536
sg11
VHG,SS,
p537
sg13
VSinnoh
p538
sg15
V15
p539
sg17
g539
sg18
V20
p540
sba.