(lp0
ccopy_reg
_reconstructor
p1
(c__main__
WildPokemon
p2
c__builtin__
object
p3
Ntp4
Rp5
(dp6
VpDexNo
p7
V016
p8
sVpSpecies
p9
VPidgey
p10
sVpGames
p11
VG,S,
p12
sVpArea
p13
VGrass
p14
sVpMinLevel
p15
V13
p16
sVpMaxLevel
p17
V15
p18
sVpRate
p19
V25
p20
sbag1
(g2
g3
Ntp21
Rp22
(dp23
g7
V016
p24
sg9
VPidgey
p25
sg11
VC,
p26
sg13
VGrass
p27
sg15
V4
p28
sg17
V6
p29
sg19
V70
p30
sbag1
(g2
g3
Ntp31
Rp32
(dp33
g7
V029
p34
sg9
VNidoran\u2640
p35
sg11
VG,S,
p36
sg13
VGrass
p37
sg15
V12
p38
sg17
g38
sg19
V30
p39
sbag1
(g2
g3
Ntp40
Rp41
(dp42
g7
V032
p43
sg9
VNidoran\u2642
p44
sg11
VG,S,
p45
sg13
VGrass
p46
sg15
V12
p47
sg17
V13
p48
sg19
V30
p49
sbag1
(g2
g3
Ntp50
Rp51
(dp52
g7
V037
p53
sg9
VVulpix
p54
sg11
VS,
p55
sg13
VGrass
p56
sg15
V13
p57
sg17
g57
sg19
V15
p58
sbag1
(g2
g3
Ntp59
Rp60
(dp61
g7
V058
p62
sg9
VGrowlithe
p63
sg11
VG,
p64
sg13
VGrass
p65
sg15
V13
p66
sg17
g66
sg19
V15
p67
sbag1
(g2
g3
Ntp68
Rp69
(dp70
g7
V058
p71
sg9
VGrowlithe
p72
sg11
g26
sg13
VGrass
p73
sg15
V5
p74
sg17
g74
sg19
V10
p75
sbag1
(g2
g3
Ntp76
Rp77
(dp78
g7
V069
p79
sg9
VBellsprout
p80
sg11
g26
sg13
VGrass
p81
sg15
g74
sg17
g74
sg19
V20
p82
sbag1
(g2
g3
Ntp83
Rp84
(dp85
g7
V092
p86
sg9
VGastly
p87
sg11
g26
sg13
VGrass
p88
sg15
g74
sg17
g74
sg19
V5
p89
sbag1
(g2
g3
Ntp90
Rp91
(dp92
g7
V163
p93
sg9
VHoothoot
p94
sg11
VG,S,
p95
sg13
VGrass
p96
sg15
V13
p97
sg17
V15
p98
sg19
V25
p99
sbag1
(g2
g3
Ntp100
Rp101
(dp102
g7
V163
p103
sg9
VHoothoot
p104
sg11
g26
sg13
VGrass
p105
sg15
g28
sg17
g74
sg19
V45
p106
sbag1
(g2
g3
Ntp107
Rp108
(dp109
g7
V165
p110
sg9
VLedyba
p111
sg11
g26
sg13
VGrass
p112
sg15
g28
sg17
g28
sg19
V30
p113
sbag1
(g2
g3
Ntp114
Rp115
(dp116
g7
V167
p117
sg9
VSpinarak
p118
sg11
g26
sg13
VGrass
p119
sg15
g28
sg17
g28
sg19
V30
p120
sbag1
(g2
g3
Ntp121
Rp122
(dp123
g7
V234
p124
sg9
VStantler
p125
sg11
VG,S,
p126
sg13
VGrass
p127
sg15
V13
p128
sg17
g128
sg19
V5
p129
sbag1
(g2
g3
Ntp130
Rp131
(dp132
g7
V010
p133
sg9
VCaterpie
p134
sg11
g64
sg13
VHeadbutt
p135
sg15
V10
p136
sg17
g136
sg19
V65
p137
sbag1
(g2
g3
Ntp138
Rp139
(dp140
g7
V011
p141
sg9
VMetapod
p142
sg11
g64
sg13
VHeadbutt
p143
sg15
V10
p144
sg17
g144
sg19
V15
p145
sbag1
(g2
g3
Ntp146
Rp147
(dp148
g7
V012
p149
sg9
VButterfree
p150
sg11
g64
sg13
VHeadbutt
p151
sg15
V10
p152
sg17
g152
sg19
V5
p153
sbag1
(g2
g3
Ntp154
Rp155
(dp156
g7
V013
p157
sg9
VWeedle
p158
sg11
g55
sg13
VHeadbutt
p159
sg15
V10
p160
sg17
g160
sg19
V65
p161
sbag1
(g2
g3
Ntp162
Rp163
(dp164
g7
V014
p165
sg9
VKakuna
p166
sg11
g55
sg13
VHeadbutt
p167
sg15
V10
p168
sg17
g168
sg19
V15
p169
sbag1
(g2
g3
Ntp170
Rp171
(dp172
g7
V015
p173
sg9
VBeedrill
p174
sg11
g55
sg13
VHeadbutt
p175
sg15
V10
p176
sg17
g176
sg19
V5
p177
sbag1
(g2
g3
Ntp178
Rp179
(dp180
g7
V102
p181
sg9
VExeggcute
p182
sg11
VG,S,
p183
sg13
VHeadbutt
p184
sg15
V10
p185
sg17
g185
sg19
V15
p186
sbag1
(g2
g3
Ntp187
Rp188
(dp189
g7
V102
p190
sg9
VExeggcute
p191
sg11
g26
sg13
VHeadbutt
p192
sg15
V10
p193
sg17
g193
sg19
V20
p194
sbag1
(g2
g3
Ntp195
Rp196
(dp197
g7
V163
p198
sg9
VHoothoot
p199
sg11
g26
sg13
VHeadbutt
p200
sg15
V10
p201
sg17
g201
sg19
V50
p202
sbag1
(g2
g3
Ntp203
Rp204
(dp205
g7
V165
p206
sg9
VLedyba
p207
sg11
g26
sg13
VHeadbutt
p208
sg15
V10
p209
sg17
g209
sg19
V15
p210
sbag1
(g2
g3
Ntp211
Rp212
(dp213
g7
V167
p214
sg9
VSpinarak
p215
sg11
g26
sg13
VHeadbutt
p216
sg15
V10
p217
sg17
g217
sg19
V15
p218
sbag1
(g2
g3
Ntp219
Rp220
(dp221
g7
V010
p222
sg9
VCaterpie
p223
sg11
g64
sg13
VHeadbutt
p224
sg15
V10
p225
sg17
g225
sg19
V50
p226
sbag1
(g2
g3
Ntp227
Rp228
(dp229
g7
V012
p230
sg9
VButterfree
p231
sg11
g64
sg13
VHeadbutt
p232
sg15
V10
p233
sg17
g233
sg19
V5
p234
sbag1
(g2
g3
Ntp235
Rp236
(dp237
g7
V013
p238
sg9
VWeedle
p239
sg11
g55
sg13
VHeadbutt
p240
sg15
V10
p241
sg17
g241
sg19
V50
p242
sbag1
(g2
g3
Ntp243
Rp244
(dp245
g7
V015
p246
sg9
VBeedrill
p247
sg11
g55
sg13
VHeadbutt
p248
sg15
V10
p249
sg17
g249
sg19
V5
p250
sbag1
(g2
g3
Ntp251
Rp252
(dp253
g7
V102
p254
sg9
VExeggcute
p255
sg11
VG,S,
p256
sg13
VHeadbutt
p257
sg15
V10
p258
sg17
g258
sg19
V15
p259
sbag1
(g2
g3
Ntp260
Rp261
(dp262
g7
V102
p263
sg9
VExeggcute
p264
sg11
g26
sg13
VHeadbutt
p265
sg15
V10
p266
sg17
g266
sg19
V20
p267
sbag1
(g2
g3
Ntp268
Rp269
(dp270
g7
V163
p271
sg9
VHoothoot
p272
sg11
g26
sg13
VHeadbutt
p273
sg15
V10
p274
sg17
g274
sg19
V50
p275
sbag1
(g2
g3
Ntp276
Rp277
(dp278
g7
V204
p279
sg9
VPineco
p280
sg11
VG,S,C,
p281
sg13
VHeadbutt
p282
sg15
V10
p283
sg17
g283
sg19
V30
p284
sbag1
(g2
g3
Ntp285
Rp286
(dp287
g7
V185
p288
sg9
VSudowoodo
p289
sg11
VG,S,C,
p290
sg13
VSpecial
p291
sg15
V20
p292
sg17
g292
sg19
V0
p293
sbag1
(g2
g3
Ntp294
Rp295
(dp296
g7
V016
p297
sg9
VPidgey
p298
sg11
VHG,SS,
p299
sg13
VGrass
p300
sg15
V13
p301
sg17
V15
p302
sg19
V25
p303
sbag1
(g2
g3
Ntp304
Rp305
(dp306
g7
V016
p307
sg9
VPidgey
p308
sg11
VHG,SS,
p309
sg13
VGrass
p310
sg15
V13
p311
sg17
g311
sg19
V20
p312
sbag1
(g2
g3
Ntp313
Rp314
(dp315
g7
V029
p316
sg9
VNidoran\u2640
p317
sg11
VHG,SS,
p318
sg13
VGrass
p319
sg15
V12
p320
sg17
g320
sg19
V30
p321
sbag1
(g2
g3
Ntp322
Rp323
(dp324
g7
V032
p325
sg9
VNidoran\u2642
p326
sg11
VHG,SS,
p327
sg13
VGrass
p328
sg15
V12
p329
sg17
g329
sg19
V30
p330
sbag1
(g2
g3
Ntp331
Rp332
(dp333
g7
V037
p334
sg9
VVulpix
p335
sg11
VSS,
p336
sg13
VGrass
p337
sg15
V13
p338
sg17
g338
sg19
V10
p339
sbag1
(g2
g3
Ntp340
Rp341
(dp342
g7
V037
p343
sg9
VVulpix
p344
sg11
g336
sg13
VGrass
p345
sg15
V13
p346
sg17
V15
p347
sg19
V15
p348
sbag1
(g2
g3
Ntp349
Rp350
(dp351
g7
V058
p352
sg9
VGrowlithe
p353
sg11
VHG,
p354
sg13
VGrass
p355
sg15
V13
p356
sg17
g356
sg19
V10
p357
sbag1
(g2
g3
Ntp358
Rp359
(dp360
g7
V058
p361
sg9
VGrowlithe
p362
sg11
g354
sg13
VGrass
p363
sg15
V13
p364
sg17
V15
p365
sg19
V15
p366
sbag1
(g2
g3
Ntp367
Rp368
(dp369
g7
V163
p370
sg9
VHoothoot
p371
sg11
VHG,SS,
p372
sg13
VGrass
p373
sg15
V13
p374
sg17
V15
p375
sg19
V25
p376
sbag1
(g2
g3
Ntp377
Rp378
(dp379
g7
V234
p380
sg9
VStantler
p381
sg11
VHG,SS,
p382
sg13
VGrass
p383
sg15
V13
p384
sg17
g384
sg19
V5
p385
sbag1
(g2
g3
Ntp386
Rp387
(dp388
g7
V102
p389
sg9
VExeggcute
p390
sg11
VHG,SS,
p391
sg13
VHeadbutt
p392
sg15
g28
sg17
V7
p393
sg19
V20
p394
sbag1
(g2
g3
Ntp395
Rp396
(dp397
g7
V163
p398
sg9
VHoothoot
p399
sg11
VHG,SS,
p400
sg13
VHeadbutt
p401
sg15
g28
sg17
g393
sg19
V50
p402
sbag1
(g2
g3
Ntp403
Rp404
(dp405
g7
V165
p406
sg9
VLedyba
p407
sg11
g336
sg13
VHeadbutt
p408
sg15
g29
sg17
g393
sg19
V30
p409
sbag1
(g2
g3
Ntp410
Rp411
(dp412
g7
V167
p413
sg9
VSpinarak
p414
sg11
g354
sg13
VHeadbutt
p415
sg15
g29
sg17
g393
sg19
V30
p416
sbag1
(g2
g3
Ntp417
Rp418
(dp419
g7
V204
p420
sg9
VPineco
p421
sg11
VHG,SS,
p422
sg13
VHeadbutt
p423
sg15
g28
sg17
g74
sg19
V30
p424
sbag1
(g2
g3
Ntp425
Rp426
(dp427
g7
V185
p428
sg9
VSudowoodo
p429
sg11
VHG,SS,
p430
sg13
VSpecial
p431
sg15
V20
p432
sg17
g432
sg19
V0
p433
sbag1
(g2
g3
Ntp434
Rp435
(dp436
g7
V311
p437
sg9
VPlusle
p438
sg11
VHG,SS,
p439
sg13
VHoenn
p440
sg15
V12
p441
sg17
g441
sg19
V20
p442
sbag1
(g2
g3
Ntp443
Rp444
(dp445
g7
V312
p446
sg9
VMinun
p447
sg11
VHG,SS,
p448
sg13
VHoenn
p449
sg15
V13
p450
sg17
g450
sg19
V20
p451
sbag1
(g2
g3
Ntp452
Rp453
(dp454
g7
V403
p455
sg9
VShinx
p456
sg11
VHG,SS,
p457
sg13
VSinnoh
p458
sg15
V12
p459
sg17
V13
p460
sg19
V40
p461
sba.