(lp0
ccopy_reg
_reconstructor
p1
(c__main__
WildPokemon
p2
c__builtin__
object
p3
Ntp4
Rp5
(dp6
VpDexNo
p7
V020
p8
sVpSpecies
p9
VRaticate
p10
sVpGames
p11
VHG,SS,
p12
sVpArea
p13
VGrass
p14
sVpMinLevel
p15
V31
p16
sVpMaxLevel
p17
V33
p18
sVpRate
p19
V5
p20
sbag1
(g2
g3
Ntp21
Rp22
(dp23
g7
V021
p24
sg9
VSpearow
p25
sg11
VHG,SS,
p26
sg13
VGrass
p27
sg15
V31
p28
sg17
g28
sg19
V5
p29
sbag1
(g2
g3
Ntp30
Rp31
(dp32
g7
V022
p33
sg9
VFearow
p34
sg11
VHG,SS,
p35
sg13
VGrass
p36
sg15
V34
p37
sg17
g37
sg19
V4
p38
sbag1
(g2
g3
Ntp39
Rp40
(dp41
g7
V044
p42
sg9
VGloom
p43
sg11
VHG,SS,
p44
sg13
VGrass
p45
sg15
V32
p46
sg17
g46
sg19
V5
p47
sbag1
(g2
g3
Ntp48
Rp49
(dp50
g7
V083
p51
sg9
VFarfetch'd
p52
sg11
VHG,SS,
p53
sg13
VGrass
p54
sg15
V35
p55
sg17
g55
sg19
V20
p56
sbag1
(g2
g3
Ntp57
Rp58
(dp59
g7
V132
p60
sg9
VDitto
p61
sg11
VHG,SS,
p62
sg13
VGrass
p63
sg15
V31
p64
sg17
V40
p65
sg19
V41
p66
sbag1
(g2
g3
Ntp67
Rp68
(dp69
g7
V164
p70
sg9
VNoctowl
p71
sg11
VHG,SS,
p72
sg13
VGrass
p73
sg15
V35
p74
sg17
g74
sg19
V20
p75
sbag1
(g2
g3
Ntp76
Rp77
(dp78
g7
V241
p79
sg9
VMiltank
p80
sg11
VHG,SS,
p81
sg13
VGrass
p82
sg15
V35
p83
sg17
g83
sg19
V20
p84
sbag1
(g2
g3
Ntp85
Rp86
(dp87
g7
V072
p88
sg9
VTentacool
p89
sg11
VHG,SS,
p90
sg13
VSurf
p91
sg15
V15
p92
sg17
V25
p93
sg19
V60
p94
sbag1
(g2
g3
Ntp95
Rp96
(dp97
g7
V086
p98
sg9
VSeel
p99
sg11
VHG,SS,
p100
sg13
VSurf
p101
sg15
V10
p102
sg17
V20
p103
sg19
V30
p104
sbag1
(g2
g3
Ntp105
Rp106
(dp107
g7
V120
p108
sg9
VStaryu
p109
sg11
VHG,SS,
p110
sg13
VSurf
p111
sg15
V15
p112
sg17
V25
p113
sg19
V10
p114
sbag1
(g2
g3
Ntp115
Rp116
(dp117
g7
V072
p118
sg9
VTentacool
p119
sg11
VHG,SS,
p120
sg13
VFish Old
p121
sg15
V10
p122
sg17
g122
sg19
V15
p123
sbag1
(g2
g3
Ntp124
Rp125
(dp126
g7
V129
p127
sg9
VMagikarp
p128
sg11
VHG,SS,
p129
sg13
VFish Old
p130
sg15
V10
p131
sg17
g131
sg19
V85
p132
sbag1
(g2
g3
Ntp133
Rp134
(dp135
g7
V072
p136
sg9
VTentacool
p137
sg11
VHG,SS,
p138
sg13
VFish Good
p139
sg15
V20
p140
sg17
g140
sg19
V30
p141
sbag1
(g2
g3
Ntp142
Rp143
(dp144
g7
V090
p145
sg9
VShellder
p146
sg11
VHG,SS,
p147
sg13
VFish Good
p148
sg15
V20
p149
sg17
g149
sg19
V10
p150
sbag1
(g2
g3
Ntp151
Rp152
(dp153
g7
V129
p154
sg9
VMagikarp
p155
sg11
VHG,SS,
p156
sg13
VFish Good
p157
sg15
V20
p158
sg17
g158
sg19
V40
p159
sbag1
(g2
g3
Ntp160
Rp161
(dp162
g7
V170
p163
sg9
VChinchou
p164
sg11
VHG,SS,
p165
sg13
VFish Good
p166
sg15
V20
p167
sg17
g167
sg19
V20
p168
sbag1
(g2
g3
Ntp169
Rp170
(dp171
g7
V073
p172
sg9
VTentacruel
p173
sg11
VHG,SS,
p174
sg13
VFish Super
p175
sg15
V40
p176
sg17
g176
sg19
V20
p177
sbag1
(g2
g3
Ntp178
Rp179
(dp180
g7
V090
p181
sg9
VShellder
p182
sg11
VHG,SS,
p183
sg13
VFish Super
p184
sg15
V40
p185
sg17
g185
sg19
V30
p186
sbag1
(g2
g3
Ntp187
Rp188
(dp189
g7
V170
p190
sg9
VChinchou
p191
sg11
VHG,SS,
p192
sg13
VFish Super
p193
sg15
V40
p194
sg17
g194
sg19
V40
p195
sbag1
(g2
g3
Ntp196
Rp197
(dp198
g7
V171
p199
sg9
VLanturn
p200
sg11
VHG,SS,
p201
sg13
VFish Super
p202
sg15
V40
p203
sg17
g203
sg19
V10
p204
sbag1
(g2
g3
Ntp205
Rp206
(dp207
g7
V011
p208
sg9
VMetapod
p209
sg11
VHG,
p210
sg13
VHeadbutt
p211
sg15
V25
p212
sg17
V28
p213
sg19
V50
p214
sbag1
(g2
g3
Ntp215
Rp216
(dp217
g7
V012
p218
sg9
VButterfree
p219
sg11
g210
sg13
VHeadbutt
p220
sg15
V25
p221
sg17
V28
p222
sg19
V30
p223
sbag1
(g2
g3
Ntp224
Rp225
(dp226
g7
V014
p227
sg9
VKakuna
p228
sg11
VSS,
p229
sg13
VHeadbutt
p230
sg15
V25
p231
sg17
V28
p232
sg19
V50
p233
sbag1
(g2
g3
Ntp234
Rp235
(dp236
g7
V015
p237
sg9
VBeedrill
p238
sg11
g229
sg13
VHeadbutt
p239
sg15
V25
p240
sg17
V28
p241
sg19
V30
p242
sbag1
(g2
g3
Ntp243
Rp244
(dp245
g7
V102
p246
sg9
VExeggcute
p247
sg11
VHG,SS,
p248
sg13
VHeadbutt
p249
sg15
V15
p250
sg17
V18
p251
sg19
V20
p252
sbag1
(g2
g3
Ntp253
Rp254
(dp255
g7
V163
p256
sg9
VHoothoot
p257
sg11
VHG,SS,
p258
sg13
VHeadbutt
p259
sg15
V15
p260
sg17
V18
p261
sg19
V50
p262
sbag1
(g2
g3
Ntp263
Rp264
(dp265
g7
V165
p266
sg9
VLedyba
p267
sg11
g229
sg13
VHeadbutt
p268
sg15
V17
p269
sg17
V18
p270
sg19
V30
p271
sbag1
(g2
g3
Ntp272
Rp273
(dp274
g7
V167
p275
sg9
VSpinarak
p276
sg11
g210
sg13
VHeadbutt
p277
sg15
V17
p278
sg17
V18
p279
sg19
V30
p280
sbag1
(g2
g3
Ntp281
Rp282
(dp283
g7
V204
p284
sg9
VPineco
p285
sg11
VHG,SS,
p286
sg13
VHeadbutt
p287
sg15
V15
p288
sg17
V16
p289
sg19
V30
p290
sbag1
(g2
g3
Ntp291
Rp292
(dp293
g7
V214
p294
sg9
VHeracross
p295
sg11
VHG,SS,
p296
sg13
VHeadbutt
p297
sg15
V25
p298
sg17
V30
p299
sg19
V20
p300
sbag1
(g2
g3
Ntp301
Rp302
(dp303
g7
V132
p304
sg9
VDitto
p305
sg11
VHG,SS,
p306
sg13
VSwarm
p307
sg15
V35
p308
sg17
g308
sg19
V40
p309
sbag1
(g2
g3
Ntp310
Rp311
(dp312
g7
V264
p313
sg9
VLinoone
p314
sg11
VHG,SS,
p315
sg13
VHoenn
p316
sg15
V31
p317
sg17
V32
p318
sg19
V20
p319
sbag1
(g2
g3
Ntp320
Rp321
(dp322
g7
V293
p323
sg9
VWhismur
p324
sg11
VHG,SS,
p325
sg13
VHoenn
p326
sg15
V33
p327
sg17
V34
p328
sg19
V20
p329
sbag1
(g2
g3
Ntp330
Rp331
(dp332
g7
V399
p333
sg9
VBidoof
p334
sg11
VHG,SS,
p335
sg13
VSinnoh
p336
sg15
V31
p337
sg17
V32
p338
sg19
V20
p339
sbag1
(g2
g3
Ntp340
Rp341
(dp342
g7
V418
p343
sg9
VBuizel
p344
sg11
VHG,SS,
p345
sg13
VSinnoh
p346
sg15
V33
p347
sg17
V34
p348
sg19
V20
p349
sba.