(lp0
ccopy_reg
_reconstructor
p1
(c__main__
WildPokemon
p2
c__builtin__
object
p3
Ntp4
Rp5
(dp6
VpDexNo
p7
V019
p8
sVpSpecies
p9
VRattata
p10
sVpGames
p11
VG,
p12
sVpArea
p13
VGrass
p14
sVpMinLevel
p15
V6
p16
sVpMaxLevel
p17
V7
p18
sVpRate
p19
V60
p20
sbag1
(g2
g3
Ntp21
Rp22
(dp23
g7
V019
p24
sg9
VRattata
p25
sg11
VS,
p26
sg13
VGrass
p27
sg15
g16
sg17
g16
sg19
V30
p28
sbag1
(g2
g3
Ntp29
Rp30
(dp31
g7
V019
p32
sg9
VRattata
p33
sg11
VC,
p34
sg13
VGrass
p35
sg15
g16
sg17
g16
sg19
V30
p36
sbag1
(g2
g3
Ntp37
Rp38
(dp39
g7
V019
p40
sg9
VRattata
p41
sg11
g34
sg13
VGrass
p42
sg15
g18
sg17
g18
sg19
V40
p43
sbag1
(g2
g3
Ntp44
Rp45
(dp46
g7
V021
p47
sg9
VSpearow
p48
sg11
VG,S,
p49
sg13
VGrass
p50
sg15
g16
sg17
g16
sg19
V20
p51
sbag1
(g2
g3
Ntp52
Rp53
(dp54
g7
V021
p55
sg9
VSpearow
p56
sg11
g34
sg13
VGrass
p57
sg15
g16
sg17
g16
sg19
V30
p58
sbag1
(g2
g3
Ntp59
Rp60
(dp61
g7
V023
p62
sg9
VEkans
p63
sg11
g26
sg13
VGrass
p64
sg15
g18
sg17
g18
sg19
V30
p65
sbag1
(g2
g3
Ntp66
Rp67
(dp68
g7
V023
p69
sg9
VEkans
p70
sg11
g34
sg13
VGrass
p71
sg15
g18
sg17
g18
sg19
V5
p72
sbag1
(g2
g3
Ntp73
Rp74
(dp75
g7
V041
p76
sg9
VZubat
p77
sg11
VG,S,
p78
sg13
VGrass
p79
sg15
V4
p80
sg17
g80
sg19
V5
p81
sbag1
(g2
g3
Ntp82
Rp83
(dp84
g7
V041
p85
sg9
VZubat
p86
sg11
VG,S,
p87
sg13
VGrass
p88
sg15
g16
sg17
V8
p89
sg19
V40
p90
sbag1
(g2
g3
Ntp91
Rp92
(dp93
g7
V041
p94
sg9
VZubat
p95
sg11
g34
sg13
VGrass
p96
sg15
g16
sg17
g16
sg19
V40
p97
sbag1
(g2
g3
Ntp98
Rp99
(dp100
g7
V074
p101
sg9
VGeodude
p102
sg11
g34
sg13
VGrass
p103
sg15
g16
sg17
g16
sg19
V20
p104
sbag1
(g2
g3
Ntp105
Rp106
(dp107
g7
V187
p108
sg9
VHoppip
p109
sg11
VG,S,
p110
sg13
VGrass
p111
sg15
g16
sg17
g89
sg19
V35
p112
sbag1
(g2
g3
Ntp113
Rp114
(dp115
g7
V187
p116
sg9
VHoppip
p117
sg11
g34
sg13
VGrass
p118
sg15
g16
sg17
g18
sg19
V15
p119
sbag1
(g2
g3
Ntp120
Rp121
(dp122
g7
V021
p123
sg9
VSpearow
p124
sg11
VG,S,
p125
sg13
VHeadbutt
p126
sg15
V10
p127
sg17
g127
sg19
V80
p128
sbag1
(g2
g3
Ntp129
Rp130
(dp131
g7
V021
p132
sg9
VSpearow
p133
sg11
g34
sg13
VHeadbutt
p134
sg15
V10
p135
sg17
g135
sg19
V65
p136
sbag1
(g2
g3
Ntp137
Rp138
(dp139
g7
V023
p140
sg9
VEkans
p141
sg11
g34
sg13
VHeadbutt
p142
sg15
V10
p143
sg17
g143
sg19
V15
p144
sbag1
(g2
g3
Ntp145
Rp146
(dp147
g7
V190
p148
sg9
VAipom
p149
sg11
VG,S,C,
p150
sg13
VHeadbutt
p151
sg15
V10
p152
sg17
g152
sg19
V20
p153
sbag1
(g2
g3
Ntp154
Rp155
(dp156
g7
V021
p157
sg9
VSpearow
p158
sg11
VG,S,C,
p159
sg13
VHeadbutt
p160
sg15
V10
p161
sg17
g161
sg19
V50
p162
sbag1
(g2
g3
Ntp163
Rp164
(dp165
g7
V190
p166
sg9
VAipom
p167
sg11
VG,S,C,
p168
sg13
VHeadbutt
p169
sg15
V10
p170
sg17
g170
sg19
V20
p171
sbag1
(g2
g3
Ntp172
Rp173
(dp174
g7
V214
p175
sg9
VHeracross
p176
sg11
VG,S,C,
p177
sg13
VHeadbutt
p178
sg15
V10
p179
sg17
g179
sg19
V30
p180
sbag1
(g2
g3
Ntp181
Rp182
(dp183
g7
V019
p184
sg9
VRattata
p185
sg11
VHG,
p186
sg13
VGrass
p187
sg15
g16
sg17
g18
sg19
V40
p188
sbag1
(g2
g3
Ntp189
Rp190
(dp191
g7
V019
p192
sg9
VRattata
p193
sg11
g186
sg13
VGrass
p194
sg15
g80
sg17
g18
sg19
V60
p195
sbag1
(g2
g3
Ntp196
Rp197
(dp198
g7
V019
p199
sg9
VRattata
p200
sg11
VSS,
p201
sg13
VGrass
p202
sg15
g16
sg17
g16
sg19
V10
p203
sbag1
(g2
g3
Ntp204
Rp205
(dp206
g7
V019
p207
sg9
VRattata
p208
sg11
g201
sg13
VGrass
p209
sg15
g80
sg17
g16
sg19
V30
p210
sbag1
(g2
g3
Ntp211
Rp212
(dp213
g7
V021
p214
sg9
VSpearow
p215
sg11
VHG,SS,
p216
sg13
VGrass
p217
sg15
g16
sg17
g16
sg19
V20
p218
sbag1
(g2
g3
Ntp219
Rp220
(dp221
g7
V023
p222
sg9
VEkans
p223
sg11
g201
sg13
VGrass
p224
sg15
g18
sg17
g18
sg19
V30
p225
sbag1
(g2
g3
Ntp226
Rp227
(dp228
g7
V041
p229
sg9
VZubat
p230
sg11
VHG,SS,
p231
sg13
VGrass
p232
sg15
g80
sg17
g80
sg19
V5
p233
sbag1
(g2
g3
Ntp234
Rp235
(dp236
g7
V041
p237
sg9
VZubat
p238
sg11
VHG,SS,
p239
sg13
VGrass
p240
sg15
g80
sg17
g89
sg19
V40
p241
sbag1
(g2
g3
Ntp242
Rp243
(dp244
g7
V187
p245
sg9
VHoppip
p246
sg11
VHG,SS,
p247
sg13
VGrass
p248
sg15
g16
sg17
g89
sg19
V35
p249
sbag1
(g2
g3
Ntp250
Rp251
(dp252
g7
V021
p253
sg9
VSpearow
p254
sg11
VHG,SS,
p255
sg13
VHeadbutt
p256
sg15
V3
p257
sg17
g89
sg19
V50
p258
sbag1
(g2
g3
Ntp259
Rp260
(dp261
g7
V190
p262
sg9
VAipom
p263
sg11
VHG,SS,
p264
sg13
VHeadbutt
p265
sg15
g257
sg17
g89
sg19
V20
p266
sbag1
(g2
g3
Ntp267
Rp268
(dp269
g7
V214
p270
sg9
VHeracross
p271
sg11
VHG,SS,
p272
sg13
VHeadbutt
p273
sg15
g257
sg17
V5
p274
sg19
V30
p275
sbag1
(g2
g3
Ntp276
Rp277
(dp278
g7
V311
p279
sg9
VPlusle
p280
sg11
VHG,SS,
p281
sg13
VHoenn
p282
sg15
g16
sg17
g18
sg19
V20
p283
sbag1
(g2
g3
Ntp284
Rp285
(dp286
g7
V312
p287
sg9
VMinun
p288
sg11
VHG,SS,
p289
sg13
VHoenn
p290
sg15
g16
sg17
g16
sg19
V20
p291
sbag1
(g2
g3
Ntp292
Rp293
(dp294
g7
V403
p295
sg9
VShinx
p296
sg11
VHG,SS,
p297
sg13
VSinnoh
p298
sg15
g16
sg17
g18
sg19
V40
p299
sba.