(lp0
ccopy_reg
_reconstructor
p1
(c__main__
WildPokemon
p2
c__builtin__
object
p3
Ntp4
Rp5
(dp6
VpDexNo
p7
V016
p8
sVpSpecies
p9
VPidgey
p10
sVpGames
p11
VG,S,
p12
sVpArea
p13
VGrass
p14
sVpMinLevel
p15
V2
p16
sVpMaxLevel
p17
V4
p18
sVpRate
p19
V55
p20
sbag1
(g2
g3
Ntp21
Rp22
(dp23
g7
V016
p24
sg9
VPidgey
p25
sg11
VC,
p26
sg13
VGrass
p27
sg15
g16
sg17
V3
p28
sg19
V50
p29
sbag1
(g2
g3
Ntp30
Rp31
(dp32
g7
V019
p33
sg9
VRattata
p34
sg11
VG,S,
p35
sg13
VGrass
p36
sg15
g18
sg17
g18
sg19
V5
p37
sbag1
(g2
g3
Ntp38
Rp39
(dp40
g7
V019
p41
sg9
VRattata
p42
sg11
VG,S,
p43
sg13
VGrass
p44
sg15
g16
sg17
g18
sg19
V15
p45
sbag1
(g2
g3
Ntp46
Rp47
(dp48
g7
V019
p49
sg9
VRattata
p50
sg11
g26
sg13
VGrass
p51
sg15
g16
sg17
g16
sg19
V5
p52
sbag1
(g2
g3
Ntp53
Rp54
(dp55
g7
V019
p56
sg9
VRattata
p57
sg11
g26
sg13
VGrass
p58
sg15
g16
sg17
g28
sg19
V45
p59
sbag1
(g2
g3
Ntp60
Rp61
(dp62
g7
V161
p63
sg9
VSentret
p64
sg11
VG,S,C,
p65
sg13
VGrass
p66
sg15
g16
sg17
g28
sg19
V40
p67
sbag1
(g2
g3
Ntp68
Rp69
(dp70
g7
V163
p71
sg9
VHoothoot
p72
sg11
VG,S,
p73
sg13
VGrass
p74
sg15
g16
sg17
g18
sg19
V85
p75
sbag1
(g2
g3
Ntp76
Rp77
(dp78
g7
V163
p79
sg9
VHoothoot
p80
sg11
g26
sg13
VGrass
p81
sg15
g16
sg17
g28
sg19
V55
p82
sbag1
(g2
g3
Ntp83
Rp84
(dp85
g7
V187
p86
sg9
VHoppip
p87
sg11
g26
sg13
VGrass
p88
sg15
g28
sg17
g28
sg19
V5
p89
sbag1
(g2
g3
Ntp90
Rp91
(dp92
g7
V021
p93
sg9
VSpearow
p94
sg11
VG,S,
p95
sg13
VHeadbutt
p96
sg15
V10
p97
sg17
g97
sg19
V80
p98
sbag1
(g2
g3
Ntp99
Rp100
(dp101
g7
V102
p102
sg9
VExeggcute
p103
sg11
g26
sg13
VHeadbutt
p104
sg15
V10
p105
sg17
g105
sg19
V20
p106
sbag1
(g2
g3
Ntp107
Rp108
(dp109
g7
V163
p110
sg9
VHoothoot
p111
sg11
g26
sg13
VHeadbutt
p112
sg15
V10
p113
sg17
g113
sg19
V50
p114
sbag1
(g2
g3
Ntp115
Rp116
(dp117
g7
V165
p118
sg9
VLedyba
p119
sg11
g26
sg13
VHeadbutt
p120
sg15
V10
p121
sg17
g121
sg19
V15
p122
sbag1
(g2
g3
Ntp123
Rp124
(dp125
g7
V167
p126
sg9
VSpinarak
p127
sg11
g26
sg13
VHeadbutt
p128
sg15
V10
p129
sg17
g129
sg19
V15
p130
sbag1
(g2
g3
Ntp131
Rp132
(dp133
g7
V190
p134
sg9
VAipom
p135
sg11
VG,S,
p136
sg13
VHeadbutt
p137
sg15
V10
p138
sg17
g138
sg19
V20
p139
sbag1
(g2
g3
Ntp140
Rp141
(dp142
g7
V021
p143
sg9
VSpearow
p144
sg11
VG,S,
p145
sg13
VHeadbutt
p146
sg15
V10
p147
sg17
g147
sg19
V50
p148
sbag1
(g2
g3
Ntp149
Rp150
(dp151
g7
V102
p152
sg9
VExeggcute
p153
sg11
g26
sg13
VHeadbutt
p154
sg15
V10
p155
sg17
g155
sg19
V20
p156
sbag1
(g2
g3
Ntp157
Rp158
(dp159
g7
V163
p160
sg9
VHoothoot
p161
sg11
g26
sg13
VHeadbutt
p162
sg15
V10
p163
sg17
g163
sg19
V50
p164
sbag1
(g2
g3
Ntp165
Rp166
(dp167
g7
V190
p168
sg9
VAipom
p169
sg11
VG,S,
p170
sg13
VHeadbutt
p171
sg15
V10
p172
sg17
g172
sg19
V20
p173
sbag1
(g2
g3
Ntp174
Rp175
(dp176
g7
V204
p177
sg9
VPineco
p178
sg11
g26
sg13
VHeadbutt
p179
sg15
V10
p180
sg17
g180
sg19
V30
p181
sbag1
(g2
g3
Ntp182
Rp183
(dp184
g7
V214
p185
sg9
VHeracross
p186
sg11
VG,S,
p187
sg13
VHeadbutt
p188
sg15
V10
p189
sg17
g189
sg19
V30
p190
sbag1
(g2
g3
Ntp191
Rp192
(dp193
g7
V016
p194
sg9
VPidgey
p195
sg11
VHG,SS,
p196
sg13
VGrass
p197
sg15
g16
sg17
g18
sg19
V55
p198
sbag1
(g2
g3
Ntp199
Rp200
(dp201
g7
V019
p202
sg9
VRattata
p203
sg11
VHG,SS,
p204
sg13
VGrass
p205
sg15
g16
sg17
g18
sg19
V15
p206
sbag1
(g2
g3
Ntp207
Rp208
(dp209
g7
V161
p210
sg9
VSentret
p211
sg11
VHG,SS,
p212
sg13
VGrass
p213
sg15
g16
sg17
g18
sg19
V40
p214
sbag1
(g2
g3
Ntp215
Rp216
(dp217
g7
V163
p218
sg9
VHoothoot
p219
sg11
VHG,SS,
p220
sg13
VGrass
p221
sg15
g16
sg17
g18
sg19
V85
p222
sbag1
(g2
g3
Ntp223
Rp224
(dp225
g7
V102
p226
sg9
VExeggcute
p227
sg11
VHG,SS,
p228
sg13
VHeadbutt
p229
sg15
g16
sg17
V5
p230
sg19
V20
p231
sbag1
(g2
g3
Ntp232
Rp233
(dp234
g7
V163
p235
sg9
VHoothoot
p236
sg11
VHG,SS,
p237
sg13
VHeadbutt
p238
sg15
g16
sg17
g230
sg19
V50
p239
sbag1
(g2
g3
Ntp240
Rp241
(dp242
g7
V165
p243
sg9
VLedyba
p244
sg11
VSS,
p245
sg13
VHeadbutt
p246
sg15
g18
sg17
g230
sg19
V20
p247
sbag1
(g2
g3
Ntp248
Rp249
(dp250
g7
V167
p251
sg9
VSpinarak
p252
sg11
VHG,
p253
sg13
VHeadbutt
p254
sg15
g18
sg17
g230
sg19
V20
p255
sbag1
(g2
g3
Ntp256
Rp257
(dp258
g7
V204
p259
sg9
VPineco
p260
sg11
VHG,SS,
p261
sg13
VHeadbutt
p262
sg15
g16
sg17
g28
sg19
V10
p263
sbag1
(g2
g3
Ntp264
Rp265
(dp266
g7
V311
p267
sg9
VPlusle
p268
sg11
VHG,SS,
p269
sg13
VHoenn
p270
sg15
g16
sg17
g28
sg19
V20
p271
sbag1
(g2
g3
Ntp272
Rp273
(dp274
g7
V312
p275
sg9
VMinun
p276
sg11
VHG,SS,
p277
sg13
VHoenn
p278
sg15
g16
sg17
g28
sg19
V20
p279
sbag1
(g2
g3
Ntp280
Rp281
(dp282
g7
V403
p283
sg9
VShinx
p284
sg11
VHG,SS,
p285
sg13
VSinnoh
p286
sg15
g16
sg17
g28
sg19
V40
p287
sba.