(lp0
ccopy_reg
_reconstructor
p1
(c__main__
WildPokemon
p2
c__builtin__
object
p3
Ntp4
Rp5
(dp6
VpDexNo
p7
V072
p8
sVpSpecies
p9
VTentacool
p10
sVpGames
p11
VG,C,
p12
sVpArea
p13
VSurf
p14
sVpMinLevel
p15
V15
p16
sVpMaxLevel
p17
V24
p18
sVpRate
p19
V60
p20
sbag1
(g2
g3
Ntp21
Rp22
(dp23
g7
V072
p24
sg9
VTentacool
p25
sg11
VS,
p26
sg13
VSurf
p27
sg15
V15
p28
sg17
V24
p29
sg19
V70
p30
sbag1
(g2
g3
Ntp31
Rp32
(dp33
g7
V073
p34
sg9
VTentacruel
p35
sg11
VG,S,C,
p36
sg13
VSurf
p37
sg15
V20
p38
sg17
V24
p39
sg19
V30
p40
sbag1
(g2
g3
Ntp41
Rp42
(dp43
g7
V226
p44
sg9
VMantine
p45
sg11
VG,C,
p46
sg13
VSurf
p47
sg15
V20
p48
sg17
V24
p49
sg19
V10
p50
sbag1
(g2
g3
Ntp51
Rp52
(dp53
g7
V072
p54
sg9
VTentacool
p55
sg11
VG,S,C,
p56
sg13
VFish Old
p57
sg15
V10
p58
sg17
g58
sg19
V15
p59
sbag1
(g2
g3
Ntp60
Rp61
(dp62
g7
V129
p63
sg9
VMagikarp
p64
sg11
VG,S,C,
p65
sg13
VFish Old
p66
sg15
V10
p67
sg17
g67
sg19
V85
p68
sbag1
(g2
g3
Ntp69
Rp70
(dp71
g7
V072
p72
sg9
VTentacool
p73
sg11
VG,S,C,
p74
sg13
VFish Good
p75
sg15
V20
p76
sg17
g76
sg19
V35
p77
sbag1
(g2
g3
Ntp78
Rp79
(dp80
g7
V090
p81
sg9
VShellder
p82
sg11
VG,S,C,
p83
sg13
VFish Good
p84
sg15
V20
p85
sg17
g85
sg19
V10
p86
sbag1
(g2
g3
Ntp87
Rp88
(dp89
g7
V129
p90
sg9
VMagikarp
p91
sg11
VG,S,C,
p92
sg13
VFish Good
p93
sg15
V20
p94
sg17
g94
sg19
V35
p95
sbag1
(g2
g3
Ntp96
Rp97
(dp98
g7
V170
p99
sg9
VChinchou
p100
sg11
VG,S,C,
p101
sg13
VFish Good
p102
sg15
V20
p103
sg17
g103
sg19
V20
p104
sbag1
(g2
g3
Ntp105
Rp106
(dp107
g7
V073
p108
sg9
VTentacruel
p109
sg11
VG,S,C,
p110
sg13
VFish Super
p111
sg15
V40
p112
sg17
g112
sg19
V20
p113
sbag1
(g2
g3
Ntp114
Rp115
(dp116
g7
V090
p117
sg9
VShellder
p118
sg11
VG,S,C,
p119
sg13
VFish Super
p120
sg15
V40
p121
sg17
g121
sg19
V30
p122
sbag1
(g2
g3
Ntp123
Rp124
(dp125
g7
V170
p126
sg9
VChinchou
p127
sg11
VG,S,C,
p128
sg13
VFish Super
p129
sg15
V40
p130
sg17
g130
sg19
V40
p131
sbag1
(g2
g3
Ntp132
Rp133
(dp134
g7
V171
p135
sg9
VLanturn
p136
sg11
VG,S,C,
p137
sg13
VFish Super
p138
sg15
V40
p139
sg17
g139
sg19
V10
p140
sbag1
(g2
g3
Ntp141
Rp142
(dp143
g7
V072
p144
sg9
VTentacool
p145
sg11
VHG,SS,
p146
sg13
VSurf
p147
sg15
V15
p148
sg17
V25
p149
sg19
V60
p150
sbag1
(g2
g3
Ntp151
Rp152
(dp153
g7
V073
p154
sg9
VTentacruel
p155
sg11
VHG,
p156
sg13
VSurf
p157
sg15
V15
p158
sg17
V25
p159
sg19
V30
p160
sbag1
(g2
g3
Ntp161
Rp162
(dp163
g7
V073
p164
sg9
VTentacruel
p165
sg11
VSS,
p166
sg13
VSurf
p167
sg15
V15
p168
sg17
V25
p169
sg19
V40
p170
sbag1
(g2
g3
Ntp171
Rp172
(dp173
g7
V226
p174
sg9
VMantine
p175
sg11
g156
sg13
VSurf
p176
sg15
V15
p177
sg17
V25
p178
sg19
V10
p179
sbag1
(g2
g3
Ntp180
Rp181
(dp182
g7
V072
p183
sg9
VTentacool
p184
sg11
VHG,SS,
p185
sg13
VFish Old
p186
sg15
V10
p187
sg17
g187
sg19
V15
p188
sbag1
(g2
g3
Ntp189
Rp190
(dp191
g7
V129
p192
sg9
VMagikarp
p193
sg11
VHG,SS,
p194
sg13
VFish Old
p195
sg15
V10
p196
sg17
g196
sg19
V85
p197
sbag1
(g2
g3
Ntp198
Rp199
(dp200
g7
V072
p201
sg9
VTentacool
p202
sg11
VHG,SS,
p203
sg13
VFish Good
p204
sg15
V20
p205
sg17
g205
sg19
V30
p206
sbag1
(g2
g3
Ntp207
Rp208
(dp209
g7
V090
p210
sg9
VShellder
p211
sg11
VHG,SS,
p212
sg13
VFish Good
p213
sg15
V20
p214
sg17
g214
sg19
V10
p215
sbag1
(g2
g3
Ntp216
Rp217
(dp218
g7
V129
p219
sg9
VMagikarp
p220
sg11
VHG,SS,
p221
sg13
VFish Good
p222
sg15
V20
p223
sg17
g223
sg19
V40
p224
sbag1
(g2
g3
Ntp225
Rp226
(dp227
g7
V170
p228
sg9
VChinchou
p229
sg11
VHG,SS,
p230
sg13
VFish Good
p231
sg15
V20
p232
sg17
g232
sg19
V20
p233
sbag1
(g2
g3
Ntp234
Rp235
(dp236
g7
V073
p237
sg9
VTentacruel
p238
sg11
VHG,SS,
p239
sg13
VFish Super
p240
sg15
V40
p241
sg17
g241
sg19
V20
p242
sbag1
(g2
g3
Ntp243
Rp244
(dp245
g7
V090
p246
sg9
VShellder
p247
sg11
VHG,SS,
p248
sg13
VFish Super
p249
sg15
V40
p250
sg17
g250
sg19
V30
p251
sbag1
(g2
g3
Ntp252
Rp253
(dp254
g7
V170
p255
sg9
VChinchou
p256
sg11
VHG,SS,
p257
sg13
VFish Super
p258
sg15
V40
p259
sg17
g259
sg19
V40
p260
sbag1
(g2
g3
Ntp261
Rp262
(dp263
g7
V171
p264
sg9
VLanturn
p265
sg11
VHG,SS,
p266
sg13
VFish Super
p267
sg15
V40
p268
sg17
g268
sg19
V10
p269
sba.