(lp0
ccopy_reg
_reconstructor
p1
(c__main__
WildPokemon
p2
c__builtin__
object
p3
Ntp4
Rp5
(dp6
VpDexNo
p7
V010
p8
sVpSpecies
p9
VCaterpie
p10
sVpGames
p11
VG,
p12
sVpArea
p13
VGrass
p14
sVpMinLevel
p15
V3
p16
sVpMaxLevel
p17
V4
p18
sVpRate
p19
V50
p20
sbag1
(g2
g3
Ntp21
Rp22
(dp23
g7
V010
p24
sg9
VCaterpie
p25
sg11
VC,
p26
sg13
VGrass
p27
sg15
g16
sg17
g18
sg19
V50
p28
sbag1
(g2
g3
Ntp29
Rp30
(dp31
g7
V011
p32
sg9
VMetapod
p33
sg11
g12
sg13
VGrass
p34
sg15
g18
sg17
g18
sg19
V10
p35
sbag1
(g2
g3
Ntp36
Rp37
(dp38
g7
V011
p39
sg9
VMetapod
p40
sg11
g12
sg13
VGrass
p41
sg15
g18
sg17
V5
p42
sg19
V15
p43
sbag1
(g2
g3
Ntp44
Rp45
(dp46
g7
V013
p47
sg9
VWeedle
p48
sg11
VS,
p49
sg13
VGrass
p50
sg15
g16
sg17
g18
sg19
V50
p51
sbag1
(g2
g3
Ntp52
Rp53
(dp54
g7
V013
p55
sg9
VWeedle
p56
sg11
g26
sg13
VGrass
p57
sg15
g16
sg17
g16
sg19
V5
p58
sbag1
(g2
g3
Ntp59
Rp60
(dp61
g7
V014
p62
sg9
VKakuna
p63
sg11
g49
sg13
VGrass
p64
sg15
g18
sg17
g18
sg19
V10
p65
sbag1
(g2
g3
Ntp66
Rp67
(dp68
g7
V014
p69
sg9
VKakuna
p70
sg11
g49
sg13
VGrass
p71
sg15
g18
sg17
g42
sg19
V15
p72
sbag1
(g2
g3
Ntp73
Rp74
(dp75
g7
V016
p76
sg9
VPidgey
p77
sg11
g12
sg13
VGrass
p78
sg15
V2
p79
sg17
g18
sg19
V50
p80
sbag1
(g2
g3
Ntp81
Rp82
(dp83
g7
V016
p84
sg9
VPidgey
p85
sg11
VS,C,
p86
sg13
VGrass
p87
sg15
g18
sg17
g18
sg19
V10
p88
sbag1
(g2
g3
Ntp89
Rp90
(dp91
g7
V016
p92
sg9
VPidgey
p93
sg11
g49
sg13
VGrass
p94
sg15
g79
sg17
g18
sg19
V50
p95
sbag1
(g2
g3
Ntp96
Rp97
(dp98
g7
V016
p99
sg9
VPidgey
p100
sg11
g26
sg13
VGrass
p101
sg15
g16
sg17
g18
sg19
V40
p102
sbag1
(g2
g3
Ntp103
Rp104
(dp105
g7
V019
p106
sg9
VRattata
p107
sg11
VG,S,
p108
sg13
VGrass
p109
sg15
g16
sg17
g18
sg19
V40
p110
sbag1
(g2
g3
Ntp111
Rp112
(dp113
g7
V041
p114
sg9
VZubat
p115
sg11
g26
sg13
VGrass
p116
sg15
g16
sg17
g16
sg19
V5
p117
sbag1
(g2
g3
Ntp118
Rp119
(dp120
g7
V060
p121
sg9
VPoliwag
p122
sg11
g26
sg13
VGrass
p123
sg15
g18
sg17
g18
sg19
V20
p124
sbag1
(g2
g3
Ntp125
Rp126
(dp127
g7
V163
p128
sg9
VHoothoot
p129
sg11
g12
sg13
VGrass
p130
sg15
g18
sg17
g18
sg19
V30
p131
sbag1
(g2
g3
Ntp132
Rp133
(dp134
g7
V163
p135
sg9
VHoothoot
p136
sg11
g49
sg13
VGrass
p137
sg15
g18
sg17
g18
sg19
V60
p138
sbag1
(g2
g3
Ntp139
Rp140
(dp141
g7
V163
p142
sg9
VHoothoot
p143
sg11
g26
sg13
VGrass
p144
sg15
g16
sg17
g18
sg19
V45
p145
sbag1
(g2
g3
Ntp146
Rp147
(dp148
g7
V165
p149
sg9
VLedyba
p150
sg11
VS,C,
p151
sg13
VGrass
p152
sg15
g16
sg17
g16
sg19
V30
p153
sbag1
(g2
g3
Ntp154
Rp155
(dp156
g7
V167
p157
sg9
VSpinarak
p158
sg11
VG,C,
p159
sg13
VGrass
p160
sg15
g16
sg17
g16
sg19
V30
p161
sbag1
(g2
g3
Ntp162
Rp163
(dp164
g7
V187
p165
sg9
VHoppip
p166
sg11
g26
sg13
VGrass
p167
sg15
g18
sg17
g18
sg19
V5
p168
sbag1
(g2
g3
Ntp169
Rp170
(dp171
g7
V060
p172
sg9
VPoliwag
p173
sg11
VG,S,C,
p174
sg13
VSurf
p175
sg15
V15
p176
sg17
V24
p177
sg19
V90
p178
sbag1
(g2
g3
Ntp179
Rp180
(dp181
g7
V061
p182
sg9
VPoliwhirl
p183
sg11
VG,S,C,
p184
sg13
VSurf
p185
sg15
V20
p186
sg17
V24
p187
sg19
V10
p188
sbag1
(g2
g3
Ntp189
Rp190
(dp191
g7
V060
p192
sg9
VPoliwag
p193
sg11
VG,S,C,
p194
sg13
VFish Old
p195
sg15
V10
p196
sg17
g196
sg19
V15
p197
sbag1
(g2
g3
Ntp198
Rp199
(dp200
g7
V129
p201
sg9
VMagikarp
p202
sg11
VG,S,C,
p203
sg13
VFish Old
p204
sg15
V10
p205
sg17
g205
sg19
V85
p206
sbag1
(g2
g3
Ntp207
Rp208
(dp209
g7
V060
p210
sg9
VPoliwag
p211
sg11
VG,S,C,
p212
sg13
VFish Good
p213
sg15
V20
p214
sg17
g214
sg19
V65
p215
sbag1
(g2
g3
Ntp216
Rp217
(dp218
g7
V129
p219
sg9
VMagikarp
p220
sg11
VG,S,C,
p221
sg13
VFish Good
p222
sg15
V20
p223
sg17
g223
sg19
V35
p224
sbag1
(g2
g3
Ntp225
Rp226
(dp227
g7
V060
p228
sg9
VPoliwag
p229
sg11
VG,S,C,
p230
sg13
VFish Super
p231
sg15
V40
p232
sg17
g232
sg19
V80
p233
sbag1
(g2
g3
Ntp234
Rp235
(dp236
g7
V129
p237
sg9
VMagikarp
p238
sg11
VG,S,C,
p239
sg13
VFish Super
p240
sg15
V40
p241
sg17
g241
sg19
V20
p242
sbag1
(g2
g3
Ntp243
Rp244
(dp245
g7
V021
p246
sg9
VSpearow
p247
sg11
VG,S,
p248
sg13
VHeadbutt
p249
sg15
V10
p250
sg17
g250
sg19
V80
p251
sbag1
(g2
g3
Ntp252
Rp253
(dp254
g7
V102
p255
sg9
VExeggcute
p256
sg11
g26
sg13
VHeadbutt
p257
sg15
V10
p258
sg17
g258
sg19
V20
p259
sbag1
(g2
g3
Ntp260
Rp261
(dp262
g7
V163
p263
sg9
VHoothoot
p264
sg11
g26
sg13
VHeadbutt
p265
sg15
V10
p266
sg17
g266
sg19
V50
p267
sbag1
(g2
g3
Ntp268
Rp269
(dp270
g7
V165
p271
sg9
VLedyba
p272
sg11
g26
sg13
VHeadbutt
p273
sg15
V10
p274
sg17
g274
sg19
V15
p275
sbag1
(g2
g3
Ntp276
Rp277
(dp278
g7
V167
p279
sg9
VSpinarak
p280
sg11
g26
sg13
VHeadbutt
p281
sg15
V10
p282
sg17
g282
sg19
V15
p283
sbag1
(g2
g3
Ntp284
Rp285
(dp286
g7
V190
p287
sg9
VAipom
p288
sg11
VG,S,
p289
sg13
VHeadbutt
p290
sg15
V10
p291
sg17
g291
sg19
V20
p292
sbag1
(g2
g3
Ntp293
Rp294
(dp295
g7
V021
p296
sg9
VSpearow
p297
sg11
VG,S,
p298
sg13
VHeadbutt
p299
sg15
V10
p300
sg17
g300
sg19
V50
p301
sbag1
(g2
g3
Ntp302
Rp303
(dp304
g7
V102
p305
sg9
VExeggcute
p306
sg11
g26
sg13
VHeadbutt
p307
sg15
V10
p308
sg17
g308
sg19
V20
p309
sbag1
(g2
g3
Ntp310
Rp311
(dp312
g7
V163
p313
sg9
VHoothoot
p314
sg11
g26
sg13
VHeadbutt
p315
sg15
V10
p316
sg17
g316
sg19
V50
p317
sbag1
(g2
g3
Ntp318
Rp319
(dp320
g7
V190
p321
sg9
VAipom
p322
sg11
VG,S,
p323
sg13
VHeadbutt
p324
sg15
V10
p325
sg17
g325
sg19
V20
p326
sbag1
(g2
g3
Ntp327
Rp328
(dp329
g7
V204
p330
sg9
VPineco
p331
sg11
g26
sg13
VHeadbutt
p332
sg15
V10
p333
sg17
g333
sg19
V30
p334
sbag1
(g2
g3
Ntp335
Rp336
(dp337
g7
V214
p338
sg9
VHeracross
p339
sg11
VG,S,
p340
sg13
VHeadbutt
p341
sg15
V10
p342
sg17
g342
sg19
V30
p343
sbag1
(g2
g3
Ntp344
Rp345
(dp346
g7
V010
p347
sg9
VCaterpie
p348
sg11
VHG,
p349
sg13
VGrass
p350
sg15
g16
sg17
g18
sg19
V50
p351
sbag1
(g2
g3
Ntp352
Rp353
(dp354
g7
V011
p355
sg9
VMetapod
p356
sg11
g349
sg13
VGrass
p357
sg15
g18
sg17
g18
sg19
V15
p358
sbag1
(g2
g3
Ntp359
Rp360
(dp361
g7
V013
p362
sg9
VWeedle
p363
sg11
VSS,
p364
sg13
VGrass
p365
sg15
g16
sg17
g18
sg19
V50
p366
sbag1
(g2
g3
Ntp367
Rp368
(dp369
g7
V014
p370
sg9
VKakuna
p371
sg11
g364
sg13
VGrass
p372
sg15
g18
sg17
g18
sg19
V15
p373
sbag1
(g2
g3
Ntp374
Rp375
(dp376
g7
V016
p377
sg9
VPidgey
p378
sg11
g349
sg13
VGrass
p379
sg15
g79
sg17
g18
sg19
V50
p380
sbag1
(g2
g3
Ntp381
Rp382
(dp383
g7
V016
p384
sg9
VPidgey
p385
sg11
g364
sg13
VGrass
p386
sg15
g16
sg17
g18
sg19
V50
p387
sbag1
(g2
g3
Ntp388
Rp389
(dp390
g7
V019
p391
sg9
VRattata
p392
sg11
VHG,SS,
p393
sg13
VGrass
p394
sg15
g16
sg17
g18
sg19
V40
p395
sbag1
(g2
g3
Ntp396
Rp397
(dp398
g7
V163
p399
sg9
VHoothoot
p400
sg11
g349
sg13
VGrass
p401
sg15
g18
sg17
g18
sg19
V30
p402
sbag1
(g2
g3
Ntp403
Rp404
(dp405
g7
V163
p406
sg9
VHoothoot
p407
sg11
g364
sg13
VGrass
p408
sg15
g16
sg17
g18
sg19
V60
p409
sbag1
(g2
g3
Ntp410
Rp411
(dp412
g7
V165
p413
sg9
VLedyba
p414
sg11
g364
sg13
VGrass
p415
sg15
g16
sg17
g16
sg19
V30
p416
sbag1
(g2
g3
Ntp417
Rp418
(dp419
g7
V167
p420
sg9
VSpinarak
p421
sg11
g349
sg13
VGrass
p422
sg15
g79
sg17
g79
sg19
V30
p423
sbag1
(g2
g3
Ntp424
Rp425
(dp426
g7
V060
p427
sg9
VPoliwag
p428
sg11
VHG,SS,
p429
sg13
VSurf
p430
sg15
V10
p431
sg17
V25
p432
sg19
V90
p433
sbag1
(g2
g3
Ntp434
Rp435
(dp436
g7
V061
p437
sg9
VPoliwhirl
p438
sg11
VHG,SS,
p439
sg13
VSurf
p440
sg15
V15
p441
sg17
V32
p442
sg19
V10
p443
sbag1
(g2
g3
Ntp444
Rp445
(dp446
g7
V060
p447
sg9
VPoliwag
p448
sg11
VHG,SS,
p449
sg13
VFish Old
p450
sg15
V10
p451
sg17
g451
sg19
V5
p452
sbag1
(g2
g3
Ntp453
Rp454
(dp455
g7
V129
p456
sg9
VMagikarp
p457
sg11
VHG,SS,
p458
sg13
VFish Old
p459
sg15
V10
p460
sg17
g460
sg19
V95
p461
sbag1
(g2
g3
Ntp462
Rp463
(dp464
g7
V060
p465
sg9
VPoliwag
p466
sg11
VHG,SS,
p467
sg13
VFish Good
p468
sg15
V20
p469
sg17
g469
sg19
V40
p470
sbag1
(g2
g3
Ntp471
Rp472
(dp473
g7
V129
p474
sg9
VMagikarp
p475
sg11
VHG,SS,
p476
sg13
VFish Good
p477
sg15
V20
p478
sg17
g478
sg19
V60
p479
sbag1
(g2
g3
Ntp480
Rp481
(dp482
g7
V060
p483
sg9
VPoliwag
p484
sg11
VHG,SS,
p485
sg13
VFish Super
p486
sg15
V40
p487
sg17
g487
sg19
V90
p488
sbag1
(g2
g3
Ntp489
Rp490
(dp491
g7
V129
p492
sg9
VMagikarp
p493
sg11
VHG,SS,
p494
sg13
VFish Super
p495
sg15
V40
p496
sg17
g496
sg19
V10
p497
sbag1
(g2
g3
Ntp498
Rp499
(dp500
g7
V102
p501
sg9
VExeggcute
p502
sg11
VHG,SS,
p503
sg13
VHeadbutt
p504
sg15
g79
sg17
g16
sg19
V20
p505
sbag1
(g2
g3
Ntp506
Rp507
(dp508
g7
V163
p509
sg9
VHoothoot
p510
sg11
VHG,SS,
p511
sg13
VHeadbutt
p512
sg15
g79
sg17
g16
sg19
V50
p513
sbag1
(g2
g3
Ntp514
Rp515
(dp516
g7
V204
p517
sg9
VPineco
p518
sg11
VHG,SS,
p519
sg13
VHeadbutt
p520
sg15
g79
sg17
g16
sg19
V30
p521
sbag1
(g2
g3
Ntp522
Rp523
(dp524
g7
V102
p525
sg9
VExeggcute
p526
sg11
VHG,SS,
p527
sg13
VHeadbutt
p528
sg15
g18
sg17
g42
sg19
V20
p529
sbag1
(g2
g3
Ntp530
Rp531
(dp532
g7
V163
p533
sg9
VHoothoot
p534
sg11
VHG,SS,
p535
sg13
VHeadbutt
p536
sg15
g18
sg17
g42
sg19
V50
p537
sbag1
(g2
g3
Ntp538
Rp539
(dp540
g7
V165
p541
sg9
VLedyba
p542
sg11
g364
sg13
VHeadbutt
p543
sg15
g18
sg17
g42
sg19
V30
p544
sbag1
(g2
g3
Ntp545
Rp546
(dp547
g7
V167
p548
sg9
VSpinarak
p549
sg11
g349
sg13
VHeadbutt
p550
sg15
g18
sg17
g42
sg19
V30
p551
sbag1
(g2
g3
Ntp552
Rp553
(dp554
g7
V264
p555
sg9
VLinoone
p556
sg11
VHG,SS,
p557
sg13
VHoenn
p558
sg15
g18
sg17
g18
sg19
V20
p559
sbag1
(g2
g3
Ntp560
Rp561
(dp562
g7
V293
p563
sg9
VWhismur
p564
sg11
VHG,SS,
p565
sg13
VHoenn
p566
sg15
g79
sg17
g16
sg19
V20
p567
sbag1
(g2
g3
Ntp568
Rp569
(dp570
g7
V399
p571
sg9
VBidoof
p572
sg11
VHG,SS,
p573
sg13
VSinnoh
p574
sg15
g18
sg17
g18
sg19
V20
p575
sbag1
(g2
g3
Ntp576
Rp577
(dp578
g7
V418
p579
sg9
VBuizel
p580
sg11
VHG,SS,
p581
sg13
VSinnoh
p582
sg15
g79
sg17
g16
sg19
V20
p583
sba.