(lp0
ccopy_reg
_reconstructor
p1
(c__main__
WildPokemon
p2
c__builtin__
object
p3
Ntp4
Rp5
(dp6
VpDexNo
p7
V016
p8
sVpSpecies
p9
VPidgey
p10
sVpGames
p11
VG,S,
p12
sVpArea
p13
VGrass
p14
sVpMinLevel
p15
V14
p16
sVpMaxLevel
p17
g16
sVpRate
p18
V5
p19
sbag1
(g2
g3
Ntp20
Rp21
(dp22
g7
V016
p23
sg9
VPidgey
p24
sg11
VC,
p25
sg13
VGrass
p26
sg15
V14
p27
sg17
g27
sg18
V30
p28
sbag1
(g2
g3
Ntp29
Rp30
(dp31
g7
V029
p32
sg9
VNidoran\u2640
p33
sg11
VG,S,
p34
sg13
VGrass
p35
sg15
V12
p36
sg17
g36
sg18
V30
p37
sbag1
(g2
g3
Ntp38
Rp39
(dp40
g7
V032
p41
sg9
VNidoran\u2642
p42
sg11
VG,S,
p43
sg13
VGrass
p44
sg15
V12
p45
sg17
g45
sg18
V30
p46
sbag1
(g2
g3
Ntp47
Rp48
(dp49
g7
V039
p50
sg9
VJigglypuff
p51
sg11
g25
sg13
VGrass
p52
sg15
V12
p53
sg17
g53
sg18
V5
p54
sbag1
(g2
g3
Ntp55
Rp56
(dp57
g7
V054
p58
sg9
VPsyduck
p59
sg11
g25
sg13
VGrass
p60
sg15
V13
p61
sg17
g61
sg18
V20
p62
sbag1
(g2
g3
Ntp63
Rp64
(dp65
g7
V058
p66
sg9
VGrowlithe
p67
sg11
g25
sg13
VGrass
p68
sg15
V13
p69
sg17
g69
sg18
V20
p70
sbag1
(g2
g3
Ntp71
Rp72
(dp73
g7
V063
p74
sg9
VAbra
p75
sg11
VG,S,C,
p76
sg13
VGrass
p77
sg15
V10
p78
sg17
g78
sg18
V10
p79
sbag1
(g2
g3
Ntp80
Rp81
(dp82
g7
V096
p83
sg9
VDrowzee
p84
sg11
VG,S,
p85
sg13
VGrass
p86
sg15
V14
p87
sg17
g87
sg18
V20
p88
sbag1
(g2
g3
Ntp89
Rp90
(dp91
g7
V096
p92
sg9
VDrowzee
p93
sg11
g25
sg13
VGrass
p94
sg15
V12
p95
sg17
g95
sg18
V30
p96
sbag1
(g2
g3
Ntp97
Rp98
(dp99
g7
V132
p100
sg9
VDitto
p101
sg11
VG,S,C,
p102
sg13
VGrass
p103
sg15
V10
p104
sg17
g104
sg18
V4
p105
sbag1
(g2
g3
Ntp106
Rp107
(dp108
g7
V163
p109
sg9
VHoothoot
p110
sg11
VG,S,
p111
sg13
VGrass
p112
sg15
V14
p113
sg17
g113
sg18
V5
p114
sbag1
(g2
g3
Ntp115
Rp116
(dp117
g7
V163
p118
sg9
VHoothoot
p119
sg11
g25
sg13
VGrass
p120
sg15
V14
p121
sg17
g121
sg18
V30
p122
sbag1
(g2
g3
Ntp123
Rp124
(dp125
g7
V193
p126
sg9
VYanma
p127
sg11
VG,S,C,
p128
sg13
VGrass
p129
sg15
V12
p130
sg17
g130
sg18
V1
p131
sbag1
(g2
g3
Ntp132
Rp133
(dp134
g7
V209
p135
sg9
VSnubbull
p136
sg11
g25
sg13
VGrass
p137
sg15
V12
p138
sg17
g138
sg18
V30
p139
sbag1
(g2
g3
Ntp140
Rp141
(dp142
g7
V054
p143
sg9
VPsyduck
p144
sg11
VG,S,C,
p145
sg13
VSurf
p146
sg15
V15
p147
sg17
V24
p148
sg18
V90
p149
sbag1
(g2
g3
Ntp150
Rp151
(dp152
g7
V055
p153
sg9
VGolduck
p154
sg11
VG,S,C,
p155
sg13
VSurf
p156
sg15
V20
p157
sg17
V24
p158
sg18
V10
p159
sbag1
(g2
g3
Ntp160
Rp161
(dp162
g7
V060
p163
sg9
VPoliwag
p164
sg11
VG,S,C,
p165
sg13
VFish Old
p166
sg15
V10
p167
sg17
g167
sg18
V15
p168
sbag1
(g2
g3
Ntp169
Rp170
(dp171
g7
V129
p172
sg9
VMagikarp
p173
sg11
VG,S,C,
p174
sg13
VFish Old
p175
sg15
V10
p176
sg17
g176
sg18
V85
p177
sbag1
(g2
g3
Ntp178
Rp179
(dp180
g7
V060
p181
sg9
VPoliwag
p182
sg11
VG,S,C,
p183
sg13
VFish Good
p184
sg15
V20
p185
sg17
g185
sg18
V65
p186
sbag1
(g2
g3
Ntp187
Rp188
(dp189
g7
V129
p190
sg9
VMagikarp
p191
sg11
VG,S,C,
p192
sg13
VFish Good
p193
sg15
V20
p194
sg17
g194
sg18
V35
p195
sbag1
(g2
g3
Ntp196
Rp197
(dp198
g7
V060
p199
sg9
VPoliwag
p200
sg11
VG,S,C,
p201
sg13
VFish Super
p202
sg15
V40
p203
sg17
g203
sg18
V80
p204
sbag1
(g2
g3
Ntp205
Rp206
(dp207
g7
V129
p208
sg9
VMagikarp
p209
sg11
VG,S,C,
p210
sg13
VFish Super
p211
sg15
V40
p212
sg17
g212
sg18
V20
p213
sbag1
(g2
g3
Ntp214
Rp215
(dp216
g7
V010
p217
sg9
VCaterpie
p218
sg11
VG,
p219
sg13
VHeadbutt
p220
sg15
V10
p221
sg17
g221
sg18
V65
p222
sbag1
(g2
g3
Ntp223
Rp224
(dp225
g7
V011
p226
sg9
VMetapod
p227
sg11
g219
sg13
VHeadbutt
p228
sg15
V10
p229
sg17
g229
sg18
V15
p230
sbag1
(g2
g3
Ntp231
Rp232
(dp233
g7
V012
p234
sg9
VButterfree
p235
sg11
g219
sg13
VHeadbutt
p236
sg15
V10
p237
sg17
g237
sg18
V5
p238
sbag1
(g2
g3
Ntp239
Rp240
(dp241
g7
V013
p242
sg9
VWeedle
p243
sg11
VS,
p244
sg13
VHeadbutt
p245
sg15
V10
p246
sg17
g246
sg18
V65
p247
sbag1
(g2
g3
Ntp248
Rp249
(dp250
g7
V014
p251
sg9
VKakuna
p252
sg11
g244
sg13
VHeadbutt
p253
sg15
V10
p254
sg17
g254
sg18
V15
p255
sbag1
(g2
g3
Ntp256
Rp257
(dp258
g7
V015
p259
sg9
VBeedrill
p260
sg11
g244
sg13
VHeadbutt
p261
sg15
V10
p262
sg17
g262
sg18
V5
p263
sbag1
(g2
g3
Ntp264
Rp265
(dp266
g7
V102
p267
sg9
VExeggcute
p268
sg11
VG,S,
p269
sg13
VHeadbutt
p270
sg15
V10
p271
sg17
g271
sg18
V15
p272
sbag1
(g2
g3
Ntp273
Rp274
(dp275
g7
V102
p276
sg9
VExeggcute
p277
sg11
g25
sg13
VHeadbutt
p278
sg15
V10
p279
sg17
g279
sg18
V20
p280
sbag1
(g2
g3
Ntp281
Rp282
(dp283
g7
V163
p284
sg9
VHoothoot
p285
sg11
g25
sg13
VHeadbutt
p286
sg15
V10
p287
sg17
g287
sg18
V50
p288
sbag1
(g2
g3
Ntp289
Rp290
(dp291
g7
V165
p292
sg9
VLedyba
p293
sg11
g25
sg13
VHeadbutt
p294
sg15
V10
p295
sg17
g295
sg18
V15
p296
sbag1
(g2
g3
Ntp297
Rp298
(dp299
g7
V167
p300
sg9
VSpinarak
p301
sg11
g25
sg13
VHeadbutt
p302
sg15
V10
p303
sg17
g303
sg18
V15
p304
sbag1
(g2
g3
Ntp305
Rp306
(dp307
g7
V010
p308
sg9
VCaterpie
p309
sg11
g219
sg13
VHeadbutt
p310
sg15
V10
p311
sg17
g311
sg18
V50
p312
sbag1
(g2
g3
Ntp313
Rp314
(dp315
g7
V012
p316
sg9
VButterfree
p317
sg11
g219
sg13
VHeadbutt
p318
sg15
V10
p319
sg17
g319
sg18
V5
p320
sbag1
(g2
g3
Ntp321
Rp322
(dp323
g7
V013
p324
sg9
VWeedle
p325
sg11
g244
sg13
VHeadbutt
p326
sg15
V10
p327
sg17
g327
sg18
V50
p328
sbag1
(g2
g3
Ntp329
Rp330
(dp331
g7
V015
p332
sg9
VBeedrill
p333
sg11
g244
sg13
VHeadbutt
p334
sg15
V10
p335
sg17
g335
sg18
V5
p336
sbag1
(g2
g3
Ntp337
Rp338
(dp339
g7
V102
p340
sg9
VExeggcute
p341
sg11
VG,S,
p342
sg13
VHeadbutt
p343
sg15
V10
p344
sg17
g344
sg18
V15
p345
sbag1
(g2
g3
Ntp346
Rp347
(dp348
g7
V102
p349
sg9
VExeggcute
p350
sg11
g25
sg13
VHeadbutt
p351
sg15
V10
p352
sg17
g352
sg18
V20
p353
sbag1
(g2
g3
Ntp354
Rp355
(dp356
g7
V163
p357
sg9
VHoothoot
p358
sg11
g25
sg13
VHeadbutt
p359
sg15
V10
p360
sg17
g360
sg18
V50
p361
sbag1
(g2
g3
Ntp362
Rp363
(dp364
g7
V204
p365
sg9
VPineco
p366
sg11
VG,S,C,
p367
sg13
VHeadbutt
p368
sg15
V10
p369
sg17
g369
sg18
V30
p370
sbag1
(g2
g3
Ntp371
Rp372
(dp373
g7
V016
p374
sg9
VPidgey
p375
sg11
VG,S,C,
p376
sg13
VSwarm
p377
sg15
V14
p378
sg17
g378
sg18
V5
p379
sbag1
(g2
g3
Ntp380
Rp381
(dp382
g7
V029
p383
sg9
VNidoran\u2640
p384
sg11
VG,S,C,
p385
sg13
VSwarm
p386
sg15
V12
p387
sg17
g387
sg18
V30
p388
sbag1
(g2
g3
Ntp389
Rp390
(dp391
g7
V032
p392
sg9
VNidoran\u2642
p393
sg11
VG,S,C,
p394
sg13
VSwarm
p395
sg15
V12
p396
sg17
g396
sg18
V30
p397
sbag1
(g2
g3
Ntp398
Rp399
(dp400
g7
V132
p401
sg9
VDitto
p402
sg11
VG,S,C,
p403
sg13
VSwarm
p404
sg15
V10
p405
sg17
g405
sg18
V5
p406
sbag1
(g2
g3
Ntp407
Rp408
(dp409
g7
V163
p410
sg9
VHoothoot
p411
sg11
VG,S,C,
p412
sg13
VSwarm
p413
sg15
V14
p414
sg17
g414
sg18
V5
p415
sbag1
(g2
g3
Ntp416
Rp417
(dp418
g7
V193
p419
sg9
VYanma
p420
sg11
VG,S,C,
p421
sg13
VSwarm
p422
sg15
V12
p423
sg17
V14
p424
sg18
V30
p425
sbag1
(g2
g3
Ntp426
Rp427
(dp428
g7
V021
p429
sg9
VSpearow
p430
sg11
VG,S,C,
p431
sg13
VGift
p432
sg15
V10
p433
sg17
g433
sg18
V0
p434
sbag1
(g2
g3
Ntp435
Rp436
(dp437
g7
V016
p438
sg9
VPidgey
p439
sg11
VHG,SS,
p440
sg13
VGrass
p441
sg15
V14
p442
sg17
g442
sg18
V5
p443
sbag1
(g2
g3
Ntp444
Rp445
(dp446
g7
V029
p447
sg9
VNidoran\u2640
p448
sg11
VHG,SS,
p449
sg13
VGrass
p450
sg15
V12
p451
sg17
g451
sg18
V30
p452
sbag1
(g2
g3
Ntp453
Rp454
(dp455
g7
V032
p456
sg9
VNidoran\u2642
p457
sg11
VHG,SS,
p458
sg13
VGrass
p459
sg15
V12
p460
sg17
g460
sg18
V30
p461
sbag1
(g2
g3
Ntp462
Rp463
(dp464
g7
V063
p465
sg9
VAbra
p466
sg11
VHG,SS,
p467
sg13
VGrass
p468
sg15
V10
p469
sg17
g469
sg18
V10
p470
sbag1
(g2
g3
Ntp471
Rp472
(dp473
g7
V096
p474
sg9
VDrowzee
p475
sg11
VHG,SS,
p476
sg13
VGrass
p477
sg15
V14
p478
sg17
g478
sg18
V20
p479
sbag1
(g2
g3
Ntp480
Rp481
(dp482
g7
V132
p483
sg9
VDitto
p484
sg11
VHG,SS,
p485
sg13
VGrass
p486
sg15
V10
p487
sg17
g487
sg18
V4
p488
sbag1
(g2
g3
Ntp489
Rp490
(dp491
g7
V163
p492
sg9
VHoothoot
p493
sg11
VHG,SS,
p494
sg13
VGrass
p495
sg15
V14
p496
sg17
g496
sg18
V5
p497
sbag1
(g2
g3
Ntp498
Rp499
(dp500
g7
V193
p501
sg9
VYanma
p502
sg11
VHG,SS,
p503
sg13
VGrass
p504
sg15
V12
p505
sg17
g505
sg18
V1
p506
sbag1
(g2
g3
Ntp507
Rp508
(dp509
g7
V054
p510
sg9
VPsyduck
p511
sg11
VHG,SS,
p512
sg13
VSurf
p513
sg15
V10
p514
sg17
V25
p515
sg18
V90
p516
sbag1
(g2
g3
Ntp517
Rp518
(dp519
g7
V055
p520
sg9
VGolduck
p521
sg11
VHG,SS,
p522
sg13
VSurf
p523
sg15
V15
p524
sg17
V31
p525
sg18
V10
p526
sbag1
(g2
g3
Ntp527
Rp528
(dp529
g7
V060
p530
sg9
VPoliwag
p531
sg11
VHG,SS,
p532
sg13
VFish Old
p533
sg15
V10
p534
sg17
g534
sg18
V5
p535
sbag1
(g2
g3
Ntp536
Rp537
(dp538
g7
V129
p539
sg9
VMagikarp
p540
sg11
VHG,SS,
p541
sg13
VFish Old
p542
sg15
V10
p543
sg17
g543
sg18
V95
p544
sbag1
(g2
g3
Ntp545
Rp546
(dp547
g7
V060
p548
sg9
VPoliwag
p549
sg11
VHG,SS,
p550
sg13
VFish Good
p551
sg15
V20
p552
sg17
g552
sg18
V40
p553
sbag1
(g2
g3
Ntp554
Rp555
(dp556
g7
V129
p557
sg9
VMagikarp
p558
sg11
VHG,SS,
p559
sg13
VFish Good
p560
sg15
V20
p561
sg17
g561
sg18
V60
p562
sbag1
(g2
g3
Ntp563
Rp564
(dp565
g7
V060
p566
sg9
VPoliwag
p567
sg11
VHG,SS,
p568
sg13
VFish Super
p569
sg15
V40
p570
sg17
g570
sg18
V93
p571
sbag1
(g2
g3
Ntp572
Rp573
(dp574
g7
V129
p575
sg9
VMagikarp
p576
sg11
VHG,SS,
p577
sg13
VFish Super
p578
sg15
V40
p579
sg17
g579
sg18
V7
p580
sbag1
(g2
g3
Ntp581
Rp582
(dp583
g7
V102
p584
sg9
VExeggcute
p585
sg11
VHG,SS,
p586
sg13
VHeadbutt
p587
sg15
V10
p588
sg17
V14
p589
sg18
V20
p590
sbag1
(g2
g3
Ntp591
Rp592
(dp593
g7
V163
p594
sg9
VHoothoot
p595
sg11
VHG,SS,
p596
sg13
VHeadbutt
p597
sg15
V10
p598
sg17
V14
p599
sg18
V50
p600
sbag1
(g2
g3
Ntp601
Rp602
(dp603
g7
V165
p604
sg9
VLedyba
p605
sg11
VSS,
p606
sg13
VHeadbutt
p607
sg15
V13
p608
sg17
V14
p609
sg18
V30
p610
sbag1
(g2
g3
Ntp611
Rp612
(dp613
g7
V167
p614
sg9
VSpinarak
p615
sg11
VHG,
p616
sg13
VHeadbutt
p617
sg15
V13
p618
sg17
V14
p619
sg18
V30
p620
sbag1
(g2
g3
Ntp621
Rp622
(dp623
g7
V204
p624
sg9
VPineco
p625
sg11
VHG,SS,
p626
sg13
VHeadbutt
p627
sg15
V10
p628
sg17
V11
p629
sg18
V30
p630
sbag1
(g2
g3
Ntp631
Rp632
(dp633
g7
V193
p634
sg9
VYanma
p635
sg11
VHG,SS,
p636
sg13
VSwarm
p637
sg15
V12
p638
sg17
g638
sg18
V40
p639
sbag1
(g2
g3
Ntp640
Rp641
(dp642
g7
V021
p643
sg9
VSpearow
p644
sg11
VHG,SS,
p645
sg13
VGift
p646
sg15
V20
p647
sg17
g647
sg18
V0
p648
sbag1
(g2
g3
Ntp649
Rp650
(dp651
g7
V264
p652
sg9
VLinoone
p653
sg11
VHG,SS,
p654
sg13
VHoenn
p655
sg15
V14
p656
sg17
g656
sg18
V20
p657
sbag1
(g2
g3
Ntp658
Rp659
(dp660
g7
V293
p661
sg9
VWhismur
p662
sg11
VHG,SS,
p663
sg13
VHoenn
p664
sg15
V12
p665
sg17
g665
sg18
V20
p666
sbag1
(g2
g3
Ntp667
Rp668
(dp669
g7
V399
p670
sg9
VBidoof
p671
sg11
VHG,SS,
p672
sg13
VSinnoh
p673
sg15
V14
p674
sg17
g674
sg18
V20
p675
sbag1
(g2
g3
Ntp676
Rp677
(dp678
g7
V418
p679
sg9
VBuizel
p680
sg11
VHG,SS,
p681
sg13
VSinnoh
p682
sg15
V12
p683
sg17
g683
sg18
V20
p684
sba.