(lp0
ccopy_reg
_reconstructor
p1
(c__main__
WildPokemon
p2
c__builtin__
object
p3
Ntp4
Rp5
(dp6
VpDexNo
p7
V010
p8
sVpSpecies
p9
VCaterpie
p10
sVpGames
p11
VG,
p12
sVpArea
p13
VGrass
p14
sVpMinLevel
p15
V4
p16
sVpMaxLevel
p17
V5
p18
sVpRate
p19
V35
p20
sbag1
(g2
g3
Ntp21
Rp22
(dp23
g7
V010
p24
sg9
VCaterpie
p25
sg11
VC,
p26
sg13
VGrass
p27
sg15
g16
sg17
g16
sg19
V30
p28
sbag1
(g2
g3
Ntp29
Rp30
(dp31
g7
V011
p32
sg9
VMetapod
p33
sg11
g12
sg13
VGrass
p34
sg15
g18
sg17
g18
sg19
V15
p35
sbag1
(g2
g3
Ntp36
Rp37
(dp38
g7
V011
p39
sg9
VMetapod
p40
sg11
g12
sg13
VGrass
p41
sg15
g18
sg17
V6
p42
sg19
V15
p43
sbag1
(g2
g3
Ntp44
Rp45
(dp46
g7
V013
p47
sg9
VWeedle
p48
sg11
VS,
p49
sg13
VGrass
p50
sg15
g16
sg17
g18
sg19
V35
p51
sbag1
(g2
g3
Ntp52
Rp53
(dp54
g7
V013
p55
sg9
VWeedle
p56
sg11
g26
sg13
VGrass
p57
sg15
g16
sg17
g16
sg19
V5
p58
sbag1
(g2
g3
Ntp59
Rp60
(dp61
g7
V014
p62
sg9
VKakuna
p63
sg11
g49
sg13
VGrass
p64
sg15
g18
sg17
g18
sg19
V10
p65
sbag1
(g2
g3
Ntp66
Rp67
(dp68
g7
V014
p69
sg9
VKakuna
p70
sg11
g49
sg13
VGrass
p71
sg15
g18
sg17
g42
sg19
V15
p72
sbag1
(g2
g3
Ntp73
Rp74
(dp75
g7
V016
p76
sg9
VPidgey
p77
sg11
g12
sg13
VGrass
p78
sg15
V3
p79
sg17
g79
sg19
V30
p80
sbag1
(g2
g3
Ntp81
Rp82
(dp83
g7
V016
p84
sg9
VPidgey
p85
sg11
VS,C,
p86
sg13
VGrass
p87
sg15
g18
sg17
g18
sg19
V10
p88
sbag1
(g2
g3
Ntp89
Rp90
(dp91
g7
V016
p92
sg9
VPidgey
p93
sg11
g49
sg13
VGrass
p94
sg15
g79
sg17
g79
sg19
V30
p95
sbag1
(g2
g3
Ntp96
Rp97
(dp98
g7
V016
p99
sg9
VPidgey
p100
sg11
g26
sg13
VGrass
p101
sg15
g16
sg17
g18
sg19
V40
p102
sbag1
(g2
g3
Ntp103
Rp104
(dp105
g7
V019
p106
sg9
VRattata
p107
sg11
VG,S,
p108
sg13
VGrass
p109
sg15
g16
sg17
g18
sg19
V40
p110
sbag1
(g2
g3
Ntp111
Rp112
(dp113
g7
V041
p114
sg9
VZubat
p115
sg11
g26
sg13
VGrass
p116
sg15
g16
sg17
g16
sg19
V5
p117
sbag1
(g2
g3
Ntp118
Rp119
(dp120
g7
V060
p121
sg9
VPoliwag
p122
sg11
g26
sg13
VGrass
p123
sg15
g16
sg17
g16
sg19
V30
p124
sbag1
(g2
g3
Ntp125
Rp126
(dp127
g7
V069
p128
sg9
VBellsprout
p129
sg11
VG,S,
p130
sg13
VGrass
p131
sg15
g79
sg17
g79
sg19
V20
p132
sbag1
(g2
g3
Ntp133
Rp134
(dp135
g7
V069
p136
sg9
VBellsprout
p137
sg11
g26
sg13
VGrass
p138
sg15
g18
sg17
g18
sg19
V20
p139
sbag1
(g2
g3
Ntp140
Rp141
(dp142
g7
V092
p143
sg9
VGastly
p144
sg11
g26
sg13
VGrass
p145
sg15
g18
sg17
g18
sg19
V5
p146
sbag1
(g2
g3
Ntp147
Rp148
(dp149
g7
V163
p150
sg9
VHoothoot
p151
sg11
VG,C,
p152
sg13
VGrass
p153
sg15
g18
sg17
g18
sg19
V10
p154
sbag1
(g2
g3
Ntp155
Rp156
(dp157
g7
V163
p158
sg9
VHoothoot
p159
sg11
g49
sg13
VGrass
p160
sg15
g79
sg17
g18
sg19
V40
p161
sbag1
(g2
g3
Ntp162
Rp163
(dp164
g7
V165
p165
sg9
VLedyba
p166
sg11
VS,C,
p167
sg13
VGrass
p168
sg15
g16
sg17
g16
sg19
V30
p169
sbag1
(g2
g3
Ntp170
Rp171
(dp172
g7
V167
p173
sg9
VSpinarak
p174
sg11
VG,C,
p175
sg13
VGrass
p176
sg15
g16
sg17
g16
sg19
V30
p177
sbag1
(g2
g3
Ntp178
Rp179
(dp180
g7
V187
p181
sg9
VHoppip
p182
sg11
g26
sg13
VGrass
p183
sg15
g18
sg17
g18
sg19
V5
p184
sbag1
(g2
g3
Ntp185
Rp186
(dp187
g7
V060
p188
sg9
VPoliwag
p189
sg11
VG,S,C,
p190
sg13
VSurf
p191
sg15
V15
p192
sg17
V24
p193
sg19
V90
p194
sbag1
(g2
g3
Ntp195
Rp196
(dp197
g7
V061
p198
sg9
VPoliwhirl
p199
sg11
VG,S,C,
p200
sg13
VSurf
p201
sg15
V20
p202
sg17
V24
p203
sg19
V10
p204
sbag1
(g2
g3
Ntp205
Rp206
(dp207
g7
V060
p208
sg9
VPoliwag
p209
sg11
VG,S,C,
p210
sg13
VFish Old
p211
sg15
V10
p212
sg17
g212
sg19
V15
p213
sbag1
(g2
g3
Ntp214
Rp215
(dp216
g7
V129
p217
sg9
VMagikarp
p218
sg11
VG,S,C,
p219
sg13
VFish Old
p220
sg15
V10
p221
sg17
g221
sg19
V85
p222
sbag1
(g2
g3
Ntp223
Rp224
(dp225
g7
V060
p226
sg9
VPoliwag
p227
sg11
VG,S,C,
p228
sg13
VFish Good
p229
sg15
V20
p230
sg17
g230
sg19
V65
p231
sbag1
(g2
g3
Ntp232
Rp233
(dp234
g7
V129
p235
sg9
VMagikarp
p236
sg11
VG,S,C,
p237
sg13
VFish Good
p238
sg15
V20
p239
sg17
g239
sg19
V35
p240
sbag1
(g2
g3
Ntp241
Rp242
(dp243
g7
V060
p244
sg9
VPoliwag
p245
sg11
VG,S,C,
p246
sg13
VFish Super
p247
sg15
V40
p248
sg17
g248
sg19
V80
p249
sbag1
(g2
g3
Ntp250
Rp251
(dp252
g7
V129
p253
sg9
VMagikarp
p254
sg11
VG,S,C,
p255
sg13
VFish Super
p256
sg15
V40
p257
sg17
g257
sg19
V20
p258
sbag1
(g2
g3
Ntp259
Rp260
(dp261
g7
V021
p262
sg9
VSpearow
p263
sg11
VG,S,
p264
sg13
VHeadbutt
p265
sg15
V10
p266
sg17
g266
sg19
V80
p267
sbag1
(g2
g3
Ntp268
Rp269
(dp270
g7
V102
p271
sg9
VExeggcute
p272
sg11
g26
sg13
VHeadbutt
p273
sg15
V10
p274
sg17
g274
sg19
V20
p275
sbag1
(g2
g3
Ntp276
Rp277
(dp278
g7
V163
p279
sg9
VHoothoot
p280
sg11
g26
sg13
VHeadbutt
p281
sg15
V10
p282
sg17
g282
sg19
V50
p283
sbag1
(g2
g3
Ntp284
Rp285
(dp286
g7
V165
p287
sg9
VLedyba
p288
sg11
g26
sg13
VHeadbutt
p289
sg15
V10
p290
sg17
g290
sg19
V15
p291
sbag1
(g2
g3
Ntp292
Rp293
(dp294
g7
V167
p295
sg9
VSpinarak
p296
sg11
g26
sg13
VHeadbutt
p297
sg15
V10
p298
sg17
g298
sg19
V15
p299
sbag1
(g2
g3
Ntp300
Rp301
(dp302
g7
V190
p303
sg9
VAipom
p304
sg11
VG,S,
p305
sg13
VHeadbutt
p306
sg15
V10
p307
sg17
g307
sg19
V20
p308
sbag1
(g2
g3
Ntp309
Rp310
(dp311
g7
V021
p312
sg9
VSpearow
p313
sg11
VG,S,
p314
sg13
VHeadbutt
p315
sg15
V10
p316
sg17
g316
sg19
V50
p317
sbag1
(g2
g3
Ntp318
Rp319
(dp320
g7
V102
p321
sg9
VExeggcute
p322
sg11
g26
sg13
VHeadbutt
p323
sg15
V10
p324
sg17
g324
sg19
V20
p325
sbag1
(g2
g3
Ntp326
Rp327
(dp328
g7
V163
p329
sg9
VHoothoot
p330
sg11
g26
sg13
VHeadbutt
p331
sg15
V10
p332
sg17
g332
sg19
V50
p333
sbag1
(g2
g3
Ntp334
Rp335
(dp336
g7
V190
p337
sg9
VAipom
p338
sg11
VG,S,
p339
sg13
VHeadbutt
p340
sg15
V10
p341
sg17
g341
sg19
V20
p342
sbag1
(g2
g3
Ntp343
Rp344
(dp345
g7
V204
p346
sg9
VPineco
p347
sg11
g26
sg13
VHeadbutt
p348
sg15
V10
p349
sg17
g349
sg19
V30
p350
sbag1
(g2
g3
Ntp351
Rp352
(dp353
g7
V214
p354
sg9
VHeracross
p355
sg11
VG,S,
p356
sg13
VHeadbutt
p357
sg15
V10
p358
sg17
g358
sg19
V30
p359
sbag1
(g2
g3
Ntp360
Rp361
(dp362
g7
V010
p363
sg9
VCaterpie
p364
sg11
VHG,
p365
sg13
VGrass
p366
sg15
g16
sg17
g18
sg19
V35
p367
sbag1
(g2
g3
Ntp368
Rp369
(dp370
g7
V011
p371
sg9
VMetapod
p372
sg11
g365
sg13
VGrass
p373
sg15
g18
sg17
g18
sg19
V15
p374
sbag1
(g2
g3
Ntp375
Rp376
(dp377
g7
V013
p378
sg9
VWeedle
p379
sg11
VSS,
p380
sg13
VGrass
p381
sg15
g16
sg17
g16
sg19
V30
p382
sbag1
(g2
g3
Ntp383
Rp384
(dp385
g7
V013
p386
sg9
VWeedle
p387
sg11
g380
sg13
VGrass
p388
sg15
g16
sg17
g18
sg19
V35
p389
sbag1
(g2
g3
Ntp390
Rp391
(dp392
g7
V014
p393
sg9
VKakuna
p394
sg11
g380
sg13
VGrass
p395
sg15
g18
sg17
g18
sg19
V15
p396
sbag1
(g2
g3
Ntp397
Rp398
(dp399
g7
V016
p400
sg9
VPidgey
p401
sg11
g365
sg13
VGrass
p402
sg15
g79
sg17
g79
sg19
V30
p403
sbag1
(g2
g3
Ntp404
Rp405
(dp406
g7
V016
p407
sg9
VPidgey
p408
sg11
g380
sg13
VGrass
p409
sg15
g18
sg17
g18
sg19
V10
p410
sbag1
(g2
g3
Ntp411
Rp412
(dp413
g7
V016
p414
sg9
VPidgey
p415
sg11
g380
sg13
VGrass
p416
sg15
g16
sg17
g16
sg19
V30
p417
sbag1
(g2
g3
Ntp418
Rp419
(dp420
g7
V019
p421
sg9
VRattata
p422
sg11
VHG,SS,
p423
sg13
VGrass
p424
sg15
g16
sg17
g18
sg19
V40
p425
sbag1
(g2
g3
Ntp426
Rp427
(dp428
g7
V069
p429
sg9
VBellsprout
p430
sg11
VHG,SS,
p431
sg13
VGrass
p432
sg15
g79
sg17
g79
sg19
V20
p433
sbag1
(g2
g3
Ntp434
Rp435
(dp436
g7
V163
p437
sg9
VHoothoot
p438
sg11
g365
sg13
VGrass
p439
sg15
g18
sg17
g18
sg19
V10
p440
sbag1
(g2
g3
Ntp441
Rp442
(dp443
g7
V163
p444
sg9
VHoothoot
p445
sg11
g380
sg13
VGrass
p446
sg15
g16
sg17
g18
sg19
V40
p447
sbag1
(g2
g3
Ntp448
Rp449
(dp450
g7
V165
p451
sg9
VLedyba
p452
sg11
g380
sg13
VGrass
p453
sg15
g16
sg17
g16
sg19
V30
p454
sbag1
(g2
g3
Ntp455
Rp456
(dp457
g7
V167
p458
sg9
VSpinarak
p459
sg11
g365
sg13
VGrass
p460
sg15
g79
sg17
g79
sg19
V30
p461
sbag1
(g2
g3
Ntp462
Rp463
(dp464
g7
V060
p465
sg9
VPoliwag
p466
sg11
VHG,SS,
p467
sg13
VSurf
p468
sg15
V10
p469
sg17
V15
p470
sg19
V90
p471
sbag1
(g2
g3
Ntp472
Rp473
(dp474
g7
V061
p475
sg9
VPoliwhirl
p476
sg11
VHG,SS,
p477
sg13
VSurf
p478
sg15
V15
p479
sg17
V32
p480
sg19
V10
p481
sbag1
(g2
g3
Ntp482
Rp483
(dp484
g7
V060
p485
sg9
VPoliwag
p486
sg11
VHG,SS,
p487
sg13
VFish Old
p488
sg15
V10
p489
sg17
g489
sg19
V15
p490
sbag1
(g2
g3
Ntp491
Rp492
(dp493
g7
V129
p494
sg9
VMagikarp
p495
sg11
VHG,SS,
p496
sg13
VFish Old
p497
sg15
V10
p498
sg17
g498
sg19
V85
p499
sbag1
(g2
g3
Ntp500
Rp501
(dp502
g7
V060
p503
sg9
VPoliwag
p504
sg11
VHG,SS,
p505
sg13
VFish Good
p506
sg15
V20
p507
sg17
g507
sg19
V40
p508
sbag1
(g2
g3
Ntp509
Rp510
(dp511
g7
V129
p512
sg9
VMagikarp
p513
sg11
VHG,SS,
p514
sg13
VFish Good
p515
sg15
V20
p516
sg17
g516
sg19
V60
p517
sbag1
(g2
g3
Ntp518
Rp519
(dp520
g7
V060
p521
sg9
VPoliwag
p522
sg11
VHG,SS,
p523
sg13
VFish Super
p524
sg15
V40
p525
sg17
g525
sg19
V80
p526
sbag1
(g2
g3
Ntp527
Rp528
(dp529
g7
V129
p530
sg9
VMagikarp
p531
sg11
VHG,SS,
p532
sg13
VFish Super
p533
sg15
V40
p534
sg17
g534
sg19
V20
p535
sbag1
(g2
g3
Ntp536
Rp537
(dp538
g7
V102
p539
sg9
VExeggcute
p540
sg11
VHG,SS,
p541
sg13
VHeadbutt
p542
sg15
g79
sg17
g16
sg19
V20
p543
sbag1
(g2
g3
Ntp544
Rp545
(dp546
g7
V163
p547
sg9
VHoothoot
p548
sg11
VHG,SS,
p549
sg13
VHeadbutt
p550
sg15
g79
sg17
g16
sg19
V50
p551
sbag1
(g2
g3
Ntp552
Rp553
(dp554
g7
V204
p555
sg9
VPineco
p556
sg11
VHG,SS,
p557
sg13
VHeadbutt
p558
sg15
g79
sg17
g16
sg19
V30
p559
sbag1
(g2
g3
Ntp560
Rp561
(dp562
g7
V102
p563
sg9
VExeggcute
p564
sg11
VHG,SS,
p565
sg13
VHeadbutt
p566
sg15
g18
sg17
g42
sg19
V20
p567
sbag1
(g2
g3
Ntp568
Rp569
(dp570
g7
V163
p571
sg9
VHoothoot
p572
sg11
VHG,SS,
p573
sg13
VHeadbutt
p574
sg15
g18
sg17
g42
sg19
V50
p575
sbag1
(g2
g3
Ntp576
Rp577
(dp578
g7
V165
p579
sg9
VLedyba
p580
sg11
g380
sg13
VHeadbutt
p581
sg15
g18
sg17
g42
sg19
V30
p582
sbag1
(g2
g3
Ntp583
Rp584
(dp585
g7
V167
p586
sg9
VSpinarak
p587
sg11
g365
sg13
VHeadbutt
p588
sg15
g18
sg17
g42
sg19
V30
p589
sbag1
(g2
g3
Ntp590
Rp591
(dp592
g7
V264
p593
sg9
VLinoone
p594
sg11
VHG,SS,
p595
sg13
VHoenn
p596
sg15
g79
sg17
g79
sg19
V20
p597
sbag1
(g2
g3
Ntp598
Rp599
(dp600
g7
V293
p601
sg9
VWhismur
p602
sg11
VHG,SS,
p603
sg13
VHoenn
p604
sg15
g79
sg17
g16
sg19
V20
p605
sbag1
(g2
g3
Ntp606
Rp607
(dp608
g7
V399
p609
sg9
VBidoof
p610
sg11
VHG,SS,
p611
sg13
VSinnoh
p612
sg15
g79
sg17
g79
sg19
V20
p613
sbag1
(g2
g3
Ntp614
Rp615
(dp616
g7
V418
p617
sg9
VBuizel
p618
sg11
VHG,SS,
p619
sg13
VSinnoh
p620
sg15
g79
sg17
g16
sg19
V20
p621
sba.