(lp0
ccopy_reg
_reconstructor
p1
(c__main__
WildPokemon
p2
c__builtin__
object
p3
Ntp4
Rp5
(dp6
VpDexNo
p7
V016
p8
sVpSpecies
p9
VPidgey
p10
sVpGames
p11
VG,
p12
sVpArea
p13
VGrass
p14
sVpMinLevel
p15
V13
p16
sVpMaxLevel
p17
V15
p18
sVpRate
p19
V60
p20
sbag1
(g2
g3
Ntp21
Rp22
(dp23
g7
V016
p24
sg9
VPidgey
p25
sg11
VS,
p26
sg13
VGrass
p27
sg15
V13
p28
sg17
V15
p29
sg19
V50
p30
sbag1
(g2
g3
Ntp31
Rp32
(dp33
g7
V016
p34
sg9
VPidgey
p35
sg11
VC,
p36
sg13
VGrass
p37
sg15
V15
p38
sg17
g38
sg19
V20
p39
sbag1
(g2
g3
Ntp40
Rp41
(dp42
g7
V016
p43
sg9
VPidgey
p44
sg11
g36
sg13
VGrass
p45
sg15
V13
p46
sg17
V15
p47
sg19
V55
p48
sbag1
(g2
g3
Ntp49
Rp50
(dp51
g7
V017
p52
sg9
VPidgeotto
p53
sg11
VG,S,
p54
sg13
VGrass
p55
sg15
V15
p56
sg17
g56
sg19
V5
p57
sbag1
(g2
g3
Ntp58
Rp59
(dp60
g7
V017
p61
sg9
VPidgeotto
p62
sg11
g36
sg13
VGrass
p63
sg15
V15
p64
sg17
g64
sg19
V5
p65
sbag1
(g2
g3
Ntp66
Rp67
(dp68
g7
V037
p69
sg9
VVulpix
p70
sg11
g26
sg13
VGrass
p71
sg15
V14
p72
sg17
g72
sg19
V10
p73
sbag1
(g2
g3
Ntp74
Rp75
(dp76
g7
V037
p77
sg9
VVulpix
p78
sg11
g26
sg13
VGrass
p79
sg15
V14
p80
sg17
V16
p81
sg19
V15
p82
sbag1
(g2
g3
Ntp83
Rp84
(dp85
g7
V058
p86
sg9
VGrowlithe
p87
sg11
g12
sg13
VGrass
p88
sg15
V14
p89
sg17
g89
sg19
V10
p90
sbag1
(g2
g3
Ntp91
Rp92
(dp93
g7
V058
p94
sg9
VGrowlithe
p95
sg11
g12
sg13
VGrass
p96
sg15
V14
p97
sg17
V16
p98
sg19
V15
p99
sbag1
(g2
g3
Ntp100
Rp101
(dp102
g7
V058
p103
sg9
VGrowlithe
p104
sg11
g36
sg13
VGrass
p105
sg15
V16
p106
sg17
g106
sg19
V40
p107
sbag1
(g2
g3
Ntp108
Rp109
(dp110
g7
V163
p111
sg9
VHoothoot
p112
sg11
VG,C,
p113
sg13
VGrass
p114
sg15
V15
p115
sg17
g115
sg19
V20
p116
sbag1
(g2
g3
Ntp117
Rp118
(dp119
g7
V163
p120
sg9
VHoothoot
p121
sg11
g26
sg13
VGrass
p122
sg15
V13
p123
sg17
V15
p124
sg19
V60
p125
sbag1
(g2
g3
Ntp126
Rp127
(dp128
g7
V164
p129
sg9
VNoctowl
p130
sg11
g36
sg13
VGrass
p131
sg15
V15
p132
sg17
g132
sg19
V5
p133
sbag1
(g2
g3
Ntp134
Rp135
(dp136
g7
V165
p137
sg9
VLedyba
p138
sg11
g26
sg13
VGrass
p139
sg15
V13
p140
sg17
V15
p141
sg19
V40
p142
sbag1
(g2
g3
Ntp143
Rp144
(dp145
g7
V165
p146
sg9
VLedyba
p147
sg11
g36
sg13
VGrass
p148
sg15
V13
p149
sg17
g149
sg19
V30
p150
sbag1
(g2
g3
Ntp151
Rp152
(dp153
g7
V166
p154
sg9
VLedian
p155
sg11
g36
sg13
VGrass
p156
sg15
V15
p157
sg17
g157
sg19
V5
p158
sbag1
(g2
g3
Ntp159
Rp160
(dp161
g7
V167
p162
sg9
VSpinarak
p163
sg11
g12
sg13
VGrass
p164
sg15
V13
p165
sg17
V15
p166
sg19
V40
p167
sbag1
(g2
g3
Ntp168
Rp169
(dp170
g7
V167
p171
sg9
VSpinarak
p172
sg11
g36
sg13
VGrass
p173
sg15
V13
p174
sg17
g174
sg19
V30
p175
sbag1
(g2
g3
Ntp176
Rp177
(dp178
g7
V168
p179
sg9
VAriados
p180
sg11
g36
sg13
VGrass
p181
sg15
V15
p182
sg17
g182
sg19
V5
p183
sbag1
(g2
g3
Ntp184
Rp185
(dp186
g7
V234
p187
sg9
VStantler
p188
sg11
VG,S,
p189
sg13
VGrass
p190
sg15
V15
p191
sg17
g191
sg19
V30
p192
sbag1
(g2
g3
Ntp193
Rp194
(dp195
g7
V234
p196
sg9
VStantler
p197
sg11
g36
sg13
VGrass
p198
sg15
V14
p199
sg17
V16
p200
sg19
V40
p201
sbag1
(g2
g3
Ntp202
Rp203
(dp204
g7
V010
p205
sg9
VCaterpie
p206
sg11
g12
sg13
VHeadbutt
p207
sg15
V10
p208
sg17
g208
sg19
V65
p209
sbag1
(g2
g3
Ntp210
Rp211
(dp212
g7
V011
p213
sg9
VMetapod
p214
sg11
g12
sg13
VHeadbutt
p215
sg15
V10
p216
sg17
g216
sg19
V15
p217
sbag1
(g2
g3
Ntp218
Rp219
(dp220
g7
V012
p221
sg9
VButterfree
p222
sg11
g12
sg13
VHeadbutt
p223
sg15
V10
p224
sg17
g224
sg19
V5
p225
sbag1
(g2
g3
Ntp226
Rp227
(dp228
g7
V013
p229
sg9
VWeedle
p230
sg11
g26
sg13
VHeadbutt
p231
sg15
V10
p232
sg17
g232
sg19
V65
p233
sbag1
(g2
g3
Ntp234
Rp235
(dp236
g7
V014
p237
sg9
VKakuna
p238
sg11
g26
sg13
VHeadbutt
p239
sg15
V10
p240
sg17
g240
sg19
V15
p241
sbag1
(g2
g3
Ntp242
Rp243
(dp244
g7
V015
p245
sg9
VBeedrill
p246
sg11
g26
sg13
VHeadbutt
p247
sg15
V10
p248
sg17
g248
sg19
V5
p249
sbag1
(g2
g3
Ntp250
Rp251
(dp252
g7
V102
p253
sg9
VExeggcute
p254
sg11
VG,S,
p255
sg13
VHeadbutt
p256
sg15
V10
p257
sg17
g257
sg19
V15
p258
sbag1
(g2
g3
Ntp259
Rp260
(dp261
g7
V102
p262
sg9
VExeggcute
p263
sg11
g36
sg13
VHeadbutt
p264
sg15
V10
p265
sg17
g265
sg19
V20
p266
sbag1
(g2
g3
Ntp267
Rp268
(dp269
g7
V163
p270
sg9
VHoothoot
p271
sg11
g36
sg13
VHeadbutt
p272
sg15
V10
p273
sg17
g273
sg19
V50
p274
sbag1
(g2
g3
Ntp275
Rp276
(dp277
g7
V165
p278
sg9
VLedyba
p279
sg11
g36
sg13
VHeadbutt
p280
sg15
V10
p281
sg17
g281
sg19
V15
p282
sbag1
(g2
g3
Ntp283
Rp284
(dp285
g7
V167
p286
sg9
VSpinarak
p287
sg11
g36
sg13
VHeadbutt
p288
sg15
V10
p289
sg17
g289
sg19
V15
p290
sbag1
(g2
g3
Ntp291
Rp292
(dp293
g7
V010
p294
sg9
VCaterpie
p295
sg11
g12
sg13
VHeadbutt
p296
sg15
V10
p297
sg17
g297
sg19
V50
p298
sbag1
(g2
g3
Ntp299
Rp300
(dp301
g7
V012
p302
sg9
VButterfree
p303
sg11
g12
sg13
VHeadbutt
p304
sg15
V10
p305
sg17
g305
sg19
V5
p306
sbag1
(g2
g3
Ntp307
Rp308
(dp309
g7
V013
p310
sg9
VWeedle
p311
sg11
g26
sg13
VHeadbutt
p312
sg15
V10
p313
sg17
g313
sg19
V50
p314
sbag1
(g2
g3
Ntp315
Rp316
(dp317
g7
V015
p318
sg9
VBeedrill
p319
sg11
g26
sg13
VHeadbutt
p320
sg15
V10
p321
sg17
g321
sg19
V5
p322
sbag1
(g2
g3
Ntp323
Rp324
(dp325
g7
V102
p326
sg9
VExeggcute
p327
sg11
VG,S,
p328
sg13
VHeadbutt
p329
sg15
V10
p330
sg17
g330
sg19
V15
p331
sbag1
(g2
g3
Ntp332
Rp333
(dp334
g7
V102
p335
sg9
VExeggcute
p336
sg11
g36
sg13
VHeadbutt
p337
sg15
V10
p338
sg17
g338
sg19
V20
p339
sbag1
(g2
g3
Ntp340
Rp341
(dp342
g7
V163
p343
sg9
VHoothoot
p344
sg11
g36
sg13
VHeadbutt
p345
sg15
V10
p346
sg17
g346
sg19
V50
p347
sbag1
(g2
g3
Ntp348
Rp349
(dp350
g7
V204
p351
sg9
VPineco
p352
sg11
VG,S,C,
p353
sg13
VHeadbutt
p354
sg15
V10
p355
sg17
g355
sg19
V30
p356
sbag1
(g2
g3
Ntp357
Rp358
(dp359
g7
V016
p360
sg9
VPidgey
p361
sg11
VHG,
p362
sg13
VGrass
p363
sg15
V13
p364
sg17
V15
p365
sg19
V60
p366
sbag1
(g2
g3
Ntp367
Rp368
(dp369
g7
V016
p370
sg9
VPidgey
p371
sg11
VSS,
p372
sg13
VGrass
p373
sg15
V15
p374
sg17
g374
sg19
V20
p375
sbag1
(g2
g3
Ntp376
Rp377
(dp378
g7
V016
p379
sg9
VPidgey
p380
sg11
g372
sg13
VGrass
p381
sg15
V13
p382
sg17
V15
p383
sg19
V50
p384
sbag1
(g2
g3
Ntp385
Rp386
(dp387
g7
V017
p388
sg9
VPidgeotto
p389
sg11
VHG,SS,
p390
sg13
VGrass
p391
sg15
V15
p392
sg17
g392
sg19
V5
p393
sbag1
(g2
g3
Ntp394
Rp395
(dp396
g7
V037
p397
sg9
VVulpix
p398
sg11
g372
sg13
VGrass
p399
sg15
V14
p400
sg17
g400
sg19
V10
p401
sbag1
(g2
g3
Ntp402
Rp403
(dp404
g7
V037
p405
sg9
VVulpix
p406
sg11
g372
sg13
VGrass
p407
sg15
V14
p408
sg17
V15
p409
sg19
V15
p410
sbag1
(g2
g3
Ntp411
Rp412
(dp413
g7
V058
p414
sg9
VGrowlithe
p415
sg11
g362
sg13
VGrass
p416
sg15
V14
p417
sg17
g417
sg19
V10
p418
sbag1
(g2
g3
Ntp419
Rp420
(dp421
g7
V058
p422
sg9
VGrowlithe
p423
sg11
g362
sg13
VGrass
p424
sg15
V14
p425
sg17
V15
p426
sg19
V15
p427
sbag1
(g2
g3
Ntp428
Rp429
(dp430
g7
V163
p431
sg9
VHoothoot
p432
sg11
g362
sg13
VGrass
p433
sg15
V15
p434
sg17
g434
sg19
V20
p435
sbag1
(g2
g3
Ntp436
Rp437
(dp438
g7
V163
p439
sg9
VHoothoot
p440
sg11
g372
sg13
VGrass
p441
sg15
V13
p442
sg17
V15
p443
sg19
V60
p444
sbag1
(g2
g3
Ntp445
Rp446
(dp447
g7
V165
p448
sg9
VLedyba
p449
sg11
g372
sg13
VGrass
p450
sg15
V13
p451
sg17
V15
p452
sg19
V40
p453
sbag1
(g2
g3
Ntp454
Rp455
(dp456
g7
V167
p457
sg9
VSpinarak
p458
sg11
g362
sg13
VGrass
p459
sg15
V13
p460
sg17
V15
p461
sg19
V40
p462
sbag1
(g2
g3
Ntp463
Rp464
(dp465
g7
V234
p466
sg9
VStantler
p467
sg11
VHG,SS,
p468
sg13
VGrass
p469
sg15
V15
p470
sg17
g470
sg19
V30
p471
sbag1
(g2
g3
Ntp472
Rp473
(dp474
g7
V102
p475
sg9
VExeggcute
p476
sg11
VHG,SS,
p477
sg13
VHeadbutt
p478
sg15
V12
p479
sg17
V17
p480
sg19
V20
p481
sbag1
(g2
g3
Ntp482
Rp483
(dp484
g7
V163
p485
sg9
VHoothoot
p486
sg11
VHG,SS,
p487
sg13
VHeadbutt
p488
sg15
V12
p489
sg17
V17
p490
sg19
V50
p491
sbag1
(g2
g3
Ntp492
Rp493
(dp494
g7
V165
p495
sg9
VLedyba
p496
sg11
g372
sg13
VHeadbutt
p497
sg15
V15
p498
sg17
V17
p499
sg19
V30
p500
sbag1
(g2
g3
Ntp501
Rp502
(dp503
g7
V167
p504
sg9
VSpinarak
p505
sg11
g362
sg13
VHeadbutt
p506
sg15
V15
p507
sg17
V17
p508
sg19
V30
p509
sbag1
(g2
g3
Ntp510
Rp511
(dp512
g7
V204
p513
sg9
VPineco
p514
sg11
VHG,SS,
p515
sg13
VHeadbutt
p516
sg15
V12
p517
sg17
V14
p518
sg19
V30
p519
sbag1
(g2
g3
Ntp520
Rp521
(dp522
g7
V311
p523
sg9
VPlusle
p524
sg11
VHG,SS,
p525
sg13
VHoenn
p526
sg15
V13
p527
sg17
V15
p528
sg19
V20
p529
sbag1
(g2
g3
Ntp530
Rp531
(dp532
g7
V312
p533
sg9
VMinun
p534
sg11
VHG,SS,
p535
sg13
VHoenn
p536
sg15
V15
p537
sg17
g537
sg19
V20
p538
sbag1
(g2
g3
Ntp539
Rp540
(dp541
g7
V403
p542
sg9
VShinx
p543
sg11
VHG,SS,
p544
sg13
VSinnoh
p545
sg15
V13
p546
sg17
V15
p547
sg19
V40
p548
sba.