(lp0
ccopy_reg
_reconstructor
p1
(c__main__
WildPokemon
p2
c__builtin__
object
p3
Ntp4
Rp5
(dp6
VpDexNo
p7
V016
p8
sVpSpecies
p9
VPidgey
p10
sVpGames
p11
VC,
p12
sVpArea
p13
VGrass
p14
sVpMinLevel
p15
V7
p16
sVpMaxLevel
p17
g16
sVpRate
p18
V5
p19
sbag1
(g2
g3
Ntp20
Rp21
(dp22
g7
V019
p23
sg9
VRattata
p24
sg11
VG,
p25
sg13
VGrass
p26
sg15
V4
p27
sg17
V6
p28
sg18
V35
p29
sbag1
(g2
g3
Ntp30
Rp31
(dp32
g7
V019
p33
sg9
VRattata
p34
sg11
g25
sg13
VGrass
p35
sg15
g27
sg17
V8
p36
sg18
V40
p37
sbag1
(g2
g3
Ntp38
Rp39
(dp40
g7
V019
p41
sg9
VRattata
p42
sg11
g25
sg13
VGrass
p43
sg15
g27
sg17
g27
sg18
V30
p44
sbag1
(g2
g3
Ntp45
Rp46
(dp47
g7
V019
p48
sg9
VRattata
p49
sg11
VS,
p50
sg13
VGrass
p51
sg15
g28
sg17
g28
sg18
V5
p52
sbag1
(g2
g3
Ntp53
Rp54
(dp55
g7
V019
p56
sg9
VRattata
p57
sg11
g50
sg13
VGrass
p58
sg15
g28
sg17
g36
sg18
V10
p59
sbag1
(g2
g3
Ntp60
Rp61
(dp62
g7
V019
p63
sg9
VRattata
p64
sg11
g12
sg13
VGrass
p65
sg15
V5
p66
sg17
g66
sg18
V30
p67
sbag1
(g2
g3
Ntp68
Rp69
(dp70
g7
V023
p71
sg9
VEkans
p72
sg11
g50
sg13
VGrass
p73
sg15
g27
sg17
g27
sg18
V30
p74
sbag1
(g2
g3
Ntp75
Rp76
(dp77
g7
V023
p78
sg9
VEkans
p79
sg11
g12
sg13
VGrass
p80
sg15
g27
sg17
g27
sg18
V30
p81
sbag1
(g2
g3
Ntp82
Rp83
(dp84
g7
V041
p85
sg9
VZubat
p86
sg11
VG,S,
p87
sg13
VGrass
p88
sg15
g27
sg17
g27
sg18
V1
p89
sbag1
(g2
g3
Ntp90
Rp91
(dp92
g7
V041
p93
sg9
VZubat
p94
sg11
VG,S,
p95
sg13
VGrass
p96
sg15
g36
sg17
g36
sg18
V5
p97
sbag1
(g2
g3
Ntp98
Rp99
(dp100
g7
V041
p101
sg9
VZubat
p102
sg11
g12
sg13
VGrass
p103
sg15
g28
sg17
g28
sg18
V10
p104
sbag1
(g2
g3
Ntp105
Rp106
(dp107
g7
V069
p108
sg9
VBellsprout
p109
sg11
VG,S,
p110
sg13
VGrass
p111
sg15
g28
sg17
g28
sg18
V30
p112
sbag1
(g2
g3
Ntp113
Rp114
(dp115
g7
V069
p116
sg9
VBellsprout
p117
sg11
g12
sg13
VGrass
p118
sg15
g16
sg17
g16
sg18
V20
p119
sbag1
(g2
g3
Ntp120
Rp121
(dp122
g7
V092
p123
sg9
VGastly
p124
sg11
g12
sg13
VGrass
p125
sg15
g16
sg17
g16
sg18
V5
p126
sbag1
(g2
g3
Ntp127
Rp128
(dp129
g7
V163
p130
sg9
VHoothoot
p131
sg11
g12
sg13
VGrass
p132
sg15
g16
sg17
g16
sg18
V5
p133
sbag1
(g2
g3
Ntp134
Rp135
(dp136
g7
V179
p137
sg9
VMareep
p138
sg11
VG,S,
p139
sg13
VGrass
p140
sg15
g28
sg17
g28
sg18
V20
p141
sbag1
(g2
g3
Ntp142
Rp143
(dp144
g7
V187
p145
sg9
VHoppip
p146
sg11
VG,S,
p147
sg13
VGrass
p148
sg15
g28
sg17
g28
sg18
V10
p149
sbag1
(g2
g3
Ntp150
Rp151
(dp152
g7
V187
p153
sg9
VHoppip
p154
sg11
g12
sg13
VGrass
p155
sg15
g28
sg17
g16
sg18
V15
p156
sbag1
(g2
g3
Ntp157
Rp158
(dp159
g7
V194
p160
sg9
VWooper
p161
sg11
VG,S,
p162
sg13
VGrass
p163
sg15
g27
sg17
g27
sg18
V4
p164
sbag1
(g2
g3
Ntp165
Rp166
(dp167
g7
V194
p168
sg9
VWooper
p169
sg11
VG,S,
p170
sg13
VGrass
p171
sg15
g28
sg17
g36
sg18
V35
p172
sbag1
(g2
g3
Ntp173
Rp174
(dp175
g7
V194
p176
sg9
VWooper
p177
sg11
g12
sg13
VGrass
p178
sg15
g27
sg17
g27
sg18
V30
p179
sbag1
(g2
g3
Ntp180
Rp181
(dp182
g7
V072
p183
sg9
VTentacool
p184
sg11
VG,S,C,
p185
sg13
VSurf
p186
sg15
V15
p187
sg17
V19
p188
sg18
V60
p189
sbag1
(g2
g3
Ntp190
Rp191
(dp192
g7
V073
p193
sg9
VTentacruel
p194
sg11
VG,S,C,
p195
sg13
VSurf
p196
sg15
V20
p197
sg17
V24
p198
sg18
V10
p199
sbag1
(g2
g3
Ntp200
Rp201
(dp202
g7
V195
p203
sg9
VQuagsire
p204
sg11
VG,S,C,
p205
sg13
VSurf
p206
sg15
V20
p207
sg17
V24
p208
sg18
V30
p209
sbag1
(g2
g3
Ntp210
Rp211
(dp212
g7
V072
p213
sg9
VTentacool
p214
sg11
VG,S,C,
p215
sg13
VFish Old
p216
sg15
V10
p217
sg17
g217
sg18
V15
p218
sbag1
(g2
g3
Ntp219
Rp220
(dp221
g7
V129
p222
sg9
VMagikarp
p223
sg11
VG,S,C,
p224
sg13
VFish Old
p225
sg15
V10
p226
sg17
g226
sg18
V85
p227
sbag1
(g2
g3
Ntp228
Rp229
(dp230
g7
V072
p231
sg9
VTentacool
p232
sg11
VG,S,C,
p233
sg13
VFish Good
p234
sg15
V20
p235
sg17
g235
sg18
V65
p236
sbag1
(g2
g3
Ntp237
Rp238
(dp239
g7
V129
p240
sg9
VMagikarp
p241
sg11
VG,S,C,
p242
sg13
VFish Good
p243
sg15
V20
p244
sg17
g244
sg18
V35
p245
sbag1
(g2
g3
Ntp246
Rp247
(dp248
g7
V072
p249
sg9
VTentacool
p250
sg11
VG,S,C,
p251
sg13
VFish Super
p252
sg15
V40
p253
sg17
g253
sg18
V70
p254
sbag1
(g2
g3
Ntp255
Rp256
(dp257
g7
V129
p258
sg9
VMagikarp
p259
sg11
VG,S,C,
p260
sg13
VFish Super
p261
sg15
V40
p262
sg17
g262
sg18
V20
p263
sbag1
(g2
g3
Ntp264
Rp265
(dp266
g7
V211
p267
sg9
VQwilfish
p268
sg11
VG,S,C,
p269
sg13
VFish Super
p270
sg15
V40
p271
sg17
g271
sg18
V10
p272
sbag1
(g2
g3
Ntp273
Rp274
(dp275
g7
V021
p276
sg9
VSpearow
p277
sg11
VG,S,
p278
sg13
VHeadbutt
p279
sg15
V10
p280
sg17
g280
sg18
V80
p281
sbag1
(g2
g3
Ntp282
Rp283
(dp284
g7
V023
p285
sg9
VEkans
p286
sg11
g12
sg13
VHeadbutt
p287
sg15
V10
p288
sg17
g288
sg18
V15
p289
sbag1
(g2
g3
Ntp290
Rp291
(dp292
g7
V102
p293
sg9
VExeggcute
p294
sg11
g12
sg13
VHeadbutt
p295
sg15
V10
p296
sg17
g296
sg18
V20
p297
sbag1
(g2
g3
Ntp298
Rp299
(dp300
g7
V163
p301
sg9
VHoothoot
p302
sg11
g12
sg13
VHeadbutt
p303
sg15
V10
p304
sg17
g304
sg18
V65
p305
sbag1
(g2
g3
Ntp306
Rp307
(dp308
g7
V190
p309
sg9
VAipom
p310
sg11
VG,S,
p311
sg13
VHeadbutt
p312
sg15
V10
p313
sg17
g313
sg18
V20
p314
sbag1
(g2
g3
Ntp315
Rp316
(dp317
g7
V021
p318
sg9
VSpearow
p319
sg11
VG,S,
p320
sg13
VHeadbutt
p321
sg15
V10
p322
sg17
g322
sg18
V50
p323
sbag1
(g2
g3
Ntp324
Rp325
(dp326
g7
V102
p327
sg9
VExeggcute
p328
sg11
g12
sg13
VHeadbutt
p329
sg15
V10
p330
sg17
g330
sg18
V20
p331
sbag1
(g2
g3
Ntp332
Rp333
(dp334
g7
V163
p335
sg9
VHoothoot
p336
sg11
g12
sg13
VHeadbutt
p337
sg15
V10
p338
sg17
g338
sg18
V50
p339
sbag1
(g2
g3
Ntp340
Rp341
(dp342
g7
V190
p343
sg9
VAipom
p344
sg11
VG,S,
p345
sg13
VHeadbutt
p346
sg15
V10
p347
sg17
g347
sg18
V20
p348
sbag1
(g2
g3
Ntp349
Rp350
(dp351
g7
V204
p352
sg9
VPineco
p353
sg11
g12
sg13
VHeadbutt
p354
sg15
V10
p355
sg17
g355
sg18
V30
p356
sbag1
(g2
g3
Ntp357
Rp358
(dp359
g7
V214
p360
sg9
VHeracross
p361
sg11
VG,S,
p362
sg13
VHeadbutt
p363
sg15
V10
p364
sg17
g364
sg18
V30
p365
sbag1
(g2
g3
Ntp366
Rp367
(dp368
g7
V129
p369
sg9
VMagikarp
p370
sg11
VG,S,C,
p371
sg13
VFish Old
p372
sg15
g66
sg17
g66
sg18
V85
p373
sbag1
(g2
g3
Ntp374
Rp375
(dp376
g7
V211
p377
sg9
VQwilfish
p378
sg11
VG,S,C,
p379
sg13
VFish Old
p380
sg15
g66
sg17
g66
sg18
V15
p381
sbag1
(g2
g3
Ntp382
Rp383
(dp384
g7
V129
p385
sg9
VMagikarp
p386
sg11
VG,S,C,
p387
sg13
VFish Good
p388
sg15
V20
p389
sg17
g389
sg18
V35
p390
sbag1
(g2
g3
Ntp391
Rp392
(dp393
g7
V211
p394
sg9
VQwilfish
p395
sg11
VG,S,C,
p396
sg13
VFish Good
p397
sg15
V20
p398
sg17
g398
sg18
V65
p399
sbag1
(g2
g3
Ntp400
Rp401
(dp402
g7
V211
p403
sg9
VQwilfish
p404
sg11
VG,S,C,
p405
sg13
VFish Super
p406
sg15
V40
p407
sg17
g407
sg18
V100
p408
sbag1
(g2
g3
Ntp409
Rp410
(dp411
g7
V019
p412
sg9
VRattata
p413
sg11
VHG,
p414
sg13
VGrass
p415
sg15
g27
sg17
g28
sg18
V40
p416
sbag1
(g2
g3
Ntp417
Rp418
(dp419
g7
V019
p420
sg9
VRattata
p421
sg11
g414
sg13
VGrass
p422
sg15
g27
sg17
g27
sg18
V30
p423
sbag1
(g2
g3
Ntp424
Rp425
(dp426
g7
V019
p427
sg9
VRattata
p428
sg11
VSS,
p429
sg13
VGrass
p430
sg15
g28
sg17
g28
sg18
V5
p431
sbag1
(g2
g3
Ntp432
Rp433
(dp434
g7
V019
p435
sg9
VRattata
p436
sg11
g429
sg13
VGrass
p437
sg15
g27
sg17
g28
sg18
V10
p438
sbag1
(g2
g3
Ntp439
Rp440
(dp441
g7
V023
p442
sg9
VEkans
p443
sg11
g429
sg13
VGrass
p444
sg15
g27
sg17
g27
sg18
V30
p445
sbag1
(g2
g3
Ntp446
Rp447
(dp448
g7
V041
p449
sg9
VZubat
p450
sg11
VHG,SS,
p451
sg13
VGrass
p452
sg15
g27
sg17
g27
sg18
V5
p453
sbag1
(g2
g3
Ntp454
Rp455
(dp456
g7
V069
p457
sg9
VBellsprout
p458
sg11
VHG,SS,
p459
sg13
VGrass
p460
sg15
g28
sg17
g28
sg18
V30
p461
sbag1
(g2
g3
Ntp462
Rp463
(dp464
g7
V179
p465
sg9
VMareep
p466
sg11
VHG,SS,
p467
sg13
VGrass
p468
sg15
g28
sg17
g28
sg18
V20
p469
sbag1
(g2
g3
Ntp470
Rp471
(dp472
g7
V187
p473
sg9
VHoppip
p474
sg11
VHG,SS,
p475
sg13
VGrass
p476
sg15
g28
sg17
g28
sg18
V10
p477
sbag1
(g2
g3
Ntp478
Rp479
(dp480
g7
V194
p481
sg9
VWooper
p482
sg11
VHG,SS,
p483
sg13
VGrass
p484
sg15
g28
sg17
g28
sg18
V35
p485
sbag1
(g2
g3
Ntp486
Rp487
(dp488
g7
V072
p489
sg9
VTentacool
p490
sg11
VHG,SS,
p491
sg13
VSurf
p492
sg15
V10
p493
sg17
V20
p494
sg18
V60
p495
sbag1
(g2
g3
Ntp496
Rp497
(dp498
g7
V073
p499
sg9
VTentacruel
p500
sg11
VHG,SS,
p501
sg13
VSurf
p502
sg15
V15
p503
sg17
V36
p504
sg18
V10
p505
sbag1
(g2
g3
Ntp506
Rp507
(dp508
g7
V195
p509
sg9
VQuagsire
p510
sg11
VHG,SS,
p511
sg13
VSurf
p512
sg15
V15
p513
sg17
V25
p514
sg18
V30
p515
sbag1
(g2
g3
Ntp516
Rp517
(dp518
g7
V072
p519
sg9
VTentacool
p520
sg11
VHG,SS,
p521
sg13
VFish Old
p522
sg15
V10
p523
sg17
g523
sg18
V15
p524
sbag1
(g2
g3
Ntp525
Rp526
(dp527
g7
V129
p528
sg9
VMagikarp
p529
sg11
VHG,SS,
p530
sg13
VFish Old
p531
sg15
V10
p532
sg17
g532
sg18
V85
p533
sbag1
(g2
g3
Ntp534
Rp535
(dp536
g7
V072
p537
sg9
VTentacool
p538
sg11
VHG,SS,
p539
sg13
VFish Good
p540
sg15
V20
p541
sg17
g541
sg18
V55
p542
sbag1
(g2
g3
Ntp543
Rp544
(dp545
g7
V129
p546
sg9
VMagikarp
p547
sg11
VHG,SS,
p548
sg13
VFish Good
p549
sg15
V20
p550
sg17
g550
sg18
V40
p551
sbag1
(g2
g3
Ntp552
Rp553
(dp554
g7
V211
p555
sg9
VQwilfish
p556
sg11
VHG,SS,
p557
sg13
VFish Good
p558
sg15
V20
p559
sg17
g559
sg18
V5
p560
sbag1
(g2
g3
Ntp561
Rp562
(dp563
g7
V072
p564
sg9
VTentacool
p565
sg11
VHG,SS,
p566
sg13
VFish Super
p567
sg15
V40
p568
sg17
g568
sg18
V70
p569
sbag1
(g2
g3
Ntp570
Rp571
(dp572
g7
V129
p573
sg9
VMagikarp
p574
sg11
VHG,SS,
p575
sg13
VFish Super
p576
sg15
V40
p577
sg17
g577
sg18
V20
p578
sbag1
(g2
g3
Ntp579
Rp580
(dp581
g7
V211
p582
sg9
VQwilfish
p583
sg11
VHG,SS,
p584
sg13
VFish Super
p585
sg15
V40
p586
sg17
g586
sg18
V10
p587
sbag1
(g2
g3
Ntp588
Rp589
(dp590
g7
V102
p591
sg9
VExeggcute
p592
sg11
VHG,SS,
p593
sg13
VHeadbutt
p594
sg15
g27
sg17
g66
sg18
V20
p595
sbag1
(g2
g3
Ntp596
Rp597
(dp598
g7
V163
p599
sg9
VHoothoot
p600
sg11
VHG,SS,
p601
sg13
VHeadbutt
p602
sg15
g27
sg17
g66
sg18
V50
p603
sbag1
(g2
g3
Ntp604
Rp605
(dp606
g7
V204
p607
sg9
VPineco
p608
sg11
VHG,SS,
p609
sg13
VHeadbutt
p610
sg15
g27
sg17
g66
sg18
V30
p611
sbag1
(g2
g3
Ntp612
Rp613
(dp614
g7
V102
p615
sg9
VExeggcute
p616
sg11
VHG,SS,
p617
sg13
VHeadbutt
p618
sg15
g28
sg17
g16
sg18
V20
p619
sbag1
(g2
g3
Ntp620
Rp621
(dp622
g7
V163
p623
sg9
VHoothoot
p624
sg11
VHG,SS,
p625
sg13
VHeadbutt
p626
sg15
g28
sg17
g16
sg18
V80
p627
sbag1
(g2
g3
Ntp628
Rp629
(dp630
g7
V211
p631
sg9
VQwilfish
p632
sg11
VHG,SS,
p633
sg13
VSwarm
p634
sg15
V10
p635
sg17
g635
sg18
V0
p636
sbag1
(g2
g3
Ntp637
Rp638
(dp639
g7
V211
p640
sg9
VQwilfish
p641
sg11
VHG,SS,
p642
sg13
VSwarm
p643
sg15
V20
p644
sg17
g644
sg18
V0
p645
sbag1
(g2
g3
Ntp646
Rp647
(dp648
g7
V211
p649
sg9
VQwilfish
p650
sg11
VHG,SS,
p651
sg13
VSwarm
p652
sg15
V40
p653
sg17
g653
sg18
V0
p654
sbag1
(g2
g3
Ntp655
Rp656
(dp657
g7
V264
p658
sg9
VLinoone
p659
sg11
VHG,SS,
p660
sg13
VHoenn
p661
sg15
g28
sg17
g28
sg18
V20
p662
sbag1
(g2
g3
Ntp663
Rp664
(dp665
g7
V293
p666
sg9
VWhismur
p667
sg11
VHG,SS,
p668
sg13
VHoenn
p669
sg15
g27
sg17
g28
sg18
V20
p670
sbag1
(g2
g3
Ntp671
Rp672
(dp673
g7
V399
p674
sg9
VBidoof
p675
sg11
VHG,SS,
p676
sg13
VSinnoh
p677
sg15
g28
sg17
g28
sg18
V20
p678
sbag1
(g2
g3
Ntp679
Rp680
(dp681
g7
V418
p682
sg9
VBuizel
p683
sg11
VHG,SS,
p684
sg13
VSinnoh
p685
sg15
g27
sg17
g28
sg18
V20
p686
sba.