(lp0
ccopy_reg
_reconstructor
p1
(c__main__
WildPokemon
p2
c__builtin__
object
p3
Ntp4
Rp5
(dp6
VpDexNo
p7
V129
p8
sVpSpecies
p9
VMagikarp
p10
sVpGames
p11
VG,S,C,
p12
sVpArea
p13
VFish Old
p14
sVpMinLevel
p15
V10
p16
sVpMaxLevel
p17
g16
sVpRate
p18
V85
p19
sbag1
(g2
g3
Ntp20
Rp21
(dp22
g7
V098
p23
sg9
VKrabby
p24
sg11
VG,S,C,
p25
sg13
VFish Old
p26
sg15
V10
p27
sg17
g27
sg18
V15
p28
sbag1
(g2
g3
Ntp29
Rp30
(dp31
g7
V098
p32
sg9
VKrabby
p33
sg11
VG,S,C,
p34
sg13
VFish Good
p35
sg15
V20
p36
sg17
g36
sg18
V55
p37
sbag1
(g2
g3
Ntp38
Rp39
(dp40
g7
V129
p41
sg9
VMagikarp
p42
sg11
VG,S,C,
p43
sg13
VFish Good
p44
sg15
V20
p45
sg17
g45
sg18
V35
p46
sbag1
(g2
g3
Ntp47
Rp48
(dp49
g7
V222
p50
sg9
VCorsola
p51
sg11
VG,S,C,
p52
sg13
VFish Good
p53
sg15
V20
p54
sg17
g54
sg18
V10
p55
sbag1
(g2
g3
Ntp56
Rp57
(dp58
g7
V120
p59
sg9
VStaryu
p60
sg11
VG,S,C,
p61
sg13
VFish Good
p62
sg15
V20
p63
sg17
g63
sg18
V10
p64
sbag1
(g2
g3
Ntp65
Rp66
(dp67
g7
V098
p68
sg9
VKrabby
p69
sg11
VG,S,C,
p70
sg13
VFish Super
p71
sg15
V40
p72
sg17
g72
sg18
V60
p73
sbag1
(g2
g3
Ntp74
Rp75
(dp76
g7
V222
p77
sg9
VCorsola
p78
sg11
VG,S,C,
p79
sg13
VFish Super
p80
sg15
V40
p81
sg17
g81
sg18
V30
p82
sbag1
(g2
g3
Ntp83
Rp84
(dp85
g7
V120
p86
sg9
VStaryu
p87
sg11
VG,S,C,
p88
sg13
VFish Super
p89
sg15
V40
p90
sg17
g90
sg18
V30
p91
sbag1
(g2
g3
Ntp92
Rp93
(dp94
g7
V099
p95
sg9
VKingler
p96
sg11
VG,S,C,
p97
sg13
VFish Super
p98
sg15
V40
p99
sg17
g99
sg18
V10
p100
sba.