(lp0
ccopy_reg
_reconstructor
p1
(c__main__
WildPokemon
p2
c__builtin__
object
p3
Ntp4
Rp5
(dp6
VpDexNo
p7
V017
p8
sVpSpecies
p9
VPidgeotto
p10
sVpGames
p11
VC,
p12
sVpArea
p13
VGrass
p14
sVpMinLevel
p15
V16
p16
sVpMaxLevel
p17
g16
sVpRate
p18
V10
p19
sbag1
(g2
g3
Ntp20
Rp21
(dp22
g7
V019
p23
sg9
VRattata
p24
sg11
VG,
p25
sg13
VGrass
p26
sg15
V16
p27
sg17
g27
sg18
V40
p28
sbag1
(g2
g3
Ntp29
Rp30
(dp31
g7
V019
p32
sg9
VRattata
p33
sg11
g12
sg13
VGrass
p34
sg15
V16
p35
sg17
g35
sg18
V30
p36
sbag1
(g2
g3
Ntp37
Rp38
(dp39
g7
V020
p40
sg9
VRaticate
p41
sg11
VG,S,C,
p42
sg13
VGrass
p43
sg15
V16
p44
sg17
g44
sg18
V30
p45
sbag1
(g2
g3
Ntp46
Rp47
(dp48
g7
V052
p49
sg9
VMeowth
p50
sg11
VS,
p51
sg13
VGrass
p52
sg15
V16
p53
sg17
g53
sg18
V40
p54
sbag1
(g2
g3
Ntp55
Rp56
(dp57
g7
V052
p58
sg9
VMeowth
p59
sg11
g12
sg13
VGrass
p60
sg15
V16
p61
sg17
g61
sg18
V40
p62
sbag1
(g2
g3
Ntp63
Rp64
(dp65
g7
V081
p66
sg9
VMagnemite
p67
sg11
VG,S,C,
p68
sg13
VGrass
p69
sg15
V16
p70
sg17
g70
sg18
V20
p71
sbag1
(g2
g3
Ntp72
Rp73
(dp74
g7
V083
p75
sg9
VFarfetch'd
p76
sg11
VG,S,
p77
sg13
VGrass
p78
sg15
V16
p79
sg17
g79
sg18
V10
p80
sbag1
(g2
g3
Ntp81
Rp82
(dp83
g7
V128
p84
sg9
VTauros
p85
sg11
VG,S,
p86
sg13
VGrass
p87
sg15
V13
p88
sg17
g88
sg18
V4
p89
sbag1
(g2
g3
Ntp90
Rp91
(dp92
g7
V128
p93
sg9
VTauros
p94
sg11
g12
sg13
VGrass
p95
sg15
V13
p96
sg17
g96
sg18
V5
p97
sbag1
(g2
g3
Ntp98
Rp99
(dp100
g7
V164
p101
sg9
VNoctowl
p102
sg11
g12
sg13
VGrass
p103
sg15
V16
p104
sg17
g104
sg18
V10
p105
sbag1
(g2
g3
Ntp106
Rp107
(dp108
g7
V209
p109
sg9
VSnubbull
p110
sg11
VG,S,
p111
sg13
VGrass
p112
sg15
V13
p113
sg17
g113
sg18
V1
p114
sbag1
(g2
g3
Ntp115
Rp116
(dp117
g7
V241
p118
sg9
VMiltank
p119
sg11
VG,S,
p120
sg13
VGrass
p121
sg15
V13
p122
sg17
g122
sg18
V5
p123
sbag1
(g2
g3
Ntp124
Rp125
(dp126
g7
V241
p127
sg9
VMiltank
p128
sg11
g12
sg13
VGrass
p129
sg15
V13
p130
sg17
g130
sg18
V5
p131
sbag1
(g2
g3
Ntp132
Rp133
(dp134
g7
V010
p135
sg9
VCaterpie
p136
sg11
g25
sg13
VHeadbutt
p137
sg15
V10
p138
sg17
g138
sg18
V65
p139
sbag1
(g2
g3
Ntp140
Rp141
(dp142
g7
V011
p143
sg9
VMetapod
p144
sg11
g25
sg13
VHeadbutt
p145
sg15
V10
p146
sg17
g146
sg18
V15
p147
sbag1
(g2
g3
Ntp148
Rp149
(dp150
g7
V012
p151
sg9
VButterfree
p152
sg11
g25
sg13
VHeadbutt
p153
sg15
V10
p154
sg17
g154
sg18
V5
p155
sbag1
(g2
g3
Ntp156
Rp157
(dp158
g7
V013
p159
sg9
VWeedle
p160
sg11
g51
sg13
VHeadbutt
p161
sg15
V10
p162
sg17
g162
sg18
V65
p163
sbag1
(g2
g3
Ntp164
Rp165
(dp166
g7
V014
p167
sg9
VKakuna
p168
sg11
g51
sg13
VHeadbutt
p169
sg15
V10
p170
sg17
g170
sg18
V15
p171
sbag1
(g2
g3
Ntp172
Rp173
(dp174
g7
V015
p175
sg9
VBeedrill
p176
sg11
g51
sg13
VHeadbutt
p177
sg15
V10
p178
sg17
g178
sg18
V5
p179
sbag1
(g2
g3
Ntp180
Rp181
(dp182
g7
V102
p183
sg9
VExeggcute
p184
sg11
VG,S,
p185
sg13
VHeadbutt
p186
sg15
V10
p187
sg17
g187
sg18
V15
p188
sbag1
(g2
g3
Ntp189
Rp190
(dp191
g7
V102
p192
sg9
VExeggcute
p193
sg11
g12
sg13
VHeadbutt
p194
sg15
V10
p195
sg17
g195
sg18
V20
p196
sbag1
(g2
g3
Ntp197
Rp198
(dp199
g7
V163
p200
sg9
VHoothoot
p201
sg11
g12
sg13
VHeadbutt
p202
sg15
V10
p203
sg17
g203
sg18
V50
p204
sbag1
(g2
g3
Ntp205
Rp206
(dp207
g7
V165
p208
sg9
VLedyba
p209
sg11
g12
sg13
VHeadbutt
p210
sg15
V10
p211
sg17
g211
sg18
V15
p212
sbag1
(g2
g3
Ntp213
Rp214
(dp215
g7
V167
p216
sg9
VSpinarak
p217
sg11
g12
sg13
VHeadbutt
p218
sg15
V10
p219
sg17
g219
sg18
V15
p220
sbag1
(g2
g3
Ntp221
Rp222
(dp223
g7
V010
p224
sg9
VCaterpie
p225
sg11
g25
sg13
VHeadbutt
p226
sg15
V10
p227
sg17
g227
sg18
V50
p228
sbag1
(g2
g3
Ntp229
Rp230
(dp231
g7
V012
p232
sg9
VButterfree
p233
sg11
g25
sg13
VHeadbutt
p234
sg15
V10
p235
sg17
g235
sg18
V5
p236
sbag1
(g2
g3
Ntp237
Rp238
(dp239
g7
V013
p240
sg9
VWeedle
p241
sg11
g51
sg13
VHeadbutt
p242
sg15
V10
p243
sg17
g243
sg18
V50
p244
sbag1
(g2
g3
Ntp245
Rp246
(dp247
g7
V015
p248
sg9
VBeedrill
p249
sg11
g51
sg13
VHeadbutt
p250
sg15
V10
p251
sg17
g251
sg18
V5
p252
sbag1
(g2
g3
Ntp253
Rp254
(dp255
g7
V102
p256
sg9
VExeggcute
p257
sg11
VG,S,
p258
sg13
VHeadbutt
p259
sg15
V10
p260
sg17
g260
sg18
V15
p261
sbag1
(g2
g3
Ntp262
Rp263
(dp264
g7
V102
p265
sg9
VExeggcute
p266
sg11
g12
sg13
VHeadbutt
p267
sg15
V10
p268
sg17
g268
sg18
V20
p269
sbag1
(g2
g3
Ntp270
Rp271
(dp272
g7
V163
p273
sg9
VHoothoot
p274
sg11
g12
sg13
VHeadbutt
p275
sg15
V10
p276
sg17
g276
sg18
V50
p277
sbag1
(g2
g3
Ntp278
Rp279
(dp280
g7
V204
p281
sg9
VPineco
p282
sg11
VG,S,C,
p283
sg13
VHeadbutt
p284
sg15
V10
p285
sg17
g285
sg18
V30
p286
sbag1
(g2
g3
Ntp287
Rp288
(dp289
g7
V019
p290
sg9
VRattata
p291
sg11
g25
sg13
VSwarm
p292
sg15
V16
p293
sg17
g293
sg18
V10
p294
sbag1
(g2
g3
Ntp295
Rp296
(dp297
g7
V020
p298
sg9
VRaticate
p299
sg11
g25
sg13
VSwarm
p300
sg15
V16
p301
sg17
g301
sg18
V30
p302
sbag1
(g2
g3
Ntp303
Rp304
(dp305
g7
V052
p306
sg9
VMeowth
p307
sg11
g51
sg13
VSwarm
p308
sg15
V16
p309
sg17
g309
sg18
V40
p310
sbag1
(g2
g3
Ntp311
Rp312
(dp313
g7
V081
p314
sg9
VMagnemite
p315
sg11
VG,S,
p316
sg13
VSwarm
p317
sg15
V16
p318
sg17
g318
sg18
V20
p319
sbag1
(g2
g3
Ntp320
Rp321
(dp322
g7
V083
p323
sg9
VFarfetch'd
p324
sg11
VG,S,
p325
sg13
VSwarm
p326
sg15
V16
p327
sg17
g327
sg18
V10
p328
sbag1
(g2
g3
Ntp329
Rp330
(dp331
g7
V128
p332
sg9
VTauros
p333
sg11
VG,S,
p334
sg13
VSwarm
p335
sg15
V13
p336
sg17
g336
sg18
V5
p337
sbag1
(g2
g3
Ntp338
Rp339
(dp340
g7
V209
p341
sg9
VSnubbull
p342
sg11
VG,S,
p343
sg13
VSwarm
p344
sg15
V16
p345
sg17
g345
sg18
V30
p346
sbag1
(g2
g3
Ntp347
Rp348
(dp349
g7
V241
p350
sg9
VMiltank
p351
sg11
VG,S,
p352
sg13
VSwarm
p353
sg15
V13
p354
sg17
g354
sg18
V5
p355
sbag1
(g2
g3
Ntp356
Rp357
(dp358
g7
V019
p359
sg9
VRattata
p360
sg11
VHG,
p361
sg13
VGrass
p362
sg15
V16
p363
sg17
g363
sg18
V40
p364
sbag1
(g2
g3
Ntp365
Rp366
(dp367
g7
V020
p368
sg9
VRaticate
p369
sg11
VHG,SS,
p370
sg13
VGrass
p371
sg15
V16
p372
sg17
g372
sg18
V30
p373
sbag1
(g2
g3
Ntp374
Rp375
(dp376
g7
V052
p377
sg9
VMeowth
p378
sg11
VSS,
p379
sg13
VGrass
p380
sg15
V16
p381
sg17
g381
sg18
V40
p382
sbag1
(g2
g3
Ntp383
Rp384
(dp385
g7
V081
p386
sg9
VMagnemite
p387
sg11
VHG,SS,
p388
sg13
VGrass
p389
sg15
V16
p390
sg17
g390
sg18
V20
p391
sbag1
(g2
g3
Ntp392
Rp393
(dp394
g7
V083
p395
sg9
VFarfetch'd
p396
sg11
VHG,SS,
p397
sg13
VGrass
p398
sg15
V16
p399
sg17
g399
sg18
V10
p400
sbag1
(g2
g3
Ntp401
Rp402
(dp403
g7
V128
p404
sg9
VTauros
p405
sg11
VHG,SS,
p406
sg13
VGrass
p407
sg15
V13
p408
sg17
g408
sg18
V4
p409
sbag1
(g2
g3
Ntp410
Rp411
(dp412
g7
V209
p413
sg9
VSnubbull
p414
sg11
VHG,SS,
p415
sg13
VGrass
p416
sg15
V13
p417
sg17
g417
sg18
V1
p418
sbag1
(g2
g3
Ntp419
Rp420
(dp421
g7
V241
p422
sg9
VMiltank
p423
sg11
VHG,SS,
p424
sg13
VGrass
p425
sg15
V13
p426
sg17
g426
sg18
V5
p427
sbag1
(g2
g3
Ntp428
Rp429
(dp430
g7
V102
p431
sg9
VExeggcute
p432
sg11
VHG,SS,
p433
sg13
VHeadbutt
p434
sg15
V13
p435
sg17
V16
p436
sg18
V20
p437
sbag1
(g2
g3
Ntp438
Rp439
(dp440
g7
V163
p441
sg9
VHoothoot
p442
sg11
VHG,SS,
p443
sg13
VHeadbutt
p444
sg15
V13
p445
sg17
V16
p446
sg18
V50
p447
sbag1
(g2
g3
Ntp448
Rp449
(dp450
g7
V165
p451
sg9
VLedyba
p452
sg11
g379
sg13
VHeadbutt
p453
sg15
V15
p454
sg17
V16
p455
sg18
V30
p456
sbag1
(g2
g3
Ntp457
Rp458
(dp459
g7
V167
p460
sg9
VSpinarak
p461
sg11
g361
sg13
VHeadbutt
p462
sg15
V15
p463
sg17
V16
p464
sg18
V30
p465
sbag1
(g2
g3
Ntp466
Rp467
(dp468
g7
V204
p469
sg9
VPineco
p470
sg11
VHG,SS,
p471
sg13
VHeadbutt
p472
sg15
V13
p473
sg17
V14
p474
sg18
V30
p475
sbag1
(g2
g3
Ntp476
Rp477
(dp478
g7
V102
p479
sg9
VExeggcute
p480
sg11
VHG,SS,
p481
sg13
VHeadbutt
p482
sg15
V18
p483
sg17
V25
p484
sg18
V65
p485
sbag1
(g2
g3
Ntp486
Rp487
(dp488
g7
V412
p489
sg9
VBurmy
p490
sg11
VHG,SS,
p491
sg13
VHeadbutt
p492
sg15
V18
p493
sg17
V25
p494
sg18
V35
p495
sbag1
(g2
g3
Ntp496
Rp497
(dp498
g7
V209
p499
sg9
VSnubbull
p500
sg11
VHG,SS,
p501
sg13
VSwarm
p502
sg15
V13
p503
sg17
V16
p504
sg18
V40
p505
sbag1
(g2
g3
Ntp506
Rp507
(dp508
g7
V311
p509
sg9
VPlusle
p510
sg11
VHG,SS,
p511
sg13
VHoenn
p512
sg15
V16
p513
sg17
g513
sg18
V20
p514
sbag1
(g2
g3
Ntp515
Rp516
(dp517
g7
V312
p518
sg9
VMinun
p519
sg11
VHG,SS,
p520
sg13
VHoenn
p521
sg15
V16
p522
sg17
g522
sg18
V20
p523
sbag1
(g2
g3
Ntp524
Rp525
(dp526
g7
V403
p527
sg9
VShinx
p528
sg11
VHG,SS,
p529
sg13
VSinnoh
p530
sg15
V16
p531
sg17
g531
sg18
V40
p532
sba.