(lp0
ccopy_reg
_reconstructor
p1
(c__main__
WildPokemon
p2
c__builtin__
object
p3
Ntp4
Rp5
(dp6
VpDexNo
p7
V019
p8
sVpSpecies
p9
VRattata
p10
sVpGames
p11
VC,
p12
sVpArea
p13
VGrass
p14
sVpMinLevel
p15
V15
p16
sVpMaxLevel
p17
g16
sVpRate
p18
V20
p19
sbag1
(g2
g3
Ntp20
Rp21
(dp22
g7
V019
p23
sg9
VRattata
p24
sg11
g12
sg13
VGrass
p25
sg15
V13
p26
sg17
g26
sg18
V30
p27
sbag1
(g2
g3
Ntp28
Rp29
(dp30
g7
V020
p31
sg9
VRaticate
p32
sg11
g12
sg13
VGrass
p33
sg15
V16
p34
sg17
g34
sg18
V10
p35
sbag1
(g2
g3
Ntp36
Rp37
(dp38
g7
V020
p39
sg9
VRaticate
p40
sg11
g12
sg13
VGrass
p41
sg15
V15
p42
sg17
g42
sg18
V20
p43
sbag1
(g2
g3
Ntp44
Rp45
(dp46
g7
V021
p47
sg9
VSpearow
p48
sg11
VG,
p49
sg13
VGrass
p50
sg15
V14
p51
sg17
V16
p52
sg18
V30
p53
sbag1
(g2
g3
Ntp54
Rp55
(dp56
g7
V021
p57
sg9
VSpearow
p58
sg11
VS,
p59
sg13
VGrass
p60
sg15
V14
p61
sg17
V16
p62
sg18
V40
p63
sbag1
(g2
g3
Ntp64
Rp65
(dp66
g7
V021
p67
sg9
VSpearow
p68
sg11
g12
sg13
VGrass
p69
sg15
V14
p70
sg17
g70
sg18
V30
p71
sbag1
(g2
g3
Ntp72
Rp73
(dp74
g7
V022
p75
sg9
VFearow
p76
sg11
g12
sg13
VGrass
p77
sg15
V16
p78
sg17
g78
sg18
V5
p79
sbag1
(g2
g3
Ntp80
Rp81
(dp82
g7
V023
p83
sg9
VEkans
p84
sg11
g12
sg13
VGrass
p85
sg15
V13
p86
sg17
g86
sg18
V30
p87
sbag1
(g2
g3
Ntp88
Rp89
(dp90
g7
V024
p91
sg9
VArbok
p92
sg11
g12
sg13
VGrass
p93
sg15
V15
p94
sg17
g94
sg18
V5
p95
sbag1
(g2
g3
Ntp96
Rp97
(dp98
g7
V041
p99
sg9
VZubat
p100
sg11
g49
sg13
VGrass
p101
sg15
V14
p102
sg17
V16
p103
sg18
V30
p104
sbag1
(g2
g3
Ntp105
Rp106
(dp107
g7
V041
p108
sg9
VZubat
p109
sg11
g59
sg13
VGrass
p110
sg15
V14
p111
sg17
V16
p112
sg18
V40
p113
sbag1
(g2
g3
Ntp114
Rp115
(dp116
g7
V041
p117
sg9
VZubat
p118
sg11
g12
sg13
VGrass
p119
sg15
V14
p120
sg17
g120
sg18
V30
p121
sbag1
(g2
g3
Ntp122
Rp123
(dp124
g7
V042
p125
sg9
VGolbat
p126
sg11
g12
sg13
VGrass
p127
sg15
V16
p128
sg17
g128
sg18
V15
p129
sbag1
(g2
g3
Ntp130
Rp131
(dp132
g7
V056
p133
sg9
VMankey
p134
sg11
g49
sg13
VGrass
p135
sg15
V15
p136
sg17
g136
sg18
V30
p137
sbag1
(g2
g3
Ntp138
Rp139
(dp140
g7
V179
p141
sg9
VMareep
p142
sg11
g49
sg13
VGrass
p143
sg15
V13
p144
sg17
g144
sg18
V30
p145
sbag1
(g2
g3
Ntp146
Rp147
(dp148
g7
V179
p149
sg9
VMareep
p150
sg11
g59
sg13
VGrass
p151
sg15
V13
p152
sg17
V15
p153
sg18
V50
p154
sbag1
(g2
g3
Ntp155
Rp156
(dp157
g7
V180
p158
sg9
VFlaaffy
p159
sg11
VG,S,
p160
sg13
VGrass
p161
sg15
V15
p162
sg17
V17
p163
sg18
V10
p164
sbag1
(g2
g3
Ntp165
Rp166
(dp167
g7
V183
p168
sg9
VMarill
p169
sg11
g12
sg13
VGrass
p170
sg15
V15
p171
sg17
g171
sg18
V5
p172
sbag1
(g2
g3
Ntp173
Rp174
(dp175
g7
V118
p176
sg9
VGoldeen
p177
sg11
VG,S,C,
p178
sg13
VSurf
p179
sg15
V15
p180
sg17
V24
p181
sg18
V90
p182
sbag1
(g2
g3
Ntp183
Rp184
(dp185
g7
V119
p186
sg9
VSeaking
p187
sg11
VG,S,C,
p188
sg13
VSurf
p189
sg15
V20
p190
sg17
V24
p191
sg18
V10
p192
sbag1
(g2
g3
Ntp193
Rp194
(dp195
g7
V118
p196
sg9
VGoldeen
p197
sg11
VG,S,C,
p198
sg13
VFish Old
p199
sg15
V10
p200
sg17
g200
sg18
V15
p201
sbag1
(g2
g3
Ntp202
Rp203
(dp204
g7
V129
p205
sg9
VMagikarp
p206
sg11
VG,S,C,
p207
sg13
VFish Old
p208
sg15
V10
p209
sg17
g209
sg18
V85
p210
sbag1
(g2
g3
Ntp211
Rp212
(dp213
g7
V118
p214
sg9
VGoldeen
p215
sg11
VG,S,C,
p216
sg13
VFish Good
p217
sg15
V20
p218
sg17
g218
sg18
V65
p219
sbag1
(g2
g3
Ntp220
Rp221
(dp222
g7
V129
p223
sg9
VMagikarp
p224
sg11
VG,S,C,
p225
sg13
VFish Good
p226
sg15
V20
p227
sg17
g227
sg18
V35
p228
sbag1
(g2
g3
Ntp229
Rp230
(dp231
g7
V118
p232
sg9
VGoldeen
p233
sg11
VG,S,C,
p234
sg13
VFish Super
p235
sg15
V40
p236
sg17
g236
sg18
V70
p237
sbag1
(g2
g3
Ntp238
Rp239
(dp240
g7
V119
p241
sg9
VSeaking
p242
sg11
VG,S,C,
p243
sg13
VFish Super
p244
sg15
V40
p245
sg17
g245
sg18
V10
p246
sbag1
(g2
g3
Ntp247
Rp248
(dp249
g7
V129
p250
sg9
VMagikarp
p251
sg11
VG,S,C,
p252
sg13
VFish Super
p253
sg15
V40
p254
sg17
g254
sg18
V20
p255
sbag1
(g2
g3
Ntp256
Rp257
(dp258
g7
V021
p259
sg9
VSpearow
p260
sg11
VG,S,
p261
sg13
VHeadbutt
p262
sg15
V10
p263
sg17
g263
sg18
V80
p264
sbag1
(g2
g3
Ntp265
Rp266
(dp267
g7
V021
p268
sg9
VSpearow
p269
sg11
g12
sg13
VHeadbutt
p270
sg15
V10
p271
sg17
g271
sg18
V65
p272
sbag1
(g2
g3
Ntp273
Rp274
(dp275
g7
V023
p276
sg9
VEkans
p277
sg11
g12
sg13
VHeadbutt
p278
sg15
V10
p279
sg17
g279
sg18
V15
p280
sbag1
(g2
g3
Ntp281
Rp282
(dp283
g7
V190
p284
sg9
VAipom
p285
sg11
VG,S,C,
p286
sg13
VHeadbutt
p287
sg15
V10
p288
sg17
g288
sg18
V20
p289
sbag1
(g2
g3
Ntp290
Rp291
(dp292
g7
V021
p293
sg9
VSpearow
p294
sg11
VG,S,C,
p295
sg13
VHeadbutt
p296
sg15
V10
p297
sg17
g297
sg18
V50
p298
sbag1
(g2
g3
Ntp299
Rp300
(dp301
g7
V190
p302
sg9
VAipom
p303
sg11
VG,S,C,
p304
sg13
VHeadbutt
p305
sg15
V10
p306
sg17
g306
sg18
V20
p307
sbag1
(g2
g3
Ntp308
Rp309
(dp310
g7
V214
p311
sg9
VHeracross
p312
sg11
VG,S,C,
p313
sg13
VHeadbutt
p314
sg15
V10
p315
sg17
g315
sg18
V30
p316
sbag1
(g2
g3
Ntp317
Rp318
(dp319
g7
V021
p320
sg9
VSpearow
p321
sg11
VHG,
p322
sg13
VGrass
p323
sg15
V14
p324
sg17
V16
p325
sg18
V30
p326
sbag1
(g2
g3
Ntp327
Rp328
(dp329
g7
V021
p330
sg9
VSpearow
p331
sg11
VSS,
p332
sg13
VGrass
p333
sg15
V14
p334
sg17
V16
p335
sg18
V40
p336
sbag1
(g2
g3
Ntp337
Rp338
(dp339
g7
V041
p340
sg9
VZubat
p341
sg11
g322
sg13
VGrass
p342
sg15
V14
p343
sg17
V16
p344
sg18
V30
p345
sbag1
(g2
g3
Ntp346
Rp347
(dp348
g7
V041
p349
sg9
VZubat
p350
sg11
g332
sg13
VGrass
p351
sg15
V14
p352
sg17
V16
p353
sg18
V40
p354
sbag1
(g2
g3
Ntp355
Rp356
(dp357
g7
V056
p358
sg9
VMankey
p359
sg11
g322
sg13
VGrass
p360
sg15
V15
p361
sg17
g361
sg18
V30
p362
sbag1
(g2
g3
Ntp363
Rp364
(dp365
g7
V179
p366
sg9
VMareep
p367
sg11
g322
sg13
VGrass
p368
sg15
V13
p369
sg17
g369
sg18
V30
p370
sbag1
(g2
g3
Ntp371
Rp372
(dp373
g7
V179
p374
sg9
VMareep
p375
sg11
g332
sg13
VGrass
p376
sg15
V13
p377
sg17
V15
p378
sg18
V50
p379
sbag1
(g2
g3
Ntp380
Rp381
(dp382
g7
V180
p383
sg9
VFlaaffy
p384
sg11
VHG,SS,
p385
sg13
VGrass
p386
sg15
V15
p387
sg17
V17
p388
sg18
V10
p389
sbag1
(g2
g3
Ntp390
Rp391
(dp392
g7
V118
p393
sg9
VGoldeen
p394
sg11
VHG,SS,
p395
sg13
VSurf
p396
sg15
V10
p397
sg17
V25
p398
sg18
V90
p399
sbag1
(g2
g3
Ntp400
Rp401
(dp402
g7
V119
p403
sg9
VSeaking
p404
sg11
VHG,SS,
p405
sg13
VSurf
p406
sg15
V15
p407
sg17
V25
p408
sg18
V10
p409
sbag1
(g2
g3
Ntp410
Rp411
(dp412
g7
V118
p413
sg9
VGoldeen
p414
sg11
VHG,SS,
p415
sg13
VFish Old
p416
sg15
V10
p417
sg17
g417
sg18
V15
p418
sbag1
(g2
g3
Ntp419
Rp420
(dp421
g7
V129
p422
sg9
VMagikarp
p423
sg11
VHG,SS,
p424
sg13
VFish Old
p425
sg15
V10
p426
sg17
g426
sg18
V85
p427
sbag1
(g2
g3
Ntp428
Rp429
(dp430
g7
V118
p431
sg9
VGoldeen
p432
sg11
VHG,SS,
p433
sg13
VFish Good
p434
sg15
V20
p435
sg17
g435
sg18
V60
p436
sbag1
(g2
g3
Ntp437
Rp438
(dp439
g7
V129
p440
sg9
VMagikarp
p441
sg11
VHG,SS,
p442
sg13
VFish Good
p443
sg15
V20
p444
sg17
g444
sg18
V40
p445
sbag1
(g2
g3
Ntp446
Rp447
(dp448
g7
V118
p449
sg9
VGoldeen
p450
sg11
VHG,SS,
p451
sg13
VFish Super
p452
sg15
V40
p453
sg17
g453
sg18
V70
p454
sbag1
(g2
g3
Ntp455
Rp456
(dp457
g7
V119
p458
sg9
VSeaking
p459
sg11
VHG,SS,
p460
sg13
VFish Super
p461
sg15
V40
p462
sg17
g462
sg18
V10
p463
sbag1
(g2
g3
Ntp464
Rp465
(dp466
g7
V129
p467
sg9
VMagikarp
p468
sg11
VHG,SS,
p469
sg13
VFish Super
p470
sg15
V40
p471
sg17
g471
sg18
V20
p472
sbag1
(g2
g3
Ntp473
Rp474
(dp475
g7
V021
p476
sg9
VSpearow
p477
sg11
VHG,SS,
p478
sg13
VHeadbutt
p479
sg15
V13
p480
sg17
V16
p481
sg18
V50
p482
sbag1
(g2
g3
Ntp483
Rp484
(dp485
g7
V190
p486
sg9
VAipom
p487
sg11
VHG,SS,
p488
sg13
VHeadbutt
p489
sg15
V13
p490
sg17
V16
p491
sg18
V20
p492
sbag1
(g2
g3
Ntp493
Rp494
(dp495
g7
V214
p496
sg9
VHeracross
p497
sg11
VHG,SS,
p498
sg13
VHeadbutt
p499
sg15
V13
p500
sg17
V14
p501
sg18
V30
p502
sbag1
(g2
g3
Ntp503
Rp504
(dp505
g7
V264
p506
sg9
VLinoone
p507
sg11
VHG,SS,
p508
sg13
VHoenn
p509
sg15
V14
p510
sg17
g510
sg18
V20
p511
sbag1
(g2
g3
Ntp512
Rp513
(dp514
g7
V293
p515
sg9
VWhismur
p516
sg11
VHG,SS,
p517
sg13
VHoenn
p518
sg15
V13
p519
sg17
V14
p520
sg18
V20
p521
sbag1
(g2
g3
Ntp522
Rp523
(dp524
g7
V399
p525
sg9
VBidoof
p526
sg11
VHG,SS,
p527
sg13
VSinnoh
p528
sg15
V14
p529
sg17
g529
sg18
V20
p530
sbag1
(g2
g3
Ntp531
Rp532
(dp533
g7
V418
p534
sg9
VBuizel
p535
sg11
VHG,SS,
p536
sg13
VSinnoh
p537
sg15
V13
p538
sg17
V14
p539
sg18
V20
p540
sba.