(lp0
ccopy_reg
_reconstructor
p1
(c__main__
WildPokemon
p2
c__builtin__
object
p3
Ntp4
Rp5
(dp6
VpDexNo
p7
V016
p8
sVpSpecies
p9
VPidgey
p10
sVpGames
p11
VC,
p12
sVpArea
p13
VGrass
p14
sVpMinLevel
p15
V12
p16
sVpMaxLevel
p17
g16
sVpRate
p18
V20
p19
sbag1
(g2
g3
Ntp20
Rp21
(dp22
g7
V019
p23
sg9
VRattata
p24
sg11
VG,S,
p25
sg13
VGrass
p26
sg15
V11
p27
sg17
V13
p28
sg18
V35
p29
sbag1
(g2
g3
Ntp30
Rp31
(dp32
g7
V019
p33
sg9
VRattata
p34
sg11
g12
sg13
VGrass
p35
sg15
V11
p36
sg17
g36
sg18
V30
p37
sbag1
(g2
g3
Ntp38
Rp39
(dp40
g7
V039
p41
sg9
VJigglypuff
p42
sg11
g12
sg13
VGrass
p43
sg15
V12
p44
sg17
g44
sg18
V5
p45
sbag1
(g2
g3
Ntp46
Rp47
(dp48
g7
V063
p49
sg9
VAbra
p50
sg11
VG,S,C,
p51
sg13
VGrass
p52
sg15
V10
p53
sg17
g53
sg18
V10
p54
sbag1
(g2
g3
Ntp55
Rp56
(dp57
g7
V096
p58
sg9
VDrowzee
p59
sg11
VG,S,
p60
sg13
VGrass
p61
sg15
V10
p62
sg17
V12
p63
sg18
V50
p64
sbag1
(g2
g3
Ntp65
Rp66
(dp67
g7
V096
p68
sg9
VDrowzee
p69
sg11
g12
sg13
VGrass
p70
sg15
V12
p71
sg17
g71
sg18
V30
p72
sbag1
(g2
g3
Ntp73
Rp74
(dp75
g7
V132
p76
sg9
VDitto
p77
sg11
VG,S,C,
p78
sg13
VGrass
p79
sg15
V10
p80
sg17
g80
sg18
V5
p81
sbag1
(g2
g3
Ntp82
Rp83
(dp84
g7
V163
p85
sg9
VHoothoot
p86
sg11
g12
sg13
VGrass
p87
sg15
V12
p88
sg17
g88
sg18
V20
p89
sbag1
(g2
g3
Ntp90
Rp91
(dp92
g7
V209
p93
sg9
VSnubbull
p94
sg11
g12
sg13
VGrass
p95
sg15
V10
p96
sg17
g96
sg18
V30
p97
sbag1
(g2
g3
Ntp98
Rp99
(dp100
g7
V072
p101
sg9
VTentacool
p102
sg11
VG,S,C,
p103
sg13
VSurf
p104
sg15
V15
p105
sg17
V24
p106
sg18
V90
p107
sbag1
(g2
g3
Ntp108
Rp109
(dp110
g7
V073
p111
sg9
VTentacruel
p112
sg11
VG,S,C,
p113
sg13
VSurf
p114
sg15
V20
p115
sg17
V24
p116
sg18
V10
p117
sbag1
(g2
g3
Ntp118
Rp119
(dp120
g7
V098
p121
sg9
VKrabby
p122
sg11
VG,S,C,
p123
sg13
VFish Old
p124
sg15
V10
p125
sg17
g125
sg18
V15
p126
sbag1
(g2
g3
Ntp127
Rp128
(dp129
g7
V129
p130
sg9
VMagikarp
p131
sg11
VG,S,C,
p132
sg13
VFish Old
p133
sg15
V10
p134
sg17
g134
sg18
V85
p135
sbag1
(g2
g3
Ntp136
Rp137
(dp138
g7
V098
p139
sg9
VKrabby
p140
sg11
VG,S,C,
p141
sg13
VFish Good
p142
sg15
V20
p143
sg17
g143
sg18
V55
p144
sbag1
(g2
g3
Ntp145
Rp146
(dp147
g7
V120
p148
sg9
VStaryu
p149
sg11
VG,S,C,
p150
sg13
VFish Good
p151
sg15
V20
p152
sg17
g152
sg18
V10
p153
sbag1
(g2
g3
Ntp154
Rp155
(dp156
g7
V129
p157
sg9
VMagikarp
p158
sg11
VG,S,C,
p159
sg13
VFish Good
p160
sg15
V20
p161
sg17
g161
sg18
V35
p162
sbag1
(g2
g3
Ntp163
Rp164
(dp165
g7
V222
p166
sg9
VCorsola
p167
sg11
VG,S,C,
p168
sg13
VFish Good
p169
sg15
V20
p170
sg17
g170
sg18
V10
p171
sbag1
(g2
g3
Ntp172
Rp173
(dp174
g7
V098
p175
sg9
VKrabby
p176
sg11
VG,S,C,
p177
sg13
VFish Super
p178
sg15
V40
p179
sg17
g179
sg18
V60
p180
sbag1
(g2
g3
Ntp181
Rp182
(dp183
g7
V099
p184
sg9
VKingler
p185
sg11
VG,S,C,
p186
sg13
VFish Super
p187
sg15
V40
p188
sg17
g188
sg18
V10
p189
sbag1
(g2
g3
Ntp190
Rp191
(dp192
g7
V120
p193
sg9
VStaryu
p194
sg11
VG,S,C,
p195
sg13
VFish Super
p196
sg15
V40
p197
sg17
g197
sg18
V30
p198
sbag1
(g2
g3
Ntp199
Rp200
(dp201
g7
V222
p202
sg9
VCorsola
p203
sg11
VG,S,C,
p204
sg13
VFish Super
p205
sg15
V40
p206
sg17
g206
sg18
V30
p207
sbag1
(g2
g3
Ntp208
Rp209
(dp210
g7
V010
p211
sg9
VCaterpie
p212
sg11
VG,
p213
sg13
VHeadbutt
p214
sg15
V10
p215
sg17
g215
sg18
V65
p216
sbag1
(g2
g3
Ntp217
Rp218
(dp219
g7
V011
p220
sg9
VMetapod
p221
sg11
g213
sg13
VHeadbutt
p222
sg15
V10
p223
sg17
g223
sg18
V15
p224
sbag1
(g2
g3
Ntp225
Rp226
(dp227
g7
V012
p228
sg9
VButterfree
p229
sg11
g213
sg13
VHeadbutt
p230
sg15
V10
p231
sg17
g231
sg18
V5
p232
sbag1
(g2
g3
Ntp233
Rp234
(dp235
g7
V013
p236
sg9
VWeedle
p237
sg11
VS,
p238
sg13
VHeadbutt
p239
sg15
V10
p240
sg17
g240
sg18
V65
p241
sbag1
(g2
g3
Ntp242
Rp243
(dp244
g7
V014
p245
sg9
VKakuna
p246
sg11
g238
sg13
VHeadbutt
p247
sg15
V10
p248
sg17
g248
sg18
V15
p249
sbag1
(g2
g3
Ntp250
Rp251
(dp252
g7
V015
p253
sg9
VBeedrill
p254
sg11
g238
sg13
VHeadbutt
p255
sg15
V10
p256
sg17
g256
sg18
V5
p257
sbag1
(g2
g3
Ntp258
Rp259
(dp260
g7
V102
p261
sg9
VExeggcute
p262
sg11
VG,S,
p263
sg13
VHeadbutt
p264
sg15
V10
p265
sg17
g265
sg18
V15
p266
sbag1
(g2
g3
Ntp267
Rp268
(dp269
g7
V102
p270
sg9
VExeggcute
p271
sg11
g12
sg13
VHeadbutt
p272
sg15
V10
p273
sg17
g273
sg18
V20
p274
sbag1
(g2
g3
Ntp275
Rp276
(dp277
g7
V163
p278
sg9
VHoothoot
p279
sg11
g12
sg13
VHeadbutt
p280
sg15
V10
p281
sg17
g281
sg18
V50
p282
sbag1
(g2
g3
Ntp283
Rp284
(dp285
g7
V165
p286
sg9
VLedyba
p287
sg11
g12
sg13
VHeadbutt
p288
sg15
V10
p289
sg17
g289
sg18
V15
p290
sbag1
(g2
g3
Ntp291
Rp292
(dp293
g7
V167
p294
sg9
VSpinarak
p295
sg11
g12
sg13
VHeadbutt
p296
sg15
V10
p297
sg17
g297
sg18
V15
p298
sbag1
(g2
g3
Ntp299
Rp300
(dp301
g7
V010
p302
sg9
VCaterpie
p303
sg11
g213
sg13
VHeadbutt
p304
sg15
V10
p305
sg17
g305
sg18
V50
p306
sbag1
(g2
g3
Ntp307
Rp308
(dp309
g7
V012
p310
sg9
VButterfree
p311
sg11
g213
sg13
VHeadbutt
p312
sg15
V10
p313
sg17
g313
sg18
V5
p314
sbag1
(g2
g3
Ntp315
Rp316
(dp317
g7
V013
p318
sg9
VWeedle
p319
sg11
g238
sg13
VHeadbutt
p320
sg15
V10
p321
sg17
g321
sg18
V50
p322
sbag1
(g2
g3
Ntp323
Rp324
(dp325
g7
V015
p326
sg9
VBeedrill
p327
sg11
g238
sg13
VHeadbutt
p328
sg15
V10
p329
sg17
g329
sg18
V5
p330
sbag1
(g2
g3
Ntp331
Rp332
(dp333
g7
V102
p334
sg9
VExeggcute
p335
sg11
VG,S,
p336
sg13
VHeadbutt
p337
sg15
V10
p338
sg17
g338
sg18
V15
p339
sbag1
(g2
g3
Ntp340
Rp341
(dp342
g7
V102
p343
sg9
VExeggcute
p344
sg11
g12
sg13
VHeadbutt
p345
sg15
V10
p346
sg17
g346
sg18
V20
p347
sbag1
(g2
g3
Ntp348
Rp349
(dp350
g7
V163
p351
sg9
VHoothoot
p352
sg11
g12
sg13
VHeadbutt
p353
sg15
V10
p354
sg17
g354
sg18
V50
p355
sbag1
(g2
g3
Ntp356
Rp357
(dp358
g7
V204
p359
sg9
VPineco
p360
sg11
VG,S,C,
p361
sg13
VHeadbutt
p362
sg15
V10
p363
sg17
g363
sg18
V30
p364
sbag1
(g2
g3
Ntp365
Rp366
(dp367
g7
V172
p368
sg9
VPichu
p369
sg11
g12
sg13
VEgg
p370
sg15
V5
p371
sg17
g371
sg18
V0
p372
sbag1
(g2
g3
Ntp373
Rp374
(dp375
g7
V173
p376
sg9
VCleffa
p377
sg11
g12
sg13
VEgg
p378
sg15
g371
sg17
g371
sg18
V0
p379
sbag1
(g2
g3
Ntp380
Rp381
(dp382
g7
V174
p383
sg9
VIgglybuff
p384
sg11
g12
sg13
VEgg
p385
sg15
g371
sg17
g371
sg18
V0
p386
sbag1
(g2
g3
Ntp387
Rp388
(dp389
g7
V236
p390
sg9
VTyrogue
p391
sg11
g12
sg13
VEgg
p392
sg15
g371
sg17
g371
sg18
V0
p393
sbag1
(g2
g3
Ntp394
Rp395
(dp396
g7
V238
p397
sg9
VSmoochum
p398
sg11
g12
sg13
VEgg
p399
sg15
g371
sg17
g371
sg18
V0
p400
sbag1
(g2
g3
Ntp401
Rp402
(dp403
g7
V239
p404
sg9
VElekid
p405
sg11
g12
sg13
VEgg
p406
sg15
g371
sg17
g371
sg18
V0
p407
sbag1
(g2
g3
Ntp408
Rp409
(dp410
g7
V240
p411
sg9
VMagby
p412
sg11
g12
sg13
VEgg
p413
sg15
g371
sg17
g371
sg18
V0
p414
sbag1
(g2
g3
Ntp415
Rp416
(dp417
g7
V019
p418
sg9
VRattata
p419
sg11
VHG,SS,
p420
sg13
VGrass
p421
sg15
V11
p422
sg17
V13
p423
sg18
V35
p424
sbag1
(g2
g3
Ntp425
Rp426
(dp427
g7
V063
p428
sg9
VAbra
p429
sg11
VHG,SS,
p430
sg13
VGrass
p431
sg15
V10
p432
sg17
g432
sg18
V10
p433
sbag1
(g2
g3
Ntp434
Rp435
(dp436
g7
V096
p437
sg9
VDrowzee
p438
sg11
VHG,SS,
p439
sg13
VGrass
p440
sg15
V10
p441
sg17
V12
p442
sg18
V50
p443
sbag1
(g2
g3
Ntp444
Rp445
(dp446
g7
V132
p447
sg9
VDitto
p448
sg11
VHG,SS,
p449
sg13
VGrass
p450
sg15
V10
p451
sg17
g451
sg18
V5
p452
sbag1
(g2
g3
Ntp453
Rp454
(dp455
g7
V072
p456
sg9
VTentacool
p457
sg11
VHG,SS,
p458
sg13
VSurf
p459
sg15
V10
p460
sg17
V25
p461
sg18
V90
p462
sbag1
(g2
g3
Ntp463
Rp464
(dp465
g7
V073
p466
sg9
VTentacruel
p467
sg11
VHG,SS,
p468
sg13
VSurf
p469
sg15
V15
p470
sg17
V29
p471
sg18
V10
p472
sbag1
(g2
g3
Ntp473
Rp474
(dp475
g7
V098
p476
sg9
VKrabby
p477
sg11
VHG,SS,
p478
sg13
VFish Old
p479
sg15
V10
p480
sg17
g480
sg18
V5
p481
sbag1
(g2
g3
Ntp482
Rp483
(dp484
g7
V129
p485
sg9
VMagikarp
p486
sg11
VHG,SS,
p487
sg13
VFish Old
p488
sg15
V10
p489
sg17
g489
sg18
V95
p490
sbag1
(g2
g3
Ntp491
Rp492
(dp493
g7
V098
p494
sg9
VKrabby
p495
sg11
VHG,SS,
p496
sg13
VFish Good
p497
sg15
V20
p498
sg17
g498
sg18
V50
p499
sbag1
(g2
g3
Ntp500
Rp501
(dp502
g7
V120
p503
sg9
VStaryu
p504
sg11
VHG,SS,
p505
sg13
VFish Good
p506
sg15
V20
p507
sg17
g507
sg18
V10
p508
sbag1
(g2
g3
Ntp509
Rp510
(dp511
g7
V129
p512
sg9
VMagikarp
p513
sg11
VHG,SS,
p514
sg13
VFish Good
p515
sg15
V20
p516
sg17
g516
sg18
V40
p517
sbag1
(g2
g3
Ntp518
Rp519
(dp520
g7
V222
p521
sg9
VCorsola
p522
sg11
VHG,SS,
p523
sg13
VFish Good
p524
sg15
V20
p525
sg17
g525
sg18
V10
p526
sbag1
(g2
g3
Ntp527
Rp528
(dp529
g7
V098
p530
sg9
VKrabby
p531
sg11
VHG,SS,
p532
sg13
VFish Super
p533
sg15
V40
p534
sg17
g534
sg18
V60
p535
sbag1
(g2
g3
Ntp536
Rp537
(dp538
g7
V099
p539
sg9
VKingler
p540
sg11
VHG,SS,
p541
sg13
VFish Super
p542
sg15
V40
p543
sg17
g543
sg18
V10
p544
sbag1
(g2
g3
Ntp545
Rp546
(dp547
g7
V120
p548
sg9
VStaryu
p549
sg11
VHG,SS,
p550
sg13
VFish Super
p551
sg15
V40
p552
sg17
g552
sg18
V30
p553
sbag1
(g2
g3
Ntp554
Rp555
(dp556
g7
V222
p557
sg9
VCorsola
p558
sg11
VHG,SS,
p559
sg13
VFish Super
p560
sg15
V40
p561
sg17
g561
sg18
V30
p562
sbag1
(g2
g3
Ntp563
Rp564
(dp565
g7
V102
p566
sg9
VExeggcute
p567
sg11
VHG,SS,
p568
sg13
VHeadbutt
p569
sg15
V9
p570
sg17
V12
p571
sg18
V20
p572
sbag1
(g2
g3
Ntp573
Rp574
(dp575
g7
V163
p576
sg9
VHoothoot
p577
sg11
VHG,SS,
p578
sg13
VHeadbutt
p579
sg15
g570
sg17
V12
p580
sg18
V50
p581
sbag1
(g2
g3
Ntp582
Rp583
(dp584
g7
V165
p585
sg9
VLedyba
p586
sg11
VSS,
p587
sg13
VHeadbutt
p588
sg15
V11
p589
sg17
V12
p590
sg18
V30
p591
sbag1
(g2
g3
Ntp592
Rp593
(dp594
g7
V167
p595
sg9
VSpinarak
p596
sg11
VHG,
p597
sg13
VHeadbutt
p598
sg15
V11
p599
sg17
V12
p600
sg18
V30
p601
sbag1
(g2
g3
Ntp602
Rp603
(dp604
g7
V204
p605
sg9
VPineco
p606
sg11
VHG,SS,
p607
sg13
VHeadbutt
p608
sg15
g570
sg17
V10
p609
sg18
V30
p610
sbag1
(g2
g3
Ntp611
Rp612
(dp613
g7
V280
p614
sg9
VRalts
p615
sg11
VHG,SS,
p616
sg13
VSwarm
p617
sg15
V10
p618
sg17
V11
p619
sg18
V40
p620
sbag1
(g2
g3
Ntp621
Rp622
(dp623
g7
V264
p624
sg9
VLinoone
p625
sg11
VHG,SS,
p626
sg13
VHoenn
p627
sg15
V12
p628
sg17
g628
sg18
V20
p629
sbag1
(g2
g3
Ntp630
Rp631
(dp632
g7
V293
p633
sg9
VWhismur
p634
sg11
VHG,SS,
p635
sg13
VHoenn
p636
sg15
V10
p637
sg17
V11
p638
sg18
V20
p639
sbag1
(g2
g3
Ntp640
Rp641
(dp642
g7
V399
p643
sg9
VBidoof
p644
sg11
VHG,SS,
p645
sg13
VSinnoh
p646
sg15
V12
p647
sg17
g647
sg18
V20
p648
sbag1
(g2
g3
Ntp649
Rp650
(dp651
g7
V418
p652
sg9
VBuizel
p653
sg11
VHG,SS,
p654
sg13
VSinnoh
p655
sg15
V10
p656
sg17
V11
p657
sg18
V20
p658
sba.