(lp0
ccopy_reg
_reconstructor
p1
(c__main__
WildPokemon
p2
c__builtin__
object
p3
Ntp4
Rp5
(dp6
VpDexNo
p7
V022
p8
sVpSpecies
p9
VFearow
p10
sVpGames
p11
VHG,SS,
p12
sVpArea
p13
VGrass
p14
sVpMinLevel
p15
V21
p16
sVpMaxLevel
p17
g16
sVpRate
p18
V10
p19
sbag1
(g2
g3
Ntp20
Rp21
(dp22
g7
V037
p23
sg9
VVulpix
p24
sg11
VSS,
p25
sg13
VGrass
p26
sg15
V21
p27
sg17
V22
p28
sg18
V9
p29
sbag1
(g2
g3
Ntp30
Rp31
(dp32
g7
V037
p33
sg9
VVulpix
p34
sg11
g25
sg13
VGrass
p35
sg15
V24
p36
sg17
g36
sg18
V20
p37
sbag1
(g2
g3
Ntp38
Rp39
(dp40
g7
V044
p41
sg9
VGloom
p42
sg11
VHG,SS,
p43
sg13
VGrass
p44
sg15
V22
p45
sg17
V24
p46
sg18
V20
p47
sbag1
(g2
g3
Ntp48
Rp49
(dp50
g7
V050
p51
sg9
VDiglett
p52
sg11
VHG,SS,
p53
sg13
VGrass
p54
sg15
V20
p55
sg17
g55
sg18
V4
p56
sbag1
(g2
g3
Ntp57
Rp58
(dp59
g7
V058
p60
sg9
VGrowlithe
p61
sg11
VHG,
p62
sg13
VGrass
p63
sg15
V21
p64
sg17
V22
p65
sg18
V9
p66
sbag1
(g2
g3
Ntp67
Rp68
(dp69
g7
V058
p70
sg9
VGrowlithe
p71
sg11
g62
sg13
VGrass
p72
sg15
V25
p73
sg17
g73
sg18
V20
p74
sbag1
(g2
g3
Ntp75
Rp76
(dp77
g7
V083
p78
sg9
VFarfetch'd
p79
sg11
g62
sg13
VGrass
p80
sg15
V25
p81
sg17
g81
sg18
V20
p82
sbag1
(g2
g3
Ntp83
Rp84
(dp85
g7
V083
p86
sg9
VFarfetch'd
p87
sg11
g25
sg13
VGrass
p88
sg15
V24
p89
sg17
g89
sg18
V20
p90
sbag1
(g2
g3
Ntp91
Rp92
(dp93
g7
V128
p94
sg9
VTauros
p95
sg11
VHG,SS,
p96
sg13
VGrass
p97
sg15
V20
p98
sg17
V24
p99
sg18
V21
p100
sbag1
(g2
g3
Ntp101
Rp102
(dp103
g7
V187
p104
sg9
VHoppip
p105
sg11
VHG,SS,
p106
sg13
VGrass
p107
sg15
V20
p108
sg17
V22
p109
sg18
V11
p110
sbag1
(g2
g3
Ntp111
Rp112
(dp113
g7
V203
p114
sg9
VGirafarig
p115
sg11
VHG,SS,
p116
sg13
VGrass
p117
sg15
V20
p118
sg17
g118
sg18
V5
p119
sbag1
(g2
g3
Ntp120
Rp121
(dp122
g7
V102
p123
sg9
VExeggcute
p124
sg11
VHG,SS,
p125
sg13
VHeadbutt
p126
sg15
V15
p127
sg17
V18
p128
sg18
V20
p129
sbag1
(g2
g3
Ntp130
Rp131
(dp132
g7
V163
p133
sg9
VHoothoot
p134
sg11
VHG,SS,
p135
sg13
VHeadbutt
p136
sg15
V15
p137
sg17
V18
p138
sg18
V50
p139
sbag1
(g2
g3
Ntp140
Rp141
(dp142
g7
V165
p143
sg9
VLedyba
p144
sg11
g25
sg13
VHeadbutt
p145
sg15
V15
p146
sg17
V18
p147
sg18
V30
p148
sbag1
(g2
g3
Ntp149
Rp150
(dp151
g7
V167
p152
sg9
VSpinarak
p153
sg11
g62
sg13
VHeadbutt
p154
sg15
V15
p155
sg17
V18
p156
sg18
V30
p157
sbag1
(g2
g3
Ntp158
Rp159
(dp160
g7
V204
p161
sg9
VPineco
p162
sg11
VHG,SS,
p163
sg13
VHeadbutt
p164
sg15
V15
p165
sg17
V16
p166
sg18
V30
p167
sbag1
(g2
g3
Ntp168
Rp169
(dp170
g7
V311
p171
sg9
VPlusle
p172
sg11
VHG,SS,
p173
sg13
VHoenn
p174
sg15
V20,21
p175
sg17
g175
sg18
V20
p176
sbag1
(g2
g3
Ntp177
Rp178
(dp179
g7
V312
p180
sg9
VMinun
p181
sg11
VHG,SS,
p182
sg13
VHoenn
p183
sg15
V22
p184
sg17
V24
p185
sg18
V20
p186
sbag1
(g2
g3
Ntp187
Rp188
(dp189
g7
V403
p190
sg9
VShinx
p191
sg11
VHG,SS,
p192
sg13
VSinnoh
p193
sg15
V20
p194
sg17
V24
p195
sg18
V40
p196
sba.