(lp0
ccopy_reg
_reconstructor
p1
(c__main__
WildPokemon
p2
c__builtin__
object
p3
Ntp4
Rp5
(dp6
VpDexNo
p7
V017
p8
sVpSpecies
p9
VPidgeotto
p10
sVpGames
p11
VC,
p12
sVpArea
p13
VGrass
p14
sVpMinLevel
p15
V16
p16
sVpMaxLevel
p17
g16
sVpRate
p18
V10
p19
sbag1
(g2
g3
Ntp20
Rp21
(dp22
g7
V019
p23
sg9
VRattata
p24
sg11
VG,
p25
sg13
VGrass
p26
sg15
V16
p27
sg17
g27
sg18
V40
p28
sbag1
(g2
g3
Ntp29
Rp30
(dp31
g7
V019
p32
sg9
VRattata
p33
sg11
g12
sg13
VGrass
p34
sg15
V16
p35
sg17
g35
sg18
V30
p36
sbag1
(g2
g3
Ntp37
Rp38
(dp39
g7
V020
p40
sg9
VRaticate
p41
sg11
VG,S,
p42
sg13
VGrass
p43
sg15
V17
p44
sg17
g44
sg18
V30
p45
sbag1
(g2
g3
Ntp46
Rp47
(dp48
g7
V020
p49
sg9
VRaticate
p50
sg11
g12
sg13
VGrass
p51
sg15
V16
p52
sg17
g52
sg18
V30
p53
sbag1
(g2
g3
Ntp54
Rp55
(dp56
g7
V052
p57
sg9
VMeowth
p58
sg11
VS,
p59
sg13
VGrass
p60
sg15
V16
p61
sg17
g61
sg18
V40
p62
sbag1
(g2
g3
Ntp63
Rp64
(dp65
g7
V052
p66
sg9
VMeowth
p67
sg11
g12
sg13
VGrass
p68
sg15
V16
p69
sg17
g69
sg18
V40
p70
sbag1
(g2
g3
Ntp71
Rp72
(dp73
g7
V081
p74
sg9
VMagnemite
p75
sg11
VG,S,C,
p76
sg13
VGrass
p77
sg15
V16
p78
sg17
g78
sg18
V20
p79
sbag1
(g2
g3
Ntp80
Rp81
(dp82
g7
V083
p83
sg9
VFarfetch'd
p84
sg11
VG,S,
p85
sg13
VGrass
p86
sg15
V16
p87
sg17
g87
sg18
V10
p88
sbag1
(g2
g3
Ntp89
Rp90
(dp91
g7
V128
p92
sg9
VTauros
p93
sg11
VG,S,
p94
sg13
VGrass
p95
sg15
V15
p96
sg17
g96
sg18
V5
p97
sbag1
(g2
g3
Ntp98
Rp99
(dp100
g7
V128
p101
sg9
VTauros
p102
sg11
g12
sg13
VGrass
p103
sg15
V15
p104
sg17
g104
sg18
V5
p105
sbag1
(g2
g3
Ntp106
Rp107
(dp108
g7
V164
p109
sg9
VNoctowl
p110
sg11
g12
sg13
VGrass
p111
sg15
V16
p112
sg17
g112
sg18
V10
p113
sbag1
(g2
g3
Ntp114
Rp115
(dp116
g7
V241
p117
sg9
VMiltank
p118
sg11
VG,S,
p119
sg13
VGrass
p120
sg15
V15
p121
sg17
g121
sg18
V5
p122
sbag1
(g2
g3
Ntp123
Rp124
(dp125
g7
V241
p126
sg9
VMiltank
p127
sg11
g12
sg13
VGrass
p128
sg15
V15
p129
sg17
g129
sg18
V5
p130
sbag1
(g2
g3
Ntp131
Rp132
(dp133
g7
V010
p134
sg9
VCaterpie
p135
sg11
g25
sg13
VHeadbutt
p136
sg15
V10
p137
sg17
g137
sg18
V65
p138
sbag1
(g2
g3
Ntp139
Rp140
(dp141
g7
V011
p142
sg9
VMetapod
p143
sg11
g25
sg13
VHeadbutt
p144
sg15
V10
p145
sg17
g145
sg18
V15
p146
sbag1
(g2
g3
Ntp147
Rp148
(dp149
g7
V012
p150
sg9
VButterfree
p151
sg11
g25
sg13
VHeadbutt
p152
sg15
V10
p153
sg17
g153
sg18
V5
p154
sbag1
(g2
g3
Ntp155
Rp156
(dp157
g7
V013
p158
sg9
VWeedle
p159
sg11
g59
sg13
VHeadbutt
p160
sg15
V10
p161
sg17
g161
sg18
V65
p162
sbag1
(g2
g3
Ntp163
Rp164
(dp165
g7
V014
p166
sg9
VKakuna
p167
sg11
g59
sg13
VHeadbutt
p168
sg15
V10
p169
sg17
g169
sg18
V15
p170
sbag1
(g2
g3
Ntp171
Rp172
(dp173
g7
V015
p174
sg9
VBeedrill
p175
sg11
g59
sg13
VHeadbutt
p176
sg15
V10
p177
sg17
g177
sg18
V5
p178
sbag1
(g2
g3
Ntp179
Rp180
(dp181
g7
V102
p182
sg9
VExeggcute
p183
sg11
VG,S,
p184
sg13
VHeadbutt
p185
sg15
V10
p186
sg17
g186
sg18
V15
p187
sbag1
(g2
g3
Ntp188
Rp189
(dp190
g7
V102
p191
sg9
VExeggcute
p192
sg11
g12
sg13
VHeadbutt
p193
sg15
V10
p194
sg17
g194
sg18
V20
p195
sbag1
(g2
g3
Ntp196
Rp197
(dp198
g7
V163
p199
sg9
VHoothoot
p200
sg11
g12
sg13
VHeadbutt
p201
sg15
V10
p202
sg17
g202
sg18
V50
p203
sbag1
(g2
g3
Ntp204
Rp205
(dp206
g7
V165
p207
sg9
VLedyba
p208
sg11
g12
sg13
VHeadbutt
p209
sg15
V10
p210
sg17
g210
sg18
V15
p211
sbag1
(g2
g3
Ntp212
Rp213
(dp214
g7
V167
p215
sg9
VSpinarak
p216
sg11
g12
sg13
VHeadbutt
p217
sg15
V10
p218
sg17
g218
sg18
V15
p219
sbag1
(g2
g3
Ntp220
Rp221
(dp222
g7
V010
p223
sg9
VCaterpie
p224
sg11
g25
sg13
VHeadbutt
p225
sg15
V10
p226
sg17
g226
sg18
V50
p227
sbag1
(g2
g3
Ntp228
Rp229
(dp230
g7
V012
p231
sg9
VButterfree
p232
sg11
g25
sg13
VHeadbutt
p233
sg15
V10
p234
sg17
g234
sg18
V5
p235
sbag1
(g2
g3
Ntp236
Rp237
(dp238
g7
V013
p239
sg9
VWeedle
p240
sg11
g59
sg13
VHeadbutt
p241
sg15
V10
p242
sg17
g242
sg18
V50
p243
sbag1
(g2
g3
Ntp244
Rp245
(dp246
g7
V015
p247
sg9
VBeedrill
p248
sg11
g59
sg13
VHeadbutt
p249
sg15
V10
p250
sg17
g250
sg18
V5
p251
sbag1
(g2
g3
Ntp252
Rp253
(dp254
g7
V102
p255
sg9
VExeggcute
p256
sg11
VG,S,
p257
sg13
VHeadbutt
p258
sg15
V10
p259
sg17
g259
sg18
V15
p260
sbag1
(g2
g3
Ntp261
Rp262
(dp263
g7
V102
p264
sg9
VExeggcute
p265
sg11
g12
sg13
VHeadbutt
p266
sg15
V10
p267
sg17
g267
sg18
V20
p268
sbag1
(g2
g3
Ntp269
Rp270
(dp271
g7
V163
p272
sg9
VHoothoot
p273
sg11
g12
sg13
VHeadbutt
p274
sg15
V10
p275
sg17
g275
sg18
V50
p276
sbag1
(g2
g3
Ntp277
Rp278
(dp279
g7
V204
p280
sg9
VPineco
p281
sg11
VG,S,C,
p282
sg13
VHeadbutt
p283
sg15
V10
p284
sg17
g284
sg18
V30
p285
sbag1
(g2
g3
Ntp286
Rp287
(dp288
g7
V019
p289
sg9
VRattata
p290
sg11
VHG,
p291
sg13
VGrass
p292
sg15
V16
p293
sg17
g293
sg18
V40
p294
sbag1
(g2
g3
Ntp295
Rp296
(dp297
g7
V020
p298
sg9
VRaticate
p299
sg11
VHG,SS,
p300
sg13
VGrass
p301
sg15
V17
p302
sg17
g302
sg18
V30
p303
sbag1
(g2
g3
Ntp304
Rp305
(dp306
g7
V052
p307
sg9
VMeowth
p308
sg11
VSS,
p309
sg13
VGrass
p310
sg15
V16
p311
sg17
g311
sg18
V40
p312
sbag1
(g2
g3
Ntp313
Rp314
(dp315
g7
V081
p316
sg9
VMagnemite
p317
sg11
VHG,SS,
p318
sg13
VGrass
p319
sg15
V16
p320
sg17
g320
sg18
V20
p321
sbag1
(g2
g3
Ntp322
Rp323
(dp324
g7
V083
p325
sg9
VFarfetch'd
p326
sg11
VHG,SS,
p327
sg13
VGrass
p328
sg15
V16
p329
sg17
g329
sg18
V10
p330
sbag1
(g2
g3
Ntp331
Rp332
(dp333
g7
V128
p334
sg9
VTauros
p335
sg11
VHG,SS,
p336
sg13
VGrass
p337
sg15
V15
p338
sg17
g338
sg18
V5
p339
sbag1
(g2
g3
Ntp340
Rp341
(dp342
g7
V241
p343
sg9
VMiltank
p344
sg11
VHG,SS,
p345
sg13
VGrass
p346
sg15
V15
p347
sg17
g347
sg18
V5
p348
sbag1
(g2
g3
Ntp349
Rp350
(dp351
g7
V102
p352
sg9
VExeggcute
p353
sg11
VHG,SS,
p354
sg13
VHeadbutt
p355
sg15
V14
p356
sg17
V17
p357
sg18
V20
p358
sbag1
(g2
g3
Ntp359
Rp360
(dp361
g7
V163
p362
sg9
VHoothoot
p363
sg11
VHG,SS,
p364
sg13
VHeadbutt
p365
sg15
V14
p366
sg17
V17
p367
sg18
V50
p368
sbag1
(g2
g3
Ntp369
Rp370
(dp371
g7
V165
p372
sg9
VLedyba
p373
sg11
g309
sg13
VHeadbutt
p374
sg15
V16
p375
sg17
V17
p376
sg18
V30
p377
sbag1
(g2
g3
Ntp378
Rp379
(dp380
g7
V167
p381
sg9
VSpinarak
p382
sg11
g291
sg13
VHeadbutt
p383
sg15
V16
p384
sg17
V17
p385
sg18
V30
p386
sbag1
(g2
g3
Ntp387
Rp388
(dp389
g7
V204
p390
sg9
VPineco
p391
sg11
VHG,SS,
p392
sg13
VHeadbutt
p393
sg15
V14
p394
sg17
V15
p395
sg18
V30
p396
sbag1
(g2
g3
Ntp397
Rp398
(dp399
g7
V311
p400
sg9
VPlusle
p401
sg11
VHG,SS,
p402
sg13
VHoenn
p403
sg15
V16
p404
sg17
V17
p405
sg18
V20
p406
sbag1
(g2
g3
Ntp407
Rp408
(dp409
g7
V312
p410
sg9
VMinun
p411
sg11
VHG,SS,
p412
sg13
VHoenn
p413
sg15
V16
p414
sg17
g414
sg18
V20
p415
sbag1
(g2
g3
Ntp416
Rp417
(dp418
g7
V403
p419
sg9
VShinx
p420
sg11
VHG,SS,
p421
sg13
VSinnoh
p422
sg15
V16
p423
sg17
V17
p424
sg18
V40
p425
sba.