(lp0
ccopy_reg
_reconstructor
p1
(c__main__
WildPokemon
p2
c__builtin__
object
p3
Ntp4
Rp5
(dp6
VpDexNo
p7
V060
p8
sVpSpecies
p9
VPoliwag
p10
sVpGames
p11
VC,
p12
sVpArea
p13
VGrass
p14
sVpMinLevel
p15
V22
p16
sVpMaxLevel
p17
g16
sVpRate
p18
V30
p19
sbag1
(g2
g3
Ntp20
Rp21
(dp22
g7
V061
p23
sg9
VPoliwhirl
p24
sg11
g12
sg13
VGrass
p25
sg15
V24
p26
sg17
V26
p27
sg18
V10
p28
sbag1
(g2
g3
Ntp29
Rp30
(dp31
g7
V069
p32
sg9
VBellsprout
p33
sg11
VG,S,C,
p34
sg13
VGrass
p35
sg15
V22
p36
sg17
g36
sg18
V20
p37
sbag1
(g2
g3
Ntp38
Rp39
(dp40
g7
V070
p41
sg9
VWeepinbell
p42
sg11
VG,S,
p43
sg13
VGrass
p44
sg15
V22
p45
sg17
V24
p46
sg18
V35
p47
sbag1
(g2
g3
Ntp48
Rp49
(dp50
g7
V070
p51
sg9
VWeepinbell
p52
sg11
g12
sg13
VGrass
p53
sg15
V24
p54
sg17
g54
sg18
V10
p55
sbag1
(g2
g3
Ntp56
Rp57
(dp58
g7
V108
p59
sg9
VLickitung
p60
sg11
VG,S,
p61
sg13
VGrass
p62
sg15
V24
p63
sg17
V26
p64
sg18
V15
p65
sbag1
(g2
g3
Ntp66
Rp67
(dp68
g7
V108
p69
sg9
VLickitung
p70
sg11
g12
sg13
VGrass
p71
sg15
V22
p72
sg17
V26
p73
sg18
V40
p74
sbag1
(g2
g3
Ntp75
Rp76
(dp77
g7
V114
p78
sg9
VTangela
p79
sg11
VG,S,C,
p80
sg13
VGrass
p81
sg15
V23
p82
sg17
g82
sg18
V30
p83
sbag1
(g2
g3
Ntp84
Rp85
(dp86
g7
V060
p87
sg9
VPoliwag
p88
sg11
VG,S,C,
p89
sg13
VSurf
p90
sg15
V15
p91
sg17
V25
p92
sg18
V90
p93
sbag1
(g2
g3
Ntp94
Rp95
(dp96
g7
V061
p97
sg9
VPoliwhirl
p98
sg11
VG,S,C,
p99
sg13
VSurf
p100
sg15
V25
p101
sg17
V29
p102
sg18
V10
p103
sbag1
(g2
g3
Ntp104
Rp105
(dp106
g7
V060
p107
sg9
VPoliwag
p108
sg11
VG,S,C,
p109
sg13
VFish Old
p110
sg15
V10
p111
sg17
g111
sg18
V15
p112
sbag1
(g2
g3
Ntp113
Rp114
(dp115
g7
V129
p116
sg9
VMagikarp
p117
sg11
VG,S,C,
p118
sg13
VFish Old
p119
sg15
V10
p120
sg17
g120
sg18
V85
p121
sbag1
(g2
g3
Ntp122
Rp123
(dp124
g7
V060
p125
sg9
VPoliwag
p126
sg11
VG,S,C,
p127
sg13
VFish Good
p128
sg15
V20
p129
sg17
g129
sg18
V65
p130
sbag1
(g2
g3
Ntp131
Rp132
(dp133
g7
V129
p134
sg9
VMagikarp
p135
sg11
VG,S,C,
p136
sg13
VFish Good
p137
sg15
V20
p138
sg17
g138
sg18
V35
p139
sbag1
(g2
g3
Ntp140
Rp141
(dp142
g7
V060
p143
sg9
VPoliwag
p144
sg11
VG,S,
p145
sg13
VFish Super
p146
sg15
V40
p147
sg17
g147
sg18
V70
p148
sbag1
(g2
g3
Ntp149
Rp150
(dp151
g7
V060
p152
sg9
VPoliwag
p153
sg11
g12
sg13
VFish Super
p154
sg15
V40
p155
sg17
g155
sg18
V80
p156
sbag1
(g2
g3
Ntp157
Rp158
(dp159
g7
V129
p160
sg9
VMagikarp
p161
sg11
VG,S,C,
p162
sg13
VFish Super
p163
sg15
V40
p164
sg17
g164
sg18
V20
p165
sbag1
(g2
g3
Ntp166
Rp167
(dp168
g7
V223
p169
sg9
VRemoraid
p170
sg11
VG,S,
p171
sg13
VFish Super
p172
sg15
V40
p173
sg17
g173
sg18
V10
p174
sbag1
(g2
g3
Ntp175
Rp176
(dp177
g7
V021
p178
sg9
VSpearow
p179
sg11
VG,S,C,
p180
sg13
VHeadbutt
p181
sg15
V10
p182
sg17
g182
sg18
V80
p183
sbag1
(g2
g3
Ntp184
Rp185
(dp186
g7
V190
p187
sg9
VAipom
p188
sg11
VG,S,C,
p189
sg13
VHeadbutt
p190
sg15
V10
p191
sg17
g191
sg18
V20
p192
sbag1
(g2
g3
Ntp193
Rp194
(dp195
g7
V021
p196
sg9
VSpearow
p197
sg11
VG,S,C,
p198
sg13
VHeadbutt
p199
sg15
V10
p200
sg17
g200
sg18
V50
p201
sbag1
(g2
g3
Ntp202
Rp203
(dp204
g7
V190
p205
sg9
VAipom
p206
sg11
VG,S,C,
p207
sg13
VHeadbutt
p208
sg15
V10
p209
sg17
g209
sg18
V20
p210
sbag1
(g2
g3
Ntp211
Rp212
(dp213
g7
V214
p214
sg9
VHeracross
p215
sg11
VG,S,C,
p216
sg13
VHeadbutt
p217
sg15
V10
p218
sg17
g218
sg18
V30
p219
sbag1
(g2
g3
Ntp220
Rp221
(dp222
g7
V129
p223
sg9
VMagikarp
p224
sg11
VG,S,
p225
sg13
VFish Old
p226
sg15
V10
p227
sg17
g227
sg18
V85
p228
sbag1
(g2
g3
Ntp229
Rp230
(dp231
g7
V223
p232
sg9
VRemoraid
p233
sg11
VG,S,
p234
sg13
VFish Old
p235
sg15
V10
p236
sg17
g236
sg18
V15
p237
sbag1
(g2
g3
Ntp238
Rp239
(dp240
g7
V129
p241
sg9
VMagikarp
p242
sg11
VG,S,
p243
sg13
VFish Good
p244
sg15
V20
p245
sg17
g245
sg18
V35
p246
sbag1
(g2
g3
Ntp247
Rp248
(dp249
g7
V223
p250
sg9
VRemoraid
p251
sg11
VG,S,
p252
sg13
VFish Good
p253
sg15
V20
p254
sg17
g254
sg18
V65
p255
sbag1
(g2
g3
Ntp256
Rp257
(dp258
g7
V223
p259
sg9
VRemoraid
p260
sg11
VG,S,
p261
sg13
VFish Super
p262
sg15
V40
p263
sg17
g263
sg18
V100
p264
sbag1
(g2
g3
Ntp265
Rp266
(dp267
g7
V069
p268
sg9
VBellsprout
p269
sg11
VHG,SS,
p270
sg13
VGrass
p271
sg15
V22
p272
sg17
g272
sg18
V20
p273
sbag1
(g2
g3
Ntp274
Rp275
(dp276
g7
V070
p277
sg9
VWeepinbell
p278
sg11
VHG,SS,
p279
sg13
VGrass
p280
sg15
V22
p281
sg17
V24
p282
sg18
V35
p283
sbag1
(g2
g3
Ntp284
Rp285
(dp286
g7
V108
p287
sg9
VLickitung
p288
sg11
VHG,SS,
p289
sg13
VGrass
p290
sg15
V24
p291
sg17
V26
p292
sg18
V15
p293
sbag1
(g2
g3
Ntp294
Rp295
(dp296
g7
V114
p297
sg9
VTangela
p298
sg11
VHG,SS,
p299
sg13
VGrass
p300
sg15
V23
p301
sg17
g301
sg18
V30
p302
sbag1
(g2
g3
Ntp303
Rp304
(dp305
g7
V060
p306
sg9
VPoliwag
p307
sg11
VHG,SS,
p308
sg13
VSurf
p309
sg15
V10
p310
sg17
V30
p311
sg18
V90
p312
sbag1
(g2
g3
Ntp313
Rp314
(dp315
g7
V061
p316
sg9
VPoliwhirl
p317
sg11
VHG,SS,
p318
sg13
VSurf
p319
sg15
V15
p320
sg17
V32
p321
sg18
V10
p322
sbag1
(g2
g3
Ntp323
Rp324
(dp325
g7
V060
p326
sg9
VPoliwag
p327
sg11
VHG,SS,
p328
sg13
VFish Old
p329
sg15
V10
p330
sg17
g330
sg18
V15
p331
sbag1
(g2
g3
Ntp332
Rp333
(dp334
g7
V129
p335
sg9
VMagikarp
p336
sg11
VHG,SS,
p337
sg13
VFish Old
p338
sg15
V10
p339
sg17
g339
sg18
V85
p340
sbag1
(g2
g3
Ntp341
Rp342
(dp343
g7
V060
p344
sg9
VPoliwag
p345
sg11
VHG,SS,
p346
sg13
VFish Good
p347
sg15
V20
p348
sg17
g348
sg18
V55
p349
sbag1
(g2
g3
Ntp350
Rp351
(dp352
g7
V129
p353
sg9
VMagikarp
p354
sg11
VHG,SS,
p355
sg13
VFish Good
p356
sg15
V20
p357
sg17
g357
sg18
V40
p358
sbag1
(g2
g3
Ntp359
Rp360
(dp361
g7
V223
p362
sg9
VRemoraid
p363
sg11
VHG,SS,
p364
sg13
VFish Good
p365
sg15
V20
p366
sg17
g366
sg18
V5
p367
sbag1
(g2
g3
Ntp368
Rp369
(dp370
g7
V060
p371
sg9
VPoliwag
p372
sg11
VHG,SS,
p373
sg13
VFish Super
p374
sg15
V40
p375
sg17
g375
sg18
V70
p376
sbag1
(g2
g3
Ntp377
Rp378
(dp379
g7
V129
p380
sg9
VMagikarp
p381
sg11
VHG,SS,
p382
sg13
VFish Super
p383
sg15
V40
p384
sg17
g384
sg18
V20
p385
sbag1
(g2
g3
Ntp386
Rp387
(dp388
g7
V223
p389
sg9
VRemoraid
p390
sg11
VHG,SS,
p391
sg13
VFish Super
p392
sg15
V40
p393
sg17
g393
sg18
V10
p394
sbag1
(g2
g3
Ntp395
Rp396
(dp397
g7
V021
p398
sg9
VSpearow
p399
sg11
VHG,SS,
p400
sg13
VHeadbutt
p401
sg15
V21
p402
sg17
V24
p403
sg18
V50
p404
sbag1
(g2
g3
Ntp405
Rp406
(dp407
g7
V190
p408
sg9
VAipom
p409
sg11
VHG,SS,
p410
sg13
VHeadbutt
p411
sg15
V21
p412
sg17
V24
p413
sg18
V20
p414
sbag1
(g2
g3
Ntp415
Rp416
(dp417
g7
V214
p418
sg9
VHeracross
p419
sg11
VHG,SS,
p420
sg13
VHeadbutt
p421
sg15
V21
p422
sg17
V24
p423
sg18
V30
p424
sbag1
(g2
g3
Ntp425
Rp426
(dp427
g7
V060
p428
sg9
VPoliwag
p429
sg11
VHG,SS,
p430
sg13
VFish Old
p431
sg15
V10
p432
sg17
g432
sg18
V15
p433
sbag1
(g2
g3
Ntp434
Rp435
(dp436
g7
V129
p437
sg9
VMagikarp
p438
sg11
VHG,SS,
p439
sg13
VFish Old
p440
sg15
V10
p441
sg17
g441
sg18
V70
p442
sbag1
(g2
g3
Ntp443
Rp444
(dp445
g7
V223
p446
sg9
VRemoraid
p447
sg11
VHG,SS,
p448
sg13
VFish Old
p449
sg15
V10
p450
sg17
g450
sg18
V15
p451
sbag1
(g2
g3
Ntp452
Rp453
(dp454
g7
V060
p455
sg9
VPoliwag
p456
sg11
VHG,SS,
p457
sg13
VFish Good
p458
sg15
V20
p459
sg17
g459
sg18
V30
p460
sbag1
(g2
g3
Ntp461
Rp462
(dp463
g7
V223
p464
sg9
VRemoraid
p465
sg11
VHG,SS,
p466
sg13
VFish Good
p467
sg15
V20
p468
sg17
g468
sg18
V70
p469
sbag1
(g2
g3
Ntp470
Rp471
(dp472
g7
V223
p473
sg9
VRemoraid
p474
sg11
VHG,SS,
p475
sg13
VFish Super
p476
sg15
V40
p477
sg17
g477
sg18
V100
p478
sbag1
(g2
g3
Ntp479
Rp480
(dp481
g7
V264
p482
sg9
VLinoone
p483
sg11
VHG,SS,
p484
sg13
VHoenn
p485
sg15
V22
p486
sg17
g486
sg18
V20
p487
sbag1
(g2
g3
Ntp488
Rp489
(dp490
g7
V293
p491
sg9
VWhismur
p492
sg11
VHG,SS,
p493
sg13
VHoenn
p494
sg15
V22
p495
sg17
V23
p496
sg18
V20
p497
sbag1
(g2
g3
Ntp498
Rp499
(dp500
g7
V399
p501
sg9
VBidoof
p502
sg11
VHG,SS,
p503
sg13
VSinnoh
p504
sg15
V22
p505
sg17
g505
sg18
V20
p506
sbag1
(g2
g3
Ntp507
Rp508
(dp509
g7
V418
p510
sg9
VBuizel
p511
sg11
VHG,SS,
p512
sg13
VSinnoh
p513
sg15
V22
p514
sg17
V23
p515
sg18
V20
p516
sba.