(lp0
ccopy_reg
_reconstructor
p1
(c__main__
WildPokemon
p2
c__builtin__
object
p3
Ntp4
Rp5
(dp6
VpDexNo
p7
V019
p8
sVpSpecies
p9
VRattata
p10
sVpGames
p11
VG,S,
p12
sVpArea
p13
VGrass
p14
sVpMinLevel
p15
V2
p16
sVpMaxLevel
p17
g16
sVpRate
p18
V20
p19
sbag1
(g2
g3
Ntp20
Rp21
(dp22
g7
V019
p23
sg9
VRattata
p24
sg11
VG,S,
p25
sg13
VGrass
p26
sg15
g16
sg17
V3
p27
sg18
V50
p28
sbag1
(g2
g3
Ntp29
Rp30
(dp31
g7
V019
p32
sg9
VRattata
p33
sg11
VC,
p34
sg13
VGrass
p35
sg15
g16
sg17
g27
sg18
V50
p36
sbag1
(g2
g3
Ntp37
Rp38
(dp39
g7
V021
p40
sg9
VSpearow
p41
sg11
VG,S,
p42
sg13
VGrass
p43
sg15
g16
sg17
g27
sg18
V35
p44
sbag1
(g2
g3
Ntp45
Rp46
(dp47
g7
V021
p48
sg9
VSpearow
p49
sg11
g34
sg13
VGrass
p50
sg15
g16
sg17
g16
sg18
V30
p51
sbag1
(g2
g3
Ntp52
Rp53
(dp54
g7
V039
p55
sg9
VJigglypuff
p56
sg11
VG,S,
p57
sg13
VGrass
p58
sg15
g27
sg17
V5
p59
sg18
V5
p60
sbag1
(g2
g3
Ntp61
Rp62
(dp63
g7
V074
p64
sg9
VGeodude
p65
sg11
VG,S,
p66
sg13
VGrass
p67
sg15
g16
sg17
g27
sg18
V40
p68
sbag1
(g2
g3
Ntp69
Rp70
(dp71
g7
V074
p72
sg9
VGeodude
p73
sg11
VG,S,
p74
sg13
VGrass
p75
sg15
g16
sg17
V4
p76
sg18
V45
p77
sbag1
(g2
g3
Ntp78
Rp79
(dp80
g7
V074
p81
sg9
VGeodude
p82
sg11
g34
sg13
VGrass
p83
sg15
g16
sg17
g27
sg18
V50
p84
sbag1
(g2
g3
Ntp85
Rp86
(dp87
g7
V231
p88
sg9
VPhanpy
p89
sg11
g34
sg13
VGrass
p90
sg15
g16
sg17
g16
sg18
V5
p91
sbag1
(g2
g3
Ntp92
Rp93
(dp94
g7
V019
p95
sg9
VRattata
p96
sg11
VHG,SS,
p97
sg13
VGrass
p98
sg15
g16
sg17
g76
sg18
V55
p99
sbag1
(g2
g3
Ntp100
Rp101
(dp102
g7
V021
p103
sg9
VSpearow
p104
sg11
VHG,SS,
p105
sg13
VGrass
p106
sg15
g16
sg17
g27
sg18
V35
p107
sbag1
(g2
g3
Ntp108
Rp109
(dp110
g7
V074
p111
sg9
VGeodude
p112
sg11
VHG,SS,
p113
sg13
VGrass
p114
sg15
g16
sg17
g27
sg18
V45
p115
sbag1
(g2
g3
Ntp116
Rp117
(dp118
g7
V021
p119
sg9
VSpearow
p120
sg11
VHG,SS,
p121
sg13
VHeadbutt
p122
sg15
g16
sg17
V8
p123
sg18
V50
p124
sbag1
(g2
g3
Ntp125
Rp126
(dp127
g7
V190
p128
sg9
VAipom
p129
sg11
VHG,SS,
p130
sg13
VHeadbutt
p131
sg15
g27
sg17
g123
sg18
V20
p132
sbag1
(g2
g3
Ntp133
Rp134
(dp135
g7
V214
p136
sg9
VHeracross
p137
sg11
VHG,SS,
p138
sg13
VHeadbutt
p139
sg15
g16
sg17
g59
sg18
V30
p140
sbag1
(g2
g3
Ntp141
Rp142
(dp143
g7
V311
p144
sg9
VPlusle
p145
sg11
VHG,SS,
p146
sg13
VHoenn
p147
sg15
g16
sg17
g27
sg18
V20
p148
sbag1
(g2
g3
Ntp149
Rp150
(dp151
g7
V312
p152
sg9
VMinun
p153
sg11
VHG,SS,
p154
sg13
VHoenn
p155
sg15
g16
sg17
g16
sg18
V20
p156
sbag1
(g2
g3
Ntp157
Rp158
(dp159
g7
V403
p160
sg9
VShinx
p161
sg11
VHG,SS,
p162
sg13
VSinnoh
p163
sg15
g16
sg17
g27
sg18
V40
p164
sba.