(lp0
ccopy_reg
_reconstructor
p1
(c__main__
WildPokemon
p2
c__builtin__
object
p3
Ntp4
Rp5
(dp6
VpDexNo
p7
V019
p8
sVpSpecies
p9
VRattata
p10
sVpGames
p11
VSu,M,
p12
sVpArea
p13
VGrass
p14
sVpMinLevel
p15
V15
p16
sVpMaxLevel
p17
V18
p18
sVpRate
p19
V30
p20
sbag1
(g2
g3
Ntp21
Rp22
(dp23
g7
V079
p24
sg9
VSlowpoke
p25
sg11
VSu,M,
p26
sg13
VGrass
p27
sg15
V15
p28
sg17
V18
p29
sg19
V20
p30
sbag1
(g2
g3
Ntp31
Rp32
(dp33
g7
V278
p34
sg9
VWingull
p35
sg11
VSu,M,
p36
sg13
VGrass
p37
sg15
V15
p38
sg17
V18
p39
sg19
V40
p40
sbag1
(g2
g3
Ntp41
Rp42
(dp43
g7
V371
p44
sg9
VBagon
p45
sg11
VSu,M,
p46
sg13
VGrass
p47
sg15
V15
p48
sg17
V18
p49
sg19
V10
p50
sbag1
(g2
g3
Ntp51
Rp52
(dp53
g7
V734
p54
sg9
VYungoos
p55
sg11
VSu,M,
p56
sg13
VGrass
p57
sg15
V15
p58
sg17
V18
p59
sg19
V30
p60
sbag1
(g2
g3
Ntp61
Rp62
(dp63
g7
V072
p64
sg9
VTentacool
p65
sg11
VSu,M,
p66
sg13
VSurf
p67
sg15
V15
p68
sg17
V18
p69
sg19
V40
p70
sbag1
(g2
g3
Ntp71
Rp72
(dp73
g7
V278
p74
sg9
VWingull
p75
sg11
VSu,M,
p76
sg13
VSurf
p77
sg15
V15
p78
sg17
V18
p79
sg19
V20
p80
sbag1
(g2
g3
Ntp81
Rp82
(dp83
g7
V456
p84
sg9
VFinneon
p85
sg11
VSu,M,
p86
sg13
VSurf
p87
sg15
V15
p88
sg17
V18
p89
sg19
V40
p90
sbag1
(g2
g3
Ntp91
Rp92
(dp93
g7
V090
p94
sg9
VShellder
p95
sg11
VSu,M,
p96
sg13
VFish
p97
sg15
V10
p98
sg17
V15
p99
sg19
V1
p100
sbag1
(g2
g3
Ntp101
Rp102
(dp103
g7
V129
p104
sg9
VMagikarp
p105
sg11
VSu,M,
p106
sg13
VFish
p107
sg15
V10
p108
sg17
V15
p109
sg19
V79
p110
sbag1
(g2
g3
Ntp111
Rp112
(dp113
g7
V746
p114
sg9
VWishiwashi
p115
sg11
VSu,M,
p116
sg13
VFish
p117
sg15
V10
p118
sg17
V15
p119
sg19
V20
p120
sbag1
(g2
g3
Ntp121
Rp122
(dp123
g7
V090
p124
sg9
VShellder
p125
sg11
VSu,M,
p126
sg13
VFish
p127
sg15
V10
p128
sg17
V15
p129
sg19
V20
p130
sbag1
(g2
g3
Ntp131
Rp132
(dp133
g7
V129
p134
sg9
VMagikarp
p135
sg11
VSu,M,
p136
sg13
VFish
p137
sg15
V10
p138
sg17
V15
p139
sg19
V50
p140
sbag1
(g2
g3
Ntp141
Rp142
(dp143
g7
V746
p144
sg9
VWishiwashi
p145
sg11
VSu,M,
p146
sg13
VFish
p147
sg15
V10
p148
sg17
V15
p149
sg19
V30
p150
sbag1
(g2
g3
Ntp151
Rp152
(dp153
g7
V116
p154
sg9
VHorsea
p155
sg11
VSu,M,
p156
sg13
VSurf
p157
sg15
V18
p158
sg17
g158
sg19
V0
p159
sbag1
(g2
g3
Ntp160
Rp161
(dp162
g7
V019
p163
sg9
VRattata
p164
sg11
VUS,UM,
p165
sg13
VGrass
p166
sg15
V15
p167
sg17
V18
p168
sg19
V30
p169
sbag1
(g2
g3
Ntp170
Rp171
(dp172
g7
V079
p173
sg9
VSlowpoke
p174
sg11
VUS,UM,
p175
sg13
VGrass
p176
sg15
V15
p177
sg17
V18
p178
sg19
V20
p179
sbag1
(g2
g3
Ntp180
Rp181
(dp182
g7
V278
p183
sg9
VWingull
p184
sg11
VUS,UM,
p185
sg13
VGrass
p186
sg15
V15
p187
sg17
V18
p188
sg19
V40
p189
sbag1
(g2
g3
Ntp190
Rp191
(dp192
g7
V371
p193
sg9
VBagon
p194
sg11
VUS,UM,
p195
sg13
VGrass
p196
sg15
V15
p197
sg17
V18
p198
sg19
V10
p199
sbag1
(g2
g3
Ntp200
Rp201
(dp202
g7
V734
p203
sg9
VYungoos
p204
sg11
VUS,UM,
p205
sg13
VGrass
p206
sg15
V15
p207
sg17
V18
p208
sg19
V30
p209
sbag1
(g2
g3
Ntp210
Rp211
(dp212
g7
V072
p213
sg9
VTentacool
p214
sg11
VUS,UM,
p215
sg13
VSurf
p216
sg15
V15
p217
sg17
V18
p218
sg19
V40
p219
sbag1
(g2
g3
Ntp220
Rp221
(dp222
g7
V278
p223
sg9
VWingull
p224
sg11
VUS,UM,
p225
sg13
VSurf
p226
sg15
V15
p227
sg17
V18
p228
sg19
V20
p229
sbag1
(g2
g3
Ntp230
Rp231
(dp232
g7
V456
p233
sg9
VFinneon
p234
sg11
VUS,UM,
p235
sg13
VSurf
p236
sg15
V15
p237
sg17
V18
p238
sg19
V20
p239
sbag1
(g2
g3
Ntp240
Rp241
(dp242
g7
V458
p243
sg9
VMantyke
p244
sg11
VUS,UM,
p245
sg13
VSurf
p246
sg15
V15
p247
sg17
V18
p248
sg19
V20
p249
sbag1
(g2
g3
Ntp250
Rp251
(dp252
g7
V090
p253
sg9
VShellder
p254
sg11
VUS,UM,
p255
sg13
VFish
p256
sg15
V10
p257
sg17
V17
p258
sg19
V5
p259
sbag1
(g2
g3
Ntp260
Rp261
(dp262
g7
V129
p263
sg9
VMagikarp
p264
sg11
VUS,UM,
p265
sg13
VFish
p266
sg15
V10
p267
sg17
V17
p268
sg19
V35
p269
sbag1
(g2
g3
Ntp270
Rp271
(dp272
g7
V223
p273
sg9
VRemoraid
p274
sg11
VUS,UM,
p275
sg13
VFish
p276
sg15
V10
p277
sg17
V17
p278
sg19
V25
p279
sbag1
(g2
g3
Ntp280
Rp281
(dp282
g7
V746
p283
sg9
VWishiwashi
p284
sg11
VUS,UM,
p285
sg13
VFish
p286
sg15
V10
p287
sg17
V17
p288
sg19
V35
p289
sbag1
(g2
g3
Ntp290
Rp291
(dp292
g7
V090
p293
sg9
VShellder
p294
sg11
VUS,UM,
p295
sg13
VFish
p296
sg15
V10
p297
sg17
V22
p298
sg19
V35
p299
sbag1
(g2
g3
Ntp300
Rp301
(dp302
g7
V129
p303
sg9
VMagikarp
p304
sg11
VUS,UM,
p305
sg13
VFish
p306
sg15
V10
p307
sg17
V22
p308
sg19
V25
p309
sbag1
(g2
g3
Ntp310
Rp311
(dp312
g7
V223
p313
sg9
VRemoraid
p314
sg11
VUS,UM,
p315
sg13
VFish
p316
sg15
V10
p317
sg17
V22
p318
sg19
V15
p319
sbag1
(g2
g3
Ntp320
Rp321
(dp322
g7
V746
p323
sg9
VWishiwashi
p324
sg11
VUS,UM,
p325
sg13
VFish
p326
sg15
V10
p327
sg17
V22
p328
sg19
V25
p329
sbag1
(g2
g3
Ntp330
Rp331
(dp332
g7
V116
p333
sg9
VHorsea
p334
sg11
VUS,UM,
p335
sg13
VSurf
p336
sg15
V18
p337
sg17
g337
sg19
V0
p338
sba.