(lp0
ccopy_reg
_reconstructor
p1
(c__main__
WildPokemon
p2
c__builtin__
object
p3
Ntp4
Rp5
(dp6
VpDexNo
p7
V079
p8
sVpSpecies
p9
VSlowpoke
p10
sVpGames
p11
VX,Y,
p12
sVpArea
p13
VGrass
p14
sVpMinLevel
p15
V23
p16
sVpMaxLevel
p17
V25
p18
sVpRate
p19
V30
p20
sbag1
(g2
g3
Ntp21
Rp22
(dp23
g7
V102
p24
sg9
VExeggcute
p25
sg11
VX,Y,
p26
sg13
VGrass
p27
sg15
V24
p28
sg17
g28
sg19
V10
p29
sbag1
(g2
g3
Ntp30
Rp31
(dp32
g7
V127
p33
sg9
VPinsir
p34
sg11
VX,
p35
sg13
VGrass
p36
sg15
V25
p37
sg17
g37
sg19
V5
p38
sbag1
(g2
g3
Ntp39
Rp40
(dp41
g7
V128
p42
sg9
VTauros
p43
sg11
VX,Y,
p44
sg13
VGrass
p45
sg15
V25
p46
sg17
g46
sg19
V10
p47
sbag1
(g2
g3
Ntp48
Rp49
(dp50
g7
V214
p51
sg9
VHeracross
p52
sg11
VY,
p53
sg13
VGrass
p54
sg15
V25
p55
sg17
g55
sg19
V5
p56
sbag1
(g2
g3
Ntp57
Rp58
(dp59
g7
V241
p60
sg9
VMiltank
p61
sg11
VX,Y,
p62
sg13
VGrass
p63
sg15
V25
p64
sg17
g64
sg19
V10
p65
sbag1
(g2
g3
Ntp66
Rp67
(dp68
g7
V417
p69
sg9
VPachirisu
p70
sg11
VX,Y,
p71
sg13
VGrass
p72
sg15
V23
p73
sg17
V24
p74
sg19
V5
p75
sbag1
(g2
g3
Ntp76
Rp77
(dp78
g7
V441
p79
sg9
VChatot
p80
sg11
VX,Y,
p81
sg13
VGrass
p82
sg15
V23
p83
sg17
V25
p84
sg19
V30
p85
sbag1
(g2
g3
Ntp86
Rp87
(dp88
g7
V079
p89
sg9
VSlowpoke
p90
sg11
VX,Y,
p91
sg13
VYellow flowers
p92
sg15
V27
p93
sg17
g93
sg19
V10
p94
sbag1
(g2
g3
Ntp95
Rp96
(dp97
g7
V102
p98
sg9
VExeggcute
p99
sg11
VX,Y,
p100
sg13
VYellow flowers
p101
sg15
V26
p102
sg17
g102
sg19
V10
p103
sbag1
(g2
g3
Ntp104
Rp105
(dp106
g7
V127
p107
sg9
VPinsir
p108
sg11
g35
sg13
VYellow flowers
p109
sg15
V27
p110
sg17
g110
sg19
V5
p111
sbag1
(g2
g3
Ntp112
Rp113
(dp114
g7
V128
p115
sg9
VTauros
p116
sg11
VX,Y,
p117
sg13
VYellow flowers
p118
sg15
V25
p119
sg17
V27
p120
sg19
V30
p121
sbag1
(g2
g3
Ntp122
Rp123
(dp124
g7
V214
p125
sg9
VHeracross
p126
sg11
g53
sg13
VYellow flowers
p127
sg15
V27
p128
sg17
g128
sg19
V5
p129
sbag1
(g2
g3
Ntp130
Rp131
(dp132
g7
V241
p133
sg9
VMiltank
p134
sg11
VX,Y,
p135
sg13
VYellow flowers
p136
sg15
V25
p137
sg17
V27
p138
sg19
V30
p139
sbag1
(g2
g3
Ntp140
Rp141
(dp142
g7
V417
p143
sg9
VPachirisu
p144
sg11
VX,Y,
p145
sg13
VYellow flowers
p146
sg15
V25
p147
sg17
V26
p148
sg19
V5
p149
sbag1
(g2
g3
Ntp150
Rp151
(dp152
g7
V441
p153
sg9
VChatot
p154
sg11
VX,Y,
p155
sg13
VYellow flowers
p156
sg15
V27
p157
sg17
g157
sg19
V10
p158
sbag1
(g2
g3
Ntp159
Rp160
(dp161
g7
V128
p162
sg9
VTauros
p163
sg11
VX,Y,
p164
sg13
VHorde Encounter
p165
sg15
V14
p166
sg17
g166
sg19
V0
p167
sbag1
(g2
g3
Ntp168
Rp169
(dp170
g7
V179
p171
sg9
VMareep
p172
sg11
VX,Y,
p173
sg13
VHorde Encounter
p174
sg15
V13
p175
sg17
g175
sg19
V35
p176
sbag1
(g2
g3
Ntp177
Rp178
(dp179
g7
V241
p180
sg9
VMiltank
p181
sg11
VX,Y,
p182
sg13
VHorde Encounter
p183
sg15
V14
p184
sg17
g184
sg19
V0
p185
sbag1
(g2
g3
Ntp186
Rp187
(dp188
g7
V278
p189
sg9
VWingull
p190
sg11
VX,Y,
p191
sg13
VHorde Encounter
p192
sg15
V13
p193
sg17
g193
sg19
V60
p194
sbag1
(g2
g3
Ntp195
Rp196
(dp197
g7
V072
p198
sg9
VTentacool
p199
sg11
VX,Y,
p200
sg13
VSurf
p201
sg15
V25
p202
sg17
V27
p203
sg19
V84
p204
sbag1
(g2
g3
Ntp205
Rp206
(dp207
g7
V131
p208
sg9
VLapras
p209
sg11
VX,Y,
p210
sg13
VSurf
p211
sg15
V27
p212
sg17
g212
sg19
V1
p213
sbag1
(g2
g3
Ntp214
Rp215
(dp216
g7
V458
p217
sg9
VMantyke
p218
sg11
VX,Y,
p219
sg13
VSurf
p220
sg15
V27
p221
sg17
g221
sg19
V15
p222
sbag1
(g2
g3
Ntp223
Rp224
(dp225
g7
V370
p226
sg9
VLuvdisc
p227
sg11
VX,Y,
p228
sg13
VFish Old
p229
sg15
V15
p230
sg17
g230
sg19
V100
p231
sbag1
(g2
g3
Ntp232
Rp233
(dp234
g7
V223
p235
sg9
VRemoraid
p236
sg11
VX,Y,
p237
sg13
VFish Good
p238
sg15
V25
p239
sg17
g239
sg19
V65
p240
sbag1
(g2
g3
Ntp241
Rp242
(dp243
g7
V366
p244
sg9
VClamperl
p245
sg11
VX,Y,
p246
sg13
VFish Good
p247
sg15
V25
p248
sg17
g248
sg19
V35
p249
sbag1
(g2
g3
Ntp250
Rp251
(dp252
g7
V222
p253
sg9
VCorsola
p254
sg11
VX,Y,
p255
sg13
VFish Super
p256
sg15
V35
p257
sg17
g257
sg19
V60
p258
sbag1
(g2
g3
Ntp259
Rp260
(dp261
g7
V224
p262
sg9
VOctillery
p263
sg11
VX,Y,
p264
sg13
VFish Super
p265
sg15
V35
p266
sg17
g266
sg19
V35
p267
sbag1
(g2
g3
Ntp268
Rp269
(dp270
g7
V367
p271
sg9
VHuntail
p272
sg11
g35
sg13
VFish Super
p273
sg15
V35
p274
sg17
g274
sg19
V5
p275
sbag1
(g2
g3
Ntp276
Rp277
(dp278
g7
V368
p279
sg9
VGorebyss
p280
sg11
g53
sg13
VFish Super
p281
sg15
V35
p282
sg17
g282
sg19
V5
p283
sbag1
(g2
g3
Ntp284
Rp285
(dp286
g7
V557
p287
sg9
VDwebble
p288
sg11
VX,Y,
p289
sg13
VRock Smash
p290
sg15
V23
p291
sg17
V25
p292
sg19
V66
p293
sbag1
(g2
g3
Ntp294
Rp295
(dp296
g7
V688
p297
sg9
VBinacle
p298
sg11
VX,Y,
p299
sg13
VRock Smash
p300
sg15
V23
p301
sg17
V25
p302
sg19
V34
p303
sbag1
(g2
g3
Ntp304
Rp305
(dp306
g7
V131
p307
sg9
VLapras
p308
sg11
VX,Y,
p309
sg13
VGift
p310
sg15
V30
p311
sg17
g311
sg19
V0
p312
sba.