(lp0
ccopy_reg
_reconstructor
p1
(c__main__
WildPokemon
p2
c__builtin__
object
p3
Ntp4
Rp5
(dp6
VpDexNo
p7
V262
p8
sVpSpecies
p9
VMightyena
p10
sVpGames
p11
VX,
p12
sVpArea
p13
VGrass
p14
sVpMinLevel
p15
V34
p16
sVpMaxLevel
p17
V36
p18
sVpRate
p19
V30
p20
sbag1
(g2
g3
Ntp21
Rp22
(dp23
g7
V451
p24
sg9
VSkorupi
p25
sg11
VX,Y,
p26
sg13
VGrass
p27
sg15
V34
p28
sg17
V35
p29
sg19
V20
p30
sbag1
(g2
g3
Ntp31
Rp32
(dp33
g7
V505
p34
sg9
VWatchog
p35
sg11
VX,Y,
p36
sg13
VGrass
p37
sg15
V36
p38
sg17
g38
sg19
V10
p39
sbag1
(g2
g3
Ntp40
Rp41
(dp42
g7
V510
p43
sg9
VLiepard
p44
sg11
VY,
p45
sg13
VGrass
p46
sg15
V34
p47
sg17
V36
p48
sg19
V30
p49
sbag1
(g2
g3
Ntp50
Rp51
(dp52
g7
V590
p53
sg9
VFoongus
p54
sg11
VX,Y,
p55
sg13
VGrass
p56
sg15
V34
p57
sg17
V35
p58
sg19
V20
p59
sbag1
(g2
g3
Ntp60
Rp61
(dp62
g7
V624
p63
sg9
VPawniard
p64
sg11
VX,Y,
p65
sg13
VGrass
p66
sg15
V36
p67
sg17
g67
sg19
V10
p68
sbag1
(g2
g3
Ntp69
Rp70
(dp71
g7
V707
p72
sg9
VKlefki
p73
sg11
VX,Y,
p74
sg13
VGrass
p75
sg15
V34
p76
sg17
V36
p77
sg19
V10
p78
sbag1
(g2
g3
Ntp79
Rp80
(dp81
g7
V262
p82
sg9
VMightyena
p83
sg11
g12
sg13
VRed flowers
p84
sg15
V36
p85
sg17
g85
sg19
V10
p86
sbag1
(g2
g3
Ntp87
Rp88
(dp89
g7
V451
p90
sg9
VSkorupi
p91
sg11
VX,Y,
p92
sg13
VRed flowers
p93
sg15
V36
p94
sg17
g94
sg19
V10
p95
sbag1
(g2
g3
Ntp96
Rp97
(dp98
g7
V505
p99
sg9
VWatchog
p100
sg11
VX,Y,
p101
sg13
VRed flowers
p102
sg15
V34
p103
sg17
V36
p104
sg19
V30
p105
sbag1
(g2
g3
Ntp106
Rp107
(dp108
g7
V510
p109
sg9
VLiepard
p110
sg11
g45
sg13
VRed flowers
p111
sg15
V36
p112
sg17
g112
sg19
V10
p113
sbag1
(g2
g3
Ntp114
Rp115
(dp116
g7
V590
p117
sg9
VFoongus
p118
sg11
VX,Y,
p119
sg13
VRed flowers
p120
sg15
V34
p121
sg17
V35
p122
sg19
V20
p123
sbag1
(g2
g3
Ntp124
Rp125
(dp126
g7
V624
p127
sg9
VPawniard
p128
sg11
VX,Y,
p129
sg13
VRed flowers
p130
sg15
V34
p131
sg17
V35
p132
sg19
V20
p133
sbag1
(g2
g3
Ntp134
Rp135
(dp136
g7
V707
p137
sg9
VKlefki
p138
sg11
VX,Y,
p139
sg13
VRed flowers
p140
sg15
V34
p141
sg17
V36
p142
sg19
V10
p143
sbag1
(g2
g3
Ntp144
Rp145
(dp146
g7
V198
p147
sg9
VMurkrow
p148
sg11
VX,Y,
p149
sg13
VHorde Encounter
p150
sg15
V18
p151
sg17
g151
sg19
V60
p152
sbag1
(g2
g3
Ntp153
Rp154
(dp155
g7
V590
p156
sg9
VFoongus
p157
sg11
VX,Y,
p158
sg13
VHorde Encounter
p159
sg15
V18
p160
sg17
g160
sg19
V35
p161
sbag1
(g2
g3
Ntp162
Rp163
(dp164
g7
V707
p165
sg9
VKlefki
p166
sg11
VX,Y,
p167
sg13
VHorde Encounter
p168
sg15
V19
p169
sg17
g169
sg19
V5
p170
sbag1
(g2
g3
Ntp171
Rp172
(dp173
g7
V271
p174
sg9
VLombre
p175
sg11
VX,Y,
p176
sg13
VSurf
p177
sg15
V34
p178
sg17
V36
p179
sg19
V66
p180
sbag1
(g2
g3
Ntp181
Rp182
(dp183
g7
V419
p184
sg9
VFloatzel
p185
sg11
VX,Y,
p186
sg13
VSurf
p187
sg15
V34
p188
sg17
V36
p189
sg19
V34
p190
sbag1
(g2
g3
Ntp191
Rp192
(dp193
g7
V060
p194
sg9
VPoliwag
p195
sg11
VX,Y,
p196
sg13
VFish Old
p197
sg15
V15
p198
sg17
g198
sg19
V100
p199
sbag1
(g2
g3
Ntp200
Rp201
(dp202
g7
V061
p203
sg9
VPoliwhirl
p204
sg11
VX,Y,
p205
sg13
VFish Good
p206
sg15
V25
p207
sg17
g207
sg19
V35
p208
sbag1
(g2
g3
Ntp209
Rp210
(dp211
g7
V550
p212
sg9
VBasculin
p213
sg11
g45
sg13
VFish Good
p214
sg15
V25
p215
sg17
g215
sg19
V65
p216
sbag1
(g2
g3
Ntp217
Rp218
(dp219
g7
V550
p220
sg9
VBasculin
p221
sg11
g12
sg13
VFish Good
p222
sg15
V25
p223
sg17
g223
sg19
V65
p224
sbag1
(g2
g3
Ntp225
Rp226
(dp227
g7
V061
p228
sg9
VPoliwhirl
p229
sg11
VX,Y,
p230
sg13
VFish Super
p231
sg15
V35
p232
sg17
g232
sg19
V65
p233
sbag1
(g2
g3
Ntp234
Rp235
(dp236
g7
V550
p237
sg9
VBasculin
p238
sg11
g12
sg13
VFish Super
p239
sg15
V35
p240
sg17
g240
sg19
V35
p241
sbag1
(g2
g3
Ntp242
Rp243
(dp244
g7
V550
p245
sg9
VBasculin
p246
sg11
g45
sg13
VFish Super
p247
sg15
V35
p248
sg17
g248
sg19
V35
p249
sba.