(lp0
ccopy_reg
_reconstructor
p1
(c__main__
WildPokemon
p2
c__builtin__
object
p3
Ntp4
Rp5
(dp6
VpDexNo
p7
V016
p8
sVpSpecies
p9
VPidgey
p10
sVpGames
p11
VX,Y,
p12
sVpArea
p13
VSpecial
p14
sVpMinLevel
p15
V3
p16
sVpMaxLevel
p17
g16
sVpRate
p18
V0
p19
sbag1
(g2
g3
Ntp20
Rp21
(dp22
g7
V010
p23
sg9
VCaterpie
p24
sg11
VY,
p25
sg13
VGrass
p26
sg15
g16
sg17
V4
p27
sg18
V11
p28
sbag1
(g2
g3
Ntp29
Rp30
(dp31
g7
V013
p32
sg9
VWeedle
p33
sg11
VX,
p34
sg13
VGrass
p35
sg15
g16
sg17
g27
sg18
V11
p36
sbag1
(g2
g3
Ntp37
Rp38
(dp39
g7
V016
p40
sg9
VPidgey
p41
sg11
VX,Y,
p42
sg13
VGrass
p43
sg15
g16
sg17
g27
sg18
V14
p44
sbag1
(g2
g3
Ntp45
Rp46
(dp47
g7
V263
p48
sg9
VZigzagoon
p49
sg11
VX,Y,
p50
sg13
VGrass
p51
sg15
g16
sg17
g27
sg18
V15
p52
sbag1
(g2
g3
Ntp53
Rp54
(dp55
g7
V661
p56
sg9
VFletchling
p57
sg11
VX,Y,
p58
sg13
VGrass
p59
sg15
V2
p60
sg17
g16
sg18
V20
p61
sbag1
(g2
g3
Ntp62
Rp63
(dp64
g7
V659
p65
sg9
VBunnelby
p66
sg11
VX,Y,
p67
sg13
VGrass
p68
sg15
g60
sg17
g16
sg18
V20
p69
sbag1
(g2
g3
Ntp70
Rp71
(dp72
g7
V664
p73
sg9
VScatterbug
p74
sg11
VX,Y,
p75
sg13
VGrass
p76
sg15
g60
sg17
g16
sg18
V20
p77
sba.