(lp0
ccopy_reg
_reconstructor
p1
(c__main__
WildPokemon
p2
c__builtin__
object
p3
Ntp4
Rp5
(dp6
VpDexNo
p7
V063
p8
sVpSpecies
p9
VAbra
p10
sVpGames
p11
VX,Y,
p12
sVpArea
p13
VGrass
p14
sVpMinLevel
p15
V10
p16
sVpMaxLevel
p17
g16
sVpRate
p18
V5
p19
sbag1
(g2
g3
Ntp20
Rp21
(dp22
g7
V084
p23
sg9
VDoduo
p24
sg11
VX,Y,
p25
sg13
VGrass
p26
sg15
V10
p27
sg17
g27
sg18
V10
p28
sbag1
(g2
g3
Ntp29
Rp30
(dp31
g7
V311
p32
sg9
VPlusle
p33
sg11
VX,
p34
sg13
VGrass
p35
sg15
V9
p36
sg17
V10
p37
sg18
V5
p38
sbag1
(g2
g3
Ntp39
Rp40
(dp41
g7
V312
p42
sg9
VMinun
p43
sg11
VY,
p44
sg13
VGrass
p45
sg15
g36
sg17
V10
p46
sg18
V5
p47
sbag1
(g2
g3
Ntp48
Rp49
(dp50
g7
V316
p51
sg9
VGulpin
p52
sg11
VX,Y,
p53
sg13
VGrass
p54
sg15
V10
p55
sg17
g55
sg18
V10
p56
sbag1
(g2
g3
Ntp57
Rp58
(dp59
g7
V659
p60
sg9
VBunnelby
p61
sg11
VX,Y,
p62
sg13
VGrass
p63
sg15
V8
p64
sg17
V10
p65
sg18
V30
p66
sbag1
(g2
g3
Ntp67
Rp68
(dp69
g7
V672
p70
sg9
VSkiddo
p71
sg11
VX,Y,
p72
sg13
VGrass
p73
sg15
V10
p74
sg17
g74
sg18
V10
p75
sbag1
(g2
g3
Ntp76
Rp77
(dp78
g7
V674
p79
sg9
VPancham
p80
sg11
VX,Y,
p81
sg13
VGrass
p82
sg15
V10
p83
sg17
g83
sg18
V10
p84
sbag1
(g2
g3
Ntp85
Rp86
(dp87
g7
V676
p88
sg9
VFurfrou
p89
sg11
VX,Y,
p90
sg13
VGrass
p91
sg15
g64
sg17
g36
sg18
V20
p92
sbag1
(g2
g3
Ntp93
Rp94
(dp95
g7
V063
p96
sg9
VAbra
p97
sg11
VX,Y,
p98
sg13
VPurple flowers
p99
sg15
V10
p100
sg17
g100
sg18
V5
p101
sbag1
(g2
g3
Ntp102
Rp103
(dp104
g7
V084
p105
sg9
VDoduo
p106
sg11
VX,Y,
p107
sg13
VPurple flowers
p108
sg15
V10
p109
sg17
g109
sg18
V10
p110
sbag1
(g2
g3
Ntp111
Rp112
(dp113
g7
V311
p114
sg9
VPlusle
p115
sg11
g34
sg13
VPurple flowers
p116
sg15
g36
sg17
V10
p117
sg18
V5
p118
sbag1
(g2
g3
Ntp119
Rp120
(dp121
g7
V312
p122
sg9
VMinun
p123
sg11
g44
sg13
VPurple flowers
p124
sg15
g36
sg17
V10
p125
sg18
V5
p126
sbag1
(g2
g3
Ntp127
Rp128
(dp129
g7
V316
p130
sg9
VGulpin
p131
sg11
VX,Y,
p132
sg13
VPurple flowers
p133
sg15
V10
p134
sg17
g134
sg18
V10
p135
sbag1
(g2
g3
Ntp136
Rp137
(dp138
g7
V659
p139
sg9
VBunnelby
p140
sg11
VX,Y,
p141
sg13
VPurple flowers
p142
sg15
V10
p143
sg17
g143
sg18
V10
p144
sbag1
(g2
g3
Ntp145
Rp146
(dp147
g7
V672
p148
sg9
VSkiddo
p149
sg11
VX,Y,
p150
sg13
VPurple flowers
p151
sg15
g64
sg17
V10
p152
sg18
V30
p153
sbag1
(g2
g3
Ntp154
Rp155
(dp156
g7
V674
p157
sg9
VPancham
p158
sg11
VX,Y,
p159
sg13
VPurple flowers
p160
sg15
g64
sg17
g36
sg18
V20
p161
sbag1
(g2
g3
Ntp162
Rp163
(dp164
g7
V676
p165
sg9
VFurfrou
p166
sg11
VX,Y,
p167
sg13
VPurple flowers
p168
sg15
V10
p169
sg17
g169
sg18
V10
p170
sbag1
(g2
g3
Ntp171
Rp172
(dp173
g7
V311
p174
sg9
VPlusle
p175
sg11
VX,Y,
p176
sg13
VHorde Encounter
p177
sg15
V6
p178
sg17
g178
sg18
V0
p179
sbag1
(g2
g3
Ntp180
Rp181
(dp182
g7
V312
p183
sg9
VMinun
p184
sg11
VX,Y,
p185
sg13
VHorde Encounter
p186
sg15
g178
sg17
g178
sg18
V0
p187
sbag1
(g2
g3
Ntp188
Rp189
(dp190
g7
V316
p191
sg9
VGulpin
p192
sg11
VX,Y,
p193
sg13
VHorde Encounter
p194
sg15
V5
p195
sg17
g195
sg18
V60
p196
sbag1
(g2
g3
Ntp197
Rp198
(dp199
g7
V559
p200
sg9
VScraggy
p201
sg11
VX,Y,
p202
sg13
VHorde Encounter
p203
sg15
g195
sg17
g195
sg18
V35
p204
sba.