(lp0
ccopy_reg
_reconstructor
p1
(c__main__
WildPokemon
p2
c__builtin__
object
p3
Ntp4
Rp5
(dp6
VpDexNo
p7
V043
p8
sVpSpecies
p9
VOddish
p10
sVpGames
p11
VX,Y,
p12
sVpArea
p13
VTall grass
p14
sVpMinLevel
p15
V10
p16
sVpMaxLevel
p17
V12
p18
sVpRate
p19
V30
p20
sbag1
(g2
g3
Ntp21
Rp22
(dp23
g7
V161
p24
sg9
VSentret
p25
sg11
VX,Y,
p26
sg13
VTall grass
p27
sg15
V10
p28
sg17
V11
p29
sg19
V20
p30
sbag1
(g2
g3
Ntp31
Rp32
(dp33
g7
V290
p34
sg9
VNincada
p35
sg11
VX,Y,
p36
sg13
VTall grass
p37
sg15
V12
p38
sg17
g38
sg19
V10
p39
sbag1
(g2
g3
Ntp40
Rp41
(dp42
g7
V352
p43
sg9
VKecleon
p44
sg11
VX,Y,
p45
sg13
VTall grass
p46
sg15
V11
p47
sg17
V12
p48
sg19
V5
p49
sbag1
(g2
g3
Ntp50
Rp51
(dp52
g7
V677
p53
sg9
VEspurr
p54
sg11
VX,Y,
p55
sg13
VTall grass
p56
sg15
V11
p57
sg17
V12
p58
sg19
V20
p59
sbag1
(g2
g3
Ntp60
Rp61
(dp62
g7
V679
p63
sg9
VHonedge
p64
sg11
VX,Y,
p65
sg13
VTall grass
p66
sg15
V11
p67
sg17
V12
p68
sg19
V15
p69
sbag1
(g2
g3
Ntp70
Rp71
(dp72
g7
V543
p73
sg9
VVenipede
p74
sg11
VX,Y,
p75
sg13
VRustling bush
p76
sg15
V10
p77
sg17
V12
p78
sg19
V0
p79
sbag1
(g2
g3
Ntp80
Rp81
(dp82
g7
V531
p83
sg9
VAudino
p84
sg11
VX,Y,
p85
sg13
VRustling bush
p86
sg15
V10
p87
sg17
V12
p88
sg19
V0
p89
sba.