(lp0
ccopy_reg
_reconstructor
p1
(c__main__
WildPokemon
p2
c__builtin__
object
p3
Ntp4
Rp5
(dp6
VpDexNo
p7
V070
p8
sVpSpecies
p9
VWeepinbell
p10
sVpGames
p11
VX,Y,
p12
sVpArea
p13
VPurple flowers
p14
sVpMinLevel
p15
V46
p16
sVpMaxLevel
p17
V47
p18
sVpRate
p19
V20
p20
sbag1
(g2
g3
Ntp21
Rp22
(dp23
g7
V093
p24
sg9
VHaunter
p25
sg11
VX,Y,
p26
sg13
VPurple flowers
p27
sg15
V47
p28
sg17
g28
sg19
V5
p29
sbag1
(g2
g3
Ntp30
Rp31
(dp32
g7
V195
p33
sg9
VQuagsire
p34
sg11
VX,Y,
p35
sg13
VPurple flowers
p36
sg15
V48
p37
sg17
g37
sg19
V10
p38
sbag1
(g2
g3
Ntp39
Rp40
(dp41
g7
V452
p42
sg9
VDrapion
p43
sg11
VX,Y,
p44
sg13
VPurple flowers
p45
sg15
V46
p46
sg17
V48
p47
sg19
V30
p48
sbag1
(g2
g3
Ntp49
Rp50
(dp51
g7
V455
p52
sg9
VCarnivine
p53
sg11
VX,Y,
p54
sg13
VPurple flowers
p55
sg15
V46
p56
sg17
V48
p57
sg19
V5
p58
sbag1
(g2
g3
Ntp59
Rp60
(dp61
g7
V588
p62
sg9
VKarrablast
p63
sg11
VX,Y,
p64
sg13
VPurple flowers
p65
sg15
V47
p66
sg17
g66
sg19
V10
p67
sbag1
(g2
g3
Ntp68
Rp69
(dp70
g7
V616
p71
sg9
VShelmet
p72
sg11
VX,Y,
p73
sg13
VPurple flowers
p74
sg15
V47
p75
sg17
g75
sg19
V10
p76
sbag1
(g2
g3
Ntp77
Rp78
(dp79
g7
V705
p80
sg9
VSliggoo
p81
sg11
VX,Y,
p82
sg13
VPurple flowers
p83
sg15
V48
p84
sg17
g84
sg19
V10
p85
sbag1
(g2
g3
Ntp86
Rp87
(dp88
g7
V070
p89
sg9
VWeepinbell
p90
sg11
VX,Y,
p91
sg13
VYellow flowers
p92
sg15
V48
p93
sg17
g93
sg19
V10
p94
sbag1
(g2
g3
Ntp95
Rp96
(dp97
g7
V093
p98
sg9
VHaunter
p99
sg11
VX,Y,
p100
sg13
VYellow flowers
p101
sg15
V47
p102
sg17
g102
sg19
V5
p103
sbag1
(g2
g3
Ntp104
Rp105
(dp106
g7
V195
p107
sg9
VQuagsire
p108
sg11
VX,Y,
p109
sg13
VYellow flowers
p110
sg15
V46
p111
sg17
V48
p112
sg19
V30
p113
sbag1
(g2
g3
Ntp114
Rp115
(dp116
g7
V452
p117
sg9
VDrapion
p118
sg11
VX,Y,
p119
sg13
VYellow flowers
p120
sg15
V48
p121
sg17
g121
sg19
V10
p122
sbag1
(g2
g3
Ntp123
Rp124
(dp125
g7
V455
p126
sg9
VCarnivine
p127
sg11
VX,Y,
p128
sg13
VYellow flowers
p129
sg15
V46
p130
sg17
V48
p131
sg19
V5
p132
sbag1
(g2
g3
Ntp133
Rp134
(dp135
g7
V588
p136
sg9
VKarrablast
p137
sg11
VX,Y,
p138
sg13
VYellow flowers
p139
sg15
V47
p140
sg17
g140
sg19
V10
p141
sbag1
(g2
g3
Ntp142
Rp143
(dp144
g7
V616
p145
sg9
VShelmet
p146
sg11
VX,Y,
p147
sg13
VYellow flowers
p148
sg15
V47
p149
sg17
g149
sg19
V10
p150
sbag1
(g2
g3
Ntp151
Rp152
(dp153
g7
V705
p154
sg9
VSliggoo
p155
sg11
VX,Y,
p156
sg13
VYellow flowers
p157
sg15
V46
p158
sg17
V47
p159
sg19
V20
p160
sbag1
(g2
g3
Ntp161
Rp162
(dp163
g7
V024
p164
sg9
VArbok
p165
sg11
VX,Y,
p166
sg13
VHorde Encounter
p167
sg15
V25
p168
sg17
g168
sg19
V5
p169
sbag1
(g2
g3
Ntp170
Rp171
(dp172
g7
V070
p173
sg9
VWeepinbell
p174
sg11
VX,Y,
p175
sg13
VHorde Encounter
p176
sg15
V24
p177
sg17
g177
sg19
V60
p178
sbag1
(g2
g3
Ntp179
Rp180
(dp181
g7
V207
p182
sg9
VGligar
p183
sg11
VX,Y,
p184
sg13
VHorde Encounter
p185
sg15
V24
p186
sg17
g186
sg19
V35
p187
sbag1
(g2
g3
Ntp188
Rp189
(dp190
g7
V093
p191
sg9
VHaunter
p192
sg11
VX,Y,
p193
sg13
VSwamp
p194
sg15
V47
p195
sg17
g195
sg19
V5
p196
sbag1
(g2
g3
Ntp197
Rp198
(dp199
g7
V195
p200
sg9
VQuagsire
p201
sg11
VX,Y,
p202
sg13
VSwamp
p203
sg15
V46
p204
sg17
V48
p205
sg19
V30
p206
sbag1
(g2
g3
Ntp207
Rp208
(dp209
g7
V455
p210
sg9
VCarnivine
p211
sg11
VX,Y,
p212
sg13
VSwamp
p213
sg15
V46
p214
sg17
V48
p215
sg19
V5
p216
sbag1
(g2
g3
Ntp217
Rp218
(dp219
g7
V588
p220
sg9
VKarrablast
p221
sg11
VX,Y,
p222
sg13
VSwamp
p223
sg15
V47
p224
sg17
g224
sg19
V10
p225
sbag1
(g2
g3
Ntp226
Rp227
(dp228
g7
V616
p229
sg9
VShelmet
p230
sg11
VX,Y,
p231
sg13
VSwamp
p232
sg15
V47
p233
sg17
g233
sg19
V10
p234
sbag1
(g2
g3
Ntp235
Rp236
(dp237
g7
V618
p238
sg9
VStunfisk
p239
sg11
VX,Y,
p240
sg13
VSwamp
p241
sg15
V47
p242
sg17
V48
p243
sg19
V20
p244
sbag1
(g2
g3
Ntp245
Rp246
(dp247
g7
V705
p248
sg9
VSliggoo
p249
sg11
VX,Y,
p250
sg13
VSwamp
p251
sg15
V47
p252
sg17
V48
p253
sg19
V20
p254
sbag1
(g2
g3
Ntp255
Rp256
(dp257
g7
V195
p258
sg9
VQuagsire
p259
sg11
VX,Y,
p260
sg13
VSurf
p261
sg15
V46
p262
sg17
g262
sg19
V50
p263
sbag1
(g2
g3
Ntp264
Rp265
(dp266
g7
V618
p267
sg9
VStunfisk
p268
sg11
VX,Y,
p269
sg13
VSurf
p270
sg15
V46
p271
sg17
V48
p272
sg19
V34
p273
sbag1
(g2
g3
Ntp274
Rp275
(dp276
g7
V705
p277
sg9
VSliggoo
p278
sg11
VX,Y,
p279
sg13
VSurf
p280
sg15
V47
p281
sg17
V48
p282
sg19
V16
p283
sbag1
(g2
g3
Ntp284
Rp285
(dp286
g7
V060
p287
sg9
VPoliwag
p288
sg11
VX,Y,
p289
sg13
VFish Old
p290
sg15
V25
p291
sg17
g291
sg19
V100
p292
sbag1
(g2
g3
Ntp293
Rp294
(dp295
g7
V061
p296
sg9
VPoliwhirl
p297
sg11
VX,Y,
p298
sg13
VFish Good
p299
sg15
V35
p300
sg17
g300
sg19
V35
p301
sbag1
(g2
g3
Ntp302
Rp303
(dp304
g7
V339
p305
sg9
VBarboach
p306
sg11
VX,Y,
p307
sg13
VFish Good
p308
sg15
V35
p309
sg17
g309
sg19
V65
p310
sbag1
(g2
g3
Ntp311
Rp312
(dp313
g7
V061
p314
sg9
VPoliwhirl
p315
sg11
VX,Y,
p316
sg13
VFish Super
p317
sg15
V45
p318
sg17
g318
sg19
V60
p319
sbag1
(g2
g3
Ntp320
Rp321
(dp322
g7
V186
p323
sg9
VPolitoed
p324
sg11
VX,Y,
p325
sg13
VFish Super
p326
sg15
V50
p327
sg17
g327
sg19
V5
p328
sbag1
(g2
g3
Ntp329
Rp330
(dp331
g7
V340
p332
sg9
VWhiscash
p333
sg11
VX,Y,
p334
sg13
VFish Super
p335
sg15
V45
p336
sg17
g336
sg19
V35
p337
sba.