(lp0
ccopy_reg
_reconstructor
p1
(c__main__
WildPokemon
p2
c__builtin__
object
p3
Ntp4
Rp5
(dp6
VpDexNo
p7
V215
p8
sVpSpecies
p9
VSneasel
p10
sVpGames
p11
VX,Y,
p12
sVpArea
p13
VSnow
p14
sVpMinLevel
p15
V38
p16
sVpMaxLevel
p17
V40
p18
sVpRate
p19
V29
p20
sbag1
(g2
g3
Ntp21
Rp22
(dp23
g7
V225
p24
sg9
VDelibird
p25
sg11
VX,Y,
p26
sg13
VSnow
p27
sg15
V38
p28
sg17
V40
p29
sg19
V40
p30
sbag1
(g2
g3
Ntp31
Rp32
(dp33
g7
V459
p34
sg9
VSnover
p35
sg11
VX,Y,
p36
sg13
VSnow
p37
sg15
V38
p38
sg17
V39
p39
sg19
V30
p40
sbag1
(g2
g3
Ntp41
Rp42
(dp43
g7
V460
p44
sg9
VAbomasnow
p45
sg11
VX,Y,
p46
sg13
VSnow
p47
sg15
V40
p48
sg17
g48
sg19
V1
p49
sba.