(lp0
ccopy_reg
_reconstructor
p1
(c__main__
WildPokemon
p2
c__builtin__
object
p3
Ntp4
Rp5
(dp6
VpDexNo
p7
V590
p8
sVpSpecies
p9
VFoongus
p10
sVpGames
p11
VX,Y,
p12
sVpArea
p13
VTall grass
p14
sVpMinLevel
p15
V34
p16
sVpMaxLevel
p17
V36
p18
sVpRate
p19
V20
p20
sbag1
(g2
g3
Ntp21
Rp22
(dp23
g7
V707
p24
sg9
VKlefki
p25
sg11
VX,Y,
p26
sg13
VTall grass
p27
sg15
V34
p28
sg17
V35
p29
sg19
V9
p30
sbag1
(g2
g3
Ntp31
Rp32
(dp33
g7
V708
p34
sg9
VPhantump
p35
sg11
VX,Y,
p36
sg13
VTall grass
p37
sg15
V35
p38
sg17
g38
sg19
V10
p39
sbag1
(g2
g3
Ntp40
Rp41
(dp42
g7
V710
p43
sg9
VPumpkaboo
p44
sg11
VX,Y,
p45
sg13
VTall grass
p46
sg15
V35
p47
sg17
V36
p48
sg19
V20
p49
sbag1
(g2
g3
Ntp50
Rp51
(dp52
g7
V710
p53
sg9
VPumpkaboo
p54
sg11
VX,Y,
p55
sg13
VTall grass
p56
sg15
V34
p57
sg17
V35
p58
sg19
V30
p59
sbag1
(g2
g3
Ntp60
Rp61
(dp62
g7
V710
p63
sg9
VPumpkaboo
p64
sg11
VX,Y,
p65
sg13
VTall grass
p66
sg15
V36
p67
sg17
g67
sg19
V10
p68
sbag1
(g2
g3
Ntp69
Rp70
(dp71
g7
V710
p72
sg9
VPumpkaboo
p73
sg11
VX,Y,
p74
sg13
VTall grass
p75
sg15
V36
p76
sg17
g76
sg19
V1
p77
sbag1
(g2
g3
Ntp78
Rp79
(dp80
g7
V070
p81
sg9
VWeepinbell
p82
sg11
VX,Y,
p83
sg13
VYellow flowers
p84
sg15
V35
p85
sg17
V36
p86
sg19
V20
p87
sbag1
(g2
g3
Ntp88
Rp89
(dp90
g7
V419
p91
sg9
VFloatzel
p92
sg11
VX,Y,
p93
sg13
VYellow flowers
p94
sg15
V35
p95
sg17
V36
p96
sg19
V20
p97
sbag1
(g2
g3
Ntp98
Rp99
(dp100
g7
V451
p101
sg9
VSkorupi
p102
sg11
VX,Y,
p103
sg13
VYellow flowers
p104
sg15
V34
p105
sg17
V35
p106
sg19
V20
p107
sbag1
(g2
g3
Ntp108
Rp109
(dp110
g7
V590
p111
sg9
VFoongus
p112
sg11
VX,Y,
p113
sg13
VYellow flowers
p114
sg15
V34
p115
sg17
V36
p116
sg19
V20
p117
sbag1
(g2
g3
Ntp118
Rp119
(dp120
g7
V707
p121
sg9
VKlefki
p122
sg11
VX,Y,
p123
sg13
VYellow flowers
p124
sg15
V34
p125
sg17
V36
p126
sg19
V10
p127
sbag1
(g2
g3
Ntp128
Rp129
(dp130
g7
V708
p131
sg9
VPhantump
p132
sg11
VX,Y,
p133
sg13
VYellow flowers
p134
sg15
V35
p135
sg17
g135
sg19
V10
p136
sbag1
(g2
g3
Ntp137
Rp138
(dp139
g7
V198
p140
sg9
VMurkrow
p141
sg11
VX,Y,
p142
sg13
VHorde Encounter
p143
sg15
V18
p144
sg17
g144
sg19
V60
p145
sbag1
(g2
g3
Ntp146
Rp147
(dp148
g7
V590
p149
sg9
VFoongus
p150
sg11
VX,Y,
p151
sg13
VHorde Encounter
p152
sg15
V18
p153
sg17
g153
sg19
V35
p154
sbag1
(g2
g3
Ntp155
Rp156
(dp157
g7
V707
p158
sg9
VKlefki
p159
sg11
VX,Y,
p160
sg13
VHorde Encounter
p161
sg15
V19
p162
sg17
g162
sg19
V5
p163
sbag1
(g2
g3
Ntp164
Rp165
(dp166
g7
V271
p167
sg9
VLombre
p168
sg11
VX,Y,
p169
sg13
VSurf
p170
sg15
V34
p171
sg17
V36
p172
sg19
V66
p173
sbag1
(g2
g3
Ntp174
Rp175
(dp176
g7
V419
p177
sg9
VFloatzel
p178
sg11
VX,Y,
p179
sg13
VSurf
p180
sg15
V34
p181
sg17
V36
p182
sg19
V34
p183
sbag1
(g2
g3
Ntp184
Rp185
(dp186
g7
V060
p187
sg9
VPoliwag
p188
sg11
VX,Y,
p189
sg13
VFish Old
p190
sg15
V15
p191
sg17
g191
sg19
V100
p192
sbag1
(g2
g3
Ntp193
Rp194
(dp195
g7
V061
p196
sg9
VPoliwhirl
p197
sg11
VX,Y,
p198
sg13
VFish Good
p199
sg15
V25
p200
sg17
g200
sg19
V35
p201
sbag1
(g2
g3
Ntp202
Rp203
(dp204
g7
V550
p205
sg9
VBasculin
p206
sg11
VY,
p207
sg13
VFish Good
p208
sg15
V25
p209
sg17
g209
sg19
V65
p210
sbag1
(g2
g3
Ntp211
Rp212
(dp213
g7
V550
p214
sg9
VBasculin
p215
sg11
VX,
p216
sg13
VFish Good
p217
sg15
V25
p218
sg17
g218
sg19
V65
p219
sbag1
(g2
g3
Ntp220
Rp221
(dp222
g7
V061
p223
sg9
VPoliwhirl
p224
sg11
VX,Y,
p225
sg13
VFish Super
p226
sg15
V35
p227
sg17
g227
sg19
V65
p228
sbag1
(g2
g3
Ntp229
Rp230
(dp231
g7
V550
p232
sg9
VBasculin
p233
sg11
g216
sg13
VFish Super
p234
sg15
V35
p235
sg17
g235
sg19
V35
p236
sbag1
(g2
g3
Ntp237
Rp238
(dp239
g7
V550
p240
sg9
VBasculin
p241
sg11
g207
sg13
VFish Super
p242
sg15
V35
p243
sg17
g243
sg19
V35
p244
sba.