(lp0
ccopy_reg
_reconstructor
p1
(c__main__
WildPokemon
p2
c__builtin__
object
p3
Ntp4
Rp5
(dp6
VpDexNo
p7
V039
p8
sVpSpecies
p9
VJigglypuff
p10
sVpGames
p11
VX,Y,
p12
sVpArea
p13
VGrass
p14
sVpMinLevel
p15
V48
p16
sVpMaxLevel
p17
V49
p18
sVpRate
p19
V20
p20
sbag1
(g2
g3
Ntp21
Rp22
(dp23
g7
V164
p24
sg9
VNoctowl
p25
sg11
VX,Y,
p26
sg13
VGrass
p27
sg15
V48
p28
sg17
V50
p29
sg19
V30
p30
sbag1
(g2
g3
Ntp31
Rp32
(dp33
g7
V571
p34
sg9
VZoroark
p35
sg11
VX,Y,
p36
sg13
VGrass
p37
sg15
V48
p38
sg17
V50
p39
sg19
V5
p40
sbag1
(g2
g3
Ntp41
Rp42
(dp43
g7
V575
p44
sg9
VGothorita
p45
sg11
VX,Y,
p46
sg13
VGrass
p47
sg15
V50
p48
sg17
g48
sg19
V10
p49
sbag1
(g2
g3
Ntp50
Rp51
(dp52
g7
V591
p53
sg9
VAmoonguss
p54
sg11
VX,Y,
p55
sg13
VGrass
p56
sg15
V48
p57
sg17
V50
p58
sg19
V25
p59
sbag1
(g2
g3
Ntp60
Rp61
(dp62
g7
V709
p63
sg9
VTrevenant
p64
sg11
VX,Y,
p65
sg13
VGrass
p66
sg15
V50
p67
sg17
g67
sg19
V10
p68
sbag1
(g2
g3
Ntp69
Rp70
(dp71
g7
V039
p72
sg9
VJigglypuff
p73
sg11
VX,Y,
p74
sg13
VRed flowers
p75
sg15
V50
p76
sg17
g76
sg19
V10
p77
sbag1
(g2
g3
Ntp78
Rp79
(dp80
g7
V164
p81
sg9
VNoctowl
p82
sg11
VX,Y,
p83
sg13
VRed flowers
p84
sg15
V50
p85
sg17
g85
sg19
V10
p86
sbag1
(g2
g3
Ntp87
Rp88
(dp89
g7
V571
p90
sg9
VZoroark
p91
sg11
VX,Y,
p92
sg13
VRed flowers
p93
sg15
V48
p94
sg17
V50
p95
sg19
V5
p96
sbag1
(g2
g3
Ntp97
Rp98
(dp99
g7
V575
p100
sg9
VGothorita
p101
sg11
VX,Y,
p102
sg13
VRed flowers
p103
sg15
V48
p104
sg17
V50
p105
sg19
V30
p106
sbag1
(g2
g3
Ntp107
Rp108
(dp109
g7
V591
p110
sg9
VAmoonguss
p111
sg11
VX,Y,
p112
sg13
VRed flowers
p113
sg15
V48
p114
sg17
V50
p115
sg19
V25
p116
sbag1
(g2
g3
Ntp117
Rp118
(dp119
g7
V709
p120
sg9
VTrevenant
p121
sg11
VX,Y,
p122
sg13
VRed flowers
p123
sg15
V48
p124
sg17
V49
p125
sg19
V20
p126
sbag1
(g2
g3
Ntp127
Rp128
(dp129
g7
V185
p130
sg9
VSudowoodo
p131
sg11
VX,Y,
p132
sg13
VHorde Encounter
p133
sg15
V25
p134
sg17
g134
sg19
V0
p135
sbag1
(g2
g3
Ntp136
Rp137
(dp138
g7
V590
p139
sg9
VFoongus
p140
sg11
VX,Y,
p141
sg13
VHorde Encounter
p142
sg15
V25
p143
sg17
g143
sg19
V60
p144
sbag1
(g2
g3
Ntp145
Rp146
(dp147
g7
V709
p148
sg9
VTrevenant
p149
sg11
VX,Y,
p150
sg13
VHorde Encounter
p151
sg15
V25
p152
sg17
g152
sg19
V35
p153
sbag1
(g2
g3
Ntp154
Rp155
(dp156
g7
V709
p157
sg9
VTrevenant
p158
sg11
VX,Y,
p159
sg13
VHorde Encounter
p160
sg15
V25
p161
sg17
g161
sg19
V0
p162
sba.