(lp0
ccopy_reg
_reconstructor
p1
(c__main__
WildPokemon
p2
c__builtin__
object
p3
Ntp4
Rp5
(dp6
VpDexNo
p7
V449
p8
sVpSpecies
p9
VHippopotas
p10
sVpGames
p11
VX,Y,
p12
sVpArea
p13
VTerrain
p14
sVpMinLevel
p15
V15
p16
sVpMaxLevel
p17
V17
p18
sVpRate
p19
V40
p20
sbag1
(g2
g3
Ntp21
Rp22
(dp23
g7
V551
p24
sg9
VSandile
p25
sg11
VX,Y,
p26
sg13
VTerrain
p27
sg15
V15
p28
sg17
V17
p29
sg19
V40
p30
sbag1
(g2
g3
Ntp31
Rp32
(dp33
g7
V694
p34
sg9
VHelioptile
p35
sg11
VX,Y,
p36
sg13
VTerrain
p37
sg15
V15
p38
sg17
V17
p39
sg19
V20
p40
sba.