(lp0
ccopy_reg
_reconstructor
p1
(c__main__
WildPokemon
p2
c__builtin__
object
p3
Ntp4
Rp5
(dp6
VpDexNo
p7
V030
p8
sVpSpecies
p9
VNidorina
p10
sVpGames
p11
VX,
p12
sVpArea
p13
VGrass
p14
sVpMinLevel
p15
V21
p16
sVpMaxLevel
p17
g16
sVpRate
p18
V5
p19
sbag1
(g2
g3
Ntp20
Rp21
(dp22
g7
V030
p23
sg9
VNidorina
p24
sg11
VY,
p25
sg13
VGrass
p26
sg15
V21
p27
sg17
g27
sg18
V10
p28
sbag1
(g2
g3
Ntp29
Rp30
(dp31
g7
V033
p32
sg9
VNidorino
p33
sg11
g12
sg13
VGrass
p34
sg15
V21
p35
sg17
g35
sg18
V10
p36
sbag1
(g2
g3
Ntp37
Rp38
(dp39
g7
V033
p40
sg9
VNidorino
p41
sg11
g25
sg13
VGrass
p42
sg15
V21
p43
sg17
g43
sg18
V5
p44
sbag1
(g2
g3
Ntp45
Rp46
(dp47
g7
V297
p48
sg9
VHariyama
p49
sg11
VX,Y,
p50
sg13
VGrass
p51
sg15
V22
p52
sg17
V23
p53
sg18
V20
p54
sbag1
(g2
g3
Ntp55
Rp56
(dp57
g7
V397
p58
sg9
VStaravia
p59
sg11
VX,Y,
p60
sg13
VGrass
p61
sg15
V22
p62
sg17
V23
p63
sg18
V20
p64
sbag1
(g2
g3
Ntp65
Rp66
(dp67
g7
V433
p68
sg9
VChingling
p69
sg11
VX,Y,
p70
sg13
VGrass
p71
sg15
V21
p72
sg17
g72
sg18
V10
p73
sbag1
(g2
g3
Ntp74
Rp75
(dp76
g7
V434
p77
sg9
VStunky
p78
sg11
VX,Y,
p79
sg13
VGrass
p80
sg15
V21
p81
sg17
g81
sg18
V10
p82
sbag1
(g2
g3
Ntp83
Rp84
(dp85
g7
V538
p86
sg9
VThroh
p87
sg11
g25
sg13
VGrass
p88
sg15
V22
p89
sg17
V23
p90
sg18
V20
p91
sbag1
(g2
g3
Ntp92
Rp93
(dp94
g7
V539
p95
sg9
VSawk
p96
sg11
g12
sg13
VGrass
p97
sg15
V22
p98
sg17
V23
p99
sg18
V20
p100
sbag1
(g2
g3
Ntp101
Rp102
(dp103
g7
V702
p104
sg9
VDedenne
p105
sg11
VX,Y,
p106
sg13
VGrass
p107
sg15
V21
p108
sg17
V22
p109
sg18
V5
p110
sbag1
(g2
g3
Ntp111
Rp112
(dp113
g7
V029
p114
sg9
VNidoran\u2640
p115
sg11
VX,Y,
p116
sg13
VHorde Encounter
p117
sg15
V11
p118
sg17
g118
sg18
V0
p119
sbag1
(g2
g3
Ntp120
Rp121
(dp122
g7
V032
p123
sg9
VNidoran\u2642
p124
sg11
VX,Y,
p125
sg13
VHorde Encounter
p126
sg15
V11
p127
sg17
g127
sg18
V0
p128
sbag1
(g2
g3
Ntp129
Rp130
(dp131
g7
V396
p132
sg9
VStarly
p133
sg11
VX,Y,
p134
sg13
VHorde Encounter
p135
sg15
V12
p136
sg17
g136
sg18
V5
p137
sbag1
(g2
g3
Ntp138
Rp139
(dp140
g7
V434
p141
sg9
VStunky
p142
sg11
VX,Y,
p143
sg13
VHorde Encounter
p144
sg15
V11
p145
sg17
g145
sg18
V35
p146
sba.