(lp0
ccopy_reg
_reconstructor
p1
(c__main__
WildPokemon
p2
c__builtin__
object
p3
Ntp4
Rp5
(dp6
VpDexNo
p7
V123
p8
sVpSpecies
p9
VScyther
p10
sVpGames
p11
VX,Y,
p12
sVpArea
p13
VPurple flowers
p14
sVpMinLevel
p15
V50
p16
sVpMaxLevel
p17
V52
p18
sVpRate
p19
V10
p20
sbag1
(g2
g3
Ntp21
Rp22
(dp23
g7
V217
p24
sg9
VUrsaring
p25
sg11
VX,Y,
p26
sg13
VPurple flowers
p27
sg15
V52
p28
sg17
g28
sg19
V10
p29
sbag1
(g2
g3
Ntp30
Rp31
(dp32
g7
V327
p33
sg9
VSpinda
p34
sg11
VX,Y,
p35
sg13
VPurple flowers
p36
sg15
V50
p37
sg17
V52
p38
sg19
V20
p39
sbag1
(g2
g3
Ntp40
Rp41
(dp42
g7
V334
p43
sg9
VAltaria
p44
sg11
VX,Y,
p45
sg13
VPurple flowers
p46
sg15
V50
p47
sg17
V51
p48
sg19
V20
p49
sbag1
(g2
g3
Ntp50
Rp51
(dp52
g7
V419
p53
sg9
VFloatzel
p54
sg11
VX,Y,
p55
sg13
VPurple flowers
p56
sg15
V50
p57
sg17
V52
p58
sg19
V40
p59
sbag1
(g2
g3
Ntp60
Rp61
(dp62
g7
V123
p63
sg9
VScyther
p64
sg11
VX,Y,
p65
sg13
VRed flowers
p66
sg15
V50
p67
sg17
V52
p68
sg19
V10
p69
sbag1
(g2
g3
Ntp70
Rp71
(dp72
g7
V217
p73
sg9
VUrsaring
p74
sg11
VX,Y,
p75
sg13
VRed flowers
p76
sg15
V50
p77
sg17
V52
p78
sg19
V40
p79
sbag1
(g2
g3
Ntp80
Rp81
(dp82
g7
V327
p83
sg9
VSpinda
p84
sg11
VX,Y,
p85
sg13
VRed flowers
p86
sg15
V50
p87
sg17
V52
p88
sg19
V20
p89
sbag1
(g2
g3
Ntp90
Rp91
(dp92
g7
V334
p93
sg9
VAltaria
p94
sg11
VX,Y,
p95
sg13
VRed flowers
p96
sg15
V50
p97
sg17
V51
p98
sg19
V20
p99
sbag1
(g2
g3
Ntp100
Rp101
(dp102
g7
V419
p103
sg9
VFloatzel
p104
sg11
VX,Y,
p105
sg13
VRed flowers
p106
sg15
V52
p107
sg17
g107
sg19
V10
p108
sbag1
(g2
g3
Ntp109
Rp110
(dp111
g7
V123
p112
sg9
VScyther
p113
sg11
VX,Y,
p114
sg13
VHorde Encounter
p115
sg15
V27
p116
sg17
g116
sg19
V5
p117
sbag1
(g2
g3
Ntp118
Rp119
(dp120
g7
V327
p121
sg9
VSpinda
p122
sg11
VX,Y,
p123
sg13
VHorde Encounter
p124
sg15
V26
p125
sg17
g125
sg19
V60
p126
sbag1
(g2
g3
Ntp127
Rp128
(dp129
g7
V333
p130
sg9
VSwablu
p131
sg11
VX,Y,
p132
sg13
VHorde Encounter
p133
sg15
V26
p134
sg17
g134
sg19
V35
p135
sbag1
(g2
g3
Ntp136
Rp137
(dp138
g7
V271
p139
sg9
VLombre
p140
sg11
VX,Y,
p141
sg13
VSurf
p142
sg15
V50
p143
sg17
V52
p144
sg19
V66
p145
sbag1
(g2
g3
Ntp146
Rp147
(dp148
g7
V419
p149
sg9
VFloatzel
p150
sg11
VX,Y,
p151
sg13
VSurf
p152
sg15
V50
p153
sg17
V52
p154
sg19
V34
p155
sbag1
(g2
g3
Ntp156
Rp157
(dp158
g7
V060
p159
sg9
VPoliwag
p160
sg11
VX,Y,
p161
sg13
VFish Old
p162
sg15
V30
p163
sg17
g163
sg19
V100
p164
sbag1
(g2
g3
Ntp165
Rp166
(dp167
g7
V061
p168
sg9
VPoliwhirl
p169
sg11
VX,Y,
p170
sg13
VFish Good
p171
sg15
V40
p172
sg17
g172
sg19
V35
p173
sbag1
(g2
g3
Ntp174
Rp175
(dp176
g7
V147
p177
sg9
VDratini
p178
sg11
VX,Y,
p179
sg13
VFish Good
p180
sg15
V40
p181
sg17
g181
sg19
V5
p182
sbag1
(g2
g3
Ntp183
Rp184
(dp185
g7
V550
p186
sg9
VBasculin
p187
sg11
VX,Y,
p188
sg13
VFish Good
p189
sg15
V40
p190
sg17
g190
sg19
V60
p191
sbag1
(g2
g3
Ntp192
Rp193
(dp194
g7
V061
p195
sg9
VPoliwhirl
p196
sg11
VX,Y,
p197
sg13
VFish Super
p198
sg15
V50
p199
sg17
g199
sg19
V60
p200
sbag1
(g2
g3
Ntp201
Rp202
(dp203
g7
V148
p204
sg9
VDragonair
p205
sg11
VX,Y,
p206
sg13
VFish Super
p207
sg15
V50
p208
sg17
g208
sg19
V5
p209
sbag1
(g2
g3
Ntp210
Rp211
(dp212
g7
V550
p213
sg9
VBasculin
p214
sg11
VX,Y,
p215
sg13
VFish Super
p216
sg15
V50
p217
sg17
g217
sg19
V35
p218
sba.