(lp0
ccopy_reg
_reconstructor
p1
(c__main__
WildPokemon
p2
c__builtin__
object
p3
Ntp4
Rp5
(dp6
VpDexNo
p7
V054
p8
sVpSpecies
p9
VPsyduck
p10
sVpGames
p11
VX,Y,
p12
sVpArea
p13
VGrass
p14
sVpMinLevel
p15
V6
p16
sVpMaxLevel
p17
g16
sVpRate
p18
V10
p19
sbag1
(g2
g3
Ntp20
Rp21
(dp22
g7
V083
p23
sg9
VFarfetch'd
p24
sg11
VX,Y,
p25
sg13
VGrass
p26
sg15
V7
p27
sg17
g27
sg18
V10
p28
sbag1
(g2
g3
Ntp29
Rp30
(dp31
g7
V206
p32
sg9
VDunsparce
p33
sg11
VX,Y,
p34
sg13
VGrass
p35
sg15
g27
sg17
g27
sg18
V5
p36
sbag1
(g2
g3
Ntp37
Rp38
(dp39
g7
V298
p40
sg9
VAzurill
p41
sg11
VX,Y,
p42
sg13
VGrass
p43
sg15
g16
sg17
g27
sg18
V20
p44
sbag1
(g2
g3
Ntp45
Rp46
(dp47
g7
V399
p48
sg9
VBidoof
p49
sg11
VX,Y,
p50
sg13
VGrass
p51
sg15
g16
sg17
g16
sg18
V10
p52
sbag1
(g2
g3
Ntp53
Rp54
(dp55
g7
V447
p56
sg9
VRiolu
p57
sg11
VX,Y,
p58
sg13
VGrass
p59
sg15
g16
sg17
g27
sg18
V5
p60
sbag1
(g2
g3
Ntp61
Rp62
(dp63
g7
V659
p64
sg9
VBunnelby
p65
sg11
VX,Y,
p66
sg13
VGrass
p67
sg15
V5
p68
sg17
g16
sg18
V20
p69
sbag1
(g2
g3
Ntp70
Rp71
(dp72
g7
V667
p73
sg9
VLitleo
p74
sg11
VX,Y,
p75
sg13
VGrass
p76
sg15
g68
sg17
g16
sg18
V20
p77
sbag1
(g2
g3
Ntp78
Rp79
(dp80
g7
V054
p81
sg9
VPsyduck
p82
sg11
VX,Y,
p83
sg13
VYellow flowers
p84
sg15
V25
p85
sg17
V26
p86
sg18
V20
p87
sbag1
(g2
g3
Ntp88
Rp89
(dp90
g7
V083
p91
sg9
VFarfetch'd
p92
sg11
VX,Y,
p93
sg13
VYellow flowers
p94
sg15
V26
p95
sg17
g95
sg18
V10
p96
sbag1
(g2
g3
Ntp97
Rp98
(dp99
g7
V184
p100
sg9
VAzumarill
p101
sg11
VX,Y,
p102
sg13
VYellow flowers
p103
sg15
V25
p104
sg17
V26
p105
sg18
V20
p106
sbag1
(g2
g3
Ntp107
Rp108
(dp109
g7
V206
p110
sg9
VDunsparce
p111
sg11
VX,Y,
p112
sg13
VYellow flowers
p113
sg15
V26
p114
sg17
g114
sg18
V5
p115
sbag1
(g2
g3
Ntp116
Rp117
(dp118
g7
V400
p119
sg9
VBibarel
p120
sg11
VX,Y,
p121
sg13
VYellow flowers
p122
sg15
V26
p123
sg17
V27
p124
sg18
V20
p125
sbag1
(g2
g3
Ntp126
Rp127
(dp128
g7
V447
p129
sg9
VRiolu
p130
sg11
VX,Y,
p131
sg13
VYellow flowers
p132
sg15
V25
p133
sg17
V26
p134
sg18
V5
p135
sbag1
(g2
g3
Ntp136
Rp137
(dp138
g7
V660
p139
sg9
VDiggersby
p140
sg11
VX,Y,
p141
sg13
VYellow flowers
p142
sg15
V27
p143
sg17
g143
sg18
V10
p144
sbag1
(g2
g3
Ntp145
Rp146
(dp147
g7
V667
p148
sg9
VLitleo
p149
sg11
VX,Y,
p150
sg13
VYellow flowers
p151
sg15
V25
p152
sg17
g152
sg18
V10
p153
sbag1
(g2
g3
Ntp154
Rp155
(dp156
g7
V054
p157
sg9
VPsyduck
p158
sg11
VX,Y,
p159
sg13
VSurf
p160
sg15
V25
p161
sg17
V27
p162
sg18
V95
p163
sbag1
(g2
g3
Ntp164
Rp165
(dp166
g7
V184
p167
sg9
VAzumarill
p168
sg11
VX,Y,
p169
sg13
VSurf
p170
sg15
V25
p171
sg17
V27
p172
sg18
V5
p173
sbag1
(g2
g3
Ntp174
Rp175
(dp176
g7
V129
p177
sg9
VMagikarp
p178
sg11
VX,Y,
p179
sg13
VFish Old
p180
sg15
V15
p181
sg17
g181
sg18
V100
p182
sbag1
(g2
g3
Ntp183
Rp184
(dp185
g7
V118
p186
sg9
VGoldeen
p187
sg11
VX,Y,
p188
sg13
VFish Good
p189
sg15
V25
p190
sg17
g190
sg18
V65
p191
sbag1
(g2
g3
Ntp192
Rp193
(dp194
g7
V318
p195
sg9
VCarvanha
p196
sg11
VX,Y,
p197
sg13
VFish Good
p198
sg15
V25
p199
sg17
g199
sg18
V35
p200
sbag1
(g2
g3
Ntp201
Rp202
(dp203
g7
V119
p204
sg9
VSeaking
p205
sg11
VX,Y,
p206
sg13
VFish Super
p207
sg15
V35
p208
sg17
g208
sg18
V35
p209
sbag1
(g2
g3
Ntp210
Rp211
(dp212
g7
V130
p213
sg9
VGyarados
p214
sg11
VX,Y,
p215
sg13
VFish Super
p216
sg15
V35
p217
sg17
g217
sg18
V60
p218
sbag1
(g2
g3
Ntp219
Rp220
(dp221
g7
V319
p222
sg9
VSharpedo
p223
sg11
VX,Y,
p224
sg13
VFish Super
p225
sg15
V35
p226
sg17
g226
sg18
V5
p227
sba.