(lp0
ccopy_reg
_reconstructor
p1
(c__main__
WildPokemon
p2
c__builtin__
object
p3
Ntp4
Rp5
(dp6
VpDexNo
p7
V016
p8
sVpSpecies
p9
VPidgey
p10
sVpGames
p11
VX,Y,
p12
sVpArea
p13
VGrass
p14
sVpMinLevel
p15
V4
p16
sVpMaxLevel
p17
g16
sVpRate
p18
V10
p19
sbag1
(g2
g3
Ntp20
Rp21
(dp22
g7
V025
p23
sg9
VPikachu
p24
sg11
VX,Y,
p25
sg13
VGrass
p26
sg15
g16
sg17
V5
p27
sg18
V5
p28
sbag1
(g2
g3
Ntp29
Rp30
(dp31
g7
V206
p32
sg9
VDunsparce
p33
sg11
VX,Y,
p34
sg13
VGrass
p35
sg15
g27
sg17
g27
sg18
V5
p36
sbag1
(g2
g3
Ntp37
Rp38
(dp39
g7
V298
p40
sg9
VAzurill
p41
sg11
VX,Y,
p42
sg13
VGrass
p43
sg15
g27
sg17
g27
sg18
V10
p44
sbag1
(g2
g3
Ntp45
Rp46
(dp47
g7
V399
p48
sg9
VBidoof
p49
sg11
VX,Y,
p50
sg13
VGrass
p51
sg15
V3
p52
sg17
g16
sg18
V20
p53
sbag1
(g2
g3
Ntp54
Rp55
(dp56
g7
V412
p57
sg9
VBurmy
p58
sg11
VX,Y,
p59
sg13
VGrass
p60
sg15
g27
sg17
g27
sg18
V10
p61
sbag1
(g2
g3
Ntp62
Rp63
(dp64
g7
V659
p65
sg9
VBunnelby
p66
sg11
VX,Y,
p67
sg13
VGrass
p68
sg15
g52
sg17
g16
sg18
V20
p69
sbag1
(g2
g3
Ntp70
Rp71
(dp72
g7
V661
p73
sg9
VFletchling
p74
sg11
VX,Y,
p75
sg13
VGrass
p76
sg15
g52
sg17
g27
sg18
V20
p77
sbag1
(g2
g3
Ntp78
Rp79
(dp80
g7
V183
p81
sg9
VMarill
p82
sg11
VX,Y,
p83
sg13
VSurf
p84
sg15
V25
p85
sg17
V27
p86
sg18
V34
p87
sbag1
(g2
g3
Ntp88
Rp89
(dp90
g7
V284
p91
sg9
VMasquerain
p92
sg11
VX,Y,
p93
sg13
VSurf
p94
sg15
V25
p95
sg17
V27
p96
sg18
V66
p97
sbag1
(g2
g3
Ntp98
Rp99
(dp100
g7
V129
p101
sg9
VMagikarp
p102
sg11
VX,Y,
p103
sg13
VFish Old
p104
sg15
V15
p105
sg17
g105
sg18
V100
p106
sbag1
(g2
g3
Ntp107
Rp108
(dp109
g7
V118
p110
sg9
VGoldeen
p111
sg11
VX,Y,
p112
sg13
VFish Good
p113
sg15
V25
p114
sg17
g114
sg18
V65
p115
sbag1
(g2
g3
Ntp116
Rp117
(dp118
g7
V341
p119
sg9
VCorphish
p120
sg11
VX,Y,
p121
sg13
VFish Good
p122
sg15
V25
p123
sg17
g123
sg18
V35
p124
sbag1
(g2
g3
Ntp125
Rp126
(dp127
g7
V119
p128
sg9
VSeaking
p129
sg11
VX,Y,
p130
sg13
VFish Super
p131
sg15
V35
p132
sg17
g132
sg18
V35
p133
sbag1
(g2
g3
Ntp134
Rp135
(dp136
g7
V130
p137
sg9
VGyarados
p138
sg11
VX,Y,
p139
sg13
VFish Super
p140
sg15
V35
p141
sg17
g141
sg18
V60
p142
sbag1
(g2
g3
Ntp143
Rp144
(dp145
g7
V342
p146
sg9
VCrawdaunt
p147
sg11
VX,Y,
p148
sg13
VFish Super
p149
sg15
V35
p150
sg17
g150
sg18
V5
p151
sba.