(lp0
ccopy_reg
_reconstructor
p1
(c__main__
WildPokemon
p2
c__builtin__
object
p3
Ntp4
Rp5
(dp6
VpDexNo
p7
V133
p8
sVpSpecies
p9
VEevee
p10
sVpGames
p11
VX,Y,
p12
sVpArea
p13
VGrass
p14
sVpMinLevel
p15
V19
p16
sVpMaxLevel
p17
V21
p18
sVpRate
p19
V5
p20
sbag1
(g2
g3
Ntp21
Rp22
(dp23
g7
V209
p24
sg9
VSnubbull
p25
sg11
VX,Y,
p26
sg13
VGrass
p27
sg15
V21
p28
sg17
g28
sg19
V10
p29
sbag1
(g2
g3
Ntp30
Rp31
(dp32
g7
V228
p33
sg9
VHoundour
p34
sg11
VX,
p35
sg13
VGrass
p36
sg15
V21
p37
sg17
g37
sg19
V10
p38
sbag1
(g2
g3
Ntp39
Rp40
(dp41
g7
V309
p42
sg9
VElectrike
p43
sg11
VY,
p44
sg13
VGrass
p45
sg15
V21
p46
sg17
g46
sg19
V10
p47
sbag1
(g2
g3
Ntp48
Rp49
(dp50
g7
V561
p51
sg9
VSigilyph
p52
sg11
VX,Y,
p53
sg13
VGrass
p54
sg15
V19
p55
sg17
V21
p56
sg19
V20
p57
sbag1
(g2
g3
Ntp58
Rp59
(dp60
g7
V587
p61
sg9
VEmolga
p62
sg11
VX,Y,
p63
sg13
VGrass
p64
sg15
V19
p65
sg17
V20
p66
sg19
V5
p67
sbag1
(g2
g3
Ntp68
Rp69
(dp70
g7
V622
p71
sg9
VGolett
p72
sg11
VX,Y,
p73
sg13
VGrass
p74
sg15
V19
p75
sg17
V21
p76
sg19
V30
p77
sbag1
(g2
g3
Ntp78
Rp79
(dp80
g7
V701
p81
sg9
VHawlucha
p82
sg11
VX,Y,
p83
sg13
VGrass
p84
sg15
V19
p85
sg17
V20
p86
sg19
V20
p87
sbag1
(g2
g3
Ntp88
Rp89
(dp90
g7
V133
p91
sg9
VEevee
p92
sg11
VX,Y,
p93
sg13
VYellow flowers
p94
sg15
V19
p95
sg17
V20
p96
sg19
V20
p97
sbag1
(g2
g3
Ntp98
Rp99
(dp100
g7
V209
p101
sg9
VSnubbull
p102
sg11
VX,Y,
p103
sg13
VYellow flowers
p104
sg15
V19
p105
sg17
V21
p106
sg19
V30
p107
sbag1
(g2
g3
Ntp108
Rp109
(dp110
g7
V228
p111
sg9
VHoundour
p112
sg11
g35
sg13
VYellow flowers
p113
sg15
V19
p114
sg17
V20
p115
sg19
V20
p116
sbag1
(g2
g3
Ntp117
Rp118
(dp119
g7
V309
p120
sg9
VElectrike
p121
sg11
g44
sg13
VYellow flowers
p122
sg15
V19
p123
sg17
V20
p124
sg19
V20
p125
sbag1
(g2
g3
Ntp126
Rp127
(dp128
g7
V561
p129
sg9
VSigilyph
p130
sg11
VX,Y,
p131
sg13
VYellow flowers
p132
sg15
V21
p133
sg17
g133
sg19
V10
p134
sbag1
(g2
g3
Ntp135
Rp136
(dp137
g7
V587
p138
sg9
VEmolga
p139
sg11
VX,Y,
p140
sg13
VYellow flowers
p141
sg15
V19
p142
sg17
V20
p143
sg19
V5
p144
sbag1
(g2
g3
Ntp145
Rp146
(dp147
g7
V622
p148
sg9
VGolett
p149
sg11
VX,Y,
p150
sg13
VYellow flowers
p151
sg15
V21
p152
sg17
g152
sg19
V10
p153
sbag1
(g2
g3
Ntp154
Rp155
(dp156
g7
V701
p157
sg9
VHawlucha
p158
sg11
VX,Y,
p159
sg13
VYellow flowers
p160
sg15
V21
p161
sg17
g161
sg19
V5
p162
sbag1
(g2
g3
Ntp163
Rp164
(dp165
g7
V193
p166
sg9
VYanma
p167
sg11
VX,Y,
p168
sg13
VHorde Encounter
p169
sg15
V10
p170
sg17
g170
sg19
V35
p171
sbag1
(g2
g3
Ntp172
Rp173
(dp174
g7
V228
p175
sg9
VHoundour
p176
sg11
g35
sg13
VHorde Encounter
p177
sg15
V11
p178
sg17
g178
sg19
V5
p179
sbag1
(g2
g3
Ntp180
Rp181
(dp182
g7
V299
p183
sg9
VNosepass
p184
sg11
VX,Y,
p185
sg13
VHorde Encounter
p186
sg15
V10
p187
sg17
g187
sg19
V60
p188
sbag1
(g2
g3
Ntp189
Rp190
(dp191
g7
V309
p192
sg9
VElectrike
p193
sg11
g44
sg13
VHorde Encounter
p194
sg15
V11
p195
sg17
g195
sg19
V5
p196
sba.