(lp0
ccopy_reg
_reconstructor
p1
(c__main__
WildPokemon
p2
c__builtin__
object
p3
Ntp4
Rp5
(dp6
VpDexNo
p7
V070
p8
sVpSpecies
p9
VWeepinbell
p10
sVpGames
p11
VX,Y,
p12
sVpArea
p13
VGrass
p14
sVpMinLevel
p15
V31
p16
sVpMaxLevel
p17
V32
p18
sVpRate
p19
V20
p20
sbag1
(g2
g3
Ntp21
Rp22
(dp23
g7
V093
p24
sg9
VHaunter
p25
sg11
VX,Y,
p26
sg13
VGrass
p27
sg15
V31
p28
sg17
g28
sg19
V5
p29
sbag1
(g2
g3
Ntp30
Rp31
(dp32
g7
V195
p33
sg9
VQuagsire
p34
sg11
VX,Y,
p35
sg13
VGrass
p36
sg15
V30
p37
sg17
g37
sg19
V10
p38
sbag1
(g2
g3
Ntp39
Rp40
(dp41
g7
V451
p42
sg9
VSkorupi
p43
sg11
VX,Y,
p44
sg13
VGrass
p45
sg15
V30
p46
sg17
V31
p47
sg19
V20
p48
sbag1
(g2
g3
Ntp49
Rp50
(dp51
g7
V455
p52
sg9
VCarnivine
p53
sg11
VX,Y,
p54
sg13
VGrass
p55
sg15
V30
p56
sg17
V32
p57
sg19
V15
p58
sbag1
(g2
g3
Ntp59
Rp60
(dp61
g7
V588
p62
sg9
VKarrablast
p63
sg11
VX,Y,
p64
sg13
VGrass
p65
sg15
V30
p66
sg17
g66
sg19
V10
p67
sbag1
(g2
g3
Ntp68
Rp69
(dp70
g7
V616
p71
sg9
VShelmet
p72
sg11
VX,Y,
p73
sg13
VGrass
p74
sg15
V30
p75
sg17
g75
sg19
V10
p76
sbag1
(g2
g3
Ntp77
Rp78
(dp79
g7
V704
p80
sg9
VGoomy
p81
sg11
VX,Y,
p82
sg13
VGrass
p83
sg15
V30
p84
sg17
g84
sg19
V10
p85
sbag1
(g2
g3
Ntp86
Rp87
(dp88
g7
V023
p89
sg9
VEkans
p90
sg11
VX,Y,
p91
sg13
VHorde Encounter
p92
sg15
V17
p93
sg17
g93
sg19
V5
p94
sbag1
(g2
g3
Ntp95
Rp96
(dp97
g7
V069
p98
sg9
VBellsprout
p99
sg11
VX,Y,
p100
sg13
VHorde Encounter
p101
sg15
V16
p102
sg17
g102
sg19
V60
p103
sbag1
(g2
g3
Ntp104
Rp105
(dp106
g7
V451
p107
sg9
VSkorupi
p108
sg11
VX,Y,
p109
sg13
VHorde Encounter
p110
sg15
V16
p111
sg17
g111
sg19
V35
p112
sbag1
(g2
g3
Ntp113
Rp114
(dp115
g7
V093
p116
sg9
VHaunter
p117
sg11
VX,Y,
p118
sg13
VSwamp
p119
sg15
V31
p120
sg17
g120
sg19
V5
p121
sbag1
(g2
g3
Ntp122
Rp123
(dp124
g7
V195
p125
sg9
VQuagsire
p126
sg11
VX,Y,
p127
sg13
VSwamp
p128
sg15
V30
p129
sg17
V32
p130
sg19
V30
p131
sbag1
(g2
g3
Ntp132
Rp133
(dp134
g7
V455
p135
sg9
VCarnivine
p136
sg11
VX,Y,
p137
sg13
VSwamp
p138
sg15
V31
p139
sg17
V32
p140
sg19
V5
p141
sbag1
(g2
g3
Ntp142
Rp143
(dp144
g7
V588
p145
sg9
VKarrablast
p146
sg11
VX,Y,
p147
sg13
VSwamp
p148
sg15
V30
p149
sg17
g149
sg19
V10
p150
sbag1
(g2
g3
Ntp151
Rp152
(dp153
g7
V616
p154
sg9
VShelmet
p155
sg11
VX,Y,
p156
sg13
VSwamp
p157
sg15
V30
p158
sg17
g158
sg19
V10
p159
sbag1
(g2
g3
Ntp160
Rp161
(dp162
g7
V618
p163
sg9
VStunfisk
p164
sg11
VX,Y,
p165
sg13
VSwamp
p166
sg15
V31
p167
sg17
V32
p168
sg19
V20
p169
sbag1
(g2
g3
Ntp170
Rp171
(dp172
g7
V704
p173
sg9
VGoomy
p174
sg11
VX,Y,
p175
sg13
VSwamp
p176
sg15
V31
p177
sg17
V32
p178
sg19
V20
p179
sbag1
(g2
g3
Ntp180
Rp181
(dp182
g7
V195
p183
sg9
VQuagsire
p184
sg11
VX,Y,
p185
sg13
VSurf
p186
sg15
V30
p187
sg17
g187
sg19
V50
p188
sbag1
(g2
g3
Ntp189
Rp190
(dp191
g7
V618
p192
sg9
VStunfisk
p193
sg11
VX,Y,
p194
sg13
VSurf
p195
sg15
V30
p196
sg17
V32
p197
sg19
V35
p198
sbag1
(g2
g3
Ntp199
Rp200
(dp201
g7
V704
p202
sg9
VGoomy
p203
sg11
VX,Y,
p204
sg13
VSurf
p205
sg15
V31
p206
sg17
g206
sg19
V15
p207
sbag1
(g2
g3
Ntp208
Rp209
(dp210
g7
V060
p211
sg9
VPoliwag
p212
sg11
VX,Y,
p213
sg13
VFish Old
p214
sg15
V15
p215
sg17
g215
sg19
V100
p216
sbag1
(g2
g3
Ntp217
Rp218
(dp219
g7
V061
p220
sg9
VPoliwhirl
p221
sg11
VX,Y,
p222
sg13
VFish Good
p223
sg15
V35
p224
sg17
g224
sg19
V35
p225
sbag1
(g2
g3
Ntp226
Rp227
(dp228
g7
V339
p229
sg9
VBarboach
p230
sg11
VX,Y,
p231
sg13
VFish Good
p232
sg15
V25
p233
sg17
V35
p234
sg19
V65
p235
sbag1
(g2
g3
Ntp236
Rp237
(dp238
g7
V061
p239
sg9
VPoliwhirl
p240
sg11
VX,Y,
p241
sg13
VFish Super
p242
sg15
V35
p243
sg17
g243
sg19
V65
p244
sbag1
(g2
g3
Ntp245
Rp246
(dp247
g7
V340
p248
sg9
VWhiscash
p249
sg11
VX,Y,
p250
sg13
VFish Super
p251
sg15
V35
p252
sg17
g252
sg19
V35
p253
sba.