(lp0
ccopy_reg
_reconstructor
p1
(c__main__
WildPokemon
p2
c__builtin__
object
p3
Ntp4
Rp5
(dp6
VpDexNo
p7
V051
p8
sVpSpecies
p9
VDugtrio
p10
sVpGames
p11
VX,Y,
p12
sVpArea
p13
VDirt
p14
sVpMinLevel
p15
V26
p16
sVpMaxLevel
p17
V28
p18
sVpRate
p19
V40
p20
sbag1
(g2
g3
Ntp21
Rp22
(dp23
g7
V328
p24
sg9
VTrapinch
p25
sg11
VX,Y,
p26
sg13
VDirt
p27
sg15
V26
p28
sg17
V28
p29
sg19
V40
p30
sbag1
(g2
g3
Ntp31
Rp32
(dp33
g7
V443
p34
sg9
VGible
p35
sg11
VX,Y,
p36
sg13
VDirt
p37
sg15
V26
p38
sg17
V28
p39
sg19
V20
p40
sbag1
(g2
g3
Ntp41
Rp42
(dp43
g7
V075
p44
sg9
VGraveler
p45
sg11
VX,Y,
p46
sg13
VRock Smash
p47
sg15
V26
p48
sg17
V28
p49
sg19
V66
p50
sbag1
(g2
g3
Ntp51
Rp52
(dp53
g7
V218
p54
sg9
VSlugma
p55
sg11
VX,Y,
p56
sg13
VRock Smash
p57
sg15
V26
p58
sg17
V28
p59
sg19
V34
p60
sba.