(lp0
ccopy_reg
_reconstructor
p1
(c__main__
WildPokemon
p2
c__builtin__
object
p3
Ntp4
Rp5
(dp6
VpDexNo
p7
V325
p8
sVpSpecies
p9
VSpoink
p10
sVpGames
p11
VX,Y,
p12
sVpArea
p13
VGrass
p14
sVpMinLevel
p15
V13
p16
sVpMaxLevel
p17
V14
p18
sVpRate
p19
V20
p20
sbag1
(g2
g3
Ntp21
Rp22
(dp23
g7
V335
p24
sg9
VZangoose
p25
sg11
VX,
p26
sg13
VGrass
p27
sg15
V14
p28
sg17
g28
sg19
V10
p29
sbag1
(g2
g3
Ntp30
Rp31
(dp32
g7
V336
p33
sg9
VSeviper
p34
sg11
VY,
p35
sg13
VGrass
p36
sg15
V14
p37
sg17
g37
sg19
V10
p38
sbag1
(g2
g3
Ntp39
Rp40
(dp41
g7
V359
p42
sg9
VAbsol
p43
sg11
VX,Y,
p44
sg13
VGrass
p45
sg15
V15
p46
sg17
g46
sg19
V10
p47
sbag1
(g2
g3
Ntp48
Rp49
(dp50
g7
V371
p51
sg9
VBagon
p52
sg11
VX,Y,
p53
sg13
VGrass
p54
sg15
V14
p55
sg17
V15
p56
sg19
V5
p57
sbag1
(g2
g3
Ntp58
Rp59
(dp60
g7
V425
p61
sg9
VDrifloon
p62
sg11
VX,Y,
p63
sg13
VGrass
p64
sg15
V13
p65
sg17
V15
p66
sg19
V30
p67
sbag1
(g2
g3
Ntp68
Rp69
(dp70
g7
V619
p71
sg9
VMienfoo
p72
sg11
VX,Y,
p73
sg13
VGrass
p74
sg15
V15
p75
sg17
g75
sg19
V10
p76
sbag1
(g2
g3
Ntp77
Rp78
(dp79
g7
V686
p80
sg9
VInkay
p81
sg11
VX,Y,
p82
sg13
VGrass
p83
sg15
V14
p84
sg17
V15
p85
sg19
V15
p86
sbag1
(g2
g3
Ntp87
Rp88
(dp89
g7
V325
p90
sg9
VSpoink
p91
sg11
VX,Y,
p92
sg13
VYellow flowers
p93
sg15
V15
p94
sg17
g94
sg19
V10
p95
sbag1
(g2
g3
Ntp96
Rp97
(dp98
g7
V335
p99
sg9
VZangoose
p100
sg11
g26
sg13
VYellow flowers
p101
sg15
V14
p102
sg17
g102
sg19
V10
p103
sbag1
(g2
g3
Ntp104
Rp105
(dp106
g7
V336
p107
sg9
VSeviper
p108
sg11
g35
sg13
VYellow flowers
p109
sg15
V14
p110
sg17
g110
sg19
V10
p111
sbag1
(g2
g3
Ntp112
Rp113
(dp114
g7
V359
p115
sg9
VAbsol
p116
sg11
VX,Y,
p117
sg13
VYellow flowers
p118
sg15
V13
p119
sg17
V14
p120
sg19
V20
p121
sbag1
(g2
g3
Ntp122
Rp123
(dp124
g7
V371
p125
sg9
VBagon
p126
sg11
VX,Y,
p127
sg13
VYellow flowers
p128
sg15
V14
p129
sg17
V15
p130
sg19
V5
p131
sbag1
(g2
g3
Ntp132
Rp133
(dp134
g7
V425
p135
sg9
VDrifloon
p136
sg11
VX,Y,
p137
sg13
VYellow flowers
p138
sg15
V15
p139
sg17
g139
sg19
V10
p140
sbag1
(g2
g3
Ntp141
Rp142
(dp143
g7
V619
p144
sg9
VMienfoo
p145
sg11
VX,Y,
p146
sg13
VYellow flowers
p147
sg15
V13
p148
sg17
V15
p149
sg19
V30
p150
sbag1
(g2
g3
Ntp151
Rp152
(dp153
g7
V686
p154
sg9
VInkay
p155
sg11
VX,Y,
p156
sg13
VYellow flowers
p157
sg15
V14
p158
sg17
V15
p159
sg19
V15
p160
sbag1
(g2
g3
Ntp161
Rp162
(dp163
g7
V276
p164
sg9
VTaillow
p165
sg11
VX,Y,
p166
sg13
VHorde Encounter
p167
sg15
V7
p168
sg17
g168
sg19
V5
p169
sbag1
(g2
g3
Ntp170
Rp171
(dp172
g7
V278
p173
sg9
VWingull
p174
sg11
VX,Y,
p175
sg13
VHorde Encounter
p176
sg15
g168
sg17
g168
sg19
V60
p177
sbag1
(g2
g3
Ntp178
Rp179
(dp180
g7
V335
p181
sg9
VZangoose
p182
sg11
VX,Y,
p183
sg13
VHorde Encounter
p184
sg15
V8
p185
sg17
g185
sg19
V0
p186
sbag1
(g2
g3
Ntp187
Rp188
(dp189
g7
V336
p190
sg9
VSeviper
p191
sg11
VX,Y,
p192
sg13
VHorde Encounter
p193
sg15
g185
sg17
g185
sg19
V0
p194
sbag1
(g2
g3
Ntp195
Rp196
(dp197
g7
V557
p198
sg9
VDwebble
p199
sg11
g26
sg13
VRock Smash
p200
sg15
V18
p201
sg17
V20
p202
sg19
V66
p203
sbag1
(g2
g3
Ntp204
Rp205
(dp206
g7
V557
p207
sg9
VDwebble
p208
sg11
g35
sg13
VRock Smash
p209
sg15
V13
p210
sg17
V15
p211
sg19
V66
p212
sbag1
(g2
g3
Ntp213
Rp214
(dp215
g7
V688
p216
sg9
VBinacle
p217
sg11
g26
sg13
VRock Smash
p218
sg15
V18
p219
sg17
V20
p220
sg19
V34
p221
sbag1
(g2
g3
Ntp222
Rp223
(dp224
g7
V688
p225
sg9
VBinacle
p226
sg11
g35
sg13
VRock Smash
p227
sg15
V13
p228
sg17
V15
p229
sg19
V34
p230
sbag1
(g2
g3
Ntp231
Rp232
(dp233
g7
V072
p234
sg9
VTentacool
p235
sg11
VX,Y,
p236
sg13
VSurf
p237
sg15
V25
p238
sg17
V27
p239
sg19
V69
p240
sbag1
(g2
g3
Ntp241
Rp242
(dp243
g7
V320
p244
sg9
VWailmer
p245
sg11
VX,Y,
p246
sg13
VSurf
p247
sg15
V25
p248
sg17
V27
p249
sg19
V31
p250
sbag1
(g2
g3
Ntp251
Rp252
(dp253
g7
V370
p254
sg9
VLuvdisc
p255
sg11
VX,Y,
p256
sg13
VFish Old
p257
sg15
V15
p258
sg17
g258
sg19
V100
p259
sbag1
(g2
g3
Ntp260
Rp261
(dp262
g7
V090
p263
sg9
VShellder
p264
sg11
g35
sg13
VFish Good
p265
sg15
V25
p266
sg17
g266
sg19
V35
p267
sbag1
(g2
g3
Ntp268
Rp269
(dp270
g7
V120
p271
sg9
VStaryu
p272
sg11
g26
sg13
VFish Good
p273
sg15
V25
p274
sg17
g274
sg19
V35
p275
sbag1
(g2
g3
Ntp276
Rp277
(dp278
g7
V690
p279
sg9
VSkrelp
p280
sg11
g35
sg13
VFish Good
p281
sg15
V25
p282
sg17
g282
sg19
V65
p283
sbag1
(g2
g3
Ntp284
Rp285
(dp286
g7
V692
p287
sg9
VClauncher
p288
sg11
g26
sg13
VFish Good
p289
sg15
V25
p290
sg17
g290
sg19
V65
p291
sbag1
(g2
g3
Ntp292
Rp293
(dp294
g7
V091
p295
sg9
VCloyster
p296
sg11
g35
sg13
VFish Super
p297
sg15
V35
p298
sg17
g298
sg19
V5
p299
sbag1
(g2
g3
Ntp300
Rp301
(dp302
g7
V121
p303
sg9
VStarmie
p304
sg11
g26
sg13
VFish Super
p305
sg15
V35
p306
sg17
g306
sg19
V5
p307
sbag1
(g2
g3
Ntp308
Rp309
(dp310
g7
V211
p311
sg9
VQwilfish
p312
sg11
VX,Y,
p313
sg13
VFish Super
p314
sg15
V35
p315
sg17
g315
sg19
V60
p316
sbag1
(g2
g3
Ntp317
Rp318
(dp319
g7
V691
p320
sg9
VDragalge
p321
sg11
g35
sg13
VFish Super
p322
sg15
V35
p323
sg17
g323
sg19
V35
p324
sbag1
(g2
g3
Ntp325
Rp326
(dp327
g7
V693
p328
sg9
VClawitzer
p329
sg11
g26
sg13
VFish Super
p330
sg15
V35
p331
sg17
g331
sg19
V35
p332
sba.