(lp0
ccopy_reg
_reconstructor
p1
(c__main__
WildPokemon
p2
c__builtin__
object
p3
Ntp4
Rp5
(dp6
VpDexNo
p7
V021
p8
sVpSpecies
p9
VSpearow
p10
sVpGames
p11
VR,B,
p12
sVpArea
p13
VGrass
p14
sVpMinLevel
p15
V26
p16
sVpMaxLevel
p17
g16
sVpRate
p18
V15
p19
sbag1
(g2
g3
Ntp20
Rp21
(dp22
g7
V022
p23
sg9
VFearow
p24
sg11
VR,B,
p25
sg13
VGrass
p26
sg15
V38
p27
sg17
V43
p28
sg18
V25
p29
sbag1
(g2
g3
Ntp30
Rp31
(dp32
g7
V022
p33
sg9
VFearow
p34
sg11
VY,
p35
sg13
VGrass
p36
sg15
V40
p37
sg17
V45
p38
sg18
V15
p39
sbag1
(g2
g3
Ntp40
Rp41
(dp42
g7
V023
p43
sg9
VEkans
p44
sg11
VR,
p45
sg13
VGrass
p46
sg15
V26
p47
sg17
g47
sg18
V25
p48
sbag1
(g2
g3
Ntp49
Rp50
(dp51
g7
V024
p52
sg9
VArbok
p53
sg11
g45
sg13
VGrass
p54
sg15
V41
p55
sg17
g55
sg18
V5
p56
sbag1
(g2
g3
Ntp57
Rp58
(dp59
g7
V027
p60
sg9
VSandshrew
p61
sg11
VB,
p62
sg13
VGrass
p63
sg15
V26
p64
sg17
g64
sg18
V25
p65
sbag1
(g2
g3
Ntp66
Rp67
(dp68
g7
V028
p69
sg9
VSandslash
p70
sg11
g62
sg13
VGrass
p71
sg15
V41
p72
sg17
g72
sg18
V5
p73
sbag1
(g2
g3
Ntp74
Rp75
(dp76
g7
V030
p77
sg9
VNidorina
p78
sg11
g35
sg13
VGrass
p79
sg15
V41
p80
sg17
V44
p81
sg18
V25
p82
sbag1
(g2
g3
Ntp83
Rp84
(dp85
g7
V033
p86
sg9
VNidorino
p87
sg11
g35
sg13
VGrass
p88
sg15
V41
p89
sg17
V44
p90
sg18
V35
p91
sbag1
(g2
g3
Ntp92
Rp93
(dp94
g7
V056
p95
sg9
VMankey
p96
sg11
g35
sg13
VGrass
p97
sg15
V36
p98
sg17
V41
p99
sg18
V20
p100
sbag1
(g2
g3
Ntp101
Rp102
(dp103
g7
V057
p104
sg9
VPrimeape
p105
sg11
g35
sg13
VGrass
p106
sg15
V41
p107
sg17
V46
p108
sg18
V5
p109
sbag1
(g2
g3
Ntp110
Rp111
(dp112
g7
V132
p113
sg9
VDitto
p114
sg11
VR,B,
p115
sg13
VGrass
p116
sg15
V33
p117
sg17
V43
p118
sg18
V30
p119
sbag1
(g2
g3
Ntp120
Rp121
(dp122
g7
V129
p123
sg9
VMagikarp
p124
sg11
VR,B,Y,
p125
sg13
VFish Old
p126
sg15
V5
p127
sg17
g127
sg18
V100
p128
sbag1
(g2
g3
Ntp129
Rp130
(dp131
g7
V060
p132
sg9
VPoliwag
p133
sg11
VR,B,Y,
p134
sg13
VFish Good
p135
sg15
V10
p136
sg17
g136
sg18
V50
p137
sbag1
(g2
g3
Ntp138
Rp139
(dp140
g7
V118
p141
sg9
VGoldeen
p142
sg11
VR,B,Y,
p143
sg13
VFish Good
p144
sg15
V10
p145
sg17
g145
sg18
V50
p146
sbag1
(g2
g3
Ntp147
Rp148
(dp149
g7
V060
p150
sg9
VPoliwag
p151
sg11
g35
sg13
VFish Super
p152
sg15
V25
p153
sg17
V30
p154
sg18
V70
p155
sbag1
(g2
g3
Ntp156
Rp157
(dp158
g7
V061
p159
sg9
VPoliwhirl
p160
sg11
g35
sg13
VFish Super
p161
sg15
V30
p162
sg17
V40
p163
sg18
V30
p164
sbag1
(g2
g3
Ntp165
Rp166
(dp167
g7
V080
p168
sg9
VSlowbro
p169
sg11
VR,B,
p170
sg13
VFish Super
p171
sg15
V23
p172
sg17
g172
sg18
V25
p173
sbag1
(g2
g3
Ntp174
Rp175
(dp176
g7
V099
p177
sg9
VKingler
p178
sg11
VR,B,
p179
sg13
VFish Super
p180
sg15
V23
p181
sg17
g181
sg18
V25
p182
sbag1
(g2
g3
Ntp183
Rp184
(dp185
g7
V117
p186
sg9
VSeadra
p187
sg11
VR,B,
p188
sg13
VFish Super
p189
sg15
V23
p190
sg17
g190
sg18
V25
p191
sbag1
(g2
g3
Ntp192
Rp193
(dp194
g7
V119
p195
sg9
VSeaking
p196
sg11
VR,B,
p197
sg13
VFish Super
p198
sg15
V23
p199
sg17
g199
sg18
V25
p200
sbag1
(g2
g3
Ntp201
Rp202
(dp203
g7
V021
p204
sg9
VSpearow
p205
sg11
VFR,LG,
p206
sg13
VGrass
p207
sg15
V32
p208
sg17
V34
p209
sg18
V15
p210
sbag1
(g2
g3
Ntp211
Rp212
(dp213
g7
V022
p214
sg9
VFearow
p215
sg11
VFR,LG,
p216
sg13
VGrass
p217
sg15
V40
p218
sg17
V44
p219
sg18
V25
p220
sbag1
(g2
g3
Ntp221
Rp222
(dp223
g7
V023
p224
sg9
VEkans
p225
sg11
VFR,
p226
sg13
VGrass
p227
sg15
V32
p228
sg17
V34
p229
sg18
V20
p230
sbag1
(g2
g3
Ntp231
Rp232
(dp233
g7
V024
p234
sg9
VArbok
p235
sg11
g226
sg13
VGrass
p236
sg15
V44
p237
sg17
g237
sg18
V5
p238
sbag1
(g2
g3
Ntp239
Rp240
(dp241
g7
V027
p242
sg9
VSandshrew
p243
sg11
VLG,
p244
sg13
VGrass
p245
sg15
V32
p246
sg17
V34
p247
sg18
V20
p248
sbag1
(g2
g3
Ntp249
Rp250
(dp251
g7
V028
p252
sg9
VSandslash
p253
sg11
g244
sg13
VGrass
p254
sg15
V44
p255
sg17
g255
sg18
V5
p256
sbag1
(g2
g3
Ntp257
Rp258
(dp259
g7
V056
p260
sg9
VMankey
p261
sg11
VFR,LG,
p262
sg13
VGrass
p263
sg15
V32
p264
sg17
V34
p265
sg18
V30
p266
sbag1
(g2
g3
Ntp267
Rp268
(dp269
g7
V057
p270
sg9
VPrimeape
p271
sg11
VFR,LG,
p272
sg13
VGrass
p273
sg15
V42
p274
sg17
g274
sg18
V5
p275
sbag1
(g2
g3
Ntp276
Rp277
(dp278
g7
V054
p279
sg9
VPsyduck
p280
sg11
g226
sg13
VSurf
p281
sg15
V20
p282
sg17
V40
p283
sg18
V100
p284
sbag1
(g2
g3
Ntp285
Rp286
(dp287
g7
V079
p288
sg9
VSlowpoke
p289
sg11
g244
sg13
VSurf
p290
sg15
V20
p291
sg17
V40
p292
sg18
V100
p293
sbag1
(g2
g3
Ntp294
Rp295
(dp296
g7
V129
p297
sg9
VMagikarp
p298
sg11
VFR,LG,
p299
sg13
VFish Old
p300
sg15
g127
sg17
g127
sg18
V100
p301
sbag1
(g2
g3
Ntp302
Rp303
(dp304
g7
V060
p305
sg9
VPoliwag
p306
sg11
VFR,LG,
p307
sg13
VFish Good
p308
sg15
g127
sg17
V15
p309
sg18
V60
p310
sbag1
(g2
g3
Ntp311
Rp312
(dp313
g7
V118
p314
sg9
VGoldeen
p315
sg11
VFR,LG,
p316
sg13
VFish Good
p317
sg15
g127
sg17
V15
p318
sg18
V20
p319
sbag1
(g2
g3
Ntp320
Rp321
(dp322
g7
V129
p323
sg9
VMagikarp
p324
sg11
VFR,LG,
p325
sg13
VFish Good
p326
sg15
g127
sg17
V15
p327
sg18
V20
p328
sbag1
(g2
g3
Ntp329
Rp330
(dp331
g7
V054
p332
sg9
VPsyduck
p333
sg11
g226
sg13
VFish Super
p334
sg15
V15
p335
sg17
V35
p336
sg18
V5
p337
sbag1
(g2
g3
Ntp338
Rp339
(dp340
g7
V060
p341
sg9
VPoliwag
p342
sg11
VFR,LG,
p343
sg13
VFish Super
p344
sg15
V15
p345
sg17
V25
p346
sg18
V40
p347
sbag1
(g2
g3
Ntp348
Rp349
(dp350
g7
V061
p351
sg9
VPoliwhirl
p352
sg11
VFR,LG,
p353
sg13
VFish Super
p354
sg15
V20
p355
sg17
V30
p356
sg18
V40
p357
sbag1
(g2
g3
Ntp358
Rp359
(dp360
g7
V079
p361
sg9
VSlowpoke
p362
sg11
g244
sg13
VFish Super
p363
sg15
V15
p364
sg17
V35
p365
sg18
V5
p366
sbag1
(g2
g3
Ntp367
Rp368
(dp369
g7
V130
p370
sg9
VGyarados
p371
sg11
VFR,LG,
p372
sg13
VFish Super
p373
sg15
V15
p374
sg17
V25
p375
sg18
V15
p376
sbag1
(g2
g3
Ntp377
Rp378
(dp379
g7
V021
p380
sg9
VSpearow
p381
sg11
VPi,Ev,
p382
sg13
VGrass
p383
sg15
V41
p384
sg17
V46
p385
sg18
V10
p386
sbag1
(g2
g3
Ntp387
Rp388
(dp389
g7
V022
p390
sg9
VFearow
p391
sg11
VPi,Ev,
p392
sg13
VGrass
p393
sg15
V41
p394
sg17
V46
p395
sg18
V15
p396
sbag1
(g2
g3
Ntp397
Rp398
(dp399
g7
V029
p400
sg9
VNidoran\u2640
p401
sg11
VPi,Ev,
p402
sg13
VGrass
p403
sg15
V41
p404
sg17
V46
p405
sg18
V10
p406
sbag1
(g2
g3
Ntp407
Rp408
(dp409
g7
V030
p410
sg9
VNidorina
p411
sg11
VPi,Ev,
p412
sg13
VGrass
p413
sg15
V41
p414
sg17
V46
p415
sg18
V19
p416
sbag1
(g2
g3
Ntp417
Rp418
(dp419
g7
V031
p420
sg9
VNidoqueen
p421
sg11
VPi,Ev,
p422
sg13
VGrass
p423
sg15
V41
p424
sg17
V46
p425
sg18
V1
p426
sbag1
(g2
g3
Ntp427
Rp428
(dp429
g7
V032
p430
sg9
VNidoran\u2642
p431
sg11
VPi,Ev,
p432
sg13
VGrass
p433
sg15
V41
p434
sg17
V46
p435
sg18
V10
p436
sbag1
(g2
g3
Ntp437
Rp438
(dp439
g7
V033
p440
sg9
VNidorino
p441
sg11
VPi,Ev,
p442
sg13
VGrass
p443
sg15
V41
p444
sg17
V46
p445
sg18
V19
p446
sbag1
(g2
g3
Ntp447
Rp448
(dp449
g7
V034
p450
sg9
VNidoking
p451
sg11
VPi,Ev,
p452
sg13
VGrass
p453
sg15
V41
p454
sg17
V46
p455
sg18
V1
p456
sbag1
(g2
g3
Ntp457
Rp458
(dp459
g7
V102
p460
sg9
VExeggcute
p461
sg11
VPi,Ev,
p462
sg13
VGrass
p463
sg15
V41
p464
sg17
V46
p465
sg18
V14
p466
sbag1
(g2
g3
Ntp467
Rp468
(dp469
g7
V103
p470
sg9
VExeggutor
p471
sg11
VPi,Ev,
p472
sg13
VGrass
p473
sg15
V41
p474
sg17
V46
p475
sg18
V1
p476
sbag1
(g2
g3
Ntp477
Rp478
(dp479
g7
V113
p480
sg9
VChansey
p481
sg11
VPi,Ev,
p482
sg13
VGrass
p483
sg15
V41
p484
sg17
V46
p485
sg18
V0
p486
sbag1
(g2
g3
Ntp487
Rp488
(dp489
g7
V060
p490
sg9
VPoliwag
p491
sg11
VPi,Ev,
p492
sg13
VSurf
p493
sg15
V41
p494
sg17
V46
p495
sg18
V45
p496
sbag1
(g2
g3
Ntp497
Rp498
(dp499
g7
V061
p500
sg9
VPoliwhirl
p501
sg11
VPi,Ev,
p502
sg13
VSurf
p503
sg15
V41
p504
sg17
V46
p505
sg18
V10
p506
sbag1
(g2
g3
Ntp507
Rp508
(dp509
g7
V129
p510
sg9
VMagikarp
p511
sg11
VPi,Ev,
p512
sg13
VSurf
p513
sg15
V41
p514
sg17
V46
p515
sg18
V45
p516
sbag1
(g2
g3
Ntp517
Rp518
(dp519
g7
V021
p520
sg9
VSpearow
p521
sg11
VPi,Ev,
p522
sg13
VSky
p523
sg15
V3
p524
sg17
V56
p525
sg18
V60
p526
sbag1
(g2
g3
Ntp527
Rp528
(dp529
g7
V022
p530
sg9
VFearow
p531
sg11
VPi,Ev,
p532
sg13
VSky
p533
sg15
g524
sg17
V56
p534
sg18
V40
p535
sbag1
(g2
g3
Ntp536
Rp537
(dp538
g7
V006
p539
sg9
VCharizard
p540
sg11
VPi,Ev,
p541
sg13
VSky
p542
sg15
g524
sg17
V56
p543
sg18
V0
p544
sbag1
(g2
g3
Ntp545
Rp546
(dp547
g7
V144
p548
sg9
VArticuno
p549
sg11
VPi,Ev,
p550
sg13
VSky
p551
sg15
g524
sg17
V56
p552
sg18
V0
p553
sbag1
(g2
g3
Ntp554
Rp555
(dp556
g7
V145
p557
sg9
VZapdos
p558
sg11
VPi,Ev,
p559
sg13
VSky
p560
sg15
g524
sg17
V56
p561
sg18
V0
p562
sbag1
(g2
g3
Ntp563
Rp564
(dp565
g7
V146
p566
sg9
VMoltres
p567
sg11
VPi,Ev,
p568
sg13
VSky
p569
sg15
g524
sg17
V56
p570
sg18
V0
p571
sbag1
(g2
g3
Ntp572
Rp573
(dp574
g7
V149
p575
sg9
VDragonite
p576
sg11
VPi,Ev,
p577
sg13
VSky
p578
sg15
g524
sg17
V56
p579
sg18
V0
p580
sba.