(lp0
ccopy_reg
_reconstructor
p1
(c__main__
WildPokemon
p2
c__builtin__
object
p3
Ntp4
Rp5
(dp6
VpDexNo
p7
V016
p8
sVpSpecies
p9
VPidgey
p10
sVpGames
p11
VR,B,
p12
sVpArea
p13
VGrass
p14
sVpMinLevel
p15
V21
p16
sVpMaxLevel
p17
V23
p18
sVpRate
p19
V25
p20
sbag1
(g2
g3
Ntp21
Rp22
(dp23
g7
V016
p24
sg9
VPidgey
p25
sg11
VY,
p26
sg13
VGrass
p27
sg15
V11
p28
sg17
V17
p29
sg19
V60
p30
sbag1
(g2
g3
Ntp31
Rp32
(dp33
g7
V017
p34
sg9
VPidgeotto
p35
sg11
VR,B,
p36
sg13
VGrass
p37
sg15
V30
p38
sg17
V32
p39
sg19
V15
p40
sbag1
(g2
g3
Ntp41
Rp42
(dp43
g7
V017
p44
sg9
VPidgeotto
p45
sg11
g26
sg13
VGrass
p46
sg15
V15
p47
sg17
V19
p48
sg19
V10
p49
sbag1
(g2
g3
Ntp50
Rp51
(dp52
g7
V019
p53
sg9
VRattata
p54
sg11
VR,B,
p55
sg13
VGrass
p56
sg15
V21
p57
sg17
V23
p58
sg19
V35
p59
sbag1
(g2
g3
Ntp60
Rp61
(dp62
g7
V019
p63
sg9
VRattata
p64
sg11
g26
sg13
VGrass
p65
sg15
V13
p66
sg17
V15
p67
sg19
V25
p68
sbag1
(g2
g3
Ntp69
Rp70
(dp71
g7
V020
p72
sg9
VRaticate
p73
sg11
VR,B,
p74
sg13
VGrass
p75
sg15
V30
p76
sg17
g76
sg19
V15
p77
sbag1
(g2
g3
Ntp78
Rp79
(dp80
g7
V020
p81
sg9
VRaticate
p82
sg11
g26
sg13
VGrass
p83
sg15
V15
p84
sg17
g84
sg19
V5
p85
sbag1
(g2
g3
Ntp86
Rp87
(dp88
g7
V114
p89
sg9
VTangela
p90
sg11
VR,B,
p91
sg13
VGrass
p92
sg15
V28
p93
sg17
V32
p94
sg19
V10
p95
sbag1
(g2
g3
Ntp96
Rp97
(dp98
g7
V072
p99
sg9
VTentacool
p100
sg11
VR,B,Y,
p101
sg13
VSurf
p102
sg15
V5
p103
sg17
V40
p104
sg19
V100
p105
sbag1
(g2
g3
Ntp106
Rp107
(dp108
g7
V129
p109
sg9
VMagikarp
p110
sg11
VR,B,Y,
p111
sg13
VFish Old
p112
sg15
g103
sg17
g103
sg19
V100
p113
sbag1
(g2
g3
Ntp114
Rp115
(dp116
g7
V060
p117
sg9
VPoliwag
p118
sg11
VR,B,Y,
p119
sg13
VFish Good
p120
sg15
V10
p121
sg17
g121
sg19
V50
p122
sbag1
(g2
g3
Ntp123
Rp124
(dp125
g7
V118
p126
sg9
VGoldeen
p127
sg11
VR,B,Y,
p128
sg13
VFish Good
p129
sg15
V10
p130
sg17
g130
sg19
V50
p131
sbag1
(g2
g3
Ntp132
Rp133
(dp134
g7
V072
p135
sg9
VTentacool
p136
sg11
g26
sg13
VFish Super
p137
sg15
V15
p138
sg17
V30
p139
sg19
V60
p140
sbag1
(g2
g3
Ntp141
Rp142
(dp143
g7
V073
p144
sg9
VTentacruel
p145
sg11
g26
sg13
VFish Super
p146
sg15
V30
p147
sg17
g147
sg19
V10
p148
sbag1
(g2
g3
Ntp149
Rp150
(dp151
g7
V090
p152
sg9
VShellder
p153
sg11
VR,B,
p154
sg13
VFish Super
p155
sg15
V15
p156
sg17
g156
sg19
V25
p157
sbag1
(g2
g3
Ntp158
Rp159
(dp160
g7
V116
p161
sg9
VHorsea
p162
sg11
VR,B,
p163
sg13
VFish Super
p164
sg15
V15
p165
sg17
g165
sg19
V25
p166
sbag1
(g2
g3
Ntp167
Rp168
(dp169
g7
V118
p170
sg9
VGoldeen
p171
sg11
VR,B,
p172
sg13
VFish Super
p173
sg15
V15
p174
sg17
g174
sg19
V25
p175
sbag1
(g2
g3
Ntp176
Rp177
(dp178
g7
V120
p179
sg9
VStaryu
p180
sg11
VR,B,
p181
sg13
VFish Super
p182
sg15
V15
p183
sg17
g183
sg19
V25
p184
sbag1
(g2
g3
Ntp185
Rp186
(dp187
g7
V120
p188
sg9
VStaryu
p189
sg11
g26
sg13
VFish Super
p190
sg15
V20
p191
sg17
g191
sg19
V30
p192
sbag1
(g2
g3
Ntp193
Rp194
(dp195
g7
V019
p196
sg9
VRattata
p197
sg11
VC,
p198
sg13
VGrass
p199
sg15
V25
p200
sg17
g200
sg19
V30
p201
sbag1
(g2
g3
Ntp202
Rp203
(dp204
g7
V020
p205
sg9
VRaticate
p206
sg11
g198
sg13
VGrass
p207
sg15
V20
p208
sg17
g208
sg19
V10
p209
sbag1
(g2
g3
Ntp210
Rp211
(dp212
g7
V114
p213
sg9
VTangela
p214
sg11
VG,S,
p215
sg13
VGrass
p216
sg15
V20
p217
sg17
V35
p218
sg19
V95
p219
sbag1
(g2
g3
Ntp220
Rp221
(dp222
g7
V114
p223
sg9
VTangela
p224
sg11
g198
sg13
VGrass
p225
sg15
V30
p226
sg17
V35
p227
sg19
V50
p228
sbag1
(g2
g3
Ntp229
Rp230
(dp231
g7
V114
p232
sg9
VTangela
p233
sg11
g198
sg13
VGrass
p234
sg15
V28
p235
sg17
V35
p236
sg19
V60
p237
sbag1
(g2
g3
Ntp238
Rp239
(dp240
g7
V122
p241
sg9
VMr. Mime
p242
sg11
VG,S,
p243
sg13
VGrass
p244
sg15
V28
p245
sg17
g245
sg19
V5
p246
sbag1
(g2
g3
Ntp247
Rp248
(dp249
g7
V122
p250
sg9
VMr. Mime
p251
sg11
VG,S,
p252
sg13
VGrass
p253
sg15
V28
p254
sg17
V30
p255
sg19
V10
p256
sbag1
(g2
g3
Ntp257
Rp258
(dp259
g7
V122
p260
sg9
VMr. Mime
p261
sg11
g198
sg13
VGrass
p262
sg15
V28
p263
sg17
V30
p264
sg19
V10
p265
sbag1
(g2
g3
Ntp266
Rp267
(dp268
g7
V072
p269
sg9
VTentacool
p270
sg11
VG,S,C,
p271
sg13
VSurf
p272
sg15
V30
p273
sg17
V39
p274
sg19
V90
p275
sbag1
(g2
g3
Ntp276
Rp277
(dp278
g7
V073
p279
sg9
VTentacruel
p280
sg11
VG,S,C,
p281
sg13
VSurf
p282
sg15
V35
p283
sg17
V39
p284
sg19
V10
p285
sbag1
(g2
g3
Ntp286
Rp287
(dp288
g7
V072
p289
sg9
VTentacool
p290
sg11
VG,S,C,
p291
sg13
VFish Old
p292
sg15
V10
p293
sg17
g293
sg19
V15
p294
sbag1
(g2
g3
Ntp295
Rp296
(dp297
g7
V129
p298
sg9
VMagikarp
p299
sg11
VG,S,C,
p300
sg13
VFish Old
p301
sg15
V10
p302
sg17
g302
sg19
V85
p303
sbag1
(g2
g3
Ntp304
Rp305
(dp306
g7
V072
p307
sg9
VTentacool
p308
sg11
VG,S,C,
p309
sg13
VFish Good
p310
sg15
V20
p311
sg17
g311
sg19
V35
p312
sbag1
(g2
g3
Ntp313
Rp314
(dp315
g7
V090
p316
sg9
VShellder
p317
sg11
VG,S,C,
p318
sg13
VFish Good
p319
sg15
V20
p320
sg17
g320
sg19
V10
p321
sbag1
(g2
g3
Ntp322
Rp323
(dp324
g7
V129
p325
sg9
VMagikarp
p326
sg11
VG,S,C,
p327
sg13
VFish Good
p328
sg15
V20
p329
sg17
g329
sg19
V35
p330
sbag1
(g2
g3
Ntp331
Rp332
(dp333
g7
V170
p334
sg9
VChinchou
p335
sg11
VG,S,C,
p336
sg13
VFish Good
p337
sg15
V20
p338
sg17
g338
sg19
V20
p339
sbag1
(g2
g3
Ntp340
Rp341
(dp342
g7
V073
p343
sg9
VTentacruel
p344
sg11
VG,S,C,
p345
sg13
VFish Super
p346
sg15
V40
p347
sg17
g347
sg19
V20
p348
sbag1
(g2
g3
Ntp349
Rp350
(dp351
g7
V090
p352
sg9
VShellder
p353
sg11
VG,S,C,
p354
sg13
VFish Super
p355
sg15
V40
p356
sg17
g356
sg19
V30
p357
sbag1
(g2
g3
Ntp358
Rp359
(dp360
g7
V170
p361
sg9
VChinchou
p362
sg11
VG,S,C,
p363
sg13
VFish Super
p364
sg15
V40
p365
sg17
g365
sg19
V40
p366
sbag1
(g2
g3
Ntp367
Rp368
(dp369
g7
V171
p370
sg9
VLanturn
p371
sg11
VG,S,C,
p372
sg13
VFish Super
p373
sg15
V40
p374
sg17
g374
sg19
V10
p375
sbag1
(g2
g3
Ntp376
Rp377
(dp378
g7
V114
p379
sg9
VTangela
p380
sg11
VFR,LG,
p381
sg13
VGrass
p382
sg15
V17
p383
sg17
V28
p384
sg19
V100
p385
sbag1
(g2
g3
Ntp386
Rp387
(dp388
g7
V072
p389
sg9
VTentacool
p390
sg11
VFR,LG,
p391
sg13
VSurf
p392
sg15
g103
sg17
V40
p393
sg19
V100
p394
sbag1
(g2
g3
Ntp395
Rp396
(dp397
g7
V129
p398
sg9
VMagikarp
p399
sg11
VFR,LG,
p400
sg13
VFish Old
p401
sg15
g103
sg17
g103
sg19
V100
p402
sbag1
(g2
g3
Ntp403
Rp404
(dp405
g7
V098
p406
sg9
VKrabby
p407
sg11
VFR,
p408
sg13
VFish Good
p409
sg15
g103
sg17
V15
p410
sg19
V20
p411
sbag1
(g2
g3
Ntp412
Rp413
(dp414
g7
V098
p415
sg9
VKrabby
p416
sg11
VLG,
p417
sg13
VFish Good
p418
sg15
g103
sg17
V15
p419
sg19
V60
p420
sbag1
(g2
g3
Ntp421
Rp422
(dp423
g7
V116
p424
sg9
VHorsea
p425
sg11
g408
sg13
VFish Good
p426
sg15
g103
sg17
V15
p427
sg19
V60
p428
sbag1
(g2
g3
Ntp429
Rp430
(dp431
g7
V116
p432
sg9
VHorsea
p433
sg11
g417
sg13
VFish Good
p434
sg15
g103
sg17
V15
p435
sg19
V20
p436
sbag1
(g2
g3
Ntp437
Rp438
(dp439
g7
V129
p440
sg9
VMagikarp
p441
sg11
VFR,LG,
p442
sg13
VFish Good
p443
sg15
g103
sg17
V15
p444
sg19
V20
p445
sbag1
(g2
g3
Ntp446
Rp447
(dp448
g7
V054
p449
sg9
VPsyduck
p450
sg11
g408
sg13
VFish Super
p451
sg15
V25
p452
sg17
V35
p453
sg19
V1
p454
sbag1
(g2
g3
Ntp455
Rp456
(dp457
g7
V079
p458
sg9
VSlowpoke
p459
sg11
g417
sg13
VFish Super
p460
sg15
V25
p461
sg17
V35
p462
sg19
V1
p463
sbag1
(g2
g3
Ntp464
Rp465
(dp466
g7
V098
p467
sg9
VKrabby
p468
sg11
g417
sg13
VFish Super
p469
sg15
V15
p470
sg17
V25
p471
sg19
V80
p472
sbag1
(g2
g3
Ntp473
Rp474
(dp475
g7
V099
p476
sg9
VKingler
p477
sg11
g417
sg13
VFish Super
p478
sg15
V25
p479
sg17
V35
p480
sg19
V4
p481
sbag1
(g2
g3
Ntp482
Rp483
(dp484
g7
V116
p485
sg9
VHorsea
p486
sg11
g408
sg13
VFish Super
p487
sg15
V15
p488
sg17
V25
p489
sg19
V80
p490
sbag1
(g2
g3
Ntp491
Rp492
(dp493
g7
V117
p494
sg9
VSeadra
p495
sg11
g408
sg13
VFish Super
p496
sg15
V25
p497
sg17
V35
p498
sg19
V4
p499
sbag1
(g2
g3
Ntp500
Rp501
(dp502
g7
V130
p503
sg9
VGyarados
p504
sg11
VFR,LG,
p505
sg13
VFish Super
p506
sg15
V15
p507
sg17
V25
p508
sg19
V15
p509
sbag1
(g2
g3
Ntp510
Rp511
(dp512
g7
V114
p513
sg9
VTangela
p514
sg11
VHG,SS,
p515
sg13
VGrass
p516
sg15
V20
p517
sg17
V35
p518
sg19
V95
p519
sbag1
(g2
g3
Ntp520
Rp521
(dp522
g7
V122
p523
sg9
VMr. Mime
p524
sg11
VHG,SS,
p525
sg13
VGrass
p526
sg15
V28
p527
sg17
g527
sg19
V5
p528
sbag1
(g2
g3
Ntp529
Rp530
(dp531
g7
V122
p532
sg9
VMr. Mime
p533
sg11
VHG,SS,
p534
sg13
VGrass
p535
sg15
V28
p536
sg17
V30
p537
sg19
V10
p538
sbag1
(g2
g3
Ntp539
Rp540
(dp541
g7
V072
p542
sg9
VTentacool
p543
sg11
VHG,SS,
p544
sg13
VSurf
p545
sg15
V30
p546
sg17
V35
p547
sg19
V90
p548
sbag1
(g2
g3
Ntp549
Rp550
(dp551
g7
V073
p552
sg9
VTentacruel
p553
sg11
VHG,SS,
p554
sg13
VSurf
p555
sg15
V35
p556
sg17
g556
sg19
V10
p557
sbag1
(g2
g3
Ntp558
Rp559
(dp560
g7
V072
p561
sg9
VTentacool
p562
sg11
VHG,SS,
p563
sg13
VFish Old
p564
sg15
V10
p565
sg17
g565
sg19
V5
p566
sbag1
(g2
g3
Ntp567
Rp568
(dp569
g7
V129
p570
sg9
VMagikarp
p571
sg11
VHG,SS,
p572
sg13
VFish Old
p573
sg15
V10
p574
sg17
g574
sg19
V95
p575
sbag1
(g2
g3
Ntp576
Rp577
(dp578
g7
V072
p579
sg9
VTentacool
p580
sg11
VHG,SS,
p581
sg13
VFish Good
p582
sg15
V20
p583
sg17
g583
sg19
V30
p584
sbag1
(g2
g3
Ntp585
Rp586
(dp587
g7
V090
p588
sg9
VShellder
p589
sg11
VHG,SS,
p590
sg13
VFish Good
p591
sg15
V20
p592
sg17
g592
sg19
V3
p593
sbag1
(g2
g3
Ntp594
Rp595
(dp596
g7
V129
p597
sg9
VMagikarp
p598
sg11
VHG,SS,
p599
sg13
VFish Good
p600
sg15
V20
p601
sg17
g601
sg19
V60
p602
sbag1
(g2
g3
Ntp603
Rp604
(dp605
g7
V170
p606
sg9
VChinchou
p607
sg11
VHG,SS,
p608
sg13
VFish Good
p609
sg15
V20
p610
sg17
g610
sg19
V7
p611
sbag1
(g2
g3
Ntp612
Rp613
(dp614
g7
V073
p615
sg9
VTentacruel
p616
sg11
VHG,SS,
p617
sg13
VFish Super
p618
sg15
V40
p619
sg17
g619
sg19
V7
p620
sbag1
(g2
g3
Ntp621
Rp622
(dp623
g7
V090
p624
sg9
VShellder
p625
sg11
VHG,SS,
p626
sg13
VFish Super
p627
sg15
V40
p628
sg17
g628
sg19
V30
p629
sbag1
(g2
g3
Ntp630
Rp631
(dp632
g7
V170
p633
sg9
VChinchou
p634
sg11
VHG,SS,
p635
sg13
VFish Super
p636
sg15
V40
p637
sg17
g637
sg19
V60
p638
sbag1
(g2
g3
Ntp639
Rp640
(dp641
g7
V171
p642
sg9
VLanturn
p643
sg11
VHG,SS,
p644
sg13
VFish Super
p645
sg15
V40
p646
sg17
g646
sg19
V3
p647
sbag1
(g2
g3
Ntp648
Rp649
(dp650
g7
V114
p651
sg9
VTangela
p652
sg11
VHG,SS,
p653
sg13
VHeadbutt
p654
sg15
V27
p655
sg17
V30
p656
sg19
V15
p657
sbag1
(g2
g3
Ntp658
Rp659
(dp660
g7
V163
p661
sg9
VHoothoot
p662
sg11
VHG,SS,
p663
sg13
VHeadbutt
p664
sg15
V24
p665
sg17
V26
p666
sg19
V50
p667
sbag1
(g2
g3
Ntp668
Rp669
(dp670
g7
V163
p671
sg9
VHoothoot
p672
sg11
VHG,SS,
p673
sg13
VHeadbutt
p674
sg15
V27
p675
sg17
V30
p676
sg19
V80
p677
sbag1
(g2
g3
Ntp678
Rp679
(dp680
g7
V165
p681
sg9
VLedyba
p682
sg11
VSS,
p683
sg13
VHeadbutt
p684
sg15
V24
p685
sg17
V26
p686
sg19
V30
p687
sbag1
(g2
g3
Ntp688
Rp689
(dp690
g7
V167
p691
sg9
VSpinarak
p692
sg11
VHG,
p693
sg13
VHeadbutt
p694
sg15
V24
p695
sg17
V26
p696
sg19
V30
p697
sbag1
(g2
g3
Ntp698
Rp699
(dp700
g7
V265
p701
sg9
VWurmple
p702
sg11
VHG,SS,
p703
sg13
VHeadbutt
p704
sg15
V24
p705
sg17
V30
p706
sg19
V20
p707
sbag1
(g2
g3
Ntp708
Rp709
(dp710
g7
V264
p711
sg9
VLinoone
p712
sg11
VHG,SS,
p713
sg13
VHoenn
p714
sg15
V35
p715
sg17
g715
sg19
V20
p716
sbag1
(g2
g3
Ntp717
Rp718
(dp719
g7
V293
p720
sg9
VWhismur
p721
sg11
VHG,SS,
p722
sg13
VHoenn
p723
sg15
V25
p724
sg17
V30
p725
sg19
V20
p726
sbag1
(g2
g3
Ntp727
Rp728
(dp729
g7
V399
p730
sg9
VBidoof
p731
sg11
VHG,SS,
p732
sg13
VSinnoh
p733
sg15
V35
p734
sg17
g734
sg19
V20
p735
sbag1
(g2
g3
Ntp736
Rp737
(dp738
g7
V418
p739
sg9
VBuizel
p740
sg11
VHG,SS,
p741
sg13
VSinnoh
p742
sg15
V25
p743
sg17
V30
p744
sg19
V20
p745
sbag1
(g2
g3
Ntp746
Rp747
(dp748
g7
V016
p749
sg9
VPidgey
p750
sg11
VPi,Ev,
p751
sg13
VGrass
p752
sg15
V37
p753
sg17
V42
p754
sg19
V10
p755
sbag1
(g2
g3
Ntp756
Rp757
(dp758
g7
V017
p759
sg9
VPidgeotto
p760
sg11
VPi,Ev,
p761
sg13
VGrass
p762
sg15
V37
p763
sg17
V42
p764
sg19
V20
p765
sbag1
(g2
g3
Ntp766
Rp767
(dp768
g7
V019
p769
sg9
VRattata
p770
sg11
VPi,Ev,
p771
sg13
VGrass
p772
sg15
V37
p773
sg17
V42
p774
sg19
V10
p775
sbag1
(g2
g3
Ntp776
Rp777
(dp778
g7
V020
p779
sg9
VRaticate
p780
sg11
VPi,Ev,
p781
sg13
VGrass
p782
sg15
V37
p783
sg17
V42
p784
sg19
V20
p785
sbag1
(g2
g3
Ntp786
Rp787
(dp788
g7
V043
p789
sg9
VOddish
p790
sg11
VPi,
p791
sg13
VGrass
p792
sg15
V37
p793
sg17
V42
p794
sg19
V10
p795
sbag1
(g2
g3
Ntp796
Rp797
(dp798
g7
V044
p799
sg9
VGloom
p800
sg11
g791
sg13
VGrass
p801
sg15
V37
p802
sg17
V42
p803
sg19
V14
p804
sbag1
(g2
g3
Ntp805
Rp806
(dp807
g7
V045
p808
sg9
VVileplume
p809
sg11
g791
sg13
VGrass
p810
sg15
V37
p811
sg17
V42
p812
sg19
V1
p813
sbag1
(g2
g3
Ntp814
Rp815
(dp816
g7
V069
p817
sg9
VBellsprout
p818
sg11
VEv,
p819
sg13
VGrass
p820
sg15
V37
p821
sg17
V42
p822
sg19
V10
p823
sbag1
(g2
g3
Ntp824
Rp825
(dp826
g7
V070
p827
sg9
VWeepinbell
p828
sg11
g819
sg13
VGrass
p829
sg15
V37
p830
sg17
V42
p831
sg19
V14
p832
sbag1
(g2
g3
Ntp833
Rp834
(dp835
g7
V071
p836
sg9
VVictreebel
p837
sg11
g819
sg13
VGrass
p838
sg15
V37
p839
sg17
V42
p840
sg19
V1
p841
sbag1
(g2
g3
Ntp842
Rp843
(dp844
g7
V114
p845
sg9
VTangela
p846
sg11
VPi,Ev,
p847
sg13
VGrass
p848
sg15
V37
p849
sg17
V42
p850
sg19
V15
p851
sbag1
(g2
g3
Ntp852
Rp853
(dp854
g7
V113
p855
sg9
VChansey
p856
sg11
VPi,Ev,
p857
sg13
VGrass
p858
sg15
V37
p859
sg17
V42
p860
sg19
V0
p861
sbag1
(g2
g3
Ntp862
Rp863
(dp864
g7
V072
p865
sg9
VTentacool
p866
sg11
VPi,Ev,
p867
sg13
VSurf
p868
sg15
V37
p869
sg17
V42
p870
sg19
V30
p871
sbag1
(g2
g3
Ntp872
Rp873
(dp874
g7
V073
p875
sg9
VTentacruel
p876
sg11
VPi,Ev,
p877
sg13
VSurf
p878
sg15
V37
p879
sg17
V42
p880
sg19
V9
p881
sbag1
(g2
g3
Ntp882
Rp883
(dp884
g7
V120
p885
sg9
VStaryu
p886
sg11
VPi,Ev,
p887
sg13
VSurf
p888
sg15
V37
p889
sg17
V42
p890
sg19
V30
p891
sbag1
(g2
g3
Ntp892
Rp893
(dp894
g7
V121
p895
sg9
VStarmie
p896
sg11
VPi,Ev,
p897
sg13
VSurf
p898
sg15
V37
p899
sg17
V42
p900
sg19
V1
p901
sbag1
(g2
g3
Ntp902
Rp903
(dp904
g7
V129
p905
sg9
VMagikarp
p906
sg11
VPi,Ev,
p907
sg13
VSurf
p908
sg15
V37
p909
sg17
V42
p910
sg19
V30
p911
sbag1
(g2
g3
Ntp912
Rp913
(dp914
g7
V016
p915
sg9
VPidgey
p916
sg11
VPi,Ev,
p917
sg13
VSky
p918
sg15
V3
p919
sg17
V56
p920
sg19
V60
p921
sbag1
(g2
g3
Ntp922
Rp923
(dp924
g7
V017
p925
sg9
VPidgeotto
p926
sg11
VPi,Ev,
p927
sg13
VSky
p928
sg15
g919
sg17
V56
p929
sg19
V35
p930
sbag1
(g2
g3
Ntp931
Rp932
(dp933
g7
V018
p934
sg9
VPidgeot
p935
sg11
VPi,Ev,
p936
sg13
VSky
p937
sg15
g919
sg17
V56
p938
sg19
V5
p939
sbag1
(g2
g3
Ntp940
Rp941
(dp942
g7
V006
p943
sg9
VCharizard
p944
sg11
VPi,Ev,
p945
sg13
VSky
p946
sg15
g919
sg17
V56
p947
sg19
V0
p948
sbag1
(g2
g3
Ntp949
Rp950
(dp951
g7
V144
p952
sg9
VArticuno
p953
sg11
VPi,Ev,
p954
sg13
VSky
p955
sg15
g919
sg17
V56
p956
sg19
V0
p957
sbag1
(g2
g3
Ntp958
Rp959
(dp960
g7
V145
p961
sg9
VZapdos
p962
sg11
VPi,Ev,
p963
sg13
VSky
p964
sg15
g919
sg17
V56
p965
sg19
V0
p966
sbag1
(g2
g3
Ntp967
Rp968
(dp969
g7
V146
p970
sg9
VMoltres
p971
sg11
VPi,Ev,
p972
sg13
VSky
p973
sg15
g919
sg17
V56
p974
sg19
V0
p975
sbag1
(g2
g3
Ntp976
Rp977
(dp978
g7
V149
p979
sg9
VDragonite
p980
sg11
VPi,Ev,
p981
sg13
VSky
p982
sg15
g919
sg17
V56
p983
sg19
V0
p984
sba.