(lp0
ccopy_reg
_reconstructor
p1
(c__main__
WildPokemon
p2
c__builtin__
object
p3
Ntp4
Rp5
(dp6
VpDexNo
p7
V016
p8
sVpSpecies
p9
VPidgey
p10
sVpGames
p11
VR,B,
p12
sVpArea
p13
VGrass
p14
sVpMinLevel
p15
V23
p16
sVpMaxLevel
p17
V27
p18
sVpRate
p19
V35
p20
sbag1
(g2
g3
Ntp21
Rp22
(dp23
g7
V016
p24
sg9
VPidgey
p25
sg11
VY,
p26
sg13
VGrass
p27
sg15
V28
p28
sg17
g28
sg19
V15
p29
sbag1
(g2
g3
Ntp30
Rp31
(dp32
g7
V017
p33
sg9
VPidgeotto
p34
sg11
g26
sg13
VGrass
p35
sg15
V28
p36
sg17
g36
sg19
V10
p37
sbag1
(g2
g3
Ntp38
Rp39
(dp40
g7
V043
p41
sg9
VOddish
p42
sg11
VR,
p43
sg13
VGrass
p44
sg15
V22
p45
sg17
V26
p46
sg19
V40
p47
sbag1
(g2
g3
Ntp48
Rp49
(dp50
g7
V043
p51
sg9
VOddish
p52
sg11
g26
sg13
VGrass
p53
sg15
V25
p54
sg17
V27
p55
sg19
V35
p56
sbag1
(g2
g3
Ntp57
Rp58
(dp59
g7
V044
p60
sg9
VGloom
p61
sg11
g43
sg13
VGrass
p62
sg15
V28
p63
sg17
V30
p64
sg19
V5
p65
sbag1
(g2
g3
Ntp66
Rp67
(dp68
g7
V044
p69
sg9
VGloom
p70
sg11
g26
sg13
VGrass
p71
sg15
V29
p72
sg17
g72
sg19
V5
p73
sbag1
(g2
g3
Ntp74
Rp75
(dp76
g7
V048
p77
sg9
VVenonat
p78
sg11
VR,B,
p79
sg13
VGrass
p80
sg15
V24
p81
sg17
V26
p82
sg19
V20
p83
sbag1
(g2
g3
Ntp84
Rp85
(dp86
g7
V069
p87
sg9
VBellsprout
p88
sg11
VB,
p89
sg13
VGrass
p90
sg15
V22
p91
sg17
V26
p92
sg19
V40
p93
sbag1
(g2
g3
Ntp94
Rp95
(dp96
g7
V069
p97
sg9
VBellsprout
p98
sg11
g26
sg13
VGrass
p99
sg15
V25
p100
sg17
V27
p101
sg19
V25
p102
sbag1
(g2
g3
Ntp103
Rp104
(dp105
g7
V070
p106
sg9
VWeepinbell
p107
sg11
g89
sg13
VGrass
p108
sg15
V28
p109
sg17
V30
p110
sg19
V5
p111
sbag1
(g2
g3
Ntp112
Rp113
(dp114
g7
V070
p115
sg9
VWeepinbell
p116
sg11
g26
sg13
VGrass
p117
sg15
V29
p118
sg17
g118
sg19
V5
p119
sbag1
(g2
g3
Ntp120
Rp121
(dp122
g7
V083
p123
sg9
VFarfetch'd
p124
sg11
g26
sg13
VGrass
p125
sg15
V26
p126
sg17
V31
p127
sg19
V5
p128
sbag1
(g2
g3
Ntp129
Rp130
(dp131
g7
V079
p132
sg9
VSlowpoke
p133
sg11
g26
sg13
VSurf
p134
sg15
V15
p135
sg17
g135
sg19
V95
p136
sbag1
(g2
g3
Ntp137
Rp138
(dp139
g7
V080
p140
sg9
VSlowbro
p141
sg11
g26
sg13
VSurf
p142
sg15
V15
p143
sg17
V20
p144
sg19
V5
p145
sbag1
(g2
g3
Ntp146
Rp147
(dp148
g7
V129
p149
sg9
VMagikarp
p150
sg11
VR,B,Y,
p151
sg13
VFish Old
p152
sg15
V5
p153
sg17
g153
sg19
V100
p154
sbag1
(g2
g3
Ntp155
Rp156
(dp157
g7
V060
p158
sg9
VPoliwag
p159
sg11
VR,B,Y,
p160
sg13
VFish Good
p161
sg15
V10
p162
sg17
g162
sg19
V50
p163
sbag1
(g2
g3
Ntp164
Rp165
(dp166
g7
V118
p167
sg9
VGoldeen
p168
sg11
VR,B,Y,
p169
sg13
VFish Good
p170
sg15
V10
p171
sg17
g171
sg19
V50
p172
sbag1
(g2
g3
Ntp173
Rp174
(dp175
g7
V072
p176
sg9
VTentacool
p177
sg11
VR,B,
p178
sg13
VFish Super
p179
sg15
g153
sg17
g153
sg19
V25
p180
sbag1
(g2
g3
Ntp181
Rp182
(dp183
g7
V098
p184
sg9
VKrabby
p185
sg11
VR,B,
p186
sg13
VFish Super
p187
sg15
V15
p188
sg17
g188
sg19
V25
p189
sbag1
(g2
g3
Ntp190
Rp191
(dp192
g7
V116
p193
sg9
VHorsea
p194
sg11
g26
sg13
VFish Super
p195
sg15
V20
p196
sg17
V25
p197
sg19
V70
p198
sbag1
(g2
g3
Ntp199
Rp200
(dp201
g7
V117
p202
sg9
VSeadra
p203
sg11
g26
sg13
VFish Super
p204
sg15
V25
p205
sg17
V35
p206
sg19
V30
p207
sbag1
(g2
g3
Ntp208
Rp209
(dp210
g7
V118
p211
sg9
VGoldeen
p212
sg11
VR,B,
p213
sg13
VFish Super
p214
sg15
V15
p215
sg17
g215
sg19
V25
p216
sbag1
(g2
g3
Ntp217
Rp218
(dp219
g7
V129
p220
sg9
VMagikarp
p221
sg11
VR,B,
p222
sg13
VFish Super
p223
sg15
V15
p224
sg17
g224
sg19
V25
p225
sbag1
(g2
g3
Ntp226
Rp227
(dp228
g7
V143
p229
sg9
VSnorlax
p230
sg11
VR,B,Y,
p231
sg13
VSpecial
p232
sg15
V30
p233
sg17
g233
sg19
V0
p234
sbag1
(g2
g3
Ntp235
Rp236
(dp237
g7
V072
p238
sg9
VTentacool
p239
sg11
VG,S,C,
p240
sg13
VSurf
p241
sg15
V25
p242
sg17
V29
p243
sg19
V60
p244
sbag1
(g2
g3
Ntp245
Rp246
(dp247
g7
V195
p248
sg9
VQuagsire
p249
sg11
VG,S,C,
p250
sg13
VSurf
p251
sg15
V25
p252
sg17
V29
p253
sg19
V30
p254
sbag1
(g2
g3
Ntp255
Rp256
(dp257
g7
V073
p258
sg9
VTentacruel
p259
sg11
VG,S,C,
p260
sg13
VSurf
p261
sg15
V25
p262
sg17
V29
p263
sg19
V10
p264
sbag1
(g2
g3
Ntp265
Rp266
(dp267
g7
V129
p268
sg9
VMagikarp
p269
sg11
VG,S,C,
p270
sg13
VFish Old
p271
sg15
V10
p272
sg17
g272
sg19
V85
p273
sbag1
(g2
g3
Ntp274
Rp275
(dp276
g7
V072
p277
sg9
VTentacool
p278
sg11
VG,S,C,
p279
sg13
VFish Old
p280
sg15
V10
p281
sg17
g281
sg19
V15
p282
sbag1
(g2
g3
Ntp283
Rp284
(dp285
g7
V072
p286
sg9
VTentacool
p287
sg11
VG,S,C,
p288
sg13
VFish Good
p289
sg15
V20
p290
sg17
g290
sg19
V65
p291
sbag1
(g2
g3
Ntp292
Rp293
(dp294
g7
V129
p295
sg9
VMagikarp
p296
sg11
VG,S,C,
p297
sg13
VFish Good
p298
sg15
V20
p299
sg17
g299
sg19
V35
p300
sbag1
(g2
g3
Ntp301
Rp302
(dp303
g7
V072
p304
sg9
VTentacool
p305
sg11
VG,S,C,
p306
sg13
VFish Super
p307
sg15
V40
p308
sg17
g308
sg19
V70
p309
sbag1
(g2
g3
Ntp310
Rp311
(dp312
g7
V129
p313
sg9
VMagikarp
p314
sg11
VG,S,C,
p315
sg13
VFish Super
p316
sg15
V40
p317
sg17
g317
sg19
V20
p318
sbag1
(g2
g3
Ntp319
Rp320
(dp321
g7
V211
p322
sg9
VQwilfish
p323
sg11
VG,S,C,
p324
sg13
VFish Super
p325
sg15
V40
p326
sg17
g326
sg19
V10
p327
sbag1
(g2
g3
Ntp328
Rp329
(dp330
g7
V043
p331
sg9
VOddish
p332
sg11
VFR,
p333
sg13
VGrass
p334
sg15
V22
p335
sg17
V26
p336
sg19
V35
p337
sbag1
(g2
g3
Ntp338
Rp339
(dp340
g7
V069
p341
sg9
VBellsprout
p342
sg11
VLG,
p343
sg13
VGrass
p344
sg15
V22
p345
sg17
V26
p346
sg19
V35
p347
sbag1
(g2
g3
Ntp348
Rp349
(dp350
g7
V016
p351
sg9
VPidgey
p352
sg11
VFR,LG,
p353
sg13
VGrass
p354
sg15
V23
p355
sg17
V27
p356
sg19
V30
p357
sbag1
(g2
g3
Ntp358
Rp359
(dp360
g7
V048
p361
sg9
VVenonat
p362
sg11
VFR,LG,
p363
sg13
VGrass
p364
sg15
V24
p365
sg17
V26
p366
sg19
V30
p367
sbag1
(g2
g3
Ntp368
Rp369
(dp370
g7
V044
p371
sg9
VGloom
p372
sg11
g333
sg13
VGrass
p373
sg15
V28
p374
sg17
V30
p375
sg19
V5
p376
sbag1
(g2
g3
Ntp377
Rp378
(dp379
g7
V070
p380
sg9
VWeepinbell
p381
sg11
g343
sg13
VGrass
p382
sg15
V28
p383
sg17
V30
p384
sg19
V5
p385
sbag1
(g2
g3
Ntp386
Rp387
(dp388
g7
V072
p389
sg9
VTentacool
p390
sg11
VFR,LG,
p391
sg13
VSurf
p392
sg15
g153
sg17
V40
p393
sg19
V100
p394
sbag1
(g2
g3
Ntp395
Rp396
(dp397
g7
V129
p398
sg9
VMagikarp
p399
sg11
VFR,LG,
p400
sg13
VFish Old
p401
sg15
g153
sg17
g153
sg19
V100
p402
sbag1
(g2
g3
Ntp403
Rp404
(dp405
g7
V116
p406
sg9
VHorsea
p407
sg11
g333
sg13
VFish Good
p408
sg15
g153
sg17
V15
p409
sg19
V60
p410
sbag1
(g2
g3
Ntp411
Rp412
(dp413
g7
V116
p414
sg9
VHorsea
p415
sg11
g343
sg13
VFish Good
p416
sg15
g153
sg17
V15
p417
sg19
V20
p418
sbag1
(g2
g3
Ntp419
Rp420
(dp421
g7
V098
p422
sg9
VKrabby
p423
sg11
g333
sg13
VFish Good
p424
sg15
g153
sg17
V15
p425
sg19
V20
p426
sbag1
(g2
g3
Ntp427
Rp428
(dp429
g7
V098
p430
sg9
VKrabby
p431
sg11
g343
sg13
VFish Good
p432
sg15
g153
sg17
V15
p433
sg19
V60
p434
sbag1
(g2
g3
Ntp435
Rp436
(dp437
g7
V129
p438
sg9
VMagikarp
p439
sg11
VFR,LG,
p440
sg13
VFish Good
p441
sg15
g153
sg17
V15
p442
sg19
V20
p443
sbag1
(g2
g3
Ntp444
Rp445
(dp446
g7
V116
p447
sg9
VHorsea
p448
sg11
g333
sg13
VFish Super
p449
sg15
V15
p450
sg17
V35
p451
sg19
V84
p452
sbag1
(g2
g3
Ntp453
Rp454
(dp455
g7
V098
p456
sg9
VKrabby
p457
sg11
g343
sg13
VFish Super
p458
sg15
V15
p459
sg17
V35
p460
sg19
V84
p461
sbag1
(g2
g3
Ntp462
Rp463
(dp464
g7
V130
p465
sg9
VGyarados
p466
sg11
VFR,LG,
p467
sg13
VFish Super
p468
sg15
V15
p469
sg17
V25
p470
sg19
V15
p471
sbag1
(g2
g3
Ntp472
Rp473
(dp474
g7
V054
p475
sg9
VPsyduck
p476
sg11
g333
sg13
VFish Super
p477
sg15
V25
p478
sg17
V35
p479
sg19
V1
p480
sbag1
(g2
g3
Ntp481
Rp482
(dp483
g7
V079
p484
sg9
VSlowpoke
p485
sg11
g343
sg13
VFish Super
p486
sg15
V25
p487
sg17
V35
p488
sg19
V1
p489
sbag1
(g2
g3
Ntp490
Rp491
(dp492
g7
V143
p493
sg9
VSnorlax
p494
sg11
VFR,LG,
p495
sg13
VSpecial
p496
sg15
V30
p497
sg17
g497
sg19
V0
p498
sbag1
(g2
g3
Ntp499
Rp500
(dp501
g7
V073
p502
sg9
VTentacruel
p503
sg11
VHG,SS,
p504
sg13
VSurf
p505
sg15
V25
p506
sg17
g506
sg19
V70
p507
sbag1
(g2
g3
Ntp508
Rp509
(dp510
g7
V195
p511
sg9
VQuagsire
p512
sg11
VHG,SS,
p513
sg13
VSurf
p514
sg15
V25
p515
sg17
g515
sg19
V30
p516
sbag1
(g2
g3
Ntp517
Rp518
(dp519
g7
V129
p520
sg9
VMagikarp
p521
sg11
VHG,SS,
p522
sg13
VFish Old
p523
sg15
V10
p524
sg17
g524
sg19
V95
p525
sbag1
(g2
g3
Ntp526
Rp527
(dp528
g7
V072
p529
sg9
VTentacool
p530
sg11
VHG,SS,
p531
sg13
VFish Old
p532
sg15
V10
p533
sg17
g533
sg19
V5
p534
sbag1
(g2
g3
Ntp535
Rp536
(dp537
g7
V129
p538
sg9
VMagikarp
p539
sg11
VHG,SS,
p540
sg13
VFish Good
p541
sg15
V20
p542
sg17
g542
sg19
V60
p543
sbag1
(g2
g3
Ntp544
Rp545
(dp546
g7
V072
p547
sg9
VTentacool
p548
sg11
VHG,SS,
p549
sg13
VFish Good
p550
sg15
V20
p551
sg17
g551
sg19
V40
p552
sbag1
(g2
g3
Ntp553
Rp554
(dp555
g7
V072
p556
sg9
VTentacool
p557
sg11
VHG,SS,
p558
sg13
VFish Super
p559
sg15
V40
p560
sg17
g560
sg19
V90
p561
sbag1
(g2
g3
Ntp562
Rp563
(dp564
g7
V129
p565
sg9
VMagikarp
p566
sg11
VHG,SS,
p567
sg13
VFish Super
p568
sg15
V40
p569
sg17
g569
sg19
V7
p570
sbag1
(g2
g3
Ntp571
Rp572
(dp573
g7
V211
p574
sg9
VQwilfish
p575
sg11
VHG,SS,
p576
sg13
VFish Super
p577
sg15
V40
p578
sg17
g578
sg19
V3
p579
sbag1
(g2
g3
Ntp580
Rp581
(dp582
g7
V163
p583
sg9
VHoothoot
p584
sg11
VHG,SS,
p585
sg13
VHeadbutt
p586
sg15
V22
p587
sg17
V23
p588
sg19
V50
p589
sbag1
(g2
g3
Ntp590
Rp591
(dp592
g7
V163
p593
sg9
VHoothoot
p594
sg11
VHG,SS,
p595
sg13
VHeadbutt
p596
sg15
V24
p597
sg17
V25
p598
sg19
V65
p599
sbag1
(g2
g3
Ntp600
Rp601
(dp602
g7
V167
p603
sg9
VSpinarak
p604
sg11
VHG,
p605
sg13
VHeadbutt
p606
sg15
V22
p607
sg17
V23
p608
sg19
V30
p609
sbag1
(g2
g3
Ntp610
Rp611
(dp612
g7
V165
p613
sg9
VLedyba
p614
sg11
VSS,
p615
sg13
VHeadbutt
p616
sg15
V22
p617
sg17
V23
p618
sg19
V30
p619
sbag1
(g2
g3
Ntp620
Rp621
(dp622
g7
V265
p623
sg9
VWurmple
p624
sg11
VHG,SS,
p625
sg13
VHeadbutt
p626
sg15
V22
p627
sg17
V25
p628
sg19
V20
p629
sbag1
(g2
g3
Ntp630
Rp631
(dp632
g7
V114
p633
sg9
VTangela
p634
sg11
VHG,SS,
p635
sg13
VHeadbutt
p636
sg15
V24
p637
sg17
V25
p638
sg19
V15
p639
sbag1
(g2
g3
Ntp640
Rp641
(dp642
g7
V369
p643
sg9
VRelicanth
p644
sg11
VHG,SS,
p645
sg13
VSwarm
p646
sg15
V10
p647
sg17
V40
p648
sg19
V0
p649
sbag1
(g2
g3
Ntp650
Rp651
(dp652
g7
V143
p653
sg9
VSnorlax
p654
sg11
VHG,SS,
p655
sg13
VSpecial
p656
sg15
V50
p657
sg17
g657
sg19
V0
p658
sbag1
(g2
g3
Ntp659
Rp660
(dp661
g7
V016
p662
sg9
VPidgey
p663
sg11
VPi,Ev,
p664
sg13
VGrass
p665
sg15
V31
p666
sg17
V36
p667
sg19
V20
p668
sbag1
(g2
g3
Ntp669
Rp670
(dp671
g7
V017
p672
sg9
VPidgeotto
p673
sg11
VPi,Ev,
p674
sg13
VGrass
p675
sg15
V31
p676
sg17
V36
p677
sg19
V20
p678
sbag1
(g2
g3
Ntp679
Rp680
(dp681
g7
V043
p682
sg9
VOddish
p683
sg11
VPi,
p684
sg13
VGrass
p685
sg15
V31
p686
sg17
V36
p687
sg19
V15
p688
sbag1
(g2
g3
Ntp689
Rp690
(dp691
g7
V044
p692
sg9
VGloom
p693
sg11
g684
sg13
VGrass
p694
sg15
V31
p695
sg17
V36
p696
sg19
V15
p697
sbag1
(g2
g3
Ntp698
Rp699
(dp700
g7
V069
p701
sg9
VBellsprout
p702
sg11
VEv,
p703
sg13
VGrass
p704
sg15
V31
p705
sg17
V36
p706
sg19
V15
p707
sbag1
(g2
g3
Ntp708
Rp709
(dp710
g7
V070
p711
sg9
VWeepinbell
p712
sg11
g703
sg13
VGrass
p713
sg15
V31
p714
sg17
V36
p715
sg19
V15
p716
sbag1
(g2
g3
Ntp717
Rp718
(dp719
g7
V083
p720
sg9
VFarfetch'd
p721
sg11
VPi,Ev,
p722
sg13
VGrass
p723
sg15
V31
p724
sg17
V36
p725
sg19
V10
p726
sbag1
(g2
g3
Ntp727
Rp728
(dp729
g7
V098
p730
sg9
VKrabby
p731
sg11
VPi,Ev,
p732
sg13
VGrass
p733
sg15
V31
p734
sg17
V36
p735
sg19
V15
p736
sbag1
(g2
g3
Ntp737
Rp738
(dp739
g7
V099
p740
sg9
VKingler
p741
sg11
VPi,Ev,
p742
sg13
VGrass
p743
sg15
V31
p744
sg17
V36
p745
sg19
V5
p746
sbag1
(g2
g3
Ntp747
Rp748
(dp749
g7
V113
p750
sg9
VChansey
p751
sg11
VPi,Ev,
p752
sg13
VGrass
p753
sg15
V31
p754
sg17
V36
p755
sg19
V0
p756
sbag1
(g2
g3
Ntp757
Rp758
(dp759
g7
V072
p760
sg9
VTentacool
p761
sg11
VPi,Ev,
p762
sg13
VSurf
p763
sg15
V31
p764
sg17
V36
p765
sg19
V30
p766
sbag1
(g2
g3
Ntp767
Rp768
(dp769
g7
V073
p770
sg9
VTentacruel
p771
sg11
VPi,Ev,
p772
sg13
VSurf
p773
sg15
V31
p774
sg17
V36
p775
sg19
V5
p776
sbag1
(g2
g3
Ntp777
Rp778
(dp779
g7
V116
p780
sg9
VHorsea
p781
sg11
VPi,Ev,
p782
sg13
VSurf
p783
sg15
V31
p784
sg17
V36
p785
sg19
V30
p786
sbag1
(g2
g3
Ntp787
Rp788
(dp789
g7
V117
p790
sg9
VSeadra
p791
sg11
VPi,Ev,
p792
sg13
VSurf
p793
sg15
V31
p794
sg17
V36
p795
sg19
V5
p796
sbag1
(g2
g3
Ntp797
Rp798
(dp799
g7
V129
p800
sg9
VMagikarp
p801
sg11
VPi,Ev,
p802
sg13
VSurf
p803
sg15
V31
p804
sg17
V36
p805
sg19
V30
p806
sbag1
(g2
g3
Ntp807
Rp808
(dp809
g7
V016
p810
sg9
VPidgey
p811
sg11
VPi,Ev,
p812
sg13
VSky
p813
sg15
V3
p814
sg17
V56
p815
sg19
V60
p816
sbag1
(g2
g3
Ntp817
Rp818
(dp819
g7
V017
p820
sg9
VPidgeotto
p821
sg11
VPi,Ev,
p822
sg13
VSky
p823
sg15
g814
sg17
V56
p824
sg19
V35
p825
sbag1
(g2
g3
Ntp826
Rp827
(dp828
g7
V018
p829
sg9
VPidgeot
p830
sg11
VPi,Ev,
p831
sg13
VSky
p832
sg15
g814
sg17
V56
p833
sg19
V5
p834
sbag1
(g2
g3
Ntp835
Rp836
(dp837
g7
V006
p838
sg9
VCharizard
p839
sg11
VPi,Ev,
p840
sg13
VSky
p841
sg15
g814
sg17
V56
p842
sg19
V0
p843
sbag1
(g2
g3
Ntp844
Rp845
(dp846
g7
V144
p847
sg9
VArticuno
p848
sg11
VPi,Ev,
p849
sg13
VSky
p850
sg15
g814
sg17
V56
p851
sg19
V0
p852
sbag1
(g2
g3
Ntp853
Rp854
(dp855
g7
V145
p856
sg9
VZapdos
p857
sg11
VPi,Ev,
p858
sg13
VSky
p859
sg15
g814
sg17
V56
p860
sg19
V0
p861
sbag1
(g2
g3
Ntp862
Rp863
(dp864
g7
V146
p865
sg9
VMoltres
p866
sg11
VPi,Ev,
p867
sg13
VSky
p868
sg15
g814
sg17
V56
p869
sg19
V0
p870
sbag1
(g2
g3
Ntp871
Rp872
(dp873
g7
V149
p874
sg9
VDragonite
p875
sg11
VPi,Ev,
p876
sg13
VSky
p877
sg15
g814
sg17
V56
p878
sg19
V0
p879
sbag1
(g2
g3
Ntp880
Rp881
(dp882
g7
V143
p883
sg9
VSnorlax
p884
sg11
VPi,Ev,
p885
sg13
VSpecial
p886
sg15
V34
p887
sg17
g887
sg19
V0
p888
sba.