(lp0
ccopy_reg
_reconstructor
p1
(c__main__
WildPokemon
p2
c__builtin__
object
p3
Ntp4
Rp5
(dp6
VpDexNo
p7
V103
p8
sVpSpecies
p9
VExeggutor
p10
sVpGames
p11
VPi,Ev,
p12
sVpArea
p13
VTrade
p14
sVpMinLevel
p15
V46
p16
sVpMaxLevel
p17
g16
sVpRate
p18
V0
p19
sbag1
(g2
g3
Ntp20
Rp21
(dp22
g7
V129
p23
sg9
VMagikarp
p24
sg11
VR,B,Y,
p25
sg13
VFish Old
p26
sg15
V5
p27
sg17
g27
sg18
V100
p28
sbag1
(g2
g3
Ntp29
Rp30
(dp31
g7
V118
p32
sg9
VGoldeen
p33
sg11
VR,B,Y,
p34
sg13
VFish Good
p35
sg15
V10
p36
sg17
g36
sg18
V50
p37
sbag1
(g2
g3
Ntp38
Rp39
(dp40
g7
V060
p41
sg9
VPoliwag
p42
sg11
VR,B,Y,
p43
sg13
VFish Good
p44
sg15
V10
p45
sg17
g45
sg18
V50
p46
sba.