(lp0
ccopy_reg
_reconstructor
p1
(c__main__
WildPokemon
p2
c__builtin__
object
p3
Ntp4
Rp5
(dp6
VpDexNo
p7
V020
p8
sVpSpecies
p9
VRaticate
p10
sVpGames
p11
VG,S,
p12
sVpArea
p13
VGrass
p14
sVpMinLevel
p15
V30
p16
sVpMaxLevel
p17
g16
sVpRate
p18
V5
p19
sbag1
(g2
g3
Ntp20
Rp21
(dp22
g7
V020
p23
sg9
VRaticate
p24
sg11
VG,C,
p25
sg13
VGrass
p26
sg15
V28
p27
sg17
V30
p28
sg18
V40
p29
sbag1
(g2
g3
Ntp30
Rp31
(dp32
g7
V020
p33
sg9
VRaticate
p34
sg11
VS,
p35
sg13
VGrass
p36
sg15
V28
p37
sg17
V30
p38
sg18
V70
p39
sbag1
(g2
g3
Ntp40
Rp41
(dp42
g7
V020
p43
sg9
VRaticate
p44
sg11
VC,
p45
sg13
VGrass
p46
sg15
V30
p47
sg17
g47
sg18
V10
p48
sbag1
(g2
g3
Ntp49
Rp50
(dp51
g7
V024
p52
sg9
VArbok
p53
sg11
g35
sg13
VGrass
p54
sg15
V30
p55
sg17
g55
sg18
V5
p56
sbag1
(g2
g3
Ntp57
Rp58
(dp59
g7
V024
p60
sg9
VArbok
p61
sg11
g45
sg13
VGrass
p62
sg15
V30
p63
sg17
g63
sg18
V5
p64
sbag1
(g2
g3
Ntp65
Rp66
(dp67
g7
V028
p68
sg9
VSandslash
p69
sg11
VG,
p70
sg13
VGrass
p71
sg15
V28
p72
sg17
g72
sg18
V30
p73
sbag1
(g2
g3
Ntp74
Rp75
(dp76
g7
V028
p77
sg9
VSandslash
p78
sg11
g45
sg13
VGrass
p79
sg15
V28
p80
sg17
g80
sg18
V30
p81
sbag1
(g2
g3
Ntp82
Rp83
(dp84
g7
V077
p85
sg9
VPonyta
p86
sg11
VG,S,
p87
sg13
VGrass
p88
sg15
V32
p89
sg17
g89
sg18
V20
p90
sbag1
(g2
g3
Ntp91
Rp92
(dp93
g7
V077
p94
sg9
VPonyta
p95
sg11
g45
sg13
VGrass
p96
sg15
V32
p97
sg17
g97
sg18
V20
p98
sbag1
(g2
g3
Ntp99
Rp100
(dp101
g7
V084
p102
sg9
VDoduo
p103
sg11
VG,S,
p104
sg13
VGrass
p105
sg15
V28
p106
sg17
V30
p107
sg18
V40
p108
sbag1
(g2
g3
Ntp109
Rp110
(dp111
g7
V084
p112
sg9
VDoduo
p113
sg11
g45
sg13
VGrass
p114
sg15
V28
p115
sg17
V30
p116
sg18
V35
p117
sbag1
(g2
g3
Ntp118
Rp119
(dp120
g7
V085
p121
sg9
VDodrio
p122
sg11
g70
sg13
VGrass
p123
sg15
V30
p124
sg17
g124
sg18
V5
p125
sbag1
(g2
g3
Ntp126
Rp127
(dp128
g7
V164
p129
sg9
VNoctowl
p130
sg11
g45
sg13
VGrass
p131
sg15
V28
p132
sg17
V32
p133
sg18
V50
p134
sbag1
(g2
g3
Ntp135
Rp136
(dp137
g7
V195
p138
sg9
VQuagsire
p139
sg11
g70
sg13
VGrass
p140
sg15
V30
p141
sg17
g141
sg18
V1
p142
sbag1
(g2
g3
Ntp143
Rp144
(dp145
g7
V195
p146
sg9
VQuagsire
p147
sg11
g70
sg13
VGrass
p148
sg15
V30
p149
sg17
V32
p150
sg18
V10
p151
sbag1
(g2
g3
Ntp152
Rp153
(dp154
g7
V195
p155
sg9
VQuagsire
p156
sg11
g35
sg13
VGrass
p157
sg15
V30
p158
sg17
g158
sg18
V5
p159
sbag1
(g2
g3
Ntp160
Rp161
(dp162
g7
V195
p163
sg9
VQuagsire
p164
sg11
g45
sg13
VGrass
p165
sg15
V30
p166
sg17
g166
sg18
V10
p167
sbag1
(g2
g3
Ntp168
Rp169
(dp170
g7
V072
p171
sg9
VTentacool
p172
sg11
VG,S,C,
p173
sg13
VSurf
p174
sg15
V25
p175
sg17
V34
p176
sg18
V90
p177
sbag1
(g2
g3
Ntp178
Rp179
(dp180
g7
V073
p181
sg9
VTentacruel
p182
sg11
g45
sg13
VSurf
p183
sg15
V30
p184
sg17
V34
p185
sg18
V10
p186
sbag1
(g2
g3
Ntp187
Rp188
(dp189
g7
V073
p190
sg9
VTentacruel
p191
sg11
VG,S,
p192
sg13
VSurf
p193
sg15
V30
p194
sg17
V40
p195
sg18
V10
p196
sbag1
(g2
g3
Ntp197
Rp198
(dp199
g7
V072
p200
sg9
VTentacool
p201
sg11
VG,S,C,
p202
sg13
VFish Old
p203
sg15
V10
p204
sg17
g204
sg18
V15
p205
sbag1
(g2
g3
Ntp206
Rp207
(dp208
g7
V129
p209
sg9
VMagikarp
p210
sg11
VG,S,C,
p211
sg13
VFish Old
p212
sg15
V10
p213
sg17
g213
sg18
V85
p214
sbag1
(g2
g3
Ntp215
Rp216
(dp217
g7
V072
p218
sg9
VTentacool
p219
sg11
VG,S,C,
p220
sg13
VFish Good
p221
sg15
V20
p222
sg17
g222
sg18
V35
p223
sbag1
(g2
g3
Ntp224
Rp225
(dp226
g7
V090
p227
sg9
VShellder
p228
sg11
VG,S,C,
p229
sg13
VFish Good
p230
sg15
V20
p231
sg17
g231
sg18
V10
p232
sbag1
(g2
g3
Ntp233
Rp234
(dp235
g7
V129
p236
sg9
VMagikarp
p237
sg11
VG,S,C,
p238
sg13
VFish Good
p239
sg15
V20
p240
sg17
g240
sg18
V35
p241
sbag1
(g2
g3
Ntp242
Rp243
(dp244
g7
V170
p245
sg9
VChinchou
p246
sg11
VG,S,C,
p247
sg13
VFish Good
p248
sg15
V20
p249
sg17
g249
sg18
V20
p250
sbag1
(g2
g3
Ntp251
Rp252
(dp253
g7
V073
p254
sg9
VTentacruel
p255
sg11
VG,S,C,
p256
sg13
VFish Super
p257
sg15
V40
p258
sg17
g258
sg18
V20
p259
sbag1
(g2
g3
Ntp260
Rp261
(dp262
g7
V090
p263
sg9
VShellder
p264
sg11
VG,S,C,
p265
sg13
VFish Super
p266
sg15
V40
p267
sg17
g267
sg18
V30
p268
sbag1
(g2
g3
Ntp269
Rp270
(dp271
g7
V170
p272
sg9
VChinchou
p273
sg11
VG,S,C,
p274
sg13
VFish Super
p275
sg15
V40
p276
sg17
g276
sg18
V40
p277
sbag1
(g2
g3
Ntp278
Rp279
(dp280
g7
V171
p281
sg9
VLanturn
p282
sg11
VG,S,C,
p283
sg13
VFish Super
p284
sg15
V40
p285
sg17
g285
sg18
V10
p286
sbag1
(g2
g3
Ntp287
Rp288
(dp289
g7
V010
p290
sg9
VCaterpie
p291
sg11
g70
sg13
VHeadbutt
p292
sg15
V10
p293
sg17
g293
sg18
V65
p294
sbag1
(g2
g3
Ntp295
Rp296
(dp297
g7
V011
p298
sg9
VMetapod
p299
sg11
g70
sg13
VHeadbutt
p300
sg15
V10
p301
sg17
g301
sg18
V15
p302
sbag1
(g2
g3
Ntp303
Rp304
(dp305
g7
V012
p306
sg9
VButterfree
p307
sg11
g70
sg13
VHeadbutt
p308
sg15
V10
p309
sg17
g309
sg18
V5
p310
sbag1
(g2
g3
Ntp311
Rp312
(dp313
g7
V013
p314
sg9
VWeedle
p315
sg11
g35
sg13
VHeadbutt
p316
sg15
V10
p317
sg17
g317
sg18
V65
p318
sbag1
(g2
g3
Ntp319
Rp320
(dp321
g7
V014
p322
sg9
VKakuna
p323
sg11
g35
sg13
VHeadbutt
p324
sg15
V10
p325
sg17
g325
sg18
V15
p326
sbag1
(g2
g3
Ntp327
Rp328
(dp329
g7
V015
p330
sg9
VBeedrill
p331
sg11
g35
sg13
VHeadbutt
p332
sg15
V10
p333
sg17
g333
sg18
V5
p334
sbag1
(g2
g3
Ntp335
Rp336
(dp337
g7
V023
p338
sg9
VEkans
p339
sg11
g45
sg13
VHeadbutt
p340
sg15
V10
p341
sg17
g341
sg18
V15
p342
sbag1
(g2
g3
Ntp343
Rp344
(dp345
g7
V102
p346
sg9
VExeggcute
p347
sg11
VG,S,
p348
sg13
VHeadbutt
p349
sg15
V10
p350
sg17
g350
sg18
V15
p351
sbag1
(g2
g3
Ntp352
Rp353
(dp354
g7
V102
p355
sg9
VExeggcute
p356
sg11
g45
sg13
VHeadbutt
p357
sg15
V10
p358
sg17
g358
sg18
V20
p359
sbag1
(g2
g3
Ntp360
Rp361
(dp362
g7
V163
p363
sg9
VHoothoot
p364
sg11
g45
sg13
VHeadbutt
p365
sg15
V10
p366
sg17
g366
sg18
V65
p367
sbag1
(g2
g3
Ntp368
Rp369
(dp370
g7
V010
p371
sg9
VCaterpie
p372
sg11
g70
sg13
VHeadbutt
p373
sg15
V10
p374
sg17
g374
sg18
V50
p375
sbag1
(g2
g3
Ntp376
Rp377
(dp378
g7
V012
p379
sg9
VButterfree
p380
sg11
g70
sg13
VHeadbutt
p381
sg15
V10
p382
sg17
g382
sg18
V5
p383
sbag1
(g2
g3
Ntp384
Rp385
(dp386
g7
V013
p387
sg9
VWeedle
p388
sg11
g35
sg13
VHeadbutt
p389
sg15
V10
p390
sg17
g390
sg18
V50
p391
sbag1
(g2
g3
Ntp392
Rp393
(dp394
g7
V015
p395
sg9
VBeedrill
p396
sg11
g35
sg13
VHeadbutt
p397
sg15
V10
p398
sg17
g398
sg18
V5
p399
sbag1
(g2
g3
Ntp400
Rp401
(dp402
g7
V102
p403
sg9
VExeggcute
p404
sg11
VG,S,
p405
sg13
VHeadbutt
p406
sg15
V10
p407
sg17
g407
sg18
V15
p408
sbag1
(g2
g3
Ntp409
Rp410
(dp411
g7
V102
p412
sg9
VExeggcute
p413
sg11
g45
sg13
VHeadbutt
p414
sg15
V10
p415
sg17
g415
sg18
V20
p416
sbag1
(g2
g3
Ntp417
Rp418
(dp419
g7
V163
p420
sg9
VHoothoot
p421
sg11
g45
sg13
VHeadbutt
p422
sg15
V10
p423
sg17
g423
sg18
V50
p424
sbag1
(g2
g3
Ntp425
Rp426
(dp427
g7
V204
p428
sg9
VPineco
p429
sg11
VG,S,C,
p430
sg13
VHeadbutt
p431
sg15
V10
p432
sg17
g432
sg18
V30
p433
sbag1
(g2
g3
Ntp434
Rp435
(dp436
g7
V020
p437
sg9
VRaticate
p438
sg11
VHG,
p439
sg13
VGrass
p440
sg15
V30
p441
sg17
g441
sg18
V5
p442
sbag1
(g2
g3
Ntp443
Rp444
(dp445
g7
V020
p446
sg9
VRaticate
p447
sg11
g439
sg13
VGrass
p448
sg15
V28
p449
sg17
V30
p450
sg18
V35
p451
sbag1
(g2
g3
Ntp452
Rp453
(dp454
g7
V020
p455
sg9
VRaticate
p456
sg11
VSS,
p457
sg13
VGrass
p458
sg15
V28
p459
sg17
V30
p460
sg18
V35
p461
sbag1
(g2
g3
Ntp462
Rp463
(dp464
g7
V020
p465
sg9
VRaticate
p466
sg11
g457
sg13
VGrass
p467
sg15
V28
p468
sg17
g468
sg18
V65
p469
sbag1
(g2
g3
Ntp470
Rp471
(dp472
g7
V024
p473
sg9
VArbok
p474
sg11
g457
sg13
VGrass
p475
sg15
V30
p476
sg17
g476
sg18
V5
p477
sbag1
(g2
g3
Ntp478
Rp479
(dp480
g7
V028
p481
sg9
VSandslash
p482
sg11
g439
sg13
VGrass
p483
sg15
V28
p484
sg17
g484
sg18
V30
p485
sbag1
(g2
g3
Ntp486
Rp487
(dp488
g7
V077
p489
sg9
VPonyta
p490
sg11
VHG,SS,
p491
sg13
VGrass
p492
sg15
V32
p493
sg17
g493
sg18
V20
p494
sbag1
(g2
g3
Ntp495
Rp496
(dp497
g7
V084
p498
sg9
VDoduo
p499
sg11
VHG,SS,
p500
sg13
VGrass
p501
sg15
V28
p502
sg17
V30
p503
sg18
V40
p504
sbag1
(g2
g3
Ntp505
Rp506
(dp507
g7
V085
p508
sg9
VDodrio
p509
sg11
g439
sg13
VGrass
p510
sg15
V30
p511
sg17
g511
sg18
V5
p512
sbag1
(g2
g3
Ntp513
Rp514
(dp515
g7
V195
p516
sg9
VQuagsire
p517
sg11
g439
sg13
VGrass
p518
sg15
V30
p519
sg17
g519
sg18
V10
p520
sbag1
(g2
g3
Ntp521
Rp522
(dp523
g7
V195
p524
sg9
VQuagsire
p525
sg11
g457
sg13
VGrass
p526
sg15
V30
p527
sg17
g527
sg18
V5
p528
sbag1
(g2
g3
Ntp529
Rp530
(dp531
g7
V072
p532
sg9
VTentacool
p533
sg11
VHG,SS,
p534
sg13
VSurf
p535
sg15
V25
p536
sg17
V30
p537
sg18
V90
p538
sbag1
(g2
g3
Ntp539
Rp540
(dp541
g7
V073
p542
sg9
VTentacruel
p543
sg11
VHG,SS,
p544
sg13
VSurf
p545
sg15
V30
p546
sg17
g546
sg18
V10
p547
sbag1
(g2
g3
Ntp548
Rp549
(dp550
g7
V072
p551
sg9
VTentacool
p552
sg11
VHG,SS,
p553
sg13
VFish Old
p554
sg15
V10
p555
sg17
g555
sg18
V5
p556
sbag1
(g2
g3
Ntp557
Rp558
(dp559
g7
V129
p560
sg9
VMagikarp
p561
sg11
VHG,SS,
p562
sg13
VFish Old
p563
sg15
V10
p564
sg17
g564
sg18
V95
p565
sbag1
(g2
g3
Ntp566
Rp567
(dp568
g7
V072
p569
sg9
VTentacool
p570
sg11
VHG,SS,
p571
sg13
VFish Good
p572
sg15
V20
p573
sg17
g573
sg18
V30
p574
sbag1
(g2
g3
Ntp575
Rp576
(dp577
g7
V090
p578
sg9
VShellder
p579
sg11
VHG,SS,
p580
sg13
VFish Good
p581
sg15
V20
p582
sg17
g582
sg18
V3
p583
sbag1
(g2
g3
Ntp584
Rp585
(dp586
g7
V129
p587
sg9
VMagikarp
p588
sg11
VHG,SS,
p589
sg13
VFish Good
p590
sg15
V20
p591
sg17
g591
sg18
V60
p592
sbag1
(g2
g3
Ntp593
Rp594
(dp595
g7
V170
p596
sg9
VChinchou
p597
sg11
VHG,SS,
p598
sg13
VFish Good
p599
sg15
V20
p600
sg17
g600
sg18
V7
p601
sbag1
(g2
g3
Ntp602
Rp603
(dp604
g7
V073
p605
sg9
VTentacruel
p606
sg11
VHG,SS,
p607
sg13
VFish Super
p608
sg15
V40
p609
sg17
g609
sg18
V7
p610
sbag1
(g2
g3
Ntp611
Rp612
(dp613
g7
V090
p614
sg9
VShellder
p615
sg11
VHG,SS,
p616
sg13
VFish Super
p617
sg15
V40
p618
sg17
g618
sg18
V30
p619
sbag1
(g2
g3
Ntp620
Rp621
(dp622
g7
V170
p623
sg9
VChinchou
p624
sg11
VHG,SS,
p625
sg13
VFish Super
p626
sg15
V40
p627
sg17
g627
sg18
V60
p628
sbag1
(g2
g3
Ntp629
Rp630
(dp631
g7
V171
p632
sg9
VLanturn
p633
sg11
VHG,SS,
p634
sg13
VFish Super
p635
sg15
V40
p636
sg17
g636
sg18
V3
p637
sbag1
(g2
g3
Ntp638
Rp639
(dp640
g7
V102
p641
sg9
VExeggcute
p642
sg11
VHG,SS,
p643
sg13
VHeadbutt
p644
sg15
V28
p645
sg17
V32
p646
sg18
V20
p647
sbag1
(g2
g3
Ntp648
Rp649
(dp650
g7
V163
p651
sg9
VHoothoot
p652
sg11
VHG,SS,
p653
sg13
VHeadbutt
p654
sg15
V28
p655
sg17
V32
p656
sg18
V50
p657
sbag1
(g2
g3
Ntp658
Rp659
(dp660
g7
V165
p661
sg9
VLedyba
p662
sg11
g457
sg13
VHeadbutt
p663
sg15
V31
p664
sg17
V32
p665
sg18
V30
p666
sbag1
(g2
g3
Ntp667
Rp668
(dp669
g7
V167
p670
sg9
VSpinarak
p671
sg11
g439
sg13
VHeadbutt
p672
sg15
V31
p673
sg17
V32
p674
sg18
V30
p675
sbag1
(g2
g3
Ntp676
Rp677
(dp678
g7
V204
p679
sg9
VPineco
p680
sg11
VHG,SS,
p681
sg13
VHeadbutt
p682
sg15
V28
p683
sg17
V29
p684
sg18
V30
p685
sbag1
(g2
g3
Ntp686
Rp687
(dp688
g7
V264
p689
sg9
VLinoone
p690
sg11
VHG,SS,
p691
sg13
VHoenn
p692
sg15
V32
p693
sg17
g693
sg18
V20
p694
sbag1
(g2
g3
Ntp695
Rp696
(dp697
g7
V293
p698
sg9
VWhismur
p699
sg11
VHG,SS,
p700
sg13
VHoenn
p701
sg15
V28
p702
sg17
g702
sg18
V20
p703
sbag1
(g2
g3
Ntp704
Rp705
(dp706
g7
V399
p707
sg9
VBidoof
p708
sg11
VHG,SS,
p709
sg13
VSinnoh
p710
sg15
V32
p711
sg17
g711
sg18
V20
p712
sbag1
(g2
g3
Ntp713
Rp714
(dp715
g7
V418
p716
sg9
VBuizel
p717
sg11
VHG,SS,
p718
sg13
VSinnoh
p719
sg15
V28
p720
sg17
g720
sg18
V20
p721
sba.