(lp0
ccopy_reg
_reconstructor
p1
(c__main__
WildPokemon
p2
c__builtin__
object
p3
Ntp4
Rp5
(dp6
VpDexNo
p7
V016
p8
sVpSpecies
p9
VPidgey
p10
sVpGames
p11
VR,B,
p12
sVpArea
p13
VGrass
p14
sVpMinLevel
p15
V2
p16
sVpMaxLevel
p17
V5
p18
sVpRate
p19
V50
p20
sbag1
(g2
g3
Ntp21
Rp22
(dp23
g7
V016
p24
sg9
VPidgey
p25
sg11
VY,
p26
sg13
VGrass
p27
sg15
g16
sg17
V7
p28
sg19
V70
p29
sbag1
(g2
g3
Ntp30
Rp31
(dp32
g7
V019
p33
sg9
VRattata
p34
sg11
VR,B,
p35
sg13
VGrass
p36
sg15
g16
sg17
V4
p37
sg19
V50
p38
sbag1
(g2
g3
Ntp39
Rp40
(dp41
g7
V019
p42
sg9
VRattata
p43
sg11
g26
sg13
VGrass
p44
sg15
g16
sg17
g37
sg19
V30
p45
sbag1
(g2
g3
Ntp46
Rp47
(dp48
g7
V025
p49
sg9
VPikachu
p50
sg11
g26
sg13
VSpecial
p51
sg15
g18
sg17
g18
sg19
V0
p52
sbag1
(g2
g3
Ntp53
Rp54
(dp55
g7
V016
p56
sg9
VPidgey
p57
sg11
VG,S,C,
p58
sg13
VGrass
p59
sg15
g16
sg17
g37
sg19
V45
p60
sbag1
(g2
g3
Ntp61
Rp62
(dp63
g7
V019
p64
sg9
VRattata
p65
sg11
VG,S,C,
p66
sg13
VGrass
p67
sg15
g16
sg17
g16
sg19
V30
p68
sbag1
(g2
g3
Ntp69
Rp70
(dp71
g7
V019
p72
sg9
VRattata
p73
sg11
VG,S,
p74
sg13
VGrass
p75
sg15
g16
sg17
V6
p76
sg19
V55
p77
sbag1
(g2
g3
Ntp78
Rp79
(dp80
g7
V019
p81
sg9
VRattata
p82
sg11
VC,
p83
sg13
VGrass
p84
sg15
g16
sg17
V3
p85
sg19
V50
p86
sbag1
(g2
g3
Ntp87
Rp88
(dp89
g7
V020
p90
sg9
VRaticate
p91
sg11
g83
sg13
VGrass
p92
sg15
g76
sg17
g76
sg19
V5
p93
sbag1
(g2
g3
Ntp94
Rp95
(dp96
g7
V161
p97
sg9
VSentret
p98
sg11
VG,S,C,
p99
sg13
VGrass
p100
sg15
g85
sg17
g85
sg19
V20
p101
sbag1
(g2
g3
Ntp102
Rp103
(dp104
g7
V162
p105
sg9
VFurret
p106
sg11
VG,S,C,
p107
sg13
VGrass
p108
sg15
g76
sg17
g76
sg19
V5
p109
sbag1
(g2
g3
Ntp110
Rp111
(dp112
g7
V163
p113
sg9
VHoothoot
p114
sg11
VG,S,C,
p115
sg13
VGrass
p116
sg15
g16
sg17
g37
sg19
V45
p117
sbag1
(g2
g3
Ntp118
Rp119
(dp120
g7
V016
p121
sg9
VPidgey
p122
sg11
VFR,LG,
p123
sg13
VGrass
p124
sg15
g16
sg17
g18
sg19
V50
p125
sbag1
(g2
g3
Ntp126
Rp127
(dp128
g7
V019
p129
sg9
VRattata
p130
sg11
VFR,LG,
p131
sg13
VGrass
p132
sg15
g16
sg17
g37
sg19
V50
p133
sbag1
(g2
g3
Ntp134
Rp135
(dp136
g7
V016
p137
sg9
VPidgey
p138
sg11
VHG,SS,
p139
sg13
VGrass
p140
sg15
g16
sg17
g37
sg19
V45
p141
sbag1
(g2
g3
Ntp142
Rp143
(dp144
g7
V019
p145
sg9
VRattata
p146
sg11
VHG,SS,
p147
sg13
VGrass
p148
sg15
g16
sg17
g16
sg19
V30
p149
sbag1
(g2
g3
Ntp150
Rp151
(dp152
g7
V019
p153
sg9
VRattata
p154
sg11
VHG,SS,
p155
sg13
VGrass
p156
sg15
g16
sg17
g76
sg19
V55
p157
sbag1
(g2
g3
Ntp158
Rp159
(dp160
g7
V161
p161
sg9
VSentret
p162
sg11
VHG,SS,
p163
sg13
VGrass
p164
sg15
g85
sg17
g85
sg19
V20
p165
sbag1
(g2
g3
Ntp166
Rp167
(dp168
g7
V162
p169
sg9
VFurret
p170
sg11
VHG,SS,
p171
sg13
VGrass
p172
sg15
g76
sg17
g76
sg19
V5
p173
sbag1
(g2
g3
Ntp174
Rp175
(dp176
g7
V163
p177
sg9
VHoothoot
p178
sg11
VHG,SS,
p179
sg13
VGrass
p180
sg15
g16
sg17
g37
sg19
V45
p181
sbag1
(g2
g3
Ntp182
Rp183
(dp184
g7
V163
p185
sg9
VHoothoot
p186
sg11
VHG,SS,
p187
sg13
VHeadbutt
p188
sg15
g16
sg17
g85
sg19
V50
p189
sbag1
(g2
g3
Ntp190
Rp191
(dp192
g7
V163
p193
sg9
VHoothoot
p194
sg11
VHG,SS,
p195
sg13
VHeadbutt
p196
sg15
g18
sg17
g76
sg19
V80
p197
sbag1
(g2
g3
Ntp198
Rp199
(dp200
g7
V167
p201
sg9
VSpinarak
p202
sg11
VHG,
p203
sg13
VHeadbutt
p204
sg15
g18
sg17
g76
sg19
V30
p205
sbag1
(g2
g3
Ntp206
Rp207
(dp208
g7
V165
p209
sg9
VLedyba
p210
sg11
VSS,
p211
sg13
VHeadbutt
p212
sg15
g18
sg17
g76
sg19
V30
p213
sbag1
(g2
g3
Ntp214
Rp215
(dp216
g7
V204
p217
sg9
VPineco
p218
sg11
VHG,SS,
p219
sg13
VHeadbutt
p220
sg15
g16
sg17
g85
sg19
V30
p221
sbag1
(g2
g3
Ntp222
Rp223
(dp224
g7
V265
p225
sg9
VWurmple
p226
sg11
VHG,SS,
p227
sg13
VHeadbutt
p228
sg15
g18
sg17
g76
sg19
V20
p229
sbag1
(g2
g3
Ntp230
Rp231
(dp232
g7
V261
p233
sg9
VPoochyena
p234
sg11
VHG,SS,
p235
sg13
VSwarm
p236
sg15
g16
sg17
g16
sg19
V40
p237
sbag1
(g2
g3
Ntp238
Rp239
(dp240
g7
V311
p241
sg9
VPlusle
p242
sg11
VHG,SS,
p243
sg13
VHoenn
p244
sg15
g16
sg17
g16
sg19
V20
p245
sbag1
(g2
g3
Ntp246
Rp247
(dp248
g7
V312
p249
sg9
VMinun
p250
sg11
VHG,SS,
p251
sg13
VHoenn
p252
sg15
g85
sg17
g85
sg19
V20
p253
sbag1
(g2
g3
Ntp254
Rp255
(dp256
g7
V403
p257
sg9
VShinx
p258
sg11
VHG,SS,
p259
sg13
VSinnoh
p260
sg15
g16
sg17
g85
sg19
V40
p261
sbag1
(g2
g3
Ntp262
Rp263
(dp264
g7
V016
p265
sg9
VPidgey
p266
sg11
VPi,Ev,
p267
sg13
VGrass
p268
sg15
g85
sg17
g37
sg19
V40
p269
sbag1
(g2
g3
Ntp270
Rp271
(dp272
g7
V019
p273
sg9
VRattata
p274
sg11
VPi,Ev,
p275
sg13
VGrass
p276
sg15
g85
sg17
g37
sg19
V30
p277
sbag1
(g2
g3
Ntp278
Rp279
(dp280
g7
V043
p281
sg9
VOddish
p282
sg11
VPi,
p283
sg13
VGrass
p284
sg15
g85
sg17
g37
sg19
V30
p285
sbag1
(g2
g3
Ntp286
Rp287
(dp288
g7
V069
p289
sg9
VBellsprout
p290
sg11
VEv,
p291
sg13
VGrass
p292
sg15
g85
sg17
g37
sg19
V30
p293
sbag1
(g2
g3
Ntp294
Rp295
(dp296
g7
V016
p297
sg9
VPidgey
p298
sg11
VPi,Ev,
p299
sg13
VSky
p300
sg15
g85
sg17
V56
p301
sg19
V60
p302
sbag1
(g2
g3
Ntp303
Rp304
(dp305
g7
V017
p306
sg9
VPidgeotto
p307
sg11
VPi,Ev,
p308
sg13
VSky
p309
sg15
g85
sg17
V56
p310
sg19
V35
p311
sbag1
(g2
g3
Ntp312
Rp313
(dp314
g7
V018
p315
sg9
VPidgeot
p316
sg11
VPi,Ev,
p317
sg13
VSky
p318
sg15
g85
sg17
V56
p319
sg19
V5
p320
sbag1
(g2
g3
Ntp321
Rp322
(dp323
g7
V006
p324
sg9
VCharizard
p325
sg11
VPi,Ev,
p326
sg13
VSky
p327
sg15
g85
sg17
V56
p328
sg19
V0
p329
sbag1
(g2
g3
Ntp330
Rp331
(dp332
g7
V144
p333
sg9
VArticuno
p334
sg11
VPi,Ev,
p335
sg13
VSky
p336
sg15
g85
sg17
V56
p337
sg19
V0
p338
sbag1
(g2
g3
Ntp339
Rp340
(dp341
g7
V145
p342
sg9
VZapdos
p343
sg11
VPi,Ev,
p344
sg13
VSky
p345
sg15
g85
sg17
V56
p346
sg19
V0
p347
sbag1
(g2
g3
Ntp348
Rp349
(dp350
g7
V146
p351
sg9
VMoltres
p352
sg11
VPi,Ev,
p353
sg13
VSky
p354
sg15
g85
sg17
V56
p355
sg19
V0
p356
sbag1
(g2
g3
Ntp357
Rp358
(dp359
g7
V149
p360
sg9
VDragonite
p361
sg11
VPi,Ev,
p362
sg13
VSky
p363
sg15
g85
sg17
V56
p364
sg19
V0
p365
sba.