(lp0
ccopy_reg
_reconstructor
p1
(c__main__
WildPokemon
p2
c__builtin__
object
p3
Ntp4
Rp5
(dp6
VpDexNo
p7
V016
p8
sVpSpecies
p9
VPidgey
p10
sVpGames
p11
VR,B,
p12
sVpArea
p13
VGrass
p14
sVpMinLevel
p15
V19
p16
sVpMaxLevel
p17
V22
p18
sVpRate
p19
V30
p20
sbag1
(g2
g3
Ntp21
Rp22
(dp23
g7
V016
p24
sg9
VPidgey
p25
sg11
VY,
p26
sg13
VGrass
p27
sg15
V20
p28
sg17
V22
p29
sg19
V40
p30
sbag1
(g2
g3
Ntp31
Rp32
(dp33
g7
V017
p34
sg9
VPidgeotto
p35
sg11
g26
sg13
VGrass
p36
sg15
V24
p37
sg17
g37
sg19
V10
p38
sbag1
(g2
g3
Ntp39
Rp40
(dp41
g7
V019
p42
sg9
VRattata
p43
sg11
g26
sg13
VGrass
p44
sg15
V20
p45
sg17
g45
sg19
V15
p46
sbag1
(g2
g3
Ntp47
Rp48
(dp49
g7
V037
p50
sg9
VVulpix
p51
sg11
VB,
p52
sg13
VGrass
p53
sg15
V18
p54
sg17
V20
p55
sg19
V10
p56
sbag1
(g2
g3
Ntp57
Rp58
(dp59
g7
V039
p60
sg9
VJigglypuff
p61
sg11
g26
sg13
VGrass
p62
sg15
V19
p63
sg17
V24
p64
sg19
V10
p65
sbag1
(g2
g3
Ntp66
Rp67
(dp68
g7
V043
p69
sg9
VOddish
p70
sg11
VR,
p71
sg13
VGrass
p72
sg15
V19
p73
sg17
V22
p74
sg19
V30
p75
sbag1
(g2
g3
Ntp76
Rp77
(dp78
g7
V052
p79
sg9
VMeowth
p80
sg11
g52
sg13
VGrass
p81
sg15
V17
p82
sg17
V20
p83
sg19
V30
p84
sbag1
(g2
g3
Ntp85
Rp86
(dp87
g7
V056
p88
sg9
VMankey
p89
sg11
g71
sg13
VGrass
p90
sg15
V17
p91
sg17
V20
p92
sg19
V30
p93
sbag1
(g2
g3
Ntp94
Rp95
(dp96
g7
V058
p97
sg9
VGrowlithe
p98
sg11
g71
sg13
VGrass
p99
sg15
V18
p100
sg17
V20
p101
sg19
V10
p102
sbag1
(g2
g3
Ntp103
Rp104
(dp105
g7
V063
p106
sg9
VAbra
p107
sg11
g26
sg13
VGrass
p108
sg15
V15
p109
sg17
V26
p110
sg19
V25
p111
sbag1
(g2
g3
Ntp112
Rp113
(dp114
g7
V069
p115
sg9
VBellsprout
p116
sg11
g52
sg13
VGrass
p117
sg15
V19
p118
sg17
V22
p119
sg19
V30
p120
sbag1
(g2
g3
Ntp121
Rp122
(dp123
g7
V019
p124
sg9
VRattata
p125
sg11
VG,
p126
sg13
VGrass
p127
sg15
V15
p128
sg17
V19
p129
sg19
V40
p130
sbag1
(g2
g3
Ntp131
Rp132
(dp133
g7
V019
p134
sg9
VRattata
p135
sg11
g126
sg13
VGrass
p136
sg15
V17
p137
sg17
g137
sg19
V30
p138
sbag1
(g2
g3
Ntp139
Rp140
(dp141
g7
V019
p142
sg9
VRattata
p143
sg11
VS,
p144
sg13
VGrass
p145
sg15
V15
p146
sg17
g146
sg19
V5
p147
sbag1
(g2
g3
Ntp148
Rp149
(dp150
g7
V019
p151
sg9
VRattata
p152
sg11
VC,
p153
sg13
VGrass
p154
sg15
V17
p155
sg17
g155
sg19
V30
p156
sbag1
(g2
g3
Ntp157
Rp158
(dp159
g7
V020
p160
sg9
VRaticate
p161
sg11
VG,S,
p162
sg13
VGrass
p163
sg15
V19
p164
sg17
g164
sg19
V10
p165
sbag1
(g2
g3
Ntp166
Rp167
(dp168
g7
V020
p169
sg9
VRaticate
p170
sg11
g153
sg13
VGrass
p171
sg15
V18
p172
sg17
g172
sg19
V10
p173
sbag1
(g2
g3
Ntp174
Rp175
(dp176
g7
V021
p177
sg9
VSpearow
p178
sg11
VG,S,C,
p179
sg13
VGrass
p180
sg15
V17
p181
sg17
g181
sg19
V30
p182
sbag1
(g2
g3
Ntp183
Rp184
(dp185
g7
V037
p186
sg9
VVulpix
p187
sg11
g144
sg13
VGrass
p188
sg15
V18
p189
sg17
g189
sg19
V25
p190
sbag1
(g2
g3
Ntp191
Rp192
(dp193
g7
V039
p194
sg9
VJigglypuff
p195
sg11
g153
sg13
VGrass
p196
sg15
V18
p197
sg17
g197
sg19
V5
p198
sbag1
(g2
g3
Ntp199
Rp200
(dp201
g7
V052
p202
sg9
VMeowth
p203
sg11
g144
sg13
VGrass
p204
sg15
V17
p205
sg17
g205
sg19
V30
p206
sbag1
(g2
g3
Ntp207
Rp208
(dp209
g7
V052
p210
sg9
VMeowth
p211
sg11
g153
sg13
VGrass
p212
sg15
V17
p213
sg17
g213
sg19
V30
p214
sbag1
(g2
g3
Ntp215
Rp216
(dp217
g7
V053
p218
sg9
VPersian
p219
sg11
g144
sg13
VGrass
p220
sg15
V19
p221
sg17
g221
sg19
V5
p222
sbag1
(g2
g3
Ntp223
Rp224
(dp225
g7
V053
p226
sg9
VPersian
p227
sg11
g153
sg13
VGrass
p228
sg15
V18
p229
sg17
g229
sg19
V10
p230
sbag1
(g2
g3
Ntp231
Rp232
(dp233
g7
V058
p234
sg9
VGrowlithe
p235
sg11
g126
sg13
VGrass
p236
sg15
V18
p237
sg17
g237
sg19
V25
p238
sbag1
(g2
g3
Ntp239
Rp240
(dp241
g7
V063
p242
sg9
VAbra
p243
sg11
g153
sg13
VGrass
p244
sg15
V16
p245
sg17
g245
sg19
V5
p246
sbag1
(g2
g3
Ntp247
Rp248
(dp249
g7
V198
p250
sg9
VMurkrow
p251
sg11
g126
sg13
VGrass
p252
sg15
V17
p253
sg17
V19
p254
sg19
V35
p255
sbag1
(g2
g3
Ntp256
Rp257
(dp258
g7
V198
p259
sg9
VMurkrow
p260
sg11
VS,C,
p261
sg13
VGrass
p262
sg15
V17
p263
sg17
g263
sg19
V30
p264
sbag1
(g2
g3
Ntp265
Rp266
(dp267
g7
V209
p268
sg9
VSnubbull
p269
sg11
g153
sg13
VGrass
p270
sg15
V18
p271
sg17
g271
sg19
V20
p272
sbag1
(g2
g3
Ntp273
Rp274
(dp275
g7
V228
p276
sg9
VHoundour
p277
sg11
VG,S,
p278
sg13
VGrass
p279
sg15
V15
p280
sg17
g280
sg19
V5
p281
sbag1
(g2
g3
Ntp282
Rp283
(dp284
g7
V228
p285
sg9
VHoundour
p286
sg11
g153
sg13
VGrass
p287
sg15
V18
p288
sg17
g288
sg19
V20
p289
sbag1
(g2
g3
Ntp290
Rp291
(dp292
g7
V052
p293
sg9
VMeowth
p294
sg11
VFR,LG,
p295
sg13
VGrass
p296
sg15
V17
p297
sg17
V20
p298
sg19
V40
p299
sbag1
(g2
g3
Ntp300
Rp301
(dp302
g7
V016
p303
sg9
VPidgey
p304
sg11
VFR,LG,
p305
sg13
VGrass
p306
sg15
V19
p307
sg17
V22
p308
sg19
V30
p309
sbag1
(g2
g3
Ntp310
Rp311
(dp312
g7
V043
p313
sg9
VOddish
p314
sg11
VFR,
p315
sg13
VGrass
p316
sg15
V19
p317
sg17
V22
p318
sg19
V20
p319
sbag1
(g2
g3
Ntp320
Rp321
(dp322
g7
V069
p323
sg9
VBellsprout
p324
sg11
VLG,
p325
sg13
VGrass
p326
sg15
V19
p327
sg17
V22
p328
sg19
V20
p329
sbag1
(g2
g3
Ntp330
Rp331
(dp332
g7
V058
p333
sg9
VGrowlithe
p334
sg11
g315
sg13
VGrass
p335
sg15
V18
p336
sg17
V20
p337
sg19
V10
p338
sbag1
(g2
g3
Ntp339
Rp340
(dp341
g7
V037
p342
sg9
VVulpix
p343
sg11
g325
sg13
VGrass
p344
sg15
V18
p345
sg17
V20
p346
sg19
V10
p347
sbag1
(g2
g3
Ntp348
Rp349
(dp350
g7
V019
p351
sg9
VRattata
p352
sg11
VHG,
p353
sg13
VGrass
p354
sg15
V17
p355
sg17
g355
sg19
V30
p356
sbag1
(g2
g3
Ntp357
Rp358
(dp359
g7
V019
p360
sg9
VRattata
p361
sg11
g353
sg13
VGrass
p362
sg15
V15
p363
sg17
V19
p364
sg19
V10
p365
sbag1
(g2
g3
Ntp366
Rp367
(dp368
g7
V019
p369
sg9
VRattata
p370
sg11
g353
sg13
VGrass
p371
sg15
V19
p372
sg17
g372
sg19
V5
p373
sbag1
(g2
g3
Ntp374
Rp375
(dp376
g7
V019
p377
sg9
VRattata
p378
sg11
VSS,
p379
sg13
VGrass
p380
sg15
V15
p381
sg17
g381
sg19
V5
p382
sbag1
(g2
g3
Ntp383
Rp384
(dp385
g7
V020
p386
sg9
VRaticate
p387
sg11
VHG,SS,
p388
sg13
VGrass
p389
sg15
V19
p390
sg17
g390
sg19
V10
p391
sbag1
(g2
g3
Ntp392
Rp393
(dp394
g7
V021
p395
sg9
VSpearow
p396
sg11
VHG,SS,
p397
sg13
VGrass
p398
sg15
V17
p399
sg17
g399
sg19
V30
p400
sbag1
(g2
g3
Ntp401
Rp402
(dp403
g7
V037
p404
sg9
VVulpix
p405
sg11
g379
sg13
VGrass
p406
sg15
V18
p407
sg17
g407
sg19
V20
p408
sbag1
(g2
g3
Ntp409
Rp410
(dp411
g7
V037
p412
sg9
VVulpix
p413
sg11
g379
sg13
VGrass
p414
sg15
V15
p415
sg17
g415
sg19
V5
p416
sbag1
(g2
g3
Ntp417
Rp418
(dp419
g7
V052
p420
sg9
VMeowth
p421
sg11
g379
sg13
VGrass
p422
sg15
V17
p423
sg17
g423
sg19
V30
p424
sbag1
(g2
g3
Ntp425
Rp426
(dp427
g7
V053
p428
sg9
VPersian
p429
sg11
g379
sg13
VGrass
p430
sg15
V19
p431
sg17
g431
sg19
V5
p432
sbag1
(g2
g3
Ntp433
Rp434
(dp435
g7
V058
p436
sg9
VGrowlithe
p437
sg11
g353
sg13
VGrass
p438
sg15
V18
p439
sg17
g439
sg19
V20
p440
sbag1
(g2
g3
Ntp441
Rp442
(dp443
g7
V058
p444
sg9
VGrowlithe
p445
sg11
g353
sg13
VGrass
p446
sg15
V15
p447
sg17
g447
sg19
V5
p448
sbag1
(g2
g3
Ntp449
Rp450
(dp451
g7
V198
p452
sg9
VMurkrow
p453
sg11
VHG,SS,
p454
sg13
VGrass
p455
sg15
V17
p456
sg17
g456
sg19
V10
p457
sbag1
(g2
g3
Ntp458
Rp459
(dp460
g7
V198
p461
sg9
VMurkrow
p462
sg11
g353
sg13
VGrass
p463
sg15
V17
p464
sg17
V19
p465
sg19
V25
p466
sbag1
(g2
g3
Ntp467
Rp468
(dp469
g7
V198
p470
sg9
VMurkrow
p471
sg11
g379
sg13
VGrass
p472
sg15
V17
p473
sg17
g473
sg19
V20
p474
sbag1
(g2
g3
Ntp475
Rp476
(dp477
g7
V228
p478
sg9
VHoundour
p479
sg11
VHG,SS,
p480
sg13
VGrass
p481
sg15
V15
p482
sg17
g482
sg19
V5
p483
sbag1
(g2
g3
Ntp484
Rp485
(dp486
g7
V021
p487
sg9
VSpearow
p488
sg11
VHG,SS,
p489
sg13
VHeadbutt
p490
sg15
V15
p491
sg17
V20
p492
sg19
V50
p493
sbag1
(g2
g3
Ntp494
Rp495
(dp496
g7
V214
p497
sg9
VHeracross
p498
sg11
VHG,SS,
p499
sg13
VHeadbutt
p500
sg15
V17
p501
sg17
V20
p502
sg19
V30
p503
sbag1
(g2
g3
Ntp504
Rp505
(dp506
g7
V415
p507
sg9
VCombee
p508
sg11
VHG,SS,
p509
sg13
VHeadbutt
p510
sg15
V17
p511
sg17
V20
p512
sg19
V20
p513
sbag1
(g2
g3
Ntp514
Rp515
(dp516
g7
V311
p517
sg9
VPlusle
p518
sg11
VHG,SS,
p519
sg13
VHoenn
p520
sg15
V17
p521
sg17
g521
sg19
V20
p522
sbag1
(g2
g3
Ntp523
Rp524
(dp525
g7
V312
p526
sg9
VMinun
p527
sg11
VHG,SS,
p528
sg13
VHoenn
p529
sg15
V18
p530
sg17
g530
sg19
V20
p531
sbag1
(g2
g3
Ntp532
Rp533
(dp534
g7
V403
p535
sg9
VShinx
p536
sg11
VHG,SS,
p537
sg13
VSinnoh
p538
sg15
V17
p539
sg17
V18
p540
sg19
V40
p541
sbag1
(g2
g3
Ntp542
Rp543
(dp544
g7
V016
p545
sg9
VPidgey
p546
sg11
VPi,Ev,
p547
sg13
VGrass
p548
sg15
V22
p549
sg17
V27
p550
sg19
V15
p551
sbag1
(g2
g3
Ntp552
Rp553
(dp554
g7
V017
p555
sg9
VPidgeotto
p556
sg11
VPi,Ev,
p557
sg13
VGrass
p558
sg15
V22
p559
sg17
V27
p560
sg19
V15
p561
sbag1
(g2
g3
Ntp562
Rp563
(dp564
g7
V019
p565
sg9
VRattata
p566
sg11
VPi,Ev,
p567
sg13
VGrass
p568
sg15
V22
p569
sg17
V27
p570
sg19
V15
p571
sbag1
(g2
g3
Ntp572
Rp573
(dp574
g7
V020
p575
sg9
VRaticate
p576
sg11
VPi,Ev,
p577
sg13
VGrass
p578
sg15
V22
p579
sg17
V27
p580
sg19
V15
p581
sbag1
(g2
g3
Ntp582
Rp583
(dp584
g7
V037
p585
sg9
VVulpix
p586
sg11
VEv,
p587
sg13
VGrass
p588
sg15
V22
p589
sg17
V27
p590
sg19
V19
p591
sbag1
(g2
g3
Ntp592
Rp593
(dp594
g7
V038
p595
sg9
VNinetales
p596
sg11
g587
sg13
VGrass
p597
sg15
V22
p598
sg17
V27
p599
sg19
V1
p600
sbag1
(g2
g3
Ntp601
Rp602
(dp603
g7
V039
p604
sg9
VJigglypuff
p605
sg11
VPi,Ev,
p606
sg13
VGrass
p607
sg15
V22
p608
sg17
V27
p609
sg19
V15
p610
sbag1
(g2
g3
Ntp611
Rp612
(dp613
g7
V058
p614
sg9
VGrowlithe
p615
sg11
VPi,
p616
sg13
VGrass
p617
sg15
V22
p618
sg17
V27
p619
sg19
V19
p620
sbag1
(g2
g3
Ntp621
Rp622
(dp623
g7
V059
p624
sg9
VArcanine
p625
sg11
g616
sg13
VGrass
p626
sg15
V22
p627
sg17
V27
p628
sg19
V1
p629
sbag1
(g2
g3
Ntp630
Rp631
(dp632
g7
V063
p633
sg9
VAbra
p634
sg11
VPi,Ev,
p635
sg13
VGrass
p636
sg15
V22
p637
sg17
V27
p638
sg19
V4
p639
sbag1
(g2
g3
Ntp640
Rp641
(dp642
g7
V064
p643
sg9
VKadabra
p644
sg11
VPi,Ev,
p645
sg13
VGrass
p646
sg15
V22
p647
sg17
V27
p648
sg19
V1
p649
sbag1
(g2
g3
Ntp650
Rp651
(dp652
g7
V137
p653
sg9
VPorygon
p654
sg11
VPi,Ev,
p655
sg13
VGrass
p656
sg15
V22
p657
sg17
V27
p658
sg19
V0
p659
sbag1
(g2
g3
Ntp660
Rp661
(dp662
g7
V016
p663
sg9
VPidgey
p664
sg11
VPi,Ev,
p665
sg13
VSky
p666
sg15
V3
p667
sg17
V56
p668
sg19
V60
p669
sbag1
(g2
g3
Ntp670
Rp671
(dp672
g7
V017
p673
sg9
VPidgeotto
p674
sg11
VPi,Ev,
p675
sg13
VSky
p676
sg15
g667
sg17
V56
p677
sg19
V35
p678
sbag1
(g2
g3
Ntp679
Rp680
(dp681
g7
V018
p682
sg9
VPidgeot
p683
sg11
VPi,Ev,
p684
sg13
VSky
p685
sg15
g667
sg17
V56
p686
sg19
V5
p687
sbag1
(g2
g3
Ntp688
Rp689
(dp690
g7
V006
p691
sg9
VCharizard
p692
sg11
VPi,Ev,
p693
sg13
VSky
p694
sg15
g667
sg17
V56
p695
sg19
V0
p696
sbag1
(g2
g3
Ntp697
Rp698
(dp699
g7
V144
p700
sg9
VArticuno
p701
sg11
VPi,Ev,
p702
sg13
VSky
p703
sg15
g667
sg17
V56
p704
sg19
V0
p705
sbag1
(g2
g3
Ntp706
Rp707
(dp708
g7
V145
p709
sg9
VZapdos
p710
sg11
VPi,Ev,
p711
sg13
VSky
p712
sg15
g667
sg17
V56
p713
sg19
V0
p714
sbag1
(g2
g3
Ntp715
Rp716
(dp717
g7
V146
p718
sg9
VMoltres
p719
sg11
VPi,Ev,
p720
sg13
VSky
p721
sg15
g667
sg17
V56
p722
sg19
V0
p723
sbag1
(g2
g3
Ntp724
Rp725
(dp726
g7
V149
p727
sg9
VDragonite
p728
sg11
VPi,Ev,
p729
sg13
VSky
p730
sg15
g667
sg17
V56
p731
sg19
V0
p732
sba.