(lp0
ccopy_reg
_reconstructor
p1
(c__main__
WildPokemon
p2
c__builtin__
object
p3
Ntp4
Rp5
(dp6
VpDexNo
p7
V019
p8
sVpSpecies
p9
VRattata
p10
sVpGames
p11
VR,B,
p12
sVpArea
p13
VGrass
p14
sVpMinLevel
p15
V18
p16
sVpMaxLevel
p17
V22
p18
sVpRate
p19
V30
p20
sbag1
(g2
g3
Ntp21
Rp22
(dp23
g7
V019
p24
sg9
VRattata
p25
sg11
VY,
p26
sg13
VGrass
p27
sg15
V23
p28
sg17
V24
p29
sg19
V25
p30
sbag1
(g2
g3
Ntp31
Rp32
(dp33
g7
V020
p34
sg9
VRaticate
p35
sg11
VR,B,
p36
sg13
VGrass
p37
sg15
V23
p38
sg17
V25
p39
sg19
V5
p40
sbag1
(g2
g3
Ntp41
Rp42
(dp43
g7
V020
p44
sg9
VRaticate
p45
sg11
g26
sg13
VGrass
p46
sg15
V25
p47
sg17
V26
p48
sg19
V5
p49
sbag1
(g2
g3
Ntp50
Rp51
(dp52
g7
V021
p53
sg9
VSpearow
p54
sg11
VR,B,
p55
sg13
VGrass
p56
sg15
V20
p57
sg17
V22
p58
sg19
V40
p59
sbag1
(g2
g3
Ntp60
Rp61
(dp62
g7
V021
p63
sg9
VSpearow
p64
sg11
g26
sg13
VGrass
p65
sg15
V22
p66
sg17
V23
p67
sg19
V30
p68
sbag1
(g2
g3
Ntp69
Rp70
(dp71
g7
V022
p72
sg9
VFearow
p73
sg11
g26
sg13
VGrass
p74
sg15
V24
p75
sg17
g75
sg19
V5
p76
sbag1
(g2
g3
Ntp77
Rp78
(dp79
g7
V084
p80
sg9
VDoduo
p81
sg11
VR,B,
p82
sg13
VGrass
p83
sg15
V18
p84
sg17
V22
p85
sg19
V25
p86
sbag1
(g2
g3
Ntp87
Rp88
(dp89
g7
V084
p90
sg9
VDoduo
p91
sg11
g26
sg13
VGrass
p92
sg15
V22
p93
sg17
V26
p94
sg19
V35
p95
sbag1
(g2
g3
Ntp96
Rp97
(dp98
g7
V143
p99
sg9
VSnorlax
p100
sg11
VR,B,Y,
p101
sg13
VSpecial
p102
sg15
V30
p103
sg17
g103
sg19
V0
p104
sbag1
(g2
g3
Ntp105
Rp106
(dp107
g7
V022
p108
sg9
VFearow
p109
sg11
VG,S,
p110
sg13
VGrass
p111
sg15
V27
p112
sg17
V29
p113
sg19
V40
p114
sbag1
(g2
g3
Ntp115
Rp116
(dp117
g7
V022
p118
sg9
VFearow
p119
sg11
VC,
p120
sg13
VGrass
p121
sg15
V27
p122
sg17
V30
p123
sg19
V45
p124
sbag1
(g2
g3
Ntp125
Rp126
(dp127
g7
V088
p128
sg9
VGrimer
p129
sg11
VG,S,C,
p130
sg13
VGrass
p131
sg15
V26
p132
sg17
V28
p133
sg19
V80
p134
sbag1
(g2
g3
Ntp135
Rp136
(dp137
g7
V089
p138
sg9
VMuk
p139
sg11
VG,S,C,
p140
sg13
VGrass
p141
sg15
V30
p142
sg17
V33
p143
sg19
V5
p144
sbag1
(g2
g3
Ntp145
Rp146
(dp147
g7
V198
p148
sg9
VMurkrow
p149
sg11
VG,S,
p150
sg13
VGrass
p151
sg15
V28
p152
sg17
g152
sg19
V10
p153
sbag1
(g2
g3
Ntp154
Rp155
(dp156
g7
V198
p157
sg9
VMurkrow
p158
sg11
g120
sg13
VGrass
p159
sg15
V29
p160
sg17
g160
sg19
V15
p161
sbag1
(g2
g3
Ntp162
Rp163
(dp164
g7
V218
p165
sg9
VSlugma
p166
sg11
VG,S,
p167
sg13
VGrass
p168
sg15
V27
p169
sg17
g169
sg19
V5
p170
sbag1
(g2
g3
Ntp171
Rp172
(dp173
g7
V218
p174
sg9
VSlugma
p175
sg11
g120
sg13
VGrass
p176
sg15
V27
p177
sg17
V32
p178
sg19
V5
p179
sbag1
(g2
g3
Ntp180
Rp181
(dp182
g7
V084
p183
sg9
VDoduo
p184
sg11
VFR,LG,
p185
sg13
VGrass
p186
sg15
V18
p187
sg17
V22
p188
sg19
V35
p189
sbag1
(g2
g3
Ntp190
Rp191
(dp192
g7
V019
p193
sg9
VRattata
p194
sg11
VFR,LG,
p195
sg13
VGrass
p196
sg15
V18
p197
sg17
V22
p198
sg19
V30
p199
sbag1
(g2
g3
Ntp200
Rp201
(dp202
g7
V021
p203
sg9
VSpearow
p204
sg11
VFR,LG,
p205
sg13
VGrass
p206
sg15
V20
p207
sg17
V22
p208
sg19
V30
p209
sbag1
(g2
g3
Ntp210
Rp211
(dp212
g7
V020
p213
sg9
VRaticate
p214
sg11
VFR,LG,
p215
sg13
VGrass
p216
sg15
V23
p217
sg17
V25
p218
sg19
V5
p219
sbag1
(g2
g3
Ntp220
Rp221
(dp222
g7
V143
p223
sg9
VSnorlax
p224
sg11
VFR,LG,
p225
sg13
VSpecial
p226
sg15
V30
p227
sg17
g227
sg19
V0
p228
sbag1
(g2
g3
Ntp229
Rp230
(dp231
g7
V022
p232
sg9
VFearow
p233
sg11
VHG,SS,
p234
sg13
VGrass
p235
sg15
V27
p236
sg17
V29
p237
sg19
V40
p238
sbag1
(g2
g3
Ntp239
Rp240
(dp241
g7
V088
p242
sg9
VGrimer
p243
sg11
VHG,SS,
p244
sg13
VGrass
p245
sg15
V26
p246
sg17
V28
p247
sg19
V80
p248
sbag1
(g2
g3
Ntp249
Rp250
(dp251
g7
V089
p252
sg9
VMuk
p253
sg11
VHG,SS,
p254
sg13
VGrass
p255
sg15
V29
p256
sg17
V30
p257
sg19
V5
p258
sbag1
(g2
g3
Ntp259
Rp260
(dp261
g7
V198
p262
sg9
VMurkrow
p263
sg11
VHG,SS,
p264
sg13
VGrass
p265
sg15
V29
p266
sg17
g266
sg19
V10
p267
sbag1
(g2
g3
Ntp268
Rp269
(dp270
g7
V218
p271
sg9
VSlugma
p272
sg11
VHG,SS,
p273
sg13
VGrass
p274
sg15
V27
p275
sg17
V29
p276
sg19
V5
p277
sbag1
(g2
g3
Ntp278
Rp279
(dp280
g7
V021
p281
sg9
VSpearow
p282
sg11
VHG,SS,
p283
sg13
VHeadbutt
p284
sg15
V26
p285
sg17
V30
p286
sg19
V50
p287
sbag1
(g2
g3
Ntp288
Rp289
(dp290
g7
V214
p291
sg9
VHeracross
p292
sg11
VHG,SS,
p293
sg13
VHeadbutt
p294
sg15
V26
p295
sg17
V27
p296
sg19
V30
p297
sbag1
(g2
g3
Ntp298
Rp299
(dp300
g7
V415
p301
sg9
VCombee
p302
sg11
VHG,SS,
p303
sg13
VHeadbutt
p304
sg15
V26
p305
sg17
V30
p306
sg19
V20
p307
sbag1
(g2
g3
Ntp308
Rp309
(dp310
g7
V311
p311
sg9
VPlusle
p312
sg11
VHG,SS,
p313
sg13
VHoenn
p314
sg15
V26
p315
sg17
V27
p316
sg19
V20
p317
sbag1
(g2
g3
Ntp318
Rp319
(dp320
g7
V312
p321
sg9
VMinun
p322
sg11
VHG,SS,
p323
sg13
VHoenn
p324
sg15
V28
p325
sg17
g325
sg19
V20
p326
sbag1
(g2
g3
Ntp327
Rp328
(dp329
g7
V403
p330
sg9
VShinx
p331
sg11
VHG,SS,
p332
sg13
VSinnoh
p333
sg15
V26
p334
sg17
V28
p335
sg19
V40
p336
sbag1
(g2
g3
Ntp337
Rp338
(dp339
g7
V016
p340
sg9
VPidgey
p341
sg11
VPi,Ev,
p342
sg13
VGrass
p343
sg15
V31
p344
sg17
V36
p345
sg19
V20
p346
sbag1
(g2
g3
Ntp347
Rp348
(dp349
g7
V017
p350
sg9
VPidgeotto
p351
sg11
VPi,Ev,
p352
sg13
VGrass
p353
sg15
V31
p354
sg17
V36
p355
sg19
V20
p356
sbag1
(g2
g3
Ntp357
Rp358
(dp359
g7
V019
p360
sg9
VRattata
p361
sg11
VPi,Ev,
p362
sg13
VGrass
p363
sg15
V31
p364
sg17
V36
p365
sg19
V15
p366
sbag1
(g2
g3
Ntp367
Rp368
(dp369
g7
V020
p370
sg9
VRaticate
p371
sg11
VPi,Ev,
p372
sg13
VGrass
p373
sg15
V31
p374
sg17
V36
p375
sg19
V15
p376
sbag1
(g2
g3
Ntp377
Rp378
(dp379
g7
V084
p380
sg9
VDoduo
p381
sg11
VPi,Ev,
p382
sg13
VGrass
p383
sg15
V31
p384
sg17
V36
p385
sg19
V25
p386
sbag1
(g2
g3
Ntp387
Rp388
(dp389
g7
V085
p390
sg9
VDodrio
p391
sg11
VPi,Ev,
p392
sg13
VGrass
p393
sg15
V31
p394
sg17
V36
p395
sg19
V5
p396
sbag1
(g2
g3
Ntp397
Rp398
(dp399
g7
V113
p400
sg9
VChansey
p401
sg11
VPi,Ev,
p402
sg13
VGrass
p403
sg15
V31
p404
sg17
V36
p405
sg19
V0
p406
sbag1
(g2
g3
Ntp407
Rp408
(dp409
g7
V016
p410
sg9
VPidgey
p411
sg11
VPi,Ev,
p412
sg13
VSky
p413
sg15
V3
p414
sg17
V56
p415
sg19
V60
p416
sbag1
(g2
g3
Ntp417
Rp418
(dp419
g7
V017
p420
sg9
VPidgeotto
p421
sg11
VPi,Ev,
p422
sg13
VSky
p423
sg15
g414
sg17
V56
p424
sg19
V35
p425
sbag1
(g2
g3
Ntp426
Rp427
(dp428
g7
V018
p429
sg9
VPidgeot
p430
sg11
VPi,Ev,
p431
sg13
VSky
p432
sg15
g414
sg17
V56
p433
sg19
V5
p434
sbag1
(g2
g3
Ntp435
Rp436
(dp437
g7
V006
p438
sg9
VCharizard
p439
sg11
VPi,Ev,
p440
sg13
VSky
p441
sg15
g414
sg17
V56
p442
sg19
V0
p443
sbag1
(g2
g3
Ntp444
Rp445
(dp446
g7
V144
p447
sg9
VArticuno
p448
sg11
VPi,Ev,
p449
sg13
VSky
p450
sg15
g414
sg17
V56
p451
sg19
V0
p452
sbag1
(g2
g3
Ntp453
Rp454
(dp455
g7
V145
p456
sg9
VZapdos
p457
sg11
VPi,Ev,
p458
sg13
VSky
p459
sg15
g414
sg17
V56
p460
sg19
V0
p461
sbag1
(g2
g3
Ntp462
Rp463
(dp464
g7
V146
p465
sg9
VMoltres
p466
sg11
VPi,Ev,
p467
sg13
VSky
p468
sg15
g414
sg17
V56
p469
sg19
V0
p470
sbag1
(g2
g3
Ntp471
Rp472
(dp473
g7
V149
p474
sg9
VDragonite
p475
sg11
VPi,Ev,
p476
sg13
VSky
p477
sg15
g414
sg17
V56
p478
sg19
V0
p479
sbag1
(g2
g3
Ntp480
Rp481
(dp482
g7
V143
p483
sg9
VSnorlax
p484
sg11
VPi,Ev,
p485
sg13
VSpecial
p486
sg15
V34
p487
sg17
g487
sg19
V0
p488
sba.