(lp0
ccopy_reg
_reconstructor
p1
(c__main__
WildPokemon
p2
c__builtin__
object
p3
Ntp4
Rp5
(dp6
VpDexNo
p7
V019
p8
sVpSpecies
p9
VRattata
p10
sVpGames
p11
VY,
p12
sVpArea
p13
VGrass
p14
sVpMinLevel
p15
V18
p16
sVpMaxLevel
p17
g16
sVpRate
p18
V15
p19
sbag1
(g2
g3
Ntp20
Rp21
(dp22
g7
V020
p23
sg9
VRaticate
p24
sg11
g12
sg13
VGrass
p25
sg15
V20
p26
sg17
g26
sg18
V5
p27
sbag1
(g2
g3
Ntp28
Rp29
(dp30
g7
V021
p31
sg9
VSpearow
p32
sg11
VR,B,
p33
sg13
VGrass
p34
sg15
V13
p35
sg17
V17
p36
sg18
V30
p37
sbag1
(g2
g3
Ntp38
Rp39
(dp40
g7
V023
p41
sg9
VEkans
p42
sg11
VR,
p43
sg13
VGrass
p44
sg15
V11
p45
sg17
V17
p46
sg18
V25
p47
sbag1
(g2
g3
Ntp48
Rp49
(dp50
g7
V027
p51
sg9
VSandshrew
p52
sg11
VB,
p53
sg13
VGrass
p54
sg15
V11
p55
sg17
V17
p56
sg18
V25
p57
sbag1
(g2
g3
Ntp58
Rp59
(dp60
g7
V029
p61
sg9
VNidoran\u2640
p62
sg11
g12
sg13
VGrass
p63
sg15
V17
p64
sg17
g64
sg18
V10
p65
sbag1
(g2
g3
Ntp66
Rp67
(dp68
g7
V032
p69
sg9
VNidoran\u2642
p70
sg11
g12
sg13
VGrass
p71
sg15
V17
p72
sg17
g72
sg18
V10
p73
sbag1
(g2
g3
Ntp74
Rp75
(dp76
g7
V066
p77
sg9
VMachop
p78
sg11
g12
sg13
VGrass
p79
sg15
V16
p80
sg17
V18
p81
sg18
V5
p82
sbag1
(g2
g3
Ntp83
Rp84
(dp85
g7
V081
p86
sg9
VMagnemite
p87
sg11
g12
sg13
VGrass
p88
sg15
V16
p89
sg17
V22
p90
sg18
V55
p91
sbag1
(g2
g3
Ntp92
Rp93
(dp94
g7
V100
p95
sg9
VVoltorb
p96
sg11
VR,B,
p97
sg13
VGrass
p98
sg15
V14
p99
sg17
V17
p100
sg18
V45
p101
sbag1
(g2
g3
Ntp102
Rp103
(dp104
g7
V129
p105
sg9
VMagikarp
p106
sg11
VR,B,Y,
p107
sg13
VFish Old
p108
sg15
V5
p109
sg17
g109
sg18
V100
p110
sbag1
(g2
g3
Ntp111
Rp112
(dp113
g7
V060
p114
sg9
VPoliwag
p115
sg11
VR,B,Y,
p116
sg13
VFish Good
p117
sg15
V10
p118
sg17
g118
sg18
V50
p119
sbag1
(g2
g3
Ntp120
Rp121
(dp122
g7
V118
p123
sg9
VGoldeen
p124
sg11
VR,B,Y,
p125
sg13
VFish Good
p126
sg15
V10
p127
sg17
g127
sg18
V50
p128
sbag1
(g2
g3
Ntp129
Rp130
(dp131
g7
V061
p132
sg9
VPoliwhirl
p133
sg11
VR,B,
p134
sg13
VFish Super
p135
sg15
V23
p136
sg17
g136
sg18
V50
p137
sbag1
(g2
g3
Ntp138
Rp139
(dp140
g7
V079
p141
sg9
VSlowpoke
p142
sg11
VR,B,
p143
sg13
VFish Super
p144
sg15
V15
p145
sg17
g145
sg18
V50
p146
sbag1
(g2
g3
Ntp147
Rp148
(dp149
g7
V098
p150
sg9
VKrabby
p151
sg11
g12
sg13
VFish Super
p152
sg15
V15
p153
sg17
V20
p154
sg18
V70
p155
sbag1
(g2
g3
Ntp156
Rp157
(dp158
g7
V099
p159
sg9
VKingler
p160
sg11
g12
sg13
VFish Super
p161
sg15
V25
p162
sg17
g162
sg18
V10
p163
sbag1
(g2
g3
Ntp164
Rp165
(dp166
g7
V116
p167
sg9
VHorsea
p168
sg11
g12
sg13
VFish Super
p169
sg15
V10
p170
sg17
g170
sg18
V20
p171
sbag1
(g2
g3
Ntp172
Rp173
(dp174
g7
V020
p175
sg9
VRaticate
p176
sg11
VG,S,
p177
sg13
VGrass
p178
sg15
V16
p179
sg17
g179
sg18
V20
p180
sbag1
(g2
g3
Ntp181
Rp182
(dp183
g7
V020
p184
sg9
VRaticate
p185
sg11
VG,S,
p186
sg13
VGrass
p187
sg15
V17
p188
sg17
g188
sg18
V20
p189
sbag1
(g2
g3
Ntp190
Rp191
(dp192
g7
V020
p193
sg9
VRaticate
p194
sg11
VG,S,
p195
sg13
VGrass
p196
sg15
V16
p197
sg17
V18
p198
sg18
V25
p199
sbag1
(g2
g3
Ntp200
Rp201
(dp202
g7
V020
p203
sg9
VRaticate
p204
sg11
VC,
p205
sg13
VGrass
p206
sg15
V15
p207
sg17
g207
sg18
V20
p208
sbag1
(g2
g3
Ntp209
Rp210
(dp211
g7
V021
p212
sg9
VSpearow
p213
sg11
VG,S,
p214
sg13
VGrass
p215
sg15
V16
p216
sg17
g216
sg18
V30
p217
sbag1
(g2
g3
Ntp218
Rp219
(dp220
g7
V021
p221
sg9
VSpearow
p222
sg11
g205
sg13
VGrass
p223
sg15
V15
p224
sg17
g224
sg18
V30
p225
sbag1
(g2
g3
Ntp226
Rp227
(dp228
g7
V022
p229
sg9
VFearow
p230
sg11
VG,S,
p231
sg13
VGrass
p232
sg15
V18
p233
sg17
g233
sg18
V10
p234
sbag1
(g2
g3
Ntp235
Rp236
(dp237
g7
V022
p238
sg9
VFearow
p239
sg11
g205
sg13
VGrass
p240
sg15
V15
p241
sg17
g241
sg18
V10
p242
sbag1
(g2
g3
Ntp243
Rp244
(dp245
g7
V041
p246
sg9
VZubat
p247
sg11
g205
sg13
VGrass
p248
sg15
V15
p249
sg17
g249
sg18
V5
p250
sbag1
(g2
g3
Ntp251
Rp252
(dp253
g7
V048
p254
sg9
VVenonat
p255
sg11
g205
sg13
VGrass
p256
sg15
V15
p257
sg17
g257
sg18
V30
p258
sbag1
(g2
g3
Ntp259
Rp260
(dp261
g7
V049
p262
sg9
VVenomoth
p263
sg11
g205
sg13
VGrass
p264
sg15
V15
p265
sg17
g265
sg18
V10
p266
sbag1
(g2
g3
Ntp267
Rp268
(dp269
g7
V100
p270
sg9
VVoltorb
p271
sg11
VG,S,C,
p272
sg13
VGrass
p273
sg15
V17
p274
sg17
g274
sg18
V30
p275
sbag1
(g2
g3
Ntp276
Rp277
(dp278
g7
V105
p279
sg9
VMarowak
p280
sg11
g205
sg13
VGrass
p281
sg15
V15
p282
sg17
g282
sg18
V5
p283
sbag1
(g2
g3
Ntp284
Rp285
(dp286
g7
V125
p287
sg9
VElectabuzz
p288
sg11
VG,S,
p289
sg13
VGrass
p290
sg15
V15
p291
sg17
g291
sg18
V5
p292
sbag1
(g2
g3
Ntp293
Rp294
(dp295
g7
V125
p296
sg9
VElectabuzz
p297
sg11
VG,S,
p298
sg13
VGrass
p299
sg15
V15
p300
sg17
V17
p301
sg18
V10
p302
sbag1
(g2
g3
Ntp303
Rp304
(dp305
g7
V125
p306
sg9
VElectabuzz
p307
sg11
g205
sg13
VGrass
p308
sg15
V16
p309
sg17
g309
sg18
V5
p310
sbag1
(g2
g3
Ntp311
Rp312
(dp313
g7
V125
p314
sg9
VElectabuzz
p315
sg11
g205
sg13
VGrass
p316
sg15
V18
p317
sg17
g317
sg18
V5
p318
sbag1
(g2
g3
Ntp319
Rp320
(dp321
g7
V195
p322
sg9
VQuagsire
p323
sg11
VG,S,
p324
sg13
VGrass
p325
sg15
V16
p326
sg17
g326
sg18
V5
p327
sbag1
(g2
g3
Ntp328
Rp329
(dp330
g7
V195
p331
sg9
VQuagsire
p332
sg11
VG,S,
p333
sg13
VGrass
p334
sg15
V16
p335
sg17
V17
p336
sg18
V40
p337
sbag1
(g2
g3
Ntp338
Rp339
(dp340
g7
V118
p341
sg9
VGoldeen
p342
sg11
VG,S,C,
p343
sg13
VSurf
p344
sg15
V10
p345
sg17
V19
p346
sg18
V90
p347
sbag1
(g2
g3
Ntp348
Rp349
(dp350
g7
V119
p351
sg9
VSeaking
p352
sg11
VG,S,C,
p353
sg13
VSurf
p354
sg15
V15
p355
sg17
V19
p356
sg18
V10
p357
sbag1
(g2
g3
Ntp358
Rp359
(dp360
g7
V118
p361
sg9
VGoldeen
p362
sg11
VG,S,C,
p363
sg13
VFish Old
p364
sg15
V10
p365
sg17
g365
sg18
V15
p366
sbag1
(g2
g3
Ntp367
Rp368
(dp369
g7
V129
p370
sg9
VMagikarp
p371
sg11
VG,S,C,
p372
sg13
VFish Old
p373
sg15
V10
p374
sg17
g374
sg18
V85
p375
sbag1
(g2
g3
Ntp376
Rp377
(dp378
g7
V118
p379
sg9
VGoldeen
p380
sg11
VG,S,C,
p381
sg13
VFish Good
p382
sg15
V20
p383
sg17
g383
sg18
V65
p384
sbag1
(g2
g3
Ntp385
Rp386
(dp387
g7
V129
p388
sg9
VMagikarp
p389
sg11
VG,S,C,
p390
sg13
VFish Good
p391
sg15
V20
p392
sg17
g392
sg18
V35
p393
sbag1
(g2
g3
Ntp394
Rp395
(dp396
g7
V118
p397
sg9
VGoldeen
p398
sg11
VG,S,C,
p399
sg13
VFish Super
p400
sg15
V40
p401
sg17
g401
sg18
V70
p402
sbag1
(g2
g3
Ntp403
Rp404
(dp405
g7
V119
p406
sg9
VSeaking
p407
sg11
VG,S,C,
p408
sg13
VFish Super
p409
sg15
V40
p410
sg17
g410
sg18
V10
p411
sbag1
(g2
g3
Ntp412
Rp413
(dp414
g7
V129
p415
sg9
VMagikarp
p416
sg11
VG,S,C,
p417
sg13
VFish Super
p418
sg15
V40
p419
sg17
g419
sg18
V20
p420
sbag1
(g2
g3
Ntp421
Rp422
(dp423
g7
V100
p424
sg9
VVoltorb
p425
sg11
VFR,LG,
p426
sg13
VGrass
p427
sg15
V14
p428
sg17
V17
p429
sg18
V40
p430
sbag1
(g2
g3
Ntp431
Rp432
(dp433
g7
V021
p434
sg9
VSpearow
p435
sg11
VFR,LG,
p436
sg13
VGrass
p437
sg15
V13
p438
sg17
V17
p439
sg18
V35
p440
sbag1
(g2
g3
Ntp441
Rp442
(dp443
g7
V023
p444
sg9
VEkans
p445
sg11
VFR,
p446
sg13
VGrass
p447
sg15
V11
p448
sg17
V17
p449
sg18
V25
p450
sbag1
(g2
g3
Ntp451
Rp452
(dp453
g7
V027
p454
sg9
VSandshrew
p455
sg11
VLG,
p456
sg13
VGrass
p457
sg15
V11
p458
sg17
V17
p459
sg18
V25
p460
sbag1
(g2
g3
Ntp461
Rp462
(dp463
g7
V072
p464
sg9
VTentacool
p465
sg11
VFR,LG,
p466
sg13
VSurf
p467
sg15
g109
sg17
V40
p468
sg18
V100
p469
sbag1
(g2
g3
Ntp470
Rp471
(dp472
g7
V129
p473
sg9
VMagikarp
p474
sg11
VFR,LG,
p475
sg13
VFish Old
p476
sg15
g109
sg17
g109
sg18
V100
p477
sbag1
(g2
g3
Ntp478
Rp479
(dp480
g7
V116
p481
sg9
VHorsea
p482
sg11
g446
sg13
VFish Good
p483
sg15
g109
sg17
V15
p484
sg18
V60
p485
sbag1
(g2
g3
Ntp486
Rp487
(dp488
g7
V116
p489
sg9
VHorsea
p490
sg11
g456
sg13
VFish Good
p491
sg15
g109
sg17
V15
p492
sg18
V20
p493
sbag1
(g2
g3
Ntp494
Rp495
(dp496
g7
V098
p497
sg9
VKrabby
p498
sg11
g446
sg13
VFish Good
p499
sg15
g109
sg17
V15
p500
sg18
V20
p501
sbag1
(g2
g3
Ntp502
Rp503
(dp504
g7
V098
p505
sg9
VKrabby
p506
sg11
g456
sg13
VFish Good
p507
sg15
g109
sg17
V15
p508
sg18
V60
p509
sbag1
(g2
g3
Ntp510
Rp511
(dp512
g7
V129
p513
sg9
VMagikarp
p514
sg11
VFR,LG,
p515
sg13
VFish Good
p516
sg15
g109
sg17
V15
p517
sg18
V20
p518
sbag1
(g2
g3
Ntp519
Rp520
(dp521
g7
V116
p522
sg9
VHorsea
p523
sg11
g446
sg13
VFish Super
p524
sg15
V15
p525
sg17
V35
p526
sg18
V84
p527
sbag1
(g2
g3
Ntp528
Rp529
(dp530
g7
V098
p531
sg9
VKrabby
p532
sg11
g456
sg13
VFish Super
p533
sg15
V15
p534
sg17
V35
p535
sg18
V84
p536
sbag1
(g2
g3
Ntp537
Rp538
(dp539
g7
V130
p540
sg9
VGyarados
p541
sg11
VFR,LG,
p542
sg13
VFish Super
p543
sg15
V15
p544
sg17
V25
p545
sg18
V15
p546
sbag1
(g2
g3
Ntp547
Rp548
(dp549
g7
V054
p550
sg9
VPsyduck
p551
sg11
g446
sg13
VFish Super
p552
sg15
V25
p553
sg17
V35
p554
sg18
V1
p555
sbag1
(g2
g3
Ntp556
Rp557
(dp558
g7
V079
p559
sg9
VSlowpoke
p560
sg11
g456
sg13
VFish Super
p561
sg15
V25
p562
sg17
V35
p563
sg18
V1
p564
sbag1
(g2
g3
Ntp565
Rp566
(dp567
g7
V100
p568
sg9
VVoltorb
p569
sg11
VHG,SS,
p570
sg13
VGrass
p571
sg15
V17
p572
sg17
g572
sg18
V30
p573
sbag1
(g2
g3
Ntp574
Rp575
(dp576
g7
V021
p577
sg9
VSpearow
p578
sg11
VHG,SS,
p579
sg13
VGrass
p580
sg15
V16
p581
sg17
g581
sg18
V30
p582
sbag1
(g2
g3
Ntp583
Rp584
(dp585
g7
V020
p586
sg9
VRaticate
p587
sg11
VHG,SS,
p588
sg13
VGrass
p589
sg15
V15
p590
sg17
V18
p591
sg18
V25
p592
sbag1
(g2
g3
Ntp593
Rp594
(dp595
g7
V020
p596
sg9
VRaticate
p597
sg11
VHG,SS,
p598
sg13
VGrass
p599
sg15
V16
p600
sg17
g600
sg18
V25
p601
sbag1
(g2
g3
Ntp602
Rp603
(dp604
g7
V022
p605
sg9
VFearow
p606
sg11
VHG,SS,
p607
sg13
VGrass
p608
sg15
V18
p609
sg17
g609
sg18
V10
p610
sbag1
(g2
g3
Ntp611
Rp612
(dp613
g7
V125
p614
sg9
VElectabuzz
p615
sg11
VHG,SS,
p616
sg13
VGrass
p617
sg15
V15
p618
sg17
g618
sg18
V5
p619
sbag1
(g2
g3
Ntp620
Rp621
(dp622
g7
V125
p623
sg9
VElectabuzz
p624
sg11
VHG,SS,
p625
sg13
VGrass
p626
sg15
V15
p627
sg17
V18
p628
sg18
V10
p629
sbag1
(g2
g3
Ntp630
Rp631
(dp632
g7
V195
p633
sg9
VQuagsire
p634
sg11
VHG,SS,
p635
sg13
VGrass
p636
sg15
V16
p637
sg17
V18
p638
sg18
V40
p639
sbag1
(g2
g3
Ntp640
Rp641
(dp642
g7
V118
p643
sg9
VGoldeen
p644
sg11
VHG,SS,
p645
sg13
VSurf
p646
sg15
V10
p647
sg17
V15
p648
sg18
V90
p649
sbag1
(g2
g3
Ntp650
Rp651
(dp652
g7
V119
p653
sg9
VSeaking
p654
sg11
VHG,SS,
p655
sg13
VSurf
p656
sg15
V15
p657
sg17
g657
sg18
V10
p658
sbag1
(g2
g3
Ntp659
Rp660
(dp661
g7
V129
p662
sg9
VMagikarp
p663
sg11
VHG,SS,
p664
sg13
VFish Old
p665
sg15
V10
p666
sg17
g666
sg18
V95
p667
sbag1
(g2
g3
Ntp668
Rp669
(dp670
g7
V118
p671
sg9
VGoldeen
p672
sg11
VHG,SS,
p673
sg13
VFish Old
p674
sg15
V10
p675
sg17
g675
sg18
V5
p676
sbag1
(g2
g3
Ntp677
Rp678
(dp679
g7
V129
p680
sg9
VMagikarp
p681
sg11
VHG,SS,
p682
sg13
VFish Good
p683
sg15
V20
p684
sg17
g684
sg18
V60
p685
sbag1
(g2
g3
Ntp686
Rp687
(dp688
g7
V118
p689
sg9
VGoldeen
p690
sg11
VHG,SS,
p691
sg13
VFish Good
p692
sg15
V20
p693
sg17
g693
sg18
V40
p694
sbag1
(g2
g3
Ntp695
Rp696
(dp697
g7
V118
p698
sg9
VGoldeen
p699
sg11
VHG,SS,
p700
sg13
VFish Super
p701
sg15
V40
p702
sg17
g702
sg18
V90
p703
sbag1
(g2
g3
Ntp704
Rp705
(dp706
g7
V129
p707
sg9
VMagikarp
p708
sg11
VHG,SS,
p709
sg13
VFish Super
p710
sg15
V40
p711
sg17
g711
sg18
V7
p712
sbag1
(g2
g3
Ntp713
Rp714
(dp715
g7
V119
p716
sg9
VSeaking
p717
sg11
VHG,SS,
p718
sg13
VFish Super
p719
sg15
V40
p720
sg17
g720
sg18
V3
p721
sbag1
(g2
g3
Ntp722
Rp723
(dp724
g7
V145
p725
sg9
VZapdos
p726
sg11
VHG,SS,
p727
sg13
VSpecial
p728
sg15
V50
p729
sg17
g729
sg18
V0
p730
sbag1
(g2
g3
Ntp731
Rp732
(dp733
g7
V264
p734
sg9
VLinoone
p735
sg11
VHG,SS,
p736
sg13
VHoenn
p737
sg15
V16
p738
sg17
g738
sg18
V20
p739
sbag1
(g2
g3
Ntp740
Rp741
(dp742
g7
V293
p743
sg9
VWhismur
p744
sg11
VHG,SS,
p745
sg13
VHoenn
p746
sg15
V16
p747
sg17
V17
p748
sg18
V20
p749
sbag1
(g2
g3
Ntp750
Rp751
(dp752
g7
V399
p753
sg9
VBidoof
p754
sg11
VHG,SS,
p755
sg13
VSinnoh
p756
sg15
V16
p757
sg17
g757
sg18
V20
p758
sbag1
(g2
g3
Ntp759
Rp760
(dp761
g7
V418
p762
sg9
VBuizel
p763
sg11
VHG,SS,
p764
sg13
VSinnoh
p765
sg15
V16
p766
sg17
V17
p767
sg18
V20
p768
sbag1
(g2
g3
Ntp769
Rp770
(dp771
g7
V019
p772
sg9
VRattata
p773
sg11
VPi,Ev,
p774
sg13
VGrass
p775
sg15
V18
p776
sg17
V23
p777
sg18
V15
p778
sbag1
(g2
g3
Ntp779
Rp780
(dp781
g7
V020
p782
sg9
VRaticate
p783
sg11
VPi,Ev,
p784
sg13
VGrass
p785
sg15
V18
p786
sg17
V23
p787
sg18
V10
p788
sbag1
(g2
g3
Ntp789
Rp790
(dp791
g7
V021
p792
sg9
VSpearow
p793
sg11
VPi,Ev,
p794
sg13
VGrass
p795
sg15
V18
p796
sg17
V23
p797
sg18
V15
p798
sbag1
(g2
g3
Ntp799
Rp800
(dp801
g7
V022
p802
sg9
VFearow
p803
sg11
VPi,Ev,
p804
sg13
VGrass
p805
sg15
V18
p806
sg17
V23
p807
sg18
V10
p808
sbag1
(g2
g3
Ntp809
Rp810
(dp811
g7
V029
p812
sg9
VNidoran\u2640
p813
sg11
VPi,Ev,
p814
sg13
VGrass
p815
sg15
V18
p816
sg17
V23
p817
sg18
V15
p818
sbag1
(g2
g3
Ntp819
Rp820
(dp821
g7
V030
p822
sg9
VNidorina
p823
sg11
VPi,Ev,
p824
sg13
VGrass
p825
sg15
V18
p826
sg17
V23
p827
sg18
V5
p828
sbag1
(g2
g3
Ntp829
Rp830
(dp831
g7
V032
p832
sg9
VNidoran\u2642
p833
sg11
VPi,Ev,
p834
sg13
VGrass
p835
sg15
V18
p836
sg17
V23
p837
sg18
V15
p838
sbag1
(g2
g3
Ntp839
Rp840
(dp841
g7
V033
p842
sg9
VNidorino
p843
sg11
VPi,Ev,
p844
sg13
VGrass
p845
sg15
V18
p846
sg17
V23
p847
sg18
V5
p848
sbag1
(g2
g3
Ntp849
Rp850
(dp851
g7
V098
p852
sg9
VKrabby
p853
sg11
VPi,Ev,
p854
sg13
VGrass
p855
sg15
V18
p856
sg17
V23
p857
sg18
V10
p858
sbag1
(g2
g3
Ntp859
Rp860
(dp861
g7
V113
p862
sg9
VChansey
p863
sg11
VPi,Ev,
p864
sg13
VGrass
p865
sg15
V18
p866
sg17
V23
p867
sg18
V0
p868
sbag1
(g2
g3
Ntp869
Rp870
(dp871
g7
V072
p872
sg9
VTentacool
p873
sg11
VPi,Ev,
p874
sg13
VSurf
p875
sg15
V18
p876
sg17
V23
p877
sg18
V45
p878
sbag1
(g2
g3
Ntp879
Rp880
(dp881
g7
V073
p882
sg9
VTentacruel
p883
sg11
VPi,Ev,
p884
sg13
VSurf
p885
sg15
V18
p886
sg17
V23
p887
sg18
V5
p888
sbag1
(g2
g3
Ntp889
Rp890
(dp891
g7
V129
p892
sg9
VMagikarp
p893
sg11
VPi,Ev,
p894
sg13
VSurf
p895
sg15
V18
p896
sg17
V23
p897
sg18
V45
p898
sbag1
(g2
g3
Ntp899
Rp900
(dp901
g7
V147
p902
sg9
VDratini
p903
sg11
VPi,Ev,
p904
sg13
VSurf
p905
sg15
V18
p906
sg17
V23
p907
sg18
V4
p908
sbag1
(g2
g3
Ntp909
Rp910
(dp911
g7
V148
p912
sg9
VDragonair
p913
sg11
VPi,Ev,
p914
sg13
VSurf
p915
sg15
V18
p916
sg17
V23
p917
sg18
V1
p918
sbag1
(g2
g3
Ntp919
Rp920
(dp921
g7
V021
p922
sg9
VSpearow
p923
sg11
VPi,Ev,
p924
sg13
VSky
p925
sg15
V3
p926
sg17
V56
p927
sg18
V60
p928
sbag1
(g2
g3
Ntp929
Rp930
(dp931
g7
V022
p932
sg9
VFearow
p933
sg11
VPi,Ev,
p934
sg13
VSky
p935
sg15
g926
sg17
V56
p936
sg18
V40
p937
sbag1
(g2
g3
Ntp938
Rp939
(dp940
g7
V006
p941
sg9
VCharizard
p942
sg11
VPi,Ev,
p943
sg13
VSky
p944
sg15
g926
sg17
V56
p945
sg18
V0
p946
sbag1
(g2
g3
Ntp947
Rp948
(dp949
g7
V144
p950
sg9
VArticuno
p951
sg11
VPi,Ev,
p952
sg13
VSky
p953
sg15
g926
sg17
V56
p954
sg18
V0
p955
sbag1
(g2
g3
Ntp956
Rp957
(dp958
g7
V145
p959
sg9
VZapdos
p960
sg11
VPi,Ev,
p961
sg13
VSky
p962
sg15
g926
sg17
V56
p963
sg18
V0
p964
sbag1
(g2
g3
Ntp965
Rp966
(dp967
g7
V146
p968
sg9
VMoltres
p969
sg11
VPi,Ev,
p970
sg13
VSky
p971
sg15
g926
sg17
V56
p972
sg18
V0
p973
sbag1
(g2
g3
Ntp974
Rp975
(dp976
g7
V149
p977
sg9
VDragonite
p978
sg11
VPi,Ev,
p979
sg13
VSky
p980
sg15
g926
sg17
V56
p981
sg18
V0
p982
sba.