(lp0
ccopy_reg
_reconstructor
p1
(c__main__
WildPokemon
p2
c__builtin__
object
p3
Ntp4
Rp5
(dp6
VpDexNo
p7
V020
p8
sVpSpecies
p9
VRaticate
p10
sVpGames
p11
VR,B,
p12
sVpArea
p13
VGrass
p14
sVpMinLevel
p15
V25
p16
sVpMaxLevel
p17
V29
p18
sVpRate
p19
V30
p20
sbag1
(g2
g3
Ntp21
Rp22
(dp23
g7
V021
p24
sg9
VSpearow
p25
sg11
VR,B,
p26
sg13
VGrass
p27
sg15
V20
p28
sg17
V22
p29
sg19
V40
p30
sbag1
(g2
g3
Ntp31
Rp32
(dp33
g7
V022
p34
sg9
VFearow
p35
sg11
VR,B,
p36
sg13
VGrass
p37
sg15
V25
p38
sg17
V27
p39
sg19
V5
p40
sbag1
(g2
g3
Ntp41
Rp42
(dp43
g7
V022
p44
sg9
VFearow
p45
sg11
VY,
p46
sg13
VGrass
p47
sg15
V27
p48
sg17
V29
p49
sg19
V20
p50
sbag1
(g2
g3
Ntp51
Rp52
(dp53
g7
V077
p54
sg9
VPonyta
p55
sg11
g46
sg13
VGrass
p56
sg15
V28
p57
sg17
V32
p58
sg19
V24
p59
sbag1
(g2
g3
Ntp60
Rp61
(dp62
g7
V084
p63
sg9
VDoduo
p64
sg11
VR,B,
p65
sg13
VGrass
p66
sg15
V24
p67
sg17
V28
p68
sg19
V25
p69
sbag1
(g2
g3
Ntp70
Rp71
(dp72
g7
V084
p73
sg9
VDoduo
p74
sg11
g46
sg13
VGrass
p75
sg15
V26
p76
sg17
V28
p77
sg19
V55
p78
sbag1
(g2
g3
Ntp79
Rp80
(dp81
g7
V085
p82
sg9
VDodrio
p83
sg11
g46
sg13
VGrass
p84
sg15
V29
p85
sg17
g85
sg19
V1
p86
sbag1
(g2
g3
Ntp87
Rp88
(dp89
g7
V129
p90
sg9
VMagikarp
p91
sg11
VR,B,Y,
p92
sg13
VFish Old
p93
sg15
V5
p94
sg17
g94
sg19
V100
p95
sbag1
(g2
g3
Ntp96
Rp97
(dp98
g7
V060
p99
sg9
VPoliwag
p100
sg11
VR,B,Y,
p101
sg13
VFish Good
p102
sg15
V10
p103
sg17
g103
sg19
V50
p104
sbag1
(g2
g3
Ntp105
Rp106
(dp107
g7
V072
p108
sg9
VTentacool
p109
sg11
VR,B,
p110
sg13
VFish Super
p111
sg15
g94
sg17
g94
sg19
V25
p112
sbag1
(g2
g3
Ntp113
Rp114
(dp115
g7
V072
p116
sg9
VTentacool
p117
sg11
g46
sg13
VFish Super
p118
sg15
g94
sg17
V15
p119
sg19
V70
p120
sbag1
(g2
g3
Ntp121
Rp122
(dp123
g7
V090
p124
sg9
VShellder
p125
sg11
g46
sg13
VFish Super
p126
sg15
V25
p127
sg17
V35
p128
sg19
V30
p129
sbag1
(g2
g3
Ntp130
Rp131
(dp132
g7
V098
p133
sg9
VKrabby
p134
sg11
VR,B,
p135
sg13
VFish Super
p136
sg15
V15
p137
sg17
g137
sg19
V25
p138
sbag1
(g2
g3
Ntp139
Rp140
(dp141
g7
V118
p142
sg9
VGoldeen
p143
sg11
VR,B,
p144
sg13
VFish Super
p145
sg15
V15
p146
sg17
g146
sg19
V25
p147
sbag1
(g2
g3
Ntp148
Rp149
(dp150
g7
V129
p151
sg9
VMagikarp
p152
sg11
VR,B,
p153
sg13
VFish Super
p154
sg15
V15
p155
sg17
g155
sg19
V25
p156
sbag1
(g2
g3
Ntp157
Rp158
(dp159
g7
V022
p160
sg9
VFearow
p161
sg11
VG,S,
p162
sg13
VGrass
p163
sg15
V28
p164
sg17
V30
p165
sg19
V40
p166
sbag1
(g2
g3
Ntp167
Rp168
(dp169
g7
V022
p170
sg9
VFearow
p171
sg11
VC,
p172
sg13
VGrass
p173
sg15
V30
p174
sg17
V32
p175
sg19
V40
p176
sbag1
(g2
g3
Ntp177
Rp178
(dp179
g7
V088
p180
sg9
VGrimer
p181
sg11
VG,S,
p182
sg13
VGrass
p183
sg15
V27
p184
sg17
V29
p185
sg19
V80
p186
sbag1
(g2
g3
Ntp187
Rp188
(dp189
g7
V088
p190
sg9
VGrimer
p191
sg11
g172
sg13
VGrass
p192
sg15
V29
p193
sg17
V31
p194
sg19
V55
p195
sbag1
(g2
g3
Ntp196
Rp197
(dp198
g7
V088
p199
sg9
VGrimer
p200
sg11
VG,S,C,
p201
sg13
VGrass
p202
sg15
V29
p203
sg17
g203
sg19
V20
p204
sbag1
(g2
g3
Ntp205
Rp206
(dp207
g7
V088
p208
sg9
VGrimer
p209
sg11
g172
sg13
VGrass
p210
sg15
V29
p211
sg17
V33
p212
sg19
V95
p213
sbag1
(g2
g3
Ntp214
Rp215
(dp216
g7
V089
p217
sg9
VMuk
p218
sg11
VG,S,
p219
sg13
VGrass
p220
sg15
V32
p221
sg17
g221
sg19
V5
p222
sbag1
(g2
g3
Ntp223
Rp224
(dp225
g7
V089
p226
sg9
VMuk
p227
sg11
VG,S,
p228
sg13
VGrass
p229
sg15
V30
p230
sg17
V32
p231
sg19
V15
p232
sbag1
(g2
g3
Ntp233
Rp234
(dp235
g7
V089
p236
sg9
VMuk
p237
sg11
g172
sg13
VGrass
p238
sg15
V33
p239
sg17
g239
sg19
V5
p240
sbag1
(g2
g3
Ntp241
Rp242
(dp243
g7
V218
p244
sg9
VSlugma
p245
sg11
VG,S,
p246
sg13
VGrass
p247
sg15
V29
p248
sg17
g248
sg19
V5
p249
sbag1
(g2
g3
Ntp250
Rp251
(dp252
g7
V218
p253
sg9
VSlugma
p254
sg11
VG,S,
p255
sg13
VGrass
p256
sg15
V25
p257
sg17
V27
p258
sg19
V35
p259
sbag1
(g2
g3
Ntp260
Rp261
(dp262
g7
V218
p263
sg9
VSlugma
p264
sg11
g172
sg13
VGrass
p265
sg15
V29
p266
sg17
V32
p267
sg19
V35
p268
sbag1
(g2
g3
Ntp269
Rp270
(dp271
g7
V019
p272
sg9
VRattata
p273
sg11
VFR,LG,
p274
sg13
VGrass
p275
sg15
V22
p276
sg17
g276
sg19
V5
p277
sbag1
(g2
g3
Ntp278
Rp279
(dp280
g7
V020
p281
sg9
VRaticate
p282
sg11
VFR,LG,
p283
sg13
VGrass
p284
sg15
V25
p285
sg17
V29
p286
sg19
V25
p287
sbag1
(g2
g3
Ntp288
Rp289
(dp290
g7
V021
p291
sg9
VSpearow
p292
sg11
VFR,LG,
p293
sg13
VGrass
p294
sg15
V20
p295
sg17
V22
p296
sg19
V30
p297
sbag1
(g2
g3
Ntp298
Rp299
(dp300
g7
V022
p301
sg9
VFearow
p302
sg11
VFR,LG,
p303
sg13
VGrass
p304
sg15
V25
p305
sg17
V27
p306
sg19
V5
p307
sbag1
(g2
g3
Ntp308
Rp309
(dp310
g7
V084
p311
sg9
VDoduo
p312
sg11
VFR,LG,
p313
sg13
VGrass
p314
sg15
V24
p315
sg17
V28
p316
sg19
V35
p317
sbag1
(g2
g3
Ntp318
Rp319
(dp320
g7
V088
p321
sg9
VGrimer
p322
sg11
VHG,SS,
p323
sg13
VGrass
p324
sg15
V27
p325
sg17
V29
p326
sg19
V80
p327
sbag1
(g2
g3
Ntp328
Rp329
(dp330
g7
V022
p331
sg9
VFearow
p332
sg11
VHG,SS,
p333
sg13
VGrass
p334
sg15
V28
p335
sg17
V30
p336
sg19
V40
p337
sbag1
(g2
g3
Ntp338
Rp339
(dp340
g7
V089
p341
sg9
VMuk
p342
sg11
VHG,SS,
p343
sg13
VGrass
p344
sg15
V30
p345
sg17
V32
p346
sg19
V15
p347
sbag1
(g2
g3
Ntp348
Rp349
(dp350
g7
V218
p351
sg9
VSlugma
p352
sg11
VHG,SS,
p353
sg13
VGrass
p354
sg15
V27
p355
sg17
V29
p356
sg19
V5
p357
sbag1
(g2
g3
Ntp358
Rp359
(dp360
g7
V311
p361
sg9
VPlusle
p362
sg11
VHG,SS,
p363
sg13
VHoenn
p364
sg15
V27
p365
sg17
V28
p366
sg19
V20
p367
sbag1
(g2
g3
Ntp368
Rp369
(dp370
g7
V312
p371
sg9
VMinun
p372
sg11
VHG,SS,
p373
sg13
VHoenn
p374
sg15
V29
p375
sg17
g375
sg19
V20
p376
sbag1
(g2
g3
Ntp377
Rp378
(dp379
g7
V403
p380
sg9
VShinx
p381
sg11
VHG,SS,
p382
sg13
VSinnoh
p383
sg15
V27
p384
sg17
V29
p385
sg19
V40
p386
sbag1
(g2
g3
Ntp387
Rp388
(dp389
g7
V016
p390
sg9
VPidgey
p391
sg11
VPi,Ev,
p392
sg13
VGrass
p393
sg15
V33
p394
sg17
V38
p395
sg19
V10
p396
sbag1
(g2
g3
Ntp397
Rp398
(dp399
g7
V017
p400
sg9
VPidgeotto
p401
sg11
VPi,Ev,
p402
sg13
VGrass
p403
sg15
V33
p404
sg17
V38
p405
sg19
V10
p406
sbag1
(g2
g3
Ntp407
Rp408
(dp409
g7
V019
p410
sg9
VRattata
p411
sg11
VPi,Ev,
p412
sg13
VGrass
p413
sg15
V33
p414
sg17
V38
p415
sg19
V5
p416
sbag1
(g2
g3
Ntp417
Rp418
(dp419
g7
V020
p420
sg9
VRaticate
p421
sg11
VPi,Ev,
p422
sg13
VGrass
p423
sg15
V33
p424
sg17
V38
p425
sg19
V5
p426
sbag1
(g2
g3
Ntp427
Rp428
(dp429
g7
V054
p430
sg9
VPsyduck
p431
sg11
VPi,Ev,
p432
sg13
VGrass
p433
sg15
V33
p434
sg17
V38
p435
sg19
V15
p436
sbag1
(g2
g3
Ntp437
Rp438
(dp439
g7
V077
p440
sg9
VPonyta
p441
sg11
VPi,Ev,
p442
sg13
VGrass
p443
sg15
V33
p444
sg17
V38
p445
sg19
V20
p446
sbag1
(g2
g3
Ntp447
Rp448
(dp449
g7
V078
p450
sg9
VRapidash
p451
sg11
VPi,Ev,
p452
sg13
VGrass
p453
sg15
V33
p454
sg17
V38
p455
sg19
V5
p456
sbag1
(g2
g3
Ntp457
Rp458
(dp459
g7
V084
p460
sg9
VDoduo
p461
sg11
VPi,Ev,
p462
sg13
VGrass
p463
sg15
V33
p464
sg17
V38
p465
sg19
V20
p466
sbag1
(g2
g3
Ntp467
Rp468
(dp469
g7
V085
p470
sg9
VDodrio
p471
sg11
VPi,Ev,
p472
sg13
VGrass
p473
sg15
V33
p474
sg17
V38
p475
sg19
V5
p476
sbag1
(g2
g3
Ntp477
Rp478
(dp479
g7
V133
p480
sg9
VEevee
p481
sg11
VPi,Ev,
p482
sg13
VGrass
p483
sg15
V33
p484
sg17
V38
p485
sg19
V5
p486
sbag1
(g2
g3
Ntp487
Rp488
(dp489
g7
V113
p490
sg9
VChansey
p491
sg11
VPi,Ev,
p492
sg13
VGrass
p493
sg15
V33
p494
sg17
V38
p495
sg19
V0
p496
sbag1
(g2
g3
Ntp497
Rp498
(dp499
g7
V016
p500
sg9
VPidgey
p501
sg11
VPi,Ev,
p502
sg13
VSky
p503
sg15
V3
p504
sg17
V56
p505
sg19
V60
p506
sbag1
(g2
g3
Ntp507
Rp508
(dp509
g7
V017
p510
sg9
VPidgeotto
p511
sg11
VPi,Ev,
p512
sg13
VSky
p513
sg15
g504
sg17
V56
p514
sg19
V35
p515
sbag1
(g2
g3
Ntp516
Rp517
(dp518
g7
V018
p519
sg9
VPidgeot
p520
sg11
VPi,Ev,
p521
sg13
VSky
p522
sg15
g504
sg17
V56
p523
sg19
V5
p524
sbag1
(g2
g3
Ntp525
Rp526
(dp527
g7
V006
p528
sg9
VCharizard
p529
sg11
VPi,Ev,
p530
sg13
VSky
p531
sg15
g504
sg17
V56
p532
sg19
V0
p533
sbag1
(g2
g3
Ntp534
Rp535
(dp536
g7
V144
p537
sg9
VArticuno
p538
sg11
VPi,Ev,
p539
sg13
VSky
p540
sg15
g504
sg17
V56
p541
sg19
V0
p542
sbag1
(g2
g3
Ntp543
Rp544
(dp545
g7
V145
p546
sg9
VZapdos
p547
sg11
VPi,Ev,
p548
sg13
VSky
p549
sg15
g504
sg17
V56
p550
sg19
V0
p551
sbag1
(g2
g3
Ntp552
Rp553
(dp554
g7
V146
p555
sg9
VMoltres
p556
sg11
VPi,Ev,
p557
sg13
VSky
p558
sg15
g504
sg17
V56
p559
sg19
V0
p560
sbag1
(g2
g3
Ntp561
Rp562
(dp563
g7
V149
p564
sg9
VDragonite
p565
sg11
VPi,Ev,
p566
sg13
VSky
p567
sg15
g504
sg17
V56
p568
sg19
V0
p569
sba.