(lp0
ccopy_reg
_reconstructor
p1
(c__main__
WildPokemon
p2
c__builtin__
object
p3
Ntp4
Rp5
(dp6
VpDexNo
p7
V020
p8
sVpSpecies
p9
VRaticate
p10
sVpGames
p11
VG,
p12
sVpArea
p13
VGrass
p14
sVpMinLevel
p15
V28
p16
sVpMaxLevel
p17
g16
sVpRate
p18
V30
p19
sbag1
(g2
g3
Ntp20
Rp21
(dp22
g7
V020
p23
sg9
VRaticate
p24
sg11
g12
sg13
VGrass
p25
sg15
V28
p26
sg17
V30
p27
sg18
V40
p28
sbag1
(g2
g3
Ntp29
Rp30
(dp31
g7
V020
p32
sg9
VRaticate
p33
sg11
VS,
p34
sg13
VGrass
p35
sg15
V30
p36
sg17
g36
sg18
V10
p37
sbag1
(g2
g3
Ntp38
Rp39
(dp40
g7
V020
p41
sg9
VRaticate
p42
sg11
VC,
p43
sg13
VGrass
p44
sg15
V30
p45
sg17
g45
sg18
V20
p46
sbag1
(g2
g3
Ntp47
Rp48
(dp49
g7
V024
p50
sg9
VArbok
p51
sg11
g34
sg13
VGrass
p52
sg15
V28
p53
sg17
g53
sg18
V30
p54
sbag1
(g2
g3
Ntp55
Rp56
(dp57
g7
V024
p58
sg9
VArbok
p59
sg11
g43
sg13
VGrass
p60
sg15
V28
p61
sg17
g61
sg18
V30
p62
sbag1
(g2
g3
Ntp63
Rp64
(dp65
g7
V028
p66
sg9
VSandslash
p67
sg11
g12
sg13
VGrass
p68
sg15
V30
p69
sg17
g69
sg18
V5
p70
sbag1
(g2
g3
Ntp71
Rp72
(dp73
g7
V077
p74
sg9
VPonyta
p75
sg11
VG,S,
p76
sg13
VGrass
p77
sg15
V32
p78
sg17
g78
sg18
V5
p79
sbag1
(g2
g3
Ntp80
Rp81
(dp82
g7
V077
p83
sg9
VPonyta
p84
sg11
g43
sg13
VGrass
p85
sg15
V32
p86
sg17
g86
sg18
V5
p87
sbag1
(g2
g3
Ntp88
Rp89
(dp90
g7
V084
p91
sg9
VDoduo
p92
sg11
VG,S,
p93
sg13
VGrass
p94
sg15
V28
p95
sg17
V30
p96
sg18
V50
p97
sbag1
(g2
g3
Ntp98
Rp99
(dp100
g7
V084
p101
sg9
VDoduo
p102
sg11
g43
sg13
VGrass
p103
sg15
V28
p104
sg17
V30
p105
sg18
V40
p106
sbag1
(g2
g3
Ntp107
Rp108
(dp109
g7
V085
p110
sg9
VDodrio
p111
sg11
VS,C,
p112
sg13
VGrass
p113
sg15
V30
p114
sg17
g114
sg18
V5
p115
sbag1
(g2
g3
Ntp116
Rp117
(dp118
g7
V164
p119
sg9
VNoctowl
p120
sg11
g43
sg13
VGrass
p121
sg15
V28
p122
sg17
V32
p123
sg18
V40
p124
sbag1
(g2
g3
Ntp125
Rp126
(dp127
g7
V195
p128
sg9
VQuagsire
p129
sg11
VG,S,
p130
sg13
VGrass
p131
sg15
V28
p132
sg17
g132
sg18
V10
p133
sbag1
(g2
g3
Ntp134
Rp135
(dp136
g7
V195
p137
sg9
VQuagsire
p138
sg11
g12
sg13
VGrass
p139
sg15
V28
p140
sg17
V30
p141
sg18
V50
p142
sbag1
(g2
g3
Ntp143
Rp144
(dp145
g7
V195
p146
sg9
VQuagsire
p147
sg11
g34
sg13
VGrass
p148
sg15
V28
p149
sg17
V32
p150
sg18
V55
p151
sbag1
(g2
g3
Ntp152
Rp153
(dp154
g7
V195
p155
sg9
VQuagsire
p156
sg11
g43
sg13
VGrass
p157
sg15
V28
p158
sg17
V30
p159
sg18
V40
p160
sbag1
(g2
g3
Ntp161
Rp162
(dp163
g7
V072
p164
sg9
VTentacool
p165
sg11
VG,S,C,
p166
sg13
VSurf
p167
sg15
V15
p168
sg17
V24
p169
sg18
V90
p170
sbag1
(g2
g3
Ntp171
Rp172
(dp173
g7
V073
p174
sg9
VTentacruel
p175
sg11
VG,S,C,
p176
sg13
VSurf
p177
sg15
V20
p178
sg17
V24
p179
sg18
V10
p180
sbag1
(g2
g3
Ntp181
Rp182
(dp183
g7
V072
p184
sg9
VTentacool
p185
sg11
VG,S,C,
p186
sg13
VFish Old
p187
sg15
V10
p188
sg17
g188
sg18
V15
p189
sbag1
(g2
g3
Ntp190
Rp191
(dp192
g7
V129
p193
sg9
VMagikarp
p194
sg11
VG,S,C,
p195
sg13
VFish Old
p196
sg15
V10
p197
sg17
g197
sg18
V85
p198
sbag1
(g2
g3
Ntp199
Rp200
(dp201
g7
V072
p202
sg9
VTentacool
p203
sg11
VG,S,C,
p204
sg13
VFish Good
p205
sg15
V20
p206
sg17
g206
sg18
V35
p207
sbag1
(g2
g3
Ntp208
Rp209
(dp210
g7
V090
p211
sg9
VShellder
p212
sg11
VG,S,C,
p213
sg13
VFish Good
p214
sg15
V20
p215
sg17
g215
sg18
V10
p216
sbag1
(g2
g3
Ntp217
Rp218
(dp219
g7
V129
p220
sg9
VMagikarp
p221
sg11
VG,S,C,
p222
sg13
VFish Good
p223
sg15
V20
p224
sg17
g224
sg18
V35
p225
sbag1
(g2
g3
Ntp226
Rp227
(dp228
g7
V170
p229
sg9
VChinchou
p230
sg11
VG,S,C,
p231
sg13
VFish Good
p232
sg15
V20
p233
sg17
g233
sg18
V20
p234
sbag1
(g2
g3
Ntp235
Rp236
(dp237
g7
V073
p238
sg9
VTentacruel
p239
sg11
VG,S,C,
p240
sg13
VFish Super
p241
sg15
V40
p242
sg17
g242
sg18
V20
p243
sbag1
(g2
g3
Ntp244
Rp245
(dp246
g7
V090
p247
sg9
VShellder
p248
sg11
VG,S,C,
p249
sg13
VFish Super
p250
sg15
V40
p251
sg17
g251
sg18
V30
p252
sbag1
(g2
g3
Ntp253
Rp254
(dp255
g7
V170
p256
sg9
VChinchou
p257
sg11
VG,S,C,
p258
sg13
VFish Super
p259
sg15
V40
p260
sg17
g260
sg18
V40
p261
sbag1
(g2
g3
Ntp262
Rp263
(dp264
g7
V171
p265
sg9
VLanturn
p266
sg11
VG,S,C,
p267
sg13
VFish Super
p268
sg15
V40
p269
sg17
g269
sg18
V10
p270
sbag1
(g2
g3
Ntp271
Rp272
(dp273
g7
V010
p274
sg9
VCaterpie
p275
sg11
g12
sg13
VHeadbutt
p276
sg15
V10
p277
sg17
g277
sg18
V65
p278
sbag1
(g2
g3
Ntp279
Rp280
(dp281
g7
V011
p282
sg9
VMetapod
p283
sg11
g12
sg13
VHeadbutt
p284
sg15
V10
p285
sg17
g285
sg18
V15
p286
sbag1
(g2
g3
Ntp287
Rp288
(dp289
g7
V012
p290
sg9
VButterfree
p291
sg11
g12
sg13
VHeadbutt
p292
sg15
V10
p293
sg17
g293
sg18
V5
p294
sbag1
(g2
g3
Ntp295
Rp296
(dp297
g7
V013
p298
sg9
VWeedle
p299
sg11
g34
sg13
VHeadbutt
p300
sg15
V10
p301
sg17
g301
sg18
V65
p302
sbag1
(g2
g3
Ntp303
Rp304
(dp305
g7
V014
p306
sg9
VKakuna
p307
sg11
g34
sg13
VHeadbutt
p308
sg15
V10
p309
sg17
g309
sg18
V15
p310
sbag1
(g2
g3
Ntp311
Rp312
(dp313
g7
V015
p314
sg9
VBeedrill
p315
sg11
g34
sg13
VHeadbutt
p316
sg15
V10
p317
sg17
g317
sg18
V5
p318
sbag1
(g2
g3
Ntp319
Rp320
(dp321
g7
V023
p322
sg9
VEkans
p323
sg11
g43
sg13
VHeadbutt
p324
sg15
V10
p325
sg17
g325
sg18
V15
p326
sbag1
(g2
g3
Ntp327
Rp328
(dp329
g7
V102
p330
sg9
VExeggcute
p331
sg11
VG,S,
p332
sg13
VHeadbutt
p333
sg15
V10
p334
sg17
g334
sg18
V15
p335
sbag1
(g2
g3
Ntp336
Rp337
(dp338
g7
V102
p339
sg9
VExeggcute
p340
sg11
g43
sg13
VHeadbutt
p341
sg15
V10
p342
sg17
g342
sg18
V20
p343
sbag1
(g2
g3
Ntp344
Rp345
(dp346
g7
V163
p347
sg9
VHoothoot
p348
sg11
g43
sg13
VHeadbutt
p349
sg15
V10
p350
sg17
g350
sg18
V65
p351
sbag1
(g2
g3
Ntp352
Rp353
(dp354
g7
V010
p355
sg9
VCaterpie
p356
sg11
g12
sg13
VHeadbutt
p357
sg15
V10
p358
sg17
g358
sg18
V50
p359
sbag1
(g2
g3
Ntp360
Rp361
(dp362
g7
V012
p363
sg9
VButterfree
p364
sg11
g12
sg13
VHeadbutt
p365
sg15
V10
p366
sg17
g366
sg18
V5
p367
sbag1
(g2
g3
Ntp368
Rp369
(dp370
g7
V013
p371
sg9
VWeedle
p372
sg11
g34
sg13
VHeadbutt
p373
sg15
V10
p374
sg17
g374
sg18
V50
p375
sbag1
(g2
g3
Ntp376
Rp377
(dp378
g7
V015
p379
sg9
VBeedrill
p380
sg11
g34
sg13
VHeadbutt
p381
sg15
V10
p382
sg17
g382
sg18
V5
p383
sbag1
(g2
g3
Ntp384
Rp385
(dp386
g7
V102
p387
sg9
VExeggcute
p388
sg11
VG,S,
p389
sg13
VHeadbutt
p390
sg15
V10
p391
sg17
g391
sg18
V15
p392
sbag1
(g2
g3
Ntp393
Rp394
(dp395
g7
V102
p396
sg9
VExeggcute
p397
sg11
g43
sg13
VHeadbutt
p398
sg15
V10
p399
sg17
g399
sg18
V20
p400
sbag1
(g2
g3
Ntp401
Rp402
(dp403
g7
V163
p404
sg9
VHoothoot
p405
sg11
g43
sg13
VHeadbutt
p406
sg15
V10
p407
sg17
g407
sg18
V50
p408
sbag1
(g2
g3
Ntp409
Rp410
(dp411
g7
V204
p412
sg9
VPineco
p413
sg11
VG,S,C,
p414
sg13
VHeadbutt
p415
sg15
V10
p416
sg17
g416
sg18
V30
p417
sbag1
(g2
g3
Ntp418
Rp419
(dp420
g7
V020
p421
sg9
VRaticate
p422
sg11
VHG,
p423
sg13
VGrass
p424
sg15
V28
p425
sg17
V30
p426
sg18
V40
p427
sbag1
(g2
g3
Ntp428
Rp429
(dp430
g7
V020
p431
sg9
VRaticate
p432
sg11
VSS,
p433
sg13
VGrass
p434
sg15
V30
p435
sg17
g435
sg18
V20
p436
sbag1
(g2
g3
Ntp437
Rp438
(dp439
g7
V024
p440
sg9
VArbok
p441
sg11
g433
sg13
VGrass
p442
sg15
V28
p443
sg17
g443
sg18
V30
p444
sbag1
(g2
g3
Ntp445
Rp446
(dp447
g7
V028
p448
sg9
VSandslash
p449
sg11
g423
sg13
VGrass
p450
sg15
V20
p451
sg17
g451
sg18
V5
p452
sbag1
(g2
g3
Ntp453
Rp454
(dp455
g7
V077
p456
sg9
VPonyta
p457
sg11
VHG,SS,
p458
sg13
VGrass
p459
sg15
V32
p460
sg17
g460
sg18
V5
p461
sbag1
(g2
g3
Ntp462
Rp463
(dp464
g7
V084
p465
sg9
VDoduo
p466
sg11
g423
sg13
VGrass
p467
sg15
V28
p468
sg17
V30
p469
sg18
V50
p470
sbag1
(g2
g3
Ntp471
Rp472
(dp473
g7
V084
p474
sg9
VDoduo
p475
sg11
g433
sg13
VGrass
p476
sg15
V28
p477
sg17
V30
p478
sg18
V40
p479
sbag1
(g2
g3
Ntp480
Rp481
(dp482
g7
V085
p483
sg9
VDodrio
p484
sg11
g433
sg13
VGrass
p485
sg15
V30
p486
sg17
g486
sg18
V5
p487
sbag1
(g2
g3
Ntp488
Rp489
(dp490
g7
V195
p491
sg9
VQuagsire
p492
sg11
g423
sg13
VGrass
p493
sg15
V28
p494
sg17
V30
p495
sg18
V50
p496
sbag1
(g2
g3
Ntp497
Rp498
(dp499
g7
V195
p500
sg9
VQuagsire
p501
sg11
g433
sg13
VGrass
p502
sg15
V28
p503
sg17
V30
p504
sg18
V55
p505
sbag1
(g2
g3
Ntp506
Rp507
(dp508
g7
V072
p509
sg9
VTentacool
p510
sg11
VHG,SS,
p511
sg13
VSurf
p512
sg15
V15
p513
sg17
V20
p514
sg18
V90
p515
sbag1
(g2
g3
Ntp516
Rp517
(dp518
g7
V073
p519
sg9
VTentacruel
p520
sg11
VHG,SS,
p521
sg13
VSurf
p522
sg15
V20
p523
sg17
g523
sg18
V10
p524
sbag1
(g2
g3
Ntp525
Rp526
(dp527
g7
V072
p528
sg9
VTentacool
p529
sg11
VHG,SS,
p530
sg13
VFish Old
p531
sg15
V10
p532
sg17
g532
sg18
V5
p533
sbag1
(g2
g3
Ntp534
Rp535
(dp536
g7
V129
p537
sg9
VMagikarp
p538
sg11
VHG,SS,
p539
sg13
VFish Old
p540
sg15
V10
p541
sg17
g541
sg18
V95
p542
sbag1
(g2
g3
Ntp543
Rp544
(dp545
g7
V072
p546
sg9
VTentacool
p547
sg11
VHG,SS,
p548
sg13
VFish Good
p549
sg15
V20
p550
sg17
g550
sg18
V30
p551
sbag1
(g2
g3
Ntp552
Rp553
(dp554
g7
V090
p555
sg9
VShellder
p556
sg11
VHG,SS,
p557
sg13
VFish Good
p558
sg15
V20
p559
sg17
g559
sg18
V3
p560
sbag1
(g2
g3
Ntp561
Rp562
(dp563
g7
V129
p564
sg9
VMagikarp
p565
sg11
VHG,SS,
p566
sg13
VFish Good
p567
sg15
V20
p568
sg17
g568
sg18
V60
p569
sbag1
(g2
g3
Ntp570
Rp571
(dp572
g7
V170
p573
sg9
VChinchou
p574
sg11
VHG,SS,
p575
sg13
VFish Good
p576
sg15
V20
p577
sg17
g577
sg18
V7
p578
sbag1
(g2
g3
Ntp579
Rp580
(dp581
g7
V073
p582
sg9
VTentacruel
p583
sg11
VHG,SS,
p584
sg13
VFish Super
p585
sg15
V40
p586
sg17
g586
sg18
V7
p587
sbag1
(g2
g3
Ntp588
Rp589
(dp590
g7
V090
p591
sg9
VShellder
p592
sg11
VHG,SS,
p593
sg13
VFish Super
p594
sg15
V40
p595
sg17
g595
sg18
V30
p596
sbag1
(g2
g3
Ntp597
Rp598
(dp599
g7
V170
p600
sg9
VChinchou
p601
sg11
VHG,SS,
p602
sg13
VFish Super
p603
sg15
V40
p604
sg17
g604
sg18
V60
p605
sbag1
(g2
g3
Ntp606
Rp607
(dp608
g7
V171
p609
sg9
VLanturn
p610
sg11
VHG,SS,
p611
sg13
VFish Super
p612
sg15
V40
p613
sg17
g613
sg18
V3
p614
sbag1
(g2
g3
Ntp615
Rp616
(dp617
g7
V102
p618
sg9
VExeggcute
p619
sg11
VHG,SS,
p620
sg13
VHeadbutt
p621
sg15
V28
p622
sg17
V32
p623
sg18
V20
p624
sbag1
(g2
g3
Ntp625
Rp626
(dp627
g7
V163
p628
sg9
VHoothoot
p629
sg11
VHG,SS,
p630
sg13
VHeadbutt
p631
sg15
V28
p632
sg17
V32
p633
sg18
V50
p634
sbag1
(g2
g3
Ntp635
Rp636
(dp637
g7
V165
p638
sg9
VLedyba
p639
sg11
g433
sg13
VHeadbutt
p640
sg15
V31
p641
sg17
V32
p642
sg18
V30
p643
sbag1
(g2
g3
Ntp644
Rp645
(dp646
g7
V167
p647
sg9
VSpinarak
p648
sg11
g423
sg13
VHeadbutt
p649
sg15
V31
p650
sg17
V32
p651
sg18
V30
p652
sbag1
(g2
g3
Ntp653
Rp654
(dp655
g7
V204
p656
sg9
VPineco
p657
sg11
VHG,SS,
p658
sg13
VHeadbutt
p659
sg15
V28
p660
sg17
V29
p661
sg18
V30
p662
sbag1
(g2
g3
Ntp663
Rp664
(dp665
g7
V370
p666
sg9
VLuvdisc
p667
sg11
VHG,SS,
p668
sg13
VSwarm
p669
sg15
V20
p670
sg17
g670
sg18
V0
p671
sbag1
(g2
g3
Ntp672
Rp673
(dp674
g7
V264
p675
sg9
VLinoone
p676
sg11
VHG,SS,
p677
sg13
VHoenn
p678
sg15
V30
p679
sg17
g679
sg18
V20
p680
sbag1
(g2
g3
Ntp681
Rp682
(dp683
g7
V293
p684
sg9
VWhismur
p685
sg11
VHG,SS,
p686
sg13
VHoenn
p687
sg15
V28
p688
sg17
g688
sg18
V20
p689
sbag1
(g2
g3
Ntp690
Rp691
(dp692
g7
V399
p693
sg9
VBidoof
p694
sg11
VHG,SS,
p695
sg13
VSinnoh
p696
sg15
V30
p697
sg17
g697
sg18
V20
p698
sbag1
(g2
g3
Ntp699
Rp700
(dp701
g7
V418
p702
sg9
VBuizel
p703
sg11
VHG,SS,
p704
sg13
VSinnoh
p705
sg15
V28
p706
sg17
g706
sg18
V20
p707
sba.