(lp0
ccopy_reg
_reconstructor
p1
(c__main__
WildPokemon
p2
c__builtin__
object
p3
Ntp4
Rp5
(dp6
VpDexNo
p7
V016
p8
sVpSpecies
p9
VPidgey
p10
sVpGames
p11
VR,B,
p12
sVpArea
p13
VGrass
p14
sVpMinLevel
p15
V23
p16
sVpMaxLevel
p17
g16
sVpRate
p18
V15
p19
sbag1
(g2
g3
Ntp20
Rp21
(dp22
g7
V017
p23
sg9
VPidgeotto
p24
sg11
VR,B,
p25
sg13
VGrass
p26
sg15
V28
p27
sg17
V30
p28
sg18
V5
p29
sbag1
(g2
g3
Ntp30
Rp31
(dp32
g7
V017
p33
sg9
VPidgeotto
p34
sg11
VY,
p35
sg13
VGrass
p36
sg15
V32
p37
sg17
g37
sg18
V10
p38
sbag1
(g2
g3
Ntp39
Rp40
(dp41
g7
V043
p42
sg9
VOddish
p43
sg11
VR,
p44
sg13
VGrass
p45
sg15
V22
p46
sg17
V26
p47
sg18
V40
p48
sbag1
(g2
g3
Ntp49
Rp50
(dp51
g7
V043
p52
sg9
VOddish
p53
sg11
g35
sg13
VGrass
p54
sg15
V26
p55
sg17
V28
p56
sg18
V35
p57
sbag1
(g2
g3
Ntp58
Rp59
(dp60
g7
V044
p61
sg9
VGloom
p62
sg11
VR,Y,
p63
sg13
VGrass
p64
sg15
V30
p65
sg17
g65
sg18
V5
p66
sbag1
(g2
g3
Ntp67
Rp68
(dp69
g7
V048
p70
sg9
VVenonat
p71
sg11
VR,B,
p72
sg13
VGrass
p73
sg15
V26
p74
sg17
V28
p75
sg18
V20
p76
sbag1
(g2
g3
Ntp77
Rp78
(dp79
g7
V048
p80
sg9
VVenonat
p81
sg11
g35
sg13
VGrass
p82
sg15
V24
p83
sg17
V27
p84
sg18
V19
p85
sbag1
(g2
g3
Ntp86
Rp87
(dp88
g7
V049
p89
sg9
VVenomoth
p90
sg11
g35
sg13
VGrass
p91
sg15
V30
p92
sg17
g92
sg18
V1
p93
sbag1
(g2
g3
Ntp94
Rp95
(dp96
g7
V069
p97
sg9
VBellsprout
p98
sg11
VB,
p99
sg13
VGrass
p100
sg15
V22
p101
sg17
V26
p102
sg18
V40
p103
sbag1
(g2
g3
Ntp104
Rp105
(dp106
g7
V069
p107
sg9
VBellsprout
p108
sg11
g35
sg13
VGrass
p109
sg15
V26
p110
sg17
V28
p111
sg18
V25
p112
sbag1
(g2
g3
Ntp113
Rp114
(dp115
g7
V070
p116
sg9
VWeepinbell
p117
sg11
VB,Y,
p118
sg13
VGrass
p119
sg15
V30
p120
sg17
g120
sg18
V5
p121
sbag1
(g2
g3
Ntp122
Rp123
(dp124
g7
V132
p125
sg9
VDitto
p126
sg11
VR,B,
p127
sg13
VGrass
p128
sg15
V26
p129
sg17
g129
sg18
V15
p130
sbag1
(g2
g3
Ntp131
Rp132
(dp133
g7
V030
p134
sg9
VNidorina
p135
sg11
VG,S,
p136
sg13
VGrass
p137
sg15
V23
p138
sg17
g138
sg18
V30
p139
sbag1
(g2
g3
Ntp140
Rp141
(dp142
g7
V030
p143
sg9
VNidorina
p144
sg11
VC,
p145
sg13
VGrass
p146
sg15
V23
p147
sg17
g147
sg18
V30
p148
sbag1
(g2
g3
Ntp149
Rp150
(dp151
g7
V033
p152
sg9
VNidorino
p153
sg11
VG,S,
p154
sg13
VGrass
p155
sg15
V23
p156
sg17
g156
sg18
V30
p157
sbag1
(g2
g3
Ntp158
Rp159
(dp160
g7
V033
p161
sg9
VNidorino
p162
sg11
g145
sg13
VGrass
p163
sg15
V23
p164
sg17
g164
sg18
V30
p165
sbag1
(g2
g3
Ntp166
Rp167
(dp168
g7
V113
p169
sg9
VChansey
p170
sg11
VG,S,C,
p171
sg13
VGrass
p172
sg15
V25
p173
sg17
g173
sg18
V1
p174
sbag1
(g2
g3
Ntp175
Rp176
(dp177
g7
V017
p178
sg9
VPidgeotto
p179
sg11
VG,S,C,
p180
sg13
VGrass
p181
sg15
V25
p182
sg17
g182
sg18
V20
p183
sbag1
(g2
g3
Ntp184
Rp185
(dp186
g7
V187
p187
sg9
VHoppip
p188
sg11
VG,S,
p189
sg13
VGrass
p190
sg15
V22
p191
sg17
V24
p192
sg18
V19
p193
sbag1
(g2
g3
Ntp194
Rp195
(dp196
g7
V187
p197
sg9
VHoppip
p198
sg11
g145
sg13
VGrass
p199
sg15
V25
p200
sg17
V27
p201
sg18
V19
p202
sbag1
(g2
g3
Ntp203
Rp204
(dp205
g7
V195
p206
sg9
VQuagsire
p207
sg11
VG,S,
p208
sg13
VGrass
p209
sg15
V22
p210
sg17
g210
sg18
V4
p211
sbag1
(g2
g3
Ntp212
Rp213
(dp214
g7
V195
p215
sg9
VQuagsire
p216
sg11
VG,S,
p217
sg13
VGrass
p218
sg15
V22
p219
sg17
V24
p220
sg18
V19
p221
sbag1
(g2
g3
Ntp222
Rp223
(dp224
g7
V195
p225
sg9
VQuagsire
p226
sg11
g145
sg13
VGrass
p227
sg15
V23
p228
sg17
V25
p229
sg18
V39
p230
sbag1
(g2
g3
Ntp231
Rp232
(dp233
g7
V048
p234
sg9
VVenonat
p235
sg11
g145
sg13
VGrass
p236
sg15
V23
p237
sg17
g237
sg18
V30
p238
sbag1
(g2
g3
Ntp239
Rp240
(dp241
g7
V164
p242
sg9
VNoctowl
p243
sg11
VG,S,C,
p244
sg13
VGrass
p245
sg15
V25
p246
sg17
g246
sg18
V20
p247
sbag1
(g2
g3
Ntp248
Rp249
(dp250
g7
V049
p251
sg9
VVenomoth
p252
sg11
g145
sg13
VGrass
p253
sg15
V25
p254
sg17
g254
sg18
V10
p255
sbag1
(g2
g3
Ntp256
Rp257
(dp258
g7
V043
p259
sg9
VOddish
p260
sg11
VFR,
p261
sg13
VGrass
p262
sg15
V22
p263
sg17
V26
p264
sg18
V35
p265
sbag1
(g2
g3
Ntp266
Rp267
(dp268
g7
V069
p269
sg9
VBellsprout
p270
sg11
VLG,
p271
sg13
VGrass
p272
sg15
V22
p273
sg17
V26
p274
sg18
V35
p275
sbag1
(g2
g3
Ntp276
Rp277
(dp278
g7
V048
p279
sg9
VVenonat
p280
sg11
VFR,LG,
p281
sg13
VGrass
p282
sg15
V24
p283
sg17
V26
p284
sg18
V30
p285
sbag1
(g2
g3
Ntp286
Rp287
(dp288
g7
V016
p289
sg9
VPidgey
p290
sg11
VFR,LG,
p291
sg13
VGrass
p292
sg15
V25
p293
sg17
V27
p294
sg18
V20
p295
sbag1
(g2
g3
Ntp296
Rp297
(dp298
g7
V017
p299
sg9
VPidgeotto
p300
sg11
VFR,LG,
p301
sg13
VGrass
p302
sg15
V29
p303
sg17
g303
sg18
V5
p304
sbag1
(g2
g3
Ntp305
Rp306
(dp307
g7
V044
p308
sg9
VGloom
p309
sg11
g261
sg13
VGrass
p310
sg15
V28
p311
sg17
V30
p312
sg18
V5
p313
sbag1
(g2
g3
Ntp314
Rp315
(dp316
g7
V070
p317
sg9
VWeepinbell
p318
sg11
g271
sg13
VGrass
p319
sg15
V28
p320
sg17
V30
p321
sg18
V5
p322
sbag1
(g2
g3
Ntp323
Rp324
(dp325
g7
V132
p326
sg9
VDitto
p327
sg11
VFR,LG,
p328
sg13
VGrass
p329
sg15
V25
p330
sg17
g330
sg18
V5
p331
sbag1
(g2
g3
Ntp332
Rp333
(dp334
g7
V030
p335
sg9
VNidorina
p336
sg11
VHG,SS,
p337
sg13
VGrass
p338
sg15
V23
p339
sg17
g339
sg18
V30
p340
sbag1
(g2
g3
Ntp341
Rp342
(dp343
g7
V033
p344
sg9
VNidorino
p345
sg11
VHG,SS,
p346
sg13
VGrass
p347
sg15
V23
p348
sg17
g348
sg18
V30
p349
sbag1
(g2
g3
Ntp350
Rp351
(dp352
g7
V113
p353
sg9
VChansey
p354
sg11
VHG,SS,
p355
sg13
VGrass
p356
sg15
V25
p357
sg17
g357
sg18
V1
p358
sbag1
(g2
g3
Ntp359
Rp360
(dp361
g7
V017
p362
sg9
VPidgeotto
p363
sg11
VHG,SS,
p364
sg13
VGrass
p365
sg15
V25
p366
sg17
g366
sg18
V20
p367
sbag1
(g2
g3
Ntp368
Rp369
(dp370
g7
V187
p371
sg9
VHoppip
p372
sg11
VHG,SS,
p373
sg13
VGrass
p374
sg15
V22
p375
sg17
V24
p376
sg18
V19
p377
sbag1
(g2
g3
Ntp378
Rp379
(dp380
g7
V164
p381
sg9
VNoctowl
p382
sg11
VHG,SS,
p383
sg13
VGrass
p384
sg15
V25
p385
sg17
g385
sg18
V20
p386
sbag1
(g2
g3
Ntp387
Rp388
(dp389
g7
V195
p390
sg9
VQuagsire
p391
sg11
VHG,SS,
p392
sg13
VGrass
p393
sg15
V22
p394
sg17
V24
p395
sg18
V19
p396
sbag1
(g2
g3
Ntp397
Rp398
(dp399
g7
V114
p400
sg9
VTangela
p401
sg11
VHG,SS,
p402
sg13
VHeadbutt
p403
sg15
V24
p404
sg17
V26
p405
sg18
V15
p406
sbag1
(g2
g3
Ntp407
Rp408
(dp409
g7
V163
p410
sg9
VHoothoot
p411
sg11
VHG,SS,
p412
sg13
VHeadbutt
p413
sg15
V21
p414
sg17
V23
p415
sg18
V50
p416
sbag1
(g2
g3
Ntp417
Rp418
(dp419
g7
V163
p420
sg9
VHoothoot
p421
sg11
VHG,SS,
p422
sg13
VHeadbutt
p423
sg15
V24
p424
sg17
V26
p425
sg18
V65
p426
sbag1
(g2
g3
Ntp427
Rp428
(dp429
g7
V265
p430
sg9
VWurmple
p431
sg11
VHG,SS,
p432
sg13
VHeadbutt
p433
sg15
V21
p434
sg17
V26
p435
sg18
V20
p436
sbag1
(g2
g3
Ntp437
Rp438
(dp439
g7
V167
p440
sg9
VSpinarak
p441
sg11
VHG,
p442
sg13
VHeadbutt
p443
sg15
V21
p444
sg17
V23
p445
sg18
V30
p446
sbag1
(g2
g3
Ntp447
Rp448
(dp449
g7
V165
p450
sg9
VLedyba
p451
sg11
VSS,
p452
sg13
VHeadbutt
p453
sg15
V21
p454
sg17
V23
p455
sg18
V30
p456
sbag1
(g2
g3
Ntp457
Rp458
(dp459
g7
V311
p460
sg9
VPlusle
p461
sg11
VHG,SS,
p462
sg13
VHoenn
p463
sg15
V23
p464
sg17
g464
sg18
V20
p465
sbag1
(g2
g3
Ntp466
Rp467
(dp468
g7
V312
p469
sg9
VMinun
p470
sg11
VHG,SS,
p471
sg13
VHoenn
p472
sg15
V25
p473
sg17
g473
sg18
V20
p474
sbag1
(g2
g3
Ntp475
Rp476
(dp477
g7
V403
p478
sg9
VShinx
p479
sg11
VHG,SS,
p480
sg13
VSinnoh
p481
sg15
V23
p482
sg17
V25
p483
sg18
V40
p484
sbag1
(g2
g3
Ntp485
Rp486
(dp487
g7
V016
p488
sg9
VPidgey
p489
sg11
VPi,Ev,
p490
sg13
VGrass
p491
sg15
V33
p492
sg17
V38
p493
sg18
V20
p494
sbag1
(g2
g3
Ntp495
Rp496
(dp497
g7
V017
p498
sg9
VPidgeotto
p499
sg11
VPi,Ev,
p500
sg13
VGrass
p501
sg15
V33
p502
sg17
V38
p503
sg18
V20
p504
sbag1
(g2
g3
Ntp505
Rp506
(dp507
g7
V043
p508
sg9
VOddish
p509
sg11
VPi,
p510
sg13
VGrass
p511
sg15
V33
p512
sg17
V38
p513
sg18
V15
p514
sbag1
(g2
g3
Ntp515
Rp516
(dp517
g7
V044
p518
sg9
VGloom
p519
sg11
g510
sg13
VGrass
p520
sg15
V33
p521
sg17
V38
p522
sg18
V15
p523
sbag1
(g2
g3
Ntp524
Rp525
(dp526
g7
V048
p527
sg9
VVenonat
p528
sg11
VPi,Ev,
p529
sg13
VGrass
p530
sg15
V33
p531
sg17
V38
p532
sg18
V15
p533
sbag1
(g2
g3
Ntp534
Rp535
(dp536
g7
V049
p537
sg9
VVenomoth
p538
sg11
VPi,Ev,
p539
sg13
VGrass
p540
sg15
V33
p541
sg17
V38
p542
sg18
V9
p543
sbag1
(g2
g3
Ntp544
Rp545
(dp546
g7
V069
p547
sg9
VBellsprout
p548
sg11
VEv,
p549
sg13
VGrass
p550
sg15
V33
p551
sg17
V38
p552
sg18
V15
p553
sbag1
(g2
g3
Ntp554
Rp555
(dp556
g7
V070
p557
sg9
VWeepinbell
p558
sg11
g549
sg13
VGrass
p559
sg15
V33
p560
sg17
V38
p561
sg18
V15
p562
sbag1
(g2
g3
Ntp563
Rp564
(dp565
g7
V123
p566
sg9
VScyther
p567
sg11
g510
sg13
VGrass
p568
sg15
V33
p569
sg17
V38
p570
sg18
V1
p571
sbag1
(g2
g3
Ntp572
Rp573
(dp574
g7
V127
p575
sg9
VPinsir
p576
sg11
g549
sg13
VGrass
p577
sg15
V33
p578
sg17
V38
p579
sg18
V1
p580
sbag1
(g2
g3
Ntp581
Rp582
(dp583
g7
V128
p584
sg9
VTauros
p585
sg11
VPi,Ev,
p586
sg13
VGrass
p587
sg15
V33
p588
sg17
V38
p589
sg18
V5
p590
sbag1
(g2
g3
Ntp591
Rp592
(dp593
g7
V113
p594
sg9
VChansey
p595
sg11
VPi,Ev,
p596
sg13
VGrass
p597
sg15
V33
p598
sg17
V38
p599
sg18
V0
p600
sbag1
(g2
g3
Ntp601
Rp602
(dp603
g7
V016
p604
sg9
VPidgey
p605
sg11
VPi,Ev,
p606
sg13
VSky
p607
sg15
V3
p608
sg17
V56
p609
sg18
V60
p610
sbag1
(g2
g3
Ntp611
Rp612
(dp613
g7
V017
p614
sg9
VPidgeotto
p615
sg11
VPi,Ev,
p616
sg13
VSky
p617
sg15
g608
sg17
V56
p618
sg18
V35
p619
sbag1
(g2
g3
Ntp620
Rp621
(dp622
g7
V018
p623
sg9
VPidgeot
p624
sg11
VPi,Ev,
p625
sg13
VSky
p626
sg15
g608
sg17
V56
p627
sg18
V5
p628
sbag1
(g2
g3
Ntp629
Rp630
(dp631
g7
V006
p632
sg9
VCharizard
p633
sg11
VPi,Ev,
p634
sg13
VSky
p635
sg15
g608
sg17
V56
p636
sg18
V0
p637
sbag1
(g2
g3
Ntp638
Rp639
(dp640
g7
V144
p641
sg9
VArticuno
p642
sg11
VPi,Ev,
p643
sg13
VSky
p644
sg15
g608
sg17
V56
p645
sg18
V0
p646
sbag1
(g2
g3
Ntp647
Rp648
(dp649
g7
V145
p650
sg9
VZapdos
p651
sg11
VPi,Ev,
p652
sg13
VSky
p653
sg15
g608
sg17
V56
p654
sg18
V0
p655
sbag1
(g2
g3
Ntp656
Rp657
(dp658
g7
V146
p659
sg9
VMoltres
p660
sg11
VPi,Ev,
p661
sg13
VSky
p662
sg15
g608
sg17
V56
p663
sg18
V0
p664
sbag1
(g2
g3
Ntp665
Rp666
(dp667
g7
V149
p668
sg9
VDragonite
p669
sg11
VPi,Ev,
p670
sg13
VSky
p671
sg15
g608
sg17
V56
p672
sg18
V0
p673
sba.