(lp0
ccopy_reg
_reconstructor
p1
(c__main__
WildPokemon
p2
c__builtin__
object
p3
Ntp4
Rp5
(dp6
VpDexNo
p7
V019
p8
sVpSpecies
p9
VRattata
p10
sVpGames
p11
VR,B,
p12
sVpArea
p13
VGrass
p14
sVpMinLevel
p15
V2
p16
sVpMaxLevel
p17
V4
p18
sVpRate
p19
V45
p20
sbag1
(g2
g3
Ntp21
Rp22
(dp23
g7
V019
p24
sg9
VRattata
p25
sg11
VY,
p26
sg13
VGrass
p27
sg15
V3
p28
sg17
g28
sg19
V10
p29
sbag1
(g2
g3
Ntp30
Rp31
(dp32
g7
V021
p33
sg9
VSpearow
p34
sg11
VR,B,
p35
sg13
VGrass
p36
sg15
g28
sg17
V5
p37
sg19
V10
p38
sbag1
(g2
g3
Ntp39
Rp40
(dp41
g7
V021
p42
sg9
VSpearow
p43
sg11
g26
sg13
VGrass
p44
sg15
g16
sg17
V6
p45
sg19
V10
p46
sbag1
(g2
g3
Ntp47
Rp48
(dp49
g7
V029
p50
sg9
VNidoran\u2640
p51
sg11
VR,
p52
sg13
VGrass
p53
sg15
g28
sg17
g18
sg19
V5
p54
sbag1
(g2
g3
Ntp55
Rp56
(dp57
g7
V029
p58
sg9
VNidoran\u2640
p59
sg11
VB,
p60
sg13
VGrass
p61
sg15
g16
sg17
g18
sg19
V40
p62
sbag1
(g2
g3
Ntp63
Rp64
(dp65
g7
V029
p66
sg9
VNidoran\u2640
p67
sg11
g26
sg13
VGrass
p68
sg15
g16
sg17
g18
sg19
V25
p69
sbag1
(g2
g3
Ntp70
Rp71
(dp72
g7
V032
p73
sg9
VNidoran\u2642
p74
sg11
g52
sg13
VGrass
p75
sg15
g16
sg17
g18
sg19
V40
p76
sbag1
(g2
g3
Ntp77
Rp78
(dp79
g7
V032
p80
sg9
VNidoran\u2642
p81
sg11
g60
sg13
VGrass
p82
sg15
g28
sg17
g18
sg19
V5
p83
sbag1
(g2
g3
Ntp84
Rp85
(dp86
g7
V032
p87
sg9
VNidoran\u2642
p88
sg11
g26
sg13
VGrass
p89
sg15
g16
sg17
g18
sg19
V35
p90
sbag1
(g2
g3
Ntp91
Rp92
(dp93
g7
V056
p94
sg9
VMankey
p95
sg11
g26
sg13
VGrass
p96
sg15
g28
sg17
g37
sg19
V20
p97
sbag1
(g2
g3
Ntp98
Rp99
(dp100
g7
V129
p101
sg9
VMagikarp
p102
sg11
VR,B,Y,
p103
sg13
VFish Old
p104
sg15
g37
sg17
g37
sg19
V100
p105
sbag1
(g2
g3
Ntp106
Rp107
(dp108
g7
V060
p109
sg9
VPoliwag
p110
sg11
VR,B,Y,
p111
sg13
VFish Good
p112
sg15
V10
p113
sg17
g113
sg19
V50
p114
sbag1
(g2
g3
Ntp115
Rp116
(dp117
g7
V118
p118
sg9
VGoldeen
p119
sg11
VR,B,Y,
p120
sg13
VFish Good
p121
sg15
V10
p122
sg17
g122
sg19
V50
p123
sbag1
(g2
g3
Ntp124
Rp125
(dp126
g7
V060
p127
sg9
VPoliwag
p128
sg11
VR,B,
p129
sg13
VFish Super
p130
sg15
V15
p131
sg17
g131
sg19
V50
p132
sbag1
(g2
g3
Ntp133
Rp134
(dp135
g7
V060
p136
sg9
VPoliwag
p137
sg11
g26
sg13
VFish Super
p138
sg15
g37
sg17
V15
p139
sg19
V90
p140
sbag1
(g2
g3
Ntp141
Rp142
(dp143
g7
V061
p144
sg9
VPoliwhirl
p145
sg11
g26
sg13
VFish Super
p146
sg15
V15
p147
sg17
g147
sg19
V10
p148
sbag1
(g2
g3
Ntp149
Rp150
(dp151
g7
V118
p152
sg9
VGoldeen
p153
sg11
VR,B,
p154
sg13
VFish Super
p155
sg15
V15
p156
sg17
g156
sg19
V50
p157
sbag1
(g2
g3
Ntp158
Rp159
(dp160
g7
V019
p161
sg9
VRattata
p162
sg11
VG,S,C,
p163
sg13
VGrass
p164
sg15
g28
sg17
g28
sg19
V30
p165
sbag1
(g2
g3
Ntp166
Rp167
(dp168
g7
V019
p169
sg9
VRattata
p170
sg11
VG,S,
p171
sg13
VGrass
p172
sg15
g28
sg17
V7
p173
sg19
V95
p174
sbag1
(g2
g3
Ntp175
Rp176
(dp177
g7
V019
p178
sg9
VRattata
p179
sg11
VC,
p180
sg13
VGrass
p181
sg15
g28
sg17
g173
sg19
V60
p182
sbag1
(g2
g3
Ntp183
Rp184
(dp185
g7
V021
p186
sg9
VSpearow
p187
sg11
VG,S,C,
p188
sg13
VGrass
p189
sg15
g28
sg17
g37
sg19
V50
p190
sbag1
(g2
g3
Ntp191
Rp192
(dp193
g7
V022
p194
sg9
VFearow
p195
sg11
VG,S,C,
p196
sg13
VGrass
p197
sg15
g173
sg17
g173
sg19
V5
p198
sbag1
(g2
g3
Ntp199
Rp200
(dp201
g7
V060
p202
sg9
VPoliwag
p203
sg11
g180
sg13
VGrass
p204
sg15
g28
sg17
g18
sg19
V40
p205
sbag1
(g2
g3
Ntp206
Rp207
(dp208
g7
V077
p209
sg9
VPonyta
p210
sg11
VG,S,
p211
sg13
VGrass
p212
sg15
g45
sg17
g45
sg19
V5
p213
sbag1
(g2
g3
Ntp214
Rp215
(dp216
g7
V077
p217
sg9
VPonyta
p218
sg11
g180
sg13
VGrass
p219
sg15
g45
sg17
g45
sg19
V5
p220
sbag1
(g2
g3
Ntp221
Rp222
(dp223
g7
V084
p224
sg9
VDoduo
p225
sg11
VG,S,C,
p226
sg13
VGrass
p227
sg15
g18
sg17
g18
sg19
V10
p228
sbag1
(g2
g3
Ntp229
Rp230
(dp231
g7
V060
p232
sg9
VPoliwag
p233
sg11
VG,S,C,
p234
sg13
VSurf
p235
sg15
g37
sg17
V14
p236
sg19
V90
p237
sbag1
(g2
g3
Ntp238
Rp239
(dp240
g7
V061
p241
sg9
VPoliwhirl
p242
sg11
VG,S,C,
p243
sg13
VSurf
p244
sg15
V10
p245
sg17
V14
p246
sg19
V10
p247
sbag1
(g2
g3
Ntp248
Rp249
(dp250
g7
V060
p251
sg9
VPoliwag
p252
sg11
VG,S,C,
p253
sg13
VFish Old
p254
sg15
V10
p255
sg17
g255
sg19
V15
p256
sbag1
(g2
g3
Ntp257
Rp258
(dp259
g7
V129
p260
sg9
VMagikarp
p261
sg11
VG,S,C,
p262
sg13
VFish Old
p263
sg15
V10
p264
sg17
g264
sg19
V85
p265
sbag1
(g2
g3
Ntp266
Rp267
(dp268
g7
V060
p269
sg9
VPoliwag
p270
sg11
VG,S,C,
p271
sg13
VFish Good
p272
sg15
V20
p273
sg17
g273
sg19
V65
p274
sbag1
(g2
g3
Ntp275
Rp276
(dp277
g7
V129
p278
sg9
VMagikarp
p279
sg11
VG,S,C,
p280
sg13
VFish Good
p281
sg15
V20
p282
sg17
g282
sg19
V35
p283
sbag1
(g2
g3
Ntp284
Rp285
(dp286
g7
V060
p287
sg9
VPoliwag
p288
sg11
VG,S,C,
p289
sg13
VFish Super
p290
sg15
V40
p291
sg17
g291
sg19
V80
p292
sbag1
(g2
g3
Ntp293
Rp294
(dp295
g7
V129
p296
sg9
VMagikarp
p297
sg11
VG,S,C,
p298
sg13
VFish Super
p299
sg15
V40
p300
sg17
g300
sg19
V20
p301
sbag1
(g2
g3
Ntp302
Rp303
(dp304
g7
V019
p305
sg9
VRattata
p306
sg11
VFR,LG,
p307
sg13
VGrass
p308
sg15
g16
sg17
g37
sg19
V45
p309
sbag1
(g2
g3
Ntp310
Rp311
(dp312
g7
V056
p313
sg9
VMankey
p314
sg11
VFR,LG,
p315
sg13
VGrass
p316
sg15
g16
sg17
g37
sg19
V45
p317
sbag1
(g2
g3
Ntp318
Rp319
(dp320
g7
V021
p321
sg9
VSpearow
p322
sg11
VFR,LG,
p323
sg13
VGrass
p324
sg15
g28
sg17
g37
sg19
V10
p325
sbag1
(g2
g3
Ntp326
Rp327
(dp328
g7
V054
p329
sg9
VPsyduck
p330
sg11
VFR,
p331
sg13
VSurf
p332
sg15
V20
p333
sg17
V40
p334
sg19
V100
p335
sbag1
(g2
g3
Ntp336
Rp337
(dp338
g7
V079
p339
sg9
VSlowpoke
p340
sg11
VLG,
p341
sg13
VSurf
p342
sg15
V20
p343
sg17
V40
p344
sg19
V100
p345
sbag1
(g2
g3
Ntp346
Rp347
(dp348
g7
V129
p349
sg9
VMagikarp
p350
sg11
VFR,LG,
p351
sg13
VFish Old
p352
sg15
g37
sg17
g37
sg19
V100
p353
sbag1
(g2
g3
Ntp354
Rp355
(dp356
g7
V060
p357
sg9
VPoliwag
p358
sg11
VFR,LG,
p359
sg13
VFish Good
p360
sg15
g37
sg17
V15
p361
sg19
V60
p362
sbag1
(g2
g3
Ntp363
Rp364
(dp365
g7
V118
p366
sg9
VGoldeen
p367
sg11
VFR,LG,
p368
sg13
VFish Good
p369
sg15
g37
sg17
V15
p370
sg19
V20
p371
sbag1
(g2
g3
Ntp372
Rp373
(dp374
g7
V129
p375
sg9
VMagikarp
p376
sg11
VFR,LG,
p377
sg13
VFish Good
p378
sg15
g37
sg17
V15
p379
sg19
V20
p380
sbag1
(g2
g3
Ntp381
Rp382
(dp383
g7
V060
p384
sg9
VPoliwag
p385
sg11
VFR,LG,
p386
sg13
VFish Super
p387
sg15
V15
p388
sg17
V25
p389
sg19
V40
p390
sbag1
(g2
g3
Ntp391
Rp392
(dp393
g7
V061
p394
sg9
VPoliwhirl
p395
sg11
VFR,LG,
p396
sg13
VFish Super
p397
sg15
V20
p398
sg17
V30
p399
sg19
V40
p400
sbag1
(g2
g3
Ntp401
Rp402
(dp403
g7
V130
p404
sg9
VGyarados
p405
sg11
VFR,LG,
p406
sg13
VFish Super
p407
sg15
V15
p408
sg17
V25
p409
sg19
V15
p410
sbag1
(g2
g3
Ntp411
Rp412
(dp413
g7
V054
p414
sg9
VPsyduck
p415
sg11
g331
sg13
VFish Super
p416
sg15
V15
p417
sg17
V35
p418
sg19
V5
p419
sbag1
(g2
g3
Ntp420
Rp421
(dp422
g7
V079
p423
sg9
VSlowpoke
p424
sg11
g341
sg13
VFish Super
p425
sg15
V15
p426
sg17
V35
p427
sg19
V5
p428
sbag1
(g2
g3
Ntp429
Rp430
(dp431
g7
V077
p432
sg9
VPonyta
p433
sg11
VHG,SS,
p434
sg13
VGrass
p435
sg15
g45
sg17
g45
sg19
V5
p436
sbag1
(g2
g3
Ntp437
Rp438
(dp439
g7
V021
p440
sg9
VSpearow
p441
sg11
VHG,SS,
p442
sg13
VGrass
p443
sg15
g28
sg17
g37
sg19
V50
p444
sbag1
(g2
g3
Ntp445
Rp446
(dp447
g7
V019
p448
sg9
VRattata
p449
sg11
VHG,SS,
p450
sg13
VGrass
p451
sg15
g28
sg17
g28
sg19
V30
p452
sbag1
(g2
g3
Ntp453
Rp454
(dp455
g7
V019
p456
sg9
VRattata
p457
sg11
VHG,SS,
p458
sg13
VGrass
p459
sg15
g28
sg17
g173
sg19
V95
p460
sbag1
(g2
g3
Ntp461
Rp462
(dp463
g7
V084
p464
sg9
VDoduo
p465
sg11
VHG,SS,
p466
sg13
VGrass
p467
sg15
g18
sg17
g18
sg19
V10
p468
sbag1
(g2
g3
Ntp469
Rp470
(dp471
g7
V022
p472
sg9
VFearow
p473
sg11
VHG,SS,
p474
sg13
VGrass
p475
sg15
g173
sg17
g173
sg19
V5
p476
sbag1
(g2
g3
Ntp477
Rp478
(dp479
g7
V060
p480
sg9
VPoliwag
p481
sg11
VHG,SS,
p482
sg13
VSurf
p483
sg15
g37
sg17
V10
p484
sg19
V90
p485
sbag1
(g2
g3
Ntp486
Rp487
(dp488
g7
V061
p489
sg9
VPoliwhirl
p490
sg11
VHG,SS,
p491
sg13
VSurf
p492
sg15
V10
p493
sg17
g493
sg19
V10
p494
sbag1
(g2
g3
Ntp495
Rp496
(dp497
g7
V129
p498
sg9
VMagikarp
p499
sg11
VHG,SS,
p500
sg13
VFish Old
p501
sg15
V10
p502
sg17
g502
sg19
V95
p503
sbag1
(g2
g3
Ntp504
Rp505
(dp506
g7
V060
p507
sg9
VPoliwag
p508
sg11
VHG,SS,
p509
sg13
VFish Old
p510
sg15
V10
p511
sg17
g511
sg19
V5
p512
sbag1
(g2
g3
Ntp513
Rp514
(dp515
g7
V129
p516
sg9
VMagikarp
p517
sg11
VHG,SS,
p518
sg13
VFish Good
p519
sg15
V20
p520
sg17
g520
sg19
V60
p521
sbag1
(g2
g3
Ntp522
Rp523
(dp524
g7
V060
p525
sg9
VPoliwag
p526
sg11
VHG,SS,
p527
sg13
VFish Good
p528
sg15
V20
p529
sg17
g529
sg19
V40
p530
sbag1
(g2
g3
Ntp531
Rp532
(dp533
g7
V060
p534
sg9
VPoliwag
p535
sg11
VHG,SS,
p536
sg13
VFish Super
p537
sg15
V40
p538
sg17
g538
sg19
V93
p539
sbag1
(g2
g3
Ntp540
Rp541
(dp542
g7
V129
p543
sg9
VMagikarp
p544
sg11
VHG,SS,
p545
sg13
VFish Super
p546
sg15
V40
p547
sg17
g547
sg19
V7
p548
sbag1
(g2
g3
Ntp549
Rp550
(dp551
g7
V163
p552
sg9
VHoothoot
p553
sg11
VHG,SS,
p554
sg13
VHeadbutt
p555
sg15
g28
sg17
g173
sg19
V50
p556
sbag1
(g2
g3
Ntp557
Rp558
(dp559
g7
V204
p560
sg9
VPineco
p561
sg11
VHG,SS,
p562
sg13
VHeadbutt
p563
sg15
g28
sg17
g18
sg19
V30
p564
sbag1
(g2
g3
Ntp565
Rp566
(dp567
g7
V265
p568
sg9
VWurmple
p569
sg11
VHG,SS,
p570
sg13
VHeadbutt
p571
sg15
g28
sg17
g173
sg19
V20
p572
sbag1
(g2
g3
Ntp573
Rp574
(dp575
g7
V167
p576
sg9
VSpinarak
p577
sg11
VHG,
p578
sg13
VHeadbutt
p579
sg15
g37
sg17
g173
sg19
V30
p580
sbag1
(g2
g3
Ntp581
Rp582
(dp583
g7
V165
p584
sg9
VLedyba
p585
sg11
VSS,
p586
sg13
VHeadbutt
p587
sg15
g37
sg17
g173
sg19
V30
p588
sbag1
(g2
g3
Ntp589
Rp590
(dp591
g7
V264
p592
sg9
VLinoone
p593
sg11
VHG,SS,
p594
sg13
VHoenn
p595
sg15
g37
sg17
g37
sg19
V20
p596
sbag1
(g2
g3
Ntp597
Rp598
(dp599
g7
V293
p600
sg9
VWhismur
p601
sg11
VHG,SS,
p602
sg13
VHoenn
p603
sg15
g28
sg17
g28
sg19
V20
p604
sbag1
(g2
g3
Ntp605
Rp606
(dp607
g7
V399
p608
sg9
VBidoof
p609
sg11
VHG,SS,
p610
sg13
VSinnoh
p611
sg15
g37
sg17
g37
sg19
V20
p612
sbag1
(g2
g3
Ntp613
Rp614
(dp615
g7
V418
p616
sg9
VBuizel
p617
sg11
VHG,SS,
p618
sg13
VSinnoh
p619
sg15
g28
sg17
g28
sg19
V20
p620
sbag1
(g2
g3
Ntp621
Rp622
(dp623
g7
V019
p624
sg9
VRattata
p625
sg11
VPi,Ev,
p626
sg13
VGrass
p627
sg15
g28
sg17
g18
sg19
V30
p628
sbag1
(g2
g3
Ntp629
Rp630
(dp631
g7
V021
p632
sg9
VSpearow
p633
sg11
VPi,Ev,
p634
sg13
VGrass
p635
sg15
g28
sg17
g18
sg19
V30
p636
sbag1
(g2
g3
Ntp637
Rp638
(dp639
g7
V029
p640
sg9
VNidoran\u2640
p641
sg11
VPi,Ev,
p642
sg13
VGrass
p643
sg15
g28
sg17
g18
sg19
V20
p644
sbag1
(g2
g3
Ntp645
Rp646
(dp647
g7
V032
p648
sg9
VNidoran\u2642
p649
sg11
VPi,Ev,
p650
sg13
VGrass
p651
sg15
g28
sg17
g18
sg19
V20
p652
sbag1
(g2
g3
Ntp653
Rp654
(dp655
g7
V060
p656
sg9
VPoliwag
p657
sg11
VPi,Ev,
p658
sg13
VSurf
p659
sg15
g28
sg17
g18
sg19
V45
p660
sbag1
(g2
g3
Ntp661
Rp662
(dp663
g7
V061
p664
sg9
VPoliwhirl
p665
sg11
VPi,Ev,
p666
sg13
VSurf
p667
sg15
g28
sg17
g18
sg19
V10
p668
sbag1
(g2
g3
Ntp669
Rp670
(dp671
g7
V129
p672
sg9
VMagikarp
p673
sg11
VPi,Ev,
p674
sg13
VSurf
p675
sg15
g28
sg17
g18
sg19
V45
p676
sbag1
(g2
g3
Ntp677
Rp678
(dp679
g7
V021
p680
sg9
VSpearow
p681
sg11
VPi,Ev,
p682
sg13
VSky
p683
sg15
g28
sg17
V56
p684
sg19
V60
p685
sbag1
(g2
g3
Ntp686
Rp687
(dp688
g7
V022
p689
sg9
VFearow
p690
sg11
VPi,Ev,
p691
sg13
VSky
p692
sg15
g28
sg17
V56
p693
sg19
V40
p694
sbag1
(g2
g3
Ntp695
Rp696
(dp697
g7
V006
p698
sg9
VCharizard
p699
sg11
VPi,Ev,
p700
sg13
VSky
p701
sg15
g28
sg17
V56
p702
sg19
V0
p703
sbag1
(g2
g3
Ntp704
Rp705
(dp706
g7
V144
p707
sg9
VArticuno
p708
sg11
VPi,Ev,
p709
sg13
VSky
p710
sg15
g28
sg17
V56
p711
sg19
V0
p712
sbag1
(g2
g3
Ntp713
Rp714
(dp715
g7
V145
p716
sg9
VZapdos
p717
sg11
VPi,Ev,
p718
sg13
VSky
p719
sg15
g28
sg17
V56
p720
sg19
V0
p721
sbag1
(g2
g3
Ntp722
Rp723
(dp724
g7
V146
p725
sg9
VMoltres
p726
sg11
VPi,Ev,
p727
sg13
VSky
p728
sg15
g28
sg17
V56
p729
sg19
V0
p730
sbag1
(g2
g3
Ntp731
Rp732
(dp733
g7
V149
p734
sg9
VDragonite
p735
sg11
VPi,Ev,
p736
sg13
VSky
p737
sg15
g28
sg17
V56
p738
sg19
V0
p739
sba.