(lp0
ccopy_reg
_reconstructor
p1
(c__main__
WildPokemon
p2
c__builtin__
object
p3
Ntp4
Rp5
(dp6
VpDexNo
p7
V016
p8
sVpSpecies
p9
VPidgey
p10
sVpGames
p11
VR,B,
p12
sVpArea
p13
VGrass
p14
sVpMinLevel
p15
V13
p16
sVpMaxLevel
p17
V16
p18
sVpRate
p19
V40
p20
sbag1
(g2
g3
Ntp21
Rp22
(dp23
g7
V016
p24
sg9
VPidgey
p25
sg11
VY,
p26
sg13
VGrass
p27
sg15
V15
p28
sg17
V17
p29
sg19
V40
p30
sbag1
(g2
g3
Ntp31
Rp32
(dp33
g7
V017
p34
sg9
VPidgeotto
p35
sg11
g26
sg13
VGrass
p36
sg15
V17
p37
sg17
g37
sg19
V5
p38
sbag1
(g2
g3
Ntp39
Rp40
(dp41
g7
V019
p42
sg9
VRattata
p43
sg11
g26
sg13
VGrass
p44
sg15
V14
p45
sg17
V16
p46
sg19
V30
p47
sbag1
(g2
g3
Ntp48
Rp49
(dp50
g7
V039
p51
sg9
VJigglypuff
p52
sg11
g26
sg13
VGrass
p53
sg15
V3
p54
sg17
V7
p55
sg19
V10
p56
sbag1
(g2
g3
Ntp57
Rp58
(dp59
g7
V043
p60
sg9
VOddish
p61
sg11
VR,
p62
sg13
VGrass
p63
sg15
V13
p64
sg17
V16
p65
sg19
V35
p66
sbag1
(g2
g3
Ntp67
Rp68
(dp69
g7
V052
p70
sg9
VMeowth
p71
sg11
VB,
p72
sg13
VGrass
p73
sg15
V10
p74
sg17
V16
p75
sg19
V25
p76
sbag1
(g2
g3
Ntp77
Rp78
(dp79
g7
V056
p80
sg9
VMankey
p81
sg11
g62
sg13
VGrass
p82
sg15
V10
p83
sg17
V16
p84
sg19
V25
p85
sbag1
(g2
g3
Ntp86
Rp87
(dp88
g7
V063
p89
sg9
VAbra
p90
sg11
g26
sg13
VGrass
p91
sg15
g55
sg17
g55
sg19
V15
p92
sbag1
(g2
g3
Ntp93
Rp94
(dp95
g7
V069
p96
sg9
VBellsprout
p97
sg11
g72
sg13
VGrass
p98
sg15
V13
p99
sg17
V16
p100
sg19
V35
p101
sbag1
(g2
g3
Ntp102
Rp103
(dp104
g7
V054
p105
sg9
VPsyduck
p106
sg11
g26
sg13
VSurf
p107
sg15
V15
p108
sg17
g108
sg19
V95
p109
sbag1
(g2
g3
Ntp110
Rp111
(dp112
g7
V055
p113
sg9
VGolduck
p114
sg11
g26
sg13
VSurf
p115
sg15
V15
p116
sg17
V20
p117
sg19
V5
p118
sbag1
(g2
g3
Ntp119
Rp120
(dp121
g7
V129
p122
sg9
VMagikarp
p123
sg11
VR,B,Y,
p124
sg13
VFish Old
p125
sg15
V5
p126
sg17
g126
sg19
V100
p127
sbag1
(g2
g3
Ntp128
Rp129
(dp130
g7
V060
p131
sg9
VPoliwag
p132
sg11
VR,B,Y,
p133
sg13
VFish Good
p134
sg15
V10
p135
sg17
g135
sg19
V50
p136
sbag1
(g2
g3
Ntp137
Rp138
(dp139
g7
V118
p140
sg9
VGoldeen
p141
sg11
VR,B,Y,
p142
sg13
VFish Good
p143
sg15
V10
p144
sg17
g144
sg19
V50
p145
sbag1
(g2
g3
Ntp146
Rp147
(dp148
g7
V090
p149
sg9
VShellder
p150
sg11
VR,B,
p151
sg13
VFish Super
p152
sg15
V15
p153
sg17
g153
sg19
V50
p154
sbag1
(g2
g3
Ntp155
Rp156
(dp157
g7
V098
p158
sg9
VKrabby
p159
sg11
VR,B,
p160
sg13
VFish Super
p161
sg15
V15
p162
sg17
g162
sg19
V50
p163
sbag1
(g2
g3
Ntp164
Rp165
(dp166
g7
V118
p167
sg9
VGoldeen
p168
sg11
g26
sg13
VFish Super
p169
sg15
g126
sg17
V20
p170
sg19
V100
p171
sbag1
(g2
g3
Ntp172
Rp173
(dp174
g7
V063
p175
sg9
VAbra
p176
sg11
VG,S,
p177
sg13
VGrass
p178
sg15
V12
p179
sg17
V14
p180
sg19
V10
p181
sbag1
(g2
g3
Ntp182
Rp183
(dp184
g7
V081
p185
sg9
VMagnemite
p186
sg11
VG,S,
p187
sg13
VGrass
p188
sg15
V15
p189
sg17
g189
sg19
V10
p190
sbag1
(g2
g3
Ntp191
Rp192
(dp193
g7
V081
p194
sg9
VMagnemite
p195
sg11
VC,
p196
sg13
VGrass
p197
sg15
V14
p198
sg17
g198
sg19
V20
p199
sbag1
(g2
g3
Ntp200
Rp201
(dp202
g7
V039
p203
sg9
VJigglypuff
p204
sg11
g196
sg13
VGrass
p205
sg15
V12
p206
sg17
g206
sg19
V5
p207
sbag1
(g2
g3
Ntp208
Rp209
(dp210
g7
V016
p211
sg9
VPidgey
p212
sg11
VG,
p213
sg13
VGrass
p214
sg15
V13
p215
sg17
V14
p216
sg19
V50
p217
sbag1
(g2
g3
Ntp218
Rp219
(dp220
g7
V016
p221
sg9
VPidgey
p222
sg11
VS,
p223
sg13
VGrass
p224
sg15
V13
p225
sg17
g225
sg19
V30
p226
sbag1
(g2
g3
Ntp227
Rp228
(dp229
g7
V069
p230
sg9
VBellsprout
p231
sg11
VG,S,
p232
sg13
VGrass
p233
sg15
V13
p234
sg17
g234
sg19
V30
p235
sbag1
(g2
g3
Ntp236
Rp237
(dp238
g7
V019
p239
sg9
VRattata
p240
sg11
g196
sg13
VGrass
p241
sg15
V13
p242
sg17
g242
sg19
V30
p243
sbag1
(g2
g3
Ntp244
Rp245
(dp246
g7
V209
p247
sg9
VSnubbull
p248
sg11
g196
sg13
VGrass
p249
sg15
V13
p250
sg17
g250
sg19
V30
p251
sbag1
(g2
g3
Ntp252
Rp253
(dp254
g7
V052
p255
sg9
VMeowth
p256
sg11
g223
sg13
VGrass
p257
sg15
V14
p258
sg17
g258
sg19
V30
p259
sbag1
(g2
g3
Ntp260
Rp261
(dp262
g7
V052
p263
sg9
VMeowth
p264
sg11
g196
sg13
VGrass
p265
sg15
V13
p266
sg17
g266
sg19
V30
p267
sbag1
(g2
g3
Ntp268
Rp269
(dp270
g7
V020
p271
sg9
VRaticate
p272
sg11
g196
sg13
VGrass
p273
sg15
V15
p274
sg17
g274
sg19
V10
p275
sbag1
(g2
g3
Ntp276
Rp277
(dp278
g7
V210
p279
sg9
VGranbull
p280
sg11
g196
sg13
VGrass
p281
sg15
V15
p282
sg17
g282
sg19
V5
p283
sbag1
(g2
g3
Ntp284
Rp285
(dp286
g7
V043
p287
sg9
VOddish
p288
sg11
g213
sg13
VGrass
p289
sg15
V13
p290
sg17
V14
p291
sg19
V60
p292
sbag1
(g2
g3
Ntp293
Rp294
(dp295
g7
V043
p296
sg9
VOddish
p297
sg11
g223
sg13
VGrass
p298
sg15
V13
p299
sg17
g299
sg19
V30
p300
sbag1
(g2
g3
Ntp301
Rp302
(dp303
g7
V096
p304
sg9
VDrowzee
p305
sg11
g196
sg13
VGrass
p306
sg15
V13
p307
sg17
g307
sg19
V30
p308
sbag1
(g2
g3
Ntp309
Rp310
(dp311
g7
V054
p312
sg9
VPsyduck
p313
sg11
g196
sg13
VGrass
p314
sg15
V15
p315
sg17
g315
sg19
V10
p316
sbag1
(g2
g3
Ntp317
Rp318
(dp319
g7
V054
p320
sg9
VPsyduck
p321
sg11
VG,S,C,
p322
sg13
VSurf
p323
sg15
g126
sg17
V14
p324
sg19
V90
p325
sbag1
(g2
g3
Ntp326
Rp327
(dp328
g7
V055
p329
sg9
VGolduck
p330
sg11
VG,S,C,
p331
sg13
VSurf
p332
sg15
V10
p333
sg17
V14
p334
sg19
V10
p335
sbag1
(g2
g3
Ntp336
Rp337
(dp338
g7
V129
p339
sg9
VMagikarp
p340
sg11
VG,S,C,
p341
sg13
VFish Old
p342
sg15
V10
p343
sg17
g343
sg19
V85
p344
sbag1
(g2
g3
Ntp345
Rp346
(dp347
g7
V060
p348
sg9
VPoliwag
p349
sg11
VG,S,C,
p350
sg13
VFish Old
p351
sg15
V10
p352
sg17
g352
sg19
V15
p353
sbag1
(g2
g3
Ntp354
Rp355
(dp356
g7
V060
p357
sg9
VPoliwag
p358
sg11
VG,S,C,
p359
sg13
VFish Good
p360
sg15
V20
p361
sg17
g361
sg19
V65
p362
sbag1
(g2
g3
Ntp363
Rp364
(dp365
g7
V129
p366
sg9
VMagikarp
p367
sg11
VG,S,C,
p368
sg13
VFish Good
p369
sg15
V20
p370
sg17
g370
sg19
V35
p371
sbag1
(g2
g3
Ntp372
Rp373
(dp374
g7
V060
p375
sg9
VPoliwag
p376
sg11
VG,S,C,
p377
sg13
VFish Super
p378
sg15
V40
p379
sg17
g379
sg19
V80
p380
sbag1
(g2
g3
Ntp381
Rp382
(dp383
g7
V129
p384
sg9
VMagikarp
p385
sg11
VG,S,C,
p386
sg13
VFish Super
p387
sg15
V40
p388
sg17
g388
sg19
V20
p389
sbag1
(g2
g3
Ntp390
Rp391
(dp392
g7
V016
p393
sg9
VPidgey
p394
sg11
VFR,LG,
p395
sg13
VGrass
p396
sg15
V13
p397
sg17
V16
p398
sg19
V40
p399
sbag1
(g2
g3
Ntp400
Rp401
(dp402
g7
V052
p403
sg9
VMeowth
p404
sg11
VFR,LG,
p405
sg13
VGrass
p406
sg15
V10
p407
sg17
V16
p408
sg19
V35
p409
sbag1
(g2
g3
Ntp410
Rp411
(dp412
g7
V043
p413
sg9
VOddish
p414
sg11
VFR,
p415
sg13
VGrass
p416
sg15
V13
p417
sg17
V16
p418
sg19
V25
p419
sbag1
(g2
g3
Ntp420
Rp421
(dp422
g7
V069
p423
sg9
VBellsprout
p424
sg11
VLG,
p425
sg13
VGrass
p426
sg15
V13
p427
sg17
V16
p428
sg19
V25
p429
sbag1
(g2
g3
Ntp430
Rp431
(dp432
g7
V054
p433
sg9
VPsyduck
p434
sg11
g415
sg13
VSurf
p435
sg15
V20
p436
sg17
V40
p437
sg19
V100
p438
sbag1
(g2
g3
Ntp439
Rp440
(dp441
g7
V079
p442
sg9
VSlowpoke
p443
sg11
g425
sg13
VSurf
p444
sg15
V20
p445
sg17
V40
p446
sg19
V100
p447
sbag1
(g2
g3
Ntp448
Rp449
(dp450
g7
V129
p451
sg9
VMagikarp
p452
sg11
VFR,LG,
p453
sg13
VFish Old
p454
sg15
g126
sg17
g126
sg19
V100
p455
sbag1
(g2
g3
Ntp456
Rp457
(dp458
g7
V060
p459
sg9
VPoliwag
p460
sg11
VFR,LG,
p461
sg13
VFish Good
p462
sg15
g126
sg17
V15
p463
sg19
V60
p464
sbag1
(g2
g3
Ntp465
Rp466
(dp467
g7
V118
p468
sg9
VGoldeen
p469
sg11
VFR,LG,
p470
sg13
VFish Good
p471
sg15
g126
sg17
V15
p472
sg19
V20
p473
sbag1
(g2
g3
Ntp474
Rp475
(dp476
g7
V129
p477
sg9
VMagikarp
p478
sg11
VFR,LG,
p479
sg13
VFish Good
p480
sg15
g126
sg17
V15
p481
sg19
V20
p482
sbag1
(g2
g3
Ntp483
Rp484
(dp485
g7
V060
p486
sg9
VPoliwag
p487
sg11
VFR,LG,
p488
sg13
VFish Super
p489
sg15
V15
p490
sg17
V25
p491
sg19
V40
p492
sbag1
(g2
g3
Ntp493
Rp494
(dp495
g7
V061
p496
sg9
VPoliwhirl
p497
sg11
VFR,LG,
p498
sg13
VFish Super
p499
sg15
V20
p500
sg17
V30
p501
sg19
V40
p502
sbag1
(g2
g3
Ntp503
Rp504
(dp505
g7
V130
p506
sg9
VGyarados
p507
sg11
VFR,LG,
p508
sg13
VFish Super
p509
sg15
V15
p510
sg17
V25
p511
sg19
V15
p512
sbag1
(g2
g3
Ntp513
Rp514
(dp515
g7
V054
p516
sg9
VPsyduck
p517
sg11
g415
sg13
VFish Super
p518
sg15
V15
p519
sg17
V35
p520
sg19
V5
p521
sbag1
(g2
g3
Ntp522
Rp523
(dp524
g7
V079
p525
sg9
VSlowpoke
p526
sg11
g425
sg13
VFish Super
p527
sg15
V15
p528
sg17
V35
p529
sg19
V5
p530
sbag1
(g2
g3
Ntp531
Rp532
(dp533
g7
V063
p534
sg9
VAbra
p535
sg11
VHG,SS,
p536
sg13
VGrass
p537
sg15
V12
p538
sg17
V14
p539
sg19
V10
p540
sbag1
(g2
g3
Ntp541
Rp542
(dp543
g7
V081
p544
sg9
VMagnemite
p545
sg11
VHG,SS,
p546
sg13
VGrass
p547
sg15
V15
p548
sg17
g548
sg19
V10
p549
sbag1
(g2
g3
Ntp550
Rp551
(dp552
g7
V016
p553
sg9
VPidgey
p554
sg11
VHG,SS,
p555
sg13
VGrass
p556
sg15
V13
p557
sg17
g557
sg19
V20
p558
sbag1
(g2
g3
Ntp559
Rp560
(dp561
g7
V016
p562
sg9
VPidgey
p563
sg11
VHG,
p564
sg13
VGrass
p565
sg15
V13
p566
sg17
V14
p567
sg19
V30
p568
sbag1
(g2
g3
Ntp569
Rp570
(dp571
g7
V016
p572
sg9
VPidgey
p573
sg11
VSS,
p574
sg13
VGrass
p575
sg15
V13
p576
sg17
g576
sg19
V10
p577
sbag1
(g2
g3
Ntp578
Rp579
(dp580
g7
V069
p581
sg9
VBellsprout
p582
sg11
VHG,SS,
p583
sg13
VGrass
p584
sg15
V13
p585
sg17
g585
sg19
V30
p586
sbag1
(g2
g3
Ntp587
Rp588
(dp589
g7
V069
p590
sg9
VBellsprout
p591
sg11
VHG,SS,
p592
sg13
VGrass
p593
sg15
V14
p594
sg17
g594
sg19
V20
p595
sbag1
(g2
g3
Ntp596
Rp597
(dp598
g7
V052
p599
sg9
VMeowth
p600
sg11
g574
sg13
VGrass
p601
sg15
V14
p602
sg17
g602
sg19
V20
p603
sbag1
(g2
g3
Ntp604
Rp605
(dp606
g7
V052
p607
sg9
VMeowth
p608
sg11
g574
sg13
VGrass
p609
sg15
V13
p610
sg17
g610
sg19
V30
p611
sbag1
(g2
g3
Ntp612
Rp613
(dp614
g7
V043
p615
sg9
VOddish
p616
sg11
g564
sg13
VGrass
p617
sg15
V13
p618
sg17
g618
sg19
V60
p619
sbag1
(g2
g3
Ntp620
Rp621
(dp622
g7
V043
p623
sg9
VOddish
p624
sg11
g574
sg13
VGrass
p625
sg15
V13
p626
sg17
g626
sg19
V30
p627
sbag1
(g2
g3
Ntp628
Rp629
(dp630
g7
V054
p631
sg9
VPsyduck
p632
sg11
VHG,SS,
p633
sg13
VSurf
p634
sg15
g126
sg17
V10
p635
sg19
V90
p636
sbag1
(g2
g3
Ntp637
Rp638
(dp639
g7
V055
p640
sg9
VGolduck
p641
sg11
VHG,SS,
p642
sg13
VSurf
p643
sg15
V10
p644
sg17
g644
sg19
V10
p645
sbag1
(g2
g3
Ntp646
Rp647
(dp648
g7
V129
p649
sg9
VMagikarp
p650
sg11
VHG,SS,
p651
sg13
VFish Old
p652
sg15
V10
p653
sg17
g653
sg19
V95
p654
sbag1
(g2
g3
Ntp655
Rp656
(dp657
g7
V060
p658
sg9
VPoliwag
p659
sg11
VHG,SS,
p660
sg13
VFish Old
p661
sg15
V10
p662
sg17
g662
sg19
V5
p663
sbag1
(g2
g3
Ntp664
Rp665
(dp666
g7
V129
p667
sg9
VMagikarp
p668
sg11
VHG,SS,
p669
sg13
VFish Good
p670
sg15
V20
p671
sg17
g671
sg19
V60
p672
sbag1
(g2
g3
Ntp673
Rp674
(dp675
g7
V060
p676
sg9
VPoliwag
p677
sg11
VHG,SS,
p678
sg13
VFish Good
p679
sg15
V20
p680
sg17
g680
sg19
V40
p681
sbag1
(g2
g3
Ntp682
Rp683
(dp684
g7
V060
p685
sg9
VPoliwag
p686
sg11
VHG,SS,
p687
sg13
VFish Super
p688
sg15
V40
p689
sg17
g689
sg19
V93
p690
sbag1
(g2
g3
Ntp691
Rp692
(dp693
g7
V129
p694
sg9
VMagikarp
p695
sg11
VHG,SS,
p696
sg13
VFish Super
p697
sg15
V40
p698
sg17
g698
sg19
V7
p699
sbag1
(g2
g3
Ntp700
Rp701
(dp702
g7
V163
p703
sg9
VHoothoot
p704
sg11
VHG,SS,
p705
sg13
VHeadbutt
p706
sg15
V11
p707
sg17
V16
p708
sg19
V50
p709
sbag1
(g2
g3
Ntp710
Rp711
(dp712
g7
V204
p713
sg9
VPineco
p714
sg11
VHG,SS,
p715
sg13
VHeadbutt
p716
sg15
V11
p717
sg17
V13
p718
sg19
V30
p719
sbag1
(g2
g3
Ntp720
Rp721
(dp722
g7
V415
p723
sg9
VCombee
p724
sg11
VHG,SS,
p725
sg13
VHeadbutt
p726
sg15
V11
p727
sg17
V16
p728
sg19
V20
p729
sbag1
(g2
g3
Ntp730
Rp731
(dp732
g7
V264
p733
sg9
VLinoone
p734
sg11
VHG,SS,
p735
sg13
VHoenn
p736
sg15
V14
p737
sg17
g737
sg19
V20
p738
sbag1
(g2
g3
Ntp739
Rp740
(dp741
g7
V293
p742
sg9
VWhismur
p743
sg11
VHG,SS,
p744
sg13
VHoenn
p745
sg15
V13
p746
sg17
g746
sg19
V20
p747
sbag1
(g2
g3
Ntp748
Rp749
(dp750
g7
V399
p751
sg9
VBidoof
p752
sg11
VHG,SS,
p753
sg13
VSinnoh
p754
sg15
V14
p755
sg17
g755
sg19
V20
p756
sbag1
(g2
g3
Ntp757
Rp758
(dp759
g7
V418
p760
sg9
VBuizel
p761
sg11
VHG,SS,
p762
sg13
VSinnoh
p763
sg15
V13
p764
sg17
g764
sg19
V20
p765
sbag1
(g2
g3
Ntp766
Rp767
(dp768
g7
V016
p769
sg9
VPidgey
p770
sg11
VPi,Ev,
p771
sg13
VGrass
p772
sg15
V11
p773
sg17
V16
p774
sg19
V20
p775
sbag1
(g2
g3
Ntp776
Rp777
(dp778
g7
V017
p779
sg9
VPidgeotto
p780
sg11
VPi,Ev,
p781
sg13
VGrass
p782
sg15
V11
p783
sg17
V16
p784
sg19
V10
p785
sbag1
(g2
g3
Ntp786
Rp787
(dp788
g7
V019
p789
sg9
VRattata
p790
sg11
VPi,Ev,
p791
sg13
VGrass
p792
sg15
V11
p793
sg17
V16
p794
sg19
V20
p795
sbag1
(g2
g3
Ntp796
Rp797
(dp798
g7
V037
p799
sg9
VVulpix
p800
sg11
VEv,
p801
sg13
VGrass
p802
sg15
V11
p803
sg17
V16
p804
sg19
V20
p805
sbag1
(g2
g3
Ntp806
Rp807
(dp808
g7
V039
p809
sg9
VJigglypuff
p810
sg11
VPi,Ev,
p811
sg13
VGrass
p812
sg15
V11
p813
sg17
V16
p814
sg19
V15
p815
sbag1
(g2
g3
Ntp816
Rp817
(dp818
g7
V054
p819
sg9
VPsyduck
p820
sg11
VPi,Ev,
p821
sg13
VGrass
p822
sg15
V11
p823
sg17
V16
p824
sg19
V10
p825
sbag1
(g2
g3
Ntp826
Rp827
(dp828
g7
V058
p829
sg9
VGrowlithe
p830
sg11
VPi,
p831
sg13
VGrass
p832
sg15
V11
p833
sg17
V16
p834
sg19
V20
p835
sbag1
(g2
g3
Ntp836
Rp837
(dp838
g7
V063
p839
sg9
VAbra
p840
sg11
VPi,Ev,
p841
sg13
VGrass
p842
sg15
V11
p843
sg17
V16
p844
sg19
V5
p845
sbag1
(g2
g3
Ntp846
Rp847
(dp848
g7
V113
p849
sg9
VChansey
p850
sg11
VPi,Ev,
p851
sg13
VGrass
p852
sg15
V11
p853
sg17
V16
p854
sg19
V0
p855
sbag1
(g2
g3
Ntp856
Rp857
(dp858
g7
V118
p859
sg9
VGoldeen
p860
sg11
VPi,Ev,
p861
sg13
VSurf
p862
sg15
V11
p863
sg17
V16
p864
sg19
V45
p865
sbag1
(g2
g3
Ntp866
Rp867
(dp868
g7
V119
p869
sg9
VSeaking
p870
sg11
VPi,Ev,
p871
sg13
VSurf
p872
sg15
V11
p873
sg17
V16
p874
sg19
V10
p875
sbag1
(g2
g3
Ntp876
Rp877
(dp878
g7
V129
p879
sg9
VMagikarp
p880
sg11
VPi,Ev,
p881
sg13
VSurf
p882
sg15
V11
p883
sg17
V16
p884
sg19
V45
p885
sbag1
(g2
g3
Ntp886
Rp887
(dp888
g7
V016
p889
sg9
VPidgey
p890
sg11
VPi,Ev,
p891
sg13
VSky
p892
sg15
g54
sg17
V56
p893
sg19
V60
p894
sbag1
(g2
g3
Ntp895
Rp896
(dp897
g7
V017
p898
sg9
VPidgeotto
p899
sg11
VPi,Ev,
p900
sg13
VSky
p901
sg15
g54
sg17
V56
p902
sg19
V35
p903
sbag1
(g2
g3
Ntp904
Rp905
(dp906
g7
V018
p907
sg9
VPidgeot
p908
sg11
VPi,Ev,
p909
sg13
VSky
p910
sg15
g54
sg17
V56
p911
sg19
V5
p912
sbag1
(g2
g3
Ntp913
Rp914
(dp915
g7
V006
p916
sg9
VCharizard
p917
sg11
VPi,Ev,
p918
sg13
VSky
p919
sg15
g54
sg17
V56
p920
sg19
V0
p921
sbag1
(g2
g3
Ntp922
Rp923
(dp924
g7
V144
p925
sg9
VArticuno
p926
sg11
VPi,Ev,
p927
sg13
VSky
p928
sg15
g54
sg17
V56
p929
sg19
V0
p930
sbag1
(g2
g3
Ntp931
Rp932
(dp933
g7
V145
p934
sg9
VZapdos
p935
sg11
VPi,Ev,
p936
sg13
VSky
p937
sg15
g54
sg17
V56
p938
sg19
V0
p939
sbag1
(g2
g3
Ntp940
Rp941
(dp942
g7
V146
p943
sg9
VMoltres
p944
sg11
VPi,Ev,
p945
sg13
VSky
p946
sg15
g54
sg17
V56
p947
sg19
V0
p948
sbag1
(g2
g3
Ntp949
Rp950
(dp951
g7
V149
p952
sg9
VDragonite
p953
sg11
VPi,Ev,
p954
sg13
VSky
p955
sg15
g54
sg17
V56
p956
sg19
V0
p957
sba.