(lp0
ccopy_reg
_reconstructor
p1
(c__main__
WildPokemon
p2
c__builtin__
object
p3
Ntp4
Rp5
(dp6
VpDexNo
p7
V016
p8
sVpSpecies
p9
VPidgey
p10
sVpGames
p11
VR,B,
p12
sVpArea
p13
VGrass
p14
sVpMinLevel
p15
V13
p16
sVpMaxLevel
p17
V16
p18
sVpRate
p19
V40
p20
sbag1
(g2
g3
Ntp21
Rp22
(dp23
g7
V016
p24
sg9
VPidgey
p25
sg11
VY,
p26
sg13
VGrass
p27
sg15
V15
p28
sg17
V17
p29
sg19
V45
p30
sbag1
(g2
g3
Ntp31
Rp32
(dp33
g7
V017
p34
sg9
VPidgeotto
p35
sg11
g26
sg13
VGrass
p36
sg15
V17
p37
sg17
g37
sg19
V5
p38
sbag1
(g2
g3
Ntp39
Rp40
(dp41
g7
V019
p42
sg9
VRattata
p43
sg11
g26
sg13
VGrass
p44
sg15
V14
p45
sg17
V16
p46
sg19
V25
p47
sbag1
(g2
g3
Ntp48
Rp49
(dp50
g7
V039
p51
sg9
VJigglypuff
p52
sg11
g26
sg13
VGrass
p53
sg15
V3
p54
sg17
V7
p55
sg19
V10
p56
sbag1
(g2
g3
Ntp57
Rp58
(dp59
g7
V043
p60
sg9
VOddish
p61
sg11
VR,
p62
sg13
VGrass
p63
sg15
V13
p64
sg17
V16
p65
sg19
V35
p66
sbag1
(g2
g3
Ntp67
Rp68
(dp69
g7
V052
p70
sg9
VMeowth
p71
sg11
VB,
p72
sg13
VGrass
p73
sg15
V10
p74
sg17
V16
p75
sg19
V25
p76
sbag1
(g2
g3
Ntp77
Rp78
(dp79
g7
V056
p80
sg9
VMankey
p81
sg11
g62
sg13
VGrass
p82
sg15
V10
p83
sg17
V16
p84
sg19
V25
p85
sbag1
(g2
g3
Ntp86
Rp87
(dp88
g7
V063
p89
sg9
VAbra
p90
sg11
g26
sg13
VGrass
p91
sg15
g55
sg17
g55
sg19
V15
p92
sbag1
(g2
g3
Ntp93
Rp94
(dp95
g7
V069
p96
sg9
VBellsprout
p97
sg11
g72
sg13
VGrass
p98
sg15
V13
p99
sg17
V16
p100
sg19
V35
p101
sbag1
(g2
g3
Ntp102
Rp103
(dp104
g7
V016
p105
sg9
VPidgey
p106
sg11
VG,
p107
sg13
VGrass
p108
sg15
V13
p109
sg17
V15
p110
sg19
V60
p111
sbag1
(g2
g3
Ntp112
Rp113
(dp114
g7
V016
p115
sg9
VPidgey
p116
sg11
VS,
p117
sg13
VGrass
p118
sg15
V13
p119
sg17
V15
p120
sg19
V40
p121
sbag1
(g2
g3
Ntp122
Rp123
(dp124
g7
V016
p125
sg9
VPidgey
p126
sg11
VC,
p127
sg13
VGrass
p128
sg15
V13
p129
sg17
g129
sg19
V30
p130
sbag1
(g2
g3
Ntp131
Rp132
(dp133
g7
V017
p134
sg9
VPidgeotto
p135
sg11
g127
sg13
VGrass
p136
sg15
V15
p137
sg17
g137
sg19
V20
p138
sbag1
(g2
g3
Ntp139
Rp140
(dp141
g7
V039
p142
sg9
VJigglypuff
p143
sg11
g127
sg13
VGrass
p144
sg15
V14
p145
sg17
g145
sg19
V5
p146
sbag1
(g2
g3
Ntp147
Rp148
(dp149
g7
V043
p150
sg9
VOddish
p151
sg11
g107
sg13
VGrass
p152
sg15
V13
p153
sg17
V14
p154
sg19
V60
p155
sbag1
(g2
g3
Ntp156
Rp157
(dp158
g7
V043
p159
sg9
VOddish
p160
sg11
g117
sg13
VGrass
p161
sg15
V13
p162
sg17
g162
sg19
V30
p163
sbag1
(g2
g3
Ntp164
Rp165
(dp166
g7
V044
p167
sg9
VGloom
p168
sg11
VG,S,
p169
sg13
VGrass
p170
sg15
V15
p171
sg17
g171
sg19
V10
p172
sbag1
(g2
g3
Ntp173
Rp174
(dp175
g7
V052
p176
sg9
VMeowth
p177
sg11
g117
sg13
VGrass
p178
sg15
V14
p179
sg17
g179
sg19
V30
p180
sbag1
(g2
g3
Ntp181
Rp182
(dp183
g7
V052
p184
sg9
VMeowth
p185
sg11
g127
sg13
VGrass
p186
sg15
V13
p187
sg17
g187
sg19
V30
p188
sbag1
(g2
g3
Ntp189
Rp190
(dp191
g7
V063
p192
sg9
VAbra
p193
sg11
VG,S,
p194
sg13
VGrass
p195
sg15
V12
p196
sg17
V14
p197
sg19
V10
p198
sbag1
(g2
g3
Ntp199
Rp200
(dp201
g7
V063
p202
sg9
VAbra
p203
sg11
g127
sg13
VGrass
p204
sg15
V12
p205
sg17
V14
p206
sg19
V15
p207
sbag1
(g2
g3
Ntp208
Rp209
(dp210
g7
V069
p211
sg9
VBellsprout
p212
sg11
VG,S,
p213
sg13
VGrass
p214
sg15
V13
p215
sg17
g215
sg19
V30
p216
sbag1
(g2
g3
Ntp217
Rp218
(dp219
g7
V163
p220
sg9
VHoothoot
p221
sg11
g127
sg13
VGrass
p222
sg15
V13
p223
sg17
g223
sg19
V30
p224
sbag1
(g2
g3
Ntp225
Rp226
(dp227
g7
V164
p228
sg9
VNoctowl
p229
sg11
g127
sg13
VGrass
p230
sg15
V15
p231
sg17
g231
sg19
V20
p232
sbag1
(g2
g3
Ntp233
Rp234
(dp235
g7
V209
p236
sg9
VSnubbull
p237
sg11
g127
sg13
VGrass
p238
sg15
V13
p239
sg17
g239
sg19
V30
p240
sbag1
(g2
g3
Ntp241
Rp242
(dp243
g7
V016
p244
sg9
VPidgey
p245
sg11
VFR,LG,
p246
sg13
VGrass
p247
sg15
V13
p248
sg17
V16
p249
sg19
V40
p250
sbag1
(g2
g3
Ntp251
Rp252
(dp253
g7
V052
p254
sg9
VMeowth
p255
sg11
VFR,LG,
p256
sg13
VGrass
p257
sg15
V10
p258
sg17
V16
p259
sg19
V35
p260
sbag1
(g2
g3
Ntp261
Rp262
(dp263
g7
V043
p264
sg9
VOddish
p265
sg11
VFR,
p266
sg13
VGrass
p267
sg15
V13
p268
sg17
V16
p269
sg19
V25
p270
sbag1
(g2
g3
Ntp271
Rp272
(dp273
g7
V069
p274
sg9
VBellsprout
p275
sg11
VLG,
p276
sg13
VGrass
p277
sg15
V13
p278
sg17
V16
p279
sg19
V25
p280
sbag1
(g2
g3
Ntp281
Rp282
(dp283
g7
V063
p284
sg9
VAbra
p285
sg11
VHG,SS,
p286
sg13
VGrass
p287
sg15
V12
p288
sg17
V14
p289
sg19
V10
p290
sbag1
(g2
g3
Ntp291
Rp292
(dp293
g7
V016
p294
sg9
VPidgey
p295
sg11
VHG,
p296
sg13
VGrass
p297
sg15
V13
p298
sg17
V15
p299
sg19
V60
p300
sbag1
(g2
g3
Ntp301
Rp302
(dp303
g7
V016
p304
sg9
VPidgey
p305
sg11
VSS,
p306
sg13
VGrass
p307
sg15
V13
p308
sg17
V15
p309
sg19
V40
p310
sbag1
(g2
g3
Ntp311
Rp312
(dp313
g7
V069
p314
sg9
VBellsprout
p315
sg11
VHG,SS,
p316
sg13
VGrass
p317
sg15
V13
p318
sg17
g318
sg19
V30
p319
sbag1
(g2
g3
Ntp320
Rp321
(dp322
g7
V069
p323
sg9
VBellsprout
p324
sg11
VHG,SS,
p325
sg13
VGrass
p326
sg15
V14
p327
sg17
g327
sg19
V20
p328
sbag1
(g2
g3
Ntp329
Rp330
(dp331
g7
V052
p332
sg9
VMeowth
p333
sg11
g306
sg13
VGrass
p334
sg15
V14
p335
sg17
g335
sg19
V20
p336
sbag1
(g2
g3
Ntp337
Rp338
(dp339
g7
V052
p340
sg9
VMeowth
p341
sg11
g306
sg13
VGrass
p342
sg15
V13
p343
sg17
g343
sg19
V30
p344
sbag1
(g2
g3
Ntp345
Rp346
(dp347
g7
V043
p348
sg9
VOddish
p349
sg11
g296
sg13
VGrass
p350
sg15
V13
p351
sg17
g351
sg19
V60
p352
sbag1
(g2
g3
Ntp353
Rp354
(dp355
g7
V043
p356
sg9
VOddish
p357
sg11
g306
sg13
VGrass
p358
sg15
V13
p359
sg17
g359
sg19
V30
p360
sbag1
(g2
g3
Ntp361
Rp362
(dp363
g7
V044
p364
sg9
VGloom
p365
sg11
VHG,SS,
p366
sg13
VGrass
p367
sg15
V15
p368
sg17
g368
sg19
V10
p369
sbag1
(g2
g3
Ntp370
Rp371
(dp372
g7
V163
p373
sg9
VHoothoot
p374
sg11
VHG,SS,
p375
sg13
VHeadbutt
p376
sg15
V11
p377
sg17
V16
p378
sg19
V50
p379
sbag1
(g2
g3
Ntp380
Rp381
(dp382
g7
V204
p383
sg9
VPineco
p384
sg11
VHG,SS,
p385
sg13
VHeadbutt
p386
sg15
V11
p387
sg17
V13
p388
sg19
V30
p389
sbag1
(g2
g3
Ntp390
Rp391
(dp392
g7
V415
p393
sg9
VCombee
p394
sg11
VHG,SS,
p395
sg13
VHeadbutt
p396
sg15
V11
p397
sg17
V16
p398
sg19
V20
p399
sbag1
(g2
g3
Ntp400
Rp401
(dp402
g7
V311
p403
sg9
VPlusle
p404
sg11
VHG,SS,
p405
sg13
VHoenn
p406
sg15
V13
p407
sg17
g407
sg19
V20
p408
sbag1
(g2
g3
Ntp409
Rp410
(dp411
g7
V312
p412
sg9
VMinun
p413
sg11
VHG,SS,
p414
sg13
VHoenn
p415
sg15
V14
p416
sg17
g416
sg19
V20
p417
sbag1
(g2
g3
Ntp418
Rp419
(dp420
g7
V403
p421
sg9
VShinx
p422
sg11
VHG,SS,
p423
sg13
VSinnoh
p424
sg15
V13
p425
sg17
V14
p426
sg19
V40
p427
sbag1
(g2
g3
Ntp428
Rp429
(dp430
g7
V016
p431
sg9
VPidgey
p432
sg11
VPi,Ev,
p433
sg13
VGrass
p434
sg15
V11
p435
sg17
V16
p436
sg19
V20
p437
sbag1
(g2
g3
Ntp438
Rp439
(dp440
g7
V017
p441
sg9
VPidgeotto
p442
sg11
VPi,Ev,
p443
sg13
VGrass
p444
sg15
V11
p445
sg17
V16
p446
sg19
V10
p447
sbag1
(g2
g3
Ntp448
Rp449
(dp450
g7
V019
p451
sg9
VRattata
p452
sg11
VPi,Ev,
p453
sg13
VGrass
p454
sg15
V11
p455
sg17
V16
p456
sg19
V30
p457
sbag1
(g2
g3
Ntp458
Rp459
(dp460
g7
V037
p461
sg9
VVulpix
p462
sg11
VEv,
p463
sg13
VGrass
p464
sg15
V11
p465
sg17
V16
p466
sg19
V20
p467
sbag1
(g2
g3
Ntp468
Rp469
(dp470
g7
V039
p471
sg9
VJigglypuff
p472
sg11
VPi,Ev,
p473
sg13
VGrass
p474
sg15
V11
p475
sg17
V16
p476
sg19
V15
p477
sbag1
(g2
g3
Ntp478
Rp479
(dp480
g7
V058
p481
sg9
VGrowlithe
p482
sg11
VPi,
p483
sg13
VGrass
p484
sg15
V11
p485
sg17
V16
p486
sg19
V20
p487
sbag1
(g2
g3
Ntp488
Rp489
(dp490
g7
V063
p491
sg9
VAbra
p492
sg11
VPi,Ev,
p493
sg13
VGrass
p494
sg15
V11
p495
sg17
V16
p496
sg19
V5
p497
sbag1
(g2
g3
Ntp498
Rp499
(dp500
g7
V113
p501
sg9
VChansey
p502
sg11
VPi,Ev,
p503
sg13
VGrass
p504
sg15
V11
p505
sg17
V16
p506
sg19
V0
p507
sbag1
(g2
g3
Ntp508
Rp509
(dp510
g7
V016
p511
sg9
VPidgey
p512
sg11
VPi,Ev,
p513
sg13
VSky
p514
sg15
g54
sg17
V56
p515
sg19
V60
p516
sbag1
(g2
g3
Ntp517
Rp518
(dp519
g7
V017
p520
sg9
VPidgeotto
p521
sg11
VPi,Ev,
p522
sg13
VSky
p523
sg15
g54
sg17
V56
p524
sg19
V35
p525
sbag1
(g2
g3
Ntp526
Rp527
(dp528
g7
V018
p529
sg9
VPidgeot
p530
sg11
VPi,Ev,
p531
sg13
VSky
p532
sg15
g54
sg17
V56
p533
sg19
V5
p534
sba.