(lp0
ccopy_reg
_reconstructor
p1
(c__main__
WildPokemon
p2
c__builtin__
object
p3
Ntp4
Rp5
(dp6
VpDexNo
p7
V029
p8
sVpSpecies
p9
VNidoran\u2640
p10
sVpGames
p11
VB,
p12
sVpArea
p13
VGrass
p14
sVpMinLevel
p15
V22
p16
sVpMaxLevel
p17
g16
sVpRate
p18
V25
p19
sbag1
(g2
g3
Ntp20
Rp21
(dp22
g7
V029
p23
sg9
VNidoran\u2640
p24
sg11
VY,
p25
sg13
VGrass
p26
sg15
V36
p27
sg17
g27
sg18
V15
p28
sbag1
(g2
g3
Ntp29
Rp30
(dp31
g7
V030
p32
sg9
VNidorina
p33
sg11
VR,
p34
sg13
VGrass
p35
sg15
V31
p36
sg17
g36
sg18
V5
p37
sbag1
(g2
g3
Ntp38
Rp39
(dp40
g7
V030
p41
sg9
VNidorina
p42
sg11
g12
sg13
VGrass
p43
sg15
V31
p44
sg17
g44
sg18
V10
p45
sbag1
(g2
g3
Ntp46
Rp47
(dp48
g7
V032
p49
sg9
VNidoran\u2642
p50
sg11
g34
sg13
VGrass
p51
sg15
V22
p52
sg17
g52
sg18
V25
p53
sbag1
(g2
g3
Ntp54
Rp55
(dp56
g7
V032
p57
sg9
VNidoran\u2642
p58
sg11
g25
sg13
VGrass
p59
sg15
V14
p60
sg17
g60
sg18
V25
p61
sbag1
(g2
g3
Ntp62
Rp63
(dp64
g7
V033
p65
sg9
VNidorino
p66
sg11
g34
sg13
VGrass
p67
sg15
V31
p68
sg17
g68
sg18
V10
p69
sbag1
(g2
g3
Ntp70
Rp71
(dp72
g7
V033
p73
sg9
VNidorino
p74
sg11
g12
sg13
VGrass
p75
sg15
V31
p76
sg17
g76
sg18
V5
p77
sbag1
(g2
g3
Ntp78
Rp79
(dp80
g7
V033
p81
sg9
VNidorino
p82
sg11
g25
sg13
VGrass
p83
sg15
V23
p84
sg17
g84
sg18
V10
p85
sbag1
(g2
g3
Ntp86
Rp87
(dp88
g7
V046
p89
sg9
VParas
p90
sg11
g25
sg13
VGrass
p91
sg15
V27
p92
sg17
g92
sg18
V5
p93
sbag1
(g2
g3
Ntp94
Rp95
(dp96
g7
V047
p97
sg9
VParasect
p98
sg11
VR,B,
p99
sg13
VGrass
p100
sg15
V30
p101
sg17
g101
sg18
V5
p102
sbag1
(g2
g3
Ntp103
Rp104
(dp105
g7
V047
p106
sg9
VParasect
p107
sg11
g25
sg13
VGrass
p108
sg15
V27
p109
sg17
V32
p110
sg18
V15
p111
sbag1
(g2
g3
Ntp112
Rp113
(dp114
g7
V048
p115
sg9
VVenonat
p116
sg11
VR,B,
p117
sg13
VGrass
p118
sg15
V22
p119
sg17
g119
sg18
V15
p120
sbag1
(g2
g3
Ntp121
Rp122
(dp123
g7
V102
p124
sg9
VExeggcute
p125
sg11
VR,B,
p126
sg13
VGrass
p127
sg15
V24
p128
sg17
V25
p129
sg18
V20
p130
sbag1
(g2
g3
Ntp131
Rp132
(dp133
g7
V102
p134
sg9
VExeggcute
p135
sg11
g25
sg13
VGrass
p136
sg15
V24
p137
sg17
g137
sg18
V15
p138
sbag1
(g2
g3
Ntp139
Rp140
(dp141
g7
V111
p142
sg9
VRhyhorn
p143
sg11
VR,B,
p144
sg13
VGrass
p145
sg15
V25
p146
sg17
g146
sg18
V15
p147
sbag1
(g2
g3
Ntp148
Rp149
(dp150
g7
V111
p151
sg9
VRhyhorn
p152
sg11
g25
sg13
VGrass
p153
sg15
V20
p154
sg17
g154
sg18
V10
p155
sbag1
(g2
g3
Ntp156
Rp157
(dp158
g7
V113
p159
sg9
VChansey
p160
sg11
VR,B,
p161
sg13
VGrass
p162
sg15
V23
p163
sg17
g163
sg18
V1
p164
sbag1
(g2
g3
Ntp165
Rp166
(dp167
g7
V113
p168
sg9
VChansey
p169
sg11
g25
sg13
VGrass
p170
sg15
V7
p171
sg17
g171
sg18
V1
p172
sbag1
(g2
g3
Ntp173
Rp174
(dp175
g7
V114
p176
sg9
VTangela
p177
sg11
g25
sg13
VGrass
p178
sg15
V22
p179
sg17
g179
sg18
V4
p180
sbag1
(g2
g3
Ntp181
Rp182
(dp183
g7
V123
p184
sg9
VScyther
p185
sg11
g34
sg13
VGrass
p186
sg15
V23
p187
sg17
g187
sg18
V4
p188
sbag1
(g2
g3
Ntp189
Rp190
(dp191
g7
V127
p192
sg9
VPinsir
p193
sg11
g12
sg13
VGrass
p194
sg15
V23
p195
sg17
g195
sg18
V4
p196
sbag1
(g2
g3
Ntp197
Rp198
(dp199
g7
V129
p200
sg9
VMagikarp
p201
sg11
VR,B,Y,
p202
sg13
VFish Old
p203
sg15
V5
p204
sg17
g204
sg18
V100
p205
sbag1
(g2
g3
Ntp206
Rp207
(dp208
g7
V060
p209
sg9
VPoliwag
p210
sg11
VR,B,Y,
p211
sg13
VFish Good
p212
sg15
V10
p213
sg17
g213
sg18
V50
p214
sbag1
(g2
g3
Ntp215
Rp216
(dp217
g7
V118
p218
sg9
VGoldeen
p219
sg11
VR,B,Y,
p220
sg13
VFish Good
p221
sg15
V10
p222
sg17
g222
sg18
V50
p223
sbag1
(g2
g3
Ntp224
Rp225
(dp226
g7
V054
p227
sg9
VPsyduck
p228
sg11
VR,B,
p229
sg13
VFish Super
p230
sg15
V15
p231
sg17
g231
sg18
V25
p232
sbag1
(g2
g3
Ntp233
Rp234
(dp235
g7
V079
p236
sg9
VSlowpoke
p237
sg11
VR,B,
p238
sg13
VFish Super
p239
sg15
V15
p240
sg17
g240
sg18
V25
p241
sbag1
(g2
g3
Ntp242
Rp243
(dp244
g7
V098
p245
sg9
VKrabby
p246
sg11
VR,B,
p247
sg13
VFish Super
p248
sg15
V15
p249
sg17
g249
sg18
V25
p250
sbag1
(g2
g3
Ntp251
Rp252
(dp253
g7
V129
p254
sg9
VMagikarp
p255
sg11
g25
sg13
VFish Super
p256
sg15
g204
sg17
V10
p257
sg18
V70
p258
sbag1
(g2
g3
Ntp259
Rp260
(dp261
g7
V147
p262
sg9
VDratini
p263
sg11
VR,B,
p264
sg13
VFish Super
p265
sg15
V15
p266
sg17
g266
sg18
V25
p267
sbag1
(g2
g3
Ntp268
Rp269
(dp270
g7
V147
p271
sg9
VDratini
p272
sg11
g25
sg13
VFish Super
p273
sg15
V10
p274
sg17
g274
sg18
V20
p275
sbag1
(g2
g3
Ntp276
Rp277
(dp278
g7
V148
p279
sg9
VDragonair
p280
sg11
g25
sg13
VFish Super
p281
sg15
V15
p282
sg17
g282
sg18
V10
p283
sbag1
(g2
g3
Ntp284
Rp285
(dp286
g7
V029
p287
sg9
VNidoran\u2640
p288
sg11
g34
sg13
VGrass
p289
sg15
V24
p290
sg17
g290
sg18
V5
p291
sbag1
(g2
g3
Ntp292
Rp293
(dp294
g7
V029
p295
sg9
VNidoran\u2640
p296
sg11
g12
sg13
VGrass
p297
sg15
V24
p298
sg17
g298
sg18
V25
p299
sbag1
(g2
g3
Ntp300
Rp301
(dp302
g7
V029
p303
sg9
VNidoran\u2640
p304
sg11
g25
sg13
VGrass
p305
sg15
V29
p306
sg17
g306
sg18
V25
p307
sbag1
(g2
g3
Ntp308
Rp309
(dp310
g7
V030
p311
sg9
VNidorina
p312
sg11
g12
sg13
VGrass
p313
sg15
V33
p314
sg17
g314
sg18
V10
p315
sbag1
(g2
g3
Ntp316
Rp317
(dp318
g7
V030
p319
sg9
VNidorina
p320
sg11
g25
sg13
VGrass
p321
sg15
V32
p322
sg17
g322
sg18
V10
p323
sbag1
(g2
g3
Ntp324
Rp325
(dp326
g7
V032
p327
sg9
VNidoran\u2642
p328
sg11
g34
sg13
VGrass
p329
sg15
V24
p330
sg17
g330
sg18
V25
p331
sbag1
(g2
g3
Ntp332
Rp333
(dp334
g7
V032
p335
sg9
VNidoran\u2642
p336
sg11
g12
sg13
VGrass
p337
sg15
V24
p338
sg17
g338
sg18
V5
p339
sbag1
(g2
g3
Ntp340
Rp341
(dp342
g7
V032
p343
sg9
VNidoran\u2642
p344
sg11
g25
sg13
VGrass
p345
sg15
V21
p346
sg17
g346
sg18
V15
p347
sbag1
(g2
g3
Ntp348
Rp349
(dp350
g7
V033
p351
sg9
VNidorino
p352
sg11
g34
sg13
VGrass
p353
sg15
V33
p354
sg17
g354
sg18
V10
p355
sbag1
(g2
g3
Ntp356
Rp357
(dp358
g7
V046
p359
sg9
VParas
p360
sg11
VR,B,
p361
sg13
VGrass
p362
sg15
V22
p363
sg17
g363
sg18
V15
p364
sbag1
(g2
g3
Ntp365
Rp366
(dp367
g7
V047
p368
sg9
VParasect
p369
sg11
VR,B,
p370
sg13
VGrass
p371
sg15
V25
p372
sg17
g372
sg18
V5
p373
sbag1
(g2
g3
Ntp374
Rp375
(dp376
g7
V084
p377
sg9
VDoduo
p378
sg11
VR,B,
p379
sg13
VGrass
p380
sg15
V26
p381
sg17
g381
sg18
V15
p382
sbag1
(g2
g3
Ntp383
Rp384
(dp385
g7
V102
p386
sg9
VExeggcute
p387
sg11
VR,B,
p388
sg13
VGrass
p389
sg15
V23
p390
sg17
V25
p391
sg18
V20
p392
sbag1
(g2
g3
Ntp393
Rp394
(dp395
g7
V102
p396
sg9
VExeggcute
p397
sg11
g25
sg13
VGrass
p398
sg15
V22
p399
sg17
V26
p400
sg18
V20
p401
sbag1
(g2
g3
Ntp402
Rp403
(dp404
g7
V104
p405
sg9
VCubone
p406
sg11
g25
sg13
VGrass
p407
sg15
V19
p408
sg17
g408
sg18
V10
p409
sbag1
(g2
g3
Ntp410
Rp411
(dp412
g7
V105
p413
sg9
VMarowak
p414
sg11
g25
sg13
VGrass
p415
sg15
V24
p416
sg17
g416
sg18
V5
p417
sbag1
(g2
g3
Ntp418
Rp419
(dp420
g7
V113
p421
sg9
VChansey
p422
sg11
g25
sg13
VGrass
p423
sg15
V21
p424
sg17
g424
sg18
V4
p425
sbag1
(g2
g3
Ntp426
Rp427
(dp428
g7
V115
p429
sg9
VKangaskhan
p430
sg11
VR,B,
p431
sg13
VGrass
p432
sg15
V25
p433
sg17
g433
sg18
V4
p434
sbag1
(g2
g3
Ntp435
Rp436
(dp437
g7
V123
p438
sg9
VScyther
p439
sg11
g34
sg13
VGrass
p440
sg15
V28
p441
sg17
g441
sg18
V1
p442
sbag1
(g2
g3
Ntp443
Rp444
(dp445
g7
V123
p446
sg9
VScyther
p447
sg11
g25
sg13
VGrass
p448
sg15
V15
p449
sg17
g449
sg18
V1
p450
sbag1
(g2
g3
Ntp451
Rp452
(dp453
g7
V127
p454
sg9
VPinsir
p455
sg11
g12
sg13
VGrass
p456
sg15
V28
p457
sg17
g457
sg18
V1
p458
sbag1
(g2
g3
Ntp459
Rp460
(dp461
g7
V128
p462
sg9
VTauros
p463
sg11
g25
sg13
VGrass
p464
sg15
V21
p465
sg17
g465
sg18
V10
p466
sbag1
(g2
g3
Ntp467
Rp468
(dp469
g7
V129
p470
sg9
VMagikarp
p471
sg11
VR,B,Y,
p472
sg13
VFish Old
p473
sg15
g204
sg17
g204
sg18
V100
p474
sbag1
(g2
g3
Ntp475
Rp476
(dp477
g7
V060
p478
sg9
VPoliwag
p479
sg11
VR,B,Y,
p480
sg13
VFish Good
p481
sg15
V10
p482
sg17
g482
sg18
V50
p483
sbag1
(g2
g3
Ntp484
Rp485
(dp486
g7
V118
p487
sg9
VGoldeen
p488
sg11
VR,B,Y,
p489
sg13
VFish Good
p490
sg15
V10
p491
sg17
g491
sg18
V50
p492
sbag1
(g2
g3
Ntp493
Rp494
(dp495
g7
V054
p496
sg9
VPsyduck
p497
sg11
VR,B,
p498
sg13
VFish Super
p499
sg15
V15
p500
sg17
g500
sg18
V25
p501
sbag1
(g2
g3
Ntp502
Rp503
(dp504
g7
V079
p505
sg9
VSlowpoke
p506
sg11
VR,B,
p507
sg13
VFish Super
p508
sg15
V15
p509
sg17
g509
sg18
V25
p510
sbag1
(g2
g3
Ntp511
Rp512
(dp513
g7
V098
p514
sg9
VKrabby
p515
sg11
VR,B,
p516
sg13
VFish Super
p517
sg15
V15
p518
sg17
g518
sg18
V25
p519
sbag1
(g2
g3
Ntp520
Rp521
(dp522
g7
V129
p523
sg9
VMagikarp
p524
sg11
g25
sg13
VFish Super
p525
sg15
g204
sg17
V15
p526
sg18
V90
p527
sbag1
(g2
g3
Ntp528
Rp529
(dp530
g7
V147
p531
sg9
VDratini
p532
sg11
VR,B,
p533
sg13
VFish Super
p534
sg15
V15
p535
sg17
g535
sg18
V25
p536
sbag1
(g2
g3
Ntp537
Rp538
(dp539
g7
V147
p540
sg9
VDratini
p541
sg11
g25
sg13
VFish Super
p542
sg15
V15
p543
sg17
g543
sg18
V10
p544
sbag1
(g2
g3
Ntp545
Rp546
(dp547
g7
V029
p548
sg9
VNidoran\u2640
p549
sg11
g12
sg13
VGrass
p550
sg15
V22
p551
sg17
g551
sg18
V25
p552
sbag1
(g2
g3
Ntp553
Rp554
(dp555
g7
V029
p556
sg9
VNidoran\u2640
p557
sg11
g25
sg13
VGrass
p558
sg15
V14
p559
sg17
g559
sg18
V15
p560
sbag1
(g2
g3
Ntp561
Rp562
(dp563
g7
V030
p564
sg9
VNidorina
p565
sg11
g34
sg13
VGrass
p566
sg15
V30
p567
sg17
g567
sg18
V5
p568
sbag1
(g2
g3
Ntp569
Rp570
(dp571
g7
V030
p572
sg9
VNidorina
p573
sg11
g12
sg13
VGrass
p574
sg15
V30
p575
sg17
g575
sg18
V10
p576
sbag1
(g2
g3
Ntp577
Rp578
(dp579
g7
V030
p580
sg9
VNidorina
p581
sg11
g25
sg13
VGrass
p582
sg15
V23
p583
sg17
g583
sg18
V10
p584
sbag1
(g2
g3
Ntp585
Rp586
(dp587
g7
V032
p588
sg9
VNidoran\u2642
p589
sg11
g34
sg13
VGrass
p590
sg15
V22
p591
sg17
g591
sg18
V25
p592
sbag1
(g2
g3
Ntp593
Rp594
(dp595
g7
V032
p596
sg9
VNidoran\u2642
p597
sg11
g25
sg13
VGrass
p598
sg15
V36
p599
sg17
g599
sg18
V25
p600
sbag1
(g2
g3
Ntp601
Rp602
(dp603
g7
V033
p604
sg9
VNidorino
p605
sg11
g34
sg13
VGrass
p606
sg15
V30
p607
sg17
g607
sg18
V10
p608
sbag1
(g2
g3
Ntp609
Rp610
(dp611
g7
V033
p612
sg9
VNidorino
p613
sg11
g12
sg13
VGrass
p614
sg15
V30
p615
sg17
g615
sg18
V5
p616
sbag1
(g2
g3
Ntp617
Rp618
(dp619
g7
V046
p620
sg9
VParas
p621
sg11
VR,B,
p622
sg13
VGrass
p623
sg15
V23
p624
sg17
g624
sg18
V15
p625
sbag1
(g2
g3
Ntp626
Rp627
(dp628
g7
V049
p629
sg9
VVenomoth
p630
sg11
VR,B,
p631
sg13
VGrass
p632
sg15
V32
p633
sg17
g633
sg18
V5
p634
sbag1
(g2
g3
Ntp635
Rp636
(dp637
g7
V102
p638
sg9
VExeggcute
p639
sg11
VR,B,
p640
sg13
VGrass
p641
sg15
V25
p642
sg17
V27
p643
sg18
V20
p644
sbag1
(g2
g3
Ntp645
Rp646
(dp647
g7
V102
p648
sg9
VExeggcute
p649
sg11
g25
sg13
VGrass
p650
sg15
V20
p651
sg17
g651
sg18
V15
p652
sbag1
(g2
g3
Ntp653
Rp654
(dp655
g7
V104
p656
sg9
VCubone
p657
sg11
g25
sg13
VGrass
p658
sg15
V16
p659
sg17
g659
sg18
V5
p660
sbag1
(g2
g3
Ntp661
Rp662
(dp663
g7
V111
p664
sg9
VRhyhorn
p665
sg11
VR,B,
p666
sg13
VGrass
p667
sg15
V26
p668
sg17
g668
sg18
V15
p669
sbag1
(g2
g3
Ntp670
Rp671
(dp672
g7
V111
p673
sg9
VRhyhorn
p674
sg11
g25
sg13
VGrass
p675
sg15
V25
p676
sg17
g676
sg18
V10
p677
sbag1
(g2
g3
Ntp678
Rp679
(dp680
g7
V113
p681
sg9
VChansey
p682
sg11
VR,B,
p683
sg13
VGrass
p684
sg15
V26
p685
sg17
g685
sg18
V4
p686
sbag1
(g2
g3
Ntp687
Rp688
(dp689
g7
V115
p690
sg9
VKangaskhan
p691
sg11
g25
sg13
VGrass
p692
sg15
V28
p693
sg17
V33
p694
sg18
V15
p695
sbag1
(g2
g3
Ntp696
Rp697
(dp698
g7
V123
p699
sg9
VScyther
p700
sg11
g25
sg13
VGrass
p701
sg15
V25
p702
sg17
g702
sg18
V4
p703
sbag1
(g2
g3
Ntp704
Rp705
(dp706
g7
V127
p707
sg9
VPinsir
p708
sg11
g25
sg13
VGrass
p709
sg15
V15
p710
sg17
g710
sg18
V1
p711
sbag1
(g2
g3
Ntp712
Rp713
(dp714
g7
V128
p715
sg9
VTauros
p716
sg11
VR,B,
p717
sg13
VGrass
p718
sg15
V28
p719
sg17
g719
sg18
V1
p720
sbag1
(g2
g3
Ntp721
Rp722
(dp723
g7
V129
p724
sg9
VMagikarp
p725
sg11
VR,B,Y,
p726
sg13
VFish Old
p727
sg15
g204
sg17
g204
sg18
V100
p728
sbag1
(g2
g3
Ntp729
Rp730
(dp731
g7
V060
p732
sg9
VPoliwag
p733
sg11
VR,B,Y,
p734
sg13
VFish Good
p735
sg15
V10
p736
sg17
g736
sg18
V50
p737
sbag1
(g2
g3
Ntp738
Rp739
(dp740
g7
V118
p741
sg9
VGoldeen
p742
sg11
VR,B,Y,
p743
sg13
VFish Good
p744
sg15
V10
p745
sg17
g745
sg18
V50
p746
sbag1
(g2
g3
Ntp747
Rp748
(dp749
g7
V054
p750
sg9
VPsyduck
p751
sg11
VR,B,
p752
sg13
VFish Super
p753
sg15
V15
p754
sg17
g754
sg18
V25
p755
sbag1
(g2
g3
Ntp756
Rp757
(dp758
g7
V079
p759
sg9
VSlowpoke
p760
sg11
VR,B,
p761
sg13
VFish Super
p762
sg15
V15
p763
sg17
g763
sg18
V25
p764
sbag1
(g2
g3
Ntp765
Rp766
(dp767
g7
V098
p768
sg9
VKrabby
p769
sg11
VR,B,
p770
sg13
VFish Super
p771
sg15
V15
p772
sg17
g772
sg18
V25
p773
sbag1
(g2
g3
Ntp774
Rp775
(dp776
g7
V129
p777
sg9
VMagikarp
p778
sg11
g25
sg13
VFish Super
p779
sg15
g204
sg17
V15
p780
sg18
V90
p781
sbag1
(g2
g3
Ntp782
Rp783
(dp784
g7
V147
p785
sg9
VDratini
p786
sg11
VR,B,
p787
sg13
VFish Super
p788
sg15
V15
p789
sg17
g789
sg18
V25
p790
sbag1
(g2
g3
Ntp791
Rp792
(dp793
g7
V147
p794
sg9
VDratini
p795
sg11
g25
sg13
VFish Super
p796
sg15
V15
p797
sg17
g797
sg18
V10
p798
sbag1
(g2
g3
Ntp799
Rp800
(dp801
g7
V029
p802
sg9
VNidoran\u2640
p803
sg11
g34
sg13
VGrass
p804
sg15
V25
p805
sg17
g805
sg18
V5
p806
sbag1
(g2
g3
Ntp807
Rp808
(dp809
g7
V029
p810
sg9
VNidoran\u2640
p811
sg11
g12
sg13
VGrass
p812
sg15
V25
p813
sg17
g813
sg18
V25
p814
sbag1
(g2
g3
Ntp815
Rp816
(dp817
g7
V029
p818
sg9
VNidoran\u2640
p819
sg11
g25
sg13
VGrass
p820
sg15
V21
p821
sg17
g821
sg18
V15
p822
sbag1
(g2
g3
Ntp823
Rp824
(dp825
g7
V030
p826
sg9
VNidorina
p827
sg11
g12
sg13
VGrass
p828
sg15
V33
p829
sg17
g829
sg18
V10
p830
sbag1
(g2
g3
Ntp831
Rp832
(dp833
g7
V032
p834
sg9
VNidoran\u2642
p835
sg11
g34
sg13
VGrass
p836
sg15
V25
p837
sg17
g837
sg18
V25
p838
sbag1
(g2
g3
Ntp839
Rp840
(dp841
g7
V032
p842
sg9
VNidoran\u2642
p843
sg11
g12
sg13
VGrass
p844
sg15
V25
p845
sg17
g845
sg18
V5
p846
sbag1
(g2
g3
Ntp847
Rp848
(dp849
g7
V032
p850
sg9
VNidoran\u2642
p851
sg11
g25
sg13
VGrass
p852
sg15
V29
p853
sg17
g853
sg18
V25
p854
sbag1
(g2
g3
Ntp855
Rp856
(dp857
g7
V033
p858
sg9
VNidorino
p859
sg11
g34
sg13
VGrass
p860
sg15
V33
p861
sg17
g861
sg18
V10
p862
sbag1
(g2
g3
Ntp863
Rp864
(dp865
g7
V033
p866
sg9
VNidorino
p867
sg11
g25
sg13
VGrass
p868
sg15
V32
p869
sg17
g869
sg18
V10
p870
sbag1
(g2
g3
Ntp871
Rp872
(dp873
g7
V048
p874
sg9
VVenonat
p875
sg11
VR,B,
p876
sg13
VGrass
p877
sg15
V23
p878
sg17
g878
sg18
V15
p879
sbag1
(g2
g3
Ntp880
Rp881
(dp882
g7
V049
p883
sg9
VVenomoth
p884
sg11
VR,B,
p885
sg13
VGrass
p886
sg15
V31
p887
sg17
g887
sg18
V5
p888
sbag1
(g2
g3
Ntp889
Rp890
(dp891
g7
V084
p892
sg9
VDoduo
p893
sg11
VR,B,
p894
sg13
VGrass
p895
sg15
V26
p896
sg17
g896
sg18
V15
p897
sbag1
(g2
g3
Ntp898
Rp899
(dp900
g7
V102
p901
sg9
VExeggcute
p902
sg11
VR,B,
p903
sg13
VGrass
p904
sg15
V24
p905
sg17
V26
p906
sg18
V20
p907
sbag1
(g2
g3
Ntp908
Rp909
(dp910
g7
V102
p911
sg9
VExeggcute
p912
sg11
g25
sg13
VGrass
p913
sg15
V22
p914
sg17
V26
p915
sg18
V20
p916
sbag1
(g2
g3
Ntp917
Rp918
(dp919
g7
V104
p920
sg9
VCubone
p921
sg11
g25
sg13
VGrass
p922
sg15
V19
p923
sg17
g923
sg18
V10
p924
sbag1
(g2
g3
Ntp925
Rp926
(dp927
g7
V105
p928
sg9
VMarowak
p929
sg11
g25
sg13
VGrass
p930
sg15
V24
p931
sg17
g931
sg18
V5
p932
sbag1
(g2
g3
Ntp933
Rp934
(dp935
g7
V114
p936
sg9
VTangela
p937
sg11
g25
sg13
VGrass
p938
sg15
V27
p939
sg17
g939
sg18
V1
p940
sbag1
(g2
g3
Ntp941
Rp942
(dp943
g7
V115
p944
sg9
VKangaskhan
p945
sg11
VR,B,
p946
sg13
VGrass
p947
sg15
V28
p948
sg17
g948
sg18
V1
p949
sbag1
(g2
g3
Ntp950
Rp951
(dp952
g7
V127
p953
sg9
VPinsir
p954
sg11
g25
sg13
VGrass
p955
sg15
V25
p956
sg17
g956
sg18
V4
p957
sbag1
(g2
g3
Ntp958
Rp959
(dp960
g7
V128
p961
sg9
VTauros
p962
sg11
VR,B,
p963
sg13
VGrass
p964
sg15
V26
p965
sg17
g965
sg18
V4
p966
sbag1
(g2
g3
Ntp967
Rp968
(dp969
g7
V128
p970
sg9
VTauros
p971
sg11
g25
sg13
VGrass
p972
sg15
V21
p973
sg17
g973
sg18
V10
p974
sbag1
(g2
g3
Ntp975
Rp976
(dp977
g7
V129
p978
sg9
VMagikarp
p979
sg11
VR,B,Y,
p980
sg13
VFish Old
p981
sg15
g204
sg17
g204
sg18
V100
p982
sbag1
(g2
g3
Ntp983
Rp984
(dp985
g7
V060
p986
sg9
VPoliwag
p987
sg11
VR,B,Y,
p988
sg13
VFish Good
p989
sg15
V10
p990
sg17
g990
sg18
V50
p991
sbag1
(g2
g3
Ntp992
Rp993
(dp994
g7
V118
p995
sg9
VGoldeen
p996
sg11
VR,B,Y,
p997
sg13
VFish Good
p998
sg15
V10
p999
sg17
g999
sg18
V50
p1000
sbag1
(g2
g3
Ntp1001
Rp1002
(dp1003
g7
V054
p1004
sg9
VPsyduck
p1005
sg11
VR,B,
p1006
sg13
VFish Super
p1007
sg15
V15
p1008
sg17
g1008
sg18
V25
p1009
sbag1
(g2
g3
Ntp1010
Rp1011
(dp1012
g7
V079
p1013
sg9
VSlowpoke
p1014
sg11
VR,B,
p1015
sg13
VFish Super
p1016
sg15
V15
p1017
sg17
g1017
sg18
V25
p1018
sbag1
(g2
g3
Ntp1019
Rp1020
(dp1021
g7
V098
p1022
sg9
VKrabby
p1023
sg11
VR,B,
p1024
sg13
VFish Super
p1025
sg15
V15
p1026
sg17
g1026
sg18
V25
p1027
sbag1
(g2
g3
Ntp1028
Rp1029
(dp1030
g7
V129
p1031
sg9
VMagikarp
p1032
sg11
g25
sg13
VFish Super
p1033
sg15
g204
sg17
V15
p1034
sg18
V90
p1035
sbag1
(g2
g3
Ntp1036
Rp1037
(dp1038
g7
V147
p1039
sg9
VDratini
p1040
sg11
VR,B,
p1041
sg13
VFish Super
p1042
sg15
V15
p1043
sg17
g1043
sg18
V25
p1044
sbag1
(g2
g3
Ntp1045
Rp1046
(dp1047
g7
V147
p1048
sg9
VDratini
p1049
sg11
g25
sg13
VFish Super
p1050
sg15
V15
p1051
sg17
g1051
sg18
V10
p1052
sbag1
(g2
g3
Ntp1053
Rp1054
(dp1055
g7
V029
p1056
sg9
VNidoran\u2640
p1057
sg11
VLG,
p1058
sg13
VGrass
p1059
sg15
V22
p1060
sg17
g1060
sg18
V20
p1061
sbag1
(g2
g3
Ntp1062
Rp1063
(dp1064
g7
V030
p1065
sg9
VNidorina
p1066
sg11
VFR,
p1067
sg13
VGrass
p1068
sg15
V31
p1069
sg17
g1069
sg18
V5
p1070
sbag1
(g2
g3
Ntp1071
Rp1072
(dp1073
g7
V030
p1074
sg9
VNidorina
p1075
sg11
g1058
sg13
VGrass
p1076
sg15
V31
p1077
sg17
g1077
sg18
V10
p1078
sbag1
(g2
g3
Ntp1079
Rp1080
(dp1081
g7
V032
p1082
sg9
VNidoran\u2642
p1083
sg11
g1067
sg13
VGrass
p1084
sg15
V22
p1085
sg17
g1085
sg18
V20
p1086
sbag1
(g2
g3
Ntp1087
Rp1088
(dp1089
g7
V033
p1090
sg9
VNidorino
p1091
sg11
g1067
sg13
VGrass
p1092
sg15
V31
p1093
sg17
g1093
sg18
V10
p1094
sbag1
(g2
g3
Ntp1095
Rp1096
(dp1097
g7
V033
p1098
sg9
VNidorino
p1099
sg11
g1058
sg13
VGrass
p1100
sg15
V31
p1101
sg17
g1101
sg18
V5
p1102
sbag1
(g2
g3
Ntp1103
Rp1104
(dp1105
g7
V047
p1106
sg9
VParasect
p1107
sg11
VFR,LG,
p1108
sg13
VGrass
p1109
sg15
V30
p1110
sg17
g1110
sg18
V5
p1111
sbag1
(g2
g3
Ntp1112
Rp1113
(dp1114
g7
V048
p1115
sg9
VVenonat
p1116
sg11
VFR,LG,
p1117
sg13
VGrass
p1118
sg15
V22
p1119
sg17
g1119
sg18
V15
p1120
sbag1
(g2
g3
Ntp1121
Rp1122
(dp1123
g7
V102
p1124
sg9
VExeggcute
p1125
sg11
VFR,LG,
p1126
sg13
VGrass
p1127
sg15
V24
p1128
sg17
V25
p1129
sg18
V20
p1130
sbag1
(g2
g3
Ntp1131
Rp1132
(dp1133
g7
V111
p1134
sg9
VRhyhorn
p1135
sg11
VFR,LG,
p1136
sg13
VGrass
p1137
sg15
V25
p1138
sg17
g1138
sg18
V20
p1139
sbag1
(g2
g3
Ntp1140
Rp1141
(dp1142
g7
V113
p1143
sg9
VChansey
p1144
sg11
VFR,LG,
p1145
sg13
VGrass
p1146
sg15
V23
p1147
sg17
g1147
sg18
V1
p1148
sbag1
(g2
g3
Ntp1149
Rp1150
(dp1151
g7
V123
p1152
sg9
VScyther
p1153
sg11
g1067
sg13
VGrass
p1154
sg15
V23
p1155
sg17
g1155
sg18
V4
p1156
sbag1
(g2
g3
Ntp1157
Rp1158
(dp1159
g7
V127
p1160
sg9
VPinsir
p1161
sg11
g1058
sg13
VGrass
p1162
sg15
V23
p1163
sg17
g1163
sg18
V4
p1164
sbag1
(g2
g3
Ntp1165
Rp1166
(dp1167
g7
V054
p1168
sg9
VPsyduck
p1169
sg11
g1067
sg13
VSurf
p1170
sg15
V20
p1171
sg17
V40
p1172
sg18
V100
p1173
sbag1
(g2
g3
Ntp1174
Rp1175
(dp1176
g7
V079
p1177
sg9
VSlowpoke
p1178
sg11
g1058
sg13
VSurf
p1179
sg15
V20
p1180
sg17
V40
p1181
sg18
V100
p1182
sbag1
(g2
g3
Ntp1183
Rp1184
(dp1185
g7
V129
p1186
sg9
VMagikarp
p1187
sg11
VFR,LG,
p1188
sg13
VFish Old
p1189
sg15
g204
sg17
g204
sg18
V100
p1190
sbag1
(g2
g3
Ntp1191
Rp1192
(dp1193
g7
V060
p1194
sg9
VPoliwag
p1195
sg11
VFR,LG,
p1196
sg13
VFish Good
p1197
sg15
g204
sg17
V15
p1198
sg18
V20
p1199
sbag1
(g2
g3
Ntp1200
Rp1201
(dp1202
g7
V118
p1203
sg9
VGoldeen
p1204
sg11
VFR,LG,
p1205
sg13
VFish Good
p1206
sg15
g204
sg17
V15
p1207
sg18
V60
p1208
sbag1
(g2
g3
Ntp1209
Rp1210
(dp1211
g7
V129
p1212
sg9
VMagikarp
p1213
sg11
VFR,LG,
p1214
sg13
VFish Good
p1215
sg15
g204
sg17
V15
p1216
sg18
V20
p1217
sbag1
(g2
g3
Ntp1218
Rp1219
(dp1220
g7
V054
p1221
sg9
VPsyduck
p1222
sg11
g1067
sg13
VFish Super
p1223
sg15
V15
p1224
sg17
V35
p1225
sg18
V4
p1226
sbag1
(g2
g3
Ntp1227
Rp1228
(dp1229
g7
V079
p1230
sg9
VSlowpoke
p1231
sg11
g1058
sg13
VFish Super
p1232
sg15
V15
p1233
sg17
V35
p1234
sg18
V4
p1235
sbag1
(g2
g3
Ntp1236
Rp1237
(dp1238
g7
V118
p1239
sg9
VGoldeen
p1240
sg11
VFR,LG,
p1241
sg13
VFish Super
p1242
sg15
V15
p1243
sg17
V25
p1244
sg18
V40
p1245
sbag1
(g2
g3
Ntp1246
Rp1247
(dp1248
g7
V119
p1249
sg9
VSeaking
p1250
sg11
VFR,LG,
p1251
sg13
VFish Super
p1252
sg15
V20
p1253
sg17
V30
p1254
sg18
V40
p1255
sbag1
(g2
g3
Ntp1256
Rp1257
(dp1258
g7
V147
p1259
sg9
VDratini
p1260
sg11
VFR,LG,
p1261
sg13
VFish Super
p1262
sg15
V15
p1263
sg17
V25
p1264
sg18
V15
p1265
sbag1
(g2
g3
Ntp1266
Rp1267
(dp1268
g7
V148
p1269
sg9
VDragonair
p1270
sg11
VFR,LG,
p1271
sg13
VFish Super
p1272
sg15
V25
p1273
sg17
V35
p1274
sg18
V1
p1275
sbag1
(g2
g3
Ntp1276
Rp1277
(dp1278
g7
V029
p1279
sg9
VNidoran\u2640
p1280
sg11
g1067
sg13
VGrass
p1281
sg15
V24
p1282
sg17
g1282
sg18
V5
p1283
sbag1
(g2
g3
Ntp1284
Rp1285
(dp1286
g7
V029
p1287
sg9
VNidoran\u2640
p1288
sg11
g1058
sg13
VGrass
p1289
sg15
V24
p1290
sg17
g1290
sg18
V20
p1291
sbag1
(g2
g3
Ntp1292
Rp1293
(dp1294
g7
V030
p1295
sg9
VNidorina
p1296
sg11
g1058
sg13
VGrass
p1297
sg15
V33
p1298
sg17
g1298
sg18
V10
p1299
sbag1
(g2
g3
Ntp1300
Rp1301
(dp1302
g7
V032
p1303
sg9
VNidoran\u2642
p1304
sg11
g1067
sg13
VGrass
p1305
sg15
V24
p1306
sg17
g1306
sg18
V20
p1307
sbag1
(g2
g3
Ntp1308
Rp1309
(dp1310
g7
V032
p1311
sg9
VNidoran\u2642
p1312
sg11
g1058
sg13
VGrass
p1313
sg15
V24
p1314
sg17
g1314
sg18
V5
p1315
sbag1
(g2
g3
Ntp1316
Rp1317
(dp1318
g7
V033
p1319
sg9
VNidorino
p1320
sg11
g1067
sg13
VGrass
p1321
sg15
V33
p1322
sg17
g1322
sg18
V10
p1323
sbag1
(g2
g3
Ntp1324
Rp1325
(dp1326
g7
V046
p1327
sg9
VParas
p1328
sg11
VFR,LG,
p1329
sg13
VGrass
p1330
sg15
V22
p1331
sg17
g1331
sg18
V15
p1332
sbag1
(g2
g3
Ntp1333
Rp1334
(dp1335
g7
V047
p1336
sg9
VParasect
p1337
sg11
VFR,LG,
p1338
sg13
VGrass
p1339
sg15
V25
p1340
sg17
g1340
sg18
V5
p1341
sbag1
(g2
g3
Ntp1342
Rp1343
(dp1344
g7
V084
p1345
sg9
VDoduo
p1346
sg11
VFR,LG,
p1347
sg13
VGrass
p1348
sg15
V26
p1349
sg17
g1349
sg18
V20
p1350
sbag1
(g2
g3
Ntp1351
Rp1352
(dp1353
g7
V102
p1354
sg9
VExeggcute
p1355
sg11
VFR,LG,
p1356
sg13
VGrass
p1357
sg15
V23
p1358
sg17
V25
p1359
sg18
V20
p1360
sbag1
(g2
g3
Ntp1361
Rp1362
(dp1363
g7
V115
p1364
sg9
VKangaskhan
p1365
sg11
VFR,LG,
p1366
sg13
VGrass
p1367
sg15
V25
p1368
sg17
g1368
sg18
V4
p1369
sbag1
(g2
g3
Ntp1370
Rp1371
(dp1372
g7
V123
p1373
sg9
VScyther
p1374
sg11
g1067
sg13
VGrass
p1375
sg15
V28
p1376
sg17
g1376
sg18
V1
p1377
sbag1
(g2
g3
Ntp1378
Rp1379
(dp1380
g7
V127
p1381
sg9
VPinsir
p1382
sg11
g1058
sg13
VGrass
p1383
sg15
V28
p1384
sg17
g1384
sg18
V1
p1385
sbag1
(g2
g3
Ntp1386
Rp1387
(dp1388
g7
V054
p1389
sg9
VPsyduck
p1390
sg11
g1067
sg13
VSurf
p1391
sg15
V20
p1392
sg17
V40
p1393
sg18
V100
p1394
sbag1
(g2
g3
Ntp1395
Rp1396
(dp1397
g7
V079
p1398
sg9
VSlowpoke
p1399
sg11
g1058
sg13
VSurf
p1400
sg15
V20
p1401
sg17
V40
p1402
sg18
V100
p1403
sbag1
(g2
g3
Ntp1404
Rp1405
(dp1406
g7
V129
p1407
sg9
VMagikarp
p1408
sg11
VFR,LG,
p1409
sg13
VFish Old
p1410
sg15
g204
sg17
g204
sg18
V100
p1411
sbag1
(g2
g3
Ntp1412
Rp1413
(dp1414
g7
V060
p1415
sg9
VPoliwag
p1416
sg11
VFR,LG,
p1417
sg13
VFish Good
p1418
sg15
g204
sg17
V15
p1419
sg18
V20
p1420
sbag1
(g2
g3
Ntp1421
Rp1422
(dp1423
g7
V118
p1424
sg9
VGoldeen
p1425
sg11
VFR,LG,
p1426
sg13
VFish Good
p1427
sg15
g204
sg17
V15
p1428
sg18
V60
p1429
sbag1
(g2
g3
Ntp1430
Rp1431
(dp1432
g7
V129
p1433
sg9
VMagikarp
p1434
sg11
VFR,LG,
p1435
sg13
VFish Good
p1436
sg15
g204
sg17
V15
p1437
sg18
V20
p1438
sbag1
(g2
g3
Ntp1439
Rp1440
(dp1441
g7
V054
p1442
sg9
VPsyduck
p1443
sg11
g1067
sg13
VFish Super
p1444
sg15
V15
p1445
sg17
V35
p1446
sg18
V4
p1447
sbag1
(g2
g3
Ntp1448
Rp1449
(dp1450
g7
V079
p1451
sg9
VSlowpoke
p1452
sg11
g1058
sg13
VFish Super
p1453
sg15
V15
p1454
sg17
V35
p1455
sg18
V4
p1456
sbag1
(g2
g3
Ntp1457
Rp1458
(dp1459
g7
V118
p1460
sg9
VGoldeen
p1461
sg11
VFR,LG,
p1462
sg13
VFish Super
p1463
sg15
V15
p1464
sg17
V25
p1465
sg18
V40
p1466
sbag1
(g2
g3
Ntp1467
Rp1468
(dp1469
g7
V119
p1470
sg9
VSeaking
p1471
sg11
VFR,LG,
p1472
sg13
VFish Super
p1473
sg15
V20
p1474
sg17
V30
p1475
sg18
V40
p1476
sbag1
(g2
g3
Ntp1477
Rp1478
(dp1479
g7
V147
p1480
sg9
VDratini
p1481
sg11
VFR,LG,
p1482
sg13
VFish Super
p1483
sg15
V15
p1484
sg17
V25
p1485
sg18
V15
p1486
sbag1
(g2
g3
Ntp1487
Rp1488
(dp1489
g7
V148
p1490
sg9
VDragonair
p1491
sg11
VFR,LG,
p1492
sg13
VFish Super
p1493
sg15
V25
p1494
sg17
V35
p1495
sg18
V1
p1496
sbag1
(g2
g3
Ntp1497
Rp1498
(dp1499
g7
V029
p1500
sg9
VNidoran\u2640
p1501
sg11
g1058
sg13
VGrass
p1502
sg15
V30
p1503
sg17
g1503
sg18
V20
p1504
sbag1
(g2
g3
Ntp1505
Rp1506
(dp1507
g7
V030
p1508
sg9
VNidorina
p1509
sg11
g1067
sg13
VGrass
p1510
sg15
V30
p1511
sg17
g1511
sg18
V5
p1512
sbag1
(g2
g3
Ntp1513
Rp1514
(dp1515
g7
V030
p1516
sg9
VNidorina
p1517
sg11
g1058
sg13
VGrass
p1518
sg15
V30
p1519
sg17
g1519
sg18
V10
p1520
sbag1
(g2
g3
Ntp1521
Rp1522
(dp1523
g7
V032
p1524
sg9
VNidoran\u2642
p1525
sg11
g1067
sg13
VGrass
p1526
sg15
V30
p1527
sg17
g1527
sg18
V20
p1528
sbag1
(g2
g3
Ntp1529
Rp1530
(dp1531
g7
V033
p1532
sg9
VNidorino
p1533
sg11
g1067
sg13
VGrass
p1534
sg15
V30
p1535
sg17
g1535
sg18
V10
p1536
sbag1
(g2
g3
Ntp1537
Rp1538
(dp1539
g7
V033
p1540
sg9
VNidorino
p1541
sg11
g1058
sg13
VGrass
p1542
sg15
V30
p1543
sg17
g1543
sg18
V5
p1544
sbag1
(g2
g3
Ntp1545
Rp1546
(dp1547
g7
V046
p1548
sg9
VParas
p1549
sg11
VFR,LG,
p1550
sg13
VGrass
p1551
sg15
V23
p1552
sg17
g1552
sg18
V15
p1553
sbag1
(g2
g3
Ntp1554
Rp1555
(dp1556
g7
V049
p1557
sg9
VVenomoth
p1558
sg11
VFR,LG,
p1559
sg13
VGrass
p1560
sg15
V32
p1561
sg17
g1561
sg18
V5
p1562
sbag1
(g2
g3
Ntp1563
Rp1564
(dp1565
g7
V102
p1566
sg9
VExeggcute
p1567
sg11
VFR,LG,
p1568
sg13
VGrass
p1569
sg15
V25
p1570
sg17
V27
p1571
sg18
V20
p1572
sbag1
(g2
g3
Ntp1573
Rp1574
(dp1575
g7
V111
p1576
sg9
VRhyhorn
p1577
sg11
VFR,LG,
p1578
sg13
VGrass
p1579
sg15
V26
p1580
sg17
g1580
sg18
V20
p1581
sbag1
(g2
g3
Ntp1582
Rp1583
(dp1584
g7
V113
p1585
sg9
VChansey
p1586
sg11
VFR,LG,
p1587
sg13
VGrass
p1588
sg15
V26
p1589
sg17
g1589
sg18
V4
p1590
sbag1
(g2
g3
Ntp1591
Rp1592
(dp1593
g7
V128
p1594
sg9
VTauros
p1595
sg11
VFR,LG,
p1596
sg13
VGrass
p1597
sg15
V28
p1598
sg17
g1598
sg18
V1
p1599
sbag1
(g2
g3
Ntp1600
Rp1601
(dp1602
g7
V054
p1603
sg9
VPsyduck
p1604
sg11
g1067
sg13
VSurf
p1605
sg15
V20
p1606
sg17
V40
p1607
sg18
V100
p1608
sbag1
(g2
g3
Ntp1609
Rp1610
(dp1611
g7
V079
p1612
sg9
VSlowpoke
p1613
sg11
g1058
sg13
VSurf
p1614
sg15
V20
p1615
sg17
V40
p1616
sg18
V100
p1617
sbag1
(g2
g3
Ntp1618
Rp1619
(dp1620
g7
V129
p1621
sg9
VMagikarp
p1622
sg11
VFR,LG,
p1623
sg13
VFish Old
p1624
sg15
g204
sg17
g204
sg18
V100
p1625
sbag1
(g2
g3
Ntp1626
Rp1627
(dp1628
g7
V060
p1629
sg9
VPoliwag
p1630
sg11
VFR,LG,
p1631
sg13
VFish Good
p1632
sg15
g204
sg17
V15
p1633
sg18
V20
p1634
sbag1
(g2
g3
Ntp1635
Rp1636
(dp1637
g7
V118
p1638
sg9
VGoldeen
p1639
sg11
VFR,LG,
p1640
sg13
VFish Good
p1641
sg15
g204
sg17
V15
p1642
sg18
V60
p1643
sbag1
(g2
g3
Ntp1644
Rp1645
(dp1646
g7
V129
p1647
sg9
VMagikarp
p1648
sg11
VFR,LG,
p1649
sg13
VFish Good
p1650
sg15
g204
sg17
V15
p1651
sg18
V20
p1652
sbag1
(g2
g3
Ntp1653
Rp1654
(dp1655
g7
V054
p1656
sg9
VPsyduck
p1657
sg11
g1067
sg13
VFish Super
p1658
sg15
V15
p1659
sg17
V35
p1660
sg18
V4
p1661
sbag1
(g2
g3
Ntp1662
Rp1663
(dp1664
g7
V079
p1665
sg9
VSlowpoke
p1666
sg11
g1058
sg13
VFish Super
p1667
sg15
V15
p1668
sg17
V35
p1669
sg18
V4
p1670
sbag1
(g2
g3
Ntp1671
Rp1672
(dp1673
g7
V118
p1674
sg9
VGoldeen
p1675
sg11
VFR,LG,
p1676
sg13
VFish Super
p1677
sg15
V15
p1678
sg17
V25
p1679
sg18
V40
p1680
sbag1
(g2
g3
Ntp1681
Rp1682
(dp1683
g7
V119
p1684
sg9
VSeaking
p1685
sg11
VFR,LG,
p1686
sg13
VFish Super
p1687
sg15
V20
p1688
sg17
V30
p1689
sg18
V40
p1690
sbag1
(g2
g3
Ntp1691
Rp1692
(dp1693
g7
V147
p1694
sg9
VDratini
p1695
sg11
VFR,LG,
p1696
sg13
VFish Super
p1697
sg15
V15
p1698
sg17
V25
p1699
sg18
V15
p1700
sbag1
(g2
g3
Ntp1701
Rp1702
(dp1703
g7
V148
p1704
sg9
VDragonair
p1705
sg11
VFR,LG,
p1706
sg13
VFish Super
p1707
sg15
V25
p1708
sg17
V35
p1709
sg18
V1
p1710
sbag1
(g2
g3
Ntp1711
Rp1712
(dp1713
g7
V029
p1714
sg9
VNidoran\u2640
p1715
sg11
g1067
sg13
VGrass
p1716
sg15
V30
p1717
sg17
g1717
sg18
V5
p1718
sbag1
(g2
g3
Ntp1719
Rp1720
(dp1721
g7
V029
p1722
sg9
VNidoran\u2640
p1723
sg11
g1058
sg13
VGrass
p1724
sg15
V22
p1725
sg17
g1725
sg18
V20
p1726
sbag1
(g2
g3
Ntp1727
Rp1728
(dp1729
g7
V030
p1730
sg9
VNidorina
p1731
sg11
g1058
sg13
VGrass
p1732
sg15
V30
p1733
sg17
g1733
sg18
V10
p1734
sbag1
(g2
g3
Ntp1735
Rp1736
(dp1737
g7
V032
p1738
sg9
VNidoran\u2642
p1739
sg11
g1067
sg13
VGrass
p1740
sg15
V22
p1741
sg17
g1741
sg18
V20
p1742
sbag1
(g2
g3
Ntp1743
Rp1744
(dp1745
g7
V032
p1746
sg9
VNidoran\u2642
p1747
sg11
g1058
sg13
VGrass
p1748
sg15
V30
p1749
sg17
g1749
sg18
V5
p1750
sbag1
(g2
g3
Ntp1751
Rp1752
(dp1753
g7
V033
p1754
sg9
VNidorino
p1755
sg11
g1067
sg13
VGrass
p1756
sg15
V30
p1757
sg17
g1757
sg18
V10
p1758
sbag1
(g2
g3
Ntp1759
Rp1760
(dp1761
g7
V048
p1762
sg9
VVenonat
p1763
sg11
VFR,LG,
p1764
sg13
VGrass
p1765
sg15
V23
p1766
sg17
g1766
sg18
V15
p1767
sbag1
(g2
g3
Ntp1768
Rp1769
(dp1770
g7
V049
p1771
sg9
VVenomoth
p1772
sg11
VFR,LG,
p1773
sg13
VGrass
p1774
sg15
V32
p1775
sg17
g1775
sg18
V5
p1776
sbag1
(g2
g3
Ntp1777
Rp1778
(dp1779
g7
V084
p1780
sg9
VDoduo
p1781
sg11
VFR,LG,
p1782
sg13
VGrass
p1783
sg15
V26
p1784
sg17
g1784
sg18
V20
p1785
sbag1
(g2
g3
Ntp1786
Rp1787
(dp1788
g7
V102
p1789
sg9
VExeggcute
p1790
sg11
VFR,LG,
p1791
sg13
VGrass
p1792
sg15
V25
p1793
sg17
V27
p1794
sg18
V20
p1795
sbag1
(g2
g3
Ntp1796
Rp1797
(dp1798
g7
V115
p1799
sg9
VKangaskhan
p1800
sg11
VFR,LG,
p1801
sg13
VGrass
p1802
sg15
V28
p1803
sg17
g1803
sg18
V1
p1804
sbag1
(g2
g3
Ntp1805
Rp1806
(dp1807
g7
V128
p1808
sg9
VTauros
p1809
sg11
VFR,LG,
p1810
sg13
VGrass
p1811
sg15
V25
p1812
sg17
g1812
sg18
V4
p1813
sbag1
(g2
g3
Ntp1814
Rp1815
(dp1816
g7
V054
p1817
sg9
VPsyduck
p1818
sg11
g1067
sg13
VSurf
p1819
sg15
V20
p1820
sg17
V40
p1821
sg18
V100
p1822
sbag1
(g2
g3
Ntp1823
Rp1824
(dp1825
g7
V079
p1826
sg9
VSlowpoke
p1827
sg11
g1058
sg13
VSurf
p1828
sg15
V20
p1829
sg17
V40
p1830
sg18
V100
p1831
sbag1
(g2
g3
Ntp1832
Rp1833
(dp1834
g7
V129
p1835
sg9
VMagikarp
p1836
sg11
VFR,LG,
p1837
sg13
VFish Old
p1838
sg15
g204
sg17
g204
sg18
V100
p1839
sbag1
(g2
g3
Ntp1840
Rp1841
(dp1842
g7
V060
p1843
sg9
VPoliwag
p1844
sg11
VFR,LG,
p1845
sg13
VFish Good
p1846
sg15
g204
sg17
V15
p1847
sg18
V20
p1848
sbag1
(g2
g3
Ntp1849
Rp1850
(dp1851
g7
V118
p1852
sg9
VGoldeen
p1853
sg11
VFR,LG,
p1854
sg13
VFish Good
p1855
sg15
g204
sg17
V15
p1856
sg18
V60
p1857
sbag1
(g2
g3
Ntp1858
Rp1859
(dp1860
g7
V129
p1861
sg9
VMagikarp
p1862
sg11
VFR,LG,
p1863
sg13
VFish Good
p1864
sg15
g204
sg17
V15
p1865
sg18
V20
p1866
sbag1
(g2
g3
Ntp1867
Rp1868
(dp1869
g7
V054
p1870
sg9
VPsyduck
p1871
sg11
g1067
sg13
VFish Super
p1872
sg15
V15
p1873
sg17
V35
p1874
sg18
V4
p1875
sbag1
(g2
g3
Ntp1876
Rp1877
(dp1878
g7
V079
p1879
sg9
VSlowpoke
p1880
sg11
g1058
sg13
VFish Super
p1881
sg15
V15
p1882
sg17
V35
p1883
sg18
V4
p1884
sbag1
(g2
g3
Ntp1885
Rp1886
(dp1887
g7
V118
p1888
sg9
VGoldeen
p1889
sg11
VFR,LG,
p1890
sg13
VFish Super
p1891
sg15
V15
p1892
sg17
V25
p1893
sg18
V40
p1894
sbag1
(g2
g3
Ntp1895
Rp1896
(dp1897
g7
V119
p1898
sg9
VSeaking
p1899
sg11
VFR,LG,
p1900
sg13
VFish Super
p1901
sg15
V20
p1902
sg17
V30
p1903
sg18
V40
p1904
sbag1
(g2
g3
Ntp1905
Rp1906
(dp1907
g7
V147
p1908
sg9
VDratini
p1909
sg11
VFR,LG,
p1910
sg13
VFish Super
p1911
sg15
V15
p1912
sg17
V25
p1913
sg18
V15
p1914
sbag1
(g2
g3
Ntp1915
Rp1916
(dp1917
g7
V148
p1918
sg9
VDragonair
p1919
sg11
VFR,LG,
p1920
sg13
VFish Super
p1921
sg15
V25
p1922
sg17
V35
p1923
sg18
V1
p1924
sba.