(lp0
ccopy_reg
_reconstructor
p1
(c__main__
WildPokemon
p2
c__builtin__
object
p3
Ntp4
Rp5
(dp6
VpDexNo
p7
V072
p8
sVpSpecies
p9
VTentacool
p10
sVpGames
p11
VR,B,Y,
p12
sVpArea
p13
VSurf
p14
sVpMinLevel
p15
V5
p16
sVpMaxLevel
p17
V40
p18
sVpRate
p19
V100
p20
sbag1
(g2
g3
Ntp21
Rp22
(dp23
g7
V129
p24
sg9
VMagikarp
p25
sg11
VR,B,Y,
p26
sg13
VFish Old
p27
sg15
g16
sg17
g16
sg19
V100
p28
sbag1
(g2
g3
Ntp29
Rp30
(dp31
g7
V060
p32
sg9
VPoliwag
p33
sg11
VR,B,Y,
p34
sg13
VFish Good
p35
sg15
V10
p36
sg17
g36
sg19
V50
p37
sbag1
(g2
g3
Ntp38
Rp39
(dp40
g7
V118
p41
sg9
VGoldeen
p42
sg11
VR,B,Y,
p43
sg13
VFish Good
p44
sg15
V10
p45
sg17
g45
sg19
V50
p46
sbag1
(g2
g3
Ntp47
Rp48
(dp49
g7
V072
p50
sg9
VTentacool
p51
sg11
VY,
p52
sg13
VFish Super
p53
sg15
V20
p54
sg17
g54
sg19
V40
p55
sbag1
(g2
g3
Ntp56
Rp57
(dp58
g7
V073
p59
sg9
VTentacruel
p60
sg11
g52
sg13
VFish Super
p61
sg15
V20
p62
sg17
V40
p63
sg19
V40
p64
sbag1
(g2
g3
Ntp65
Rp66
(dp67
g7
V090
p68
sg9
VShellder
p69
sg11
VR,B,
p70
sg13
VFish Super
p71
sg15
V15
p72
sg17
g72
sg19
V25
p73
sbag1
(g2
g3
Ntp74
Rp75
(dp76
g7
V116
p77
sg9
VHorsea
p78
sg11
VR,B,
p79
sg13
VFish Super
p80
sg15
V15
p81
sg17
g81
sg19
V25
p82
sbag1
(g2
g3
Ntp83
Rp84
(dp85
g7
V118
p86
sg9
VGoldeen
p87
sg11
VR,B,
p88
sg13
VFish Super
p89
sg15
V15
p90
sg17
g90
sg19
V25
p91
sbag1
(g2
g3
Ntp92
Rp93
(dp94
g7
V120
p95
sg9
VStaryu
p96
sg11
VR,B,
p97
sg13
VFish Super
p98
sg15
V15
p99
sg17
g99
sg19
V25
p100
sbag1
(g2
g3
Ntp101
Rp102
(dp103
g7
V120
p104
sg9
VStaryu
p105
sg11
g52
sg13
VFish Super
p106
sg15
V30
p107
sg17
g107
sg19
V20
p108
sbag1
(g2
g3
Ntp109
Rp110
(dp111
g7
V072
p112
sg9
VTentacool
p113
sg11
VG,S,C,
p114
sg13
VSurf
p115
sg15
V30
p116
sg17
V39
p117
sg19
V90
p118
sbag1
(g2
g3
Ntp119
Rp120
(dp121
g7
V073
p122
sg9
VTentacruel
p123
sg11
VG,S,C,
p124
sg13
VSurf
p125
sg15
V35
p126
sg17
V39
p127
sg19
V10
p128
sbag1
(g2
g3
Ntp129
Rp130
(dp131
g7
V129
p132
sg9
VMagikarp
p133
sg11
VG,S,C,
p134
sg13
VFish Old
p135
sg15
V10
p136
sg17
g136
sg19
V85
p137
sbag1
(g2
g3
Ntp138
Rp139
(dp140
g7
V072
p141
sg9
VTentacool
p142
sg11
VG,S,C,
p143
sg13
VFish Old
p144
sg15
V10
p145
sg17
g145
sg19
V15
p146
sbag1
(g2
g3
Ntp147
Rp148
(dp149
g7
V072
p150
sg9
VTentacool
p151
sg11
VG,S,C,
p152
sg13
VFish Good
p153
sg15
V20
p154
sg17
g154
sg19
V35
p155
sbag1
(g2
g3
Ntp156
Rp157
(dp158
g7
V129
p159
sg9
VMagikarp
p160
sg11
VG,S,C,
p161
sg13
VFish Good
p162
sg15
V20
p163
sg17
g163
sg19
V35
p164
sbag1
(g2
g3
Ntp165
Rp166
(dp167
g7
V170
p168
sg9
VChinchou
p169
sg11
VG,S,C,
p170
sg13
VFish Good
p171
sg15
V20
p172
sg17
g172
sg19
V20
p173
sbag1
(g2
g3
Ntp174
Rp175
(dp176
g7
V090
p177
sg9
VShellder
p178
sg11
VG,S,C,
p179
sg13
VFish Good
p180
sg15
V20
p181
sg17
g181
sg19
V10
p182
sbag1
(g2
g3
Ntp183
Rp184
(dp185
g7
V170
p186
sg9
VChinchou
p187
sg11
VG,S,C,
p188
sg13
VFish Super
p189
sg15
V40
p190
sg17
g190
sg19
V40
p191
sbag1
(g2
g3
Ntp192
Rp193
(dp194
g7
V090
p195
sg9
VShellder
p196
sg11
VG,S,C,
p197
sg13
VFish Super
p198
sg15
V40
p199
sg17
g199
sg19
V30
p200
sbag1
(g2
g3
Ntp201
Rp202
(dp203
g7
V073
p204
sg9
VTentacruel
p205
sg11
VG,S,C,
p206
sg13
VFish Super
p207
sg15
V40
p208
sg17
g208
sg19
V20
p209
sbag1
(g2
g3
Ntp210
Rp211
(dp212
g7
V171
p213
sg9
VLanturn
p214
sg11
VG,S,C,
p215
sg13
VFish Super
p216
sg15
V40
p217
sg17
g217
sg19
V10
p218
sbag1
(g2
g3
Ntp219
Rp220
(dp221
g7
V072
p222
sg9
VTentacool
p223
sg11
VFR,LG,
p224
sg13
VSurf
p225
sg15
g16
sg17
V40
p226
sg19
V100
p227
sbag1
(g2
g3
Ntp228
Rp229
(dp230
g7
V129
p231
sg9
VMagikarp
p232
sg11
VFR,LG,
p233
sg13
VFish Old
p234
sg15
g16
sg17
g16
sg19
V100
p235
sbag1
(g2
g3
Ntp236
Rp237
(dp238
g7
V116
p239
sg9
VHorsea
p240
sg11
VFR,
p241
sg13
VFish Good
p242
sg15
g16
sg17
V15
p243
sg19
V60
p244
sbag1
(g2
g3
Ntp245
Rp246
(dp247
g7
V116
p248
sg9
VHorsea
p249
sg11
VLG,
p250
sg13
VFish Good
p251
sg15
g16
sg17
V15
p252
sg19
V20
p253
sbag1
(g2
g3
Ntp254
Rp255
(dp256
g7
V098
p257
sg9
VKrabby
p258
sg11
g241
sg13
VFish Good
p259
sg15
g16
sg17
V15
p260
sg19
V20
p261
sbag1
(g2
g3
Ntp262
Rp263
(dp264
g7
V098
p265
sg9
VKrabby
p266
sg11
g250
sg13
VFish Good
p267
sg15
g16
sg17
V15
p268
sg19
V60
p269
sbag1
(g2
g3
Ntp270
Rp271
(dp272
g7
V129
p273
sg9
VMagikarp
p274
sg11
VFR,LG,
p275
sg13
VFish Good
p276
sg15
g16
sg17
V15
p277
sg19
V20
p278
sbag1
(g2
g3
Ntp279
Rp280
(dp281
g7
V116
p282
sg9
VHorsea
p283
sg11
g241
sg13
VFish Super
p284
sg15
V15
p285
sg17
V25
p286
sg19
V80
p287
sbag1
(g2
g3
Ntp288
Rp289
(dp290
g7
V117
p291
sg9
VSeadra
p292
sg11
g241
sg13
VFish Super
p293
sg15
V25
p294
sg17
V35
p295
sg19
V4
p296
sbag1
(g2
g3
Ntp297
Rp298
(dp299
g7
V098
p300
sg9
VKrabby
p301
sg11
g250
sg13
VFish Super
p302
sg15
V15
p303
sg17
V25
p304
sg19
V80
p305
sbag1
(g2
g3
Ntp306
Rp307
(dp308
g7
V099
p309
sg9
VKingler
p310
sg11
g250
sg13
VFish Super
p311
sg15
V25
p312
sg17
V35
p313
sg19
V4
p314
sbag1
(g2
g3
Ntp315
Rp316
(dp317
g7
V130
p318
sg9
VGyarados
p319
sg11
VFR,LG,
p320
sg13
VFish Super
p321
sg15
V15
p322
sg17
V25
p323
sg19
V15
p324
sbag1
(g2
g3
Ntp325
Rp326
(dp327
g7
V054
p328
sg9
VPsyduck
p329
sg11
g241
sg13
VFish Super
p330
sg15
V25
p331
sg17
V35
p332
sg19
V1
p333
sbag1
(g2
g3
Ntp334
Rp335
(dp336
g7
V079
p337
sg9
VSlowpoke
p338
sg11
g250
sg13
VFish Super
p339
sg15
V25
p340
sg17
V35
p341
sg19
V1
p342
sbag1
(g2
g3
Ntp343
Rp344
(dp345
g7
V072
p346
sg9
VTentacool
p347
sg11
VHG,SS,
p348
sg13
VSurf
p349
sg15
V30
p350
sg17
V35
p351
sg19
V90
p352
sbag1
(g2
g3
Ntp353
Rp354
(dp355
g7
V073
p356
sg9
VTentacruel
p357
sg11
VHG,SS,
p358
sg13
VSurf
p359
sg15
V35
p360
sg17
g360
sg19
V10
p361
sbag1
(g2
g3
Ntp362
Rp363
(dp364
g7
V129
p365
sg9
VMagikarp
p366
sg11
VHG,SS,
p367
sg13
VFish Old
p368
sg15
V10
p369
sg17
g369
sg19
V95
p370
sbag1
(g2
g3
Ntp371
Rp372
(dp373
g7
V072
p374
sg9
VTentacool
p375
sg11
VHG,SS,
p376
sg13
VFish Old
p377
sg15
V10
p378
sg17
g378
sg19
V5
p379
sbag1
(g2
g3
Ntp380
Rp381
(dp382
g7
V129
p383
sg9
VMagikarp
p384
sg11
VHG,SS,
p385
sg13
VFish Good
p386
sg15
V20
p387
sg17
g387
sg19
V60
p388
sbag1
(g2
g3
Ntp389
Rp390
(dp391
g7
V072
p392
sg9
VTentacool
p393
sg11
VHG,SS,
p394
sg13
VFish Good
p395
sg15
V20
p396
sg17
g396
sg19
V30
p397
sbag1
(g2
g3
Ntp398
Rp399
(dp400
g7
V170
p401
sg9
VChinchou
p402
sg11
VHG,SS,
p403
sg13
VFish Good
p404
sg15
V20
p405
sg17
g405
sg19
V7
p406
sbag1
(g2
g3
Ntp407
Rp408
(dp409
g7
V090
p410
sg9
VShellder
p411
sg11
VHG,SS,
p412
sg13
VFish Good
p413
sg15
V20
p414
sg17
g414
sg19
V3
p415
sbag1
(g2
g3
Ntp416
Rp417
(dp418
g7
V170
p419
sg9
VChinchou
p420
sg11
VHG,SS,
p421
sg13
VFish Super
p422
sg15
V40
p423
sg17
g423
sg19
V60
p424
sbag1
(g2
g3
Ntp425
Rp426
(dp427
g7
V090
p428
sg9
VShellder
p429
sg11
VHG,SS,
p430
sg13
VFish Super
p431
sg15
V40
p432
sg17
g432
sg19
V30
p433
sbag1
(g2
g3
Ntp434
Rp435
(dp436
g7
V073
p437
sg9
VTentacruel
p438
sg11
VHG,SS,
p439
sg13
VFish Super
p440
sg15
V40
p441
sg17
g441
sg19
V7
p442
sbag1
(g2
g3
Ntp443
Rp444
(dp445
g7
V171
p446
sg9
VLanturn
p447
sg11
VHG,SS,
p448
sg13
VFish Super
p449
sg15
V40
p450
sg17
g450
sg19
V3
p451
sbag1
(g2
g3
Ntp452
Rp453
(dp454
g7
V072
p455
sg9
VTentacool
p456
sg11
VPi,Ev,
p457
sg13
VSurf
p458
sg15
V37
p459
sg17
V42
p460
sg19
V45
p461
sbag1
(g2
g3
Ntp462
Rp463
(dp464
g7
V073
p465
sg9
VTentacruel
p466
sg11
VPi,Ev,
p467
sg13
VSurf
p468
sg15
V37
p469
sg17
V42
p470
sg19
V5
p471
sbag1
(g2
g3
Ntp472
Rp473
(dp474
g7
V129
p475
sg9
VMagikarp
p476
sg11
VPi,Ev,
p477
sg13
VSurf
p478
sg15
V37
p479
sg17
V42
p480
sg19
V45
p481
sbag1
(g2
g3
Ntp482
Rp483
(dp484
g7
V130
p485
sg9
VGyarados
p486
sg11
VPi,Ev,
p487
sg13
VSurf
p488
sg15
V37
p489
sg17
V42
p490
sg19
V5
p491
sbag1
(g2
g3
Ntp492
Rp493
(dp494
g7
V131
p495
sg9
VLapras
p496
sg11
VPi,Ev,
p497
sg13
VSurf
p498
sg15
V37
p499
sg17
V42
p500
sg19
V0
p501
sbag1
(g2
g3
Ntp502
Rp503
(dp504
g7
V016
p505
sg9
VPidgey
p506
sg11
VPi,Ev,
p507
sg13
VSky
p508
sg15
V3
p509
sg17
V56
p510
sg19
V60
p511
sbag1
(g2
g3
Ntp512
Rp513
(dp514
g7
V017
p515
sg9
VPidgeotto
p516
sg11
VPi,Ev,
p517
sg13
VSky
p518
sg15
g509
sg17
V56
p519
sg19
V35
p520
sbag1
(g2
g3
Ntp521
Rp522
(dp523
g7
V018
p524
sg9
VPidgeot
p525
sg11
VPi,Ev,
p526
sg13
VSky
p527
sg15
g509
sg17
V56
p528
sg19
V5
p529
sba.