(lp0
ccopy_reg
_reconstructor
p1
(c__main__
WildPokemon
p2
c__builtin__
object
p3
Ntp4
Rp5
(dp6
VpDexNo
p7
V019
p8
sVpSpecies
p9
VRattata
p10
sVpGames
p11
VR,B,
p12
sVpArea
p13
VGrass
p14
sVpMinLevel
p15
V8
p16
sVpMaxLevel
p17
V12
p18
sVpRate
p19
V40
p20
sbag1
(g2
g3
Ntp21
Rp22
(dp23
g7
V019
p24
sg9
VRattata
p25
sg11
VY,
p26
sg13
VGrass
p27
sg15
V10
p28
sg17
V12
p29
sg19
V15
p30
sbag1
(g2
g3
Ntp31
Rp32
(dp33
g7
V021
p34
sg9
VSpearow
p35
sg11
VR,B,
p36
sg13
VGrass
p37
sg15
g16
sg17
V12
p38
sg19
V35
p39
sbag1
(g2
g3
Ntp40
Rp41
(dp42
g7
V021
p43
sg9
VSpearow
p44
sg11
g26
sg13
VGrass
p45
sg15
g16
sg17
V12
p46
sg19
V55
p47
sbag1
(g2
g3
Ntp48
Rp49
(dp50
g7
V023
p51
sg9
VEkans
p52
sg11
VR,
p53
sg13
VGrass
p54
sg15
V6
p55
sg17
V12
p56
sg19
V25
p57
sbag1
(g2
g3
Ntp58
Rp59
(dp60
g7
V027
p61
sg9
VSandshrew
p62
sg11
VB,
p63
sg13
VGrass
p64
sg15
g55
sg17
V12
p65
sg19
V25
p66
sbag1
(g2
g3
Ntp67
Rp68
(dp69
g7
V027
p70
sg9
VSandshrew
p71
sg11
g26
sg13
VGrass
p72
sg15
g16
sg17
V10
p73
sg19
V15
p74
sbag1
(g2
g3
Ntp75
Rp76
(dp77
g7
V056
p78
sg9
VMankey
p79
sg11
g26
sg13
VGrass
p80
sg15
V9
p81
sg17
g81
sg19
V15
p82
sbag1
(g2
g3
Ntp83
Rp84
(dp85
g7
V129
p86
sg9
VMagikarp
p87
sg11
VR,B,Y,
p88
sg13
VFish Old
p89
sg15
V5
p90
sg17
g90
sg19
V100
p91
sbag1
(g2
g3
Ntp92
Rp93
(dp94
g7
V060
p95
sg9
VPoliwag
p96
sg11
VR,B,Y,
p97
sg13
VFish Good
p98
sg15
V10
p99
sg17
g99
sg19
V50
p100
sbag1
(g2
g3
Ntp101
Rp102
(dp103
g7
V118
p104
sg9
VGoldeen
p105
sg11
VR,B,Y,
p106
sg13
VFish Good
p107
sg15
V10
p108
sg17
g108
sg19
V50
p109
sbag1
(g2
g3
Ntp110
Rp111
(dp112
g7
V054
p113
sg9
VPsyduck
p114
sg11
VR,B,
p115
sg13
VFish Super
p116
sg15
V15
p117
sg17
g117
sg19
V33
p118
sbag1
(g2
g3
Ntp119
Rp120
(dp121
g7
V098
p122
sg9
VKrabby
p123
sg11
VR,B,
p124
sg13
VFish Super
p125
sg15
V15
p126
sg17
g126
sg19
V33
p127
sbag1
(g2
g3
Ntp128
Rp129
(dp130
g7
V118
p131
sg9
VGoldeen
p132
sg11
VR,B,
p133
sg13
VFish Super
p134
sg15
V15
p135
sg17
g135
sg19
V33
p136
sbag1
(g2
g3
Ntp137
Rp138
(dp139
g7
V118
p140
sg9
VGoldeen
p141
sg11
g26
sg13
VFish Super
p142
sg15
V20
p143
sg17
V30
p144
sg19
V90
p145
sbag1
(g2
g3
Ntp146
Rp147
(dp148
g7
V119
p149
sg9
VSeaking
p150
sg11
g26
sg13
VFish Super
p151
sg15
V30
p152
sg17
g152
sg19
V10
p153
sbag1
(g2
g3
Ntp154
Rp155
(dp156
g7
V129
p157
sg9
VMagikarp
p158
sg11
VR,B,Y,
p159
sg13
VGift
p160
sg15
g90
sg17
g90
sg19
V0
p161
sbag1
(g2
g3
Ntp162
Rp163
(dp164
g7
V019
p165
sg9
VRattata
p166
sg11
VG,
p167
sg13
VGrass
p168
sg15
g90
sg17
V10
p169
sg19
V35
p170
sbag1
(g2
g3
Ntp171
Rp172
(dp173
g7
V019
p174
sg9
VRattata
p175
sg11
g167
sg13
VGrass
p176
sg15
g16
sg17
V10
p177
sg19
V30
p178
sbag1
(g2
g3
Ntp179
Rp180
(dp181
g7
V019
p182
sg9
VRattata
p183
sg11
VS,C,
p184
sg13
VGrass
p185
sg15
g90
sg17
g90
sg19
V30
p186
sbag1
(g2
g3
Ntp187
Rp188
(dp189
g7
V019
p190
sg9
VRattata
p191
sg11
VS,
p192
sg13
VGrass
p193
sg15
g90
sg17
g16
sg19
V35
p194
sbag1
(g2
g3
Ntp195
Rp196
(dp197
g7
V019
p198
sg9
VRattata
p199
sg11
VC,
p200
sg13
VGrass
p201
sg15
g90
sg17
V10
p202
sg19
V65
p203
sbag1
(g2
g3
Ntp204
Rp205
(dp206
g7
V020
p207
sg9
VRaticate
p208
sg11
g200
sg13
VGrass
p209
sg15
V10
p210
sg17
g210
sg19
V20
p211
sbag1
(g2
g3
Ntp212
Rp213
(dp214
g7
V021
p215
sg9
VSpearow
p216
sg11
g167
sg13
VGrass
p217
sg15
g90
sg17
g16
sg19
V55
p218
sbag1
(g2
g3
Ntp219
Rp220
(dp221
g7
V021
p222
sg9
VSpearow
p223
sg11
g167
sg13
VGrass
p224
sg15
g90
sg17
g90
sg19
V30
p225
sbag1
(g2
g3
Ntp226
Rp227
(dp228
g7
V021
p229
sg9
VSpearow
p230
sg11
g192
sg13
VGrass
p231
sg15
g90
sg17
g16
sg19
V35
p232
sbag1
(g2
g3
Ntp233
Rp234
(dp235
g7
V021
p236
sg9
VSpearow
p237
sg11
g200
sg13
VGrass
p238
sg15
g90
sg17
g90
sg19
V30
p239
sbag1
(g2
g3
Ntp240
Rp241
(dp242
g7
V023
p243
sg9
VEkans
p244
sg11
g192
sg13
VGrass
p245
sg15
g16
sg17
g16
sg19
V20
p246
sbag1
(g2
g3
Ntp247
Rp248
(dp249
g7
V023
p250
sg9
VEkans
p251
sg11
g200
sg13
VGrass
p252
sg15
g16
sg17
g16
sg19
V20
p253
sbag1
(g2
g3
Ntp254
Rp255
(dp256
g7
V024
p257
sg9
VArbok
p258
sg11
g192
sg13
VGrass
p259
sg15
V10
p260
sg17
g260
sg19
V5
p261
sbag1
(g2
g3
Ntp262
Rp263
(dp264
g7
V024
p265
sg9
VArbok
p266
sg11
g200
sg13
VGrass
p267
sg15
V10
p268
sg17
g268
sg19
V5
p269
sbag1
(g2
g3
Ntp270
Rp271
(dp272
g7
V027
p273
sg9
VSandshrew
p274
sg11
g200
sg13
VGrass
p275
sg15
V10
p276
sg17
g276
sg19
V5
p277
sbag1
(g2
g3
Ntp278
Rp279
(dp280
g7
V035
p281
sg9
VClefairy
p282
sg11
g200
sg13
VGrass
p283
sg15
g55
sg17
g55
sg19
V5
p284
sbag1
(g2
g3
Ntp285
Rp286
(dp287
g7
V039
p288
sg9
VJigglypuff
p289
sg11
VG,S,
p290
sg13
VGrass
p291
sg15
g55
sg17
g55
sg19
V10
p292
sbag1
(g2
g3
Ntp293
Rp294
(dp295
g7
V041
p296
sg9
VZubat
p297
sg11
VG,S,
p298
sg13
VGrass
p299
sg15
g90
sg17
g90
sg19
V30
p300
sbag1
(g2
g3
Ntp301
Rp302
(dp303
g7
V041
p304
sg9
VZubat
p305
sg11
g200
sg13
VGrass
p306
sg15
g55
sg17
g55
sg19
V10
p307
sbag1
(g2
g3
Ntp308
Rp309
(dp310
g7
V118
p311
sg9
VGoldeen
p312
sg11
VG,S,C,
p313
sg13
VSurf
p314
sg15
g90
sg17
V14
p315
sg19
V90
p316
sbag1
(g2
g3
Ntp317
Rp318
(dp319
g7
V119
p320
sg9
VSeaking
p321
sg11
VG,S,C,
p322
sg13
VSurf
p323
sg15
V10
p324
sg17
V14
p325
sg19
V10
p326
sbag1
(g2
g3
Ntp327
Rp328
(dp329
g7
V019
p330
sg9
VRattata
p331
sg11
VFR,LG,
p332
sg13
VGrass
p333
sg15
g16
sg17
V12
p334
sg19
V35
p335
sbag1
(g2
g3
Ntp336
Rp337
(dp338
g7
V021
p339
sg9
VSpearow
p340
sg11
VFR,LG,
p341
sg13
VGrass
p342
sg15
g16
sg17
V12
p343
sg19
V35
p344
sbag1
(g2
g3
Ntp345
Rp346
(dp347
g7
V023
p348
sg9
VEkans
p349
sg11
VFR,
p350
sg13
VGrass
p351
sg15
g55
sg17
V12
p352
sg19
V25
p353
sbag1
(g2
g3
Ntp354
Rp355
(dp356
g7
V027
p357
sg9
VSandshrew
p358
sg11
VLG,
p359
sg13
VGrass
p360
sg15
g55
sg17
V12
p361
sg19
V25
p362
sbag1
(g2
g3
Ntp363
Rp364
(dp365
g7
V056
p366
sg9
VMankey
p367
sg11
VFR,LG,
p368
sg13
VGrass
p369
sg15
V10
p370
sg17
V12
p371
sg19
V5
p372
sbag1
(g2
g3
Ntp373
Rp374
(dp375
g7
V072
p376
sg9
VTentacool
p377
sg11
VFR,LG,
p378
sg13
VSurf
p379
sg15
g90
sg17
V40
p380
sg19
V100
p381
sbag1
(g2
g3
Ntp382
Rp383
(dp384
g7
V129
p385
sg9
VMagikarp
p386
sg11
VFR,LG,
p387
sg13
VFish Old
p388
sg15
g90
sg17
g90
sg19
V100
p389
sbag1
(g2
g3
Ntp390
Rp391
(dp392
g7
V116
p393
sg9
VHorsea
p394
sg11
g350
sg13
VFish Good
p395
sg15
g90
sg17
V15
p396
sg19
V60
p397
sbag1
(g2
g3
Ntp398
Rp399
(dp400
g7
V116
p401
sg9
VHorsea
p402
sg11
g359
sg13
VFish Good
p403
sg15
g90
sg17
V15
p404
sg19
V20
p405
sbag1
(g2
g3
Ntp406
Rp407
(dp408
g7
V098
p409
sg9
VKrabby
p410
sg11
g350
sg13
VFish Good
p411
sg15
g90
sg17
V15
p412
sg19
V20
p413
sbag1
(g2
g3
Ntp414
Rp415
(dp416
g7
V098
p417
sg9
VKrabby
p418
sg11
g359
sg13
VFish Good
p419
sg15
g90
sg17
V15
p420
sg19
V60
p421
sbag1
(g2
g3
Ntp422
Rp423
(dp424
g7
V129
p425
sg9
VMagikarp
p426
sg11
VFR,LG,
p427
sg13
VFish Good
p428
sg15
g90
sg17
V15
p429
sg19
V20
p430
sbag1
(g2
g3
Ntp431
Rp432
(dp433
g7
V116
p434
sg9
VHorsea
p435
sg11
g350
sg13
VFish Super
p436
sg15
V15
p437
sg17
V35
p438
sg19
V84
p439
sbag1
(g2
g3
Ntp440
Rp441
(dp442
g7
V098
p443
sg9
VKrabby
p444
sg11
g359
sg13
VFish Super
p445
sg15
V15
p446
sg17
V35
p447
sg19
V84
p448
sbag1
(g2
g3
Ntp449
Rp450
(dp451
g7
V130
p452
sg9
VGyarados
p453
sg11
VFR,LG,
p454
sg13
VFish Super
p455
sg15
V15
p456
sg17
V25
p457
sg19
V15
p458
sbag1
(g2
g3
Ntp459
Rp460
(dp461
g7
V054
p462
sg9
VPsyduck
p463
sg11
g350
sg13
VFish Super
p464
sg15
V25
p465
sg17
V35
p466
sg19
V1
p467
sbag1
(g2
g3
Ntp468
Rp469
(dp470
g7
V079
p471
sg9
VSlowpoke
p472
sg11
g359
sg13
VFish Super
p473
sg15
V25
p474
sg17
V35
p475
sg19
V1
p476
sbag1
(g2
g3
Ntp477
Rp478
(dp479
g7
V129
p480
sg9
VMagikarp
p481
sg11
VFR,LG,
p482
sg13
VGift
p483
sg15
g90
sg17
g90
sg19
V0
p484
sbag1
(g2
g3
Ntp485
Rp486
(dp487
g7
V019
p488
sg9
VRattata
p489
sg11
VHG,
p490
sg13
VGrass
p491
sg15
g90
sg17
V10
p492
sg19
V60
p493
sbag1
(g2
g3
Ntp494
Rp495
(dp496
g7
V019
p497
sg9
VRattata
p498
sg11
VSS,
p499
sg13
VGrass
p500
sg15
g90
sg17
g90
sg19
V30
p501
sbag1
(g2
g3
Ntp502
Rp503
(dp504
g7
V019
p505
sg9
VRattata
p506
sg11
g499
sg13
VGrass
p507
sg15
g90
sg17
g16
sg19
V35
p508
sbag1
(g2
g3
Ntp509
Rp510
(dp511
g7
V021
p512
sg9
VSpearow
p513
sg11
g490
sg13
VGrass
p514
sg15
g90
sg17
g16
sg19
V55
p515
sbag1
(g2
g3
Ntp516
Rp517
(dp518
g7
V021
p519
sg9
VSpearow
p520
sg11
g499
sg13
VGrass
p521
sg15
g90
sg17
g16
sg19
V35
p522
sbag1
(g2
g3
Ntp523
Rp524
(dp525
g7
V023
p526
sg9
VEkans
p527
sg11
g499
sg13
VGrass
p528
sg15
g16
sg17
g16
sg19
V20
p529
sbag1
(g2
g3
Ntp530
Rp531
(dp532
g7
V024
p533
sg9
VArbok
p534
sg11
g499
sg13
VGrass
p535
sg15
V10
p536
sg17
g536
sg19
V5
p537
sbag1
(g2
g3
Ntp538
Rp539
(dp540
g7
V039
p541
sg9
VJigglypuff
p542
sg11
VHG,SS,
p543
sg13
VGrass
p544
sg15
g55
sg17
g55
sg19
V10
p545
sbag1
(g2
g3
Ntp546
Rp547
(dp548
g7
V041
p549
sg9
VZubat
p550
sg11
VHG,SS,
p551
sg13
VGrass
p552
sg15
g90
sg17
g90
sg19
V30
p553
sbag1
(g2
g3
Ntp554
Rp555
(dp556
g7
V118
p557
sg9
VGoldeen
p558
sg11
VHG,SS,
p559
sg13
VSurf
p560
sg15
g90
sg17
V10
p561
sg19
V90
p562
sbag1
(g2
g3
Ntp563
Rp564
(dp565
g7
V119
p566
sg9
VSeaking
p567
sg11
VHG,SS,
p568
sg13
VSurf
p569
sg15
V10
p570
sg17
g570
sg19
V10
p571
sbag1
(g2
g3
Ntp572
Rp573
(dp574
g7
V118
p575
sg9
VGoldeen
p576
sg11
VHG,SS,
p577
sg13
VFish Old
p578
sg15
V10
p579
sg17
g579
sg19
V15
p580
sbag1
(g2
g3
Ntp581
Rp582
(dp583
g7
V129
p584
sg9
VMagikarp
p585
sg11
VHG,SS,
p586
sg13
VFish Old
p587
sg15
V10
p588
sg17
g588
sg19
V85
p589
sbag1
(g2
g3
Ntp590
Rp591
(dp592
g7
V118
p593
sg9
VGoldeen
p594
sg11
VHG,SS,
p595
sg13
VFish Good
p596
sg15
V20
p597
sg17
g597
sg19
V60
p598
sbag1
(g2
g3
Ntp599
Rp600
(dp601
g7
V129
p602
sg9
VMagikarp
p603
sg11
VHG,SS,
p604
sg13
VFish Good
p605
sg15
V20
p606
sg17
g606
sg19
V40
p607
sbag1
(g2
g3
Ntp608
Rp609
(dp610
g7
V118
p611
sg9
VGoldeen
p612
sg11
VHG,SS,
p613
sg13
VFish Super
p614
sg15
V40
p615
sg17
g615
sg19
V70
p616
sbag1
(g2
g3
Ntp617
Rp618
(dp619
g7
V119
p620
sg9
VSeaking
p621
sg11
VHG,SS,
p622
sg13
VFish Super
p623
sg15
V40
p624
sg17
g624
sg19
V10
p625
sbag1
(g2
g3
Ntp626
Rp627
(dp628
g7
V129
p629
sg9
VMagikarp
p630
sg11
VHG,SS,
p631
sg13
VFish Super
p632
sg15
V40
p633
sg17
g633
sg19
V20
p634
sbag1
(g2
g3
Ntp635
Rp636
(dp637
g7
V163
p638
sg9
VHoothoot
p639
sg11
VHG,SS,
p640
sg13
VHeadbutt
p641
sg15
g55
sg17
V10
p642
sg19
V50
p643
sbag1
(g2
g3
Ntp644
Rp645
(dp646
g7
V204
p647
sg9
VPineco
p648
sg11
VHG,SS,
p649
sg13
VHeadbutt
p650
sg15
g55
sg17
V7
p651
sg19
V30
p652
sbag1
(g2
g3
Ntp653
Rp654
(dp655
g7
V265
p656
sg9
VWurmple
p657
sg11
VHG,SS,
p658
sg13
VHeadbutt
p659
sg15
g55
sg17
V10
p660
sg19
V20
p661
sbag1
(g2
g3
Ntp662
Rp663
(dp664
g7
V264
p665
sg9
VLinoone
p666
sg11
VHG,SS,
p667
sg13
VHoenn
p668
sg15
g16
sg17
g16
sg19
V20
p669
sbag1
(g2
g3
Ntp670
Rp671
(dp672
g7
V293
p673
sg9
VWhismur
p674
sg11
VHG,SS,
p675
sg13
VHoenn
p676
sg15
g90
sg17
g90
sg19
V20
p677
sbag1
(g2
g3
Ntp678
Rp679
(dp680
g7
V399
p681
sg9
VBidoof
p682
sg11
VHG,SS,
p683
sg13
VSinnoh
p684
sg15
g16
sg17
g16
sg19
V20
p685
sbag1
(g2
g3
Ntp686
Rp687
(dp688
g7
V418
p689
sg9
VBuizel
p690
sg11
VHG,SS,
p691
sg13
VSinnoh
p692
sg15
g90
sg17
g90
sg19
V20
p693
sbag1
(g2
g3
Ntp694
Rp695
(dp696
g7
V019
p697
sg9
VRattata
p698
sg11
VPi,
p699
sg13
VGrass
p700
sg15
g651
sg17
V12
p701
sg19
V25
p702
sbag1
(g2
g3
Ntp703
Rp704
(dp705
g7
V019
p706
sg9
VRattata
p707
sg11
VEv,
p708
sg13
VGrass
p709
sg15
g651
sg17
V12
p710
sg19
V35
p711
sbag1
(g2
g3
Ntp712
Rp713
(dp714
g7
V021
p715
sg9
VSpearow
p716
sg11
g699
sg13
VGrass
p717
sg15
g651
sg17
V12
p718
sg19
V30
p719
sbag1
(g2
g3
Ntp720
Rp721
(dp722
g7
V021
p723
sg9
VSpearow
p724
sg11
g708
sg13
VGrass
p725
sg15
g651
sg17
V12
p726
sg19
V40
p727
sbag1
(g2
g3
Ntp728
Rp729
(dp730
g7
V023
p731
sg9
VEkans
p732
sg11
g708
sg13
VGrass
p733
sg15
g651
sg17
V12
p734
sg19
V20
p735
sbag1
(g2
g3
Ntp736
Rp737
(dp738
g7
V027
p739
sg9
VSandshrew
p740
sg11
g699
sg13
VGrass
p741
sg15
g651
sg17
V12
p742
sg19
V20
p743
sbag1
(g2
g3
Ntp744
Rp745
(dp746
g7
V054
p747
sg9
VPsyduck
p748
sg11
VPi,Ev,
p749
sg13
VGrass
p750
sg15
g651
sg17
V12
p751
sg19
V5
p752
sbag1
(g2
g3
Ntp753
Rp754
(dp755
g7
V056
p756
sg9
VMankey
p757
sg11
g699
sg13
VGrass
p758
sg15
g651
sg17
V12
p759
sg19
V20
p760
sbag1
(g2
g3
Ntp761
Rp762
(dp763
g7
V004
p764
sg9
VCharmander
p765
sg11
VPi,Ev,
p766
sg13
VGrass
p767
sg15
g651
sg17
V12
p768
sg19
V0
p769
sbag1
(g2
g3
Ntp770
Rp771
(dp772
g7
V072
p773
sg9
VTentacool
p774
sg11
VPi,Ev,
p775
sg13
VSurf
p776
sg15
g651
sg17
V12
p777
sg19
V45
p778
sbag1
(g2
g3
Ntp779
Rp780
(dp781
g7
V073
p782
sg9
VTentacruel
p783
sg11
VPi,Ev,
p784
sg13
VSurf
p785
sg15
g651
sg17
V12
p786
sg19
V10
p787
sbag1
(g2
g3
Ntp788
Rp789
(dp790
g7
V129
p791
sg9
VMagikarp
p792
sg11
VPi,Ev,
p793
sg13
VSurf
p794
sg15
g651
sg17
V12
p795
sg19
V45
p796
sbag1
(g2
g3
Ntp797
Rp798
(dp799
g7
V021
p800
sg9
VSpearow
p801
sg11
VPi,Ev,
p802
sg13
VSky
p803
sg15
V3
p804
sg17
V56
p805
sg19
V60
p806
sbag1
(g2
g3
Ntp807
Rp808
(dp809
g7
V022
p810
sg9
VFearow
p811
sg11
VPi,Ev,
p812
sg13
VSky
p813
sg15
g804
sg17
V56
p814
sg19
V40
p815
sbag1
(g2
g3
Ntp816
Rp817
(dp818
g7
V006
p819
sg9
VCharizard
p820
sg11
VPi,Ev,
p821
sg13
VSky
p822
sg15
g804
sg17
V56
p823
sg19
V0
p824
sbag1
(g2
g3
Ntp825
Rp826
(dp827
g7
V144
p828
sg9
VArticuno
p829
sg11
VPi,Ev,
p830
sg13
VSky
p831
sg15
g804
sg17
V56
p832
sg19
V0
p833
sbag1
(g2
g3
Ntp834
Rp835
(dp836
g7
V145
p837
sg9
VZapdos
p838
sg11
VPi,Ev,
p839
sg13
VSky
p840
sg15
g804
sg17
V56
p841
sg19
V0
p842
sbag1
(g2
g3
Ntp843
Rp844
(dp845
g7
V146
p846
sg9
VMoltres
p847
sg11
VPi,Ev,
p848
sg13
VSky
p849
sg15
g804
sg17
V56
p850
sg19
V0
p851
sbag1
(g2
g3
Ntp852
Rp853
(dp854
g7
V149
p855
sg9
VDragonite
p856
sg11
VPi,Ev,
p857
sg13
VSky
p858
sg15
g804
sg17
V56
p859
sg19
V0
p860
sbag1
(g2
g3
Ntp861
Rp862
(dp863
g7
V129
p864
sg9
VMagikarp
p865
sg11
VPi,Ev,
p866
sg13
VGift
p867
sg15
g90
sg17
g90
sg19
V0
p868
sba.