(lp0
ccopy_reg
_reconstructor
p1
(c__main__
WildPokemon
p2
c__builtin__
object
p3
Ntp4
Rp5
(dp6
VpDexNo
p7
V016
p8
sVpSpecies
p9
VPidgey
p10
sVpGames
p11
VR,B,
p12
sVpArea
p13
VGrass
p14
sVpMinLevel
p15
V25
p16
sVpMaxLevel
p17
V27
p18
sVpRate
p19
V30
p20
sbag1
(g2
g3
Ntp21
Rp22
(dp23
g7
V016
p24
sg9
VPidgey
p25
sg11
VY,
p26
sg13
VGrass
p27
sg15
V28
p28
sg17
g28
sg19
V10
p29
sbag1
(g2
g3
Ntp30
Rp31
(dp32
g7
V017
p33
sg9
VPidgeotto
p34
sg11
g26
sg13
VGrass
p35
sg15
V28
p36
sg17
g36
sg19
V15
p37
sbag1
(g2
g3
Ntp38
Rp39
(dp40
g7
V043
p41
sg9
VOddish
p42
sg11
VR,
p43
sg13
VGrass
p44
sg15
V22
p45
sg17
V26
p46
sg19
V40
p47
sbag1
(g2
g3
Ntp48
Rp49
(dp50
g7
V043
p51
sg9
VOddish
p52
sg11
g26
sg13
VGrass
p53
sg15
V25
p54
sg17
V27
p55
sg19
V35
p56
sbag1
(g2
g3
Ntp57
Rp58
(dp59
g7
V044
p60
sg9
VGloom
p61
sg11
g43
sg13
VGrass
p62
sg15
V28
p63
sg17
V30
p64
sg19
V5
p65
sbag1
(g2
g3
Ntp66
Rp67
(dp68
g7
V044
p69
sg9
VGloom
p70
sg11
g26
sg13
VGrass
p71
sg15
V29
p72
sg17
g72
sg19
V5
p73
sbag1
(g2
g3
Ntp74
Rp75
(dp76
g7
V048
p77
sg9
VVenonat
p78
sg11
VR,B,
p79
sg13
VGrass
p80
sg15
V24
p81
sg17
V26
p82
sg19
V20
p83
sbag1
(g2
g3
Ntp84
Rp85
(dp86
g7
V069
p87
sg9
VBellsprout
p88
sg11
VB,
p89
sg13
VGrass
p90
sg15
V22
p91
sg17
V26
p92
sg19
V40
p93
sbag1
(g2
g3
Ntp94
Rp95
(dp96
g7
V069
p97
sg9
VBellsprout
p98
sg11
g26
sg13
VGrass
p99
sg15
V25
p100
sg17
V27
p101
sg19
V25
p102
sbag1
(g2
g3
Ntp103
Rp104
(dp105
g7
V070
p106
sg9
VWeepinbell
p107
sg11
g89
sg13
VGrass
p108
sg15
V28
p109
sg17
V30
p110
sg19
V5
p111
sbag1
(g2
g3
Ntp112
Rp113
(dp114
g7
V070
p115
sg9
VWeepinbell
p116
sg11
g26
sg13
VGrass
p117
sg15
V29
p118
sg17
g118
sg19
V5
p119
sbag1
(g2
g3
Ntp120
Rp121
(dp122
g7
V083
p123
sg9
VFarfetch'd
p124
sg11
g26
sg13
VGrass
p125
sg15
V26
p126
sg17
V31
p127
sg19
V5
p128
sbag1
(g2
g3
Ntp129
Rp130
(dp131
g7
V132
p132
sg9
VDitto
p133
sg11
VR,B,
p134
sg13
VGrass
p135
sg15
V25
p136
sg17
g136
sg19
V5
p137
sbag1
(g2
g3
Ntp138
Rp139
(dp140
g7
V079
p141
sg9
VSlowpoke
p142
sg11
g26
sg13
VSurf
p143
sg15
V15
p144
sg17
g144
sg19
V95
p145
sbag1
(g2
g3
Ntp146
Rp147
(dp148
g7
V080
p149
sg9
VSlowbro
p150
sg11
g26
sg13
VSurf
p151
sg15
V15
p152
sg17
V20
p153
sg19
V5
p154
sbag1
(g2
g3
Ntp155
Rp156
(dp157
g7
V129
p158
sg9
VMagikarp
p159
sg11
VR,B,Y,
p160
sg13
VFish Old
p161
sg15
V5
p162
sg17
g162
sg19
V100
p163
sbag1
(g2
g3
Ntp164
Rp165
(dp166
g7
V060
p167
sg9
VPoliwag
p168
sg11
VR,B,Y,
p169
sg13
VFish Good
p170
sg15
V10
p171
sg17
g171
sg19
V50
p172
sbag1
(g2
g3
Ntp173
Rp174
(dp175
g7
V072
p176
sg9
VTentacool
p177
sg11
VR,B,
p178
sg13
VFish Super
p179
sg15
g162
sg17
g162
sg19
V25
p180
sbag1
(g2
g3
Ntp181
Rp182
(dp183
g7
V072
p184
sg9
VTentacool
p185
sg11
g26
sg13
VFish Super
p186
sg15
V10
p187
sg17
g187
sg19
V20
p188
sbag1
(g2
g3
Ntp189
Rp190
(dp191
g7
V098
p192
sg9
VKrabby
p193
sg11
VR,B,
p194
sg13
VFish Super
p195
sg15
V15
p196
sg17
g196
sg19
V25
p197
sbag1
(g2
g3
Ntp198
Rp199
(dp200
g7
V118
p201
sg9
VGoldeen
p202
sg11
VR,B,
p203
sg13
VFish Super
p204
sg15
V15
p205
sg17
g205
sg19
V25
p206
sbag1
(g2
g3
Ntp207
Rp208
(dp209
g7
V129
p210
sg9
VMagikarp
p211
sg11
VR,B,
p212
sg13
VFish Super
p213
sg15
V15
p214
sg17
g214
sg19
V25
p215
sbag1
(g2
g3
Ntp216
Rp217
(dp218
g7
V116
p219
sg9
VHorsea
p220
sg11
g26
sg13
VFish Super
p221
sg15
V15
p222
sg17
V20
p223
sg19
V70
p224
sbag1
(g2
g3
Ntp225
Rp226
(dp227
g7
V117
p228
sg9
VSeadra
p229
sg11
g26
sg13
VFish Super
p230
sg15
V20
p231
sg17
g231
sg19
V10
p232
sbag1
(g2
g3
Ntp233
Rp234
(dp235
g7
V030
p236
sg9
VNidorina
p237
sg11
VG,S,
p238
sg13
VGrass
p239
sg15
V23
p240
sg17
g240
sg19
V30
p241
sbag1
(g2
g3
Ntp242
Rp243
(dp244
g7
V030
p245
sg9
VNidorina
p246
sg11
VC,
p247
sg13
VGrass
p248
sg15
V23
p249
sg17
g249
sg19
V30
p250
sbag1
(g2
g3
Ntp251
Rp252
(dp253
g7
V033
p254
sg9
VNidorino
p255
sg11
VG,S,
p256
sg13
VGrass
p257
sg15
V23
p258
sg17
g258
sg19
V30
p259
sbag1
(g2
g3
Ntp260
Rp261
(dp262
g7
V033
p263
sg9
VNidorino
p264
sg11
g247
sg13
VGrass
p265
sg15
V23
p266
sg17
g266
sg19
V30
p267
sbag1
(g2
g3
Ntp268
Rp269
(dp270
g7
V113
p271
sg9
VChansey
p272
sg11
VG,S,C,
p273
sg13
VGrass
p274
sg15
V25
p275
sg17
g275
sg19
V1
p276
sbag1
(g2
g3
Ntp277
Rp278
(dp279
g7
V017
p280
sg9
VPidgeotto
p281
sg11
VG,S,C,
p282
sg13
VGrass
p283
sg15
V25
p284
sg17
g284
sg19
V20
p285
sbag1
(g2
g3
Ntp286
Rp287
(dp288
g7
V187
p289
sg9
VHoppip
p290
sg11
VG,S,
p291
sg13
VGrass
p292
sg15
V22
p293
sg17
V24
p294
sg19
V19
p295
sbag1
(g2
g3
Ntp296
Rp297
(dp298
g7
V187
p299
sg9
VHoppip
p300
sg11
g247
sg13
VGrass
p301
sg15
V25
p302
sg17
V27
p303
sg19
V19
p304
sbag1
(g2
g3
Ntp305
Rp306
(dp307
g7
V195
p308
sg9
VQuagsire
p309
sg11
VG,S,
p310
sg13
VGrass
p311
sg15
V22
p312
sg17
g312
sg19
V4
p313
sbag1
(g2
g3
Ntp314
Rp315
(dp316
g7
V195
p317
sg9
VQuagsire
p318
sg11
VG,S,
p319
sg13
VGrass
p320
sg15
V22
p321
sg17
V24
p322
sg19
V19
p323
sbag1
(g2
g3
Ntp324
Rp325
(dp326
g7
V195
p327
sg9
VQuagsire
p328
sg11
g247
sg13
VGrass
p329
sg15
V23
p330
sg17
V25
p331
sg19
V39
p332
sbag1
(g2
g3
Ntp333
Rp334
(dp335
g7
V048
p336
sg9
VVenonat
p337
sg11
g247
sg13
VGrass
p338
sg15
V23
p339
sg17
g339
sg19
V30
p340
sbag1
(g2
g3
Ntp341
Rp342
(dp343
g7
V164
p344
sg9
VNoctowl
p345
sg11
VG,S,C,
p346
sg13
VGrass
p347
sg15
V25
p348
sg17
g348
sg19
V20
p349
sbag1
(g2
g3
Ntp350
Rp351
(dp352
g7
V049
p353
sg9
VVenomoth
p354
sg11
g247
sg13
VGrass
p355
sg15
V25
p356
sg17
g356
sg19
V10
p357
sbag1
(g2
g3
Ntp358
Rp359
(dp360
g7
V072
p361
sg9
VTentacool
p362
sg11
VG,S,C,
p363
sg13
VSurf
p364
sg15
V25
p365
sg17
V29
p366
sg19
V60
p367
sbag1
(g2
g3
Ntp368
Rp369
(dp370
g7
V195
p371
sg9
VQuagsire
p372
sg11
VG,S,C,
p373
sg13
VSurf
p374
sg15
V25
p375
sg17
V29
p376
sg19
V30
p377
sbag1
(g2
g3
Ntp378
Rp379
(dp380
g7
V073
p381
sg9
VTentacruel
p382
sg11
VG,S,C,
p383
sg13
VSurf
p384
sg15
V25
p385
sg17
V29
p386
sg19
V10
p387
sbag1
(g2
g3
Ntp388
Rp389
(dp390
g7
V129
p391
sg9
VMagikarp
p392
sg11
VG,S,C,
p393
sg13
VFish Old
p394
sg15
V10
p395
sg17
g395
sg19
V85
p396
sbag1
(g2
g3
Ntp397
Rp398
(dp399
g7
V072
p400
sg9
VTentacool
p401
sg11
VG,S,C,
p402
sg13
VFish Old
p403
sg15
V10
p404
sg17
g404
sg19
V15
p405
sbag1
(g2
g3
Ntp406
Rp407
(dp408
g7
V072
p409
sg9
VTentacool
p410
sg11
VG,S,C,
p411
sg13
VFish Good
p412
sg15
V20
p413
sg17
g413
sg19
V65
p414
sbag1
(g2
g3
Ntp415
Rp416
(dp417
g7
V129
p418
sg9
VMagikarp
p419
sg11
VG,S,C,
p420
sg13
VFish Good
p421
sg15
V20
p422
sg17
g422
sg19
V35
p423
sbag1
(g2
g3
Ntp424
Rp425
(dp426
g7
V072
p427
sg9
VTentacool
p428
sg11
VG,S,C,
p429
sg13
VFish Super
p430
sg15
V40
p431
sg17
g431
sg19
V70
p432
sbag1
(g2
g3
Ntp433
Rp434
(dp435
g7
V129
p436
sg9
VMagikarp
p437
sg11
VG,S,C,
p438
sg13
VFish Super
p439
sg15
V40
p440
sg17
g440
sg19
V20
p441
sbag1
(g2
g3
Ntp442
Rp443
(dp444
g7
V211
p445
sg9
VQwilfish
p446
sg11
VG,S,C,
p447
sg13
VFish Super
p448
sg15
V40
p449
sg17
g449
sg19
V10
p450
sbag1
(g2
g3
Ntp451
Rp452
(dp453
g7
V016
p454
sg9
VPidgey
p455
sg11
VFR,LG,
p456
sg13
VGrass
p457
sg15
V25
p458
sg17
V27
p459
sg19
V20
p460
sbag1
(g2
g3
Ntp461
Rp462
(dp463
g7
V017
p464
sg9
VPidgeotto
p465
sg11
VFR,LG,
p466
sg13
VGrass
p467
sg15
V29
p468
sg17
g468
sg19
V5
p469
sbag1
(g2
g3
Ntp470
Rp471
(dp472
g7
V043
p473
sg9
VOddish
p474
sg11
VFR,
p475
sg13
VGrass
p476
sg15
V22
p477
sg17
V26
p478
sg19
V35
p479
sbag1
(g2
g3
Ntp480
Rp481
(dp482
g7
V044
p483
sg9
VGloom
p484
sg11
g475
sg13
VGrass
p485
sg15
V28
p486
sg17
V30
p487
sg19
V5
p488
sbag1
(g2
g3
Ntp489
Rp490
(dp491
g7
V048
p492
sg9
VVenonat
p493
sg11
VFR,LG,
p494
sg13
VGrass
p495
sg15
V24
p496
sg17
V26
p497
sg19
V30
p498
sbag1
(g2
g3
Ntp499
Rp500
(dp501
g7
V069
p502
sg9
VBellsprout
p503
sg11
VLG,
p504
sg13
VGrass
p505
sg15
V22
p506
sg17
V26
p507
sg19
V35
p508
sbag1
(g2
g3
Ntp509
Rp510
(dp511
g7
V070
p512
sg9
VWeepinbell
p513
sg11
g504
sg13
VGrass
p514
sg15
V28
p515
sg17
V30
p516
sg19
V5
p517
sbag1
(g2
g3
Ntp518
Rp519
(dp520
g7
V132
p521
sg9
VDitto
p522
sg11
VFR,LG,
p523
sg13
VGrass
p524
sg15
V25
p525
sg17
g525
sg19
V5
p526
sbag1
(g2
g3
Ntp527
Rp528
(dp529
g7
V072
p530
sg9
VTentacool
p531
sg11
VFR,LG,
p532
sg13
VSurf
p533
sg15
g162
sg17
V40
p534
sg19
V100
p535
sbag1
(g2
g3
Ntp536
Rp537
(dp538
g7
V129
p539
sg9
VMagikarp
p540
sg11
VFR,LG,
p541
sg13
VFish Old
p542
sg15
g162
sg17
g162
sg19
V100
p543
sbag1
(g2
g3
Ntp544
Rp545
(dp546
g7
V098
p547
sg9
VKrabby
p548
sg11
g475
sg13
VFish Good
p549
sg15
g162
sg17
V15
p550
sg19
V20
p551
sbag1
(g2
g3
Ntp552
Rp553
(dp554
g7
V098
p555
sg9
VKrabby
p556
sg11
g504
sg13
VFish Good
p557
sg15
g162
sg17
V15
p558
sg19
V60
p559
sbag1
(g2
g3
Ntp560
Rp561
(dp562
g7
V116
p563
sg9
VHorsea
p564
sg11
g475
sg13
VFish Good
p565
sg15
g162
sg17
V15
p566
sg19
V60
p567
sbag1
(g2
g3
Ntp568
Rp569
(dp570
g7
V116
p571
sg9
VHorsea
p572
sg11
g504
sg13
VFish Good
p573
sg15
g162
sg17
V15
p574
sg19
V20
p575
sbag1
(g2
g3
Ntp576
Rp577
(dp578
g7
V129
p579
sg9
VMagikarp
p580
sg11
VFR,LG,
p581
sg13
VFish Good
p582
sg15
g162
sg17
V15
p583
sg19
V20
p584
sbag1
(g2
g3
Ntp585
Rp586
(dp587
g7
V054
p588
sg9
VPsyduck
p589
sg11
g475
sg13
VFish Super
p590
sg15
V25
p591
sg17
V35
p592
sg19
V1
p593
sbag1
(g2
g3
Ntp594
Rp595
(dp596
g7
V079
p597
sg9
VSlowpoke
p598
sg11
g504
sg13
VFish Super
p599
sg15
V25
p600
sg17
V35
p601
sg19
V1
p602
sbag1
(g2
g3
Ntp603
Rp604
(dp605
g7
V098
p606
sg9
VKrabby
p607
sg11
g504
sg13
VFish Super
p608
sg15
V15
p609
sg17
V35
p610
sg19
V84
p611
sbag1
(g2
g3
Ntp612
Rp613
(dp614
g7
V116
p615
sg9
VHorsea
p616
sg11
g475
sg13
VFish Super
p617
sg15
V15
p618
sg17
V35
p619
sg19
V84
p620
sbag1
(g2
g3
Ntp621
Rp622
(dp623
g7
V130
p624
sg9
VGyarados
p625
sg11
VFR,LG,
p626
sg13
VFish Super
p627
sg15
V15
p628
sg17
V25
p629
sg19
V15
p630
sbag1
(g2
g3
Ntp631
Rp632
(dp633
g7
V030
p634
sg9
VNidorina
p635
sg11
VHG,SS,
p636
sg13
VGrass
p637
sg15
V23
p638
sg17
g638
sg19
V30
p639
sbag1
(g2
g3
Ntp640
Rp641
(dp642
g7
V033
p643
sg9
VNidorino
p644
sg11
VHG,SS,
p645
sg13
VGrass
p646
sg15
V23
p647
sg17
g647
sg19
V30
p648
sbag1
(g2
g3
Ntp649
Rp650
(dp651
g7
V113
p652
sg9
VChansey
p653
sg11
VHG,SS,
p654
sg13
VGrass
p655
sg15
V25
p656
sg17
g656
sg19
V1
p657
sbag1
(g2
g3
Ntp658
Rp659
(dp660
g7
V017
p661
sg9
VPidgeotto
p662
sg11
VHG,SS,
p663
sg13
VGrass
p664
sg15
V25
p665
sg17
g665
sg19
V20
p666
sbag1
(g2
g3
Ntp667
Rp668
(dp669
g7
V187
p670
sg9
VHoppip
p671
sg11
VHG,SS,
p672
sg13
VGrass
p673
sg15
V22
p674
sg17
V24
p675
sg19
V19
p676
sbag1
(g2
g3
Ntp677
Rp678
(dp679
g7
V164
p680
sg9
VNoctowl
p681
sg11
VHG,SS,
p682
sg13
VGrass
p683
sg15
V25
p684
sg17
g684
sg19
V20
p685
sbag1
(g2
g3
Ntp686
Rp687
(dp688
g7
V195
p689
sg9
VQuagsire
p690
sg11
VHG,SS,
p691
sg13
VGrass
p692
sg15
V22
p693
sg17
V24
p694
sg19
V19
p695
sbag1
(g2
g3
Ntp696
Rp697
(dp698
g7
V072
p699
sg9
VTentacool
p700
sg11
VHG,SS,
p701
sg13
VSurf
p702
sg15
V25
p703
sg17
g703
sg19
V60
p704
sbag1
(g2
g3
Ntp705
Rp706
(dp707
g7
V195
p708
sg9
VQuagsire
p709
sg11
VHG,SS,
p710
sg13
VSurf
p711
sg15
V25
p712
sg17
g712
sg19
V30
p713
sbag1
(g2
g3
Ntp714
Rp715
(dp716
g7
V073
p717
sg9
VTentacruel
p718
sg11
VHG,SS,
p719
sg13
VSurf
p720
sg15
V25
p721
sg17
g721
sg19
V10
p722
sbag1
(g2
g3
Ntp723
Rp724
(dp725
g7
V129
p726
sg9
VMagikarp
p727
sg11
VHG,SS,
p728
sg13
VFish Old
p729
sg15
V10
p730
sg17
g730
sg19
V95
p731
sbag1
(g2
g3
Ntp732
Rp733
(dp734
g7
V072
p735
sg9
VTentacool
p736
sg11
VHG,SS,
p737
sg13
VFish Old
p738
sg15
V10
p739
sg17
g739
sg19
V5
p740
sbag1
(g2
g3
Ntp741
Rp742
(dp743
g7
V129
p744
sg9
VMagikarp
p745
sg11
VHG,SS,
p746
sg13
VFish Good
p747
sg15
V20
p748
sg17
g748
sg19
V60
p749
sbag1
(g2
g3
Ntp750
Rp751
(dp752
g7
V072
p753
sg9
VTentacool
p754
sg11
VHG,SS,
p755
sg13
VFish Good
p756
sg15
V20
p757
sg17
g757
sg19
V40
p758
sbag1
(g2
g3
Ntp759
Rp760
(dp761
g7
V072
p762
sg9
VTentacool
p763
sg11
VHG,SS,
p764
sg13
VFish Super
p765
sg15
V40
p766
sg17
g766
sg19
V90
p767
sbag1
(g2
g3
Ntp768
Rp769
(dp770
g7
V129
p771
sg9
VMagikarp
p772
sg11
VHG,SS,
p773
sg13
VFish Super
p774
sg15
V40
p775
sg17
g775
sg19
V7
p776
sbag1
(g2
g3
Ntp777
Rp778
(dp779
g7
V211
p780
sg9
VQwilfish
p781
sg11
VHG,SS,
p782
sg13
VFish Super
p783
sg15
V40
p784
sg17
g784
sg19
V3
p785
sbag1
(g2
g3
Ntp786
Rp787
(dp788
g7
V114
p789
sg9
VTangela
p790
sg11
VHG,SS,
p791
sg13
VHeadbutt
p792
sg15
V24
p793
sg17
V25
p794
sg19
V15
p795
sbag1
(g2
g3
Ntp796
Rp797
(dp798
g7
V163
p799
sg9
VHoothoot
p800
sg11
VHG,SS,
p801
sg13
VHeadbutt
p802
sg15
V22
p803
sg17
V23
p804
sg19
V50
p805
sbag1
(g2
g3
Ntp806
Rp807
(dp808
g7
V163
p809
sg9
VHoothoot
p810
sg11
VHG,SS,
p811
sg13
VHeadbutt
p812
sg15
V24
p813
sg17
V25
p814
sg19
V65
p815
sbag1
(g2
g3
Ntp816
Rp817
(dp818
g7
V265
p819
sg9
VWurmple
p820
sg11
VHG,SS,
p821
sg13
VHeadbutt
p822
sg15
V22
p823
sg17
V25
p824
sg19
V20
p825
sbag1
(g2
g3
Ntp826
Rp827
(dp828
g7
V167
p829
sg9
VSpinarak
p830
sg11
VHG,
p831
sg13
VHeadbutt
p832
sg15
V22
p833
sg17
V23
p834
sg19
V30
p835
sbag1
(g2
g3
Ntp836
Rp837
(dp838
g7
V165
p839
sg9
VLedyba
p840
sg11
VSS,
p841
sg13
VHeadbutt
p842
sg15
V22
p843
sg17
V23
p844
sg19
V30
p845
sbag1
(g2
g3
Ntp846
Rp847
(dp848
g7
V113
p849
sg9
VChansey
p850
sg11
VHG,SS,
p851
sg13
VSwarm
p852
sg15
V23
p853
sg17
V25
p854
sg19
V40
p855
sbag1
(g2
g3
Ntp856
Rp857
(dp858
g7
V264
p859
sg9
VLinoone
p860
sg11
VHG,SS,
p861
sg13
VHoenn
p862
sg15
V25
p863
sg17
g863
sg19
V20
p864
sbag1
(g2
g3
Ntp865
Rp866
(dp867
g7
V293
p868
sg9
VWhismur
p869
sg11
VHG,SS,
p870
sg13
VHoenn
p871
sg15
V23
p872
sg17
g872
sg19
V20
p873
sbag1
(g2
g3
Ntp874
Rp875
(dp876
g7
V399
p877
sg9
VBidoof
p878
sg11
VHG,SS,
p879
sg13
VSinnoh
p880
sg15
V25
p881
sg17
g881
sg19
V20
p882
sbag1
(g2
g3
Ntp883
Rp884
(dp885
g7
V418
p886
sg9
VBuizel
p887
sg11
VHG,SS,
p888
sg13
VSinnoh
p889
sg15
V23
p890
sg17
g890
sg19
V20
p891
sbag1
(g2
g3
Ntp892
Rp893
(dp894
g7
V016
p895
sg9
VPidgey
p896
sg11
VPi,Ev,
p897
sg13
VGrass
p898
sg15
V33
p899
sg17
V38
p900
sg19
V20
p901
sbag1
(g2
g3
Ntp902
Rp903
(dp904
g7
V017
p905
sg9
VPidgeotto
p906
sg11
VPi,Ev,
p907
sg13
VGrass
p908
sg15
V33
p909
sg17
V38
p910
sg19
V20
p911
sbag1
(g2
g3
Ntp912
Rp913
(dp914
g7
V043
p915
sg9
VOddish
p916
sg11
VPi,
p917
sg13
VGrass
p918
sg15
V33
p919
sg17
V38
p920
sg19
V15
p921
sbag1
(g2
g3
Ntp922
Rp923
(dp924
g7
V044
p925
sg9
VGloom
p926
sg11
g917
sg13
VGrass
p927
sg15
V33
p928
sg17
V38
p929
sg19
V15
p930
sbag1
(g2
g3
Ntp931
Rp932
(dp933
g7
V069
p934
sg9
VBellsprout
p935
sg11
VEv,
p936
sg13
VGrass
p937
sg15
V33
p938
sg17
V38
p939
sg19
V15
p940
sbag1
(g2
g3
Ntp941
Rp942
(dp943
g7
V070
p944
sg9
VWeepinbell
p945
sg11
g936
sg13
VGrass
p946
sg15
V33
p947
sg17
V38
p948
sg19
V15
p949
sbag1
(g2
g3
Ntp950
Rp951
(dp952
g7
V083
p953
sg9
VFarfetch'd
p954
sg11
VPi,Ev,
p955
sg13
VGrass
p956
sg15
V33
p957
sg17
V38
p958
sg19
V10
p959
sbag1
(g2
g3
Ntp960
Rp961
(dp962
g7
V098
p963
sg9
VKrabby
p964
sg11
VPi,Ev,
p965
sg13
VGrass
p966
sg15
V33
p967
sg17
V38
p968
sg19
V15
p969
sbag1
(g2
g3
Ntp970
Rp971
(dp972
g7
V099
p973
sg9
VKingler
p974
sg11
VPi,Ev,
p975
sg13
VGrass
p976
sg15
V33
p977
sg17
V38
p978
sg19
V5
p979
sbag1
(g2
g3
Ntp980
Rp981
(dp982
g7
V113
p983
sg9
VChansey
p984
sg11
VPi,Ev,
p985
sg13
VGrass
p986
sg15
V33
p987
sg17
V38
p988
sg19
V0
p989
sbag1
(g2
g3
Ntp990
Rp991
(dp992
g7
V072
p993
sg9
VTentacool
p994
sg11
VPi,Ev,
p995
sg13
VSurf
p996
sg15
V33
p997
sg17
V38
p998
sg19
V30
p999
sbag1
(g2
g3
Ntp1000
Rp1001
(dp1002
g7
V073
p1003
sg9
VTentacruel
p1004
sg11
VPi,Ev,
p1005
sg13
VSurf
p1006
sg15
V33
p1007
sg17
V38
p1008
sg19
V5
p1009
sbag1
(g2
g3
Ntp1010
Rp1011
(dp1012
g7
V116
p1013
sg9
VHorsea
p1014
sg11
VPi,Ev,
p1015
sg13
VSurf
p1016
sg15
V33
p1017
sg17
V38
p1018
sg19
V30
p1019
sbag1
(g2
g3
Ntp1020
Rp1021
(dp1022
g7
V117
p1023
sg9
VSeadra
p1024
sg11
VPi,Ev,
p1025
sg13
VSurf
p1026
sg15
V33
p1027
sg17
V38
p1028
sg19
V5
p1029
sbag1
(g2
g3
Ntp1030
Rp1031
(dp1032
g7
V129
p1033
sg9
VMagikarp
p1034
sg11
VPi,Ev,
p1035
sg13
VSurf
p1036
sg15
V33
p1037
sg17
V38
p1038
sg19
V30
p1039
sbag1
(g2
g3
Ntp1040
Rp1041
(dp1042
g7
V016
p1043
sg9
VPidgey
p1044
sg11
VPi,Ev,
p1045
sg13
VSky
p1046
sg15
V3
p1047
sg17
V56
p1048
sg19
V60
p1049
sbag1
(g2
g3
Ntp1050
Rp1051
(dp1052
g7
V017
p1053
sg9
VPidgeotto
p1054
sg11
VPi,Ev,
p1055
sg13
VSky
p1056
sg15
g1047
sg17
V56
p1057
sg19
V35
p1058
sbag1
(g2
g3
Ntp1059
Rp1060
(dp1061
g7
V018
p1062
sg9
VPidgeot
p1063
sg11
VPi,Ev,
p1064
sg13
VSky
p1065
sg15
g1047
sg17
V56
p1066
sg19
V5
p1067
sbag1
(g2
g3
Ntp1068
Rp1069
(dp1070
g7
V006
p1071
sg9
VCharizard
p1072
sg11
VPi,Ev,
p1073
sg13
VSky
p1074
sg15
g1047
sg17
V56
p1075
sg19
V0
p1076
sbag1
(g2
g3
Ntp1077
Rp1078
(dp1079
g7
V144
p1080
sg9
VArticuno
p1081
sg11
VPi,Ev,
p1082
sg13
VSky
p1083
sg15
g1047
sg17
V56
p1084
sg19
V0
p1085
sbag1
(g2
g3
Ntp1086
Rp1087
(dp1088
g7
V145
p1089
sg9
VZapdos
p1090
sg11
VPi,Ev,
p1091
sg13
VSky
p1092
sg15
g1047
sg17
V56
p1093
sg19
V0
p1094
sbag1
(g2
g3
Ntp1095
Rp1096
(dp1097
g7
V146
p1098
sg9
VMoltres
p1099
sg11
VPi,Ev,
p1100
sg13
VSky
p1101
sg15
g1047
sg17
V56
p1102
sg19
V0
p1103
sbag1
(g2
g3
Ntp1104
Rp1105
(dp1106
g7
V149
p1107
sg9
VDragonite
p1108
sg11
VPi,Ev,
p1109
sg13
VSky
p1110
sg15
g1047
sg17
V56
p1111
sg19
V0
p1112
sba.