(lp0
ccopy_reg
_reconstructor
p1
(c__main__
WildPokemon
p2
c__builtin__
object
p3
Ntp4
Rp5
(dp6
VpDexNo
p7
V010
p8
sVpSpecies
p9
VCaterpie
p10
sVpGames
p11
VR,
p12
sVpArea
p13
VGrass
p14
sVpMinLevel
p15
V8
p16
sVpMaxLevel
p17
g16
sVpRate
p18
V1
p19
sbag1
(g2
g3
Ntp20
Rp21
(dp22
g7
V010
p23
sg9
VCaterpie
p24
sg11
VB,
p25
sg13
VGrass
p26
sg15
g16
sg17
g16
sg18
V20
p27
sbag1
(g2
g3
Ntp28
Rp29
(dp30
g7
V011
p31
sg9
VMetapod
p32
sg11
g12
sg13
VGrass
p33
sg15
V7
p34
sg17
g34
sg18
V4
p35
sbag1
(g2
g3
Ntp36
Rp37
(dp38
g7
V011
p39
sg9
VMetapod
p40
sg11
g25
sg13
VGrass
p41
sg15
V9
p42
sg17
g42
sg18
V20
p43
sbag1
(g2
g3
Ntp44
Rp45
(dp46
g7
V013
p47
sg9
VWeedle
p48
sg11
g12
sg13
VGrass
p49
sg15
g16
sg17
g16
sg18
V20
p50
sbag1
(g2
g3
Ntp51
Rp52
(dp53
g7
V013
p54
sg9
VWeedle
p55
sg11
g25
sg13
VGrass
p56
sg15
g16
sg17
g16
sg18
V1
p57
sbag1
(g2
g3
Ntp58
Rp59
(dp60
g7
V014
p61
sg9
VKakuna
p62
sg11
g12
sg13
VGrass
p63
sg15
g42
sg17
g42
sg18
V20
p64
sbag1
(g2
g3
Ntp65
Rp66
(dp67
g7
V014
p68
sg9
VKakuna
p69
sg11
g25
sg13
VGrass
p70
sg15
g34
sg17
g34
sg18
V4
p71
sbag1
(g2
g3
Ntp72
Rp73
(dp74
g7
V016
p75
sg9
VPidgey
p76
sg11
VR,B,
p77
sg13
VGrass
p78
sg15
V13
p79
sg17
g79
sg18
V15
p80
sbag1
(g2
g3
Ntp81
Rp82
(dp83
g7
V016
p84
sg9
VPidgey
p85
sg11
VY,
p86
sg13
VGrass
p87
sg15
V13
p88
sg17
V17
p89
sg18
V29
p90
sbag1
(g2
g3
Ntp91
Rp92
(dp93
g7
V017
p94
sg9
VPidgeotto
p95
sg11
g86
sg13
VGrass
p96
sg15
V17
p97
sg17
g97
sg18
V1
p98
sbag1
(g2
g3
Ntp99
Rp100
(dp101
g7
V043
p102
sg9
VOddish
p103
sg11
g12
sg13
VGrass
p104
sg15
V12
p105
sg17
V14
p106
sg18
V25
p107
sbag1
(g2
g3
Ntp108
Rp109
(dp110
g7
V043
p111
sg9
VOddish
p112
sg11
g86
sg13
VGrass
p113
sg15
V12
p114
sg17
V14
p115
sg18
V35
p116
sbag1
(g2
g3
Ntp117
Rp118
(dp119
g7
V048
p120
sg9
VVenonat
p121
sg11
g86
sg13
VGrass
p122
sg15
V13
p123
sg17
V16
p124
sg18
V10
p125
sbag1
(g2
g3
Ntp126
Rp127
(dp128
g7
V063
p129
sg9
VAbra
p130
sg11
VR,B,
p131
sg13
VGrass
p132
sg15
V10
p133
sg17
V12
p134
sg18
V15
p135
sbag1
(g2
g3
Ntp136
Rp137
(dp138
g7
V069
p139
sg9
VBellsprout
p140
sg11
g25
sg13
VGrass
p141
sg15
V12
p142
sg17
V14
p143
sg18
V25
p144
sbag1
(g2
g3
Ntp145
Rp146
(dp147
g7
V069
p148
sg9
VBellsprout
p149
sg11
g86
sg13
VGrass
p150
sg15
V12
p151
sg17
V14
p152
sg18
V25
p153
sbag1
(g2
g3
Ntp154
Rp155
(dp156
g7
V129
p157
sg9
VMagikarp
p158
sg11
VR,B,Y,
p159
sg13
VFish Old
p160
sg15
V5
p161
sg17
g161
sg18
V100
p162
sbag1
(g2
g3
Ntp163
Rp164
(dp165
g7
V060
p166
sg9
VPoliwag
p167
sg11
VR,B,Y,
p168
sg13
VFish Good
p169
sg15
V10
p170
sg17
g170
sg18
V50
p171
sbag1
(g2
g3
Ntp172
Rp173
(dp174
g7
V118
p175
sg9
VGoldeen
p176
sg11
VR,B,Y,
p177
sg13
VFish Good
p178
sg15
V10
p179
sg17
g179
sg18
V50
p180
sbag1
(g2
g3
Ntp181
Rp182
(dp183
g7
V054
p184
sg9
VPsyduck
p185
sg11
VR,B,
p186
sg13
VFish Super
p187
sg15
V15
p188
sg17
g188
sg18
V33
p189
sbag1
(g2
g3
Ntp190
Rp191
(dp192
g7
V098
p193
sg9
VKrabby
p194
sg11
VR,B,
p195
sg13
VFish Super
p196
sg15
V15
p197
sg17
g197
sg18
V33
p198
sbag1
(g2
g3
Ntp199
Rp200
(dp201
g7
V098
p202
sg9
VKrabby
p203
sg11
g86
sg13
VFish Super
p204
sg15
V10
p205
sg17
V15
p206
sg18
V70
p207
sbag1
(g2
g3
Ntp208
Rp209
(dp210
g7
V099
p211
sg9
VKingler
p212
sg11
g86
sg13
VFish Super
p213
sg15
V15
p214
sg17
V25
p215
sg18
V30
p216
sbag1
(g2
g3
Ntp217
Rp218
(dp219
g7
V118
p220
sg9
VGoldeen
p221
sg11
VR,B,
p222
sg13
VFish Super
p223
sg15
V15
p224
sg17
g224
sg18
V33
p225
sbag1
(g2
g3
Ntp226
Rp227
(dp228
g7
V010
p229
sg9
VCaterpie
p230
sg11
VC,
p231
sg13
VGrass
p232
sg15
V10
p233
sg17
g233
sg18
V30
p234
sbag1
(g2
g3
Ntp235
Rp236
(dp237
g7
V011
p238
sg9
VMetapod
p239
sg11
g231
sg13
VGrass
p240
sg15
V12
p241
sg17
g241
sg18
V10
p242
sbag1
(g2
g3
Ntp243
Rp244
(dp245
g7
V012
p246
sg9
VButterfree
p247
sg11
g231
sg13
VGrass
p248
sg15
V14
p249
sg17
g249
sg18
V5
p250
sbag1
(g2
g3
Ntp251
Rp252
(dp253
g7
V016
p254
sg9
VPidgey
p255
sg11
VG,S,
p256
sg13
VGrass
p257
sg15
g16
sg17
g16
sg18
V30
p258
sbag1
(g2
g3
Ntp259
Rp260
(dp261
g7
V016
p262
sg9
VPidgey
p263
sg11
VG,S,
p264
sg13
VGrass
p265
sg15
g16
sg17
V10
p266
sg18
V50
p267
sbag1
(g2
g3
Ntp268
Rp269
(dp270
g7
V016
p271
sg9
VPidgey
p272
sg11
g231
sg13
VGrass
p273
sg15
V10
p274
sg17
g274
sg18
V30
p275
sbag1
(g2
g3
Ntp276
Rp277
(dp278
g7
V017
p279
sg9
VPidgeotto
p280
sg11
VG,S,
p281
sg13
VGrass
p282
sg15
V10
p283
sg17
g283
sg18
V5
p284
sbag1
(g2
g3
Ntp285
Rp286
(dp287
g7
V017
p288
sg9
VPidgeotto
p289
sg11
g231
sg13
VGrass
p290
sg15
V12
p291
sg17
g291
sg18
V20
p292
sbag1
(g2
g3
Ntp293
Rp294
(dp295
g7
V043
p296
sg9
VOddish
p297
sg11
VG,S,C,
p298
sg13
VGrass
p299
sg15
V10
p300
sg17
g300
sg18
V30
p301
sbag1
(g2
g3
Ntp302
Rp303
(dp304
g7
V048
p305
sg9
VVenonat
p306
sg11
VG,S,
p307
sg13
VGrass
p308
sg15
g16
sg17
g16
sg18
V30
p309
sbag1
(g2
g3
Ntp310
Rp311
(dp312
g7
V048
p313
sg9
VVenonat
p314
sg11
g231
sg13
VGrass
p315
sg15
V10
p316
sg17
g316
sg18
V20
p317
sbag1
(g2
g3
Ntp318
Rp319
(dp320
g7
V049
p321
sg9
VVenomoth
p322
sg11
VG,S,
p323
sg13
VGrass
p324
sg15
V10
p325
sg17
g325
sg18
V20
p326
sbag1
(g2
g3
Ntp327
Rp328
(dp329
g7
V063
p330
sg9
VAbra
p331
sg11
VG,S,
p332
sg13
VGrass
p333
sg15
g42
sg17
g42
sg18
V10
p334
sbag1
(g2
g3
Ntp335
Rp336
(dp337
g7
V069
p338
sg9
VBellsprout
p339
sg11
VG,S,
p340
sg13
VGrass
p341
sg15
V10
p342
sg17
g342
sg18
V30
p343
sbag1
(g2
g3
Ntp344
Rp345
(dp346
g7
V069
p347
sg9
VBellsprout
p348
sg11
g231
sg13
VGrass
p349
sg15
V10
p350
sg17
g350
sg18
V5
p351
sbag1
(g2
g3
Ntp352
Rp353
(dp354
g7
V070
p355
sg9
VWeepinbell
p356
sg11
VG,S,
p357
sg13
VGrass
p358
sg15
V14
p359
sg17
g359
sg18
V5
p360
sbag1
(g2
g3
Ntp361
Rp362
(dp363
g7
V163
p364
sg9
VHoothoot
p365
sg11
g231
sg13
VGrass
p366
sg15
V10
p367
sg17
g367
sg18
V30
p368
sbag1
(g2
g3
Ntp369
Rp370
(dp371
g7
V164
p372
sg9
VNoctowl
p373
sg11
g231
sg13
VGrass
p374
sg15
V12
p375
sg17
V14
p376
sg18
V15
p377
sbag1
(g2
g3
Ntp378
Rp379
(dp380
g7
V118
p381
sg9
VGoldeen
p382
sg11
VG,S,C,
p383
sg13
VSurf
p384
sg15
g161
sg17
V14
p385
sg18
V90
p386
sbag1
(g2
g3
Ntp387
Rp388
(dp389
g7
V119
p390
sg9
VSeaking
p391
sg11
VG,S,C,
p392
sg13
VSurf
p393
sg15
V10
p394
sg17
V14
p395
sg18
V10
p396
sbag1
(g2
g3
Ntp397
Rp398
(dp399
g7
V118
p400
sg9
VGoldeen
p401
sg11
VG,S,C,
p402
sg13
VFish Old
p403
sg15
V10
p404
sg17
g404
sg18
V15
p405
sbag1
(g2
g3
Ntp406
Rp407
(dp408
g7
V129
p409
sg9
VMagikarp
p410
sg11
VG,S,C,
p411
sg13
VFish Old
p412
sg15
V10
p413
sg17
g413
sg18
V85
p414
sbag1
(g2
g3
Ntp415
Rp416
(dp417
g7
V118
p418
sg9
VGoldeen
p419
sg11
VG,S,C,
p420
sg13
VFish Good
p421
sg15
V20
p422
sg17
g422
sg18
V65
p423
sbag1
(g2
g3
Ntp424
Rp425
(dp426
g7
V129
p427
sg9
VMagikarp
p428
sg11
VG,S,C,
p429
sg13
VFish Good
p430
sg15
V20
p431
sg17
g431
sg18
V35
p432
sbag1
(g2
g3
Ntp433
Rp434
(dp435
g7
V118
p436
sg9
VGoldeen
p437
sg11
VG,S,C,
p438
sg13
VFish Super
p439
sg15
V40
p440
sg17
g440
sg18
V70
p441
sbag1
(g2
g3
Ntp442
Rp443
(dp444
g7
V119
p445
sg9
VSeaking
p446
sg11
VG,S,C,
p447
sg13
VFish Super
p448
sg15
V40
p449
sg17
g449
sg18
V10
p450
sbag1
(g2
g3
Ntp451
Rp452
(dp453
g7
V129
p454
sg9
VMagikarp
p455
sg11
VG,S,C,
p456
sg13
VFish Super
p457
sg15
V40
p458
sg17
g458
sg18
V20
p459
sbag1
(g2
g3
Ntp460
Rp461
(dp462
g7
V010
p463
sg9
VCaterpie
p464
sg11
VFR,LG,
p465
sg13
VGrass
p466
sg15
g16
sg17
g16
sg18
V20
p467
sbag1
(g2
g3
Ntp468
Rp469
(dp470
g7
V011
p471
sg9
VMetapod
p472
sg11
VFR,
p473
sg13
VGrass
p474
sg15
g42
sg17
g42
sg18
V1
p475
sbag1
(g2
g3
Ntp476
Rp477
(dp478
g7
V011
p479
sg9
VMetapod
p480
sg11
VLG,
p481
sg13
VGrass
p482
sg15
g42
sg17
g42
sg18
V4
p483
sbag1
(g2
g3
Ntp484
Rp485
(dp486
g7
V013
p487
sg9
VWeedle
p488
sg11
VFR,LG,
p489
sg13
VGrass
p490
sg15
g16
sg17
g16
sg18
V20
p491
sbag1
(g2
g3
Ntp492
Rp493
(dp494
g7
V014
p495
sg9
VKakuna
p496
sg11
g473
sg13
VGrass
p497
sg15
g42
sg17
g42
sg18
V4
p498
sbag1
(g2
g3
Ntp499
Rp500
(dp501
g7
V014
p502
sg9
VKakuna
p503
sg11
g481
sg13
VGrass
p504
sg15
g42
sg17
g42
sg18
V1
p505
sbag1
(g2
g3
Ntp506
Rp507
(dp508
g7
V016
p509
sg9
VPidgey
p510
sg11
VFR,LG,
p511
sg13
VGrass
p512
sg15
V11
p513
sg17
V13
p514
sg18
V15
p515
sbag1
(g2
g3
Ntp516
Rp517
(dp518
g7
V043
p519
sg9
VOddish
p520
sg11
g473
sg13
VGrass
p521
sg15
V12
p522
sg17
V14
p523
sg18
V25
p524
sbag1
(g2
g3
Ntp525
Rp526
(dp527
g7
V063
p528
sg9
VAbra
p529
sg11
VFR,LG,
p530
sg13
VGrass
p531
sg15
g42
sg17
V13
p532
sg18
V15
p533
sbag1
(g2
g3
Ntp534
Rp535
(dp536
g7
V069
p537
sg9
VBellsprout
p538
sg11
g481
sg13
VGrass
p539
sg15
V12
p540
sg17
V14
p541
sg18
V25
p542
sbag1
(g2
g3
Ntp543
Rp544
(dp545
g7
V054
p546
sg9
VPsyduck
p547
sg11
g473
sg13
VSurf
p548
sg15
V20
p549
sg17
V40
p550
sg18
V100
p551
sbag1
(g2
g3
Ntp552
Rp553
(dp554
g7
V079
p555
sg9
VSlowpoke
p556
sg11
g481
sg13
VSurf
p557
sg15
V20
p558
sg17
V40
p559
sg18
V100
p560
sbag1
(g2
g3
Ntp561
Rp562
(dp563
g7
V129
p564
sg9
VMagikarp
p565
sg11
VFR,LG,
p566
sg13
VFish Old
p567
sg15
g161
sg17
g161
sg18
V100
p568
sbag1
(g2
g3
Ntp569
Rp570
(dp571
g7
V060
p572
sg9
VPoliwag
p573
sg11
VFR,LG,
p574
sg13
VFish Good
p575
sg15
g161
sg17
V15
p576
sg18
V60
p577
sbag1
(g2
g3
Ntp578
Rp579
(dp580
g7
V118
p581
sg9
VGoldeen
p582
sg11
VFR,LG,
p583
sg13
VFish Good
p584
sg15
g161
sg17
V15
p585
sg18
V20
p586
sbag1
(g2
g3
Ntp587
Rp588
(dp589
g7
V129
p590
sg9
VMagikarp
p591
sg11
VFR,LG,
p592
sg13
VFish Good
p593
sg15
g161
sg17
V15
p594
sg18
V20
p595
sbag1
(g2
g3
Ntp596
Rp597
(dp598
g7
V060
p599
sg9
VPoliwag
p600
sg11
VFR,LG,
p601
sg13
VFish Super
p602
sg15
V15
p603
sg17
V25
p604
sg18
V40
p605
sbag1
(g2
g3
Ntp606
Rp607
(dp608
g7
V061
p609
sg9
VPoliwhirl
p610
sg11
VFR,LG,
p611
sg13
VFish Super
p612
sg15
V20
p613
sg17
V30
p614
sg18
V40
p615
sbag1
(g2
g3
Ntp616
Rp617
(dp618
g7
V130
p619
sg9
VGyarados
p620
sg11
VFR,LG,
p621
sg13
VFish Super
p622
sg15
V15
p623
sg17
V25
p624
sg18
V15
p625
sbag1
(g2
g3
Ntp626
Rp627
(dp628
g7
V054
p629
sg9
VPsyduck
p630
sg11
g473
sg13
VFish Super
p631
sg15
V15
p632
sg17
V35
p633
sg18
V5
p634
sbag1
(g2
g3
Ntp635
Rp636
(dp637
g7
V079
p638
sg9
VSlowpoke
p639
sg11
g481
sg13
VFish Super
p640
sg15
V15
p641
sg17
V35
p642
sg18
V5
p643
sbag1
(g2
g3
Ntp644
Rp645
(dp646
g7
V063
p647
sg9
VAbra
p648
sg11
VHG,SS,
p649
sg13
VGrass
p650
sg15
g42
sg17
g42
sg18
V10
p651
sbag1
(g2
g3
Ntp652
Rp653
(dp654
g7
V016
p655
sg9
VPidgey
p656
sg11
VHG,SS,
p657
sg13
VGrass
p658
sg15
g16
sg17
g16
sg18
V50
p659
sbag1
(g2
g3
Ntp660
Rp661
(dp662
g7
V069
p663
sg9
VBellsprout
p664
sg11
VHG,SS,
p665
sg13
VGrass
p666
sg15
V10
p667
sg17
g667
sg18
V30
p668
sbag1
(g2
g3
Ntp669
Rp670
(dp671
g7
V069
p672
sg9
VBellsprout
p673
sg11
VHG,SS,
p674
sg13
VGrass
p675
sg15
V14
p676
sg17
g676
sg18
V5
p677
sbag1
(g2
g3
Ntp678
Rp679
(dp680
g7
V048
p681
sg9
VVenonat
p682
sg11
VHG,SS,
p683
sg13
VGrass
p684
sg15
V10
p685
sg17
g685
sg18
V20
p686
sbag1
(g2
g3
Ntp687
Rp688
(dp689
g7
V048
p690
sg9
VVenonat
p691
sg11
VHG,SS,
p692
sg13
VGrass
p693
sg15
g16
sg17
g16
sg18
V30
p694
sbag1
(g2
g3
Ntp695
Rp696
(dp697
g7
V017
p698
sg9
VPidgeotto
p699
sg11
VHG,SS,
p700
sg13
VGrass
p701
sg15
V10
p702
sg17
g702
sg18
V5
p703
sbag1
(g2
g3
Ntp704
Rp705
(dp706
g7
V070
p707
sg9
VWeepinbell
p708
sg11
VHG,SS,
p709
sg13
VGrass
p710
sg15
V14
p711
sg17
g711
sg18
V5
p712
sbag1
(g2
g3
Ntp713
Rp714
(dp715
g7
V070
p716
sg9
VWeepinbell
p717
sg11
VHG,SS,
p718
sg13
VGrass
p719
sg15
V10
p720
sg17
g720
sg18
V5
p721
sbag1
(g2
g3
Ntp722
Rp723
(dp724
g7
V043
p725
sg9
VOddish
p726
sg11
VHG,SS,
p727
sg13
VGrass
p728
sg15
V10
p729
sg17
g729
sg18
V30
p730
sbag1
(g2
g3
Ntp731
Rp732
(dp733
g7
V049
p734
sg9
VVenomoth
p735
sg11
VHG,SS,
p736
sg13
VGrass
p737
sg15
g16
sg17
g16
sg18
V20
p738
sbag1
(g2
g3
Ntp739
Rp740
(dp741
g7
V118
p742
sg9
VGoldeen
p743
sg11
VHG,SS,
p744
sg13
VSurf
p745
sg15
g161
sg17
V10
p746
sg18
V90
p747
sbag1
(g2
g3
Ntp748
Rp749
(dp750
g7
V119
p751
sg9
VSeaking
p752
sg11
VHG,SS,
p753
sg13
VSurf
p754
sg15
V10
p755
sg17
g755
sg18
V10
p756
sbag1
(g2
g3
Ntp757
Rp758
(dp759
g7
V129
p760
sg9
VMagikarp
p761
sg11
VHG,SS,
p762
sg13
VFish Old
p763
sg15
V10
p764
sg17
g764
sg18
V95
p765
sbag1
(g2
g3
Ntp766
Rp767
(dp768
g7
V118
p769
sg9
VGoldeen
p770
sg11
VHG,SS,
p771
sg13
VFish Old
p772
sg15
V10
p773
sg17
g773
sg18
V5
p774
sbag1
(g2
g3
Ntp775
Rp776
(dp777
g7
V129
p778
sg9
VMagikarp
p779
sg11
VHG,SS,
p780
sg13
VFish Good
p781
sg15
V20
p782
sg17
g782
sg18
V60
p783
sbag1
(g2
g3
Ntp784
Rp785
(dp786
g7
V118
p787
sg9
VGoldeen
p788
sg11
VHG,SS,
p789
sg13
VFish Good
p790
sg15
V20
p791
sg17
g791
sg18
V40
p792
sbag1
(g2
g3
Ntp793
Rp794
(dp795
g7
V118
p796
sg9
VGoldeen
p797
sg11
VHG,SS,
p798
sg13
VFish Super
p799
sg15
V40
p800
sg17
g800
sg18
V90
p801
sbag1
(g2
g3
Ntp802
Rp803
(dp804
g7
V129
p805
sg9
VMagikarp
p806
sg11
VHG,SS,
p807
sg13
VFish Super
p808
sg15
V40
p809
sg17
g809
sg18
V7
p810
sbag1
(g2
g3
Ntp811
Rp812
(dp813
g7
V119
p814
sg9
VSeaking
p815
sg11
VHG,SS,
p816
sg13
VFish Super
p817
sg15
V40
p818
sg17
g818
sg18
V3
p819
sbag1
(g2
g3
Ntp820
Rp821
(dp822
g7
V163
p823
sg9
VHoothoot
p824
sg11
VHG,SS,
p825
sg13
VHeadbutt
p826
sg15
V10
p827
sg17
V14
p828
sg18
V50
p829
sbag1
(g2
g3
Ntp830
Rp831
(dp832
g7
V204
p833
sg9
VPineco
p834
sg11
VHG,SS,
p835
sg13
VHeadbutt
p836
sg15
V10
p837
sg17
V11
p838
sg18
V30
p839
sbag1
(g2
g3
Ntp840
Rp841
(dp842
g7
V415
p843
sg9
VCombee
p844
sg11
VHG,SS,
p845
sg13
VHeadbutt
p846
sg15
V10
p847
sg17
V14
p848
sg18
V20
p849
sbag1
(g2
g3
Ntp850
Rp851
(dp852
g7
V287
p853
sg9
VSlakoth
p854
sg11
VHG,SS,
p855
sg13
VHeadbutt
p856
sg15
V10
p857
sg17
V18
p858
sg18
V35
p859
sbag1
(g2
g3
Ntp860
Rp861
(dp862
g7
V415
p863
sg9
VCombee
p864
sg11
VHG,SS,
p865
sg13
VHeadbutt
p866
sg15
V10
p867
sg17
V14
p868
sg18
V65
p869
sbag1
(g2
g3
Ntp870
Rp871
(dp872
g7
V427
p873
sg9
VBuneary
p874
sg11
VHG,SS,
p875
sg13
VSwarm
p876
sg15
g16
sg17
V10
p877
sg18
V40
p878
sbag1
(g2
g3
Ntp879
Rp880
(dp881
g7
V245
p882
sg9
VSuicune
p883
sg11
VHG,SS,
p884
sg13
VSpecial
p885
sg15
V40
p886
sg17
g886
sg18
V0
p887
sbag1
(g2
g3
Ntp888
Rp889
(dp890
g7
V264
p891
sg9
VLinoone
p892
sg11
VHG,SS,
p893
sg13
VHoenn
p894
sg15
g16
sg17
g16
sg18
V20
p895
sbag1
(g2
g3
Ntp896
Rp897
(dp898
g7
V293
p899
sg9
VWhismur
p900
sg11
VHG,SS,
p901
sg13
VHoenn
p902
sg15
g16
sg17
V10
p903
sg18
V20
p904
sbag1
(g2
g3
Ntp905
Rp906
(dp907
g7
V399
p908
sg9
VBidoof
p909
sg11
VHG,SS,
p910
sg13
VSinnoh
p911
sg15
g16
sg17
g16
sg18
V20
p912
sbag1
(g2
g3
Ntp913
Rp914
(dp915
g7
V418
p916
sg9
VBuizel
p917
sg11
VHG,SS,
p918
sg13
VSinnoh
p919
sg15
g16
sg17
V10
p920
sg18
V20
p921
sbag1
(g2
g3
Ntp922
Rp923
(dp924
g7
V016
p925
sg9
VPidgey
p926
sg11
VPi,
p927
sg13
VGrass
p928
sg15
g42
sg17
V14
p929
sg18
V30
p930
sbag1
(g2
g3
Ntp931
Rp932
(dp933
g7
V016
p934
sg9
VPidgey
p935
sg11
VEv,
p936
sg13
VGrass
p937
sg15
g42
sg17
V14
p938
sg18
V20
p939
sbag1
(g2
g3
Ntp940
Rp941
(dp942
g7
V043
p943
sg9
VOddish
p944
sg11
g927
sg13
VGrass
p945
sg15
g42
sg17
V14
p946
sg18
V20
p947
sbag1
(g2
g3
Ntp948
Rp949
(dp950
g7
V048
p951
sg9
VVenonat
p952
sg11
g927
sg13
VGrass
p953
sg15
g42
sg17
V14
p954
sg18
V30
p955
sbag1
(g2
g3
Ntp956
Rp957
(dp958
g7
V048
p959
sg9
VVenonat
p960
sg11
g936
sg13
VGrass
p961
sg15
g42
sg17
V14
p962
sg18
V20
p963
sbag1
(g2
g3
Ntp964
Rp965
(dp966
g7
V052
p967
sg9
VMeowth
p968
sg11
g936
sg13
VGrass
p969
sg15
g42
sg17
V14
p970
sg18
V20
p971
sbag1
(g2
g3
Ntp972
Rp973
(dp974
g7
V054
p975
sg9
VPsyduck
p976
sg11
VPi,Ev,
p977
sg13
VGrass
p978
sg15
g42
sg17
V14
p979
sg18
V20
p980
sbag1
(g2
g3
Ntp981
Rp982
(dp983
g7
V069
p984
sg9
VBellsprout
p985
sg11
g936
sg13
VGrass
p986
sg15
g42
sg17
V14
p987
sg18
V20
p988
sbag1
(g2
g3
Ntp989
Rp990
(dp991
g7
V007
p992
sg9
VSquirtle
p993
sg11
VPi,Ev,
p994
sg13
VGrass
p995
sg15
g42
sg17
V14
p996
sg18
V0
p997
sbag1
(g2
g3
Ntp998
Rp999
(dp1000
g7
V060
p1001
sg9
VPoliwag
p1002
sg11
VPi,Ev,
p1003
sg13
VSurf
p1004
sg15
g42
sg17
V14
p1005
sg18
V45
p1006
sbag1
(g2
g3
Ntp1007
Rp1008
(dp1009
g7
V061
p1010
sg9
VPoliwhirl
p1011
sg11
VPi,Ev,
p1012
sg13
VSurf
p1013
sg15
g42
sg17
V14
p1014
sg18
V10
p1015
sbag1
(g2
g3
Ntp1016
Rp1017
(dp1018
g7
V129
p1019
sg9
VMagikarp
p1020
sg11
VPi,Ev,
p1021
sg13
VSurf
p1022
sg15
g42
sg17
V14
p1023
sg18
V45
p1024
sbag1
(g2
g3
Ntp1025
Rp1026
(dp1027
g7
V016
p1028
sg9
VPidgey
p1029
sg11
VPi,Ev,
p1030
sg13
VSky
p1031
sg15
V3
p1032
sg17
V56
p1033
sg18
V60
p1034
sbag1
(g2
g3
Ntp1035
Rp1036
(dp1037
g7
V017
p1038
sg9
VPidgeotto
p1039
sg11
VPi,Ev,
p1040
sg13
VSky
p1041
sg15
g1032
sg17
V56
p1042
sg18
V35
p1043
sbag1
(g2
g3
Ntp1044
Rp1045
(dp1046
g7
V018
p1047
sg9
VPidgeot
p1048
sg11
VPi,Ev,
p1049
sg13
VSky
p1050
sg15
g1032
sg17
V56
p1051
sg18
V5
p1052
sbag1
(g2
g3
Ntp1053
Rp1054
(dp1055
g7
V006
p1056
sg9
VCharizard
p1057
sg11
VPi,Ev,
p1058
sg13
VSky
p1059
sg15
g1032
sg17
V56
p1060
sg18
V0
p1061
sbag1
(g2
g3
Ntp1062
Rp1063
(dp1064
g7
V144
p1065
sg9
VArticuno
p1066
sg11
VPi,Ev,
p1067
sg13
VSky
p1068
sg15
g1032
sg17
V56
p1069
sg18
V0
p1070
sbag1
(g2
g3
Ntp1071
Rp1072
(dp1073
g7
V145
p1074
sg9
VZapdos
p1075
sg11
VPi,Ev,
p1076
sg13
VSky
p1077
sg15
g1032
sg17
V56
p1078
sg18
V0
p1079
sbag1
(g2
g3
Ntp1080
Rp1081
(dp1082
g7
V146
p1083
sg9
VMoltres
p1084
sg11
VPi,Ev,
p1085
sg13
VSky
p1086
sg15
g1032
sg17
V56
p1087
sg18
V0
p1088
sbag1
(g2
g3
Ntp1089
Rp1090
(dp1091
g7
V149
p1092
sg9
VDragonite
p1093
sg11
VPi,Ev,
p1094
sg13
VSky
p1095
sg15
g1032
sg17
V56
p1096
sg18
V0
p1097
sba.