(lp0
ccopy_reg
_reconstructor
p1
(c__main__
WildPokemon
p2
c__builtin__
object
p3
Ntp4
Rp5
(dp6
VpDexNo
p7
V077
p8
sVpSpecies
p9
VPonyta
p10
sVpGames
p11
VG,S,
p12
sVpArea
p13
VGrass
p14
sVpMinLevel
p15
V40
p16
sVpMaxLevel
p17
g16
sVpRate
p18
V30
p19
sbag1
(g2
g3
Ntp20
Rp21
(dp22
g7
V077
p23
sg9
VPonyta
p24
sg11
VC,
p25
sg13
VGrass
p26
sg15
V40
p27
sg17
g27
sg18
V30
p28
sbag1
(g2
g3
Ntp29
Rp30
(dp31
g7
V114
p32
sg9
VTangela
p33
sg11
VG,S,C,
p34
sg13
VGrass
p35
sg15
V39
p36
sg17
g36
sg18
V30
p37
sbag1
(g2
g3
Ntp38
Rp39
(dp40
g7
V217
p41
sg9
VUrsaring
p42
sg11
VG,
p43
sg13
VGrass
p44
sg15
V40
p45
sg17
g45
sg18
V20
p46
sbag1
(g2
g3
Ntp47
Rp48
(dp49
g7
V232
p50
sg9
VDonphan
p51
sg11
VS,
p52
sg13
VGrass
p53
sg15
V40
p54
sg17
g54
sg18
V20
p55
sbag1
(g2
g3
Ntp56
Rp57
(dp58
g7
V078
p59
sg9
VRapidash
p60
sg11
VG,S,
p61
sg13
VGrass
p62
sg15
V42
p63
sg17
g63
sg18
V10
p64
sbag1
(g2
g3
Ntp65
Rp66
(dp67
g7
V078
p68
sg9
VRapidash
p69
sg11
g25
sg13
VGrass
p70
sg15
V40
p71
sg17
g71
sg18
V20
p72
sbag1
(g2
g3
Ntp73
Rp74
(dp75
g7
V024
p76
sg9
VArbok
p77
sg11
g25
sg13
VGrass
p78
sg15
V42
p79
sg17
g79
sg18
V10
p80
sbag1
(g2
g3
Ntp81
Rp82
(dp83
g7
V084
p84
sg9
VDoduo
p85
sg11
VG,S,C,
p86
sg13
VGrass
p87
sg15
V41
p88
sg17
g88
sg18
V5
p89
sbag1
(g2
g3
Ntp90
Rp91
(dp92
g7
V085
p93
sg9
VDodrio
p94
sg11
VG,S,C,
p95
sg13
VGrass
p96
sg15
V43
p97
sg17
g97
sg18
V5
p98
sbag1
(g2
g3
Ntp99
Rp100
(dp101
g7
V215
p102
sg9
VSneasel
p103
sg11
VG,S,
p104
sg13
VGrass
p105
sg15
V40
p106
sg17
g106
sg18
V10
p107
sbag1
(g2
g3
Ntp108
Rp109
(dp110
g7
V061
p111
sg9
VPoliwhirl
p112
sg11
g25
sg13
VGrass
p113
sg15
V40
p114
sg17
g114
sg18
V40
p115
sbag1
(g2
g3
Ntp116
Rp117
(dp118
g7
V042
p119
sg9
VGolbat
p120
sg11
g25
sg13
VGrass
p121
sg15
V40
p122
sg17
V42
p123
sg18
V30
p124
sbag1
(g2
g3
Ntp125
Rp126
(dp127
g7
V060
p128
sg9
VPoliwag
p129
sg11
VG,S,C,
p130
sg13
VSurf
p131
sg15
V35
p132
sg17
V44
p133
sg18
V90
p134
sbag1
(g2
g3
Ntp135
Rp136
(dp137
g7
V061
p138
sg9
VPoliwhirl
p139
sg11
VG,S,C,
p140
sg13
VSurf
p141
sg15
V40
p142
sg17
V44
p143
sg18
V10
p144
sbag1
(g2
g3
Ntp145
Rp146
(dp147
g7
V129
p148
sg9
VMagikarp
p149
sg11
VG,S,C,
p150
sg13
VFish Old
p151
sg15
V10
p152
sg17
g152
sg18
V85
p153
sbag1
(g2
g3
Ntp154
Rp155
(dp156
g7
V060
p157
sg9
VPoliwag
p158
sg11
VG,S,C,
p159
sg13
VFish Old
p160
sg15
V10
p161
sg17
g161
sg18
V15
p162
sbag1
(g2
g3
Ntp163
Rp164
(dp165
g7
V060
p166
sg9
VPoliwag
p167
sg11
VG,S,C,
p168
sg13
VFish Good
p169
sg15
V20
p170
sg17
g170
sg18
V65
p171
sbag1
(g2
g3
Ntp172
Rp173
(dp174
g7
V129
p175
sg9
VMagikarp
p176
sg11
VG,S,C,
p177
sg13
VFish Good
p178
sg15
V20
p179
sg17
g179
sg18
V35
p180
sbag1
(g2
g3
Ntp181
Rp182
(dp183
g7
V060
p184
sg9
VPoliwag
p185
sg11
VG,S,C,
p186
sg13
VFish Super
p187
sg15
V40
p188
sg17
g188
sg18
V80
p189
sbag1
(g2
g3
Ntp190
Rp191
(dp192
g7
V129
p193
sg9
VMagikarp
p194
sg11
VG,S,C,
p195
sg13
VFish Super
p196
sg15
V40
p197
sg17
g197
sg18
V20
p198
sbag1
(g2
g3
Ntp199
Rp200
(dp201
g7
V077
p202
sg9
VPonyta
p203
sg11
VHG,SS,
p204
sg13
VGrass
p205
sg15
V40
p206
sg17
g206
sg18
V30
p207
sbag1
(g2
g3
Ntp208
Rp209
(dp210
g7
V114
p211
sg9
VTangela
p212
sg11
VHG,SS,
p213
sg13
VGrass
p214
sg15
V39
p215
sg17
g215
sg18
V30
p216
sbag1
(g2
g3
Ntp217
Rp218
(dp219
g7
V232
p220
sg9
VDonphan
p221
sg11
VHG,
p222
sg13
VGrass
p223
sg15
V40
p224
sg17
g224
sg18
V20
p225
sbag1
(g2
g3
Ntp226
Rp227
(dp228
g7
V217
p229
sg9
VUrsaring
p230
sg11
VSS,
p231
sg13
VGrass
p232
sg15
V40
p233
sg17
g233
sg18
V20
p234
sbag1
(g2
g3
Ntp235
Rp236
(dp237
g7
V078
p238
sg9
VRapidash
p239
sg11
VHG,SS,
p240
sg13
VGrass
p241
sg15
V42
p242
sg17
g242
sg18
V10
p243
sbag1
(g2
g3
Ntp244
Rp245
(dp246
g7
V078
p247
sg9
VRapidash
p248
sg11
VHG,SS,
p249
sg13
VGrass
p250
sg15
V41
p251
sg17
V43
p252
sg18
V10
p253
sbag1
(g2
g3
Ntp254
Rp255
(dp256
g7
V084
p257
sg9
VDoduo
p258
sg11
VHG,SS,
p259
sg13
VGrass
p260
sg15
V41
p261
sg17
g261
sg18
V5
p262
sbag1
(g2
g3
Ntp263
Rp264
(dp265
g7
V085
p266
sg9
VDodrio
p267
sg11
VHG,SS,
p268
sg13
VGrass
p269
sg15
V43
p270
sg17
g270
sg18
V5
p271
sbag1
(g2
g3
Ntp272
Rp273
(dp274
g7
V215
p275
sg9
VSneasel
p276
sg11
VHG,SS,
p277
sg13
VGrass
p278
sg15
V42
p279
sg17
g279
sg18
V10
p280
sbag1
(g2
g3
Ntp281
Rp282
(dp283
g7
V060
p284
sg9
VPoliwag
p285
sg11
VHG,SS,
p286
sg13
VSurf
p287
sg15
V35
p288
sg17
V40
p289
sg18
V90
p290
sbag1
(g2
g3
Ntp291
Rp292
(dp293
g7
V061
p294
sg9
VPoliwhirl
p295
sg11
VHG,SS,
p296
sg13
VSurf
p297
sg15
V40
p298
sg17
g298
sg18
V10
p299
sbag1
(g2
g3
Ntp300
Rp301
(dp302
g7
V129
p303
sg9
VMagikarp
p304
sg11
VHG,SS,
p305
sg13
VFish Old
p306
sg15
V10
p307
sg17
g307
sg18
V95
p308
sbag1
(g2
g3
Ntp309
Rp310
(dp311
g7
V060
p312
sg9
VPoliwag
p313
sg11
VHG,SS,
p314
sg13
VFish Old
p315
sg15
V10
p316
sg17
g316
sg18
V5
p317
sbag1
(g2
g3
Ntp318
Rp319
(dp320
g7
V129
p321
sg9
VMagikarp
p322
sg11
VHG,SS,
p323
sg13
VFish Good
p324
sg15
V20
p325
sg17
g325
sg18
V60
p326
sbag1
(g2
g3
Ntp327
Rp328
(dp329
g7
V060
p330
sg9
VPoliwag
p331
sg11
VHG,SS,
p332
sg13
VFish Good
p333
sg15
V20
p334
sg17
g334
sg18
V40
p335
sbag1
(g2
g3
Ntp336
Rp337
(dp338
g7
V060
p339
sg9
VPoliwag
p340
sg11
VHG,SS,
p341
sg13
VFish Super
p342
sg15
V40
p343
sg17
g343
sg18
V93
p344
sbag1
(g2
g3
Ntp345
Rp346
(dp347
g7
V129
p348
sg9
VMagikarp
p349
sg11
VHG,SS,
p350
sg13
VFish Super
p351
sg15
V40
p352
sg17
g352
sg18
V7
p353
sbag1
(g2
g3
Ntp354
Rp355
(dp356
g7
V177
p357
sg9
VNatu
p358
sg11
VHG,SS,
p359
sg13
VHeadbutt
p360
sg15
V39
p361
sg17
V43
p362
sg18
V20
p363
sbag1
(g2
g3
Ntp364
Rp365
(dp366
g7
V190
p367
sg9
VAipom
p368
sg11
VHG,SS,
p369
sg13
VHeadbutt
p370
sg15
V39
p371
sg17
V43
p372
sg18
V30
p373
sbag1
(g2
g3
Ntp374
Rp375
(dp376
g7
V214
p377
sg9
VHeracross
p378
sg11
VHG,SS,
p379
sg13
VHeadbutt
p380
sg15
V39
p381
sg17
V43
p382
sg18
V50
p383
sbag1
(g2
g3
Ntp384
Rp385
(dp386
g7
V264
p387
sg9
VLinoone
p388
sg11
VHG,SS,
p389
sg13
VHoenn
p390
sg15
V40
p391
sg17
g391
sg18
V20
p392
sbag1
(g2
g3
Ntp393
Rp394
(dp395
g7
V293
p396
sg9
VWhismur
p397
sg11
VHG,SS,
p398
sg13
VHoenn
p399
sg15
V39
p400
sg17
V40
p401
sg18
V20
p402
sbag1
(g2
g3
Ntp403
Rp404
(dp405
g7
V399
p406
sg9
VBidoof
p407
sg11
VHG,SS,
p408
sg13
VSinnoh
p409
sg15
V40
p410
sg17
g410
sg18
V20
p411
sbag1
(g2
g3
Ntp412
Rp413
(dp414
g7
V418
p415
sg9
VBuizel
p416
sg11
VHG,SS,
p417
sg13
VSinnoh
p418
sg15
V39
p419
sg17
V40
p420
sg18
V20
p421
sba.