(lp0
ccopy_reg
_reconstructor
p1
(c__main__
WildPokemon
p2
c__builtin__
object
p3
Ntp4
Rp5
(dp6
VpDexNo
p7
V016
p8
sVpSpecies
p9
VPidgey
p10
sVpGames
p11
VR,B,
p12
sVpArea
p13
VGrass
p14
sVpMinLevel
p15
V18
p16
sVpMaxLevel
p17
V20
p18
sVpRate
p19
V35
p20
sbag1
(g2
g3
Ntp21
Rp22
(dp23
g7
V016
p24
sg9
VPidgey
p25
sg11
VY,
p26
sg13
VGrass
p27
sg15
V20
p28
sg17
V22
p29
sg19
V40
p30
sbag1
(g2
g3
Ntp31
Rp32
(dp33
g7
V017
p34
sg9
VPidgeotto
p35
sg11
g26
sg13
VGrass
p36
sg15
V24
p37
sg17
g37
sg19
V10
p38
sbag1
(g2
g3
Ntp39
Rp40
(dp41
g7
V019
p42
sg9
VRattata
p43
sg11
g26
sg13
VGrass
p44
sg15
V20
p45
sg17
g45
sg19
V15
p46
sbag1
(g2
g3
Ntp47
Rp48
(dp49
g7
V023
p50
sg9
VEkans
p51
sg11
VR,
p52
sg13
VGrass
p53
sg15
V17
p54
sg17
V19
p55
sg19
V20
p56
sbag1
(g2
g3
Ntp57
Rp58
(dp59
g7
V027
p60
sg9
VSandshrew
p61
sg11
VB,
p62
sg13
VGrass
p63
sg15
V17
p64
sg17
V19
p65
sg19
V20
p66
sbag1
(g2
g3
Ntp67
Rp68
(dp69
g7
V037
p70
sg9
VVulpix
p71
sg11
g62
sg13
VGrass
p72
sg15
V15
p73
sg17
V18
p74
sg19
V20
p75
sbag1
(g2
g3
Ntp76
Rp77
(dp78
g7
V039
p79
sg9
VJigglypuff
p80
sg11
g26
sg13
VGrass
p81
sg15
V19
p82
sg17
V24
p83
sg19
V10
p84
sbag1
(g2
g3
Ntp85
Rp86
(dp87
g7
V052
p88
sg9
VMeowth
p89
sg11
g62
sg13
VGrass
p90
sg15
V18
p91
sg17
V20
p92
sg19
V25
p93
sbag1
(g2
g3
Ntp94
Rp95
(dp96
g7
V056
p97
sg9
VMankey
p98
sg11
g52
sg13
VGrass
p99
sg15
V18
p100
sg17
V20
p101
sg19
V25
p102
sbag1
(g2
g3
Ntp103
Rp104
(dp105
g7
V058
p106
sg9
VGrowlithe
p107
sg11
g52
sg13
VGrass
p108
sg15
V15
p109
sg17
V18
p110
sg19
V20
p111
sbag1
(g2
g3
Ntp112
Rp113
(dp114
g7
V063
p115
sg9
VAbra
p116
sg11
g26
sg13
VGrass
p117
sg15
V15
p118
sg17
V19
p119
sg19
V20
p120
sbag1
(g2
g3
Ntp121
Rp122
(dp123
g7
V064
p124
sg9
VKadabra
p125
sg11
g26
sg13
VGrass
p126
sg15
V20
p127
sg17
V27
p128
sg19
V5
p129
sbag1
(g2
g3
Ntp130
Rp131
(dp132
g7
V052
p133
sg9
VMeowth
p134
sg11
VS,
p135
sg13
VGrass
p136
sg15
V17
p137
sg17
g137
sg19
V30
p138
sbag1
(g2
g3
Ntp139
Rp140
(dp141
g7
V052
p142
sg9
VMeowth
p143
sg11
VC,
p144
sg13
VGrass
p145
sg15
V17
p146
sg17
g146
sg19
V30
p147
sbag1
(g2
g3
Ntp148
Rp149
(dp150
g7
V063
p151
sg9
VAbra
p152
sg11
VG,S,
p153
sg13
VGrass
p154
sg15
V15
p155
sg17
g155
sg19
V20
p156
sbag1
(g2
g3
Ntp157
Rp158
(dp159
g7
V063
p160
sg9
VAbra
p161
sg11
g144
sg13
VGrass
p162
sg15
V16
p163
sg17
g163
sg19
V20
p164
sbag1
(g2
g3
Ntp165
Rp166
(dp167
g7
V064
p168
sg9
VKadabra
p169
sg11
VG,S,
p170
sg13
VGrass
p171
sg15
V15
p172
sg17
g172
sg19
V5
p173
sbag1
(g2
g3
Ntp174
Rp175
(dp176
g7
V064
p177
sg9
VKadabra
p178
sg11
g144
sg13
VGrass
p179
sg15
V18
p180
sg17
g180
sg19
V5
p181
sbag1
(g2
g3
Ntp182
Rp183
(dp184
g7
V039
p185
sg9
VJigglypuff
p186
sg11
g144
sg13
VGrass
p187
sg15
V16
p188
sg17
g188
sg19
V5
p189
sbag1
(g2
g3
Ntp190
Rp191
(dp192
g7
V017
p193
sg9
VPidgeotto
p194
sg11
VG,
p195
sg13
VGrass
p196
sg15
V17
p197
sg17
V19
p198
sg19
V65
p199
sbag1
(g2
g3
Ntp200
Rp201
(dp202
g7
V017
p203
sg9
VPidgeotto
p204
sg11
g135
sg13
VGrass
p205
sg15
V17
p206
sg17
V19
p207
sg19
V35
p208
sbag1
(g2
g3
Ntp209
Rp210
(dp211
g7
V017
p212
sg9
VPidgeotto
p213
sg11
g144
sg13
VGrass
p214
sg15
V19
p215
sg17
g215
sg19
V30
p216
sbag1
(g2
g3
Ntp217
Rp218
(dp219
g7
V209
p220
sg9
VSnubbull
p221
sg11
g144
sg13
VGrass
p222
sg15
V17
p223
sg17
g223
sg19
V30
p224
sbag1
(g2
g3
Ntp225
Rp226
(dp227
g7
V058
p228
sg9
VGrowlithe
p229
sg11
g195
sg13
VGrass
p230
sg15
V18
p231
sg17
g231
sg19
V10
p232
sbag1
(g2
g3
Ntp233
Rp234
(dp235
g7
V058
p236
sg9
VGrowlithe
p237
sg11
g144
sg13
VGrass
p238
sg15
V17
p239
sg17
g239
sg19
V10
p240
sbag1
(g2
g3
Ntp241
Rp242
(dp243
g7
V037
p244
sg9
VVulpix
p245
sg11
g135
sg13
VGrass
p246
sg15
V18
p247
sg17
g247
sg19
V10
p248
sbag1
(g2
g3
Ntp249
Rp250
(dp251
g7
V164
p252
sg9
VNoctowl
p253
sg11
g195
sg13
VGrass
p254
sg15
V17
p255
sg17
V19
p256
sg19
V40
p257
sbag1
(g2
g3
Ntp258
Rp259
(dp260
g7
V164
p261
sg9
VNoctowl
p262
sg11
g135
sg13
VGrass
p263
sg15
V19
p264
sg17
g264
sg19
V10
p265
sbag1
(g2
g3
Ntp266
Rp267
(dp268
g7
V164
p269
sg9
VNoctowl
p270
sg11
g144
sg13
VGrass
p271
sg15
V20
p272
sg17
g272
sg19
V30
p273
sbag1
(g2
g3
Ntp274
Rp275
(dp276
g7
V093
p277
sg9
VHaunter
p278
sg11
VG,S,
p279
sg13
VGrass
p280
sg15
V20
p281
sg17
g281
sg19
V30
p282
sbag1
(g2
g3
Ntp283
Rp284
(dp285
g7
V093
p286
sg9
VHaunter
p287
sg11
g144
sg13
VGrass
p288
sg15
V16
p289
sg17
V17
p290
sg19
V10
p291
sbag1
(g2
g3
Ntp292
Rp293
(dp294
g7
V016
p295
sg9
VPidgey
p296
sg11
VFR,LG,
p297
sg13
VGrass
p298
sg15
V18
p299
sg17
V20
p300
sg19
V30
p301
sbag1
(g2
g3
Ntp302
Rp303
(dp304
g7
V052
p305
sg9
VMeowth
p306
sg11
VFR,LG,
p307
sg13
VGrass
p308
sg15
V18
p309
sg17
V20
p310
sg19
V30
p311
sbag1
(g2
g3
Ntp312
Rp313
(dp314
g7
V023
p315
sg9
VEkans
p316
sg11
VFR,
p317
sg13
VGrass
p318
sg15
V17
p319
sg17
V19
p320
sg19
V20
p321
sbag1
(g2
g3
Ntp322
Rp323
(dp324
g7
V058
p325
sg9
VGrowlithe
p326
sg11
g317
sg13
VGrass
p327
sg15
V15
p328
sg17
V18
p329
sg19
V20
p330
sbag1
(g2
g3
Ntp331
Rp332
(dp333
g7
V027
p334
sg9
VSandshrew
p335
sg11
VLG,
p336
sg13
VGrass
p337
sg15
V17
p338
sg17
V19
p339
sg19
V20
p340
sbag1
(g2
g3
Ntp341
Rp342
(dp343
g7
V037
p344
sg9
VVulpix
p345
sg11
g336
sg13
VGrass
p346
sg15
V15
p347
sg17
V18
p348
sg19
V20
p349
sbag1
(g2
g3
Ntp350
Rp351
(dp352
g7
V052
p353
sg9
VMeowth
p354
sg11
VSS,
p355
sg13
VGrass
p356
sg15
V17
p357
sg17
g357
sg19
V30
p358
sbag1
(g2
g3
Ntp359
Rp360
(dp361
g7
V063
p362
sg9
VAbra
p363
sg11
VHG,SS,
p364
sg13
VGrass
p365
sg15
V15
p366
sg17
g366
sg19
V20
p367
sbag1
(g2
g3
Ntp368
Rp369
(dp370
g7
V064
p371
sg9
VKadabra
p372
sg11
VHG,SS,
p373
sg13
VGrass
p374
sg15
V15
p375
sg17
g375
sg19
V5
p376
sbag1
(g2
g3
Ntp377
Rp378
(dp379
g7
V017
p380
sg9
VPidgeotto
p381
sg11
VHG,
p382
sg13
VGrass
p383
sg15
V17
p384
sg17
V19
p385
sg19
V65
p386
sbag1
(g2
g3
Ntp387
Rp388
(dp389
g7
V017
p390
sg9
VPidgeotto
p391
sg11
g355
sg13
VGrass
p392
sg15
V17
p393
sg17
V19
p394
sg19
V35
p395
sbag1
(g2
g3
Ntp396
Rp397
(dp398
g7
V058
p399
sg9
VGrowlithe
p400
sg11
g382
sg13
VGrass
p401
sg15
V18
p402
sg17
g402
sg19
V10
p403
sbag1
(g2
g3
Ntp404
Rp405
(dp406
g7
V058
p407
sg9
VGrowlithe
p408
sg11
g382
sg13
VGrass
p409
sg15
V17
p410
sg17
g410
sg19
V5
p411
sbag1
(g2
g3
Ntp412
Rp413
(dp414
g7
V037
p415
sg9
VVulpix
p416
sg11
g355
sg13
VGrass
p417
sg15
V18
p418
sg17
g418
sg19
V10
p419
sbag1
(g2
g3
Ntp420
Rp421
(dp422
g7
V037
p423
sg9
VVulpix
p424
sg11
g355
sg13
VGrass
p425
sg15
V17
p426
sg17
g426
sg19
V5
p427
sbag1
(g2
g3
Ntp428
Rp429
(dp430
g7
V164
p431
sg9
VNoctowl
p432
sg11
g382
sg13
VGrass
p433
sg15
V17
p434
sg17
V18
p435
sg19
V40
p436
sbag1
(g2
g3
Ntp437
Rp438
(dp439
g7
V164
p440
sg9
VNoctowl
p441
sg11
g355
sg13
VGrass
p442
sg15
V18
p443
sg17
g443
sg19
V10
p444
sbag1
(g2
g3
Ntp445
Rp446
(dp447
g7
V093
p448
sg9
VHaunter
p449
sg11
VHG,SS,
p450
sg13
VGrass
p451
sg15
V19
p452
sg17
g452
sg19
V30
p453
sbag1
(g2
g3
Ntp454
Rp455
(dp456
g7
V163
p457
sg9
VHoothoot
p458
sg11
VHG,SS,
p459
sg13
VHeadbutt
p460
sg15
V16
p461
sg17
V19
p462
sg19
V35
p463
sbag1
(g2
g3
Ntp464
Rp465
(dp466
g7
V204
p467
sg9
VPineco
p468
sg11
VHG,SS,
p469
sg13
VHeadbutt
p470
sg15
V16
p471
sg17
V17
p472
sg19
V25
p473
sbag1
(g2
g3
Ntp474
Rp475
(dp476
g7
V415
p477
sg9
VCombee
p478
sg11
VHG,SS,
p479
sg13
VHeadbutt
p480
sg15
V16
p481
sg17
V19
p482
sg19
V40
p483
sbag1
(g2
g3
Ntp484
Rp485
(dp486
g7
V311
p487
sg9
VPlusle
p488
sg11
VHG,SS,
p489
sg13
VHoenn
p490
sg15
V17
p491
sg17
V19
p492
sg19
V20
p493
sbag1
(g2
g3
Ntp494
Rp495
(dp496
g7
V312
p497
sg9
VMinun
p498
sg11
VHG,SS,
p499
sg13
VHoenn
p500
sg15
V15
p501
sg17
g501
sg19
V20
p502
sbag1
(g2
g3
Ntp503
Rp504
(dp505
g7
V403
p506
sg9
VShinx
p507
sg11
VHG,SS,
p508
sg13
VSinnoh
p509
sg15
V15
p510
sg17
V19
p511
sg19
V40
p512
sbag1
(g2
g3
Ntp513
Rp514
(dp515
g7
V016
p516
sg9
VPidgey
p517
sg11
VPi,Ev,
p518
sg13
VGrass
p519
sg15
V22
p520
sg17
V27
p521
sg19
V15
p522
sbag1
(g2
g3
Ntp523
Rp524
(dp525
g7
V017
p526
sg9
VPidgeotto
p527
sg11
VPi,Ev,
p528
sg13
VGrass
p529
sg15
V22
p530
sg17
V27
p531
sg19
V15
p532
sbag1
(g2
g3
Ntp533
Rp534
(dp535
g7
V019
p536
sg9
VRattata
p537
sg11
VPi,Ev,
p538
sg13
VGrass
p539
sg15
V22
p540
sg17
V27
p541
sg19
V15
p542
sbag1
(g2
g3
Ntp543
Rp544
(dp545
g7
V020
p546
sg9
VRaticate
p547
sg11
VPi,Ev,
p548
sg13
VGrass
p549
sg15
V22
p550
sg17
V27
p551
sg19
V15
p552
sbag1
(g2
g3
Ntp553
Rp554
(dp555
g7
V037
p556
sg9
VVulpix
p557
sg11
VEv,
p558
sg13
VGrass
p559
sg15
V22
p560
sg17
V27
p561
sg19
V19
p562
sbag1
(g2
g3
Ntp563
Rp564
(dp565
g7
V038
p566
sg9
VNinetales
p567
sg11
g558
sg13
VGrass
p568
sg15
V22
p569
sg17
V27
p570
sg19
V1
p571
sbag1
(g2
g3
Ntp572
Rp573
(dp574
g7
V039
p575
sg9
VJigglypuff
p576
sg11
VPi,Ev,
p577
sg13
VGrass
p578
sg15
V22
p579
sg17
V27
p580
sg19
V15
p581
sbag1
(g2
g3
Ntp582
Rp583
(dp584
g7
V058
p585
sg9
VGrowlithe
p586
sg11
VPi,
p587
sg13
VGrass
p588
sg15
V22
p589
sg17
V27
p590
sg19
V19
p591
sbag1
(g2
g3
Ntp592
Rp593
(dp594
g7
V059
p595
sg9
VArcanine
p596
sg11
g587
sg13
VGrass
p597
sg15
V22
p598
sg17
V27
p599
sg19
V1
p600
sbag1
(g2
g3
Ntp601
Rp602
(dp603
g7
V063
p604
sg9
VAbra
p605
sg11
VPi,Ev,
p606
sg13
VGrass
p607
sg15
V22
p608
sg17
V27
p609
sg19
V4
p610
sbag1
(g2
g3
Ntp611
Rp612
(dp613
g7
V064
p614
sg9
VKadabra
p615
sg11
VPi,Ev,
p616
sg13
VGrass
p617
sg15
V22
p618
sg17
V27
p619
sg19
V1
p620
sbag1
(g2
g3
Ntp621
Rp622
(dp623
g7
V113
p624
sg9
VChansey
p625
sg11
VPi,Ev,
p626
sg13
VGrass
p627
sg15
V22
p628
sg17
V27
p629
sg19
V0
p630
sbag1
(g2
g3
Ntp631
Rp632
(dp633
g7
V016
p634
sg9
VPidgey
p635
sg11
VPi,Ev,
p636
sg13
VSky
p637
sg15
V3
p638
sg17
V56
p639
sg19
V60
p640
sbag1
(g2
g3
Ntp641
Rp642
(dp643
g7
V017
p644
sg9
VPidgeotto
p645
sg11
VPi,Ev,
p646
sg13
VSky
p647
sg15
g638
sg17
V56
p648
sg19
V35
p649
sbag1
(g2
g3
Ntp650
Rp651
(dp652
g7
V018
p653
sg9
VPidgeot
p654
sg11
VPi,Ev,
p655
sg13
VSky
p656
sg15
g638
sg17
V56
p657
sg19
V5
p658
sbag1
(g2
g3
Ntp659
Rp660
(dp661
g7
V006
p662
sg9
VCharizard
p663
sg11
VPi,Ev,
p664
sg13
VSky
p665
sg15
g638
sg17
V56
p666
sg19
V0
p667
sbag1
(g2
g3
Ntp668
Rp669
(dp670
g7
V144
p671
sg9
VArticuno
p672
sg11
VPi,Ev,
p673
sg13
VSky
p674
sg15
g638
sg17
V56
p675
sg19
V0
p676
sbag1
(g2
g3
Ntp677
Rp678
(dp679
g7
V145
p680
sg9
VZapdos
p681
sg11
VPi,Ev,
p682
sg13
VSky
p683
sg15
g638
sg17
V56
p684
sg19
V0
p685
sbag1
(g2
g3
Ntp686
Rp687
(dp688
g7
V146
p689
sg9
VMoltres
p690
sg11
VPi,Ev,
p691
sg13
VSky
p692
sg15
g638
sg17
V56
p693
sg19
V0
p694
sbag1
(g2
g3
Ntp695
Rp696
(dp697
g7
V149
p698
sg9
VDragonite
p699
sg11
VPi,Ev,
p700
sg13
VSky
p701
sg15
g638
sg17
V56
p702
sg19
V0
p703
sba.