(lp0
ccopy_reg
_reconstructor
p1
(c__main__
WildPokemon
p2
c__builtin__
object
p3
Ntp4
Rp5
(dp6
VpDexNo
p7
V010
p8
sVpSpecies
p9
VCaterpie
p10
sVpGames
p11
VB,
p12
sVpArea
p13
VGrass
p14
sVpMinLevel
p15
V7
p16
sVpMaxLevel
p17
g16
sVpRate
p18
V20
p19
sbag1
(g2
g3
Ntp20
Rp21
(dp22
g7
V011
p23
sg9
VMetapod
p24
sg11
g12
sg13
VGrass
p25
sg15
V8
p26
sg17
g26
sg18
V20
p27
sbag1
(g2
g3
Ntp28
Rp29
(dp30
g7
V013
p31
sg9
VWeedle
p32
sg11
VR,
p33
sg13
VGrass
p34
sg15
g16
sg17
g16
sg18
V20
p35
sbag1
(g2
g3
Ntp36
Rp37
(dp38
g7
V014
p39
sg9
VKakuna
p40
sg11
g33
sg13
VGrass
p41
sg15
g26
sg17
g26
sg18
V20
p42
sbag1
(g2
g3
Ntp43
Rp44
(dp45
g7
V016
p46
sg9
VPidgey
p47
sg11
VR,B,
p48
sg13
VGrass
p49
sg15
V12
p50
sg17
V13
p51
sg18
V20
p52
sbag1
(g2
g3
Ntp53
Rp54
(dp55
g7
V016
p56
sg9
VPidgey
p57
sg11
VY,
p58
sg13
VGrass
p59
sg15
V13
p60
sg17
V17
p61
sg18
V29
p62
sbag1
(g2
g3
Ntp63
Rp64
(dp65
g7
V017
p66
sg9
VPidgeotto
p67
sg11
g58
sg13
VGrass
p68
sg15
V17
p69
sg17
g69
sg18
V1
p70
sbag1
(g2
g3
Ntp71
Rp72
(dp73
g7
V043
p74
sg9
VOddish
p75
sg11
g33
sg13
VGrass
p76
sg15
V12
p77
sg17
V14
p78
sg18
V25
p79
sbag1
(g2
g3
Ntp80
Rp81
(dp82
g7
V043
p83
sg9
VOddish
p84
sg11
g58
sg13
VGrass
p85
sg15
V12
p86
sg17
V14
p87
sg18
V35
p88
sbag1
(g2
g3
Ntp89
Rp90
(dp91
g7
V048
p92
sg9
VVenonat
p93
sg11
g58
sg13
VGrass
p94
sg15
V13
p95
sg17
V16
p96
sg18
V10
p97
sbag1
(g2
g3
Ntp98
Rp99
(dp100
g7
V063
p101
sg9
VAbra
p102
sg11
VR,B,
p103
sg13
VGrass
p104
sg15
g26
sg17
V12
p105
sg18
V15
p106
sbag1
(g2
g3
Ntp107
Rp108
(dp109
g7
V069
p110
sg9
VBellsprout
p111
sg11
g12
sg13
VGrass
p112
sg15
V12
p113
sg17
V14
p114
sg18
V25
p115
sbag1
(g2
g3
Ntp116
Rp117
(dp118
g7
V069
p119
sg9
VBellsprout
p120
sg11
g58
sg13
VGrass
p121
sg15
V12
p122
sg17
V14
p123
sg18
V25
p124
sbag1
(g2
g3
Ntp125
Rp126
(dp127
g7
V129
p128
sg9
VMagikarp
p129
sg11
VR,B,Y,
p130
sg13
VFish Old
p131
sg15
V5
p132
sg17
g132
sg18
V100
p133
sbag1
(g2
g3
Ntp134
Rp135
(dp136
g7
V060
p137
sg9
VPoliwag
p138
sg11
VR,B,Y,
p139
sg13
VFish Good
p140
sg15
V10
p141
sg17
g141
sg18
V50
p142
sbag1
(g2
g3
Ntp143
Rp144
(dp145
g7
V118
p146
sg9
VGoldeen
p147
sg11
VR,B,Y,
p148
sg13
VFish Good
p149
sg15
V10
p150
sg17
g150
sg18
V50
p151
sbag1
(g2
g3
Ntp152
Rp153
(dp154
g7
V054
p155
sg9
VPsyduck
p156
sg11
VR,B,
p157
sg13
VFish Super
p158
sg15
V15
p159
sg17
g159
sg18
V33
p160
sbag1
(g2
g3
Ntp161
Rp162
(dp163
g7
V098
p164
sg9
VKrabby
p165
sg11
VR,B,
p166
sg13
VFish Super
p167
sg15
V15
p168
sg17
g168
sg18
V33
p169
sbag1
(g2
g3
Ntp170
Rp171
(dp172
g7
V118
p173
sg9
VGoldeen
p174
sg11
VR,B,
p175
sg13
VFish Super
p176
sg15
V15
p177
sg17
g177
sg18
V33
p178
sbag1
(g2
g3
Ntp179
Rp180
(dp181
g7
V118
p182
sg9
VGoldeen
p183
sg11
g58
sg13
VFish Super
p184
sg15
V20
p185
sg17
V30
p186
sg18
V90
p187
sbag1
(g2
g3
Ntp188
Rp189
(dp190
g7
V119
p191
sg9
VSeaking
p192
sg11
g58
sg13
VFish Super
p193
sg15
V30
p194
sg17
g194
sg18
V10
p195
sbag1
(g2
g3
Ntp196
Rp197
(dp198
g7
V004
p199
sg9
VCharmander
p200
sg11
g58
sg13
VGift
p201
sg15
V10
p202
sg17
g202
sg18
V0
p203
sbag1
(g2
g3
Ntp204
Rp205
(dp206
g7
V063
p207
sg9
VAbra
p208
sg11
VG,S,
p209
sg13
VGrass
p210
sg15
V9
p211
sg17
g211
sg18
V20
p212
sbag1
(g2
g3
Ntp213
Rp214
(dp215
g7
V063
p216
sg9
VAbra
p217
sg11
VC,
p218
sg13
VGrass
p219
sg15
V12
p220
sg17
g220
sg18
V10
p221
sbag1
(g2
g3
Ntp222
Rp223
(dp224
g7
V069
p225
sg9
VBellsprout
p226
sg11
VG,S,
p227
sg13
VGrass
p228
sg15
g26
sg17
V10
p229
sg18
V60
p230
sbag1
(g2
g3
Ntp231
Rp232
(dp233
g7
V069
p234
sg9
VBellsprout
p235
sg11
VG,S,
p236
sg13
VGrass
p237
sg15
V10
p238
sg17
g238
sg18
V5
p239
sbag1
(g2
g3
Ntp240
Rp241
(dp242
g7
V069
p243
sg9
VBellsprout
p244
sg11
g218
sg13
VGrass
p245
sg15
V10
p246
sg17
g246
sg18
V5
p247
sbag1
(g2
g3
Ntp248
Rp249
(dp250
g7
V010
p251
sg9
VCaterpie
p252
sg11
g218
sg13
VGrass
p253
sg15
g26
sg17
V10
p254
sg18
V60
p255
sbag1
(g2
g3
Ntp256
Rp257
(dp258
g7
V011
p259
sg9
VMetapod
p260
sg11
g218
sg13
VGrass
p261
sg15
V12
p262
sg17
g262
sg18
V20
p263
sbag1
(g2
g3
Ntp264
Rp265
(dp266
g7
V070
p267
sg9
VWeepinbell
p268
sg11
VG,S,
p269
sg13
VGrass
p270
sg15
V12
p271
sg17
V14
p272
sg18
V15
p273
sbag1
(g2
g3
Ntp274
Rp275
(dp276
g7
V070
p277
sg9
VWeepinbell
p278
sg11
VG,S,
p279
sg13
VGrass
p280
sg15
V13
p281
sg17
g281
sg18
V10
p282
sbag1
(g2
g3
Ntp283
Rp284
(dp285
g7
V048
p286
sg9
VVenonat
p287
sg11
VG,S,
p288
sg13
VGrass
p289
sg15
g26
sg17
g26
sg18
V30
p290
sbag1
(g2
g3
Ntp291
Rp292
(dp293
g7
V048
p294
sg9
VVenonat
p295
sg11
g218
sg13
VGrass
p296
sg15
g26
sg17
g26
sg18
V30
p297
sbag1
(g2
g3
Ntp298
Rp299
(dp300
g7
V012
p301
sg9
VButterfree
p302
sg11
g218
sg13
VGrass
p303
sg15
V14
p304
sg17
g304
sg18
V5
p305
sbag1
(g2
g3
Ntp306
Rp307
(dp308
g7
V191
p309
sg9
VSunkern
p310
sg11
VG,S,
p311
sg13
VGrass
p312
sg15
V10
p313
sg17
g313
sg18
V30
p314
sbag1
(g2
g3
Ntp315
Rp316
(dp317
g7
V191
p318
sg9
VSunkern
p319
sg11
g218
sg13
VGrass
p320
sg15
V12
p321
sg17
g321
sg18
V30
p322
sbag1
(g2
g3
Ntp323
Rp324
(dp325
g7
V043
p326
sg9
VOddish
p327
sg11
VG,S,
p328
sg13
VGrass
p329
sg15
V10
p330
sg17
g330
sg18
V30
p331
sbag1
(g2
g3
Ntp332
Rp333
(dp334
g7
V043
p335
sg9
VOddish
p336
sg11
g218
sg13
VGrass
p337
sg15
V10
p338
sg17
V12
p339
sg18
V50
p340
sbag1
(g2
g3
Ntp341
Rp342
(dp343
g7
V049
p344
sg9
VVenomoth
p345
sg11
VG,S,
p346
sg13
VGrass
p347
sg15
V10
p348
sg17
g348
sg18
V5
p349
sbag1
(g2
g3
Ntp350
Rp351
(dp352
g7
V044
p353
sg9
VGloom
p354
sg11
g218
sg13
VGrass
p355
sg15
V14
p356
sg17
g356
sg18
V5
p357
sbag1
(g2
g3
Ntp358
Rp359
(dp360
g7
V118
p361
sg9
VGoldeen
p362
sg11
VG,S,C,
p363
sg13
VSurf
p364
sg15
g132
sg17
V14
p365
sg18
V90
p366
sbag1
(g2
g3
Ntp367
Rp368
(dp369
g7
V119
p370
sg9
VSeaking
p371
sg11
VG,S,C,
p372
sg13
VSurf
p373
sg15
V10
p374
sg17
V14
p375
sg18
V10
p376
sbag1
(g2
g3
Ntp377
Rp378
(dp379
g7
V129
p380
sg9
VMagikarp
p381
sg11
VG,S,C,
p382
sg13
VFish Old
p383
sg15
V10
p384
sg17
g384
sg18
V85
p385
sbag1
(g2
g3
Ntp386
Rp387
(dp388
g7
V118
p389
sg9
VGoldeen
p390
sg11
VG,S,C,
p391
sg13
VFish Old
p392
sg15
V10
p393
sg17
g393
sg18
V15
p394
sbag1
(g2
g3
Ntp395
Rp396
(dp397
g7
V118
p398
sg9
VGoldeen
p399
sg11
VG,S,C,
p400
sg13
VFish Good
p401
sg15
V20
p402
sg17
g402
sg18
V65
p403
sbag1
(g2
g3
Ntp404
Rp405
(dp406
g7
V129
p407
sg9
VMagikarp
p408
sg11
VG,S,C,
p409
sg13
VFish Good
p410
sg15
V20
p411
sg17
g411
sg18
V35
p412
sbag1
(g2
g3
Ntp413
Rp414
(dp415
g7
V118
p416
sg9
VGoldeen
p417
sg11
VG,S,C,
p418
sg13
VFish Super
p419
sg15
V40
p420
sg17
g420
sg18
V70
p421
sbag1
(g2
g3
Ntp422
Rp423
(dp424
g7
V129
p425
sg9
VMagikarp
p426
sg11
VG,S,C,
p427
sg13
VFish Super
p428
sg15
V40
p429
sg17
g429
sg18
V20
p430
sbag1
(g2
g3
Ntp431
Rp432
(dp433
g7
V119
p434
sg9
VSeaking
p435
sg11
VG,S,C,
p436
sg13
VFish Super
p437
sg15
V40
p438
sg17
g438
sg18
V10
p439
sbag1
(g2
g3
Ntp440
Rp441
(dp442
g7
V010
p443
sg9
VCaterpie
p444
sg11
VFR,LG,
p445
sg13
VGrass
p446
sg15
g16
sg17
g16
sg18
V20
p447
sbag1
(g2
g3
Ntp448
Rp449
(dp450
g7
V011
p451
sg9
VMetapod
p452
sg11
VFR,
p453
sg13
VGrass
p454
sg15
g26
sg17
g26
sg18
V1
p455
sbag1
(g2
g3
Ntp456
Rp457
(dp458
g7
V011
p459
sg9
VMetapod
p460
sg11
VLG,
p461
sg13
VGrass
p462
sg15
g26
sg17
g26
sg18
V4
p463
sbag1
(g2
g3
Ntp464
Rp465
(dp466
g7
V013
p467
sg9
VWeedle
p468
sg11
VFR,LG,
p469
sg13
VGrass
p470
sg15
g16
sg17
g16
sg18
V20
p471
sbag1
(g2
g3
Ntp472
Rp473
(dp474
g7
V014
p475
sg9
VKakuna
p476
sg11
g453
sg13
VGrass
p477
sg15
g26
sg17
g26
sg18
V4
p478
sbag1
(g2
g3
Ntp479
Rp480
(dp481
g7
V014
p482
sg9
VKakuna
p483
sg11
g461
sg13
VGrass
p484
sg15
g26
sg17
g26
sg18
V1
p485
sbag1
(g2
g3
Ntp486
Rp487
(dp488
g7
V016
p489
sg9
VPidgey
p490
sg11
VFR,LG,
p491
sg13
VGrass
p492
sg15
V11
p493
sg17
V13
p494
sg18
V15
p495
sbag1
(g2
g3
Ntp496
Rp497
(dp498
g7
V043
p499
sg9
VOddish
p500
sg11
g453
sg13
VGrass
p501
sg15
V12
p502
sg17
V14
p503
sg18
V25
p504
sbag1
(g2
g3
Ntp505
Rp506
(dp507
g7
V063
p508
sg9
VAbra
p509
sg11
VFR,LG,
p510
sg13
VGrass
p511
sg15
g26
sg17
V12
p512
sg18
V15
p513
sbag1
(g2
g3
Ntp514
Rp515
(dp516
g7
V069
p517
sg9
VBellsprout
p518
sg11
g461
sg13
VGrass
p519
sg15
V12
p520
sg17
V14
p521
sg18
V25
p522
sbag1
(g2
g3
Ntp523
Rp524
(dp525
g7
V072
p526
sg9
VTentacool
p527
sg11
VFR,LG,
p528
sg13
VSurf
p529
sg15
g132
sg17
V40
p530
sg18
V100
p531
sbag1
(g2
g3
Ntp532
Rp533
(dp534
g7
V129
p535
sg9
VMagikarp
p536
sg11
VFR,LG,
p537
sg13
VFish Old
p538
sg15
g132
sg17
g132
sg18
V100
p539
sbag1
(g2
g3
Ntp540
Rp541
(dp542
g7
V116
p543
sg9
VHorsea
p544
sg11
g453
sg13
VFish Good
p545
sg15
g132
sg17
V15
p546
sg18
V60
p547
sbag1
(g2
g3
Ntp548
Rp549
(dp550
g7
V116
p551
sg9
VHorsea
p552
sg11
g461
sg13
VFish Good
p553
sg15
g132
sg17
V15
p554
sg18
V20
p555
sbag1
(g2
g3
Ntp556
Rp557
(dp558
g7
V098
p559
sg9
VKrabby
p560
sg11
g453
sg13
VFish Good
p561
sg15
g132
sg17
V15
p562
sg18
V20
p563
sbag1
(g2
g3
Ntp564
Rp565
(dp566
g7
V098
p567
sg9
VKrabby
p568
sg11
g461
sg13
VFish Good
p569
sg15
g132
sg17
V15
p570
sg18
V60
p571
sbag1
(g2
g3
Ntp572
Rp573
(dp574
g7
V129
p575
sg9
VMagikarp
p576
sg11
VFR,LG,
p577
sg13
VFish Good
p578
sg15
g132
sg17
V15
p579
sg18
V20
p580
sbag1
(g2
g3
Ntp581
Rp582
(dp583
g7
V116
p584
sg9
VHorsea
p585
sg11
g453
sg13
VFish Super
p586
sg15
V15
p587
sg17
V35
p588
sg18
V84
p589
sbag1
(g2
g3
Ntp590
Rp591
(dp592
g7
V098
p593
sg9
VKrabby
p594
sg11
g461
sg13
VFish Super
p595
sg15
V15
p596
sg17
V35
p597
sg18
V84
p598
sbag1
(g2
g3
Ntp599
Rp600
(dp601
g7
V130
p602
sg9
VGyarados
p603
sg11
VFR,LG,
p604
sg13
VFish Super
p605
sg15
V15
p606
sg17
V25
p607
sg18
V15
p608
sbag1
(g2
g3
Ntp609
Rp610
(dp611
g7
V054
p612
sg9
VPsyduck
p613
sg11
g453
sg13
VFish Super
p614
sg15
V25
p615
sg17
V35
p616
sg18
V1
p617
sbag1
(g2
g3
Ntp618
Rp619
(dp620
g7
V079
p621
sg9
VSlowpoke
p622
sg11
g461
sg13
VFish Super
p623
sg15
V25
p624
sg17
V35
p625
sg18
V1
p626
sbag1
(g2
g3
Ntp627
Rp628
(dp629
g7
V069
p630
sg9
VBellsprout
p631
sg11
VHG,SS,
p632
sg13
VGrass
p633
sg15
g26
sg17
V10
p634
sg18
V60
p635
sbag1
(g2
g3
Ntp636
Rp637
(dp638
g7
V069
p639
sg9
VBellsprout
p640
sg11
VHG,SS,
p641
sg13
VGrass
p642
sg15
g26
sg17
g26
sg18
V35
p643
sbag1
(g2
g3
Ntp644
Rp645
(dp646
g7
V063
p647
sg9
VAbra
p648
sg11
VHG,SS,
p649
sg13
VGrass
p650
sg15
g211
sg17
g211
sg18
V20
p651
sbag1
(g2
g3
Ntp652
Rp653
(dp654
g7
V063
p655
sg9
VAbra
p656
sg11
VHG,SS,
p657
sg13
VGrass
p658
sg15
V10
p659
sg17
g659
sg18
V20
p660
sbag1
(g2
g3
Ntp661
Rp662
(dp663
g7
V070
p664
sg9
VWeepinbell
p665
sg11
VHG,SS,
p666
sg13
VGrass
p667
sg15
V12
p668
sg17
V14
p669
sg18
V15
p670
sbag1
(g2
g3
Ntp671
Rp672
(dp673
g7
V070
p674
sg9
VWeepinbell
p675
sg11
VHG,SS,
p676
sg13
VGrass
p677
sg15
V12
p678
sg17
g678
sg18
V10
p679
sbag1
(g2
g3
Ntp680
Rp681
(dp682
g7
V048
p683
sg9
VVenonat
p684
sg11
VHG,SS,
p685
sg13
VGrass
p686
sg15
g26
sg17
g26
sg18
V30
p687
sbag1
(g2
g3
Ntp688
Rp689
(dp690
g7
V191
p691
sg9
VSunkern
p692
sg11
VHG,SS,
p693
sg13
VGrass
p694
sg15
V10
p695
sg17
g695
sg18
V30
p696
sbag1
(g2
g3
Ntp697
Rp698
(dp699
g7
V043
p700
sg9
VOddish
p701
sg11
VHG,SS,
p702
sg13
VGrass
p703
sg15
V10
p704
sg17
g704
sg18
V30
p705
sbag1
(g2
g3
Ntp706
Rp707
(dp708
g7
V049
p709
sg9
VVenomoth
p710
sg11
VHG,SS,
p711
sg13
VGrass
p712
sg15
V14
p713
sg17
g713
sg18
V5
p714
sbag1
(g2
g3
Ntp715
Rp716
(dp717
g7
V118
p718
sg9
VGoldeen
p719
sg11
VHG,SS,
p720
sg13
VSurf
p721
sg15
g132
sg17
V10
p722
sg18
V90
p723
sbag1
(g2
g3
Ntp724
Rp725
(dp726
g7
V119
p727
sg9
VSeaking
p728
sg11
VHG,SS,
p729
sg13
VSurf
p730
sg15
V10
p731
sg17
g731
sg18
V10
p732
sbag1
(g2
g3
Ntp733
Rp734
(dp735
g7
V129
p736
sg9
VMagikarp
p737
sg11
VHG,SS,
p738
sg13
VFish Old
p739
sg15
V10
p740
sg17
g740
sg18
V95
p741
sbag1
(g2
g3
Ntp742
Rp743
(dp744
g7
V118
p745
sg9
VGoldeen
p746
sg11
VHG,SS,
p747
sg13
VFish Old
p748
sg15
V10
p749
sg17
g749
sg18
V5
p750
sbag1
(g2
g3
Ntp751
Rp752
(dp753
g7
V118
p754
sg9
VGoldeen
p755
sg11
VHG,SS,
p756
sg13
VFish Good
p757
sg15
V20
p758
sg17
g758
sg18
V60
p759
sbag1
(g2
g3
Ntp760
Rp761
(dp762
g7
V129
p763
sg9
VMagikarp
p764
sg11
VHG,SS,
p765
sg13
VFish Good
p766
sg15
V20
p767
sg17
g767
sg18
V40
p768
sbag1
(g2
g3
Ntp769
Rp770
(dp771
g7
V118
p772
sg9
VGoldeen
p773
sg11
VHG,SS,
p774
sg13
VFish Super
p775
sg15
V40
p776
sg17
g776
sg18
V90
p777
sbag1
(g2
g3
Ntp778
Rp779
(dp780
g7
V129
p781
sg9
VMagikarp
p782
sg11
VHG,SS,
p783
sg13
VFish Super
p784
sg15
V40
p785
sg17
g785
sg18
V7
p786
sbag1
(g2
g3
Ntp787
Rp788
(dp789
g7
V119
p790
sg9
VSeaking
p791
sg11
VHG,SS,
p792
sg13
VFish Super
p793
sg15
V40
p794
sg17
g794
sg18
V3
p795
sbag1
(g2
g3
Ntp796
Rp797
(dp798
g7
V264
p799
sg9
VLinoone
p800
sg11
VHG,SS,
p801
sg13
VHoenn
p802
sg15
g211
sg17
g211
sg18
V20
p803
sbag1
(g2
g3
Ntp804
Rp805
(dp806
g7
V293
p807
sg9
VWhismur
p808
sg11
VHG,SS,
p809
sg13
VHoenn
p810
sg15
g26
sg17
V10
p811
sg18
V20
p812
sbag1
(g2
g3
Ntp813
Rp814
(dp815
g7
V399
p816
sg9
VBidoof
p817
sg11
VHG,SS,
p818
sg13
VSinnoh
p819
sg15
g211
sg17
g211
sg18
V20
p820
sbag1
(g2
g3
Ntp821
Rp822
(dp823
g7
V418
p824
sg9
VBuizel
p825
sg11
VHG,SS,
p826
sg13
VSinnoh
p827
sg15
g26
sg17
V10
p828
sg18
V20
p829
sbag1
(g2
g3
Ntp830
Rp831
(dp832
g7
V016
p833
sg9
VPidgey
p834
sg11
VPi,
p835
sg13
VGrass
p836
sg15
g16
sg17
V12
p837
sg18
V30
p838
sbag1
(g2
g3
Ntp839
Rp840
(dp841
g7
V016
p842
sg9
VPidgey
p843
sg11
VEv,
p844
sg13
VGrass
p845
sg15
g16
sg17
V12
p846
sg18
V20
p847
sbag1
(g2
g3
Ntp848
Rp849
(dp850
g7
V043
p851
sg9
VOddish
p852
sg11
g835
sg13
VGrass
p853
sg15
g16
sg17
V12
p854
sg18
V20
p855
sbag1
(g2
g3
Ntp856
Rp857
(dp858
g7
V048
p859
sg9
VVenonat
p860
sg11
g835
sg13
VGrass
p861
sg15
g16
sg17
V12
p862
sg18
V30
p863
sbag1
(g2
g3
Ntp864
Rp865
(dp866
g7
V048
p867
sg9
VVenonat
p868
sg11
g844
sg13
VGrass
p869
sg15
g16
sg17
V12
p870
sg18
V20
p871
sbag1
(g2
g3
Ntp872
Rp873
(dp874
g7
V052
p875
sg9
VMeowth
p876
sg11
g844
sg13
VGrass
p877
sg15
g16
sg17
V12
p878
sg18
V20
p879
sbag1
(g2
g3
Ntp880
Rp881
(dp882
g7
V054
p883
sg9
VPsyduck
p884
sg11
VPi,Ev,
p885
sg13
VGrass
p886
sg15
g16
sg17
V12
p887
sg18
V20
p888
sbag1
(g2
g3
Ntp889
Rp890
(dp891
g7
V069
p892
sg9
VBellsprout
p893
sg11
g844
sg13
VGrass
p894
sg15
g16
sg17
V12
p895
sg18
V20
p896
sbag1
(g2
g3
Ntp897
Rp898
(dp899
g7
V007
p900
sg9
VSquirtle
p901
sg11
VPi,Ev,
p902
sg13
VGrass
p903
sg15
g16
sg17
V12
p904
sg18
V0
p905
sbag1
(g2
g3
Ntp906
Rp907
(dp908
g7
V072
p909
sg9
VTentacool
p910
sg11
VPi,Ev,
p911
sg13
VSurf
p912
sg15
g16
sg17
V12
p913
sg18
V45
p914
sbag1
(g2
g3
Ntp915
Rp916
(dp917
g7
V073
p918
sg9
VTentacruel
p919
sg11
VPi,Ev,
p920
sg13
VSurf
p921
sg15
g16
sg17
V12
p922
sg18
V10
p923
sbag1
(g2
g3
Ntp924
Rp925
(dp926
g7
V129
p927
sg9
VMagikarp
p928
sg11
VPi,Ev,
p929
sg13
VSurf
p930
sg15
g16
sg17
V12
p931
sg18
V45
p932
sbag1
(g2
g3
Ntp933
Rp934
(dp935
g7
V016
p936
sg9
VPidgey
p937
sg11
VPi,Ev,
p938
sg13
VSky
p939
sg15
V3
p940
sg17
V56
p941
sg18
V60
p942
sbag1
(g2
g3
Ntp943
Rp944
(dp945
g7
V017
p946
sg9
VPidgeotto
p947
sg11
VPi,Ev,
p948
sg13
VSky
p949
sg15
g940
sg17
V56
p950
sg18
V35
p951
sbag1
(g2
g3
Ntp952
Rp953
(dp954
g7
V018
p955
sg9
VPidgeot
p956
sg11
VPi,Ev,
p957
sg13
VSky
p958
sg15
g940
sg17
V56
p959
sg18
V5
p960
sbag1
(g2
g3
Ntp961
Rp962
(dp963
g7
V006
p964
sg9
VCharizard
p965
sg11
VPi,Ev,
p966
sg13
VSky
p967
sg15
g940
sg17
V56
p968
sg18
V0
p969
sbag1
(g2
g3
Ntp970
Rp971
(dp972
g7
V144
p973
sg9
VArticuno
p974
sg11
VPi,Ev,
p975
sg13
VSky
p976
sg15
g940
sg17
V56
p977
sg18
V0
p978
sbag1
(g2
g3
Ntp979
Rp980
(dp981
g7
V145
p982
sg9
VZapdos
p983
sg11
VPi,Ev,
p984
sg13
VSky
p985
sg15
g940
sg17
V56
p986
sg18
V0
p987
sbag1
(g2
g3
Ntp988
Rp989
(dp990
g7
V146
p991
sg9
VMoltres
p992
sg11
VPi,Ev,
p993
sg13
VSky
p994
sg15
g940
sg17
V56
p995
sg18
V0
p996
sbag1
(g2
g3
Ntp997
Rp998
(dp999
g7
V149
p1000
sg9
VDragonite
p1001
sg11
VPi,Ev,
p1002
sg13
VSky
p1003
sg15
g940
sg17
V56
p1004
sg18
V0
p1005
sbag1
(g2
g3
Ntp1006
Rp1007
(dp1008
g7
V004
p1009
sg9
VCharmander
p1010
sg11
VPi,Ev,
p1011
sg13
VGift
p1012
sg15
V14
p1013
sg17
g1013
sg18
V0
p1014
sba.