(lp0
ccopy_reg
_reconstructor
p1
(c__main__
WildPokemon
p2
c__builtin__
object
p3
Ntp4
Rp5
(dp6
VpDexNo
p7
V019
p8
sVpSpecies
p9
VRattata
p10
sVpGames
p11
VR,B,
p12
sVpArea
p13
VGrass
p14
sVpMinLevel
p15
V14
p16
sVpMaxLevel
p17
V17
p18
sVpRate
p19
V40
p20
sbag1
(g2
g3
Ntp21
Rp22
(dp23
g7
V019
p24
sg9
VRattata
p25
sg11
VY,
p26
sg13
VGrass
p27
sg15
V18
p28
sg17
g28
sg19
V15
p29
sbag1
(g2
g3
Ntp30
Rp31
(dp32
g7
V020
p33
sg9
VRaticate
p34
sg11
g26
sg13
VGrass
p35
sg15
V20
p36
sg17
g36
sg19
V4
p37
sbag1
(g2
g3
Ntp38
Rp39
(dp40
g7
V021
p41
sg9
VSpearow
p42
sg11
VR,B,
p43
sg13
VGrass
p44
sg15
V13
p45
sg17
V17
p46
sg19
V35
p47
sbag1
(g2
g3
Ntp48
Rp49
(dp50
g7
V021
p51
sg9
VSpearow
p52
sg11
g26
sg13
VGrass
p53
sg15
V17
p54
sg17
g54
sg19
V10
p55
sbag1
(g2
g3
Ntp56
Rp57
(dp58
g7
V022
p59
sg9
VFearow
p60
sg11
g26
sg13
VGrass
p61
sg15
V19
p62
sg17
g62
sg19
V1
p63
sbag1
(g2
g3
Ntp64
Rp65
(dp66
g7
V023
p67
sg9
VEkans
p68
sg11
VR,
p69
sg13
VGrass
p70
sg15
V11
p71
sg17
V17
p72
sg19
V25
p73
sbag1
(g2
g3
Ntp74
Rp75
(dp76
g7
V027
p77
sg9
VSandshrew
p78
sg11
VB,
p79
sg13
VGrass
p80
sg15
V11
p81
sg17
V17
p82
sg19
V25
p83
sbag1
(g2
g3
Ntp84
Rp85
(dp86
g7
V029
p87
sg9
VNidoran\u2640
p88
sg11
g26
sg13
VGrass
p89
sg15
V16
p90
sg17
V18
p91
sg19
V35
p92
sbag1
(g2
g3
Ntp93
Rp94
(dp95
g7
V030
p96
sg9
VNidorina
p97
sg11
g26
sg13
VGrass
p98
sg15
V18
p99
sg17
g99
sg19
V5
p100
sbag1
(g2
g3
Ntp101
Rp102
(dp103
g7
V032
p104
sg9
VNidoran\u2642
p105
sg11
g26
sg13
VGrass
p106
sg15
V16
p107
sg17
V18
p108
sg19
V25
p109
sbag1
(g2
g3
Ntp110
Rp111
(dp112
g7
V033
p113
sg9
VNidorino
p114
sg11
g26
sg13
VGrass
p115
sg15
V18
p116
sg17
g116
sg19
V5
p117
sbag1
(g2
g3
Ntp118
Rp119
(dp120
g7
V019
p121
sg9
VRattata
p122
sg11
VG,
p123
sg13
VGrass
p124
sg15
V15
p125
sg17
g125
sg19
V30
p126
sbag1
(g2
g3
Ntp127
Rp128
(dp129
g7
V019
p130
sg9
VRattata
p131
sg11
g123
sg13
VGrass
p132
sg15
V13
p133
sg17
V15
p134
sg19
V40
p135
sbag1
(g2
g3
Ntp136
Rp137
(dp138
g7
V019
p139
sg9
VRattata
p140
sg11
VS,
p141
sg13
VGrass
p142
sg15
V13
p143
sg17
g143
sg19
V30
p144
sbag1
(g2
g3
Ntp145
Rp146
(dp147
g7
V019
p148
sg9
VRattata
p149
sg11
g141
sg13
VGrass
p150
sg15
V13
p151
sg17
V15
p152
sg19
V70
p153
sbag1
(g2
g3
Ntp154
Rp155
(dp156
g7
V019
p157
sg9
VRattata
p158
sg11
VC,
p159
sg13
VGrass
p160
sg15
V15
p161
sg17
g161
sg19
V30
p162
sbag1
(g2
g3
Ntp163
Rp164
(dp165
g7
V020
p166
sg9
VRaticate
p167
sg11
g123
sg13
VGrass
p168
sg15
V15
p169
sg17
g169
sg19
V25
p170
sbag1
(g2
g3
Ntp171
Rp172
(dp173
g7
V020
p174
sg9
VRaticate
p175
sg11
g141
sg13
VGrass
p176
sg15
V15
p177
sg17
g177
sg19
V30
p178
sbag1
(g2
g3
Ntp179
Rp180
(dp181
g7
V020
p182
sg9
VRaticate
p183
sg11
g159
sg13
VGrass
p184
sg15
V15
p185
sg17
g185
sg19
V20
p186
sbag1
(g2
g3
Ntp187
Rp188
(dp189
g7
V020
p190
sg9
VRaticate
p191
sg11
g159
sg13
VGrass
p192
sg15
V15
p193
sg17
V18
p194
sg19
V25
p195
sbag1
(g2
g3
Ntp196
Rp197
(dp198
g7
V021
p199
sg9
VSpearow
p200
sg11
g123
sg13
VGrass
p201
sg15
V13
p202
sg17
g202
sg19
V20
p203
sbag1
(g2
g3
Ntp204
Rp205
(dp206
g7
V021
p207
sg9
VSpearow
p208
sg11
g141
sg13
VGrass
p209
sg15
V13
p210
sg17
V15
p211
sg19
V50
p212
sbag1
(g2
g3
Ntp213
Rp214
(dp215
g7
V021
p216
sg9
VSpearow
p217
sg11
g159
sg13
VGrass
p218
sg15
V15
p219
sg17
g219
sg19
V30
p220
sbag1
(g2
g3
Ntp221
Rp222
(dp223
g7
V022
p224
sg9
VFearow
p225
sg11
VG,S,
p226
sg13
VGrass
p227
sg15
V15
p228
sg17
g228
sg19
V5
p229
sbag1
(g2
g3
Ntp230
Rp231
(dp232
g7
V022
p233
sg9
VFearow
p234
sg11
g159
sg13
VGrass
p235
sg15
V15
p236
sg17
g236
sg19
V15
p237
sbag1
(g2
g3
Ntp238
Rp239
(dp240
g7
V041
p241
sg9
VZubat
p242
sg11
g159
sg13
VGrass
p243
sg15
V15
p244
sg17
g244
sg19
V5
p245
sbag1
(g2
g3
Ntp246
Rp247
(dp248
g7
V048
p249
sg9
VVenonat
p250
sg11
g159
sg13
VGrass
p251
sg15
V15
p252
sg17
g252
sg19
V30
p253
sbag1
(g2
g3
Ntp254
Rp255
(dp256
g7
V049
p257
sg9
VVenomoth
p258
sg11
g159
sg13
VGrass
p259
sg15
V15
p260
sg17
g260
sg19
V10
p261
sbag1
(g2
g3
Ntp262
Rp263
(dp264
g7
V056
p265
sg9
VMankey
p266
sg11
g123
sg13
VGrass
p267
sg15
V13
p268
sg17
g268
sg19
V30
p269
sbag1
(g2
g3
Ntp270
Rp271
(dp272
g7
V057
p273
sg9
VPrimeape
p274
sg11
g123
sg13
VGrass
p275
sg15
V15
p276
sg17
g276
sg19
V5
p277
sbag1
(g2
g3
Ntp278
Rp279
(dp280
g7
V105
p281
sg9
VMarowak
p282
sg11
g159
sg13
VGrass
p283
sg15
V18
p284
sg17
g284
sg19
V5
p285
sbag1
(g2
g3
Ntp286
Rp287
(dp288
g7
V118
p289
sg9
VGoldeen
p290
sg11
VG,S,C,
p291
sg13
VSurf
p292
sg15
V10
p293
sg17
V19
p294
sg19
V90
p295
sbag1
(g2
g3
Ntp296
Rp297
(dp298
g7
V119
p299
sg9
VSeaking
p300
sg11
VG,S,C,
p301
sg13
VSurf
p302
sg15
V15
p303
sg17
V19
p304
sg19
V10
p305
sbag1
(g2
g3
Ntp306
Rp307
(dp308
g7
V118
p309
sg9
VGoldeen
p310
sg11
VG,S,C,
p311
sg13
VFish Old
p312
sg15
V10
p313
sg17
g313
sg19
V15
p314
sbag1
(g2
g3
Ntp315
Rp316
(dp317
g7
V129
p318
sg9
VMagikarp
p319
sg11
VG,S,C,
p320
sg13
VFish Old
p321
sg15
V10
p322
sg17
g322
sg19
V85
p323
sbag1
(g2
g3
Ntp324
Rp325
(dp326
g7
V118
p327
sg9
VGoldeen
p328
sg11
VG,S,C,
p329
sg13
VFish Good
p330
sg15
V20
p331
sg17
g331
sg19
V65
p332
sbag1
(g2
g3
Ntp333
Rp334
(dp335
g7
V129
p336
sg9
VMagikarp
p337
sg11
VG,S,C,
p338
sg13
VFish Good
p339
sg15
V20
p340
sg17
g340
sg19
V35
p341
sbag1
(g2
g3
Ntp342
Rp343
(dp344
g7
V118
p345
sg9
VGoldeen
p346
sg11
VG,S,C,
p347
sg13
VFish Super
p348
sg15
V40
p349
sg17
g349
sg19
V70
p350
sbag1
(g2
g3
Ntp351
Rp352
(dp353
g7
V119
p354
sg9
VSeaking
p355
sg11
VG,S,C,
p356
sg13
VFish Super
p357
sg15
V40
p358
sg17
g358
sg19
V10
p359
sbag1
(g2
g3
Ntp360
Rp361
(dp362
g7
V129
p363
sg9
VMagikarp
p364
sg11
VG,S,C,
p365
sg13
VFish Super
p366
sg15
V40
p367
sg17
g367
sg19
V20
p368
sbag1
(g2
g3
Ntp369
Rp370
(dp371
g7
V019
p372
sg9
VRattata
p373
sg11
VFR,LG,
p374
sg13
VGrass
p375
sg15
V14
p376
sg17
V17
p377
sg19
V40
p378
sbag1
(g2
g3
Ntp379
Rp380
(dp381
g7
V021
p382
sg9
VSpearow
p383
sg11
VFR,LG,
p384
sg13
VGrass
p385
sg15
V13
p386
sg17
V17
p387
sg19
V35
p388
sbag1
(g2
g3
Ntp389
Rp390
(dp391
g7
V023
p392
sg9
VEkans
p393
sg11
VFR,
p394
sg13
VGrass
p395
sg15
V11
p396
sg17
V17
p397
sg19
V25
p398
sbag1
(g2
g3
Ntp399
Rp400
(dp401
g7
V027
p402
sg9
VSandshrew
p403
sg11
VLG,
p404
sg13
VGrass
p405
sg15
V11
p406
sg17
V17
p407
sg19
V25
p408
sbag1
(g2
g3
Ntp409
Rp410
(dp411
g7
V056
p412
sg9
VMankey
p413
sg11
VHG,
p414
sg13
VGrass
p415
sg15
V13
p416
sg17
g416
sg19
V30
p417
sbag1
(g2
g3
Ntp418
Rp419
(dp420
g7
V057
p421
sg9
VPrimeape
p422
sg11
g414
sg13
VGrass
p423
sg15
V15
p424
sg17
g424
sg19
V5
p425
sbag1
(g2
g3
Ntp426
Rp427
(dp428
g7
V019
p429
sg9
VRattata
p430
sg11
g414
sg13
VGrass
p431
sg15
V15
p432
sg17
g432
sg19
V40
p433
sbag1
(g2
g3
Ntp434
Rp435
(dp436
g7
V019
p437
sg9
VRattata
p438
sg11
VSS,
p439
sg13
VGrass
p440
sg15
V13
p441
sg17
g441
sg19
V30
p442
sbag1
(g2
g3
Ntp443
Rp444
(dp445
g7
V019
p446
sg9
VRattata
p447
sg11
g439
sg13
VGrass
p448
sg15
V13
p449
sg17
V15
p450
sg19
V70
p451
sbag1
(g2
g3
Ntp452
Rp453
(dp454
g7
V021
p455
sg9
VSpearow
p456
sg11
g414
sg13
VGrass
p457
sg15
V13
p458
sg17
g458
sg19
V20
p459
sbag1
(g2
g3
Ntp460
Rp461
(dp462
g7
V021
p463
sg9
VSpearow
p464
sg11
g439
sg13
VGrass
p465
sg15
V13
p466
sg17
V15
p467
sg19
V50
p468
sbag1
(g2
g3
Ntp469
Rp470
(dp471
g7
V020
p472
sg9
VRaticate
p473
sg11
g414
sg13
VGrass
p474
sg15
V15
p475
sg17
g475
sg19
V10
p476
sbag1
(g2
g3
Ntp477
Rp478
(dp479
g7
V020
p480
sg9
VRaticate
p481
sg11
g414
sg13
VGrass
p482
sg15
V13
p483
sg17
V15
p484
sg19
V25
p485
sbag1
(g2
g3
Ntp486
Rp487
(dp488
g7
V020
p489
sg9
VRaticate
p490
sg11
g439
sg13
VGrass
p491
sg15
V15
p492
sg17
g492
sg19
V15
p493
sbag1
(g2
g3
Ntp494
Rp495
(dp496
g7
V020
p497
sg9
VRaticate
p498
sg11
g439
sg13
VGrass
p499
sg15
V13
p500
sg17
V15
p501
sg19
V30
p502
sbag1
(g2
g3
Ntp503
Rp504
(dp505
g7
V022
p506
sg9
VFearow
p507
sg11
VHG,SS,
p508
sg13
VGrass
p509
sg15
V15
p510
sg17
g510
sg19
V5
p511
sbag1
(g2
g3
Ntp512
Rp513
(dp514
g7
V118
p515
sg9
VGoldeen
p516
sg11
VHG,SS,
p517
sg13
VSurf
p518
sg15
V10
p519
sg17
V15
p520
sg19
V90
p521
sbag1
(g2
g3
Ntp522
Rp523
(dp524
g7
V119
p525
sg9
VSeaking
p526
sg11
VHG,SS,
p527
sg13
VSurf
p528
sg15
V15
p529
sg17
g529
sg19
V10
p530
sbag1
(g2
g3
Ntp531
Rp532
(dp533
g7
V129
p534
sg9
VMagikarp
p535
sg11
VHG,SS,
p536
sg13
VFish Old
p537
sg15
V10
p538
sg17
g538
sg19
V95
p539
sbag1
(g2
g3
Ntp540
Rp541
(dp542
g7
V118
p543
sg9
VGoldeen
p544
sg11
VHG,SS,
p545
sg13
VFish Old
p546
sg15
V10
p547
sg17
g547
sg19
V5
p548
sbag1
(g2
g3
Ntp549
Rp550
(dp551
g7
V129
p552
sg9
VMagikarp
p553
sg11
VHG,SS,
p554
sg13
VFish Good
p555
sg15
V20
p556
sg17
g556
sg19
V60
p557
sbag1
(g2
g3
Ntp558
Rp559
(dp560
g7
V118
p561
sg9
VGoldeen
p562
sg11
VHG,SS,
p563
sg13
VFish Good
p564
sg15
V20
p565
sg17
g565
sg19
V40
p566
sbag1
(g2
g3
Ntp567
Rp568
(dp569
g7
V118
p570
sg9
VGoldeen
p571
sg11
VHG,SS,
p572
sg13
VFish Super
p573
sg15
V40
p574
sg17
g574
sg19
V90
p575
sbag1
(g2
g3
Ntp576
Rp577
(dp578
g7
V129
p579
sg9
VMagikarp
p580
sg11
VHG,SS,
p581
sg13
VFish Super
p582
sg15
V40
p583
sg17
g583
sg19
V7
p584
sbag1
(g2
g3
Ntp585
Rp586
(dp587
g7
V119
p588
sg9
VSeaking
p589
sg11
VHG,SS,
p590
sg13
VFish Super
p591
sg15
V40
p592
sg17
g592
sg19
V3
p593
sbag1
(g2
g3
Ntp594
Rp595
(dp596
g7
V302
p597
sg9
VSableye
p598
sg11
g414
sg13
VSwarm
p599
sg15
V13
p600
sg17
V15
p601
sg19
V40
p602
sbag1
(g2
g3
Ntp603
Rp604
(dp605
g7
V303
p606
sg9
VMawile
p607
sg11
g439
sg13
VSwarm
p608
sg15
V13
p609
sg17
V15
p610
sg19
V40
p611
sbag1
(g2
g3
Ntp612
Rp613
(dp614
g7
V264
p615
sg9
VLinoone
p616
sg11
VHG,SS,
p617
sg13
VHoenn
p618
sg15
V13
p619
sg17
g619
sg19
V20
p620
sbag1
(g2
g3
Ntp621
Rp622
(dp623
g7
V293
p624
sg9
VWhismur
p625
sg11
VHG,SS,
p626
sg13
VHoenn
p627
sg15
V13
p628
sg17
V15
p629
sg19
V20
p630
sbag1
(g2
g3
Ntp631
Rp632
(dp633
g7
V399
p634
sg9
VBidoof
p635
sg11
VHG,SS,
p636
sg13
VSinnoh
p637
sg15
V13
p638
sg17
g638
sg19
V20
p639
sbag1
(g2
g3
Ntp640
Rp641
(dp642
g7
V418
p643
sg9
VBuizel
p644
sg11
VHG,SS,
p645
sg13
VSinnoh
p646
sg15
V13
p647
sg17
V15
p648
sg19
V20
p649
sbag1
(g2
g3
Ntp650
Rp651
(dp652
g7
V019
p653
sg9
VRattata
p654
sg11
VPi,Ev,
p655
sg13
VGrass
p656
sg15
V17
p657
sg17
V22
p658
sg19
V20
p659
sbag1
(g2
g3
Ntp660
Rp661
(dp662
g7
V020
p663
sg9
VRaticate
p664
sg11
VPi,Ev,
p665
sg13
VGrass
p666
sg15
V17
p667
sg17
V22
p668
sg19
V10
p669
sbag1
(g2
g3
Ntp670
Rp671
(dp672
g7
V021
p673
sg9
VSpearow
p674
sg11
VPi,Ev,
p675
sg13
VGrass
p676
sg15
V17
p677
sg17
V22
p678
sg19
V20
p679
sbag1
(g2
g3
Ntp680
Rp681
(dp682
g7
V022
p683
sg9
VFearow
p684
sg11
VPi,Ev,
p685
sg13
VGrass
p686
sg15
V17
p687
sg17
V22
p688
sg19
V10
p689
sbag1
(g2
g3
Ntp690
Rp691
(dp692
g7
V029
p693
sg9
VNidoran\u2640
p694
sg11
VPi,Ev,
p695
sg13
VGrass
p696
sg15
V17
p697
sg17
V22
p698
sg19
V15
p699
sbag1
(g2
g3
Ntp700
Rp701
(dp702
g7
V030
p703
sg9
VNidorina
p704
sg11
VPi,Ev,
p705
sg13
VGrass
p706
sg15
V17
p707
sg17
V22
p708
sg19
V5
p709
sbag1
(g2
g3
Ntp710
Rp711
(dp712
g7
V032
p713
sg9
VNidoran\u2642
p714
sg11
VPi,Ev,
p715
sg13
VGrass
p716
sg15
V17
p717
sg17
V22
p718
sg19
V15
p719
sbag1
(g2
g3
Ntp720
Rp721
(dp722
g7
V033
p723
sg9
VNidorino
p724
sg11
VPi,Ev,
p725
sg13
VGrass
p726
sg15
V17
p727
sg17
V22
p728
sg19
V5
p729
sbag1
(g2
g3
Ntp730
Rp731
(dp732
g7
V113
p733
sg9
VChansey
p734
sg11
VPi,Ev,
p735
sg13
VGrass
p736
sg15
V17
p737
sg17
V22
p738
sg19
V0
p739
sbag1
(g2
g3
Ntp740
Rp741
(dp742
g7
V021
p743
sg9
VSpearow
p744
sg11
VPi,Ev,
p745
sg13
VSky
p746
sg15
V3
p747
sg17
V56
p748
sg19
V60
p749
sbag1
(g2
g3
Ntp750
Rp751
(dp752
g7
V022
p753
sg9
VFearow
p754
sg11
VPi,Ev,
p755
sg13
VSky
p756
sg15
g747
sg17
V56
p757
sg19
V40
p758
sbag1
(g2
g3
Ntp759
Rp760
(dp761
g7
V006
p762
sg9
VCharizard
p763
sg11
VPi,Ev,
p764
sg13
VSky
p765
sg15
g747
sg17
V56
p766
sg19
V0
p767
sbag1
(g2
g3
Ntp768
Rp769
(dp770
g7
V144
p771
sg9
VArticuno
p772
sg11
VPi,Ev,
p773
sg13
VSky
p774
sg15
g747
sg17
V56
p775
sg19
V0
p776
sbag1
(g2
g3
Ntp777
Rp778
(dp779
g7
V145
p780
sg9
VZapdos
p781
sg11
VPi,Ev,
p782
sg13
VSky
p783
sg15
g747
sg17
V56
p784
sg19
V0
p785
sbag1
(g2
g3
Ntp786
Rp787
(dp788
g7
V146
p789
sg9
VMoltres
p790
sg11
VPi,Ev,
p791
sg13
VSky
p792
sg15
g747
sg17
V56
p793
sg19
V0
p794
sbag1
(g2
g3
Ntp795
Rp796
(dp797
g7
V149
p798
sg9
VDragonite
p799
sg11
VPi,Ev,
p800
sg13
VSky
p801
sg15
g747
sg17
V56
p802
sg19
V0
p803
sba.