(lp0
ccopy_reg
_reconstructor
p1
(c__main__
WildPokemon
p2
c__builtin__
object
p3
Ntp4
Rp5
(dp6
VpDexNo
p7
V016
p8
sVpSpecies
p9
VPidgey
p10
sVpGames
p11
VR,B,
p12
sVpArea
p13
VGrass
p14
sVpMinLevel
p15
V6
p16
sVpMaxLevel
p17
V8
p18
sVpRate
p19
V45
p20
sbag1
(g2
g3
Ntp21
Rp22
(dp23
g7
V019
p24
sg9
VRattata
p25
sg11
VY,
p26
sg13
VGrass
p27
sg15
V10
p28
sg17
V12
p29
sg19
V15
p30
sbag1
(g2
g3
Ntp31
Rp32
(dp33
g7
V021
p34
sg9
VSpearow
p35
sg11
VR,B,
p36
sg13
VGrass
p37
sg15
V5
p38
sg17
g18
sg19
V45
p39
sbag1
(g2
g3
Ntp40
Rp41
(dp42
g7
V021
p43
sg9
VSpearow
p44
sg11
g26
sg13
VGrass
p45
sg15
g18
sg17
V12
p46
sg19
V55
p47
sbag1
(g2
g3
Ntp48
Rp49
(dp50
g7
V027
p51
sg9
VSandshrew
p52
sg11
g26
sg13
VGrass
p53
sg15
g18
sg17
V10
p54
sg19
V15
p55
sbag1
(g2
g3
Ntp56
Rp57
(dp58
g7
V039
p59
sg9
VJigglypuff
p60
sg11
VR,B,
p61
sg13
VGrass
p62
sg15
V3
p63
sg17
V7
p64
sg19
V10
p65
sbag1
(g2
g3
Ntp66
Rp67
(dp68
g7
V056
p69
sg9
VMankey
p70
sg11
g26
sg13
VGrass
p71
sg15
V9
p72
sg17
g72
sg19
V15
p73
sbag1
(g2
g3
Ntp74
Rp75
(dp76
g7
V019
p77
sg9
VRattata
p78
sg11
VG,
p79
sg13
VGrass
p80
sg15
g38
sg17
V10
p81
sg19
V60
p82
sbag1
(g2
g3
Ntp83
Rp84
(dp85
g7
V019
p86
sg9
VRattata
p87
sg11
VS,C,
p88
sg13
VGrass
p89
sg15
g38
sg17
g38
sg19
V30
p90
sbag1
(g2
g3
Ntp91
Rp92
(dp93
g7
V019
p94
sg9
VRattata
p95
sg11
VS,
p96
sg13
VGrass
p97
sg15
g38
sg17
g18
sg19
V35
p98
sbag1
(g2
g3
Ntp99
Rp100
(dp101
g7
V019
p102
sg9
VRattata
p103
sg11
VC,
p104
sg13
VGrass
p105
sg15
g38
sg17
V10
p106
sg19
V65
p107
sbag1
(g2
g3
Ntp108
Rp109
(dp110
g7
V020
p111
sg9
VRaticate
p112
sg11
g104
sg13
VGrass
p113
sg15
V10
p114
sg17
g114
sg19
V20
p115
sbag1
(g2
g3
Ntp116
Rp117
(dp118
g7
V021
p119
sg9
VSpearow
p120
sg11
g79
sg13
VGrass
p121
sg15
g38
sg17
g18
sg19
V55
p122
sbag1
(g2
g3
Ntp123
Rp124
(dp125
g7
V021
p126
sg9
VSpearow
p127
sg11
g96
sg13
VGrass
p128
sg15
g38
sg17
g18
sg19
V35
p129
sbag1
(g2
g3
Ntp130
Rp131
(dp132
g7
V021
p133
sg9
VSpearow
p134
sg11
g104
sg13
VGrass
p135
sg15
g38
sg17
g38
sg19
V30
p136
sbag1
(g2
g3
Ntp137
Rp138
(dp139
g7
V023
p140
sg9
VEkans
p141
sg11
g96
sg13
VGrass
p142
sg15
g18
sg17
g18
sg19
V20
p143
sbag1
(g2
g3
Ntp144
Rp145
(dp146
g7
V023
p147
sg9
VEkans
p148
sg11
g104
sg13
VGrass
p149
sg15
g18
sg17
g18
sg19
V20
p150
sbag1
(g2
g3
Ntp151
Rp152
(dp153
g7
V024
p154
sg9
VArbok
p155
sg11
g96
sg13
VGrass
p156
sg15
V10
p157
sg17
g157
sg19
V5
p158
sbag1
(g2
g3
Ntp159
Rp160
(dp161
g7
V024
p162
sg9
VArbok
p163
sg11
g104
sg13
VGrass
p164
sg15
V10
p165
sg17
g165
sg19
V5
p166
sbag1
(g2
g3
Ntp167
Rp168
(dp169
g7
V027
p170
sg9
VSandshrew
p171
sg11
g104
sg13
VGrass
p172
sg15
V10
p173
sg17
g173
sg19
V5
p174
sbag1
(g2
g3
Ntp175
Rp176
(dp177
g7
V035
p178
sg9
VClefairy
p179
sg11
g104
sg13
VGrass
p180
sg15
g16
sg17
g16
sg19
V5
p181
sbag1
(g2
g3
Ntp182
Rp183
(dp184
g7
V039
p185
sg9
VJigglypuff
p186
sg11
VG,S,
p187
sg13
VGrass
p188
sg15
g16
sg17
g16
sg19
V10
p189
sbag1
(g2
g3
Ntp190
Rp191
(dp192
g7
V041
p193
sg9
VZubat
p194
sg11
VG,S,
p195
sg13
VGrass
p196
sg15
g38
sg17
g38
sg19
V30
p197
sbag1
(g2
g3
Ntp198
Rp199
(dp200
g7
V041
p201
sg9
VZubat
p202
sg11
g104
sg13
VGrass
p203
sg15
g16
sg17
g16
sg19
V10
p204
sbag1
(g2
g3
Ntp205
Rp206
(dp207
g7
V016
p208
sg9
VPidgey
p209
sg11
VFR,LG,
p210
sg13
VGrass
p211
sg15
g16
sg17
g64
sg19
V30
p212
sbag1
(g2
g3
Ntp213
Rp214
(dp215
g7
V021
p216
sg9
VSpearow
p217
sg11
VFR,LG,
p218
sg13
VGrass
p219
sg15
g16
sg17
g18
sg19
V35
p220
sbag1
(g2
g3
Ntp221
Rp222
(dp223
g7
V029
p224
sg9
VNidoran\u2640
p225
sg11
VFR,
p226
sg13
VGrass
p227
sg15
g16
sg17
g16
sg19
V1
p228
sbag1
(g2
g3
Ntp229
Rp230
(dp231
g7
V029
p232
sg9
VNidoran\u2640
p233
sg11
VLG,
p234
sg13
VGrass
p235
sg15
g16
sg17
g64
sg19
V14
p236
sbag1
(g2
g3
Ntp237
Rp238
(dp239
g7
V032
p240
sg9
VNidoran\u2642
p241
sg11
g226
sg13
VGrass
p242
sg15
g16
sg17
g64
sg19
V14
p243
sbag1
(g2
g3
Ntp244
Rp245
(dp246
g7
V032
p247
sg9
VNidoran\u2642
p248
sg11
g234
sg13
VGrass
p249
sg15
g16
sg17
g16
sg19
V1
p250
sbag1
(g2
g3
Ntp251
Rp252
(dp253
g7
V039
p254
sg9
VJigglypuff
p255
sg11
VFR,LG,
p256
sg13
VGrass
p257
sg15
g63
sg17
g64
sg19
V10
p258
sbag1
(g2
g3
Ntp259
Rp260
(dp261
g7
V056
p262
sg9
VMankey
p263
sg11
VFR,LG,
p264
sg13
VGrass
p265
sg15
g64
sg17
g64
sg19
V10
p266
sbag1
(g2
g3
Ntp267
Rp268
(dp269
g7
V019
p270
sg9
VRattata
p271
sg11
VHG,
p272
sg13
VGrass
p273
sg15
g38
sg17
V10
p274
sg19
V60
p275
sbag1
(g2
g3
Ntp276
Rp277
(dp278
g7
V019
p279
sg9
VRattata
p280
sg11
VSS,
p281
sg13
VGrass
p282
sg15
g38
sg17
g38
sg19
V30
p283
sbag1
(g2
g3
Ntp284
Rp285
(dp286
g7
V019
p287
sg9
VRattata
p288
sg11
g281
sg13
VGrass
p289
sg15
g38
sg17
g18
sg19
V35
p290
sbag1
(g2
g3
Ntp291
Rp292
(dp293
g7
V021
p294
sg9
VSpearow
p295
sg11
g272
sg13
VGrass
p296
sg15
g38
sg17
g18
sg19
V55
p297
sbag1
(g2
g3
Ntp298
Rp299
(dp300
g7
V021
p301
sg9
VSpearow
p302
sg11
g281
sg13
VGrass
p303
sg15
g38
sg17
g18
sg19
V35
p304
sbag1
(g2
g3
Ntp305
Rp306
(dp307
g7
V023
p308
sg9
VEkans
p309
sg11
g281
sg13
VGrass
p310
sg15
g18
sg17
g18
sg19
V20
p311
sbag1
(g2
g3
Ntp312
Rp313
(dp314
g7
V024
p315
sg9
VArbok
p316
sg11
g281
sg13
VGrass
p317
sg15
V10
p318
sg17
g318
sg19
V5
p319
sbag1
(g2
g3
Ntp320
Rp321
(dp322
g7
V039
p323
sg9
VJigglypuff
p324
sg11
VHG,SS,
p325
sg13
VGrass
p326
sg15
g16
sg17
g16
sg19
V10
p327
sbag1
(g2
g3
Ntp328
Rp329
(dp330
g7
V041
p331
sg9
VZubat
p332
sg11
VHG,SS,
p333
sg13
VGrass
p334
sg15
g38
sg17
g38
sg19
V30
p335
sbag1
(g2
g3
Ntp336
Rp337
(dp338
g7
V163
p339
sg9
VHoothoot
p340
sg11
VHG,SS,
p341
sg13
VHeadbutt
p342
sg15
g16
sg17
V10
p343
sg19
V50
p344
sbag1
(g2
g3
Ntp345
Rp346
(dp347
g7
V204
p348
sg9
VPineco
p349
sg11
VHG,SS,
p350
sg13
VHeadbutt
p351
sg15
g16
sg17
g64
sg19
V30
p352
sbag1
(g2
g3
Ntp353
Rp354
(dp355
g7
V265
p356
sg9
VWurmple
p357
sg11
VHG,SS,
p358
sg13
VHeadbutt
p359
sg15
g16
sg17
V10
p360
sg19
V20
p361
sbag1
(g2
g3
Ntp362
Rp363
(dp364
g7
V343
p365
sg9
VBaltoy
p366
sg11
g272
sg13
VSwarm
p367
sg15
g38
sg17
g38
sg19
V40
p368
sbag1
(g2
g3
Ntp369
Rp370
(dp371
g7
V316
p372
sg9
VGulpin
p373
sg11
g281
sg13
VSwarm
p374
sg15
g38
sg17
g38
sg19
V40
p375
sbag1
(g2
g3
Ntp376
Rp377
(dp378
g7
V311
p379
sg9
VPlusle
p380
sg11
VHG,SS,
p381
sg13
VHoenn
p382
sg15
g38
sg17
g38
sg19
V20
p383
sbag1
(g2
g3
Ntp384
Rp385
(dp386
g7
V312
p387
sg9
VMinun
p388
sg11
VHG,SS,
p389
sg13
VHoenn
p390
sg15
g18
sg17
g18
sg19
V20
p391
sbag1
(g2
g3
Ntp392
Rp393
(dp394
g7
V403
p395
sg9
VShinx
p396
sg11
VHG,SS,
p397
sg13
VSinnoh
p398
sg15
g38
sg17
g18
sg19
V40
p399
sbag1
(g2
g3
Ntp400
Rp401
(dp402
g7
V019
p403
sg9
VRattata
p404
sg11
VPi,
p405
sg13
VGrass
p406
sg15
g63
sg17
g18
sg19
V30
p407
sbag1
(g2
g3
Ntp408
Rp409
(dp410
g7
V019
p411
sg9
VRattata
p412
sg11
VEv,
p413
sg13
VGrass
p414
sg15
g63
sg17
g18
sg19
V40
p415
sbag1
(g2
g3
Ntp416
Rp417
(dp418
g7
V021
p419
sg9
VSpearow
p420
sg11
g405
sg13
VGrass
p421
sg15
g63
sg17
g18
sg19
V30
p422
sbag1
(g2
g3
Ntp423
Rp424
(dp425
g7
V021
p426
sg9
VSpearow
p427
sg11
g413
sg13
VGrass
p428
sg15
g63
sg17
g18
sg19
V40
p429
sbag1
(g2
g3
Ntp430
Rp431
(dp432
g7
V023
p433
sg9
VEkans
p434
sg11
g413
sg13
VGrass
p435
sg15
g63
sg17
g18
sg19
V20
p436
sbag1
(g2
g3
Ntp437
Rp438
(dp439
g7
V027
p440
sg9
VSandshrew
p441
sg11
g405
sg13
VGrass
p442
sg15
g63
sg17
g18
sg19
V20
p443
sbag1
(g2
g3
Ntp444
Rp445
(dp446
g7
V056
p447
sg9
VMankey
p448
sg11
g405
sg13
VGrass
p449
sg15
g63
sg17
g18
sg19
V20
p450
sbag1
(g2
g3
Ntp451
Rp452
(dp453
g7
V004
p454
sg9
VCharmander
p455
sg11
VPi,Ev,
p456
sg13
VGrass
p457
sg15
g63
sg17
g18
sg19
V0
p458
sbag1
(g2
g3
Ntp459
Rp460
(dp461
g7
V021
p462
sg9
VSpearow
p463
sg11
VPi,Ev,
p464
sg13
VSky
p465
sg15
g63
sg17
V56
p466
sg19
V60
p467
sbag1
(g2
g3
Ntp468
Rp469
(dp470
g7
V022
p471
sg9
VFearow
p472
sg11
VPi,Ev,
p473
sg13
VSky
p474
sg15
g63
sg17
V56
p475
sg19
V40
p476
sbag1
(g2
g3
Ntp477
Rp478
(dp479
g7
V006
p480
sg9
VCharizard
p481
sg11
VPi,Ev,
p482
sg13
VSky
p483
sg15
g63
sg17
V56
p484
sg19
V0
p485
sbag1
(g2
g3
Ntp486
Rp487
(dp488
g7
V144
p489
sg9
VArticuno
p490
sg11
VPi,Ev,
p491
sg13
VSky
p492
sg15
g63
sg17
V56
p493
sg19
V0
p494
sbag1
(g2
g3
Ntp495
Rp496
(dp497
g7
V145
p498
sg9
VZapdos
p499
sg11
VPi,Ev,
p500
sg13
VSky
p501
sg15
g63
sg17
V56
p502
sg19
V0
p503
sbag1
(g2
g3
Ntp504
Rp505
(dp506
g7
V146
p507
sg9
VMoltres
p508
sg11
VPi,Ev,
p509
sg13
VSky
p510
sg15
g63
sg17
V56
p511
sg19
V0
p512
sbag1
(g2
g3
Ntp513
Rp514
(dp515
g7
V149
p516
sg9
VDragonite
p517
sg11
VPi,Ev,
p518
sg13
VSky
p519
sg15
g63
sg17
V56
p520
sg19
V0
p521
sba.