(lp0
ccopy_reg
_reconstructor
p1
(c__main__
WildPokemon
p2
c__builtin__
object
p3
Ntp4
Rp5
(dp6
VpDexNo
p7
V021
p8
sVpSpecies
p9
VSpearow
p10
sVpGames
p11
VFR,LG,
p12
sVpArea
p13
VGrass
p14
sVpMinLevel
p15
V30
p16
sVpMaxLevel
p17
V32
p18
sVpRate
p19
V25
p20
sbag1
(g2
g3
Ntp21
Rp22
(dp23
g7
V022
p24
sg9
VFearow
p25
sg11
VFR,LG,
p26
sg13
VGrass
p27
sg15
V36
p28
sg17
g28
sg19
V10
p29
sbag1
(g2
g3
Ntp30
Rp31
(dp32
g7
V052
p33
sg9
VMeowth
p34
sg11
VFR,LG,
p35
sg13
VGrass
p36
sg15
V31
p37
sg17
g37
sg19
V10
p38
sbag1
(g2
g3
Ntp39
Rp40
(dp41
g7
V053
p42
sg9
VPersian
p43
sg11
VFR,LG,
p44
sg13
VGrass
p45
sg15
V37
p46
sg17
V40
p47
sg19
V5
p48
sbag1
(g2
g3
Ntp49
Rp50
(dp51
g7
V054
p52
sg9
VPsyduck
p53
sg11
VFR,
p54
sg13
VGrass
p55
sg15
V34
p56
sg17
g56
sg19
V5
p57
sbag1
(g2
g3
Ntp58
Rp59
(dp60
g7
V074
p61
sg9
VGeodude
p62
sg11
VFR,LG,
p63
sg13
VGrass
p64
sg15
V31
p65
sg17
g65
sg19
V10
p66
sbag1
(g2
g3
Ntp67
Rp68
(dp69
g7
V077
p70
sg9
VPonyta
p71
sg11
VFR,LG,
p72
sg13
VGrass
p73
sg15
V31
p74
sg17
V34
p75
sg19
V30
p76
sbag1
(g2
g3
Ntp77
Rp78
(dp79
g7
V078
p80
sg9
VRapidash
p81
sg11
VFR,LG,
p82
sg13
VGrass
p83
sg15
V37
p84
sg17
V40
p85
sg19
V5
p86
sbag1
(g2
g3
Ntp87
Rp88
(dp89
g7
V079
p90
sg9
VSlowpoke
p91
sg11
VLG,
p92
sg13
VGrass
p93
sg15
V34
p94
sg17
g94
sg19
V5
p95
sbag1
(g2
g3
Ntp96
Rp97
(dp98
g7
V072
p99
sg9
VTentacool
p100
sg11
VFR,LG,
p101
sg13
VSurf
p102
sg15
V5
p103
sg17
V40
p104
sg19
V95
p105
sbag1
(g2
g3
Ntp106
Rp107
(dp108
g7
V073
p109
sg9
VTentacruel
p110
sg11
VFR,LG,
p111
sg13
VSurf
p112
sg15
V35
p113
sg17
V40
p114
sg19
V5
p115
sbag1
(g2
g3
Ntp116
Rp117
(dp118
g7
V129
p119
sg9
VMagikarp
p120
sg11
VFR,LG,
p121
sg13
VFish Old
p122
sg15
g103
sg17
g103
sg19
V100
p123
sbag1
(g2
g3
Ntp124
Rp125
(dp126
g7
V098
p127
sg9
VKrabby
p128
sg11
g92
sg13
VFish Good
p129
sg15
g103
sg17
V15
p130
sg19
V80
p131
sbag1
(g2
g3
Ntp132
Rp133
(dp134
g7
V116
p135
sg9
VHorsea
p136
sg11
g54
sg13
VFish Good
p137
sg15
g103
sg17
V15
p138
sg19
V80
p139
sbag1
(g2
g3
Ntp140
Rp141
(dp142
g7
V129
p143
sg9
VMagikarp
p144
sg11
VFR,LG,
p145
sg13
VFish Good
p146
sg15
g103
sg17
V15
p147
sg19
V20
p148
sbag1
(g2
g3
Ntp149
Rp150
(dp151
g7
V054
p152
sg9
VPsyduck
p153
sg11
g54
sg13
VFish Super
p154
sg15
V25
p155
sg17
V35
p156
sg19
V1
p157
sbag1
(g2
g3
Ntp158
Rp159
(dp160
g7
V079
p161
sg9
VSlowpoke
p162
sg11
g92
sg13
VFish Super
p163
sg15
V25
p164
sg17
V35
p165
sg19
V1
p166
sbag1
(g2
g3
Ntp167
Rp168
(dp169
g7
V098
p170
sg9
VKrabby
p171
sg11
g92
sg13
VFish Super
p172
sg15
V15
p173
sg17
V25
p174
sg19
V80
p175
sbag1
(g2
g3
Ntp176
Rp177
(dp178
g7
V099
p179
sg9
VKingler
p180
sg11
g92
sg13
VFish Super
p181
sg15
V25
p182
sg17
V35
p183
sg19
V4
p184
sbag1
(g2
g3
Ntp185
Rp186
(dp187
g7
V116
p188
sg9
VHorsea
p189
sg11
g54
sg13
VFish Super
p190
sg15
V15
p191
sg17
V25
p192
sg19
V80
p193
sbag1
(g2
g3
Ntp194
Rp195
(dp196
g7
V117
p197
sg9
VSeadra
p198
sg11
g54
sg13
VFish Super
p199
sg15
V25
p200
sg17
V35
p201
sg19
V4
p202
sbag1
(g2
g3
Ntp203
Rp204
(dp205
g7
V130
p206
sg9
VGyarados
p207
sg11
VFR,LG,
p208
sg13
VFish Super
p209
sg15
V15
p210
sg17
V25
p211
sg19
V15
p212
sbag1
(g2
g3
Ntp213
Rp214
(dp215
g7
V074
p216
sg9
VGeodude
p217
sg11
VFR,LG,
p218
sg13
VRock Smash
p219
sg15
g103
sg17
V30
p220
sg19
V95
p221
sbag1
(g2
g3
Ntp222
Rp223
(dp224
g7
V075
p225
sg9
VGraveler
p226
sg11
VFR,LG,
p227
sg13
VRock Smash
p228
sg15
V25
p229
sg17
V40
p230
sg19
V5
p231
sba.