(lp0
ccopy_reg
_reconstructor
p1
(c__main__
WildPokemon
p2
c__builtin__
object
p3
Ntp4
Rp5
(dp6
VpDexNo
p7
V051
p8
sVpSpecies
p9
VDugtrio
p10
sVpGames
p11
VSw,Sh,
p12
sVpArea
p13
VGrass
p14
sVpMinLevel
p15
V50
p16
sVpMaxLevel
p17
V52
p18
sVpRate
p19
V0
p20
sbag1
(g2
g3
Ntp21
Rp22
(dp23
g7
V112
p24
sg9
VRhydon
p25
sg11
VSw,
p26
sg13
VGrass
p27
sg15
V50
p28
sg17
V52
p29
sg19
g20
sbag1
(g2
g3
Ntp30
Rp31
(dp32
g7
V112
p33
sg9
VRhydon
p34
sg11
VSh,
p35
sg13
VGrass
p36
sg15
V50
p37
sg17
V52
p38
sg19
g20
sbag1
(g2
g3
Ntp39
Rp40
(dp41
g7
V122
p42
sg9
VMr. Mime
p43
sg11
VSw,Sh,
p44
sg13
VGrass
p45
sg15
V50
p46
sg17
V52
p47
sg19
g20
sbag1
(g2
g3
Ntp48
Rp49
(dp50
g7
V132
p51
sg9
VDitto
p52
sg11
VSw,Sh,
p53
sg13
VGrass
p54
sg15
V50
p55
sg17
V52
p56
sg19
g20
sbag1
(g2
g3
Ntp57
Rp58
(dp59
g7
V195
p60
sg9
VQuagsire
p61
sg11
VSw,Sh,
p62
sg13
VGrass
p63
sg15
V50
p64
sg17
V52
p65
sg19
g20
sbag1
(g2
g3
Ntp66
Rp67
(dp68
g7
V221
p69
sg9
VPiloswine
p70
sg11
VSw,Sh,
p71
sg13
VGrass
p72
sg15
V50
p73
sg17
V52
p74
sg19
g20
sbag1
(g2
g3
Ntp75
Rp76
(dp77
g7
V246
p78
sg9
VLarvitar
p79
sg11
g35
sg13
VGrass
p80
sg15
V50
p81
sg17
V52
p82
sg19
g20
sbag1
(g2
g3
Ntp83
Rp84
(dp85
g7
V247
p86
sg9
VPupitar
p87
sg11
g35
sg13
VGrass
p88
sg15
V50
p89
sg17
V52
p90
sg19
g20
sbag1
(g2
g3
Ntp91
Rp92
(dp93
g7
V279
p94
sg9
VPelipper
p95
sg11
VSw,Sh,
p96
sg13
VGrass
p97
sg15
V50
p98
sg17
V52
p99
sg19
g20
sbag1
(g2
g3
Ntp100
Rp101
(dp102
g7
V282
p103
sg9
VGardevoir
p104
sg11
VSw,Sh,
p105
sg13
VGrass
p106
sg15
V50
p107
sg17
V52
p108
sg19
g20
sbag1
(g2
g3
Ntp109
Rp110
(dp111
g7
V344
p112
sg9
VClaydol
p113
sg11
VSw,Sh,
p114
sg13
VGrass
p115
sg15
V50
p116
sg17
V52
p117
sg19
g20
sbag1
(g2
g3
Ntp118
Rp119
(dp120
g7
V435
p121
sg9
VSkuntank
p122
sg11
g26
sg13
VGrass
p123
sg15
V50
p124
sg17
V52
p125
sg19
g20
sbag1
(g2
g3
Ntp126
Rp127
(dp128
g7
V435
p129
sg9
VSkuntank
p130
sg11
g35
sg13
VGrass
p131
sg15
V50
p132
sg17
V52
p133
sg19
g20
sbag1
(g2
g3
Ntp134
Rp135
(dp136
g7
V437
p137
sg9
VBronzong
p138
sg11
VSw,Sh,
p139
sg13
VGrass
p140
sg15
V50
p141
sg17
V52
p142
sg19
g20
sbag1
(g2
g3
Ntp143
Rp144
(dp145
g7
V450
p146
sg9
VHippowdon
p147
sg11
VSw,Sh,
p148
sg13
VGrass
p149
sg15
V50
p150
sg17
V52
p151
sg19
g20
sbag1
(g2
g3
Ntp152
Rp153
(dp154
g7
V593
p155
sg9
VJellicent
p156
sg11
VSw,Sh,
p157
sg13
VGrass
p158
sg15
V50
p159
sg17
V52
p160
sg19
g20
sbag1
(g2
g3
Ntp161
Rp162
(dp163
g7
V618
p164
sg9
VStunfisk
p165
sg11
VSw,Sh,
p166
sg13
VGrass
p167
sg15
V50
p168
sg17
V52
p169
sg19
g20
sbag1
(g2
g3
Ntp170
Rp171
(dp172
g7
V633
p173
sg9
VDeino
p174
sg11
g26
sg13
VGrass
p175
sg15
V50
p176
sg17
V52
p177
sg19
g20
sbag1
(g2
g3
Ntp178
Rp179
(dp180
g7
V634
p181
sg9
VZweilous
p182
sg11
g26
sg13
VGrass
p183
sg15
V50
p184
sg17
V52
p185
sg19
g20
sbag1
(g2
g3
Ntp186
Rp187
(dp188
g7
V675
p189
sg9
VPangoro
p190
sg11
g26
sg13
VGrass
p191
sg15
V50
p192
sg17
V52
p193
sg19
g20
sbag1
(g2
g3
Ntp194
Rp195
(dp196
g7
V675
p197
sg9
VPangoro
p198
sg11
g35
sg13
VGrass
p199
sg15
V50
p200
sg17
V52
p201
sg19
g20
sbag1
(g2
g3
Ntp202
Rp203
(dp204
g7
V680
p205
sg9
VDoublade
p206
sg11
VSw,Sh,
p207
sg13
VGrass
p208
sg15
V50
p209
sg17
V52
p210
sg19
g20
sbag1
(g2
g3
Ntp211
Rp212
(dp213
g7
V689
p214
sg9
VBarbaracle
p215
sg11
VSw,Sh,
p216
sg13
VGrass
p217
sg15
V50
p218
sg17
V52
p219
sg19
g20
sbag1
(g2
g3
Ntp220
Rp221
(dp222
g7
V704
p223
sg9
VGoomy
p224
sg11
g35
sg13
VGrass
p225
sg15
V50
p226
sg17
V52
p227
sg19
g20
sbag1
(g2
g3
Ntp228
Rp229
(dp230
g7
V705
p231
sg9
VSliggoo
p232
sg11
g35
sg13
VGrass
p233
sg15
V50
p234
sg17
V52
p235
sg19
g20
sbag1
(g2
g3
Ntp236
Rp237
(dp238
g7
V760
p239
sg9
VBewear
p240
sg11
VSw,Sh,
p241
sg13
VGrass
p242
sg15
V50
p243
sg17
V52
p244
sg19
g20
sbag1
(g2
g3
Ntp245
Rp246
(dp247
g7
V776
p248
sg9
VTurtonator
p249
sg11
g26
sg13
VGrass
p250
sg15
V50
p251
sg17
V52
p252
sg19
g20
sbag1
(g2
g3
Ntp253
Rp254
(dp255
g7
V777
p256
sg9
VTogedemaru
p257
sg11
VSw,Sh,
p258
sg13
VGrass
p259
sg15
V50
p260
sg17
V52
p261
sg19
g20
sbag1
(g2
g3
Ntp262
Rp263
(dp264
g7
V780
p265
sg9
VDrampa
p266
sg11
g35
sg13
VGrass
p267
sg15
V50
p268
sg17
V52
p269
sg19
g20
sbag1
(g2
g3
Ntp270
Rp271
(dp272
g7
V782
p273
sg9
VJangmo-o
p274
sg11
g26
sg13
VGrass
p275
sg15
V50
p276
sg17
V52
p277
sg19
g20
sbag1
(g2
g3
Ntp278
Rp279
(dp280
g7
V783
p281
sg9
VHakamo-o
p282
sg11
g26
sg13
VGrass
p283
sg15
V50
p284
sg17
V52
p285
sg19
g20
sbag1
(g2
g3
Ntp286
Rp287
(dp288
g7
V823
p289
sg9
VCorviknight
p290
sg11
g26
sg13
VGrass
p291
sg15
V50
p292
sg17
V52
p293
sg19
g20
sbag1
(g2
g3
Ntp294
Rp295
(dp296
g7
V823
p297
sg9
VCorviknight
p298
sg11
g35
sg13
VGrass
p299
sg15
V50
p300
sg17
V52
p301
sg19
g20
sbag1
(g2
g3
Ntp302
Rp303
(dp304
g7
V826
p305
sg9
VOrbeetle
p306
sg11
VSw,Sh,
p307
sg13
VGrass
p308
sg15
V50
p309
sg17
V52
p310
sg19
g20
sbag1
(g2
g3
Ntp311
Rp312
(dp313
g7
V834
p314
sg9
VDrednaw
p315
sg11
g26
sg13
VGrass
p316
sg15
V50
p317
sg17
V52
p318
sg19
g20
sbag1
(g2
g3
Ntp319
Rp320
(dp321
g7
V834
p322
sg9
VDrednaw
p323
sg11
g35
sg13
VGrass
p324
sg15
V50
p325
sg17
V52
p326
sg19
g20
sbag1
(g2
g3
Ntp327
Rp328
(dp329
g7
V836
p330
sg9
VBoltund
p331
sg11
g26
sg13
VGrass
p332
sg15
V50
p333
sg17
V52
p334
sg19
g20
sbag1
(g2
g3
Ntp335
Rp336
(dp337
g7
V836
p338
sg9
VBoltund
p339
sg11
g35
sg13
VGrass
p340
sg15
V50
p341
sg17
V52
p342
sg19
g20
sbag1
(g2
g3
Ntp343
Rp344
(dp345
g7
V839
p346
sg9
VCoalossal
p347
sg11
VSw,Sh,
p348
sg13
VGrass
p349
sg15
V50
p350
sg17
V52
p351
sg19
g20
sbag1
(g2
g3
Ntp352
Rp353
(dp354
g7
V844
p355
sg9
VSandaconda
p356
sg11
g26
sg13
VGrass
p357
sg15
V50
p358
sg17
V52
p359
sg19
g20
sbag1
(g2
g3
Ntp360
Rp361
(dp362
g7
V844
p363
sg9
VSandaconda
p364
sg11
g35
sg13
VGrass
p365
sg15
V50
p366
sg17
V52
p367
sg19
g20
sbag1
(g2
g3
Ntp368
Rp369
(dp370
g7
V845
p371
sg9
VCramorant
p372
sg11
VSw,Sh,
p373
sg13
VGrass
p374
sg15
V50
p375
sg17
V52
p376
sg19
g20
sbag1
(g2
g3
Ntp377
Rp378
(dp379
g7
V861
p380
sg9
VGrimmsnarl
p381
sg11
VSw,Sh,
p382
sg13
VGrass
p383
sg15
V50
p384
sg17
V52
p385
sg19
g20
sbag1
(g2
g3
Ntp386
Rp387
(dp388
g7
V862
p389
sg9
VObstagoon
p390
sg11
g26
sg13
VGrass
p391
sg15
V50
p392
sg17
V52
p393
sg19
g20
sbag1
(g2
g3
Ntp394
Rp395
(dp396
g7
V862
p397
sg9
VObstagoon
p398
sg11
g35
sg13
VGrass
p399
sg15
V50
p400
sg17
V52
p401
sg19
g20
sbag1
(g2
g3
Ntp402
Rp403
(dp404
g7
V863
p405
sg9
VPerrserker
p406
sg11
VSw,Sh,
p407
sg13
VGrass
p408
sg15
V50
p409
sg17
V52
p410
sg19
g20
sbag1
(g2
g3
Ntp411
Rp412
(dp413
g7
V870
p414
sg9
VFalinks
p415
sg11
VSw,Sh,
p416
sg13
VGrass
p417
sg15
V50
p418
sg17
V52
p419
sg19
g20
sbag1
(g2
g3
Ntp420
Rp421
(dp422
g7
V872
p423
sg9
VSnom
p424
sg11
VSw,Sh,
p425
sg13
VGrass
p426
sg15
V50
p427
sg17
V52
p428
sg19
g20
sbag1
(g2
g3
Ntp429
Rp430
(dp431
g7
V874
p432
sg9
VStonjourner
p433
sg11
g26
sg13
VGrass
p434
sg15
V50
p435
sg17
V52
p436
sg19
g20
sbag1
(g2
g3
Ntp437
Rp438
(dp439
g7
V875
p440
sg9
VEiscue
p441
sg11
g35
sg13
VGrass
p442
sg15
V50
p443
sg17
V52
p444
sg19
g20
sbag1
(g2
g3
Ntp445
Rp446
(dp447
g7
V876
p448
sg9
VIndeedee
p449
sg11
g26
sg13
VGrass
p450
sg15
V50
p451
sg17
V52
p452
sg19
g20
sbag1
(g2
g3
Ntp453
Rp454
(dp455
g7
V876
p456
sg9
VIndeedee
p457
sg11
g35
sg13
VGrass
p458
sg15
V50
p459
sg17
V52
p460
sg19
g20
sbag1
(g2
g3
Ntp461
Rp462
(dp463
g7
V884
p464
sg9
VDuraludon
p465
sg11
VSw,Sh,
p466
sg13
VGrass
p467
sg15
V50
p468
sg17
V52
p469
sg19
g20
sbag1
(g2
g3
Ntp470
Rp471
(dp472
g7
V885
p473
sg9
VDreepy
p474
sg11
VSw,Sh,
p475
sg13
VGrass
p476
sg15
V50
p477
sg17
V52
p478
sg19
g20
sbag1
(g2
g3
Ntp479
Rp480
(dp481
g7
V420
p482
sg9
VCherubi
p483
sg11
VSw,Sh,
p484
sg13
VBerry tree
p485
sg15
V50
p486
sg17
V52
p487
sg19
V5
p488
sbag1
(g2
g3
Ntp489
Rp490
(dp491
g7
V820
p492
sg9
VGreedent
p493
sg11
VSw,Sh,
p494
sg13
VBerry tree
p495
sg15
V50
p496
sg17
V52
p497
sg19
V95
p498
sbag1
(g2
g3
Ntp499
Rp500
(dp501
g7
V130
p502
sg9
VGyarados
p503
sg11
VSw,Sh,
p504
sg13
VFishing
p505
sg15
V50
p506
sg17
V52
p507
sg19
V5
p508
sbag1
(g2
g3
Ntp509
Rp510
(dp511
g7
V171
p512
sg9
VLanturn
p513
sg11
VSw,Sh,
p514
sg13
VFishing
p515
sg15
V50
p516
sg17
V52
p517
sg19
V35
p518
sbag1
(g2
g3
Ntp519
Rp520
(dp521
g7
V211
p522
sg9
VQwilfish
p523
sg11
VSw,Sh,
p524
sg13
VFishing
p525
sg15
V50
p526
sg17
V52
p527
sg19
V10
p528
sbag1
(g2
g3
Ntp529
Rp530
(dp531
g7
V847
p532
sg9
VBarraskewda
p533
sg11
VSw,Sh,
p534
sg13
VFishing
p535
sg15
V50
p536
sg17
V52
p537
sg19
V50
p538
sbag1
(g2
g3
Ntp539
Rp540
(dp541
g7
V038
p542
sg9
VNinetales
p543
sg11
g26
sg13
VGrass
p544
sg15
V55
p545
sg17
V58
p546
sg19
g20
sbag1
(g2
g3
Ntp547
Rp548
(dp549
g7
V059
p550
sg9
VArcanine
p551
sg11
g35
sg13
VGrass
p552
sg15
V55
p553
sg17
V58
p554
sg19
g20
sbag1
(g2
g3
Ntp555
Rp556
(dp557
g7
V110
p558
sg9
VWeezing
p559
sg11
VSw,Sh,
p560
sg13
VGrass
p561
sg15
V55
p562
sg17
V58
p563
sg19
g20
sbag1
(g2
g3
Ntp564
Rp565
(dp566
g7
V132
p567
sg9
VDitto
p568
sg11
VSw,Sh,
p569
sg13
VGrass
p570
sg15
V55
p571
sg17
V58
p572
sg19
V10
p573
sbag1
(g2
g3
Ntp574
Rp575
(dp576
g7
V202
p577
sg9
VWobbuffet
p578
sg11
VSw,Sh,
p579
sg13
VGrass
p580
sg15
V55
p581
sg17
V58
p582
sg19
g20
sbag1
(g2
g3
Ntp583
Rp584
(dp585
g7
V237
p586
sg9
VHitmontop
p587
sg11
VSw,Sh,
p588
sg13
VGrass
p589
sg15
V55
p590
sg17
V58
p591
sg19
g20
sbag1
(g2
g3
Ntp592
Rp593
(dp594
g7
V247
p595
sg9
VPupitar
p596
sg11
g35
sg13
VGrass
p597
sg15
V55
p598
sg17
V58
p599
sg19
g20
sbag1
(g2
g3
Ntp600
Rp601
(dp602
g7
V330
p603
sg9
VFlygon
p604
sg11
g26
sg13
VGrass
p605
sg15
V55
p606
sg17
V58
p607
sg19
g20
sbag1
(g2
g3
Ntp608
Rp609
(dp610
g7
V330
p611
sg9
VFlygon
p612
sg11
g35
sg13
VGrass
p613
sg15
V55
p614
sg17
V58
p615
sg19
g20
sbag1
(g2
g3
Ntp616
Rp617
(dp618
g7
V362
p619
sg9
VGlalie
p620
sg11
VSw,Sh,
p621
sg13
VGrass
p622
sg15
V55
p623
sg17
V58
p624
sg19
g20
sbag1
(g2
g3
Ntp625
Rp626
(dp627
g7
V452
p628
sg9
VDrapion
p629
sg11
VSw,Sh,
p630
sg13
VGrass
p631
sg15
V55
p632
sg17
V58
p633
sg19
g20
sbag1
(g2
g3
Ntp634
Rp635
(dp636
g7
V460
p637
sg9
VAbomasnow
p638
sg11
VSw,Sh,
p639
sg13
VGrass
p640
sg15
V55
p641
sg17
V58
p642
sg19
g20
sbag1
(g2
g3
Ntp643
Rp644
(dp645
g7
V479
p646
sg9
VRotom
p647
sg11
VSw,Sh,
p648
sg13
VGrass
p649
sg15
V55
p650
sg17
V58
p651
sg19
g20
sbag1
(g2
g3
Ntp652
Rp653
(dp654
g7
V525
p655
sg9
VBoldore
p656
sg11
VSw,Sh,
p657
sg13
VGrass
p658
sg15
V55
p659
sg17
V58
p660
sg19
g20
sbag1
(g2
g3
Ntp661
Rp662
(dp663
g7
V530
p664
sg9
VExcadrill
p665
sg11
VSw,Sh,
p666
sg13
VGrass
p667
sg15
V55
p668
sg17
V58
p669
sg19
g20
sbag1
(g2
g3
Ntp670
Rp671
(dp672
g7
V537
p673
sg9
VSeismitoad
p674
sg11
VSw,Sh,
p675
sg13
VGrass
p676
sg15
V55
p677
sg17
V58
p678
sg19
g20
sbag1
(g2
g3
Ntp679
Rp680
(dp681
g7
V561
p682
sg9
VSigilyph
p683
sg11
VSw,Sh,
p684
sg13
VGrass
p685
sg15
V55
p686
sg17
V58
p687
sg19
g20
sbag1
(g2
g3
Ntp688
Rp689
(dp690
g7
V569
p691
sg9
VGarbodor
p692
sg11
VSw,Sh,
p693
sg13
VGrass
p694
sg15
V55
p695
sg17
V58
p696
sg19
g20
sbag1
(g2
g3
Ntp697
Rp698
(dp699
g7
V576
p700
sg9
VGothitelle
p701
sg11
g26
sg13
VGrass
p702
sg15
V55
p703
sg17
V58
p704
sg19
g20
sbag1
(g2
g3
Ntp705
Rp706
(dp707
g7
V579
p708
sg9
VReuniclus
p709
sg11
g35
sg13
VGrass
p710
sg15
V55
p711
sg17
V58
p712
sg19
g20
sbag1
(g2
g3
Ntp713
Rp714
(dp715
g7
V584
p716
sg9
VVanilluxe
p717
sg11
VSw,Sh,
p718
sg13
VGrass
p719
sg15
V55
p720
sg17
V58
p721
sg19
g20
sbag1
(g2
g3
Ntp722
Rp723
(dp724
g7
V596
p725
sg9
VGalvantula
p726
sg11
g26
sg13
VGrass
p727
sg15
V55
p728
sg17
V58
p729
sg19
g20
sbag1
(g2
g3
Ntp730
Rp731
(dp732
g7
V596
p733
sg9
VGalvantula
p734
sg11
g35
sg13
VGrass
p735
sg15
V55
p736
sg17
V58
p737
sg19
g20
sbag1
(g2
g3
Ntp738
Rp739
(dp740
g7
V601
p741
sg9
VKlinklang
p742
sg11
VSw,Sh,
p743
sg13
VGrass
p744
sg15
V55
p745
sg17
V58
p746
sg19
g20
sbag1
(g2
g3
Ntp747
Rp748
(dp749
g7
V606
p750
sg9
VBeheeyem
p751
sg11
VSw,Sh,
p752
sg13
VGrass
p753
sg15
V55
p754
sg17
V58
p755
sg19
g20
sbag1
(g2
g3
Ntp756
Rp757
(dp758
g7
V608
p759
sg9
VLampent
p760
sg11
g26
sg13
VGrass
p761
sg15
V55
p762
sg17
V58
p763
sg19
g20
sbag1
(g2
g3
Ntp764
Rp765
(dp766
g7
V608
p767
sg9
VLampent
p768
sg11
g35
sg13
VGrass
p769
sg15
V55
p770
sg17
V58
p771
sg19
g20
sbag1
(g2
g3
Ntp772
Rp773
(dp774
g7
V612
p775
sg9
VHaxorus
p776
sg11
g26
sg13
VGrass
p777
sg15
V55
p778
sg17
V58
p779
sg19
g20
sbag1
(g2
g3
Ntp780
Rp781
(dp782
g7
V612
p783
sg9
VHaxorus
p784
sg11
g35
sg13
VGrass
p785
sg15
V55
p786
sg17
V58
p787
sg19
g20
sbag1
(g2
g3
Ntp788
Rp789
(dp790
g7
V623
p791
sg9
VGolurk
p792
sg11
VSw,Sh,
p793
sg13
VGrass
p794
sg15
V55
p795
sg17
V58
p796
sg19
g20
sbag1
(g2
g3
Ntp797
Rp798
(dp799
g7
V625
p800
sg9
VBisharp
p801
sg11
VSw,Sh,
p802
sg13
VGrass
p803
sg15
V55
p804
sg17
V58
p805
sg19
g20
sbag1
(g2
g3
Ntp806
Rp807
(dp808
g7
V628
p809
sg9
VBraviary
p810
sg11
g26
sg13
VGrass
p811
sg15
V55
p812
sg17
V58
p813
sg19
g20
sbag1
(g2
g3
Ntp814
Rp815
(dp816
g7
V630
p817
sg9
VMandibuzz
p818
sg11
g35
sg13
VGrass
p819
sg15
V55
p820
sg17
V58
p821
sg19
g20
sbag1
(g2
g3
Ntp822
Rp823
(dp824
g7
V631
p825
sg9
VHeatmor
p826
sg11
g26
sg13
VGrass
p827
sg15
V55
p828
sg17
V58
p829
sg19
g20
sbag1
(g2
g3
Ntp830
Rp831
(dp832
g7
V631
p833
sg9
VHeatmor
p834
sg11
g35
sg13
VGrass
p835
sg15
V55
p836
sg17
V58
p837
sg19
g20
sbag1
(g2
g3
Ntp838
Rp839
(dp840
g7
V632
p841
sg9
VDurant
p842
sg11
g26
sg13
VGrass
p843
sg15
V55
p844
sg17
V58
p845
sg19
g20
sbag1
(g2
g3
Ntp846
Rp847
(dp848
g7
V632
p849
sg9
VDurant
p850
sg11
g35
sg13
VGrass
p851
sg15
V55
p852
sg17
V58
p853
sg19
g20
sbag1
(g2
g3
Ntp854
Rp855
(dp856
g7
V634
p857
sg9
VZweilous
p858
sg11
g26
sg13
VGrass
p859
sg15
V55
p860
sg17
V58
p861
sg19
g20
sbag1
(g2
g3
Ntp862
Rp863
(dp864
g7
V712
p865
sg9
VBergmite
p866
sg11
VSw,Sh,
p867
sg13
VGrass
p868
sg15
V55
p869
sg17
V58
p870
sg19
g20
sbag1
(g2
g3
Ntp871
Rp872
(dp873
g7
V715
p874
sg9
VNoivern
p875
sg11
g26
sg13
VGrass
p876
sg15
V55
p877
sg17
V58
p878
sg19
g20
sbag1
(g2
g3
Ntp879
Rp880
(dp881
g7
V715
p882
sg9
VNoivern
p883
sg11
g35
sg13
VGrass
p884
sg15
V55
p885
sg17
V58
p886
sg19
g20
sbag1
(g2
g3
Ntp887
Rp888
(dp889
g7
V752
p890
sg9
VAraquanid
p891
sg11
VSw,Sh,
p892
sg13
VGrass
p893
sg15
V55
p894
sg17
V58
p895
sg19
g20
sbag1
(g2
g3
Ntp896
Rp897
(dp898
g7
V768
p899
sg9
VGolisopod
p900
sg11
VSw,Sh,
p901
sg13
VGrass
p902
sg15
V55
p903
sg17
V58
p904
sg19
g20
sbag1
(g2
g3
Ntp905
Rp906
(dp907
g7
V858
p908
sg9
VHatterene
p909
sg11
VSw,Sh,
p910
sg13
VGrass
p911
sg15
V55
p912
sg17
V58
p913
sg19
g20
sbag1
(g2
g3
Ntp914
Rp915
(dp916
g7
V877
p917
sg9
VMorpeko
p918
sg11
VSw,Sh,
p919
sg13
VGrass
p920
sg15
V55
p921
sg17
V58
p922
sg19
g20
sbag1
(g2
g3
Ntp923
Rp924
(dp925
g7
V879
p926
sg9
VCopperajah
p927
sg11
VSw,Sh,
p928
sg13
VGrass
p929
sg15
V55
p930
sg17
V58
p931
sg19
g20
sbag1
(g2
g3
Ntp932
Rp933
(dp934
g7
V886
p935
sg9
VDrakloak
p936
sg11
VSw,Sh,
p937
sg13
VGrass
p938
sg15
V55
p939
sg17
V58
p940
sg19
g20
sbag1
(g2
g3
Ntp941
Rp942
(dp943
g7
V226
p944
sg9
VMantine
p945
sg11
VSw,Sh,
p946
sg13
VSurf
p947
sg15
V40
p948
sg17
V43
p949
sg19
g20
sbag1
(g2
g3
Ntp950
Rp951
(dp952
g7
V458
p953
sg9
VMantyke
p954
sg11
VSw,Sh,
p955
sg13
VSurf
p956
sg15
V40
p957
sg17
V43
p958
sg19
g20
sbag1
(g2
g3
Ntp959
Rp960
(dp961
g7
V582
p962
sg9
VVanillite
p963
sg11
VSw,Sh,
p964
sg13
VSurf
p965
sg15
V40
p966
sg17
V43
p967
sg19
g20
sbag1
(g2
g3
Ntp968
Rp969
(dp970
g7
V847
p971
sg9
VBarraskewda
p972
sg11
VSw,Sh,
p973
sg13
VSurf
p974
sg15
V40
p975
sg17
V43
p976
sg19
V5
p977
sbag1
(g2
g3
Ntp978
Rp979
(dp980
g7
V119
p981
sg9
VSeaking
p982
sg11
VSw,Sh,
p983
sg13
VWanderer
p984
sg15
V46
p985
sg17
g985
sg19
g20
sbag1
(g2
g3
Ntp986
Rp987
(dp988
g7
V279
p989
sg9
VPelipper
p990
sg11
VSw,Sh,
p991
sg13
VWanderer
p992
sg15
V46
p993
sg17
g993
sg19
g20
sbag1
(g2
g3
Ntp994
Rp995
(dp996
g7
V584
p997
sg9
VVanilluxe
p998
sg11
VSw,Sh,
p999
sg13
VWanderer
p1000
sg15
V47
p1001
sg17
g1001
sg19
g20
sbag1
(g2
g3
Ntp1002
Rp1003
(dp1004
g7
V593
p1005
sg9
VJellicent
p1006
sg11
VSw,Sh,
p1007
sg13
VWanderer
p1008
sg15
V46
p1009
sg17
g1009
sg19
g20
sbag1
(g2
g3
Ntp1010
Rp1011
(dp1012
g7
V130
p1013
sg9
VGyarados
p1014
sg11
VSw,Sh,
p1015
sg13
VWanderer
p1016
sg15
V60
p1017
sg17
g1017
sg19
g20
sbag1
(g2
g3
Ntp1018
Rp1019
(dp1020
g7
V350
p1021
sg9
VMilotic
p1022
sg11
VSw,Sh,
p1023
sg13
VWanderer
p1024
sg15
V60
p1025
sg17
g1025
sg19
g20
sbag1
(g2
g3
Ntp1026
Rp1027
(dp1028
g7
V119
p1029
sg9
VSeaking
p1030
sg11
VSw,Sh,
p1031
sg13
VWanderer
p1032
sg15
V46
p1033
sg17
g1033
sg19
g20
sbag1
(g2
g3
Ntp1034
Rp1035
(dp1036
g7
V171
p1037
sg9
VLanturn
p1038
sg11
VSw,Sh,
p1039
sg13
VWanderer
p1040
sg15
V46
p1041
sg17
g1041
sg19
g20
sbag1
(g2
g3
Ntp1042
Rp1043
(dp1044
g7
V584
p1045
sg9
VVanilluxe
p1046
sg11
VSw,Sh,
p1047
sg13
VWanderer
p1048
sg15
V47
p1049
sg17
g1049
sg19
g20
sbag1
(g2
g3
Ntp1050
Rp1051
(dp1052
g7
V593
p1053
sg9
VJellicent
p1054
sg11
VSw,Sh,
p1055
sg13
VWanderer
p1056
sg15
V46
p1057
sg17
g1057
sg19
g20
sbag1
(g2
g3
Ntp1058
Rp1059
(dp1060
g7
V130
p1061
sg9
VGyarados
p1062
sg11
VSw,Sh,
p1063
sg13
VWanderer
p1064
sg15
V56
p1065
sg17
g1065
sg19
g20
sbag1
(g2
g3
Ntp1066
Rp1067
(dp1068
g7
V131
p1069
sg9
VLapras
p1070
sg11
VSw,Sh,
p1071
sg13
VWanderer
p1072
sg15
V56
p1073
sg17
g1073
sg19
g20
sbag1
(g2
g3
Ntp1074
Rp1075
(dp1076
g7
V853
p1077
sg9
VGrapploct
p1078
sg11
VSw,Sh,
p1079
sg13
VWanderer
p1080
sg15
V56
p1081
sg17
g1081
sg19
V0
p1082
sbag1
(g2
g3
Ntp1083
Rp1084
(dp1085
g7
V134
p1086
sg9
VVaporeon
p1087
sg11
VSw,Sh,
p1088
sg13
VWanderer
p1089
sg15
V56
p1090
sg17
g1090
sg19
g20
sbag1
(g2
g3
Ntp1091
Rp1092
(dp1093
g7
V135
p1094
sg9
VJolteon
p1095
sg11
VSw,Sh,
p1096
sg13
VWanderer
p1097
sg15
V56
p1098
sg17
g1098
sg19
g20
sbag1
(g2
g3
Ntp1099
Rp1100
(dp1101
g7
V136
p1102
sg9
VFlareon
p1103
sg11
VSw,Sh,
p1104
sg13
VWanderer
p1105
sg15
V56
p1106
sg17
g1106
sg19
g20
sbag1
(g2
g3
Ntp1107
Rp1108
(dp1109
g7
V196
p1110
sg9
VEspeon
p1111
sg11
VSw,Sh,
p1112
sg13
VWanderer
p1113
sg15
V56
p1114
sg17
g1114
sg19
g20
sbag1
(g2
g3
Ntp1115
Rp1116
(dp1117
g7
V197
p1118
sg9
VUmbreon
p1119
sg11
VSw,Sh,
p1120
sg13
VWanderer
p1121
sg15
V56
p1122
sg17
g1122
sg19
g20
sbag1
(g2
g3
Ntp1123
Rp1124
(dp1125
g7
V470
p1126
sg9
VLeafeon
p1127
sg11
VSw,Sh,
p1128
sg13
VWanderer
p1129
sg15
V56
p1130
sg17
g1130
sg19
g20
sbag1
(g2
g3
Ntp1131
Rp1132
(dp1133
g7
V471
p1134
sg9
VGlaceon
p1135
sg11
VSw,Sh,
p1136
sg13
VWanderer
p1137
sg15
V56
p1138
sg17
g1138
sg19
g20
sbag1
(g2
g3
Ntp1139
Rp1140
(dp1141
g7
V700
p1142
sg9
VSylveon
p1143
sg11
VSw,Sh,
p1144
sg13
VWanderer
p1145
sg15
V56
p1146
sg17
g1146
sg19
g20
sbag1
(g2
g3
Ntp1147
Rp1148
(dp1149
g7
V858
p1150
sg9
VHatterene
p1151
sg11
VSw,Sh,
p1152
sg13
VWanderer
p1153
sg15
V65
p1154
sg17
g1154
sg19
V0
p1155
sbag1
(g2
g3
Ntp1156
Rp1157
(dp1158
g7
V112
p1159
sg9
VRhydon
p1160
sg11
VSw,Sh,
p1161
sg13
VWanderer
p1162
sg15
V60
p1163
sg17
g1163
sg19
g20
sbag1
(g2
g3
Ntp1164
Rp1165
(dp1166
g7
V282
p1167
sg9
VGardevoir
p1168
sg11
VSw,Sh,
p1169
sg13
VWanderer
p1170
sg15
V60
p1171
sg17
g1171
sg19
g20
sbag1
(g2
g3
Ntp1172
Rp1173
(dp1174
g7
V609
p1175
sg9
VChandelure
p1176
sg11
VSw,Sh,
p1177
sg13
VWanderer
p1178
sg15
V60
p1179
sg17
g1179
sg19
g20
sbag1
(g2
g3
Ntp1180
Rp1181
(dp1182
g7
V713
p1183
sg9
VAvalugg
p1184
sg11
VSw,Sh,
p1185
sg13
VWanderer
p1186
sg15
V60
p1187
sg17
g1187
sg19
g20
sbag1
(g2
g3
Ntp1188
Rp1189
(dp1190
g7
V756
p1191
sg9
VShiinotic
p1192
sg11
VSw,Sh,
p1193
sg13
VWanderer
p1194
sg15
V60
p1195
sg17
g1195
sg19
g20
sba.