(lp0
ccopy_reg
_reconstructor
p1
(c__main__
WildPokemon
p2
c__builtin__
object
p3
Ntp4
Rp5
(dp6
VpDexNo
p7
V129
p8
sVpSpecies
p9
VMagikarp
p10
sVpGames
p11
VG,S,C,
p12
sVpArea
p13
VSurf
p14
sVpMinLevel
p15
V10\u201319
p16
sVpMaxLevel
p17
g16
sVpRate
p18
V90
p19
sbag1
(g2
g3
Ntp20
Rp21
(dp22
g7
V130
p23
sg9
VGyarados
p24
sg11
VG,S,C,
p25
sg13
VSurf
p26
sg15
V15\u201319
p27
sg17
g27
sg18
V10
p28
sbag1
(g2
g3
Ntp29
Rp30
(dp31
g7
V129
p32
sg9
VMagikarp
p33
sg11
VG,S,C,
p34
sg13
VFish Old
p35
sg15
V10
p36
sg17
g36
sg18
V100
p37
sbag1
(g2
g3
Ntp38
Rp39
(dp40
g7
V129
p41
sg9
VMagikarp
p42
sg11
VG,S,C,
p43
sg13
VFish Good
p44
sg15
V20
p45
sg17
g45
sg18
V90
p46
sbag1
(g2
g3
Ntp47
Rp48
(dp49
g7
V130
p50
sg9
VGyarados
p51
sg11
VG,S,C,
p52
sg13
VFish Good
p53
sg15
V20
p54
sg17
g54
sg18
V10
p55
sbag1
(g2
g3
Ntp56
Rp57
(dp58
g7
V129
p59
sg9
VMagikarp
p60
sg11
VG,S,C,
p61
sg13
VFish Super
p62
sg15
V40
p63
sg17
g63
sg18
V70
p64
sbag1
(g2
g3
Ntp65
Rp66
(dp67
g7
V130
p68
sg9
VGyarados
p69
sg11
VG,S,C,
p70
sg13
VFish Super
p71
sg15
V40
p72
sg17
g72
sg18
V30
p73
sbag1
(g2
g3
Ntp74
Rp75
(dp76
g7
V010
p77
sg9
VCaterpie
p78
sg11
VG,
p79
sg13
VHeadbutt
p80
sg15
V10
p81
sg17
g81
sg18
V65
p82
sbag1
(g2
g3
Ntp83
Rp84
(dp85
g7
V011
p86
sg9
VMetapod
p87
sg11
g79
sg13
VHeadbutt
p88
sg15
V10
p89
sg17
g89
sg18
V15
p90
sbag1
(g2
g3
Ntp91
Rp92
(dp93
g7
V012
p94
sg9
VButterfree
p95
sg11
g79
sg13
VHeadbutt
p96
sg15
V10
p97
sg17
g97
sg18
V5
p98
sbag1
(g2
g3
Ntp99
Rp100
(dp101
g7
V013
p102
sg9
VWeedle
p103
sg11
VS,
p104
sg13
VHeadbutt
p105
sg15
V10
p106
sg17
g106
sg18
V65
p107
sbag1
(g2
g3
Ntp108
Rp109
(dp110
g7
V014
p111
sg9
VKakuna
p112
sg11
g104
sg13
VHeadbutt
p113
sg15
V10
p114
sg17
g114
sg18
V15
p115
sbag1
(g2
g3
Ntp116
Rp117
(dp118
g7
V015
p119
sg9
VBeedrill
p120
sg11
g104
sg13
VHeadbutt
p121
sg15
V10
p122
sg17
g122
sg18
V5
p123
sbag1
(g2
g3
Ntp124
Rp125
(dp126
g7
V048
p127
sg9
VVenonat
p128
sg11
VC,
p129
sg13
VHeadbutt
p130
sg15
V10
p131
sg17
g131
sg18
V15
p132
sbag1
(g2
g3
Ntp133
Rp134
(dp135
g7
V102
p136
sg9
VExeggcute
p137
sg11
VG,S,
p138
sg13
VHeadbutt
p139
sg15
V10
p140
sg17
g140
sg18
V15
p141
sbag1
(g2
g3
Ntp142
Rp143
(dp144
g7
V102
p145
sg9
VExeggcute
p146
sg11
g129
sg13
VHeadbutt
p147
sg15
V10
p148
sg17
g148
sg18
V20
p149
sbag1
(g2
g3
Ntp150
Rp151
(dp152
g7
V163
p153
sg9
VHoothoot
p154
sg11
g129
sg13
VHeadbutt
p155
sg15
V10
p156
sg17
g156
sg18
V65
p157
sbag1
(g2
g3
Ntp158
Rp159
(dp160
g7
V010
p161
sg9
VCaterpie
p162
sg11
g79
sg13
VHeadbutt
p163
sg15
V10
p164
sg17
g164
sg18
V50
p165
sbag1
(g2
g3
Ntp166
Rp167
(dp168
g7
V012
p169
sg9
VButterfree
p170
sg11
g79
sg13
VHeadbutt
p171
sg15
V10
p172
sg17
g172
sg18
V5
p173
sbag1
(g2
g3
Ntp174
Rp175
(dp176
g7
V013
p177
sg9
VWeedle
p178
sg11
g104
sg13
VHeadbutt
p179
sg15
V10
p180
sg17
g180
sg18
V50
p181
sbag1
(g2
g3
Ntp182
Rp183
(dp184
g7
V015
p185
sg9
VBeedrill
p186
sg11
g104
sg13
VHeadbutt
p187
sg15
V10
p188
sg17
g188
sg18
V5
p189
sbag1
(g2
g3
Ntp190
Rp191
(dp192
g7
V102
p193
sg9
VExeggcute
p194
sg11
VG,S,
p195
sg13
VHeadbutt
p196
sg15
V10
p197
sg17
g197
sg18
V15
p198
sbag1
(g2
g3
Ntp199
Rp200
(dp201
g7
V102
p202
sg9
VExeggcute
p203
sg11
g129
sg13
VHeadbutt
p204
sg15
V10
p205
sg17
g205
sg18
V20
p206
sbag1
(g2
g3
Ntp207
Rp208
(dp209
g7
V163
p210
sg9
VHoothoot
p211
sg11
g129
sg13
VHeadbutt
p212
sg15
V10
p213
sg17
g213
sg18
V50
p214
sbag1
(g2
g3
Ntp215
Rp216
(dp217
g7
V204
p218
sg9
VPineco
p219
sg11
VG,S,C,
p220
sg13
VHeadbutt
p221
sg15
V10
p222
sg17
g222
sg18
V30
p223
sbag1
(g2
g3
Ntp224
Rp225
(dp226
g7
V130
p227
sg9
VGyarados
p228
sg11
VG,S,C,
p229
sg13
VSpecial
p230
sg15
V30
p231
sg17
g231
sg18
V0
p232
sbag1
(g2
g3
Ntp233
Rp234
(dp235
g7
V129
p236
sg9
VMagikarp
p237
sg11
VHG,SS,
p238
sg13
VSurf
p239
sg15
V5
p240
sg17
V20
p241
sg18
V90
p242
sbag1
(g2
g3
Ntp243
Rp244
(dp245
g7
V130
p246
sg9
VGyarados
p247
sg11
VHG,SS,
p248
sg13
VSurf
p249
sg15
V10
p250
sg17
V20
p251
sg18
V10
p252
sbag1
(g2
g3
Ntp253
Rp254
(dp255
g7
V129
p256
sg9
VMagikarp
p257
sg11
VHG,SS,
p258
sg13
VFish Old
p259
sg15
V10
p260
sg17
g260
sg18
V100
p261
sbag1
(g2
g3
Ntp262
Rp263
(dp264
g7
V129
p265
sg9
VMagikarp
p266
sg11
VHG,SS,
p267
sg13
VFish Good
p268
sg15
V20
p269
sg17
g269
sg18
V90
p270
sbag1
(g2
g3
Ntp271
Rp272
(dp273
g7
V130
p274
sg9
VGyarados
p275
sg11
VHG,SS,
p276
sg13
VFish Good
p277
sg15
V20
p278
sg17
g278
sg18
V10
p279
sbag1
(g2
g3
Ntp280
Rp281
(dp282
g7
V129
p283
sg9
VMagikarp
p284
sg11
VHG,SS,
p285
sg13
VFish Super
p286
sg15
V40
p287
sg17
g287
sg18
V70
p288
sbag1
(g2
g3
Ntp289
Rp290
(dp291
g7
V130
p292
sg9
VGyarados
p293
sg11
VHG,SS,
p294
sg13
VFish Super
p295
sg15
V40
p296
sg17
g296
sg18
V30
p297
sbag1
(g2
g3
Ntp298
Rp299
(dp300
g7
V048
p301
sg9
VVenonat
p302
sg11
VHG,SS,
p303
sg13
VHeadbutt
p304
sg15
V17
p305
sg17
V19
p306
sg18
V15
p307
sbag1
(g2
g3
Ntp308
Rp309
(dp310
g7
V102
p311
sg9
VExeggcute
p312
sg11
VHG,SS,
p313
sg13
VHeadbutt
p314
sg15
V14
p315
sg17
V19
p316
sg18
V20
p317
sbag1
(g2
g3
Ntp318
Rp319
(dp320
g7
V163
p321
sg9
VHoothoot
p322
sg11
VHG,SS,
p323
sg13
VHeadbutt
p324
sg15
V14
p325
sg17
V16
p326
sg18
V50
p327
sbag1
(g2
g3
Ntp328
Rp329
(dp330
g7
V163
p331
sg9
VHoothoot
p332
sg11
VHG,SS,
p333
sg13
VHeadbutt
p334
sg15
V17
p335
sg17
V19
p336
sg18
V65
p337
sbag1
(g2
g3
Ntp338
Rp339
(dp340
g7
V204
p341
sg9
VPineco
p342
sg11
VHG,SS,
p343
sg13
VHeadbutt
p344
sg15
V14
p345
sg17
V16
p346
sg18
V30
p347
sbag1
(g2
g3
Ntp348
Rp349
(dp350
g7
V130
p351
sg9
VGyarados
p352
sg11
VHG,SS,
p353
sg13
VSpecial
p354
sg15
V30
p355
sg17
g355
sg18
V0
p356
sba.