(lp0
ccopy_reg
_reconstructor
p1
(c__main__
WildPokemon
p2
c__builtin__
object
p3
Ntp4
Rp5
(dp6
VpDexNo
p7
V789
p8
sVpSpecies
p9
VCosmog
p10
sVpGames
p11
VSu,
p12
sVpArea
p13
VGift
p14
sVpMinLevel
p15
V5
p16
sVpMaxLevel
p17
g16
sVpRate
p18
V0
p19
sbag1
(g2
g3
Ntp20
Rp21
(dp22
g7
V789
p23
sg9
VCosmog
p24
sg11
VUS,
p25
sg13
VGift
p26
sg15
g16
sg17
g16
sg18
V0
p27
sba.