(lp0
ccopy_reg
_reconstructor
p1
(c__main__
WildPokemon
p2
c__builtin__
object
p3
Ntp4
Rp5
(dp6
VpDexNo
p7
V041
p8
sVpSpecies
p9
VZubat
p10
sVpGames
p11
VSw,Sh,
p12
sVpArea
p13
VGrass
p14
sVpMinLevel
p15
V60
p16
sVpMaxLevel
p17
V65
p18
sVpRate
p19
V20
p20
sbag1
(g2
g3
Ntp21
Rp22
(dp23
g7
V302
p24
sg9
VSableye
p25
sg11
VSh,
p26
sg13
VGrass
p27
sg15
V60
p28
sg17
V65
p29
sg19
V10
p30
sbag1
(g2
g3
Ntp31
Rp32
(dp33
g7
V303
p34
sg9
VMawile
p35
sg11
VSw,
p36
sg13
VGrass
p37
sg15
V60
p38
sg17
V65
p39
sg19
V10
p40
sbag1
(g2
g3
Ntp41
Rp42
(dp43
g7
V304
p44
sg9
VAron
p45
sg11
VSw,Sh,
p46
sg13
VGrass
p47
sg15
V60
p48
sg17
V65
p49
sg19
V20
p50
sbag1
(g2
g3
Ntp51
Rp52
(dp53
g7
V531
p54
sg9
VAudino
p55
sg11
VSw,Sh,
p56
sg13
VGrass
p57
sg15
V60
p58
sg17
V65
p59
sg19
V1
p60
sbag1
(g2
g3
Ntp61
Rp62
(dp63
g7
V597
p64
sg9
VFerroseed
p65
sg11
VSw,Sh,
p66
sg13
VGrass
p67
sg15
V60
p68
sg17
V65
p69
sg19
V10
p70
sbag1
(g2
g3
Ntp71
Rp72
(dp73
g7
V703
p74
sg9
VCarbink
p75
sg11
VSw,Sh,
p76
sg13
VGrass
p77
sg15
V60
p78
sg17
V65
p79
sg19
V15
p80
sbag1
(g2
g3
Ntp81
Rp82
(dp83
g7
V715
p84
sg9
VNoivern
p85
sg11
VSw,Sh,
p86
sg13
VGrass
p87
sg15
V60
p88
sg17
V65
p89
sg19
V9
p90
sbag1
(g2
g3
Ntp91
Rp92
(dp93
g7
V838
p94
sg9
VCarkol
p95
sg11
VSw,Sh,
p96
sg13
VGrass
p97
sg15
V60
p98
sg17
V65
p99
sg19
V15
p100
sbag1
(g2
g3
Ntp101
Rp102
(dp103
g7
V639
p104
sg9
VTerrakion
p105
sg11
VSw,Sh,
p106
sg13
VWanderer
p107
sg15
V70
p108
sg17
g108
sg19
V0
p109
sbag1
(g2
g3
Ntp110
Rp111
(dp112
g7
V306
p113
sg9
VAggron
p114
sg11
VSw,Sh,
p115
sg13
VWanderer
p116
sg15
V68
p117
sg17
g117
sg19
V0
p118
sbag1
(g2
g3
Ntp119
Rp120
(dp121
g7
V598
p122
sg9
VFerrothorn
p123
sg11
VSw,Sh,
p124
sg13
VWanderer
p125
sg15
V67
p126
sg17
g126
sg19
V0
p127
sbag1
(g2
g3
Ntp128
Rp129
(dp130
g7
V839
p131
sg9
VCoalossal
p132
sg11
VSw,Sh,
p133
sg13
VWanderer
p134
sg15
V68
p135
sg17
g135
sg19
V0
p136
sbag1
(g2
g3
Ntp137
Rp138
(dp139
g7
V305
p140
sg9
VLairon
p141
sg11
VSw,Sh,
p142
sg13
VWanderer
p143
sg15
V63
p144
sg17
g144
sg19
V0
p145
sbag1
(g2
g3
Ntp146
Rp147
(dp148
g7
V715
p149
sg9
VNoivern
p150
sg11
VSw,Sh,
p151
sg13
VWanderer
p152
sg15
V67
p153
sg17
g153
sg19
V0
p154
sbag1
(g2
g3
Ntp155
Rp156
(dp157
g7
V305
p158
sg9
VLairon
p159
sg11
VSw,Sh,
p160
sg13
VWanderer
p161
sg15
V63
p162
sg17
g162
sg19
V0
p163
sba.