(lp0
ccopy_reg
_reconstructor
p1
(c__main__
WildPokemon
p2
c__builtin__
object
p3
Ntp4
Rp5
(dp6
VpDexNo
p7
V360
p8
sVpSpecies
p9
VWynaut
p10
sVpGames
p11
VRu,S,E,
p12
sVpArea
p13
VEgg
p14
sVpMinLevel
p15
V5
p16
sVpMaxLevel
p17
g16
sVpRate
p18
V0
p19
sbag1
(g2
g3
Ntp20
Rp21
(dp22
g7
V175
p23
sg9
VTogepi
p24
sg11
VOR,AS,
p25
sg13
VEgg
p26
sg15
V1
p27
sg17
g27
sg18
V0
p28
sbag1
(g2
g3
Ntp29
Rp30
(dp31
g7
V360
p32
sg9
VWynaut
p33
sg11
VOR,AS,
p34
sg13
VEgg
p35
sg15
g27
sg17
g27
sg18
V0
p36
sbag1
(g2
g3
Ntp37
Rp38
(dp39
g7
V352
p40
sg9
VKecleon
p41
sg11
VOR,AS,
p42
sg13
VSpecial
p43
sg15
V40
p44
sg17
g44
sg18
V0
p45
sba.