(lp0
ccopy_reg
_reconstructor
p1
(c__main__
WildPokemon
p2
c__builtin__
object
p3
Ntp4
Rp5
(dp6
VpDexNo
p7
V060
p8
sVpSpecies
p9
VPoliwag
p10
sVpGames
p11
VX,Y,
p12
sVpArea
p13
VFish Old
p14
sVpMinLevel
p15
V15
p16
sVpMaxLevel
p17
g16
sVpRate
p18
V100
p19
sbag1
(g2
g3
Ntp20
Rp21
(dp22
g7
V061
p23
sg9
VPoliwhirl
p24
sg11
VX,Y,
p25
sg13
VFish Good
p26
sg15
V25
p27
sg17
g27
sg18
V35
p28
sbag1
(g2
g3
Ntp29
Rp30
(dp31
g7
V550
p32
sg9
VBasculin
p33
sg11
VY,
p34
sg13
VFish Good
p35
sg15
V25
p36
sg17
g36
sg18
V65
p37
sbag1
(g2
g3
Ntp38
Rp39
(dp40
g7
V550
p41
sg9
VBasculin
p42
sg11
VX,
p43
sg13
VFish Good
p44
sg15
V25
p45
sg17
g45
sg18
V65
p46
sbag1
(g2
g3
Ntp47
Rp48
(dp49
g7
V061
p50
sg9
VPoliwhirl
p51
sg11
VX,Y,
p52
sg13
VFish Super
p53
sg15
V35
p54
sg17
g54
sg18
V65
p55
sbag1
(g2
g3
Ntp56
Rp57
(dp58
g7
V550
p59
sg9
VBasculin
p60
sg11
g43
sg13
VFish Super
p61
sg15
V35
p62
sg17
g62
sg18
V35
p63
sbag1
(g2
g3
Ntp64
Rp65
(dp66
g7
V550
p67
sg9
VBasculin
p68
sg11
g34
sg13
VFish Super
p69
sg15
V35
p70
sg17
g70
sg18
V35
p71
sba.