(lp0
ccopy_reg
_reconstructor
p1
(c__main__
WildPokemon
p2
c__builtin__
object
p3
Ntp4
Rp5
(dp6
VpDexNo
p7
V016
p8
sVpSpecies
p9
VPidgey
p10
sVpGames
p11
VPi,Ev,
p12
sVpArea
p13
VSky
p14
sVpMinLevel
p15
V3
p16
sVpMaxLevel
p17
V56
p18
sVpRate
p19
V60
p20
sbag1
(g2
g3
Ntp21
Rp22
(dp23
g7
V017
p24
sg9
VPidgeotto
p25
sg11
VPi,Ev,
p26
sg13
VSky
p27
sg15
g16
sg17
V56
p28
sg19
V35
p29
sbag1
(g2
g3
Ntp30
Rp31
(dp32
g7
V018
p33
sg9
VPidgeot
p34
sg11
VPi,Ev,
p35
sg13
VSky
p36
sg15
g16
sg17
V56
p37
sg19
V5
p38
sbag1
(g2
g3
Ntp39
Rp40
(dp41
g7
V050
p42
sg9
VDiglett
p43
sg11
VPi,Ev,
p44
sg13
VTrade
p45
sg15
V25
p46
sg17
g46
sg19
V0
p47
sba.