(lp0
ccopy_reg
_reconstructor
p1
(c__main__
WildPokemon
p2
c__builtin__
object
p3
Ntp4
Rp5
(dp6
VpDexNo
p7
V494
p8
sVpSpecies
p9
VVictini
p10
sVpGames
p11
VB,W,
p12
sVpArea
p13
VLiberty
p14
sVpMinLevel
p15
V15
p16
sVpMaxLevel
p17
g16
sVpRate
p18
V0
p19
sba.