(lp0
ccopy_reg
_reconstructor
p1
(c__main__
WildPokemon
p2
c__builtin__
object
p3
Ntp4
Rp5
(dp6
VpDexNo
p7
V072
p8
sVpSpecies
p9
VTentacool
p10
sVpGames
p11
VRu,S,E,
p12
sVpArea
p13
VSurf
p14
sVpMinLevel
p15
V5
p16
sVpMaxLevel
p17
V35
p18
sVpRate
p19
V60
p20
sbag1
(g2
g3
Ntp21
Rp22
(dp23
g7
V278
p24
sg9
VWingull
p25
sg11
VRu,S,E,
p26
sg13
VSurf
p27
sg15
V10
p28
sg17
V30
p29
sg19
V35
p30
sbag1
(g2
g3
Ntp31
Rp32
(dp33
g7
V279
p34
sg9
VPelipper
p35
sg11
VRu,S,E,
p36
sg13
VSurf
p37
sg15
V25
p38
sg17
V30
p39
sg19
V5
p40
sbag1
(g2
g3
Ntp41
Rp42
(dp43
g7
V072
p44
sg9
VTentacool
p45
sg11
VRu,S,E,
p46
sg13
VFish Old
p47
sg15
g16
sg17
V10
p48
sg19
V30
p49
sbag1
(g2
g3
Ntp50
Rp51
(dp52
g7
V129
p53
sg9
VMagikarp
p54
sg11
VRu,S,E,
p55
sg13
VFish Old
p56
sg15
g16
sg17
V10
p57
sg19
V70
p58
sbag1
(g2
g3
Ntp59
Rp60
(dp61
g7
V072
p62
sg9
VTentacool
p63
sg11
VRu,S,E,
p64
sg13
VFish Good
p65
sg15
V10
p66
sg17
V30
p67
sg19
V20
p68
sbag1
(g2
g3
Ntp69
Rp70
(dp71
g7
V129
p72
sg9
VMagikarp
p73
sg11
VRu,S,E,
p74
sg13
VFish Good
p75
sg15
V10
p76
sg17
V30
p77
sg19
V60
p78
sbag1
(g2
g3
Ntp79
Rp80
(dp81
g7
V320
p82
sg9
VWailmer
p83
sg11
VRu,S,E,
p84
sg13
VFish Good
p85
sg15
V10
p86
sg17
V30
p87
sg19
V20
p88
sbag1
(g2
g3
Ntp89
Rp90
(dp91
g7
V120
p92
sg9
VStaryu
p93
sg11
VRu,S,E,
p94
sg13
VFish Super
p95
sg15
V25
p96
sg17
V30
p97
sg19
V15
p98
sbag1
(g2
g3
Ntp99
Rp100
(dp101
g7
V320
p102
sg9
VWailmer
p103
sg11
VRu,S,E,
p104
sg13
VFish Super
p105
sg15
V25
p106
sg17
V45
p107
sg19
V85
p108
sbag1
(g2
g3
Ntp109
Rp110
(dp111
g7
V075
p112
sg9
VGraveler
p113
sg11
VOR,AS,
p114
sg13
VRock Smash
p115
sg15
V28
p116
sg17
V31
p117
sg19
V100
p118
sbag1
(g2
g3
Ntp119
Rp120
(dp121
g7
V072
p122
sg9
VTentacool
p123
sg11
VOR,AS,
p124
sg13
VSurf
p125
sg15
V20
p126
sg17
V25
p127
sg19
V65
p128
sbag1
(g2
g3
Ntp129
Rp130
(dp131
g7
V278
p132
sg9
VWingull
p133
sg11
VOR,AS,
p134
sg13
VSurf
p135
sg15
V20
p136
sg17
g136
sg19
V30
p137
sbag1
(g2
g3
Ntp138
Rp139
(dp140
g7
V279
p141
sg9
VPelipper
p142
sg11
VOR,AS,
p143
sg13
VSurf
p144
sg15
V25
p145
sg17
V30
p146
sg19
V5
p147
sbag1
(g2
g3
Ntp148
Rp149
(dp150
g7
V072
p151
sg9
VTentacool
p152
sg11
VOR,AS,
p153
sg13
VFish Old
p154
sg15
g16
sg17
g16
sg19
V35
p155
sbag1
(g2
g3
Ntp156
Rp157
(dp158
g7
V129
p159
sg9
VMagikarp
p160
sg11
VOR,AS,
p161
sg13
VFish Old
p162
sg15
V10
p163
sg17
V15
p164
sg19
V65
p165
sbag1
(g2
g3
Ntp166
Rp167
(dp168
g7
V072
p169
sg9
VTentacool
p170
sg11
VOR,AS,
p171
sg13
VFish Good
p172
sg15
V25
p173
sg17
g173
sg19
V35
p174
sbag1
(g2
g3
Ntp175
Rp176
(dp177
g7
V129
p178
sg9
VMagikarp
p179
sg11
VOR,AS,
p180
sg13
VFish Good
p181
sg15
V25
p182
sg17
g182
sg19
V60
p183
sbag1
(g2
g3
Ntp184
Rp185
(dp186
g7
V320
p187
sg9
VWailmer
p188
sg11
VOR,AS,
p189
sg13
VFish Good
p190
sg15
V25
p191
sg17
g191
sg19
V5
p192
sbag1
(g2
g3
Ntp193
Rp194
(dp195
g7
V120
p196
sg9
VStaryu
p197
sg11
VOR,AS,
p198
sg13
VFish Super
p199
sg15
V40
p200
sg17
g200
sg19
V5
p201
sbag1
(g2
g3
Ntp202
Rp203
(dp204
g7
V320
p205
sg9
VWailmer
p206
sg11
VOR,AS,
p207
sg13
VFish Super
p208
sg15
V30
p209
sg17
V35
p210
sg19
V95
p211
sbag1
(g2
g3
Ntp212
Rp213
(dp214
g7
V025
p215
sg9
VPikachu
p216
sg11
VOR,AS,
p217
sg13
VGift
p218
sg15
V20
p219
sg17
g219
sg19
V0
p220
sbag1
(g2
g3
Ntp221
Rp222
(dp223
g7
V025
p224
sg9
VPikachu
p225
sg11
VOR,AS,
p226
sg13
VGift
p227
sg15
V20
p228
sg17
g228
sg19
V0
p229
sba.