(lp0
ccopy_reg
_reconstructor
p1
(c__main__
WildPokemon
p2
c__builtin__
object
p3
Ntp4
Rp5
(dp6
VpDexNo
p7
V098
p8
sVpSpecies
p9
VKrabby
p10
sVpGames
p11
VSw,Sh,
p12
sVpArea
p13
VGrass
p14
sVpMinLevel
p15
V19
p16
sVpMaxLevel
p17
V24
p18
sVpRate
p19
V0
p20
sbag1
(g2
g3
Ntp21
Rp22
(dp23
g7
V278
p24
sg9
VWingull
p25
sg11
VSw,Sh,
p26
sg13
VGrass
p27
sg15
V19
p28
sg17
V24
p29
sg19
g20
sbag1
(g2
g3
Ntp30
Rp31
(dp32
g7
V425
p33
sg9
VDrifloon
p34
sg11
VSw,Sh,
p35
sg13
VGrass
p36
sg15
V19
p37
sg17
V24
p38
sg19
g20
sbag1
(g2
g3
Ntp39
Rp40
(dp41
g7
V440
p42
sg9
VHappiny
p43
sg11
VSw,Sh,
p44
sg13
VGrass
p45
sg15
V19
p46
sg17
V24
p47
sg19
V10
p48
sbag1
(g2
g3
Ntp49
Rp50
(dp51
g7
V661
p52
sg9
VFletchling
p53
sg11
VSw,Sh,
p54
sg13
VGrass
p55
sg15
V19
p56
sg17
V24
p57
sg19
g20
sbag1
(g2
g3
Ntp58
Rp59
(dp60
g7
V686
p61
sg9
VInkay
p62
sg11
VSw,Sh,
p63
sg13
VGrass
p64
sg15
V19
p65
sg17
V24
p66
sg19
g20
sbag1
(g2
g3
Ntp67
Rp68
(dp69
g7
V824
p70
sg9
VBlipbug
p71
sg11
VSw,Sh,
p72
sg13
VGrass
p73
sg15
V19
p74
sg17
V24
p75
sg19
V30
p76
sbag1
(g2
g3
Ntp77
Rp78
(dp79
g7
V852
p80
sg9
VClobbopus
p81
sg11
VSw,Sh,
p82
sg13
VGrass
p83
sg15
V19
p84
sg17
V24
p85
sg19
V30
p86
sbag1
(g2
g3
Ntp87
Rp88
(dp89
g7
V819
p90
sg9
VSkwovet
p91
sg11
VSw,Sh,
p92
sg13
VBerry tree
p93
sg15
V19
p94
sg17
V24
p95
sg19
V70
p96
sbag1
(g2
g3
Ntp97
Rp98
(dp99
g7
V840
p100
sg9
VApplin
p101
sg11
VSw,Sh,
p102
sg13
VBerry tree
p103
sg15
V19
p104
sg17
V24
p105
sg19
V30
p106
sbag1
(g2
g3
Ntp107
Rp108
(dp109
g7
V090
p110
sg9
VShellder
p111
sg11
VSw,Sh,
p112
sg13
VFishing
p113
sg15
V19
p114
sg17
V24
p115
sg19
V40
p116
sbag1
(g2
g3
Ntp117
Rp118
(dp119
g7
V091
p120
sg9
VCloyster
p121
sg11
VSw,Sh,
p122
sg13
VFishing
p123
sg15
V19
p124
sg17
V24
p125
sg19
V10
p126
sbag1
(g2
g3
Ntp127
Rp128
(dp129
g7
V129
p130
sg9
VMagikarp
p131
sg11
VSw,Sh,
p132
sg13
VFishing
p133
sg15
V19
p134
sg17
V24
p135
sg19
V50
p136
sbag1
(g2
g3
Ntp137
Rp138
(dp139
g7
V098
p140
sg9
VKrabby
p141
sg11
VSw,Sh,
p142
sg13
VGrass
p143
sg15
V16
p144
sg17
V21
p145
sg19
g20
sbag1
(g2
g3
Ntp146
Rp147
(dp148
g7
V113
p149
sg9
VChansey
p150
sg11
VSw,Sh,
p151
sg13
VGrass
p152
sg15
V16
p153
sg17
V21
p154
sg19
g20
sbag1
(g2
g3
Ntp155
Rp156
(dp157
g7
V242
p158
sg9
VBlissey
p159
sg11
VSw,Sh,
p160
sg13
VGrass
p161
sg15
V16
p162
sg17
V21
p163
sg19
g20
sbag1
(g2
g3
Ntp164
Rp165
(dp166
g7
V278
p167
sg9
VWingull
p168
sg11
VSw,Sh,
p169
sg13
VGrass
p170
sg15
V16
p171
sg17
V21
p172
sg19
V16
p173
sbag1
(g2
g3
Ntp174
Rp175
(dp176
g7
V425
p177
sg9
VDrifloon
p178
sg11
VSw,Sh,
p179
sg13
VGrass
p180
sg15
V16
p181
sg17
V21
p182
sg19
g20
sbag1
(g2
g3
Ntp183
Rp184
(dp185
g7
V557
p186
sg9
VDwebble
p187
sg11
VSw,Sh,
p188
sg13
VGrass
p189
sg15
V16
p190
sg17
V21
p191
sg19
V5
p192
sbag1
(g2
g3
Ntp193
Rp194
(dp195
g7
V661
p196
sg9
VFletchling
p197
sg11
VSw,Sh,
p198
sg13
VGrass
p199
sg15
V16
p200
sg17
V21
p201
sg19
g20
sbag1
(g2
g3
Ntp202
Rp203
(dp204
g7
V686
p205
sg9
VInkay
p206
sg11
VSw,Sh,
p207
sg13
VGrass
p208
sg15
V16
p209
sg17
V21
p210
sg19
g20
sbag1
(g2
g3
Ntp211
Rp212
(dp213
g7
V747
p214
sg9
VMareanie
p215
sg11
VSw,Sh,
p216
sg13
VGrass
p217
sg15
V16
p218
sg17
V21
p219
sg19
V16
p220
sbag1
(g2
g3
Ntp221
Rp222
(dp223
g7
V852
p224
sg9
VClobbopus
p225
sg11
VSw,Sh,
p226
sg13
VGrass
p227
sg15
V16
p228
sg17
V21
p229
sg19
g20
sbag1
(g2
g3
Ntp230
Rp231
(dp232
g7
V871
p233
sg9
VPincurchin
p234
sg11
VSw,Sh,
p235
sg13
VGrass
p236
sg15
V16
p237
sg17
V21
p238
sg19
V5
p239
sbag1
(g2
g3
Ntp240
Rp241
(dp242
g7
V769
p243
sg9
VSandygast
p244
sg11
VSw,Sh,
p245
sg13
VGrass
p246
sg15
V16
p247
sg17
V21
p248
sg19
V100
p249
sbag1
(g2
g3
Ntp250
Rp251
(dp252
g7
V072
p253
sg9
VTentacool
p254
sg11
VSw,Sh,
p255
sg13
VSurf
p256
sg15
V40
p257
sg17
V45
p258
sg19
g20
sbag1
(g2
g3
Ntp259
Rp260
(dp261
g7
V073
p262
sg9
VTentacruel
p263
sg11
VSw,Sh,
p264
sg13
VSurf
p265
sg15
V40
p266
sg17
V45
p267
sg19
g20
sbag1
(g2
g3
Ntp268
Rp269
(dp270
g7
V278
p271
sg9
VWingull
p272
sg11
VSw,Sh,
p273
sg13
VSurf
p274
sg15
V40
p275
sg17
V45
p276
sg19
V30
p277
sbag1
(g2
g3
Ntp278
Rp279
(dp280
g7
V279
p281
sg9
VPelipper
p282
sg11
VSw,Sh,
p283
sg13
VSurf
p284
sg15
V40
p285
sg17
V45
p286
sg19
g20
sbag1
(g2
g3
Ntp287
Rp288
(dp289
g7
V425
p290
sg9
VDrifloon
p291
sg11
VSw,Sh,
p292
sg13
VSurf
p293
sg15
V40
p294
sg17
V45
p295
sg19
g20
sbag1
(g2
g3
Ntp296
Rp297
(dp298
g7
V662
p299
sg9
VFletchinder
p300
sg11
VSw,Sh,
p301
sg13
VSurf
p302
sg15
V40
p303
sg17
V45
p304
sg19
g20
sbag1
(g2
g3
Ntp305
Rp306
(dp307
g7
V852
p308
sg9
VClobbopus
p309
sg11
VSw,Sh,
p310
sg13
VSurf
p311
sg15
V40
p312
sg17
V45
p313
sg19
V25
p314
sbag1
(g2
g3
Ntp315
Rp316
(dp317
g7
V871
p318
sg9
VPincurchin
p319
sg11
VSw,Sh,
p320
sg13
VWanderer
p321
sg15
V22
p322
sg17
g322
sg19
g20
sbag1
(g2
g3
Ntp323
Rp324
(dp325
g7
V853
p326
sg9
VGrapploct
p327
sg11
VSw,Sh,
p328
sg13
VWanderer
p329
sg15
V32
p330
sg17
g330
sg19
g20
sbag1
(g2
g3
Ntp331
Rp332
(dp333
g7
V748
p334
sg9
VToxapex
p335
sg11
VSw,Sh,
p336
sg13
VWanderer
p337
sg15
V26
p338
sg17
g338
sg19
g20
sbag1
(g2
g3
Ntp339
Rp340
(dp341
g7
V744
p342
sg9
VRockruff
p343
sg11
VSw,Sh,
p344
sg13
VWanderer
p345
sg15
V40
p346
sg17
g346
sg19
g20
sbag1
(g2
g3
Ntp347
Rp348
(dp349
g7
V687
p350
sg9
VMalamar
p351
sg11
VSw,Sh,
p352
sg13
VWanderer
p353
sg15
V32
p354
sg17
g354
sg19
g20
sbag1
(g2
g3
Ntp355
Rp356
(dp357
g7
V279
p358
sg9
VPelipper
p359
sg11
VSw,Sh,
p360
sg13
VWanderer
p361
sg15
V42
p362
sg17
g362
sg19
g20
sbag1
(g2
g3
Ntp363
Rp364
(dp365
g7
V405
p366
sg9
VLuxray
p367
sg11
VSw,Sh,
p368
sg13
VWanderer
p369
sg15
V50
p370
sg17
g370
sg19
g20
sbag1
(g2
g3
Ntp371
Rp372
(dp373
g7
V663
p374
sg9
VTalonflame
p375
sg11
VSw,Sh,
p376
sg13
VWanderer
p377
sg15
V50
p378
sg17
g378
sg19
g20
sbag1
(g2
g3
Ntp379
Rp380
(dp381
g7
V040
p382
sg9
VWigglytuff
p383
sg11
VSw,Sh,
p384
sg13
VWanderer
p385
sg15
V32
p386
sg17
g386
sg19
g20
sbag1
(g2
g3
Ntp387
Rp388
(dp389
g7
V065
p390
sg9
VAlakazam
p391
sg11
VSw,Sh,
p392
sg13
VWanderer
p393
sg15
V50
p394
sg17
g394
sg19
g20
sbag1
(g2
g3
Ntp395
Rp396
(dp397
g7
V571
p398
sg9
VZoroark
p399
sg11
VSw,Sh,
p400
sg13
VWanderer
p401
sg15
V50
p402
sg17
g402
sg19
g20
sbag1
(g2
g3
Ntp403
Rp404
(dp405
g7
V462
p406
sg9
VMagnezone
p407
sg11
VSw,Sh,
p408
sg13
VWanderer
p409
sg15
V50
p410
sg17
g410
sg19
g20
sbag1
(g2
g3
Ntp411
Rp412
(dp413
g7
V636
p414
sg9
VLarvesta
p415
sg11
VSw,Sh,
p416
sg13
VWanderer
p417
sg15
V40
p418
sg17
g418
sg19
g20
sbag1
(g2
g3
Ntp419
Rp420
(dp421
g7
V853
p422
sg9
VGrapploct
p423
sg11
VSw,Sh,
p424
sg13
VWanderer
p425
sg15
V32
p426
sg17
g426
sg19
g20
sbag1
(g2
g3
Ntp427
Rp428
(dp429
g7
V770
p430
sg9
VPalossand
p431
sg11
VSw,Sh,
p432
sg13
VWanderer
p433
sg15
V32
p434
sg17
g434
sg19
g20
sbag1
(g2
g3
Ntp435
Rp436
(dp437
g7
V871
p438
sg9
VPincurchin
p439
sg11
VSw,Sh,
p440
sg13
VWanderer
p441
sg15
V22
p442
sg17
g442
sg19
g20
sbag1
(g2
g3
Ntp443
Rp444
(dp445
g7
V853
p446
sg9
VGrapploct
p447
sg11
VSw,Sh,
p448
sg13
VWanderer
p449
sg15
V32
p450
sg17
g450
sg19
g20
sbag1
(g2
g3
Ntp451
Rp452
(dp453
g7
V770
p454
sg9
VPalossand
p455
sg11
VSw,Sh,
p456
sg13
VWanderer
p457
sg15
V32
p458
sg17
g458
sg19
g20
sbag1
(g2
g3
Ntp459
Rp460
(dp461
g7
V748
p462
sg9
VToxapex
p463
sg11
VSw,Sh,
p464
sg13
VWanderer
p465
sg15
V26
p466
sg17
g466
sg19
g20
sbag1
(g2
g3
Ntp467
Rp468
(dp469
g7
V871
p470
sg9
VPincurchin
p471
sg11
VSw,Sh,
p472
sg13
VWanderer
p473
sg15
V22
p474
sg17
g474
sg19
g20
sbag1
(g2
g3
Ntp475
Rp476
(dp477
g7
V853
p478
sg9
VGrapploct
p479
sg11
VSw,Sh,
p480
sg13
VWanderer
p481
sg15
V32
p482
sg17
g482
sg19
g20
sbag1
(g2
g3
Ntp483
Rp484
(dp485
g7
V770
p486
sg9
VPalossand
p487
sg11
VSw,Sh,
p488
sg13
VWanderer
p489
sg15
V32
p490
sg17
g490
sg19
g20
sbag1
(g2
g3
Ntp491
Rp492
(dp493
g7
V748
p494
sg9
VToxapex
p495
sg11
VSw,Sh,
p496
sg13
VWanderer
p497
sg15
V26
p498
sg17
g498
sg19
g20
sbag1
(g2
g3
Ntp499
Rp500
(dp501
g7
V871
p502
sg9
VPincurchin
p503
sg11
VSw,Sh,
p504
sg13
VWanderer
p505
sg15
V22
p506
sg17
g506
sg19
g20
sbag1
(g2
g3
Ntp507
Rp508
(dp509
g7
V834
p510
sg9
VDrednaw
p511
sg11
VSw,Sh,
p512
sg13
VWanderer
p513
sg15
V30
p514
sg17
g514
sg19
g20
sbag1
(g2
g3
Ntp515
Rp516
(dp517
g7
V687
p518
sg9
VMalamar
p519
sg11
VSw,Sh,
p520
sg13
VWanderer
p521
sg15
V32
p522
sg17
g522
sg19
g20
sbag1
(g2
g3
Ntp523
Rp524
(dp525
g7
V404
p526
sg9
VLuxio
p527
sg11
VSw,Sh,
p528
sg13
VWanderer
p529
sg15
V30
p530
sg17
g530
sg19
g20
sbag1
(g2
g3
Ntp531
Rp532
(dp533
g7
V040
p534
sg9
VWigglytuff
p535
sg11
VSw,Sh,
p536
sg13
VWanderer
p537
sg15
V32
p538
sg17
g538
sg19
g20
sbag1
(g2
g3
Ntp539
Rp540
(dp541
g7
V853
p542
sg9
VGrapploct
p543
sg11
VSw,Sh,
p544
sg13
VWanderer
p545
sg15
V32
p546
sg17
g546
sg19
g20
sbag1
(g2
g3
Ntp547
Rp548
(dp549
g7
V871
p550
sg9
VPincurchin
p551
sg11
VSw,Sh,
p552
sg13
VWanderer
p553
sg15
V22
p554
sg17
g554
sg19
g20
sbag1
(g2
g3
Ntp555
Rp556
(dp557
g7
V871
p558
sg9
VPincurchin
p559
sg11
VSw,Sh,
p560
sg13
VWanderer
p561
sg15
V22
p562
sg17
g562
sg19
g20
sbag1
(g2
g3
Ntp563
Rp564
(dp565
g7
V748
p566
sg9
VToxapex
p567
sg11
VSw,Sh,
p568
sg13
VWanderer
p569
sg15
V26
p570
sg17
g570
sg19
g20
sbag1
(g2
g3
Ntp571
Rp572
(dp573
g7
V853
p574
sg9
VGrapploct
p575
sg11
VSw,Sh,
p576
sg13
VWanderer
p577
sg15
V32
p578
sg17
g578
sg19
g20
sbag1
(g2
g3
Ntp579
Rp580
(dp581
g7
V853
p582
sg9
VGrapploct
p583
sg11
VSw,Sh,
p584
sg13
VWanderer
p585
sg15
V32
p586
sg17
g586
sg19
g20
sbag1
(g2
g3
Ntp587
Rp588
(dp589
g7
V748
p590
sg9
VToxapex
p591
sg11
VSw,Sh,
p592
sg13
VWanderer
p593
sg15
V26
p594
sg17
g594
sg19
g20
sbag1
(g2
g3
Ntp595
Rp596
(dp597
g7
V871
p598
sg9
VPincurchin
p599
sg11
VSw,Sh,
p600
sg13
VWanderer
p601
sg15
V22
p602
sg17
g602
sg19
g20
sba.