(lp0
ccopy_reg
_reconstructor
p1
(c__main__
WildPokemon
p2
c__builtin__
object
p3
Ntp4
Rp5
(dp6
VpDexNo
p7
V520
p8
sVpSpecies
p9
VTranquill
p10
sVpGames
p11
VB,W,
p12
sVpArea
p13
VGrass
p14
sVpMinLevel
p15
V21
p16
sVpMaxLevel
p17
V22
p18
sVpRate
p19
V15
p20
sbag1
(g2
g3
Ntp21
Rp22
(dp23
g7
V541
p24
sg9
VSwadloon
p25
sg11
VB,W,
p26
sg13
VGrass
p27
sg15
V20
p28
sg17
V22
p29
sg19
V35
p30
sbag1
(g2
g3
Ntp31
Rp32
(dp33
g7
V543
p34
sg9
VVenipede
p35
sg11
VB,W,
p36
sg13
VGrass
p37
sg15
V20
p38
sg17
V21
p39
sg19
V15
p40
sbag1
(g2
g3
Ntp41
Rp42
(dp43
g7
V546
p44
sg9
VCottonee
p45
sg11
VB,
p46
sg13
VGrass
p47
sg15
V19
p48
sg17
V22
p49
sg19
V35
p50
sbag1
(g2
g3
Ntp51
Rp52
(dp53
g7
V548
p54
sg9
VPetilil
p55
sg11
VW,
p56
sg13
VGrass
p57
sg15
V19
p58
sg17
V22
p59
sg19
V35
p60
sbag1
(g2
g3
Ntp61
Rp62
(dp63
g7
V520
p64
sg9
VTranquill
p65
sg11
VB,W,
p66
sg13
VDark
p67
sg15
V24
p68
sg17
V25
p69
sg19
V15
p70
sbag1
(g2
g3
Ntp71
Rp72
(dp73
g7
V541
p74
sg9
VSwadloon
p75
sg11
VB,W,
p76
sg13
VDark
p77
sg15
V23
p78
sg17
V25
p79
sg19
V35
p80
sbag1
(g2
g3
Ntp81
Rp82
(dp83
g7
V543
p84
sg9
VVenipede
p85
sg11
VB,W,
p86
sg13
VDark
p87
sg15
V23
p88
sg17
V24
p89
sg19
V15
p90
sbag1
(g2
g3
Ntp91
Rp92
(dp93
g7
V546
p94
sg9
VCottonee
p95
sg11
g46
sg13
VDark
p96
sg15
V22
p97
sg17
V25
p98
sg19
V35
p99
sbag1
(g2
g3
Ntp100
Rp101
(dp102
g7
V548
p103
sg9
VPetilil
p104
sg11
g56
sg13
VDark
p105
sg15
V22
p106
sg17
V25
p107
sg19
V35
p108
sbag1
(g2
g3
Ntp109
Rp110
(dp111
g7
V511
p112
sg9
VPansage
p113
sg11
VB,W,
p114
sg13
VRustling
p115
sg15
V20
p116
sg17
g116
sg19
V10
p117
sbag1
(g2
g3
Ntp118
Rp119
(dp120
g7
V513
p121
sg9
VPansear
p122
sg11
VB,W,
p123
sg13
VRustling
p124
sg15
V20
p125
sg17
g125
sg19
V10
p126
sbag1
(g2
g3
Ntp127
Rp128
(dp129
g7
V515
p130
sg9
VPanpour
p131
sg11
VB,W,
p132
sg13
VRustling
p133
sg15
V20
p134
sg17
g134
sg19
V10
p135
sbag1
(g2
g3
Ntp136
Rp137
(dp138
g7
V521
p139
sg9
VUnfezant
p140
sg11
VB,W,
p141
sg13
VRustling
p142
sg15
V22
p143
sg17
g143
sg19
V5
p144
sbag1
(g2
g3
Ntp145
Rp146
(dp147
g7
V531
p148
sg9
VAudino
p149
sg11
VB,W,
p150
sg13
VRustling
p151
sg15
V19
p152
sg17
V21
p153
sg19
V45
p154
sbag1
(g2
g3
Ntp155
Rp156
(dp157
g7
V542
p158
sg9
VLeavanny
p159
sg11
VB,W,
p160
sg13
VRustling
p161
sg15
V22
p162
sg17
g162
sg19
V5
p163
sbag1
(g2
g3
Ntp164
Rp165
(dp166
g7
V547
p167
sg9
VWhimsicott
p168
sg11
g46
sg13
VRustling
p169
sg15
V22
p170
sg17
g170
sg19
V5
p171
sbag1
(g2
g3
Ntp172
Rp173
(dp174
g7
V549
p175
sg9
VLilligant
p176
sg11
g56
sg13
VRustling
p177
sg15
V22
p178
sg17
g178
sg19
V5
p179
sbag1
(g2
g3
Ntp180
Rp181
(dp182
g7
V587
p183
sg9
VEmolga
p184
sg11
VB,W,
p185
sg13
VRustling
p186
sg15
V20
p187
sg17
g187
sg19
V10
p188
sbag1
(g2
g3
Ntp189
Rp190
(dp191
g7
V550
p192
sg9
VBasculin
p193
sg11
g46
sg13
VSurf
p194
sg15
V5
p195
sg17
V20
p196
sg19
V100
p197
sbag1
(g2
g3
Ntp198
Rp199
(dp200
g7
V550
p201
sg9
VBasculin
p202
sg11
g56
sg13
VSurf
p203
sg15
g195
sg17
V20
p204
sg19
V100
p205
sbag1
(g2
g3
Ntp206
Rp207
(dp208
g7
V550
p209
sg9
VBasculin
p210
sg11
g56
sg13
VRippling
p211
sg15
g195
sg17
V20
p212
sg19
V100
p213
sbag1
(g2
g3
Ntp214
Rp215
(dp216
g7
V550
p217
sg9
VBasculin
p218
sg11
g46
sg13
VRippling
p219
sg15
g195
sg17
V20
p220
sg19
V100
p221
sbag1
(g2
g3
Ntp222
Rp223
(dp224
g7
V118
p225
sg9
VGoldeen
p226
sg11
VB,W,
p227
sg13
VFish Super
p228
sg15
V35
p229
sg17
V55
p230
sg19
V60
p231
sbag1
(g2
g3
Ntp232
Rp233
(dp234
g7
V550
p235
sg9
VBasculin
p236
sg11
g46
sg13
VFish Super
p237
sg15
V35
p238
sg17
V55
p239
sg19
V40
p240
sbag1
(g2
g3
Ntp241
Rp242
(dp243
g7
V550
p244
sg9
VBasculin
p245
sg11
g56
sg13
VFish Super
p246
sg15
V35
p247
sg17
V55
p248
sg19
V40
p249
sbag1
(g2
g3
Ntp250
Rp251
(dp252
g7
V118
p253
sg9
VGoldeen
p254
sg11
VB,W,
p255
sg13
VRippling
p256
sg15
V35
p257
sg17
V70
p258
sg19
V60
p259
sbag1
(g2
g3
Ntp260
Rp261
(dp262
g7
V550
p263
sg9
VBasculin
p264
sg11
g56
sg13
VRippling
p265
sg15
V35
p266
sg17
V60
p267
sg19
V40
p268
sbag1
(g2
g3
Ntp269
Rp270
(dp271
g7
V550
p272
sg9
VBasculin
p273
sg11
g46
sg13
VRippling
p274
sg15
V35
p275
sg17
V60
p276
sg19
V40
p277
sbag1
(g2
g3
Ntp278
Rp279
(dp280
g7
V571
p281
sg9
VZoroark
p282
sg11
VB,W,
p283
sg13
VSpecial
p284
sg15
V25
p285
sg17
g285
sg19
V0
p286
sbag1
(g2
g3
Ntp287
Rp288
(dp289
g7
V127
p290
sg9
VPinsir
p291
sg11
VW2,
p292
sg13
VGrass
p293
sg15
V24
p294
sg17
g294
sg19
V5
p295
sbag1
(g2
g3
Ntp296
Rp297
(dp298
g7
V214
p299
sg9
VHeracross
p300
sg11
VB2,
p301
sg13
VGrass
p302
sg15
V24
p303
sg17
g303
sg19
V5
p304
sbag1
(g2
g3
Ntp305
Rp306
(dp307
g7
V315
p308
sg9
VRoselia
p309
sg11
VB2,W2,
p310
sg13
VGrass
p311
sg15
V23
p312
sg17
V24
p313
sg19
V15
p314
sbag1
(g2
g3
Ntp315
Rp316
(dp317
g7
V415
p318
sg9
VCombee
p319
sg11
VB2,W2,
p320
sg13
VGrass
p321
sg15
V22
p322
sg17
g322
sg19
V10
p323
sbag1
(g2
g3
Ntp324
Rp325
(dp326
g7
V541
p327
sg9
VSwadloon
p328
sg11
VB2,W2,
p329
sg13
VGrass
p330
sg15
V21
p331
sg17
V24
p332
sg19
V25
p333
sbag1
(g2
g3
Ntp334
Rp335
(dp336
g7
V543
p337
sg9
VVenipede
p338
sg11
VB2,W2,
p339
sg13
VGrass
p340
sg15
V21
p341
sg17
g341
sg19
V20
p342
sbag1
(g2
g3
Ntp343
Rp344
(dp345
g7
V546
p346
sg9
VCottonee
p347
sg11
g301
sg13
VGrass
p348
sg15
V21
p349
sg17
V24
p350
sg19
V25
p351
sbag1
(g2
g3
Ntp352
Rp353
(dp354
g7
V548
p355
sg9
VPetilil
p356
sg11
g292
sg13
VGrass
p357
sg15
V21
p358
sg17
V24
p359
sg19
V25
p360
sbag1
(g2
g3
Ntp361
Rp362
(dp363
g7
V127
p364
sg9
VPinsir
p365
sg11
g292
sg13
VDark
p366
sg15
V26
p367
sg17
g367
sg19
V5
p368
sbag1
(g2
g3
Ntp369
Rp370
(dp371
g7
V214
p372
sg9
VHeracross
p373
sg11
g301
sg13
VDark
p374
sg15
V26
p375
sg17
g375
sg19
V5
p376
sbag1
(g2
g3
Ntp377
Rp378
(dp379
g7
V315
p380
sg9
VRoselia
p381
sg11
VB2,W2,
p382
sg13
VDark
p383
sg15
V25
p384
sg17
V26
p385
sg19
V15
p386
sbag1
(g2
g3
Ntp387
Rp388
(dp389
g7
V415
p390
sg9
VCombee
p391
sg11
VB2,W2,
p392
sg13
VDark
p393
sg15
V24
p394
sg17
g394
sg19
V10
p395
sbag1
(g2
g3
Ntp396
Rp397
(dp398
g7
V541
p399
sg9
VSwadloon
p400
sg11
VB2,W2,
p401
sg13
VDark
p402
sg15
V23
p403
sg17
V26
p404
sg19
V25
p405
sbag1
(g2
g3
Ntp406
Rp407
(dp408
g7
V544
p409
sg9
VWhirlipede
p410
sg11
VB2,W2,
p411
sg13
VDark
p412
sg15
V23
p413
sg17
g413
sg19
V20
p414
sbag1
(g2
g3
Ntp415
Rp416
(dp417
g7
V546
p418
sg9
VCottonee
p419
sg11
g301
sg13
VDark
p420
sg15
V23
p421
sg17
V26
p422
sg19
V25
p423
sbag1
(g2
g3
Ntp424
Rp425
(dp426
g7
V548
p427
sg9
VPetilil
p428
sg11
g292
sg13
VDark
p429
sg15
V23
p430
sg17
V26
p431
sg19
V25
p432
sbag1
(g2
g3
Ntp433
Rp434
(dp435
g7
V407
p436
sg9
VRoserade
p437
sg11
VB2,W2,
p438
sg13
VRustling
p439
sg15
V24
p440
sg17
g440
sg19
V5
p441
sbag1
(g2
g3
Ntp442
Rp443
(dp444
g7
V416
p445
sg9
VVespiquen
p446
sg11
VB2,W2,
p447
sg13
VRustling
p448
sg15
V24
p449
sg17
g449
sg19
V5
p450
sbag1
(g2
g3
Ntp451
Rp452
(dp453
g7
V511
p454
sg9
VPansage
p455
sg11
VB2,W2,
p456
sg13
VRustling
p457
sg15
V22
p458
sg17
g458
sg19
V10
p459
sbag1
(g2
g3
Ntp460
Rp461
(dp462
g7
V513
p463
sg9
VPansear
p464
sg11
VB2,W2,
p465
sg13
VRustling
p466
sg15
V22
p467
sg17
g467
sg19
V10
p468
sbag1
(g2
g3
Ntp469
Rp470
(dp471
g7
V515
p472
sg9
VPanpour
p473
sg11
VB2,W2,
p474
sg13
VRustling
p475
sg15
V22
p476
sg17
g476
sg19
V10
p477
sbag1
(g2
g3
Ntp478
Rp479
(dp480
g7
V531
p481
sg9
VAudino
p482
sg11
VB2,W2,
p483
sg13
VRustling
p484
sg15
V21
p485
sg17
V23
p486
sg19
V40
p487
sbag1
(g2
g3
Ntp488
Rp489
(dp490
g7
V542
p491
sg9
VLeavanny
p492
sg11
VB2,W2,
p493
sg13
VRustling
p494
sg15
V24
p495
sg17
g495
sg19
V5
p496
sbag1
(g2
g3
Ntp497
Rp498
(dp499
g7
V547
p500
sg9
VWhimsicott
p501
sg11
g301
sg13
VRustling
p502
sg15
V24
p503
sg17
g503
sg19
V5
p504
sbag1
(g2
g3
Ntp505
Rp506
(dp507
g7
V549
p508
sg9
VLilligant
p509
sg11
g292
sg13
VRustling
p510
sg15
V24
p511
sg17
g511
sg19
V5
p512
sbag1
(g2
g3
Ntp513
Rp514
(dp515
g7
V587
p516
sg9
VEmolga
p517
sg11
VB2,W2,
p518
sg13
VRustling
p519
sg15
V22
p520
sg17
g520
sg19
V10
p521
sbag1
(g2
g3
Ntp522
Rp523
(dp524
g7
V418
p525
sg9
VBuizel
p526
sg11
VB2,W2,
p527
sg13
VSurf
p528
sg15
V10
p529
sg17
V25
p530
sg19
V30
p531
sbag1
(g2
g3
Ntp532
Rp533
(dp534
g7
V550
p535
sg9
VBasculin
p536
sg11
g301
sg13
VSurf
p537
sg15
V10
p538
sg17
V25
p539
sg19
V70
p540
sbag1
(g2
g3
Ntp541
Rp542
(dp543
g7
V550
p544
sg9
VBasculin
p545
sg11
g292
sg13
VSurf
p546
sg15
V10
p547
sg17
V25
p548
sg19
V70
p549
sbag1
(g2
g3
Ntp550
Rp551
(dp552
g7
V418
p553
sg9
VBuizel
p554
sg11
VB2,W2,
p555
sg13
VRippling
p556
sg15
V10
p557
sg17
V30
p558
sg19
V60
p559
sbag1
(g2
g3
Ntp560
Rp561
(dp562
g7
V419
p563
sg9
VFloatzel
p564
sg11
VB2,W2,
p565
sg13
VRippling
p566
sg15
V10
p567
sg17
V30
p568
sg19
V10
p569
sbag1
(g2
g3
Ntp570
Rp571
(dp572
g7
V550
p573
sg9
VBasculin
p574
sg11
g292
sg13
VRippling
p575
sg15
V10
p576
sg17
V30
p577
sg19
V30
p578
sbag1
(g2
g3
Ntp579
Rp580
(dp581
g7
V550
p582
sg9
VBasculin
p583
sg11
g301
sg13
VRippling
p584
sg15
V10
p585
sg17
V30
p586
sg19
V30
p587
sbag1
(g2
g3
Ntp588
Rp589
(dp590
g7
V060
p591
sg9
VPoliwag
p592
sg11
VB2,W2,
p593
sg13
VFish Super
p594
sg15
V40
p595
sg17
V70
p596
sg19
V60
p597
sbag1
(g2
g3
Ntp598
Rp599
(dp600
g7
V550
p601
sg9
VBasculin
p602
sg11
g301
sg13
VFish Super
p603
sg15
V40
p604
sg17
V60
p605
sg19
V40
p606
sbag1
(g2
g3
Ntp607
Rp608
(dp609
g7
V550
p610
sg9
VBasculin
p611
sg11
g292
sg13
VFish Super
p612
sg15
V40
p613
sg17
V60
p614
sg19
V40
p615
sbag1
(g2
g3
Ntp616
Rp617
(dp618
g7
V061
p619
sg9
VPoliwhirl
p620
sg11
VB2,W2,
p621
sg13
VRippling
p622
sg15
V40
p623
sg17
V70
p624
sg19
V55
p625
sbag1
(g2
g3
Ntp626
Rp627
(dp628
g7
V186
p629
sg9
VPolitoed
p630
sg11
VB2,W2,
p631
sg13
VRippling
p632
sg15
V50
p633
sg17
V70
p634
sg19
V5
p635
sbag1
(g2
g3
Ntp636
Rp637
(dp638
g7
V550
p639
sg9
VBasculin
p640
sg11
g292
sg13
VRippling
p641
sg15
V40
p642
sg17
V60
p643
sg19
V40
p644
sbag1
(g2
g3
Ntp645
Rp646
(dp647
g7
V550
p648
sg9
VBasculin
p649
sg11
g301
sg13
VRippling
p650
sg15
V40
p651
sg17
V60
p652
sg19
V40
p653
sbag1
(g2
g3
Ntp654
Rp655
(dp656
g7
V127
p657
sg9
VPinsir
p658
sg11
g301
sg13
VGrotto
p659
sg15
V20
p660
sg17
V25
p661
sg19
V0
p662
sbag1
(g2
g3
Ntp663
Rp664
(dp665
g7
V127
p666
sg9
VPinsir
p667
sg11
g292
sg13
VGrotto
p668
sg15
V20
p669
sg17
V25
p670
sg19
V0
p671
sbag1
(g2
g3
Ntp672
Rp673
(dp674
g7
V214
p675
sg9
VHeracross
p676
sg11
g301
sg13
VGrotto
p677
sg15
V20
p678
sg17
V25
p679
sg19
V0
p680
sbag1
(g2
g3
Ntp681
Rp682
(dp683
g7
V214
p684
sg9
VHeracross
p685
sg11
g292
sg13
VGrotto
p686
sg15
V20
p687
sg17
V25
p688
sg19
V0
p689
sbag1
(g2
g3
Ntp690
Rp691
(dp692
g7
V415
p693
sg9
VCombee
p694
sg11
VB2,W2,
p695
sg13
VGrotto
p696
sg15
V20
p697
sg17
V25
p698
sg19
V0
p699
sbag1
(g2
g3
Ntp700
Rp701
(dp702
g7
V542
p703
sg9
VLeavanny
p704
sg11
VB2,W2,
p705
sg13
VGrotto
p706
sg15
V20
p707
sg17
V25
p708
sg19
V0
p709
sba.