(lp0
ccopy_reg
_reconstructor
p1
(c__main__
WildPokemon
p2
c__builtin__
object
p3
Ntp4
Rp5
(dp6
VpDexNo
p7
V093
p8
sVpSpecies
p9
VHaunter
p10
sVpGames
p11
VFR,LG,
p12
sVpArea
p13
VCave
p14
sVpMinLevel
p15
V44
p16
sVpMaxLevel
p17
V52
p18
sVpRate
p19
V30
p20
sbag1
(g2
g3
Ntp21
Rp22
(dp23
g7
V092
p24
sg9
VGastly
p25
sg11
VFR,LG,
p26
sg13
VCave
p27
sg15
V38
p28
sg17
V40
p29
sg19
V25
p30
sbag1
(g2
g3
Ntp31
Rp32
(dp33
g7
V041
p34
sg9
VZubat
p35
sg11
VFR,LG,
p36
sg13
VCave
p37
sg15
V37
p38
sg17
g38
sg19
V20
p39
sbag1
(g2
g3
Ntp40
Rp41
(dp42
g7
V042
p43
sg9
VGolbat
p44
sg11
VFR,LG,
p45
sg13
VCave
p46
sg15
V41
p47
sg17
V43
p48
sg19
V20
p49
sbag1
(g2
g3
Ntp50
Rp51
(dp52
g7
V198
p53
sg9
VMurkrow
p54
sg11
VFR,
p55
sg13
VCave
p56
sg15
V22
p57
sg17
g57
sg19
V5
p58
sbag1
(g2
g3
Ntp59
Rp60
(dp61
g7
V200
p62
sg9
VMisdreavus
p63
sg11
VLG,
p64
sg13
VCave
p65
sg15
V22
p66
sg17
g66
sg19
V5
p67
sbag1
(g2
g3
Ntp68
Rp69
(dp70
g7
V093
p71
sg9
VHaunter
p72
sg11
VFR,LG,
p73
sg13
VCave
p74
sg15
V44
p75
sg17
V52
p76
sg19
V30
p77
sbag1
(g2
g3
Ntp78
Rp79
(dp80
g7
V041
p81
sg9
VZubat
p82
sg11
VFR,LG,
p83
sg13
VCave
p84
sg15
V37
p85
sg17
g85
sg19
V20
p86
sbag1
(g2
g3
Ntp87
Rp88
(dp89
g7
V092
p90
sg9
VGastly
p91
sg11
VFR,LG,
p92
sg13
VCave
p93
sg15
V40
p94
sg17
g94
sg19
V20
p95
sbag1
(g2
g3
Ntp96
Rp97
(dp98
g7
V198
p99
sg9
VMurkrow
p100
sg11
g55
sg13
VCave
p101
sg15
V15
p102
sg17
V22
p103
sg19
V20
p104
sbag1
(g2
g3
Ntp105
Rp106
(dp107
g7
V200
p108
sg9
VMisdreavus
p109
sg11
g64
sg13
VCave
p110
sg15
V15
p111
sg17
V22
p112
sg19
V20
p113
sbag1
(g2
g3
Ntp114
Rp115
(dp116
g7
V042
p117
sg9
VGolbat
p118
sg11
VFR,LG,
p119
sg13
VCave
p120
sg15
V41
p121
sg17
g121
sg19
V10
p122
sba.