(lp0
ccopy_reg
_reconstructor
p1
(c__main__
WildPokemon
p2
c__builtin__
object
p3
Ntp4
Rp5
(dp6
VpDexNo
p7
V082
p8
sVpSpecies
p9
VMagneton
p10
sVpGames
p11
VX,Y,
p12
sVpArea
p13
VB1F
p14
sVpMinLevel
p15
V37
p16
sVpMaxLevel
p17
V38
p18
sVpRate
p19
V20
p20
sbag1
(g2
g3
Ntp21
Rp22
(dp23
g7
V101
p24
sg9
VElectrode
p25
sg11
VX,Y,
p26
sg13
VB1F
p27
sg15
V37
p28
sg17
V38
p29
sg19
V20
p30
sbag1
(g2
g3
Ntp31
Rp32
(dp33
g7
V607
p34
sg9
VLitwick
p35
sg11
VX,Y,
p36
sg13
VB1F
p37
sg15
V37
p38
sg17
V38
p39
sg19
V20
p40
sbag1
(g2
g3
Ntp41
Rp42
(dp43
g7
V624
p44
sg9
VPawniard
p45
sg11
VX,Y,
p46
sg13
VB1F
p47
sg15
V36
p48
sg17
V37
p49
sg19
V20
p50
sbag1
(g2
g3
Ntp51
Rp52
(dp53
g7
V707
p54
sg9
VKlefki
p55
sg11
VX,Y,
p56
sg13
VB1F
p57
sg15
V36
p58
sg17
V38
p59
sg19
V20
p60
sbag1
(g2
g3
Ntp61
Rp62
(dp63
g7
V568
p64
sg9
VTrubbish
p65
sg11
VX,Y,
p66
sg13
VShaking trash cans
p67
sg15
V35
p68
sg17
g68
sg19
V0
p69
sbag1
(g2
g3
Ntp70
Rp71
(dp72
g7
V569
p73
sg9
VGarbodor
p74
sg11
VX,Y,
p75
sg13
VShaking trash cans
p76
sg15
V36
p77
sg17
V38
p78
sg19
V0
p79
sbag1
(g2
g3
Ntp80
Rp81
(dp82
g7
V479
p83
sg9
VRotom
p84
sg11
VX,Y,
p85
sg13
VShaking trash cans
p86
sg15
V38
p87
sg17
g87
sg19
V0
p88
sbag1
(g2
g3
Ntp89
Rp90
(dp91
g7
V479
p92
sg9
VRotom
p93
sg11
VX,Y,
p94
sg13
VShaking trash cans
p95
sg15
V38
p96
sg17
g96
sg19
V0
p97
sbag1
(g2
g3
Ntp98
Rp99
(dp100
g7
V479
p101
sg9
VRotom
p102
sg11
VX,Y,
p103
sg13
VShaking trash cans
p104
sg15
V38
p105
sg17
g105
sg19
V0
p106
sbag1
(g2
g3
Ntp107
Rp108
(dp109
g7
V479
p110
sg9
VRotom
p111
sg11
VX,Y,
p112
sg13
VShaking trash cans
p113
sg15
V38
p114
sg17
g114
sg19
V0
p115
sbag1
(g2
g3
Ntp116
Rp117
(dp118
g7
V479
p119
sg9
VRotom
p120
sg11
VX,Y,
p121
sg13
VShaking trash cans
p122
sg15
V38
p123
sg17
g123
sg19
V0
p124
sbag1
(g2
g3
Ntp125
Rp126
(dp127
g7
V479
p128
sg9
VRotom
p129
sg11
VX,Y,
p130
sg13
VShaking trash cans
p131
sg15
V38
p132
sg17
g132
sg19
V0
p133
sba.