(lp0
ccopy_reg
_reconstructor
p1
(c__main__
WildPokemon
p2
c__builtin__
object
p3
Ntp4
Rp5
(dp6
VpDexNo
p7
V041
p8
sVpSpecies
p9
VZubat
p10
sVpGames
p11
VD,P,
p12
sVpArea
p13
V1F
p14
sVpMinLevel
p15
V16
p16
sVpMaxLevel
p17
V18
p18
sVpRate
p19
V50
p20
sbag1
(g2
g3
Ntp21
Rp22
(dp23
g7
V041
p24
sg9
VZubat
p25
sg11
VPt,
p26
sg13
V1F
p27
sg15
V17
p28
sg17
V19
p29
sg19
V35
p30
sbag1
(g2
g3
Ntp31
Rp32
(dp33
g7
V092
p34
sg9
VGastly
p35
sg11
VD,P,
p36
sg13
V1F
p37
sg15
V16
p38
sg17
V18
p39
sg19
V50
p40
sbag1
(g2
g3
Ntp41
Rp42
(dp43
g7
V092
p44
sg9
VGastly
p45
sg11
g26
sg13
V1F
p46
sg15
V17
p47
sg17
V20
p48
sg19
V65
p49
sbag1
(g2
g3
Ntp50
Rp51
(dp52
g7
V198
p53
sg9
VMurkrow
p54
sg11
VD,
p55
sg13
V1F
p56
sg15
V17
p57
sg17
g57
sg19
V20
p58
sbag1
(g2
g3
Ntp59
Rp60
(dp61
g7
V200
p62
sg9
VMisdreavus
p63
sg11
VP,
p64
sg13
V1F
p65
sg15
V17
p66
sg17
g66
sg19
V20
p67
sbag1
(g2
g3
Ntp68
Rp69
(dp70
g7
V355
p71
sg9
VDuskull
p72
sg11
g26
sg13
V1F
p73
sg15
V17
p74
sg17
V19
p75
sg19
V20
p76
sbag1
(g2
g3
Ntp77
Rp78
(dp79
g7
V041
p80
sg9
VZubat
p81
sg11
VD,P,
p82
sg13
V2F
p83
sg15
V17
p84
sg17
V19
p85
sg19
V50
p86
sbag1
(g2
g3
Ntp87
Rp88
(dp89
g7
V041
p90
sg9
VZubat
p91
sg11
g26
sg13
V2F
p92
sg15
V17
p93
sg17
V19
p94
sg19
V35
p95
sbag1
(g2
g3
Ntp96
Rp97
(dp98
g7
V092
p99
sg9
VGastly
p100
sg11
VD,P,
p101
sg13
V2F
p102
sg15
V17
p103
sg17
V19
p104
sg19
V50
p105
sbag1
(g2
g3
Ntp106
Rp107
(dp108
g7
V092
p109
sg9
VGastly
p110
sg11
g26
sg13
V2F
p111
sg15
V17
p112
sg17
V20
p113
sg19
V65
p114
sbag1
(g2
g3
Ntp115
Rp116
(dp117
g7
V198
p118
sg9
VMurkrow
p119
sg11
g55
sg13
V2F
p120
sg15
V18
p121
sg17
g121
sg19
V20
p122
sbag1
(g2
g3
Ntp123
Rp124
(dp125
g7
V200
p126
sg9
VMisdreavus
p127
sg11
g64
sg13
V2F
p128
sg15
V18
p129
sg17
g129
sg19
V20
p130
sbag1
(g2
g3
Ntp131
Rp132
(dp133
g7
V355
p134
sg9
VDuskull
p135
sg11
g26
sg13
V2F
p136
sg15
V17
p137
sg17
V19
p138
sg19
V20
p139
sbag1
(g2
g3
Ntp140
Rp141
(dp142
g7
V041
p143
sg9
VZubat
p144
sg11
VD,P,
p145
sg13
V3F
p146
sg15
V18
p147
sg17
V20
p148
sg19
V49
p149
sbag1
(g2
g3
Ntp150
Rp151
(dp152
g7
V041
p153
sg9
VZubat
p154
sg11
g26
sg13
V3F
p155
sg15
V18
p156
sg17
V20
p157
sg19
V35
p158
sbag1
(g2
g3
Ntp159
Rp160
(dp161
g7
V042
p162
sg9
VGolbat
p163
sg11
VD,P,
p164
sg13
V3F
p165
sg15
V19
p166
sg17
g166
sg19
V1
p167
sbag1
(g2
g3
Ntp168
Rp169
(dp170
g7
V042
p171
sg9
VGolbat
p172
sg11
g26
sg13
V3F
p173
sg15
V21
p174
sg17
g174
sg19
V1
p175
sbag1
(g2
g3
Ntp176
Rp177
(dp178
g7
V092
p179
sg9
VGastly
p180
sg11
VD,P,
p181
sg13
V3F
p182
sg15
V18
p183
sg17
V20
p184
sg19
V50
p185
sbag1
(g2
g3
Ntp186
Rp187
(dp188
g7
V092
p189
sg9
VGastly
p190
sg11
g26
sg13
V3F
p191
sg15
V18
p192
sg17
V21
p193
sg19
V64
p194
sbag1
(g2
g3
Ntp195
Rp196
(dp197
g7
V198
p198
sg9
VMurkrow
p199
sg11
g55
sg13
V3F
p200
sg15
V19
p201
sg17
g201
sg19
V20
p202
sbag1
(g2
g3
Ntp203
Rp204
(dp205
g7
V200
p206
sg9
VMisdreavus
p207
sg11
g64
sg13
V3F
p208
sg15
V19
p209
sg17
g209
sg19
V20
p210
sbag1
(g2
g3
Ntp211
Rp212
(dp213
g7
V355
p214
sg9
VDuskull
p215
sg11
g26
sg13
V3F
p216
sg15
V18
p217
sg17
V20
p218
sg19
V20
p219
sbag1
(g2
g3
Ntp220
Rp221
(dp222
g7
V041
p223
sg9
VZubat
p224
sg11
VD,P,
p225
sg13
V4F
p226
sg15
V19
p227
sg17
V21
p228
sg19
V45
p229
sbag1
(g2
g3
Ntp230
Rp231
(dp232
g7
V041
p233
sg9
VZubat
p234
sg11
g26
sg13
V4F
p235
sg15
V18
p236
sg17
V20
p237
sg19
V35
p238
sbag1
(g2
g3
Ntp239
Rp240
(dp241
g7
V042
p242
sg9
VGolbat
p243
sg11
VD,P,
p244
sg13
V4F
p245
sg15
V20
p246
sg17
V21
p247
sg19
V5
p248
sbag1
(g2
g3
Ntp249
Rp250
(dp251
g7
V042
p252
sg9
VGolbat
p253
sg11
g26
sg13
V4F
p254
sg15
V21
p255
sg17
g255
sg19
V5
p256
sbag1
(g2
g3
Ntp257
Rp258
(dp259
g7
V092
p260
sg9
VGastly
p261
sg11
VD,P,
p262
sg13
V4F
p263
sg15
V19
p264
sg17
V21
p265
sg19
V50
p266
sbag1
(g2
g3
Ntp267
Rp268
(dp269
g7
V092
p270
sg9
VGastly
p271
sg11
g26
sg13
V4F
p272
sg15
V18
p273
sg17
V21
p274
sg19
V60
p275
sbag1
(g2
g3
Ntp276
Rp277
(dp278
g7
V198
p279
sg9
VMurkrow
p280
sg11
g55
sg13
V4F
p281
sg15
V20
p282
sg17
g282
sg19
V20
p283
sbag1
(g2
g3
Ntp284
Rp285
(dp286
g7
V200
p287
sg9
VMisdreavus
p288
sg11
g64
sg13
V4F
p289
sg15
V20
p290
sg17
g290
sg19
V20
p291
sbag1
(g2
g3
Ntp292
Rp293
(dp294
g7
V355
p295
sg9
VDuskull
p296
sg11
g26
sg13
V4F
p297
sg15
V18
p298
sg17
V20
p299
sg19
V20
p300
sbag1
(g2
g3
Ntp301
Rp302
(dp303
g7
V041
p304
sg9
VZubat
p305
sg11
VD,P,
p306
sg13
V5F
p307
sg15
V20
p308
sg17
V21
p309
sg19
V40
p310
sbag1
(g2
g3
Ntp311
Rp312
(dp313
g7
V041
p314
sg9
VZubat
p315
sg11
g26
sg13
V5F
p316
sg15
V19
p317
sg17
V21
p318
sg19
V30
p319
sbag1
(g2
g3
Ntp320
Rp321
(dp322
g7
V042
p323
sg9
VGolbat
p324
sg11
VD,P,
p325
sg13
V5F
p326
sg15
V21
p327
sg17
V23
p328
sg19
V10
p329
sbag1
(g2
g3
Ntp330
Rp331
(dp332
g7
V042
p333
sg9
VGolbat
p334
sg11
g26
sg13
V5F
p335
sg15
V22
p336
sg17
g336
sg19
V10
p337
sbag1
(g2
g3
Ntp338
Rp339
(dp340
g7
V092
p341
sg9
VGastly
p342
sg11
VD,P,
p343
sg13
V5F
p344
sg15
V20
p345
sg17
V22
p346
sg19
V50
p347
sbag1
(g2
g3
Ntp348
Rp349
(dp350
g7
V092
p351
sg9
VGastly
p352
sg11
g26
sg13
V5F
p353
sg15
V19
p354
sg17
V21
p355
sg19
V55
p356
sbag1
(g2
g3
Ntp357
Rp358
(dp359
g7
V198
p360
sg9
VMurkrow
p361
sg11
g55
sg13
V5F
p362
sg15
V21
p363
sg17
g363
sg19
V20
p364
sbag1
(g2
g3
Ntp365
Rp366
(dp367
g7
V200
p368
sg9
VMisdreavus
p369
sg11
g64
sg13
V5F
p370
sg15
V21
p371
sg17
g371
sg19
V20
p372
sbag1
(g2
g3
Ntp373
Rp374
(dp375
g7
V355
p376
sg9
VDuskull
p377
sg11
g26
sg13
V5F
p378
sg15
V19
p379
sg17
V21
p380
sg19
V20
p381
sba.