(lp0
ccopy_reg
_reconstructor
p1
(c__main__
WildPokemon
p2
c__builtin__
object
p3
Ntp4
Rp5
(dp6
VpDexNo
p7
V074
p8
sVpSpecies
p9
VGeodude
p10
sVpGames
p11
VE,
p12
sVpArea
p13
VCave
p14
sVpMinLevel
p15
V27
p16
sVpMaxLevel
p17
V30
p18
sVpRate
p19
V55
p20
sbag1
(g2
g3
Ntp21
Rp22
(dp23
g7
V075
p24
sg9
VGraveler
p25
sg11
g12
sg13
VCave
p26
sg15
V30
p27
sg17
V33
p28
sg19
V15
p29
sbag1
(g2
g3
Ntp30
Rp31
(dp32
g7
V324
p33
sg9
VTorkoal
p34
sg11
g12
sg13
VCave
p35
sg15
V28
p36
sg17
V30
p37
sg19
V30
p38
sba.