(lp0
ccopy_reg
_reconstructor
p1
(c__main__
WildPokemon
p2
c__builtin__
object
p3
Ntp4
Rp5
(dp6
VpDexNo
p7
V021
p8
sVpSpecies
p9
VSpearow
p10
sVpGames
p11
VUS,UM,
p12
sVpArea
p13
VSpecial
p14
sVpMinLevel
p15
V4
p16
sVpMaxLevel
p17
g16
sVpRate
p18
V0
p19
sbag1
(g2
g3
Ntp20
Rp21
(dp22
g7
V791
p23
sg9
VSolgaleo
p24
sg11
VUS,
p25
sg13
VSpecial
p26
sg15
V60
p27
sg17
g27
sg18
V0
p28
sbag1
(g2
g3
Ntp29
Rp30
(dp31
g7
V792
p32
sg9
VLunala
p33
sg11
VUM,
p34
sg13
VSpecial
p35
sg15
V60
p36
sg17
g36
sg18
V0
p37
sba.