(lp0
ccopy_reg
_reconstructor
p1
(c__main__
WildPokemon
p2
c__builtin__
object
p3
Ntp4
Rp5
(dp6
VpDexNo
p7
V440
p8
sVpSpecies
p9
VHappiny
p10
sVpGames
p11
VSu,M,
p12
sVpArea
p13
VTrade
p14
sVpMinLevel
p15
V27
p16
sVpMaxLevel
p17
g16
sVpRate
p18
V0
p19
sbag1
(g2
g3
Ntp20
Rp21
(dp22
g7
V020
p23
sg9
VRaticate
p24
sg11
VSu,M,
p25
sg13
VGrass
p26
sg15
V24
p27
sg17
V27
p28
sg18
V20
p29
sbag1
(g2
g3
Ntp30
Rp31
(dp32
g7
V081
p33
sg9
VMagnemite
p34
sg11
VSu,M,
p35
sg13
VGrass
p36
sg15
V24
p37
sg17
V27
p38
sg18
V20
p39
sbag1
(g2
g3
Ntp40
Rp41
(dp42
g7
V088
p43
sg9
VGrimer
p44
sg11
VSu,M,
p45
sg13
VGrass
p46
sg15
V24
p47
sg17
V27
p48
sg18
V30
p49
sbag1
(g2
g3
Ntp50
Rp51
(dp52
g7
V568
p53
sg9
VTrubbish
p54
sg11
VSu,M,
p55
sg13
VGrass
p56
sg15
V24
p57
sg17
V27
p58
sg18
V30
p59
sbag1
(g2
g3
Ntp60
Rp61
(dp62
g7
V735
p63
sg9
VGumshoos
p64
sg11
VSu,M,
p65
sg13
VGrass
p66
sg15
V24
p67
sg17
V27
p68
sg18
V20
p69
sbag1
(g2
g3
Ntp70
Rp71
(dp72
g7
V081
p73
sg9
VMagnemite
p74
sg11
VUS,UM,
p75
sg13
VGrass
p76
sg15
V25
p77
sg17
V28
p78
sg18
V20
p79
sbag1
(g2
g3
Ntp80
Rp81
(dp82
g7
V088
p83
sg9
VGrimer
p84
sg11
VUS,UM,
p85
sg13
VGrass
p86
sg15
V25
p87
sg17
V28
p88
sg18
V30
p89
sbag1
(g2
g3
Ntp90
Rp91
(dp92
g7
V568
p93
sg9
VTrubbish
p94
sg11
VUS,UM,
p95
sg13
VGrass
p96
sg15
V25
p97
sg17
V28
p98
sg18
V30
p99
sbag1
(g2
g3
Ntp100
Rp101
(dp102
g7
V572
p103
sg9
VMinccino
p104
sg11
VUS,UM,
p105
sg13
VGrass
p106
sg15
V25
p107
sg17
V28
p108
sg18
V20
p109
sba.