(lp0
ccopy_reg
_reconstructor
p1
(c__main__
WildPokemon
p2
c__builtin__
object
p3
Ntp4
Rp5
(dp6
VpDexNo
p7
V074
p8
sVpSpecies
p9
VGeodude
p10
sVpGames
p11
VD,P,
p12
sVpArea
p13
VCave
p14
sVpMinLevel
p15
V22
p16
sVpMaxLevel
p17
g16
sVpRate
p18
V95
p19
sbag1
(g2
g3
Ntp20
Rp21
(dp22
g7
V449
p23
sg9
VHippopotas
p24
sg11
VD,P,
p25
sg13
VCave
p26
sg15
V22
p27
sg17
V23
p28
sg18
V5
p29
sbag1
(g2
g3
Ntp30
Rp31
(dp32
g7
V074
p33
sg9
VGeodude
p34
sg11
VPt,
p35
sg13
VCave
p36
sg15
V21
p37
sg17
V23
p38
sg18
V95
p39
sbag1
(g2
g3
Ntp40
Rp41
(dp42
g7
V449
p43
sg9
VHippopotas
p44
sg11
g35
sg13
VCave
p45
sg15
V22
p46
sg17
V24
p47
sg18
V5
p48
sbag1
(g2
g3
Ntp49
Rp50
(dp51
g7
V074
p52
sg9
VGeodude
p53
sg11
VD,P,
p54
sg13
VCave
p55
sg15
V23
p56
sg17
g56
sg18
V90
p57
sbag1
(g2
g3
Ntp58
Rp59
(dp60
g7
V449
p61
sg9
VHippopotas
p62
sg11
VD,P,
p63
sg13
VCave
p64
sg15
V22
p65
sg17
V24
p66
sg18
V10
p67
sbag1
(g2
g3
Ntp68
Rp69
(dp70
g7
V074
p71
sg9
VGeodude
p72
sg11
g35
sg13
VCave
p73
sg15
V22
p74
sg17
V24
p75
sg18
V90
p76
sbag1
(g2
g3
Ntp77
Rp78
(dp79
g7
V449
p80
sg9
VHippopotas
p81
sg11
g35
sg13
VCave
p82
sg15
V23
p83
sg17
V25
p84
sg18
V10
p85
sbag1
(g2
g3
Ntp86
Rp87
(dp88
g7
V074
p89
sg9
VGeodude
p90
sg11
VD,P,
p91
sg13
VCave
p92
sg15
V24
p93
sg17
g93
sg18
V80
p94
sbag1
(g2
g3
Ntp95
Rp96
(dp97
g7
V449
p98
sg9
VHippopotas
p99
sg11
VD,P,
p100
sg13
VCave
p101
sg15
V22
p102
sg17
V25
p103
sg18
V20
p104
sbag1
(g2
g3
Ntp105
Rp106
(dp107
g7
V074
p108
sg9
VGeodude
p109
sg11
g35
sg13
VCave
p110
sg15
V23
p111
sg17
V25
p112
sg18
V80
p113
sbag1
(g2
g3
Ntp114
Rp115
(dp116
g7
V449
p117
sg9
VHippopotas
p118
sg11
g35
sg13
VCave
p119
sg15
V24
p120
sg17
V26
p121
sg18
V20
p122
sba.