(lp0
ccopy_reg
_reconstructor
p1
(c__main__
WildPokemon
p2
c__builtin__
object
p3
Ntp4
Rp5
(dp6
VpDexNo
p7
V581
p8
sVpSpecies
p9
VSwanna
p10
sVpGames
p11
VB,W,
p12
sVpArea
p13
VShadow
p14
sVpMinLevel
p15
V47
p16
sVpMaxLevel
p17
V50
p18
sVpRate
p19
V100
p20
sbag1
(g2
g3
Ntp21
Rp22
(dp23
g7
V129
p24
sg9
VMagikarp
p25
sg11
VB,W,
p26
sg13
VGift
p27
sg15
V5
p28
sg17
g28
sg19
V0
p29
sbag1
(g2
g3
Ntp30
Rp31
(dp32
g7
V581
p33
sg9
VSwanna
p34
sg11
VB2,W2,
p35
sg13
VShadow
p36
sg15
V54
p37
sg17
V57
p38
sg19
V100
p39
sbag1
(g2
g3
Ntp40
Rp41
(dp42
g7
V129
p43
sg9
VMagikarp
p44
sg11
VB2,W2,
p45
sg13
VGift
p46
sg15
g28
sg17
g28
sg19
V0
p47
sbag1
(g2
g3
Ntp48
Rp49
(dp50
g7
V488
p51
sg9
VCresselia
p52
sg11
VB2,W2,
p53
sg13
VSpecial
p54
sg15
V68
p55
sg17
g55
sg19
V0
p56
sba.