(lp0
ccopy_reg
_reconstructor
p1
(c__main__
WildPokemon
p2
c__builtin__
object
p3
Ntp4
Rp5
(dp6
VpDexNo
p7
V001
p8
sVpSpecies
p9
VBulbasaur
p10
sVpGames
p11
VSw,Sh,
p12
sVpArea
p13
VGift
p14
sVpMinLevel
p15
V5
p16
sVpMaxLevel
p17
g16
sVpRate
p18
V0
p19
sbag1
(g2
g3
Ntp20
Rp21
(dp22
g7
V007
p23
sg9
VSquirtle
p24
sg11
VSw,Sh,
p25
sg13
VGift
p26
sg15
g16
sg17
g16
sg18
V0
p27
sbag1
(g2
g3
Ntp28
Rp29
(dp30
g7
V891
p31
sg9
VKubfu
p32
sg11
VSw,Sh,
p33
sg13
VGift
p34
sg15
V10
p35
sg17
g35
sg18
V0
p36
sbag1
(g2
g3
Ntp37
Rp38
(dp39
g7
V137
p40
sg9
VPorygon
p41
sg11
VSw,Sh,
p42
sg13
VGift
p43
sg15
V25
p44
sg17
g44
sg18
V0
p45
sba.