(lp0
ccopy_reg
_reconstructor
p1
(c__main__
WildPokemon
p2
c__builtin__
object
p3
Ntp4
Rp5
(dp6
VpDexNo
p7
V041
p8
sVpSpecies
p9
VZubat
p10
sVpGames
p11
VSu,M,
p12
sVpArea
p13
VGrass
p14
sVpMinLevel
p15
V20
p16
sVpMaxLevel
p17
V23
p18
sVpRate
p19
V20
p20
sbag1
(g2
g3
Ntp21
Rp22
(dp23
g7
V092
p24
sg9
VGastly
p25
sg11
VSu,M,
p26
sg13
VGrass
p27
sg15
V20
p28
sg17
V23
p29
sg19
V50
p30
sbag1
(g2
g3
Ntp31
Rp32
(dp33
g7
V708
p34
sg9
VPhantump
p35
sg11
VSu,M,
p36
sg13
VGrass
p37
sg15
V20
p38
sg17
V23
p39
sg19
V30
p40
sbag1
(g2
g3
Ntp41
Rp42
(dp43
g7
V796
p44
sg9
VXurkitree
p45
sg11
VSu,M,
p46
sg13
VGrass
p47
sg15
V65
p48
sg17
g48
sg19
V0
p49
sbag1
(g2
g3
Ntp50
Rp51
(dp52
g7
V041
p53
sg9
VZubat
p54
sg11
VUS,UM,
p55
sg13
VGrass
p56
sg15
V21
p57
sg17
V24
p58
sg19
V20
p59
sbag1
(g2
g3
Ntp60
Rp61
(dp62
g7
V092
p63
sg9
VGastly
p64
sg11
VUS,UM,
p65
sg13
VGrass
p66
sg15
V21
p67
sg17
V24
p68
sg19
V50
p69
sbag1
(g2
g3
Ntp70
Rp71
(dp72
g7
V708
p73
sg9
VPhantump
p74
sg11
VUS,UM,
p75
sg13
VGrass
p76
sg15
V21
p77
sg17
V24
p78
sg19
V30
p79
sba.