(lp0
ccopy_reg
_reconstructor
p1
(c__main__
WildPokemon
p2
c__builtin__
object
p3
Ntp4
Rp5
(dp6
VpDexNo
p7
V187
p8
sVpSpecies
p9
VHoppip
p10
sVpGames
p11
VFR,LG,
p12
sVpArea
p13
VGrass
p14
sVpMinLevel
p15
V6
p16
sVpMaxLevel
p17
V16
p18
sVpRate
p19
V100
p20
sbag1
(g2
g3
Ntp21
Rp22
(dp23
g7
V072
p24
sg9
VTentacool
p25
sg11
VFR,LG,
p26
sg13
VSurf
p27
sg15
V5
p28
sg17
V40
p29
sg19
V65
p30
sbag1
(g2
g3
Ntp31
Rp32
(dp33
g7
V187
p34
sg9
VHoppip
p35
sg11
VFR,LG,
p36
sg13
VSurf
p37
sg15
g28
sg17
V15
p38
sg19
V30
p39
sbag1
(g2
g3
Ntp40
Rp41
(dp42
g7
V073
p43
sg9
VTentacruel
p44
sg11
VFR,LG,
p45
sg13
VSurf
p46
sg15
V35
p47
sg17
V40
p48
sg19
V5
p49
sbag1
(g2
g3
Ntp50
Rp51
(dp52
g7
V129
p53
sg9
VMagikarp
p54
sg11
VFR,LG,
p55
sg13
VFish Old
p56
sg15
g28
sg17
g28
sg19
V100
p57
sbag1
(g2
g3
Ntp58
Rp59
(dp60
g7
V116
p61
sg9
VHorsea
p62
sg11
VFR,
p63
sg13
VFish Good
p64
sg15
g28
sg17
V15
p65
sg19
V80
p66
sbag1
(g2
g3
Ntp67
Rp68
(dp69
g7
V098
p70
sg9
VKrabby
p71
sg11
VLG,
p72
sg13
VFish Good
p73
sg15
g28
sg17
V15
p74
sg19
V80
p75
sbag1
(g2
g3
Ntp76
Rp77
(dp78
g7
V129
p79
sg9
VMagikarp
p80
sg11
VFR,LG,
p81
sg13
VFish Good
p82
sg15
g28
sg17
V15
p83
sg19
V20
p84
sbag1
(g2
g3
Ntp85
Rp86
(dp87
g7
V116
p88
sg9
VHorsea
p89
sg11
g63
sg13
VFish Super
p90
sg15
V15
p91
sg17
V25
p92
sg19
V40
p93
sbag1
(g2
g3
Ntp94
Rp95
(dp96
g7
V211
p97
sg9
VQwilfish
p98
sg11
g63
sg13
VFish Super
p99
sg15
V15
p100
sg17
V25
p101
sg19
V40
p102
sbag1
(g2
g3
Ntp103
Rp104
(dp105
g7
V098
p106
sg9
VKrabby
p107
sg11
g72
sg13
VFish Super
p108
sg15
V15
p109
sg17
V25
p110
sg19
V40
p111
sbag1
(g2
g3
Ntp112
Rp113
(dp114
g7
V223
p115
sg9
VRemoraid
p116
sg11
g72
sg13
VFish Super
p117
sg15
V15
p118
sg17
V25
p119
sg19
V40
p120
sbag1
(g2
g3
Ntp121
Rp122
(dp123
g7
V130
p124
sg9
VGyarados
p125
sg11
VFR,LG,
p126
sg13
VFish Super
p127
sg15
V15
p128
sg17
V25
p129
sg19
V15
p130
sbag1
(g2
g3
Ntp131
Rp132
(dp133
g7
V117
p134
sg9
VSeadra
p135
sg11
g63
sg13
VFish Super
p136
sg15
V25
p137
sg17
V35
p138
sg19
V4
p139
sbag1
(g2
g3
Ntp140
Rp141
(dp142
g7
V099
p143
sg9
VKingler
p144
sg11
g72
sg13
VFish Super
p145
sg15
V25
p146
sg17
V35
p147
sg19
V4
p148
sbag1
(g2
g3
Ntp149
Rp150
(dp151
g7
V054
p152
sg9
VPsyduck
p153
sg11
g63
sg13
VFish Super
p154
sg15
V25
p155
sg17
V35
p156
sg19
V1
p157
sbag1
(g2
g3
Ntp158
Rp159
(dp160
g7
V079
p161
sg9
VSlowpoke
p162
sg11
g72
sg13
VFish Super
p163
sg15
V25
p164
sg17
V35
p165
sg19
V1
p166
sba.