(lp0
ccopy_reg
_reconstructor
p1
(c__main__
WildPokemon
p2
c__builtin__
object
p3
Ntp4
Rp5
(dp6
VpDexNo
p7
V041
p8
sVpSpecies
p9
VZubat
p10
sVpGames
p11
VRu,S,E,
p12
sVpArea
p13
VCave
p14
sVpMinLevel
p15
V14
p16
sVpMaxLevel
p17
V20
p18
sVpRate
p19
V80
p20
sbag1
(g2
g3
Ntp21
Rp22
(dp23
g7
V337
p24
sg9
VLunatone
p25
sg11
VS,
p26
sg13
VCave
p27
sg15
V14
p28
sg17
V18
p29
sg19
V20
p30
sbag1
(g2
g3
Ntp31
Rp32
(dp33
g7
V338
p34
sg9
VSolrock
p35
sg11
VRu,E,
p36
sg13
VCave
p37
sg15
V14
p38
sg17
V18
p39
sg19
V20
p40
sbag1
(g2
g3
Ntp41
Rp42
(dp43
g7
V041
p44
sg9
VZubat
p45
sg11
VRu,S,E,
p46
sg13
VSurf
p47
sg15
V5
p48
sg17
V35
p49
sg19
V90
p50
sbag1
(g2
g3
Ntp51
Rp52
(dp53
g7
V338
p54
sg9
VSolrock
p55
sg11
VRu,E,
p56
sg13
VSurf
p57
sg15
g48
sg17
V35
p58
sg19
V10
p59
sbag1
(g2
g3
Ntp60
Rp61
(dp62
g7
V337
p63
sg9
VLunatone
p64
sg11
g26
sg13
VSurf
p65
sg15
g48
sg17
V35
p66
sg19
V10
p67
sbag1
(g2
g3
Ntp68
Rp69
(dp70
g7
V118
p71
sg9
VGoldeen
p72
sg11
VRu,S,E,
p73
sg13
VFish Old
p74
sg15
g48
sg17
V10
p75
sg19
V30
p76
sbag1
(g2
g3
Ntp77
Rp78
(dp79
g7
V129
p80
sg9
VMagikarp
p81
sg11
VRu,S,E,
p82
sg13
VFish Old
p83
sg15
g48
sg17
V10
p84
sg19
V70
p85
sbag1
(g2
g3
Ntp86
Rp87
(dp88
g7
V118
p89
sg9
VGoldeen
p90
sg11
VRu,S,E,
p91
sg13
VFish Good
p92
sg15
V10
p93
sg17
V30
p94
sg19
V20
p95
sbag1
(g2
g3
Ntp96
Rp97
(dp98
g7
V129
p99
sg9
VMagikarp
p100
sg11
VRu,S,E,
p101
sg13
VFish Good
p102
sg15
V10
p103
sg17
V30
p104
sg19
V60
p105
sbag1
(g2
g3
Ntp106
Rp107
(dp108
g7
V339
p109
sg9
VBarboach
p110
sg11
VRu,S,E,
p111
sg13
VFish Good
p112
sg15
V10
p113
sg17
V30
p114
sg19
V20
p115
sbag1
(g2
g3
Ntp116
Rp117
(dp118
g7
V339
p119
sg9
VBarboach
p120
sg11
VRu,S,E,
p121
sg13
VFish Super
p122
sg15
V20
p123
sg17
V45
p124
sg19
V100
p125
sbag1
(g2
g3
Ntp126
Rp127
(dp128
g7
V042
p129
sg9
VGolbat
p130
sg11
VRu,S,E,
p131
sg13
VCave
p132
sg15
V33
p133
sg17
V40
p134
sg19
V65
p135
sbag1
(g2
g3
Ntp136
Rp137
(dp138
g7
V337
p139
sg9
VLunatone
p140
sg11
g26
sg13
VCave
p141
sg15
V33
p142
sg17
V39
p143
sg19
V35
p144
sbag1
(g2
g3
Ntp145
Rp146
(dp147
g7
V338
p148
sg9
VSolrock
p149
sg11
VRu,E,
p150
sg13
VCave
p151
sg15
V33
p152
sg17
V39
p153
sg19
V35
p154
sbag1
(g2
g3
Ntp155
Rp156
(dp157
g7
V042
p158
sg9
VGolbat
p159
sg11
VRu,S,E,
p160
sg13
VSurf
p161
sg15
V30
p162
sg17
V35
p163
sg19
V90
p164
sbag1
(g2
g3
Ntp165
Rp166
(dp167
g7
V337
p168
sg9
VLunatone
p169
sg11
g26
sg13
VSurf
p170
sg15
g48
sg17
V35
p171
sg19
V10
p172
sbag1
(g2
g3
Ntp173
Rp174
(dp175
g7
V338
p176
sg9
VSolrock
p177
sg11
VRu,E,
p178
sg13
VSurf
p179
sg15
g48
sg17
V35
p180
sg19
V10
p181
sbag1
(g2
g3
Ntp182
Rp183
(dp184
g7
V118
p185
sg9
VGoldeen
p186
sg11
VRu,S,E,
p187
sg13
VFish Old
p188
sg15
g48
sg17
V10
p189
sg19
V30
p190
sbag1
(g2
g3
Ntp191
Rp192
(dp193
g7
V129
p194
sg9
VMagikarp
p195
sg11
VRu,S,E,
p196
sg13
VFish Old
p197
sg15
g48
sg17
V10
p198
sg19
V70
p199
sbag1
(g2
g3
Ntp200
Rp201
(dp202
g7
V118
p203
sg9
VGoldeen
p204
sg11
VRu,S,E,
p205
sg13
VFish Good
p206
sg15
V10
p207
sg17
V30
p208
sg19
V20
p209
sbag1
(g2
g3
Ntp210
Rp211
(dp212
g7
V129
p213
sg9
VMagikarp
p214
sg11
VRu,S,E,
p215
sg13
VFish Good
p216
sg15
V10
p217
sg17
V30
p218
sg19
V60
p219
sbag1
(g2
g3
Ntp220
Rp221
(dp222
g7
V339
p223
sg9
VBarboach
p224
sg11
VRu,S,E,
p225
sg13
VFish Good
p226
sg15
V10
p227
sg17
V30
p228
sg19
V20
p229
sbag1
(g2
g3
Ntp230
Rp231
(dp232
g7
V339
p233
sg9
VBarboach
p234
sg11
VRu,S,E,
p235
sg13
VFish Super
p236
sg15
V25
p237
sg17
V35
p238
sg19
V80
p239
sbag1
(g2
g3
Ntp240
Rp241
(dp242
g7
V340
p243
sg9
VWhiscash
p244
sg11
VRu,S,E,
p245
sg13
VFish Super
p246
sg15
V30
p247
sg17
V45
p248
sg19
V20
p249
sbag1
(g2
g3
Ntp250
Rp251
(dp252
g7
V042
p253
sg9
VGolbat
p254
sg11
VRu,S,E,
p255
sg13
VCave
p256
sg15
V33
p257
sg17
V40
p258
sg19
V50
p259
sbag1
(g2
g3
Ntp260
Rp261
(dp262
g7
V337
p263
sg9
VLunatone
p264
sg11
g26
sg13
VCave
p265
sg15
V35
p266
sg17
V39
p267
sg19
V25
p268
sbag1
(g2
g3
Ntp269
Rp270
(dp271
g7
V338
p272
sg9
VSolrock
p273
sg11
VRu,E,
p274
sg13
VCave
p275
sg15
V35
p276
sg17
V39
p277
sg19
V25
p278
sbag1
(g2
g3
Ntp279
Rp280
(dp281
g7
V371
p282
sg9
VBagon
p283
sg11
VRu,S,E,
p284
sg13
VCave
p285
sg15
V25
p286
sg17
V35
p287
sg19
V25
p288
sbag1
(g2
g3
Ntp289
Rp290
(dp291
g7
V042
p292
sg9
VGolbat
p293
sg11
VRu,S,E,
p294
sg13
VSurf
p295
sg15
V30
p296
sg17
V35
p297
sg19
V90
p298
sbag1
(g2
g3
Ntp299
Rp300
(dp301
g7
V337
p302
sg9
VLunatone
p303
sg11
g26
sg13
VSurf
p304
sg15
g48
sg17
V35
p305
sg19
V10
p306
sbag1
(g2
g3
Ntp307
Rp308
(dp309
g7
V338
p310
sg9
VSolrock
p311
sg11
VRu,E,
p312
sg13
VSurf
p313
sg15
g48
sg17
V35
p314
sg19
V10
p315
sbag1
(g2
g3
Ntp316
Rp317
(dp318
g7
V118
p319
sg9
VGoldeen
p320
sg11
VRu,S,E,
p321
sg13
VFish Old
p322
sg15
g48
sg17
V10
p323
sg19
V30
p324
sbag1
(g2
g3
Ntp325
Rp326
(dp327
g7
V129
p328
sg9
VMagikarp
p329
sg11
VRu,S,E,
p330
sg13
VFish Old
p331
sg15
g48
sg17
V10
p332
sg19
V70
p333
sbag1
(g2
g3
Ntp334
Rp335
(dp336
g7
V118
p337
sg9
VGoldeen
p338
sg11
VRu,S,E,
p339
sg13
VFish Good
p340
sg15
V10
p341
sg17
V30
p342
sg19
V20
p343
sbag1
(g2
g3
Ntp344
Rp345
(dp346
g7
V129
p347
sg9
VMagikarp
p348
sg11
VRu,S,E,
p349
sg13
VFish Good
p350
sg15
V10
p351
sg17
V30
p352
sg19
V60
p353
sbag1
(g2
g3
Ntp354
Rp355
(dp356
g7
V339
p357
sg9
VBarboach
p358
sg11
VRu,S,E,
p359
sg13
VFish Good
p360
sg15
V10
p361
sg17
V30
p362
sg19
V20
p363
sbag1
(g2
g3
Ntp364
Rp365
(dp366
g7
V339
p367
sg9
VBarboach
p368
sg11
VRu,S,E,
p369
sg13
VFish Super
p370
sg15
V25
p371
sg17
V35
p372
sg19
V80
p373
sbag1
(g2
g3
Ntp374
Rp375
(dp376
g7
V340
p377
sg9
VWhiscash
p378
sg11
VRu,S,E,
p379
sg13
VFish Super
p380
sg15
V30
p381
sg17
V45
p382
sg19
V20
p383
sbag1
(g2
g3
Ntp384
Rp385
(dp386
g7
V042
p387
sg9
VGolbat
p388
sg11
VE,
p389
sg13
VCave
p390
sg15
V33
p391
sg17
V40
p392
sg19
V65
p393
sbag1
(g2
g3
Ntp394
Rp395
(dp396
g7
V338
p397
sg9
VSolrock
p398
sg11
g389
sg13
VCave
p399
sg15
V33
p400
sg17
V39
p401
sg19
V35
p402
sbag1
(g2
g3
Ntp403
Rp404
(dp405
g7
V041
p406
sg9
VZubat
p407
sg11
VOR,AS,
p408
sg13
VCave
p409
sg15
V16
p410
sg17
V19
p411
sg19
V75
p412
sbag1
(g2
g3
Ntp413
Rp414
(dp415
g7
V337
p416
sg9
VLunatone
p417
sg11
VAS,
p418
sg13
VCave
p419
sg15
V16
p420
sg17
V19
p421
sg19
V25
p422
sbag1
(g2
g3
Ntp423
Rp424
(dp425
g7
V338
p426
sg9
VSolrock
p427
sg11
VOR,
p428
sg13
VCave
p429
sg15
V16
p430
sg17
V19
p431
sg19
V25
p432
sbag1
(g2
g3
Ntp433
Rp434
(dp435
g7
V041
p436
sg9
VZubat
p437
sg11
VOR,AS,
p438
sg13
VHorde Encounter
p439
sg15
V9
p440
sg17
g440
sg19
V100
p441
sbag1
(g2
g3
Ntp442
Rp443
(dp444
g7
V035
p445
sg9
VClefairy
p446
sg11
VOR,AS,
p447
sg13
VCave
p448
sg15
V19
p449
sg17
g449
sg19
V0
p450
sbag1
(g2
g3
Ntp451
Rp452
(dp453
g7
V621
p454
sg9
VDruddigon
p455
sg11
VOR,AS,
p456
sg13
VCave
p457
sg15
V19
p458
sg17
g458
sg19
V0
p459
sbag1
(g2
g3
Ntp460
Rp461
(dp462
g7
V633
p463
sg9
VDeino
p464
sg11
VOR,AS,
p465
sg13
VCave
p466
sg15
V19
p467
sg17
g467
sg19
V0
p468
sbag1
(g2
g3
Ntp469
Rp470
(dp471
g7
V041
p472
sg9
VZubat
p473
sg11
VOR,AS,
p474
sg13
VSurf
p475
sg15
V15
p476
sg17
V20
p477
sg19
V80
p478
sbag1
(g2
g3
Ntp479
Rp480
(dp481
g7
V042
p482
sg9
VGolbat
p483
sg11
VOR,AS,
p484
sg13
VSurf
p485
sg15
V25
p486
sg17
g486
sg19
V4
p487
sbag1
(g2
g3
Ntp488
Rp489
(dp490
g7
V338
p491
sg9
VSolrock
p492
sg11
g428
sg13
VSurf
p493
sg15
V20
p494
sg17
V25
p495
sg19
V16
p496
sbag1
(g2
g3
Ntp497
Rp498
(dp499
g7
V337
p500
sg9
VLunatone
p501
sg11
g418
sg13
VSurf
p502
sg15
V20
p503
sg17
V25
p504
sg19
V16
p505
sbag1
(g2
g3
Ntp506
Rp507
(dp508
g7
V118
p509
sg9
VGoldeen
p510
sg11
VOR,AS,
p511
sg13
VFish Old
p512
sg15
g48
sg17
g48
sg19
V35
p513
sbag1
(g2
g3
Ntp514
Rp515
(dp516
g7
V129
p517
sg9
VMagikarp
p518
sg11
VOR,AS,
p519
sg13
VFish Old
p520
sg15
V10
p521
sg17
V15
p522
sg19
V65
p523
sbag1
(g2
g3
Ntp524
Rp525
(dp526
g7
V118
p527
sg9
VGoldeen
p528
sg11
VOR,AS,
p529
sg13
VFish Good
p530
sg15
V25
p531
sg17
g531
sg19
V35
p532
sbag1
(g2
g3
Ntp533
Rp534
(dp535
g7
V129
p536
sg9
VMagikarp
p537
sg11
VOR,AS,
p538
sg13
VFish Good
p539
sg15
V25
p540
sg17
g540
sg19
V60
p541
sbag1
(g2
g3
Ntp542
Rp543
(dp544
g7
V339
p545
sg9
VBarboach
p546
sg11
VOR,AS,
p547
sg13
VFish Good
p548
sg15
V25
p549
sg17
g549
sg19
V5
p550
sbag1
(g2
g3
Ntp551
Rp552
(dp553
g7
V339
p554
sg9
VBarboach
p555
sg11
VOR,AS,
p556
sg13
VFish Super
p557
sg15
V30
p558
sg17
V40
p559
sg19
V100
p560
sbag1
(g2
g3
Ntp561
Rp562
(dp563
g7
V042
p564
sg9
VGolbat
p565
sg11
VOR,AS,
p566
sg13
VCave
p567
sg15
V37
p568
sg17
V40
p569
sg19
V75
p570
sbag1
(g2
g3
Ntp571
Rp572
(dp573
g7
V337
p574
sg9
VLunatone
p575
sg11
g418
sg13
VCave
p576
sg15
V37
p577
sg17
V40
p578
sg19
V25
p579
sbag1
(g2
g3
Ntp580
Rp581
(dp582
g7
V338
p583
sg9
VSolrock
p584
sg11
g428
sg13
VCave
p585
sg15
V37
p586
sg17
V40
p587
sg19
V25
p588
sbag1
(g2
g3
Ntp589
Rp590
(dp591
g7
V041
p592
sg9
VZubat
p593
sg11
VOR,AS,
p594
sg13
VHorde Encounter
p595
sg15
V20
p596
sg17
g596
sg19
V100
p597
sbag1
(g2
g3
Ntp598
Rp599
(dp600
g7
V035
p601
sg9
VClefairy
p602
sg11
VOR,AS,
p603
sg13
VCave
p604
sg15
V40
p605
sg17
g605
sg19
V0
p606
sbag1
(g2
g3
Ntp607
Rp608
(dp609
g7
V621
p610
sg9
VDruddigon
p611
sg11
VOR,AS,
p612
sg13
VCave
p613
sg15
V40
p614
sg17
g614
sg19
V0
p615
sbag1
(g2
g3
Ntp616
Rp617
(dp618
g7
V633
p619
sg9
VDeino
p620
sg11
VOR,AS,
p621
sg13
VCave
p622
sg15
V40
p623
sg17
g623
sg19
V0
p624
sbag1
(g2
g3
Ntp625
Rp626
(dp627
g7
V042
p628
sg9
VGolbat
p629
sg11
VOR,AS,
p630
sg13
VSurf
p631
sg15
V30
p632
sg17
V35
p633
sg19
V80
p634
sbag1
(g2
g3
Ntp635
Rp636
(dp637
g7
V338
p638
sg9
VSolrock
p639
sg11
g428
sg13
VSurf
p640
sg15
V30
p641
sg17
V40
p642
sg19
V20
p643
sbag1
(g2
g3
Ntp644
Rp645
(dp646
g7
V337
p647
sg9
VLunatone
p648
sg11
g418
sg13
VSurf
p649
sg15
V30
p650
sg17
V40
p651
sg19
V20
p652
sbag1
(g2
g3
Ntp653
Rp654
(dp655
g7
V118
p656
sg9
VGoldeen
p657
sg11
VOR,AS,
p658
sg13
VFish Old
p659
sg15
V10
p660
sg17
g660
sg19
V35
p661
sbag1
(g2
g3
Ntp662
Rp663
(dp664
g7
V129
p665
sg9
VMagikarp
p666
sg11
VOR,AS,
p667
sg13
VFish Old
p668
sg15
g48
sg17
V10
p669
sg19
V65
p670
sbag1
(g2
g3
Ntp671
Rp672
(dp673
g7
V118
p674
sg9
VGoldeen
p675
sg11
VOR,AS,
p676
sg13
VFish Good
p677
sg15
V30
p678
sg17
g678
sg19
V35
p679
sbag1
(g2
g3
Ntp680
Rp681
(dp682
g7
V129
p683
sg9
VMagikarp
p684
sg11
VOR,AS,
p685
sg13
VFish Good
p686
sg15
V30
p687
sg17
g687
sg19
V60
p688
sbag1
(g2
g3
Ntp689
Rp690
(dp691
g7
V339
p692
sg9
VBarboach
p693
sg11
VOR,AS,
p694
sg13
VFish Good
p695
sg15
V30
p696
sg17
g696
sg19
V5
p697
sbag1
(g2
g3
Ntp698
Rp699
(dp700
g7
V339
p701
sg9
VBarboach
p702
sg11
VOR,AS,
p703
sg13
VFish Super
p704
sg15
V30
p705
sg17
V35
p706
sg19
V95
p707
sbag1
(g2
g3
Ntp708
Rp709
(dp710
g7
V340
p711
sg9
VWhiscash
p712
sg11
VOR,AS,
p713
sg13
VFish Super
p714
sg15
V40
p715
sg17
g715
sg19
V5
p716
sbag1
(g2
g3
Ntp717
Rp718
(dp719
g7
V042
p720
sg9
VGolbat
p721
sg11
VOR,AS,
p722
sg13
VCave
p723
sg15
V37
p724
sg17
V40
p725
sg19
V40
p726
sbag1
(g2
g3
Ntp727
Rp728
(dp729
g7
V337
p730
sg9
VLunatone
p731
sg11
g418
sg13
VCave
p732
sg15
V37
p733
sg17
V40
p734
sg19
V25
p735
sbag1
(g2
g3
Ntp736
Rp737
(dp738
g7
V338
p739
sg9
VSolrock
p740
sg11
g428
sg13
VCave
p741
sg15
V37
p742
sg17
V40
p743
sg19
V25
p744
sbag1
(g2
g3
Ntp745
Rp746
(dp747
g7
V371
p748
sg9
VBagon
p749
sg11
VOR,AS,
p750
sg13
VCave
p751
sg15
V37
p752
sg17
V40
p753
sg19
V35
p754
sbag1
(g2
g3
Ntp755
Rp756
(dp757
g7
V041
p758
sg9
VZubat
p759
sg11
VOR,AS,
p760
sg13
VHorde Encounter
p761
sg15
V20
p762
sg17
g762
sg19
V95
p763
sbag1
(g2
g3
Ntp764
Rp765
(dp766
g7
V371
p767
sg9
VBagon
p768
sg11
VOR,AS,
p769
sg13
VHorde Encounter
p770
sg15
V20
p771
sg17
g771
sg19
V5
p772
sbag1
(g2
g3
Ntp773
Rp774
(dp775
g7
V035
p776
sg9
VClefairy
p777
sg11
VOR,AS,
p778
sg13
VCave
p779
sg15
V40
p780
sg17
g780
sg19
V0
p781
sbag1
(g2
g3
Ntp782
Rp783
(dp784
g7
V621
p785
sg9
VDruddigon
p786
sg11
VOR,AS,
p787
sg13
VCave
p788
sg15
V40
p789
sg17
g789
sg19
V0
p790
sbag1
(g2
g3
Ntp791
Rp792
(dp793
g7
V633
p794
sg9
VDeino
p795
sg11
VOR,AS,
p796
sg13
VCave
p797
sg15
V40
p798
sg17
g798
sg19
V0
p799
sbag1
(g2
g3
Ntp800
Rp801
(dp802
g7
V042
p803
sg9
VGolbat
p804
sg11
VOR,AS,
p805
sg13
VSurf
p806
sg15
V30
p807
sg17
V35
p808
sg19
V80
p809
sbag1
(g2
g3
Ntp810
Rp811
(dp812
g7
V338
p813
sg9
VSolrock
p814
sg11
g428
sg13
VSurf
p815
sg15
V30
p816
sg17
V40
p817
sg19
V20
p818
sbag1
(g2
g3
Ntp819
Rp820
(dp821
g7
V337
p822
sg9
VLunatone
p823
sg11
g418
sg13
VSurf
p824
sg15
V30
p825
sg17
V40
p826
sg19
V20
p827
sbag1
(g2
g3
Ntp828
Rp829
(dp830
g7
V118
p831
sg9
VGoldeen
p832
sg11
VOR,AS,
p833
sg13
VFish Old
p834
sg15
V10
p835
sg17
g835
sg19
V35
p836
sbag1
(g2
g3
Ntp837
Rp838
(dp839
g7
V129
p840
sg9
VMagikarp
p841
sg11
VOR,AS,
p842
sg13
VFish Old
p843
sg15
g48
sg17
V10
p844
sg19
V65
p845
sbag1
(g2
g3
Ntp846
Rp847
(dp848
g7
V118
p849
sg9
VGoldeen
p850
sg11
VOR,AS,
p851
sg13
VFish Good
p852
sg15
V30
p853
sg17
g853
sg19
V35
p854
sbag1
(g2
g3
Ntp855
Rp856
(dp857
g7
V129
p858
sg9
VMagikarp
p859
sg11
VOR,AS,
p860
sg13
VFish Good
p861
sg15
V30
p862
sg17
g862
sg19
V60
p863
sbag1
(g2
g3
Ntp864
Rp865
(dp866
g7
V339
p867
sg9
VBarboach
p868
sg11
VOR,AS,
p869
sg13
VFish Good
p870
sg15
V30
p871
sg17
g871
sg19
V5
p872
sbag1
(g2
g3
Ntp873
Rp874
(dp875
g7
V339
p876
sg9
VBarboach
p877
sg11
VOR,AS,
p878
sg13
VFish Super
p879
sg15
V30
p880
sg17
V35
p881
sg19
V95
p882
sbag1
(g2
g3
Ntp883
Rp884
(dp885
g7
V340
p886
sg9
VWhiscash
p887
sg11
VOR,AS,
p888
sg13
VFish Super
p889
sg15
V40
p890
sg17
g890
sg19
V5
p891
sba.