(lp0
ccopy_reg
_reconstructor
p1
(c__main__
WildPokemon
p2
c__builtin__
object
p3
Ntp4
Rp5
(dp6
VpDexNo
p7
V205
p8
sVpSpecies
p9
VForretress
p10
sVpGames
p11
VOR,AS,
p12
sVpArea
p13
VGrass
p14
sVpMinLevel
p15
V36
p16
sVpMaxLevel
p17
V38
p18
sVpRate
p19
V60
p20
sbag1
(g2
g3
Ntp21
Rp22
(dp23
g7
V440
p24
sg9
VHappiny
p25
sg11
VOR,AS,
p26
sg13
VGrass
p27
sg15
V36
p28
sg17
V38
p29
sg19
V40
p30
sbag1
(g2
g3
Ntp31
Rp32
(dp33
g7
V075
p34
sg9
VGraveler
p35
sg11
VOR,AS,
p36
sg13
VRock Smash
p37
sg15
V33
p38
sg17
V38
p39
sg19
V100
p40
sbag1
(g2
g3
Ntp41
Rp42
(dp43
g7
V191
p44
sg9
VSunkern
p45
sg11
VOR,AS,
p46
sg13
VGrass
p47
sg15
V36
p48
sg17
V38
p49
sg19
V10
p50
sbag1
(g2
g3
Ntp51
Rp52
(dp53
g7
V531
p54
sg9
VAudino
p55
sg11
VOR,AS,
p56
sg13
VGrass
p57
sg15
V36
p58
sg17
V38
p59
sg19
V90
p60
sbag1
(g2
g3
Ntp61
Rp62
(dp63
g7
V287
p64
sg9
VSlakoth
p65
sg11
VOR,AS,
p66
sg13
VGrass
p67
sg15
V25
p68
sg17
V27
p69
sg19
V50
p70
sbag1
(g2
g3
Ntp71
Rp72
(dp73
g7
V290
p74
sg9
VNincada
p75
sg11
VOR,AS,
p76
sg13
VGrass
p77
sg15
V25
p78
sg17
V27
p79
sg19
V50
p80
sbag1
(g2
g3
Ntp81
Rp82
(dp83
g7
V402
p84
sg9
VKricketune
p85
sg11
VOR,AS,
p86
sg13
VGrass
p87
sg15
V36
p88
sg17
V38
p89
sg19
V60
p90
sbag1
(g2
g3
Ntp91
Rp92
(dp93
g7
V636
p94
sg9
VLarvesta
p95
sg11
VOR,AS,
p96
sg13
VGrass
p97
sg15
V36
p98
sg17
V38
p99
sg19
V40
p100
sbag1
(g2
g3
Ntp101
Rp102
(dp103
g7
V285
p104
sg9
VShroomish
p105
sg11
VOR,AS,
p106
sg13
VGrass
p107
sg15
V26
p108
sg17
V28
p109
sg19
V100
p110
sbag1
(g2
g3
Ntp111
Rp112
(dp113
g7
V114
p114
sg9
VTangela
p115
sg11
VOR,AS,
p116
sg13
VGrass
p117
sg15
V36
p118
sg17
V38
p119
sg19
V30
p120
sbag1
(g2
g3
Ntp121
Rp122
(dp123
g7
V191
p124
sg9
VSunkern
p125
sg11
VOR,AS,
p126
sg13
VGrass
p127
sg15
V36
p128
sg17
V38
p129
sg19
V30
p130
sbag1
(g2
g3
Ntp131
Rp132
(dp133
g7
V432
p134
sg9
VPurugly
p135
sg11
VOR,AS,
p136
sg13
VGrass
p137
sg15
V36
p138
sg17
V38
p139
sg19
V30
p140
sbag1
(g2
g3
Ntp141
Rp142
(dp143
g7
V548
p144
sg9
VPetilil
p145
sg11
VOR,AS,
p146
sg13
VGrass
p147
sg15
V36
p148
sg17
V38
p149
sg19
V10
p150
sbag1
(g2
g3
Ntp151
Rp152
(dp153
g7
V114
p154
sg9
VTangela
p155
sg11
VOR,AS,
p156
sg13
VGrass
p157
sg15
V36
p158
sg17
V38
p159
sg19
V30
p160
sbag1
(g2
g3
Ntp161
Rp162
(dp163
g7
V191
p164
sg9
VSunkern
p165
sg11
VOR,AS,
p166
sg13
VGrass
p167
sg15
V36
p168
sg17
V38
p169
sg19
V30
p170
sbag1
(g2
g3
Ntp171
Rp172
(dp173
g7
V421
p174
sg9
VCherrim
p175
sg11
VOR,AS,
p176
sg13
VGrass
p177
sg15
V36
p178
sg17
V38
p179
sg19
V10
p180
sbag1
(g2
g3
Ntp181
Rp182
(dp183
g7
V432
p184
sg9
VPurugly
p185
sg11
VOR,AS,
p186
sg13
VGrass
p187
sg15
V36
p188
sg17
V38
p189
sg19
V30
p190
sbag1
(g2
g3
Ntp191
Rp192
(dp193
g7
V037
p194
sg9
VVulpix
p195
sg11
VOR,AS,
p196
sg13
VGrass
p197
sg15
V36
p198
sg17
V38
p199
sg19
V10
p200
sbag1
(g2
g3
Ntp201
Rp202
(dp203
g7
V114
p204
sg9
VTangela
p205
sg11
VOR,AS,
p206
sg13
VGrass
p207
sg15
V36
p208
sg17
V38
p209
sg19
V30
p210
sbag1
(g2
g3
Ntp211
Rp212
(dp213
g7
V191
p214
sg9
VSunkern
p215
sg11
VOR,AS,
p216
sg13
VGrass
p217
sg15
V36
p218
sg17
V38
p219
sg19
V30
p220
sbag1
(g2
g3
Ntp221
Rp222
(dp223
g7
V432
p224
sg9
VPurugly
p225
sg11
VOR,AS,
p226
sg13
VGrass
p227
sg15
V36
p228
sg17
V38
p229
sg19
V30
p230
sbag1
(g2
g3
Ntp231
Rp232
(dp233
g7
V114
p234
sg9
VTangela
p235
sg11
VOR,AS,
p236
sg13
VGrass
p237
sg15
V36
p238
sg17
V38
p239
sg19
V30
p240
sbag1
(g2
g3
Ntp241
Rp242
(dp243
g7
V191
p244
sg9
VSunkern
p245
sg11
VOR,AS,
p246
sg13
VGrass
p247
sg15
V36
p248
sg17
V38
p249
sg19
V30
p250
sbag1
(g2
g3
Ntp251
Rp252
(dp253
g7
V431
p254
sg9
VGlameow
p255
sg11
VOR,AS,
p256
sg13
VGrass
p257
sg15
V36
p258
sg17
V38
p259
sg19
V30
p260
sbag1
(g2
g3
Ntp261
Rp262
(dp263
g7
V572
p264
sg9
VMinccino
p265
sg11
VOR,AS,
p266
sg13
VGrass
p267
sg15
V36
p268
sg17
V38
p269
sg19
V10
p270
sbag1
(g2
g3
Ntp271
Rp272
(dp273
g7
V191
p274
sg9
VSunkern
p275
sg11
VOR,AS,
p276
sg13
VGrass
p277
sg15
V36
p278
sg17
V38
p279
sg19
V60
p280
sbag1
(g2
g3
Ntp281
Rp282
(dp283
g7
V531
p284
sg9
VAudino
p285
sg11
VOR,AS,
p286
sg13
VGrass
p287
sg15
V36
p288
sg17
V38
p289
sg19
V10
p290
sbag1
(g2
g3
Ntp291
Rp292
(dp293
g7
V548
p294
sg9
VPetilil
p295
sg11
VOR,AS,
p296
sg13
VGrass
p297
sg15
V36
p298
sg17
V38
p299
sg19
V30
p300
sba.