(lp0
ccopy_reg
_reconstructor
p1
(c__main__
WildPokemon
p2
c__builtin__
object
p3
Ntp4
Rp5
(dp6
VpDexNo
p7
V132
p8
sVpSpecies
p9
VDitto
p10
sVpGames
p11
VOR,AS,
p12
sVpArea
p13
VCave
p14
sVpMinLevel
p15
V36
p16
sVpMaxLevel
p17
V38
p18
sVpRate
p19
V40
p20
sbag1
(g2
g3
Ntp21
Rp22
(dp23
g7
V530
p24
sg9
VExcadrill
p25
sg11
VOR,AS,
p26
sg13
VCave
p27
sg15
V36
p28
sg17
V38
p29
sg19
V30
p30
sbag1
(g2
g3
Ntp31
Rp32
(dp33
g7
V602
p34
sg9
VTynamo
p35
sg11
VOR,AS,
p36
sg13
VCave
p37
sg15
V36
p38
sg17
V38
p39
sg19
V30
p40
sba.