(lp0
ccopy_reg
_reconstructor
p1
(c__main__
WildPokemon
p2
c__builtin__
object
p3
Ntp4
Rp5
(dp6
VpDexNo
p7
V027
p8
sVpSpecies
p9
VSandshrew
p10
sVpGames
p11
VE,
p12
sVpArea
p13
V1F-4F
p14
sVpMinLevel
p15
V20
p16
sVpMaxLevel
p17
V24
p18
sVpRate
p19
V50
p20
sbag1
(g2
g3
Ntp21
Rp22
(dp23
g7
V328
p24
sg9
VTrapinch
p25
sg11
g12
sg13
V1F-4F
p26
sg15
V20
p27
sg17
V24
p28
sg19
V50
p29
sba.