(lp0
ccopy_reg
_reconstructor
p1
(c__main__
WildPokemon
p2
c__builtin__
object
p3
Ntp4
Rp5
(dp6
VpDexNo
p7
V049
p8
sVpSpecies
p9
VVenomoth
p10
sVpGames
p11
VOR,AS,
p12
sVpArea
p13
VGrass
p14
sVpMinLevel
p15
V36
p16
sVpMaxLevel
p17
V38
p18
sVpRate
p19
V30
p20
sbag1
(g2
g3
Ntp21
Rp22
(dp23
g7
V178
p24
sg9
VXatu
p25
sg11
VOR,AS,
p26
sg13
VGrass
p27
sg15
V36
p28
sg17
V38
p29
sg19
V30
p30
sbag1
(g2
g3
Ntp31
Rp32
(dp33
g7
V523
p34
sg9
VZebstrika
p35
sg11
VOR,AS,
p36
sg13
VGrass
p37
sg15
V36
p38
sg17
V38
p39
sg19
V30
p40
sbag1
(g2
g3
Ntp41
Rp42
(dp43
g7
V555
p44
sg9
VDarmanitan
p45
sg11
VOR,AS,
p46
sg13
VGrass
p47
sg15
V36
p48
sg17
V38
p49
sg19
V10
p50
sbag1
(g2
g3
Ntp51
Rp52
(dp53
g7
V049
p54
sg9
VVenomoth
p55
sg11
VOR,AS,
p56
sg13
VGrass
p57
sg15
V36
p58
sg17
V38
p59
sg19
V30
p60
sbag1
(g2
g3
Ntp61
Rp62
(dp63
g7
V114
p64
sg9
VTangela
p65
sg11
VOR,AS,
p66
sg13
VGrass
p67
sg15
V36
p68
sg17
V38
p69
sg19
V10
p70
sbag1
(g2
g3
Ntp71
Rp72
(dp73
g7
V178
p74
sg9
VXatu
p75
sg11
VOR,AS,
p76
sg13
VGrass
p77
sg15
V36
p78
sg17
V38
p79
sg19
V30
p80
sbag1
(g2
g3
Ntp81
Rp82
(dp83
g7
V523
p84
sg9
VZebstrika
p85
sg11
VOR,AS,
p86
sg13
VGrass
p87
sg15
V36
p88
sg17
V38
p89
sg19
V30
p90
sbag1
(g2
g3
Ntp91
Rp92
(dp93
g7
V279
p94
sg9
VPelipper
p95
sg11
VOR,AS,
p96
sg13
VGrass
p97
sg15
V25
p98
sg17
V27
p99
sg19
V50
p100
sbag1
(g2
g3
Ntp101
Rp102
(dp103
g7
V357
p104
sg9
VTropius
p105
sg11
VOR,AS,
p106
sg13
VGrass
p107
sg15
V26
p108
sg17
V27
p109
sg19
V50
p110
sbag1
(g2
g3
Ntp111
Rp112
(dp113
g7
V555
p114
sg9
VDarmanitan
p115
sg11
VOR,AS,
p116
sg13
VGrass
p117
sg15
V36
p118
sg17
V38
p119
sg19
V60
p120
sbag1
(g2
g3
Ntp121
Rp122
(dp123
g7
V636
p124
sg9
VLarvesta
p125
sg11
VOR,AS,
p126
sg13
VGrass
p127
sg15
V36
p128
sg17
V38
p129
sg19
V40
p130
sbag1
(g2
g3
Ntp131
Rp132
(dp133
g7
V049
p134
sg9
VVenomoth
p135
sg11
VOR,AS,
p136
sg13
VGrass
p137
sg15
V36
p138
sg17
V38
p139
sg19
V30
p140
sbag1
(g2
g3
Ntp141
Rp142
(dp143
g7
V053
p144
sg9
VPersian
p145
sg11
VOR,AS,
p146
sg13
VGrass
p147
sg15
V36
p148
sg17
V38
p149
sg19
V10
p150
sbag1
(g2
g3
Ntp151
Rp152
(dp153
g7
V178
p154
sg9
VXatu
p155
sg11
VOR,AS,
p156
sg13
VGrass
p157
sg15
V36
p158
sg17
V38
p159
sg19
V30
p160
sbag1
(g2
g3
Ntp161
Rp162
(dp163
g7
V523
p164
sg9
VZebstrika
p165
sg11
VOR,AS,
p166
sg13
VGrass
p167
sg15
V36
p168
sg17
V38
p169
sg19
V30
p170
sbag1
(g2
g3
Ntp171
Rp172
(dp173
g7
V137
p174
sg9
VPorygon
p175
sg11
VOR,AS,
p176
sg13
VGrass
p177
sg15
V36
p178
sg17
V38
p179
sg19
V40
p180
sbag1
(g2
g3
Ntp181
Rp182
(dp183
g7
V432
p184
sg9
VPurugly
p185
sg11
VOR,AS,
p186
sg13
VGrass
p187
sg15
V36
p188
sg17
V38
p189
sg19
V60
p190
sbag1
(g2
g3
Ntp191
Rp192
(dp193
g7
V279
p194
sg9
VPelipper
p195
sg11
VOR,AS,
p196
sg13
VGrass
p197
sg15
V25
p198
sg17
V27
p199
sg19
V50
p200
sbag1
(g2
g3
Ntp201
Rp202
(dp203
g7
V359
p204
sg9
VAbsol
p205
sg11
VOR,AS,
p206
sg13
VGrass
p207
sg15
V26
p208
sg17
V27
p209
sg19
V50
p210
sbag1
(g2
g3
Ntp211
Rp212
(dp213
g7
V178
p214
sg9
VXatu
p215
sg11
VOR,AS,
p216
sg13
VGrass
p217
sg15
V36
p218
sg17
V38
p219
sg19
V10
p220
sbag1
(g2
g3
Ntp221
Rp222
(dp223
g7
V531
p224
sg9
VAudino
p225
sg11
VOR,AS,
p226
sg13
VGrass
p227
sg15
V36
p228
sg17
V38
p229
sg19
V90
p230
sbag1
(g2
g3
Ntp231
Rp232
(dp233
g7
V075
p234
sg9
VGraveler
p235
sg11
VOR,AS,
p236
sg13
VRock Smash
p237
sg15
V35
p238
sg17
V38
p239
sg19
V85
p240
sbag1
(g2
g3
Ntp241
Rp242
(dp243
g7
V688
p244
sg9
VBinacle
p245
sg11
VOR,AS,
p246
sg13
VRock Smash
p247
sg15
V37
p248
sg17
g248
sg19
V15
p249
sbag1
(g2
g3
Ntp250
Rp251
(dp252
g7
V132
p253
sg9
VDitto
p254
sg11
VOR,AS,
p255
sg13
VGrass
p256
sg15
V36
p257
sg17
V38
p258
sg19
V40
p259
sbag1
(g2
g3
Ntp260
Rp261
(dp262
g7
V517
p263
sg9
VMunna
p264
sg11
VOR,AS,
p265
sg13
VGrass
p266
sg15
V36
p267
sg17
V38
p268
sg19
V60
p269
sbag1
(g2
g3
Ntp270
Rp271
(dp272
g7
V049
p273
sg9
VVenomoth
p274
sg11
VOR,AS,
p275
sg13
VGrass
p276
sg15
V36
p277
sg17
V38
p278
sg19
V30
p279
sbag1
(g2
g3
Ntp280
Rp281
(dp282
g7
V178
p283
sg9
VXatu
p284
sg11
VOR,AS,
p285
sg13
VGrass
p286
sg15
V36
p287
sg17
V38
p288
sg19
V30
p289
sbag1
(g2
g3
Ntp290
Rp291
(dp292
g7
V523
p293
sg9
VZebstrika
p294
sg11
VOR,AS,
p295
sg13
VGrass
p296
sg15
V36
p297
sg17
V38
p298
sg19
V30
p299
sbag1
(g2
g3
Ntp300
Rp301
(dp302
g7
V556
p303
sg9
VMaractus
p304
sg11
VOR,AS,
p305
sg13
VGrass
p306
sg15
V36
p307
sg17
V38
p308
sg19
V10
p309
sbag1
(g2
g3
Ntp310
Rp311
(dp312
g7
V075
p313
sg9
VGraveler
p314
sg11
VOR,AS,
p315
sg13
VRock Smash
p316
sg15
V35
p317
sg17
V38
p318
sg19
V85
p319
sbag1
(g2
g3
Ntp320
Rp321
(dp322
g7
V688
p323
sg9
VBinacle
p324
sg11
VOR,AS,
p325
sg13
VRock Smash
p326
sg15
V37
p327
sg17
g327
sg19
V15
p328
sba.