(lp0
ccopy_reg
_reconstructor
p1
(c__main__
WildPokemon
p2
c__builtin__
object
p3
Ntp4
Rp5
(dp6
VpDexNo
p7
V205
p8
sVpSpecies
p9
VForretress
p10
sVpGames
p11
VOR,AS,
p12
sVpArea
p13
VGrass
p14
sVpMinLevel
p15
V36
p16
sVpMaxLevel
p17
V38
p18
sVpRate
p19
V30
p20
sbag1
(g2
g3
Ntp21
Rp22
(dp23
g7
V232
p24
sg9
VDonphan
p25
sg11
VOR,AS,
p26
sg13
VGrass
p27
sg15
V36
p28
sg17
V38
p29
sg19
V30
p30
sbag1
(g2
g3
Ntp31
Rp32
(dp33
g7
V234
p34
sg9
VStantler
p35
sg11
VOR,AS,
p36
sg13
VGrass
p37
sg15
V36
p38
sg17
V38
p39
sg19
V10
p40
sbag1
(g2
g3
Ntp41
Rp42
(dp43
g7
V402
p44
sg9
VKricketune
p45
sg11
VOR,AS,
p46
sg13
VGrass
p47
sg15
V36
p48
sg17
V38
p49
sg19
V30
p50
sbag1
(g2
g3
Ntp51
Rp52
(dp53
g7
V205
p54
sg9
VForretress
p55
sg11
VOR,AS,
p56
sg13
VGrass
p57
sg15
V36
p58
sg17
V38
p59
sg19
V30
p60
sbag1
(g2
g3
Ntp61
Rp62
(dp63
g7
V232
p64
sg9
VDonphan
p65
sg11
VOR,AS,
p66
sg13
VGrass
p67
sg15
V36
p68
sg17
V38
p69
sg19
V30
p70
sbag1
(g2
g3
Ntp71
Rp72
(dp73
g7
V402
p74
sg9
VKricketune
p75
sg11
VOR,AS,
p76
sg13
VGrass
p77
sg15
V36
p78
sg17
V38
p79
sg19
V30
p80
sbag1
(g2
g3
Ntp81
Rp82
(dp83
g7
V627
p84
sg9
VRufflet
p85
sg11
VOR,AS,
p86
sg13
VGrass
p87
sg15
V36
p88
sg17
V38
p89
sg19
V10
p90
sbag1
(g2
g3
Ntp91
Rp92
(dp93
g7
V114
p94
sg9
VTangela
p95
sg11
VOR,AS,
p96
sg13
VGrass
p97
sg15
V36
p98
sg17
V38
p99
sg19
V10
p100
sbag1
(g2
g3
Ntp101
Rp102
(dp103
g7
V440
p104
sg9
VHappiny
p105
sg11
VOR,AS,
p106
sg13
VGrass
p107
sg15
V36
p108
sg17
V38
p109
sg19
V30
p110
sbag1
(g2
g3
Ntp111
Rp112
(dp113
g7
V531
p114
sg9
VAudino
p115
sg11
VOR,AS,
p116
sg13
VGrass
p117
sg15
V36
p118
sg17
V38
p119
sg19
V60
p120
sbag1
(g2
g3
Ntp121
Rp122
(dp123
g7
V075
p124
sg9
VGraveler
p125
sg11
VOR,AS,
p126
sg13
VRock Smash
p127
sg15
V35
p128
sg17
V38
p129
sg19
V85
p130
sbag1
(g2
g3
Ntp131
Rp132
(dp133
g7
V558
p134
sg9
VCrustle
p135
sg11
VOR,AS,
p136
sg13
VRock Smash
p137
sg15
V37
p138
sg17
g138
sg19
V15
p139
sbag1
(g2
g3
Ntp140
Rp141
(dp142
g7
V205
p143
sg9
VForretress
p144
sg11
VOR,AS,
p145
sg13
VGrass
p146
sg15
V36
p147
sg17
V38
p148
sg19
V30
p149
sbag1
(g2
g3
Ntp150
Rp151
(dp152
g7
V232
p153
sg9
VDonphan
p154
sg11
VOR,AS,
p155
sg13
VGrass
p156
sg15
V36
p157
sg17
V38
p158
sg19
V30
p159
sbag1
(g2
g3
Ntp160
Rp161
(dp162
g7
V402
p163
sg9
VKricketune
p164
sg11
VOR,AS,
p165
sg13
VGrass
p166
sg15
V36
p167
sg17
V38
p168
sg19
V30
p169
sbag1
(g2
g3
Ntp170
Rp171
(dp172
g7
V629
p173
sg9
VVullaby
p174
sg11
VOR,AS,
p175
sg13
VGrass
p176
sg15
V36
p177
sg17
V38
p178
sg19
V10
p179
sbag1
(g2
g3
Ntp180
Rp181
(dp182
g7
V307
p183
sg9
VMeditite
p184
sg11
VOR,AS,
p185
sg13
VGrass
p186
sg15
V25
p187
sg17
V27
p188
sg19
V50
p189
sbag1
(g2
g3
Ntp190
Rp191
(dp192
g7
V358
p193
sg9
VChimecho
p194
sg11
VOR,AS,
p195
sg13
VGrass
p196
sg15
V27
p197
sg17
V29
p198
sg19
V50
p199
sbag1
(g2
g3
Ntp200
Rp201
(dp202
g7
V240
p203
sg9
VMagby
p204
sg11
VOR,AS,
p205
sg13
VGrass
p206
sg15
V36
p207
sg17
V38
p208
sg19
V40
p209
sbag1
(g2
g3
Ntp210
Rp211
(dp212
g7
V555
p213
sg9
VDarmanitan
p214
sg11
VOR,AS,
p215
sg13
VGrass
p216
sg15
V36
p217
sg17
V38
p218
sg19
V60
p219
sbag1
(g2
g3
Ntp220
Rp221
(dp222
g7
V137
p223
sg9
VPorygon
p224
sg11
VOR,AS,
p225
sg13
VGrass
p226
sg15
V36
p227
sg17
V38
p228
sg19
V10
p229
sbag1
(g2
g3
Ntp230
Rp231
(dp232
g7
V178
p233
sg9
VXatu
p234
sg11
VOR,AS,
p235
sg13
VGrass
p236
sg15
V36
p237
sg17
V38
p238
sg19
V60
p239
sbag1
(g2
g3
Ntp240
Rp241
(dp242
g7
V517
p243
sg9
VMunna
p244
sg11
VOR,AS,
p245
sg13
VGrass
p246
sg15
V36
p247
sg17
V38
p248
sg19
V30
p249
sbag1
(g2
g3
Ntp250
Rp251
(dp252
g7
V075
p253
sg9
VGraveler
p254
sg11
VOR,AS,
p255
sg13
VRock Smash
p256
sg15
V35
p257
sg17
V38
p258
sg19
V85
p259
sbag1
(g2
g3
Ntp260
Rp261
(dp262
g7
V558
p263
sg9
VCrustle
p264
sg11
VOR,AS,
p265
sg13
VRock Smash
p266
sg15
V37
p267
sg17
g267
sg19
V15
p268
sbag1
(g2
g3
Ntp269
Rp270
(dp271
g7
V277
p272
sg9
VSwellow
p273
sg11
VOR,AS,
p274
sg13
VGrass
p275
sg15
V23
p276
sg17
V24
p277
sg19
V50
p278
sbag1
(g2
g3
Ntp279
Rp280
(dp281
g7
V313
p282
sg9
VVolbeat
p283
sg11
VOR,AS,
p284
sg13
VGrass
p285
sg15
V26
p286
sg17
V28
p287
sg19
V50
p288
sbag1
(g2
g3
Ntp289
Rp290
(dp291
g7
V239
p292
sg9
VElekid
p293
sg11
VOR,AS,
p294
sg13
VGrass
p295
sg15
V36
p296
sg17
V38
p297
sg19
V40
p298
sbag1
(g2
g3
Ntp299
Rp300
(dp301
g7
V523
p302
sg9
VZebstrika
p303
sg11
VOR,AS,
p304
sg13
VGrass
p305
sg15
V36
p306
sg17
V38
p307
sg19
V60
p308
sbag1
(g2
g3
Ntp309
Rp310
(dp311
g7
V203
p312
sg9
VGirafarig
p313
sg11
VOR,AS,
p314
sg13
VGrass
p315
sg15
V36
p316
sg17
V38
p317
sg19
V10
p318
sbag1
(g2
g3
Ntp319
Rp320
(dp321
g7
V205
p322
sg9
VForretress
p323
sg11
VOR,AS,
p324
sg13
VGrass
p325
sg15
V36
p326
sg17
V38
p327
sg19
V30
p328
sbag1
(g2
g3
Ntp329
Rp330
(dp331
g7
V232
p332
sg9
VDonphan
p333
sg11
VOR,AS,
p334
sg13
VGrass
p335
sg15
V36
p336
sg17
V38
p337
sg19
V30
p338
sbag1
(g2
g3
Ntp339
Rp340
(dp341
g7
V402
p342
sg9
VKricketune
p343
sg11
VOR,AS,
p344
sg13
VGrass
p345
sg15
V36
p346
sg17
V38
p347
sg19
V30
p348
sba.