(lp0
ccopy_reg
_reconstructor
p1
(c__main__
WildPokemon
p2
c__builtin__
object
p3
Ntp4
Rp5
(dp6
VpDexNo
p7
V095
p8
sVpSpecies
p9
VOnix
p10
sVpGames
p11
VOR,AS,
p12
sVpArea
p13
VCave
p14
sVpMinLevel
p15
V36
p16
sVpMaxLevel
p17
V38
p18
sVpRate
p19
V40
p20
sbag1
(g2
g3
Ntp21
Rp22
(dp23
g7
V602
p24
sg9
VTynamo
p25
sg11
VOR,AS,
p26
sg13
VCave
p27
sg15
V36
p28
sg17
V38
p29
sg19
V60
p30
sbag1
(g2
g3
Ntp31
Rp32
(dp33
g7
V075
p34
sg9
VGraveler
p35
sg11
VOR,AS,
p36
sg13
VRock Smash
p37
sg15
V35
p38
sg17
V38
p39
sg19
V85
p40
sbag1
(g2
g3
Ntp41
Rp42
(dp43
g7
V525
p44
sg9
VBoldore
p45
sg11
VOR,AS,
p46
sg13
VRock Smash
p47
sg15
V37
p48
sg17
g48
sg19
V15
p49
sba.