(lp0
ccopy_reg
_reconstructor
p1
(c__main__
WildPokemon
p2
c__builtin__
object
p3
Ntp4
Rp5
(dp6
VpDexNo
p7
V095
p8
sVpSpecies
p9
VOnix
p10
sVpGames
p11
VOR,AS,
p12
sVpArea
p13
VCave
p14
sVpMinLevel
p15
V36
p16
sVpMaxLevel
p17
V38
p18
sVpRate
p19
V10
p20
sbag1
(g2
g3
Ntp21
Rp22
(dp23
g7
V530
p24
sg9
VExcadrill
p25
sg11
VOR,AS,
p26
sg13
VCave
p27
sg15
V36
p28
sg17
V38
p29
sg19
V30
p30
sbag1
(g2
g3
Ntp31
Rp32
(dp33
g7
V599
p34
sg9
VKlink
p35
sg11
VOR,AS,
p36
sg13
VCave
p37
sg15
V36
p38
sg17
V38
p39
sg19
V30
p40
sbag1
(g2
g3
Ntp41
Rp42
(dp43
g7
V602
p44
sg9
VTynamo
p45
sg11
VOR,AS,
p46
sg13
VCave
p47
sg15
V36
p48
sg17
V38
p49
sg19
V30
p50
sbag1
(g2
g3
Ntp51
Rp52
(dp53
g7
V075
p54
sg9
VGraveler
p55
sg11
VOR,AS,
p56
sg13
VRock Smash
p57
sg15
V35
p58
sg17
V38
p59
sg19
V85
p60
sbag1
(g2
g3
Ntp61
Rp62
(dp63
g7
V525
p64
sg9
VBoldore
p65
sg11
VOR,AS,
p66
sg13
VRock Smash
p67
sg15
V37
p68
sg17
g68
sg19
V15
p69
sba.