(lp0
ccopy_reg
_reconstructor
p1
(c__main__
WildPokemon
p2
c__builtin__
object
p3
Ntp4
Rp5
(dp6
VpDexNo
p7
V201
p8
sVpSpecies
p9
VUnown
p10
sVpGames
p11
VOR,AS,
p12
sVpArea
p13
VCave
p14
sVpMinLevel
p15
V36
p16
sVpMaxLevel
p17
V38
p18
sVpRate
p19
V100
p20
sba.