(lp0
ccopy_reg
_reconstructor
p1
(c__main__
WildPokemon
p2
c__builtin__
object
p3
Ntp4
Rp5
(dp6
VpDexNo
p7
V483
p8
sVpSpecies
p9
VDialga
p10
sVpGames
p11
VAS,
p12
sVpArea
p13
VSpecial
p14
sVpMinLevel
p15
V50
p16
sVpMaxLevel
p17
g16
sVpRate
p18
V0
p19
sbag1
(g2
g3
Ntp20
Rp21
(dp22
g7
V484
p23
sg9
VPalkia
p24
sg11
VOR,
p25
sg13
VSpecial
p26
sg15
V50
p27
sg17
g27
sg18
V0
p28
sbag1
(g2
g3
Ntp29
Rp30
(dp31
g7
V487
p32
sg9
VGiratina
p33
sg11
VOR,AS,
p34
sg13
VSpecial
p35
sg15
V50
p36
sg17
g36
sg18
V0
p37
sbag1
(g2
g3
Ntp38
Rp39
(dp40
g7
V641
p41
sg9
VTornadus
p42
sg11
g25
sg13
VSpecial
p43
sg15
V50
p44
sg17
g44
sg18
V0
p45
sbag1
(g2
g3
Ntp46
Rp47
(dp48
g7
V642
p49
sg9
VThundurus
p50
sg11
g12
sg13
VSpecial
p51
sg15
V50
p52
sg17
g52
sg18
V0
p53
sbag1
(g2
g3
Ntp54
Rp55
(dp56
g7
V645
p57
sg9
VLandorus
p58
sg11
VOR,AS,
p59
sg13
VSpecial
p60
sg15
V50
p61
sg17
g61
sg18
V0
p62
sba.