(lp0
ccopy_reg
_reconstructor
p1
(c__main__
WildPokemon
p2
c__builtin__
object
p3
Ntp4
Rp5
(dp6
VpDexNo
p7
V525
p8
sVpSpecies
p9
VBoldore
p10
sVpGames
p11
VB,W,
p12
sVpArea
p13
VCave
p14
sVpMinLevel
p15
V28
p16
sVpMaxLevel
p17
V31
p18
sVpRate
p19
V50
p20
sbag1
(g2
g3
Ntp21
Rp22
(dp23
g7
V527
p24
sg9
VWoobat
p25
sg11
VB,W,
p26
sg13
VCave
p27
sg15
V28
p28
sg17
V30
p29
sg19
V30
p30
sbag1
(g2
g3
Ntp31
Rp32
(dp33
g7
V610
p34
sg9
VAxew
p35
sg11
VB,W,
p36
sg13
VCave
p37
sg15
V30
p38
sg17
V31
p39
sg19
V20
p40
sbag1
(g2
g3
Ntp41
Rp42
(dp43
g7
V529
p44
sg9
VDrilbur
p45
sg11
VB,W,
p46
sg13
VDust
p47
sg15
V28
p48
sg17
V31
p49
sg19
V100
p50
sbag1
(g2
g3
Ntp51
Rp52
(dp53
g7
V525
p54
sg9
VBoldore
p55
sg11
VB,W,
p56
sg13
VCave
p57
sg15
V28
p58
sg17
V31
p59
sg19
V50
p60
sbag1
(g2
g3
Ntp61
Rp62
(dp63
g7
V527
p64
sg9
VWoobat
p65
sg11
VB,W,
p66
sg13
VCave
p67
sg15
V28
p68
sg17
V30
p69
sg19
V30
p70
sbag1
(g2
g3
Ntp71
Rp72
(dp73
g7
V610
p74
sg9
VAxew
p75
sg11
VB,W,
p76
sg13
VCave
p77
sg15
V30
p78
sg17
V31
p79
sg19
V20
p80
sbag1
(g2
g3
Ntp81
Rp82
(dp83
g7
V529
p84
sg9
VDrilbur
p85
sg11
VB,W,
p86
sg13
VDust
p87
sg15
V28
p88
sg17
V31
p89
sg19
V100
p90
sbag1
(g2
g3
Ntp91
Rp92
(dp93
g7
V638
p94
sg9
VCobalion
p95
sg11
VB,W,
p96
sg13
VSpecial
p97
sg15
V42
p98
sg17
g98
sg19
V0
p99
sbag1
(g2
g3
Ntp100
Rp101
(dp102
g7
V525
p103
sg9
VBoldore
p104
sg11
VB2,W2,
p105
sg13
VCave
p106
sg15
V27
p107
sg17
V28
p108
sg19
V30
p109
sbag1
(g2
g3
Ntp110
Rp111
(dp112
g7
V527
p113
sg9
VWoobat
p114
sg11
VB2,W2,
p115
sg13
VCave
p116
sg15
V27
p117
sg17
V28
p118
sg19
V30
p119
sbag1
(g2
g3
Ntp120
Rp121
(dp122
g7
V304
p123
sg9
VAron
p124
sg11
VB2,W2,
p125
sg13
VCave
p126
sg15
V29
p127
sg17
V30
p128
sg19
V20
p129
sbag1
(g2
g3
Ntp130
Rp131
(dp132
g7
V610
p133
sg9
VAxew
p134
sg11
VB2,W2,
p135
sg13
VCave
p136
sg15
V29
p137
sg17
V30
p138
sg19
V20
p139
sbag1
(g2
g3
Ntp140
Rp141
(dp142
g7
V529
p143
sg9
VDrilbur
p144
sg11
VB2,W2,
p145
sg13
VDust
p146
sg15
V27
p147
sg17
V30
p148
sg19
V100
p149
sbag1
(g2
g3
Ntp150
Rp151
(dp152
g7
V525
p153
sg9
VBoldore
p154
sg11
VB2,W2,
p155
sg13
VCave
p156
sg15
V27
p157
sg17
V28
p158
sg19
V30
p159
sbag1
(g2
g3
Ntp160
Rp161
(dp162
g7
V527
p163
sg9
VWoobat
p164
sg11
VB2,W2,
p165
sg13
VCave
p166
sg15
V27
p167
sg17
V28
p168
sg19
V30
p169
sbag1
(g2
g3
Ntp170
Rp171
(dp172
g7
V304
p173
sg9
VAron
p174
sg11
VB2,W2,
p175
sg13
VCave
p176
sg15
V29
p177
sg17
V30
p178
sg19
V20
p179
sbag1
(g2
g3
Ntp180
Rp181
(dp182
g7
V610
p183
sg9
VAxew
p184
sg11
VB2,W2,
p185
sg13
VCave
p186
sg15
V29
p187
sg17
V30
p188
sg19
V20
p189
sbag1
(g2
g3
Ntp190
Rp191
(dp192
g7
V529
p193
sg9
VDrilbur
p194
sg11
VB2,W2,
p195
sg13
VDust
p196
sg15
V27
p197
sg17
V30
p198
sg19
V100
p199
sba.