(lp0
ccopy_reg
_reconstructor
p1
(c__main__
WildPokemon
p2
c__builtin__
object
p3
Ntp4
Rp5
(dp6
VpDexNo
p7
V072
p8
sVpSpecies
p9
VTentacool
p10
sVpGames
p11
VRu,S,E,
p12
sVpArea
p13
VSurf
p14
sVpMinLevel
p15
V5
p16
sVpMaxLevel
p17
V35
p18
sVpRate
p19
V60
p20
sbag1
(g2
g3
Ntp21
Rp22
(dp23
g7
V278
p24
sg9
VWingull
p25
sg11
VRu,S,E,
p26
sg13
VSurf
p27
sg15
V10
p28
sg17
V30
p29
sg19
V35
p30
sbag1
(g2
g3
Ntp31
Rp32
(dp33
g7
V279
p34
sg9
VPelipper
p35
sg11
VRu,S,E,
p36
sg13
VSurf
p37
sg15
V25
p38
sg17
V30
p39
sg19
V5
p40
sbag1
(g2
g3
Ntp41
Rp42
(dp43
g7
V072
p44
sg9
VTentacool
p45
sg11
VRu,S,E,
p46
sg13
VFish Old
p47
sg15
g16
sg17
V10
p48
sg19
V30
p49
sbag1
(g2
g3
Ntp50
Rp51
(dp52
g7
V129
p53
sg9
VMagikarp
p54
sg11
VRu,S,E,
p55
sg13
VFish Old
p56
sg15
g16
sg17
V10
p57
sg19
V70
p58
sbag1
(g2
g3
Ntp59
Rp60
(dp61
g7
V072
p62
sg9
VTentacool
p63
sg11
VRu,S,E,
p64
sg13
VFish Good
p65
sg15
V10
p66
sg17
V30
p67
sg19
V20
p68
sbag1
(g2
g3
Ntp69
Rp70
(dp71
g7
V129
p72
sg9
VMagikarp
p73
sg11
VRu,S,E,
p74
sg13
VFish Good
p75
sg15
V10
p76
sg17
V30
p77
sg19
V60
p78
sbag1
(g2
g3
Ntp79
Rp80
(dp81
g7
V320
p82
sg9
VWailmer
p83
sg11
VRu,S,E,
p84
sg13
VFish Good
p85
sg15
V10
p86
sg17
V30
p87
sg19
V20
p88
sbag1
(g2
g3
Ntp89
Rp90
(dp91
g7
V319
p92
sg9
VSharpedo
p93
sg11
VRu,S,E,
p94
sg13
VFish Super
p95
sg15
V30
p96
sg17
V35
p97
sg19
V40
p98
sbag1
(g2
g3
Ntp99
Rp100
(dp101
g7
V320
p102
sg9
VWailmer
p103
sg11
VRu,S,E,
p104
sg13
VFish Super
p105
sg15
V25
p106
sg17
V45
p107
sg19
V60
p108
sbag1
(g2
g3
Ntp109
Rp110
(dp111
g7
V374
p112
sg9
VBeldum
p113
sg11
VRu,S,E,
p114
sg13
VGift
p115
sg15
g16
sg17
g16
sg19
V0
p116
sbag1
(g2
g3
Ntp117
Rp118
(dp119
g7
V072
p120
sg9
VTentacool
p121
sg11
VOR,AS,
p122
sg13
VSurf
p123
sg15
V25
p124
sg17
g124
sg19
V50
p125
sbag1
(g2
g3
Ntp126
Rp127
(dp128
g7
V073
p129
sg9
VTentacruel
p130
sg11
VOR,AS,
p131
sg13
VSurf
p132
sg15
V30
p133
sg17
g133
sg19
V15
p134
sbag1
(g2
g3
Ntp135
Rp136
(dp137
g7
V279
p138
sg9
VPelipper
p139
sg11
VOR,AS,
p140
sg13
VSurf
p141
sg15
V25
p142
sg17
V35
p143
sg19
V35
p144
sbag1
(g2
g3
Ntp145
Rp146
(dp147
g7
V072
p148
sg9
VTentacool
p149
sg11
VOR,AS,
p150
sg13
VFish Old
p151
sg15
g16
sg17
g16
sg19
V35
p152
sbag1
(g2
g3
Ntp153
Rp154
(dp155
g7
V129
p156
sg9
VMagikarp
p157
sg11
VOR,AS,
p158
sg13
VFish Old
p159
sg15
V10
p160
sg17
V15
p161
sg19
V65
p162
sbag1
(g2
g3
Ntp163
Rp164
(dp165
g7
V072
p166
sg9
VTentacool
p167
sg11
VOR,AS,
p168
sg13
VFish Good
p169
sg15
V25
p170
sg17
g170
sg19
V35
p171
sbag1
(g2
g3
Ntp172
Rp173
(dp174
g7
V129
p175
sg9
VMagikarp
p176
sg11
VOR,AS,
p177
sg13
VFish Good
p178
sg15
V25
p179
sg17
g179
sg19
V60
p180
sbag1
(g2
g3
Ntp181
Rp182
(dp183
g7
V320
p184
sg9
VWailmer
p185
sg11
VOR,AS,
p186
sg13
VFish Good
p187
sg15
V25
p188
sg17
g188
sg19
V5
p189
sbag1
(g2
g3
Ntp190
Rp191
(dp192
g7
V320
p193
sg9
VWailmer
p194
sg11
VOR,AS,
p195
sg13
VFish Super
p196
sg15
V25
p197
sg17
V40
p198
sg19
V100
p199
sbag1
(g2
g3
Ntp200
Rp201
(dp202
g7
V374
p203
sg9
VBeldum
p204
sg11
VOR,AS,
p205
sg13
VGift
p206
sg15
V1
p207
sg17
g207
sg19
V0
p208
sba.