(lp0
ccopy_reg
_reconstructor
p1
(c__main__
WildPokemon
p2
c__builtin__
object
p3
Ntp4
Rp5
(dp6
VpDexNo
p7
V095
p8
sVpSpecies
p9
VOnix
p10
sVpGames
p11
VSw,Sh,
p12
sVpArea
p13
VGrass
p14
sVpMinLevel
p15
V26
p16
sVpMaxLevel
p17
V28
p18
sVpRate
p19
V0
p20
sbag1
(g2
g3
Ntp21
Rp22
(dp23
g7
V111
p24
sg9
VRhyhorn
p25
sg11
VSw,Sh,
p26
sg13
VGrass
p27
sg15
V26
p28
sg17
V28
p29
sg19
g20
sbag1
(g2
g3
Ntp30
Rp31
(dp32
g7
V164
p33
sg9
VNoctowl
p34
sg11
VSw,Sh,
p35
sg13
VGrass
p36
sg15
V26
p37
sg17
V28
p38
sg19
g20
sbag1
(g2
g3
Ntp39
Rp40
(dp41
g7
V215
p42
sg9
VSneasel
p43
sg11
VSw,Sh,
p44
sg13
VGrass
p45
sg15
V26
p46
sg17
V28
p47
sg19
g20
sbag1
(g2
g3
Ntp48
Rp49
(dp50
g7
V422
p51
sg9
VShellos
p52
sg11
VSw,Sh,
p53
sg13
VGrass
p54
sg15
V26
p55
sg17
V28
p56
sg19
g20
sbag1
(g2
g3
Ntp57
Rp58
(dp59
g7
V451
p60
sg9
VSkorupi
p61
sg11
VSw,Sh,
p62
sg13
VGrass
p63
sg15
V26
p64
sg17
V28
p65
sg19
g20
sbag1
(g2
g3
Ntp66
Rp67
(dp68
g7
V561
p69
sg9
VSigilyph
p70
sg11
VSw,Sh,
p71
sg13
VGrass
p72
sg15
V26
p73
sg17
V28
p74
sg19
V5
p75
sbag1
(g2
g3
Ntp76
Rp77
(dp78
g7
V582
p79
sg9
VVanillite
p80
sg11
VSw,Sh,
p81
sg13
VGrass
p82
sg15
V26
p83
sg17
V28
p84
sg19
g20
sbag1
(g2
g3
Ntp85
Rp86
(dp87
g7
V588
p88
sg9
VKarrablast
p89
sg11
VSw,
p90
sg13
VGrass
p91
sg15
V26
p92
sg17
V28
p93
sg19
g20
sbag1
(g2
g3
Ntp94
Rp95
(dp96
g7
V588
p97
sg9
VKarrablast
p98
sg11
VSh,
p99
sg13
VGrass
p100
sg15
V26
p101
sg17
V28
p102
sg19
g20
sbag1
(g2
g3
Ntp103
Rp104
(dp105
g7
V597
p106
sg9
VFerroseed
p107
sg11
VSw,Sh,
p108
sg13
VGrass
p109
sg15
V26
p110
sg17
V28
p111
sg19
g20
sbag1
(g2
g3
Ntp112
Rp113
(dp114
g7
V605
p115
sg9
VElgyem
p116
sg11
VSw,Sh,
p117
sg13
VGrass
p118
sg15
V26
p119
sg17
V28
p120
sg19
g20
sbag1
(g2
g3
Ntp121
Rp122
(dp123
g7
V607
p124
sg9
VLitwick
p125
sg11
VSw,Sh,
p126
sg13
VGrass
p127
sg15
V26
p128
sg17
V28
p129
sg19
g20
sbag1
(g2
g3
Ntp130
Rp131
(dp132
g7
V616
p133
sg9
VShelmet
p134
sg11
g90
sg13
VGrass
p135
sg15
V26
p136
sg17
V28
p137
sg19
g20
sbag1
(g2
g3
Ntp138
Rp139
(dp140
g7
V616
p141
sg9
VShelmet
p142
sg11
g99
sg13
VGrass
p143
sg15
V26
p144
sg17
V28
p145
sg19
g20
sbag1
(g2
g3
Ntp146
Rp147
(dp148
g7
V624
p149
sg9
VPawniard
p150
sg11
VSw,Sh,
p151
sg13
VGrass
p152
sg15
V26
p153
sg17
V28
p154
sg19
g20
sbag1
(g2
g3
Ntp155
Rp156
(dp157
g7
V677
p158
sg9
VEspurr
p159
sg11
VSw,Sh,
p160
sg13
VGrass
p161
sg15
V26
p162
sg17
V28
p163
sg19
g20
sbag1
(g2
g3
Ntp164
Rp165
(dp166
g7
V688
p167
sg9
VBinacle
p168
sg11
VSw,Sh,
p169
sg13
VGrass
p170
sg15
V26
p171
sg17
V28
p172
sg19
g20
sbag1
(g2
g3
Ntp173
Rp174
(dp175
g7
V767
p176
sg9
VWimpod
p177
sg11
VSw,Sh,
p178
sg13
VGrass
p179
sg15
V26
p180
sg17
V28
p181
sg19
g20
sbag1
(g2
g3
Ntp182
Rp183
(dp184
g7
V822
p185
sg9
VCorvisquire
p186
sg11
VSw,Sh,
p187
sg13
VGrass
p188
sg15
V26
p189
sg17
V28
p190
sg19
g20
sbag1
(g2
g3
Ntp191
Rp192
(dp193
g7
V830
p194
sg9
VEldegoss
p195
sg11
VSw,Sh,
p196
sg13
VGrass
p197
sg15
V26
p198
sg17
V28
p199
sg19
g20
sbag1
(g2
g3
Ntp200
Rp201
(dp202
g7
V832
p203
sg9
VDubwool
p204
sg11
VSw,Sh,
p205
sg13
VGrass
p206
sg15
V26
p207
sg17
V28
p208
sg19
g20
sbag1
(g2
g3
Ntp209
Rp210
(dp211
g7
V836
p212
sg9
VBoltund
p213
sg11
VSw,Sh,
p214
sg13
VGrass
p215
sg15
V26
p216
sg17
V28
p217
sg19
g20
sbag1
(g2
g3
Ntp218
Rp219
(dp220
g7
V420
p221
sg9
VCherubi
p222
sg11
VSw,Sh,
p223
sg13
VBerry tree
p224
sg15
V26
p225
sg17
V28
p226
sg19
V15
p227
sbag1
(g2
g3
Ntp228
Rp229
(dp230
g7
V819
p231
sg9
VSkwovet
p232
sg11
VSw,Sh,
p233
sg13
VBerry tree
p234
sg15
V26
p235
sg17
V28
p236
sg19
V35
p237
sbag1
(g2
g3
Ntp238
Rp239
(dp240
g7
V820
p241
sg9
VGreedent
p242
sg11
VSw,Sh,
p243
sg13
VBerry tree
p244
sg15
V26
p245
sg17
V28
p246
sg19
V50
p247
sbag1
(g2
g3
Ntp248
Rp249
(dp250
g7
V550
p251
sg9
VBasculin
p252
sg11
g90
sg13
VFishing
p253
sg15
V26
p254
sg17
V28
p255
sg19
V35
p256
sbag1
(g2
g3
Ntp257
Rp258
(dp259
g7
V550
p260
sg9
VBasculin
p261
sg11
g99
sg13
VFishing
p262
sg15
V26
p263
sg17
V28
p264
sg19
V35
p265
sbag1
(g2
g3
Ntp266
Rp267
(dp268
g7
V747
p269
sg9
VMareanie
p270
sg11
VSw,Sh,
p271
sg13
VFishing
p272
sg15
V26
p273
sg17
V28
p274
sg19
V5
p275
sbag1
(g2
g3
Ntp276
Rp277
(dp278
g7
V846
p279
sg9
VArrokuda
p280
sg11
VSw,Sh,
p281
sg13
VFishing
p282
sg15
V26
p283
sg17
V28
p284
sg19
V50
p285
sbag1
(g2
g3
Ntp286
Rp287
(dp288
g7
V847
p289
sg9
VBarraskewda
p290
sg11
VSw,Sh,
p291
sg13
VFishing
p292
sg15
V26
p293
sg17
V28
p294
sg19
V10
p295
sbag1
(g2
g3
Ntp296
Rp297
(dp298
g7
V035
p299
sg9
VClefairy
p300
sg11
g90
sg13
VGrass
p301
sg15
V26
p302
sg17
V28
p303
sg19
g20
sbag1
(g2
g3
Ntp304
Rp305
(dp306
g7
V035
p307
sg9
VClefairy
p308
sg11
g99
sg13
VGrass
p309
sg15
V28
p310
sg17
V30
p311
sg19
g20
sbag1
(g2
g3
Ntp312
Rp313
(dp314
g7
V109
p315
sg9
VKoffing
p316
sg11
g90
sg13
VGrass
p317
sg15
V26
p318
sg17
V28
p319
sg19
g20
sbag1
(g2
g3
Ntp320
Rp321
(dp322
g7
V109
p323
sg9
VKoffing
p324
sg11
g99
sg13
VGrass
p325
sg15
V28
p326
sg17
V30
p327
sg19
g20
sbag1
(g2
g3
Ntp328
Rp329
(dp330
g7
V111
p331
sg9
VRhyhorn
p332
sg11
g90
sg13
VGrass
p333
sg15
V26
p334
sg17
V28
p335
sg19
g20
sbag1
(g2
g3
Ntp336
Rp337
(dp338
g7
V111
p339
sg9
VRhyhorn
p340
sg11
g99
sg13
VGrass
p341
sg15
V28
p342
sg17
V30
p343
sg19
g20
sbag1
(g2
g3
Ntp344
Rp345
(dp346
g7
V185
p347
sg9
VSudowoodo
p348
sg11
g90
sg13
VGrass
p349
sg15
V26
p350
sg17
V28
p351
sg19
g20
sbag1
(g2
g3
Ntp352
Rp353
(dp354
g7
V185
p355
sg9
VSudowoodo
p356
sg11
g99
sg13
VGrass
p357
sg15
V28
p358
sg17
V30
p359
sg19
g20
sbag1
(g2
g3
Ntp360
Rp361
(dp362
g7
V202
p363
sg9
VWobbuffet
p364
sg11
g90
sg13
VGrass
p365
sg15
V26
p366
sg17
V28
p367
sg19
g20
sbag1
(g2
g3
Ntp368
Rp369
(dp370
g7
V202
p371
sg9
VWobbuffet
p372
sg11
g99
sg13
VGrass
p373
sg15
V28
p374
sg17
V30
p375
sg19
g20
sbag1
(g2
g3
Ntp376
Rp377
(dp378
g7
V215
p379
sg9
VSneasel
p380
sg11
g90
sg13
VGrass
p381
sg15
V26
p382
sg17
V28
p383
sg19
g20
sbag1
(g2
g3
Ntp384
Rp385
(dp386
g7
V215
p387
sg9
VSneasel
p388
sg11
g99
sg13
VGrass
p389
sg15
V28
p390
sg17
V30
p391
sg19
g20
sbag1
(g2
g3
Ntp392
Rp393
(dp394
g7
V324
p395
sg9
VTorkoal
p396
sg11
g90
sg13
VGrass
p397
sg15
V26
p398
sg17
V28
p399
sg19
g20
sbag1
(g2
g3
Ntp400
Rp401
(dp402
g7
V324
p403
sg9
VTorkoal
p404
sg11
g99
sg13
VGrass
p405
sg15
V28
p406
sg17
V30
p407
sg19
g20
sbag1
(g2
g3
Ntp408
Rp409
(dp410
g7
V355
p411
sg9
VDuskull
p412
sg11
g90
sg13
VGrass
p413
sg15
V26
p414
sg17
V28
p415
sg19
g20
sbag1
(g2
g3
Ntp416
Rp417
(dp418
g7
V355
p419
sg9
VDuskull
p420
sg11
g99
sg13
VGrass
p421
sg15
V28
p422
sg17
V30
p423
sg19
g20
sbag1
(g2
g3
Ntp424
Rp425
(dp426
g7
V446
p427
sg9
VMunchlax
p428
sg11
g90
sg13
VGrass
p429
sg15
V26
p430
sg17
V28
p431
sg19
g20
sbag1
(g2
g3
Ntp432
Rp433
(dp434
g7
V446
p435
sg9
VMunchlax
p436
sg11
g99
sg13
VGrass
p437
sg15
V28
p438
sg17
V30
p439
sg19
g20
sbag1
(g2
g3
Ntp440
Rp441
(dp442
g7
V451
p443
sg9
VSkorupi
p444
sg11
g90
sg13
VGrass
p445
sg15
V26
p446
sg17
V28
p447
sg19
g20
sbag1
(g2
g3
Ntp448
Rp449
(dp450
g7
V451
p451
sg9
VSkorupi
p452
sg11
g99
sg13
VGrass
p453
sg15
V28
p454
sg17
V30
p455
sg19
g20
sbag1
(g2
g3
Ntp456
Rp457
(dp458
g7
V509
p459
sg9
VPurrloin
p460
sg11
g90
sg13
VGrass
p461
sg15
V26
p462
sg17
V28
p463
sg19
V20
p464
sbag1
(g2
g3
Ntp465
Rp466
(dp467
g7
V509
p468
sg9
VPurrloin
p469
sg11
g99
sg13
VGrass
p470
sg15
V28
p471
sg17
V30
p472
sg19
g20
sbag1
(g2
g3
Ntp473
Rp474
(dp475
g7
V538
p476
sg9
VThroh
p477
sg11
g99
sg13
VGrass
p478
sg15
V28
p479
sg17
V30
p480
sg19
g20
sbag1
(g2
g3
Ntp481
Rp482
(dp483
g7
V539
p484
sg9
VSawk
p485
sg11
g90
sg13
VGrass
p486
sg15
V26
p487
sg17
V28
p488
sg19
g20
sbag1
(g2
g3
Ntp489
Rp490
(dp491
g7
V582
p492
sg9
VVanillite
p493
sg11
g90
sg13
VGrass
p494
sg15
V26
p495
sg17
V28
p496
sg19
g20
sbag1
(g2
g3
Ntp497
Rp498
(dp499
g7
V582
p500
sg9
VVanillite
p501
sg11
g99
sg13
VGrass
p502
sg15
V28
p503
sg17
V30
p504
sg19
g20
sbag1
(g2
g3
Ntp505
Rp506
(dp507
g7
V624
p508
sg9
VPawniard
p509
sg11
g90
sg13
VGrass
p510
sg15
V26
p511
sg17
V28
p512
sg19
g20
sbag1
(g2
g3
Ntp513
Rp514
(dp515
g7
V624
p516
sg9
VPawniard
p517
sg11
g99
sg13
VGrass
p518
sg15
V28
p519
sg17
V30
p520
sg19
g20
sbag1
(g2
g3
Ntp521
Rp522
(dp523
g7
V742
p524
sg9
VCutiefly
p525
sg11
g90
sg13
VGrass
p526
sg15
V26
p527
sg17
V28
p528
sg19
g20
sbag1
(g2
g3
Ntp529
Rp530
(dp531
g7
V742
p532
sg9
VCutiefly
p533
sg11
g99
sg13
VGrass
p534
sg15
V28
p535
sg17
V30
p536
sg19
g20
sbag1
(g2
g3
Ntp537
Rp538
(dp539
g7
V747
p540
sg9
VMareanie
p541
sg11
g90
sg13
VGrass
p542
sg15
V26
p543
sg17
V28
p544
sg19
g20
sbag1
(g2
g3
Ntp545
Rp546
(dp547
g7
V751
p548
sg9
VDewpider
p549
sg11
g90
sg13
VGrass
p550
sg15
V26
p551
sg17
V28
p552
sg19
g20
sbag1
(g2
g3
Ntp553
Rp554
(dp555
g7
V751
p556
sg9
VDewpider
p557
sg11
g99
sg13
VGrass
p558
sg15
V28
p559
sg17
V30
p560
sg19
g20
sbag1
(g2
g3
Ntp561
Rp562
(dp563
g7
V757
p564
sg9
VSalandit
p565
sg11
g99
sg13
VGrass
p566
sg15
V28
p567
sg17
V30
p568
sg19
g20
sbag1
(g2
g3
Ntp569
Rp570
(dp571
g7
V767
p572
sg9
VWimpod
p573
sg11
g90
sg13
VGrass
p574
sg15
V26
p575
sg17
V28
p576
sg19
g20
sbag1
(g2
g3
Ntp577
Rp578
(dp579
g7
V767
p580
sg9
VWimpod
p581
sg11
g99
sg13
VGrass
p582
sg15
V28
p583
sg17
V30
p584
sg19
g20
sbag1
(g2
g3
Ntp585
Rp586
(dp587
g7
V821
p588
sg9
VRookidee
p589
sg11
g90
sg13
VGrass
p590
sg15
V26
p591
sg17
V28
p592
sg19
g20
sbag1
(g2
g3
Ntp593
Rp594
(dp595
g7
V821
p596
sg9
VRookidee
p597
sg11
g99
sg13
VGrass
p598
sg15
V28
p599
sg17
V30
p600
sg19
g20
sbag1
(g2
g3
Ntp601
Rp602
(dp603
g7
V829
p604
sg9
VGossifleur
p605
sg11
g90
sg13
VGrass
p606
sg15
V26
p607
sg17
V28
p608
sg19
g20
sbag1
(g2
g3
Ntp609
Rp610
(dp611
g7
V829
p612
sg9
VGossifleur
p613
sg11
g99
sg13
VGrass
p614
sg15
V28
p615
sg17
V30
p616
sg19
g20
sbag1
(g2
g3
Ntp617
Rp618
(dp619
g7
V831
p620
sg9
VWooloo
p621
sg11
g90
sg13
VGrass
p622
sg15
V26
p623
sg17
V28
p624
sg19
g20
sbag1
(g2
g3
Ntp625
Rp626
(dp627
g7
V831
p628
sg9
VWooloo
p629
sg11
g99
sg13
VGrass
p630
sg15
V28
p631
sg17
V30
p632
sg19
g20
sbag1
(g2
g3
Ntp633
Rp634
(dp635
g7
V833
p636
sg9
VChewtle
p637
sg11
g90
sg13
VGrass
p638
sg15
V26
p639
sg17
V28
p640
sg19
g20
sbag1
(g2
g3
Ntp641
Rp642
(dp643
g7
V833
p644
sg9
VChewtle
p645
sg11
g99
sg13
VGrass
p646
sg15
V28
p647
sg17
V30
p648
sg19
g20
sbag1
(g2
g3
Ntp649
Rp650
(dp651
g7
V835
p652
sg9
VYamper
p653
sg11
g90
sg13
VGrass
p654
sg15
V26
p655
sg17
V28
p656
sg19
g20
sbag1
(g2
g3
Ntp657
Rp658
(dp659
g7
V835
p660
sg9
VYamper
p661
sg11
g99
sg13
VGrass
p662
sg15
V28
p663
sg17
V30
p664
sg19
g20
sbag1
(g2
g3
Ntp665
Rp666
(dp667
g7
V837
p668
sg9
VRolycoly
p669
sg11
g90
sg13
VGrass
p670
sg15
V26
p671
sg17
V28
p672
sg19
g20
sbag1
(g2
g3
Ntp673
Rp674
(dp675
g7
V837
p676
sg9
VRolycoly
p677
sg11
g99
sg13
VGrass
p678
sg15
V28
p679
sg17
V30
p680
sg19
g20
sbag1
(g2
g3
Ntp681
Rp682
(dp683
g7
V848
p684
sg9
VToxel
p685
sg11
g90
sg13
VGrass
p686
sg15
V26
p687
sg17
V28
p688
sg19
g20
sbag1
(g2
g3
Ntp689
Rp690
(dp691
g7
V848
p692
sg9
VToxel
p693
sg11
g99
sg13
VGrass
p694
sg15
V28
p695
sg17
V30
p696
sg19
g20
sbag1
(g2
g3
Ntp697
Rp698
(dp699
g7
V458
p700
sg9
VMantyke
p701
sg11
VSw,Sh,
p702
sg13
VSurf
p703
sg15
V40
p704
sg17
V43
p705
sg19
V5
p706
sbag1
(g2
g3
Ntp707
Rp708
(dp709
g7
V550
p710
sg9
VBasculin
p711
sg11
g90
sg13
VSurf
p712
sg15
V40
p713
sg17
V43
p714
sg19
g20
sbag1
(g2
g3
Ntp715
Rp716
(dp717
g7
V550
p718
sg9
VBasculin
p719
sg11
g99
sg13
VSurf
p720
sg15
V40
p721
sg17
V43
p722
sg19
g20
sbag1
(g2
g3
Ntp723
Rp724
(dp725
g7
V582
p726
sg9
VVanillite
p727
sg11
VSw,Sh,
p728
sg13
VSurf
p729
sg15
V40
p730
sg17
V43
p731
sg19
g20
sbag1
(g2
g3
Ntp732
Rp733
(dp734
g7
V846
p735
sg9
VArrokuda
p736
sg11
VSw,Sh,
p737
sg13
VSurf
p738
sg15
V40
p739
sg17
V43
p740
sg19
g20
sbag1
(g2
g3
Ntp741
Rp742
(dp743
g7
V561
p744
sg9
VSigilyph
p745
sg11
VSw,Sh,
p746
sg13
VWanderer
p747
sg15
V36
p748
sg17
g748
sg19
V0
p749
sbag1
(g2
g3
Ntp750
Rp751
(dp752
g7
V036
p753
sg9
VClefable
p754
sg11
VSw,Sh,
p755
sg13
VWanderer
p756
sg15
V36
p757
sg17
g757
sg19
g20
sbag1
(g2
g3
Ntp758
Rp759
(dp760
g7
V143
p761
sg9
VSnorlax
p762
sg11
VSw,Sh,
p763
sg13
VWanderer
p764
sg15
V36
p765
sg17
g765
sg19
g20
sbag1
(g2
g3
Ntp766
Rp767
(dp768
g7
V452
p769
sg9
VDrapion
p770
sg11
VSw,Sh,
p771
sg13
VWanderer
p772
sg15
V40
p773
sg17
g773
sg19
g20
sbag1
(g2
g3
Ntp774
Rp775
(dp776
g7
V743
p777
sg9
VRibombee
p778
sg11
VSw,Sh,
p779
sg13
VWanderer
p780
sg15
V40
p781
sg17
g781
sg19
g20
sbag1
(g2
g3
Ntp782
Rp783
(dp784
g7
V112
p785
sg9
VRhydon
p786
sg11
VSw,Sh,
p787
sg13
VWanderer
p788
sg15
V55
p789
sg17
g789
sg19
g20
sbag1
(g2
g3
Ntp790
Rp791
(dp792
g7
V534
p793
sg9
VConkeldurr
p794
sg11
VSw,Sh,
p795
sg13
VWanderer
p796
sg15
V55
p797
sg17
g797
sg19
g20
sbag1
(g2
g3
Ntp798
Rp799
(dp800
g7
V625
p801
sg9
VBisharp
p802
sg11
VSw,Sh,
p803
sg13
VWanderer
p804
sg15
V52
p805
sg17
g805
sg19
g20
sbag1
(g2
g3
Ntp806
Rp807
(dp808
g7
V561
p809
sg9
VSigilyph
p810
sg11
VSw,Sh,
p811
sg13
VWanderer
p812
sg15
V40
p813
sg17
g813
sg19
g20
sbag1
(g2
g3
Ntp814
Rp815
(dp816
g7
V823
p817
sg9
VCorviknight
p818
sg11
VSw,Sh,
p819
sg13
VWanderer
p820
sg15
V40
p821
sg17
g821
sg19
g20
sbag1
(g2
g3
Ntp822
Rp823
(dp824
g7
V830
p825
sg9
VEldegoss
p826
sg11
VSw,Sh,
p827
sg13
VWanderer
p828
sg15
V65
p829
sg17
g829
sg19
V0
p830
sbag1
(g2
g3
Ntp831
Rp832
(dp833
g7
V320
p834
sg9
VWailmer
p835
sg11
VSw,Sh,
p836
sg13
VWanderer
p837
sg15
V56
p838
sg17
g838
sg19
V0
p839
sba.