(lp0
ccopy_reg
_reconstructor
p1
(c__main__
WildPokemon
p2
c__builtin__
object
p3
Ntp4
Rp5
(dp6
VpDexNo
p7
V037
p8
sVpSpecies
p9
VVulpix
p10
sVpGames
p11
VSw,Sh,
p12
sVpArea
p13
VGrass
p14
sVpMinLevel
p15
V24
p16
sVpMaxLevel
p17
g16
sVpRate
p18
V100
p19
sbag1
(g2
g3
Ntp20
Rp21
(dp22
g7
V607
p23
sg9
VLitwick
p24
sg11
VSw,Sh,
p25
sg13
VGrass
p26
sg15
V25
p27
sg17
g27
sg18
V100
p28
sbag1
(g2
g3
Ntp29
Rp30
(dp31
g7
V850
p32
sg9
VSizzlipede
p33
sg11
VSw,Sh,
p34
sg13
VGrass
p35
sg15
V25
p36
sg17
g36
sg18
V100
p37
sba.