(lp0
ccopy_reg
_reconstructor
p1
(c__main__
WildPokemon
p2
c__builtin__
object
p3
Ntp4
Rp5
(dp6
VpDexNo
p7
V022
p8
sVpSpecies
p9
VFearow
p10
sVpGames
p11
VSu,M,
p12
sVpArea
p13
VBrown grass
p14
sVpMinLevel
p15
V25
p16
sVpMaxLevel
p17
V28
p18
sVpRate
p19
V40
p20
sbag1
(g2
g3
Ntp21
Rp22
(dp23
g7
V132
p24
sg9
VDitto
p25
sg11
VSu,M,
p26
sg13
VBrown grass
p27
sg15
V25
p28
sg17
V28
p29
sg19
V10
p30
sbag1
(g2
g3
Ntp31
Rp32
(dp33
g7
V173
p34
sg9
VCleffa
p35
sg11
VSu,M,
p36
sg13
VBrown grass
p37
sg15
V25
p38
sg17
V28
p39
sg19
V10
p40
sbag1
(g2
g3
Ntp41
Rp42
(dp43
g7
V227
p44
sg9
VSkarmory
p45
sg11
VSu,M,
p46
sg13
VBrown grass
p47
sg15
V25
p48
sg17
V28
p49
sg19
V10
p50
sbag1
(g2
g3
Ntp51
Rp52
(dp53
g7
V374
p54
sg9
VBeldum
p55
sg11
VSu,M,
p56
sg13
VBrown grass
p57
sg15
V25
p58
sg17
V28
p59
sg19
V10
p60
sbag1
(g2
g3
Ntp61
Rp62
(dp63
g7
V774
p64
sg9
VMinior
p65
sg11
VSu,M,
p66
sg13
VBrown grass
p67
sg15
V25
p68
sg17
V28
p69
sg19
V30
p70
sbag1
(g2
g3
Ntp71
Rp72
(dp73
g7
V610
p74
sg9
VAxew
p75
sg11
VSu,M,
p76
sg13
VBrown grass
p77
sg15
V28
p78
sg17
g78
sg19
V0
p79
sbag1
(g2
g3
Ntp80
Rp81
(dp82
g7
V022
p83
sg9
VFearow
p84
sg11
VUS,UM,
p85
sg13
VBrown grass
p86
sg15
V27
p87
sg17
V30
p88
sg19
V30
p89
sbag1
(g2
g3
Ntp90
Rp91
(dp92
g7
V132
p93
sg9
VDitto
p94
sg11
VUS,UM,
p95
sg13
VBrown grass
p96
sg15
V27
p97
sg17
V30
p98
sg19
V10
p99
sbag1
(g2
g3
Ntp100
Rp101
(dp102
g7
V173
p103
sg9
VCleffa
p104
sg11
VUS,UM,
p105
sg13
VBrown grass
p106
sg15
V27
p107
sg17
V30
p108
sg19
V20
p109
sbag1
(g2
g3
Ntp110
Rp111
(dp112
g7
V227
p113
sg9
VSkarmory
p114
sg11
VUS,UM,
p115
sg13
VBrown grass
p116
sg15
V27
p117
sg17
V30
p118
sg19
V10
p119
sbag1
(g2
g3
Ntp120
Rp121
(dp122
g7
V239
p123
sg9
VElekid
p124
sg11
VUS,UM,
p125
sg13
VBrown grass
p126
sg15
V27
p127
sg17
V30
p128
sg19
V10
p129
sbag1
(g2
g3
Ntp130
Rp131
(dp132
g7
V374
p133
sg9
VBeldum
p134
sg11
VUS,UM,
p135
sg13
VBrown grass
p136
sg15
V27
p137
sg17
V30
p138
sg19
V10
p139
sbag1
(g2
g3
Ntp140
Rp141
(dp142
g7
V605
p143
sg9
VElgyem
p144
sg11
VUS,UM,
p145
sg13
VBrown grass
p146
sg15
V27
p147
sg17
V30
p148
sg19
V20
p149
sbag1
(g2
g3
Ntp150
Rp151
(dp152
g7
V774
p153
sg9
VMinior
p154
sg11
VUS,UM,
p155
sg13
VBrown grass
p156
sg15
V27
p157
sg17
V30
p158
sg19
V10
p159
sbag1
(g2
g3
Ntp160
Rp161
(dp162
g7
V132
p163
sg9
VDitto
p164
sg11
VUS,UM,
p165
sg13
VBrown grass
p166
sg15
V27
p167
sg17
V30
p168
sg19
V10
p169
sbag1
(g2
g3
Ntp170
Rp171
(dp172
g7
V173
p173
sg9
VCleffa
p174
sg11
VUS,UM,
p175
sg13
VBrown grass
p176
sg15
V27
p177
sg17
V30
p178
sg19
V20
p179
sbag1
(g2
g3
Ntp180
Rp181
(dp182
g7
V374
p183
sg9
VBeldum
p184
sg11
VUS,UM,
p185
sg13
VBrown grass
p186
sg15
V27
p187
sg17
V30
p188
sg19
V20
p189
sbag1
(g2
g3
Ntp190
Rp191
(dp192
g7
V605
p193
sg9
VElgyem
p194
sg11
VUS,UM,
p195
sg13
VBrown grass
p196
sg15
V27
p197
sg17
V30
p198
sg19
V30
p199
sbag1
(g2
g3
Ntp200
Rp201
(dp202
g7
V774
p203
sg9
VMinior
p204
sg11
VUS,UM,
p205
sg13
VBrown grass
p206
sg15
V27
p207
sg17
V30
p208
sg19
V40
p209
sbag1
(g2
g3
Ntp210
Rp211
(dp212
g7
V610
p213
sg9
VAxew
p214
sg11
VUS,UM,
p215
sg13
VBrown grass
p216
sg15
V30
p217
sg17
g217
sg19
V0
p218
sba.