(lp0
ccopy_reg
_reconstructor
p1
(c__main__
WildPokemon
p2
c__builtin__
object
p3
Ntp4
Rp5
(dp6
VpDexNo
p7
V027
p8
sVpSpecies
p9
VSandshrew
p10
sVpGames
p11
VM,
p12
sVpArea
p13
VBrown grass
p14
sVpMinLevel
p15
V42
p16
sVpMaxLevel
p17
V45
p18
sVpRate
p19
V30
p20
sbag1
(g2
g3
Ntp21
Rp22
(dp23
g7
V037
p24
sg9
VVulpix
p25
sg11
VSu,
p26
sg13
VBrown grass
p27
sg15
V45
p28
sg17
V48
p29
sg19
V30
p30
sbag1
(g2
g3
Ntp31
Rp32
(dp33
g7
V215
p34
sg9
VSneasel
p35
sg11
g26
sg13
VBrown grass
p36
sg15
V45
p37
sg17
V48
p38
sg19
V20
p39
sbag1
(g2
g3
Ntp40
Rp41
(dp42
g7
V215
p43
sg9
VSneasel
p44
sg11
g12
sg13
VBrown grass
p45
sg15
V42
p46
sg17
V45
p47
sg19
V20
p48
sbag1
(g2
g3
Ntp49
Rp50
(dp51
g7
V359
p52
sg9
VAbsol
p53
sg11
g26
sg13
VBrown grass
p54
sg15
V45
p55
sg17
V48
p56
sg19
V20
p57
sbag1
(g2
g3
Ntp58
Rp59
(dp60
g7
V359
p61
sg9
VAbsol
p62
sg11
g12
sg13
VBrown grass
p63
sg15
V42
p64
sg17
V45
p65
sg19
V20
p66
sbag1
(g2
g3
Ntp67
Rp68
(dp69
g7
V361
p70
sg9
VSnorunt
p71
sg11
g26
sg13
VBrown grass
p72
sg15
V45
p73
sg17
V48
p74
sg19
V30
p75
sbag1
(g2
g3
Ntp76
Rp77
(dp78
g7
V361
p79
sg9
VSnorunt
p80
sg11
g12
sg13
VBrown grass
p81
sg15
V42
p82
sg17
V45
p83
sg19
V30
p84
sbag1
(g2
g3
Ntp85
Rp86
(dp87
g7
V027
p88
sg9
VSandshrew
p89
sg11
g12
sg13
VBrown grass
p90
sg15
V42
p91
sg17
V45
p92
sg19
V30
p93
sbag1
(g2
g3
Ntp94
Rp95
(dp96
g7
V037
p97
sg9
VVulpix
p98
sg11
g26
sg13
VBrown grass
p99
sg15
V42
p100
sg17
V45
p101
sg19
V30
p102
sbag1
(g2
g3
Ntp103
Rp104
(dp105
g7
V215
p106
sg9
VSneasel
p107
sg11
VSu,M,
p108
sg13
VBrown grass
p109
sg15
V42
p110
sg17
V45
p111
sg19
V20
p112
sbag1
(g2
g3
Ntp113
Rp114
(dp115
g7
V359
p116
sg9
VAbsol
p117
sg11
VSu,M,
p118
sg13
VBrown grass
p119
sg15
V42
p120
sg17
V45
p121
sg19
V20
p122
sbag1
(g2
g3
Ntp123
Rp124
(dp125
g7
V361
p126
sg9
VSnorunt
p127
sg11
VSu,M,
p128
sg13
VBrown grass
p129
sg15
V42
p130
sg17
V45
p131
sg19
V30
p132
sbag1
(g2
g3
Ntp133
Rp134
(dp135
g7
V000
p136
sg9
VAny
p137
sg11
g26
sg13
VBrown grass
p138
sg15
V45
p139
sg17
V48
p140
sg19
V10
p141
sbag1
(g2
g3
Ntp142
Rp143
(dp144
g7
V000
p145
sg9
VAny
p146
sg11
g12
sg13
VBrown grass
p147
sg15
V42
p148
sg17
V45
p149
sg19
V10
p150
sbag1
(g2
g3
Ntp151
Rp152
(dp153
g7
V000
p154
sg9
VAny
p155
sg11
g26
sg13
VBrown grass
p156
sg15
V45
p157
sg17
V48
p158
sg19
V1
p159
sbag1
(g2
g3
Ntp160
Rp161
(dp162
g7
V000
p163
sg9
VAny
p164
sg11
g12
sg13
VBrown grass
p165
sg15
V42
p166
sg17
V45
p167
sg19
V1
p168
sbag1
(g2
g3
Ntp169
Rp170
(dp171
g7
V000
p172
sg9
VAny
p173
sg11
g26
sg13
VBrown grass
p174
sg15
V45
p175
sg17
V48
p176
sg19
V11
p177
sbag1
(g2
g3
Ntp178
Rp179
(dp180
g7
V000
p181
sg9
VAny
p182
sg11
g12
sg13
VBrown grass
p183
sg15
V42
p184
sg17
V45
p185
sg19
V11
p186
sbag1
(g2
g3
Ntp187
Rp188
(dp189
g7
V000
p190
sg9
VAny
p191
sg11
VSu,M,
p192
sg13
VBrown grass
p193
sg15
V42
p194
sg17
V45
p195
sg19
V10
p196
sbag1
(g2
g3
Ntp197
Rp198
(dp199
g7
V000
p200
sg9
VAny
p201
sg11
VSu,M,
p202
sg13
VBrown grass
p203
sg15
V42
p204
sg17
V45
p205
sg19
V1
p206
sbag1
(g2
g3
Ntp207
Rp208
(dp209
g7
V000
p210
sg9
VAny
p211
sg11
VSu,M,
p212
sg13
VBrown grass
p213
sg15
V42
p214
sg17
V45
p215
sg19
V11
p216
sbag1
(g2
g3
Ntp217
Rp218
(dp219
g7
V042
p220
sg9
VGolbat
p221
sg11
g26
sg13
VCave
p222
sg15
V45
p223
sg17
V48
p224
sg19
V30
p225
sbag1
(g2
g3
Ntp226
Rp227
(dp228
g7
V042
p229
sg9
VGolbat
p230
sg11
g12
sg13
VCave
p231
sg15
V42
p232
sg17
V45
p233
sg19
V30
p234
sbag1
(g2
g3
Ntp235
Rp236
(dp237
g7
V215
p238
sg9
VSneasel
p239
sg11
g26
sg13
VCave
p240
sg15
V45
p241
sg17
V48
p242
sg19
V20
p243
sbag1
(g2
g3
Ntp244
Rp245
(dp246
g7
V215
p247
sg9
VSneasel
p248
sg11
g12
sg13
VCave
p249
sg15
V42
p250
sg17
V45
p251
sg19
V20
p252
sbag1
(g2
g3
Ntp253
Rp254
(dp255
g7
V359
p256
sg9
VAbsol
p257
sg11
g26
sg13
VCave
p258
sg15
V45
p259
sg17
V48
p260
sg19
V20
p261
sbag1
(g2
g3
Ntp262
Rp263
(dp264
g7
V359
p265
sg9
VAbsol
p266
sg11
g12
sg13
VCave
p267
sg15
V42
p268
sg17
V45
p269
sg19
V10
p270
sbag1
(g2
g3
Ntp271
Rp272
(dp273
g7
V361
p274
sg9
VSnorunt
p275
sg11
g26
sg13
VCave
p276
sg15
V45
p277
sg17
V48
p278
sg19
V30
p279
sbag1
(g2
g3
Ntp280
Rp281
(dp282
g7
V361
p283
sg9
VSnorunt
p284
sg11
g12
sg13
VCave
p285
sg15
V42
p286
sg17
V45
p287
sg19
V30
p288
sbag1
(g2
g3
Ntp289
Rp290
(dp291
g7
V780
p292
sg9
VDrampa
p293
sg11
g12
sg13
VCave
p294
sg15
V42
p295
sg17
V45
p296
sg19
V10
p297
sbag1
(g2
g3
Ntp298
Rp299
(dp300
g7
V020
p301
sg9
VRaticate
p302
sg11
VUS,UM,
p303
sg13
VBrown grass
p304
sg15
V30
p305
sg17
V33
p306
sg19
V20
p307
sbag1
(g2
g3
Ntp308
Rp309
(dp310
g7
V027
p311
sg9
VSandshrew
p312
sg11
VUM,
p313
sg13
VBrown grass
p314
sg15
V30
p315
sg17
V33
p316
sg19
V30
p317
sbag1
(g2
g3
Ntp318
Rp319
(dp320
g7
V037
p321
sg9
VVulpix
p322
sg11
VUS,
p323
sg13
VBrown grass
p324
sg15
V30
p325
sg17
V33
p326
sg19
V30
p327
sbag1
(g2
g3
Ntp328
Rp329
(dp330
g7
V359
p331
sg9
VAbsol
p332
sg11
VUS,UM,
p333
sg13
VBrown grass
p334
sg15
V30
p335
sg17
V33
p336
sg19
V20
p337
sbag1
(g2
g3
Ntp338
Rp339
(dp340
g7
V361
p341
sg9
VSnorunt
p342
sg11
VUS,UM,
p343
sg13
VBrown grass
p344
sg15
V30
p345
sg17
V33
p346
sg19
V30
p347
sbag1
(g2
g3
Ntp348
Rp349
(dp350
g7
V735
p351
sg9
VGumshoos
p352
sg11
VUS,UM,
p353
sg13
VBrown grass
p354
sg15
V30
p355
sg17
V33
p356
sg19
V20
p357
sbag1
(g2
g3
Ntp358
Rp359
(dp360
g7
V000
p361
sg9
VAny
p362
sg11
VUS,UM,
p363
sg13
VBrown grass
p364
sg15
V30
p365
sg17
V33
p366
sg19
V10
p367
sbag1
(g2
g3
Ntp368
Rp369
(dp370
g7
V000
p371
sg9
VAny
p372
sg11
VUS,UM,
p373
sg13
VBrown grass
p374
sg15
V30
p375
sg17
V33
p376
sg19
V1
p377
sbag1
(g2
g3
Ntp378
Rp379
(dp380
g7
V000
p381
sg9
VAny
p382
sg11
VUS,UM,
p383
sg13
VBrown grass
p384
sg15
V30
p385
sg17
V33
p386
sg19
V11
p387
sbag1
(g2
g3
Ntp388
Rp389
(dp390
g7
V027
p391
sg9
VSandshrew
p392
sg11
g313
sg13
VBrown grass
p393
sg15
V47
p394
sg17
V50
p395
sg19
V30
p396
sbag1
(g2
g3
Ntp397
Rp398
(dp399
g7
V037
p400
sg9
VVulpix
p401
sg11
g323
sg13
VBrown grass
p402
sg15
V47
p403
sg17
V50
p404
sg19
V30
p405
sbag1
(g2
g3
Ntp406
Rp407
(dp408
g7
V215
p409
sg9
VSneasel
p410
sg11
VUS,UM,
p411
sg13
VBrown grass
p412
sg15
V47
p413
sg17
V50
p414
sg19
V20
p415
sbag1
(g2
g3
Ntp416
Rp417
(dp418
g7
V359
p419
sg9
VAbsol
p420
sg11
VUS,UM,
p421
sg13
VBrown grass
p422
sg15
V47
p423
sg17
V50
p424
sg19
V20
p425
sbag1
(g2
g3
Ntp426
Rp427
(dp428
g7
V362
p429
sg9
VGlalie
p430
sg11
VUS,UM,
p431
sg13
VBrown grass
p432
sg15
V47
p433
sg17
V50
p434
sg19
V30
p435
sbag1
(g2
g3
Ntp436
Rp437
(dp438
g7
V000
p439
sg9
VAny
p440
sg11
VUS,UM,
p441
sg13
VBrown grass
p442
sg15
V47
p443
sg17
V50
p444
sg19
V10
p445
sbag1
(g2
g3
Ntp446
Rp447
(dp448
g7
V000
p449
sg9
VAny
p450
sg11
VUS,UM,
p451
sg13
VBrown grass
p452
sg15
V47
p453
sg17
V50
p454
sg19
V1
p455
sbag1
(g2
g3
Ntp456
Rp457
(dp458
g7
V000
p459
sg9
VAny
p460
sg11
VUS,UM,
p461
sg13
VBrown grass
p462
sg15
V47
p463
sg17
V50
p464
sg19
V11
p465
sbag1
(g2
g3
Ntp466
Rp467
(dp468
g7
V027
p469
sg9
VSandshrew
p470
sg11
g313
sg13
VBrown grass
p471
sg15
V47
p472
sg17
V50
p473
sg19
V30
p474
sbag1
(g2
g3
Ntp475
Rp476
(dp477
g7
V037
p478
sg9
VVulpix
p479
sg11
g323
sg13
VBrown grass
p480
sg15
V47
p481
sg17
V50
p482
sg19
V30
p483
sbag1
(g2
g3
Ntp484
Rp485
(dp486
g7
V215
p487
sg9
VSneasel
p488
sg11
VUS,UM,
p489
sg13
VBrown grass
p490
sg15
V47
p491
sg17
V50
p492
sg19
V20
p493
sbag1
(g2
g3
Ntp494
Rp495
(dp496
g7
V359
p497
sg9
VAbsol
p498
sg11
VUS,UM,
p499
sg13
VBrown grass
p500
sg15
V47
p501
sg17
V50
p502
sg19
V20
p503
sbag1
(g2
g3
Ntp504
Rp505
(dp506
g7
V362
p507
sg9
VGlalie
p508
sg11
VUS,UM,
p509
sg13
VBrown grass
p510
sg15
V47
p511
sg17
V50
p512
sg19
V30
p513
sbag1
(g2
g3
Ntp514
Rp515
(dp516
g7
V000
p517
sg9
VAny
p518
sg11
VUS,UM,
p519
sg13
VBrown grass
p520
sg15
V47
p521
sg17
V50
p522
sg19
V10
p523
sbag1
(g2
g3
Ntp524
Rp525
(dp526
g7
V000
p527
sg9
VAny
p528
sg11
VUS,UM,
p529
sg13
VBrown grass
p530
sg15
V47
p531
sg17
V50
p532
sg19
V1
p533
sbag1
(g2
g3
Ntp534
Rp535
(dp536
g7
V000
p537
sg9
VAny
p538
sg11
VUS,UM,
p539
sg13
VBrown grass
p540
sg15
V47
p541
sg17
V50
p542
sg19
V11
p543
sbag1
(g2
g3
Ntp544
Rp545
(dp546
g7
V042
p547
sg9
VGolbat
p548
sg11
VUS,UM,
p549
sg13
VCave
p550
sg15
V47
p551
sg17
V50
p552
sg19
V30
p553
sbag1
(g2
g3
Ntp554
Rp555
(dp556
g7
V215
p557
sg9
VSneasel
p558
sg11
VUS,UM,
p559
sg13
VCave
p560
sg15
V47
p561
sg17
V50
p562
sg19
V20
p563
sbag1
(g2
g3
Ntp564
Rp565
(dp566
g7
V359
p567
sg9
VAbsol
p568
sg11
g323
sg13
VCave
p569
sg15
V47
p570
sg17
V50
p571
sg19
V20
p572
sbag1
(g2
g3
Ntp573
Rp574
(dp575
g7
V359
p576
sg9
VAbsol
p577
sg11
g313
sg13
VCave
p578
sg15
V47
p579
sg17
V50
p580
sg19
V10
p581
sbag1
(g2
g3
Ntp582
Rp583
(dp584
g7
V362
p585
sg9
VGlalie
p586
sg11
VUS,UM,
p587
sg13
VCave
p588
sg15
V47
p589
sg17
V50
p590
sg19
V30
p591
sbag1
(g2
g3
Ntp592
Rp593
(dp594
g7
V780
p595
sg9
VDrampa
p596
sg11
g313
sg13
VCave
p597
sg15
V47
p598
sg17
V50
p599
sg19
V10
p600
sbag1
(g2
g3
Ntp601
Rp602
(dp603
g7
V800
p604
sg9
VNecrozma
p605
sg11
VUS,UM,
p606
sg13
VSpecial
p607
sg15
V65
p608
sg17
g608
sg19
V0
p609
sbag1
(g2
g3
Ntp610
Rp611
(dp612
g7
V042
p613
sg9
VGolbat
p614
sg11
VUS,UM,
p615
sg13
VCave
p616
sg15
V48
p617
sg17
V51
p618
sg19
V30
p619
sbag1
(g2
g3
Ntp620
Rp621
(dp622
g7
V215
p623
sg9
VSneasel
p624
sg11
VUS,UM,
p625
sg13
VCave
p626
sg15
V48
p627
sg17
V51
p628
sg19
V20
p629
sbag1
(g2
g3
Ntp630
Rp631
(dp632
g7
V359
p633
sg9
VAbsol
p634
sg11
g323
sg13
VCave
p635
sg15
V48
p636
sg17
V51
p637
sg19
V20
p638
sbag1
(g2
g3
Ntp639
Rp640
(dp641
g7
V359
p642
sg9
VAbsol
p643
sg11
g313
sg13
VCave
p644
sg15
V48
p645
sg17
V51
p646
sg19
V10
p647
sbag1
(g2
g3
Ntp648
Rp649
(dp650
g7
V362
p651
sg9
VGlalie
p652
sg11
VUS,UM,
p653
sg13
VCave
p654
sg15
V48
p655
sg17
V51
p656
sg19
V30
p657
sbag1
(g2
g3
Ntp658
Rp659
(dp660
g7
V780
p661
sg9
VDrampa
p662
sg11
g313
sg13
VCave
p663
sg15
V48
p664
sg17
V51
p665
sg19
V10
p666
sbag1
(g2
g3
Ntp667
Rp668
(dp669
g7
V027
p670
sg9
VSandshrew
p671
sg11
g313
sg13
VBrown grass
p672
sg15
V48
p673
sg17
V51
p674
sg19
V30
p675
sbag1
(g2
g3
Ntp676
Rp677
(dp678
g7
V037
p679
sg9
VVulpix
p680
sg11
g323
sg13
VBrown grass
p681
sg15
V48
p682
sg17
V51
p683
sg19
V30
p684
sbag1
(g2
g3
Ntp685
Rp686
(dp687
g7
V215
p688
sg9
VSneasel
p689
sg11
VUS,UM,
p690
sg13
VBrown grass
p691
sg15
V48
p692
sg17
V51
p693
sg19
V20
p694
sbag1
(g2
g3
Ntp695
Rp696
(dp697
g7
V359
p698
sg9
VAbsol
p699
sg11
VUS,UM,
p700
sg13
VBrown grass
p701
sg15
V48
p702
sg17
V51
p703
sg19
V20
p704
sbag1
(g2
g3
Ntp705
Rp706
(dp707
g7
V362
p708
sg9
VGlalie
p709
sg11
VUS,UM,
p710
sg13
VBrown grass
p711
sg15
V48
p712
sg17
V51
p713
sg19
V30
p714
sbag1
(g2
g3
Ntp715
Rp716
(dp717
g7
V000
p718
sg9
VAny
p719
sg11
VUS,UM,
p720
sg13
VBrown grass
p721
sg15
V48
p722
sg17
V51
p723
sg19
V10
p724
sbag1
(g2
g3
Ntp725
Rp726
(dp727
g7
V000
p728
sg9
VAny
p729
sg11
VUS,UM,
p730
sg13
VBrown grass
p731
sg15
V48
p732
sg17
V51
p733
sg19
V1
p734
sbag1
(g2
g3
Ntp735
Rp736
(dp737
g7
V000
p738
sg9
VAny
p739
sg11
VUS,UM,
p740
sg13
VBrown grass
p741
sg15
V48
p742
sg17
V51
p743
sg19
V11
p744
sba.