(lp0
ccopy_reg
_reconstructor
p1
(c__main__
WildPokemon
p2
c__builtin__
object
p3
Ntp4
Rp5
(dp6
VpDexNo
p7
V024
p8
sVpSpecies
p9
VArbok
p10
sVpGames
p11
VC,
p12
sVpArea
p13
VGrass
p14
sVpMinLevel
p15
V42
p16
sVpMaxLevel
p17
g16
sVpRate
p18
V20
p19
sbag1
(g2
g3
Ntp20
Rp21
(dp22
g7
V042
p23
sg9
VGolbat
p24
sg11
g12
sg13
VGrass
p25
sg15
V40
p26
sg17
V44
p27
sg18
V30
p28
sbag1
(g2
g3
Ntp29
Rp30
(dp31
g7
V061
p32
sg9
VPoliwhirl
p33
sg11
g12
sg13
VGrass
p34
sg15
V42
p35
sg17
V44
p36
sg18
V40
p37
sbag1
(g2
g3
Ntp38
Rp39
(dp40
g7
V084
p41
sg9
VDoduo
p42
sg11
VG,S,C,
p43
sg13
VGrass
p44
sg15
V41
p45
sg17
g45
sg18
V5
p46
sbag1
(g2
g3
Ntp47
Rp48
(dp49
g7
V085
p50
sg9
VDodrio
p51
sg11
VG,S,C,
p52
sg13
VGrass
p53
sg15
V43
p54
sg17
g54
sg18
V5
p55
sbag1
(g2
g3
Ntp56
Rp57
(dp58
g7
V077
p59
sg9
VPonyta
p60
sg11
VG,S,
p61
sg13
VGrass
p62
sg15
V42
p63
sg17
g63
sg18
V30
p64
sbag1
(g2
g3
Ntp65
Rp66
(dp67
g7
V077
p68
sg9
VPonyta
p69
sg11
g12
sg13
VGrass
p70
sg15
V42
p71
sg17
g71
sg18
V30
p72
sbag1
(g2
g3
Ntp73
Rp74
(dp75
g7
V078
p76
sg9
VRapidash
p77
sg11
VG,S,
p78
sg13
VGrass
p79
sg15
V44
p80
sg17
g80
sg18
V10
p81
sbag1
(g2
g3
Ntp82
Rp83
(dp84
g7
V078
p85
sg9
VRapidash
p86
sg11
g12
sg13
VGrass
p87
sg15
V44
p88
sg17
g88
sg18
V10
p89
sbag1
(g2
g3
Ntp90
Rp91
(dp92
g7
V114
p93
sg9
VTangela
p94
sg11
VG,S,C,
p95
sg13
VGrass
p96
sg15
V41
p97
sg17
g97
sg18
V30
p98
sbag1
(g2
g3
Ntp99
Rp100
(dp101
g7
V215
p102
sg9
VSneasel
p103
sg11
VG,S,
p104
sg13
VGrass
p105
sg15
V38
p106
sg17
V42
p107
sg18
V10
p108
sbag1
(g2
g3
Ntp109
Rp110
(dp111
g7
V217
p112
sg9
VUrsaring
p113
sg11
VG,
p114
sg13
VGrass
p115
sg15
V42
p116
sg17
g116
sg18
V20
p117
sbag1
(g2
g3
Ntp118
Rp119
(dp120
g7
V232
p121
sg9
VDonphan
p122
sg11
VS,
p123
sg13
VGrass
p124
sg15
V42
p125
sg17
g125
sg18
V20
p126
sbag1
(g2
g3
Ntp127
Rp128
(dp129
g7
V060
p130
sg9
VPoliwag
p131
sg11
VG,S,C,
p132
sg13
VSurf
p133
sg15
V35
p134
sg17
V39
p135
sg18
V10
p136
sbag1
(g2
g3
Ntp137
Rp138
(dp139
g7
V061
p140
sg9
VPoliwhirl
p141
sg11
VG,S,C,
p142
sg13
VSurf
p143
sg15
V35
p144
sg17
V44
p145
sg18
V90
p146
sbag1
(g2
g3
Ntp147
Rp148
(dp149
g7
V060
p150
sg9
VPoliwag
p151
sg11
VG,S,C,
p152
sg13
VFish Old
p153
sg15
V10
p154
sg17
g154
sg18
V15
p155
sbag1
(g2
g3
Ntp156
Rp157
(dp158
g7
V129
p159
sg9
VMagikarp
p160
sg11
VG,S,C,
p161
sg13
VFish Old
p162
sg15
V10
p163
sg17
g163
sg18
V85
p164
sbag1
(g2
g3
Ntp165
Rp166
(dp167
g7
V060
p168
sg9
VPoliwag
p169
sg11
VG,S,C,
p170
sg13
VFish Good
p171
sg15
V20
p172
sg17
g172
sg18
V65
p173
sbag1
(g2
g3
Ntp174
Rp175
(dp176
g7
V129
p177
sg9
VMagikarp
p178
sg11
VG,S,C,
p179
sg13
VFish Good
p180
sg15
V20
p181
sg17
g181
sg18
V35
p182
sbag1
(g2
g3
Ntp183
Rp184
(dp185
g7
V060
p186
sg9
VPoliwag
p187
sg11
VG,S,C,
p188
sg13
VFish Super
p189
sg15
V40
p190
sg17
g190
sg18
V80
p191
sbag1
(g2
g3
Ntp192
Rp193
(dp194
g7
V129
p195
sg9
VMagikarp
p196
sg11
VG,S,C,
p197
sg13
VFish Super
p198
sg15
V40
p199
sg17
g199
sg18
V20
p200
sbag1
(g2
g3
Ntp201
Rp202
(dp203
g7
V042
p204
sg9
VGolbat
p205
sg11
VG,S,
p206
sg13
VCave
p207
sg15
V45
p208
sg17
g208
sg18
V5
p209
sbag1
(g2
g3
Ntp210
Rp211
(dp212
g7
V042
p213
sg9
VGolbat
p214
sg11
g12
sg13
VCave
p215
sg15
V45
p216
sg17
g216
sg18
V5
p217
sbag1
(g2
g3
Ntp218
Rp219
(dp220
g7
V042
p221
sg9
VGolbat
p222
sg11
g12
sg13
VCave
p223
sg15
V42
p224
sg17
V46
p225
sg18
V45
p226
sbag1
(g2
g3
Ntp227
Rp228
(dp229
g7
V055
p230
sg9
VGolduck
p231
sg11
g12
sg13
VCave
p232
sg15
V45
p233
sg17
g233
sg18
V5
p234
sbag1
(g2
g3
Ntp235
Rp236
(dp237
g7
V075
p238
sg9
VGraveler
p239
sg11
VG,S,C,
p240
sg13
VCave
p241
sg15
V43
p242
sg17
g242
sg18
V30
p243
sbag1
(g2
g3
Ntp244
Rp245
(dp246
g7
V095
p247
sg9
VOnix
p248
sg11
VG,S,
p249
sg13
VCave
p250
sg15
V42
p251
sg17
g251
sg18
V30
p252
sbag1
(g2
g3
Ntp253
Rp254
(dp255
g7
V095
p256
sg9
VOnix
p257
sg11
g12
sg13
VCave
p258
sg15
V42
p259
sg17
g259
sg18
V20
p260
sbag1
(g2
g3
Ntp261
Rp262
(dp263
g7
V126
p264
sg9
VMagmar
p265
sg11
g12
sg13
VCave
p266
sg15
V45
p267
sg17
g267
sg18
V10
p268
sbag1
(g2
g3
Ntp269
Rp270
(dp271
g7
V217
p272
sg9
VUrsaring
p273
sg11
g114
sg13
VCave
p274
sg15
V44
p275
sg17
g275
sg18
V30
p276
sbag1
(g2
g3
Ntp277
Rp278
(dp279
g7
V217
p280
sg9
VUrsaring
p281
sg11
g12
sg13
VCave
p282
sg15
V44
p283
sg17
g283
sg18
V30
p284
sbag1
(g2
g3
Ntp285
Rp286
(dp287
g7
V232
p288
sg9
VDonphan
p289
sg11
g123
sg13
VCave
p290
sg15
V44
p291
sg17
g291
sg18
V30
p292
sbag1
(g2
g3
Ntp293
Rp294
(dp295
g7
V246
p296
sg9
VLarvitar
p297
sg11
VG,S,
p298
sg13
VCave
p299
sg15
V15
p300
sg17
V20
p301
sg18
V5
p302
sbag1
(g2
g3
Ntp303
Rp304
(dp305
g7
V246
p306
sg9
VLarvitar
p307
sg11
g12
sg13
VCave
p308
sg15
V15
p309
sg17
V20
p310
sg18
V5
p311
sbag1
(g2
g3
Ntp312
Rp313
(dp314
g7
V042
p315
sg9
VGolbat
p316
sg11
VG,S,
p317
sg13
VCave
p318
sg15
V48
p319
sg17
g319
sg18
V5
p320
sbag1
(g2
g3
Ntp321
Rp322
(dp323
g7
V042
p324
sg9
VGolbat
p325
sg11
g12
sg13
VCave
p326
sg15
V46
p327
sg17
V48
p328
sg18
V50
p329
sbag1
(g2
g3
Ntp330
Rp331
(dp332
g7
V047
p333
sg9
VParasect
p334
sg11
g12
sg13
VCave
p335
sg15
V46
p336
sg17
V48
p337
sg18
V15
p338
sbag1
(g2
g3
Ntp339
Rp340
(dp341
g7
V055
p342
sg9
VGolduck
p343
sg11
VG,S,
p344
sg13
VCave
p345
sg15
V48
p346
sg17
g346
sg18
V30
p347
sbag1
(g2
g3
Ntp348
Rp349
(dp350
g7
V055
p351
sg9
VGolduck
p352
sg11
g12
sg13
VCave
p353
sg15
V48
p354
sg17
g354
sg18
V30
p355
sbag1
(g2
g3
Ntp356
Rp357
(dp358
g7
V067
p359
sg9
VMachoke
p360
sg11
g12
sg13
VCave
p361
sg15
V48
p362
sg17
g362
sg18
V30
p363
sbag1
(g2
g3
Ntp364
Rp365
(dp366
g7
V195
p367
sg9
VQuagsire
p368
sg11
VG,S,
p369
sg13
VCave
p370
sg15
V45
p371
sg17
g371
sg18
V40
p372
sbag1
(g2
g3
Ntp373
Rp374
(dp375
g7
V200
p376
sg9
VMisdreavus
p377
sg11
VG,S,
p378
sg13
VCave
p379
sg15
V45
p380
sg17
g380
sg18
V10
p381
sbag1
(g2
g3
Ntp382
Rp383
(dp384
g7
V200
p385
sg9
VMisdreavus
p386
sg11
g12
sg13
VCave
p387
sg15
V45
p388
sg17
g388
sg18
V5
p389
sbag1
(g2
g3
Ntp390
Rp391
(dp392
g7
V217
p393
sg9
VUrsaring
p394
sg11
g114
sg13
VCave
p395
sg15
V47
p396
sg17
g396
sg18
V20
p397
sbag1
(g2
g3
Ntp398
Rp399
(dp400
g7
V217
p401
sg9
VUrsaring
p402
sg11
g12
sg13
VCave
p403
sg15
V47
p404
sg17
g404
sg18
V20
p405
sbag1
(g2
g3
Ntp406
Rp407
(dp408
g7
V232
p409
sg9
VDonphan
p410
sg11
g123
sg13
VCave
p411
sg15
V47
p412
sg17
g412
sg18
V20
p413
sbag1
(g2
g3
Ntp414
Rp415
(dp416
g7
V246
p417
sg9
VLarvitar
p418
sg11
VG,S,
p419
sg13
VCave
p420
sg15
V15
p421
sg17
V20
p422
sg18
V5
p423
sbag1
(g2
g3
Ntp424
Rp425
(dp426
g7
V246
p427
sg9
VLarvitar
p428
sg11
g12
sg13
VCave
p429
sg15
V15
p430
sg17
V20
p431
sg18
V5
p432
sbag1
(g2
g3
Ntp433
Rp434
(dp435
g7
V055
p436
sg9
VGolduck
p437
sg11
g12
sg13
VSurf
p438
sg15
V35
p439
sg17
V39
p440
sg18
V30
p441
sbag1
(g2
g3
Ntp442
Rp443
(dp444
g7
V118
p445
sg9
VGoldeen
p446
sg11
VG,S,C,
p447
sg13
VSurf
p448
sg15
V35
p449
sg17
V39
p450
sg18
V10
p451
sbag1
(g2
g3
Ntp452
Rp453
(dp454
g7
V119
p455
sg9
VSeaking
p456
sg11
VG,S,
p457
sg13
VSurf
p458
sg15
V35
p459
sg17
V44
p460
sg18
V90
p461
sbag1
(g2
g3
Ntp462
Rp463
(dp464
g7
V119
p465
sg9
VSeaking
p466
sg11
g12
sg13
VSurf
p467
sg15
V35
p468
sg17
V39
p469
sg18
V60
p470
sbag1
(g2
g3
Ntp471
Rp472
(dp473
g7
V118
p474
sg9
VGoldeen
p475
sg11
VG,S,C,
p476
sg13
VFish Old
p477
sg15
V10
p478
sg17
g478
sg18
V15
p479
sbag1
(g2
g3
Ntp480
Rp481
(dp482
g7
V129
p483
sg9
VMagikarp
p484
sg11
VG,S,C,
p485
sg13
VFish Old
p486
sg15
V10
p487
sg17
g487
sg18
V85
p488
sbag1
(g2
g3
Ntp489
Rp490
(dp491
g7
V118
p492
sg9
VGoldeen
p493
sg11
VG,S,C,
p494
sg13
VFish Good
p495
sg15
V20
p496
sg17
g496
sg18
V65
p497
sbag1
(g2
g3
Ntp498
Rp499
(dp500
g7
V129
p501
sg9
VMagikarp
p502
sg11
VG,S,C,
p503
sg13
VFish Good
p504
sg15
V20
p505
sg17
g505
sg18
V35
p506
sbag1
(g2
g3
Ntp507
Rp508
(dp509
g7
V118
p510
sg9
VGoldeen
p511
sg11
VG,S,C,
p512
sg13
VFish Super
p513
sg15
V40
p514
sg17
g514
sg18
V70
p515
sbag1
(g2
g3
Ntp516
Rp517
(dp518
g7
V119
p519
sg9
VSeaking
p520
sg11
VG,S,C,
p521
sg13
VFish Super
p522
sg15
V40
p523
sg17
g523
sg18
V10
p524
sbag1
(g2
g3
Ntp525
Rp526
(dp527
g7
V129
p528
sg9
VMagikarp
p529
sg11
VG,S,C,
p530
sg13
VFish Super
p531
sg15
V40
p532
sg17
g532
sg18
V20
p533
sbag1
(g2
g3
Ntp534
Rp535
(dp536
g7
V042
p537
sg9
VGolbat
p538
sg11
VG,S,
p539
sg13
VCave
p540
sg15
V48
p541
sg17
V51
p542
sg18
V50
p543
sbag1
(g2
g3
Ntp544
Rp545
(dp546
g7
V042
p547
sg9
VGolbat
p548
sg11
g12
sg13
VCave
p549
sg15
V51
p550
sg17
g550
sg18
V30
p551
sbag1
(g2
g3
Ntp552
Rp553
(dp554
g7
V042
p555
sg9
VGolbat
p556
sg11
g12
sg13
VCave
p557
sg15
V49
p558
sg17
V53
p559
sg18
V45
p560
sbag1
(g2
g3
Ntp561
Rp562
(dp563
g7
V055
p564
sg9
VGolduck
p565
sg11
VG,S,
p566
sg13
VCave
p567
sg15
V51
p568
sg17
g568
sg18
V5
p569
sbag1
(g2
g3
Ntp570
Rp571
(dp572
g7
V055
p573
sg9
VGolduck
p574
sg11
g12
sg13
VCave
p575
sg15
V45
p576
sg17
g576
sg18
V5
p577
sbag1
(g2
g3
Ntp578
Rp579
(dp580
g7
V075
p581
sg9
VGraveler
p582
sg11
g12
sg13
VCave
p583
sg15
V48
p584
sg17
g584
sg18
V20
p585
sbag1
(g2
g3
Ntp586
Rp587
(dp588
g7
V095
p589
sg9
VOnix
p590
sg11
VG,S,C,
p591
sg13
VCave
p592
sg15
V48
p593
sg17
g593
sg18
V30
p594
sbag1
(g2
g3
Ntp595
Rp596
(dp597
g7
V217
p598
sg9
VUrsaring
p599
sg11
g114
sg13
VCave
p600
sg15
V50
p601
sg17
g601
sg18
V10
p602
sbag1
(g2
g3
Ntp603
Rp604
(dp605
g7
V217
p606
sg9
VUrsaring
p607
sg11
g12
sg13
VCave
p608
sg15
V50
p609
sg17
g609
sg18
V10
p610
sbag1
(g2
g3
Ntp611
Rp612
(dp613
g7
V232
p614
sg9
VDonphan
p615
sg11
g123
sg13
VCave
p616
sg15
V50
p617
sg17
g617
sg18
V10
p618
sbag1
(g2
g3
Ntp619
Rp620
(dp621
g7
V246
p622
sg9
VLarvitar
p623
sg11
VG,S,
p624
sg13
VCave
p625
sg15
V15
p626
sg17
V20
p627
sg18
V5
p628
sbag1
(g2
g3
Ntp629
Rp630
(dp631
g7
V246
p632
sg9
VLarvitar
p633
sg11
g12
sg13
VCave
p634
sg15
V15
p635
sg17
V20
p636
sg18
V9
p637
sbag1
(g2
g3
Ntp638
Rp639
(dp640
g7
V247
p641
sg9
VPupitar
p642
sg11
g12
sg13
VCave
p643
sg15
V20
p644
sg17
g644
sg18
V1
p645
sbag1
(g2
g3
Ntp646
Rp647
(dp648
g7
V042
p649
sg9
VGolbat
p650
sg11
VG,S,
p651
sg13
VCave
p652
sg15
V48
p653
sg17
g653
sg18
V5
p654
sbag1
(g2
g3
Ntp655
Rp656
(dp657
g7
V042
p658
sg9
VGolbat
p659
sg11
g12
sg13
VCave
p660
sg15
V46
p661
sg17
V50
p662
sg18
V80
p663
sbag1
(g2
g3
Ntp664
Rp665
(dp666
g7
V047
p667
sg9
VParasect
p668
sg11
g12
sg13
VCave
p669
sg15
V46
p670
sg17
V52
p671
sg18
V20
p672
sbag1
(g2
g3
Ntp673
Rp674
(dp675
g7
V055
p676
sg9
VGolduck
p677
sg11
VG,S,
p678
sg13
VCave
p679
sg15
V48
p680
sg17
g680
sg18
V30
p681
sbag1
(g2
g3
Ntp682
Rp683
(dp684
g7
V195
p685
sg9
VQuagsire
p686
sg11
VG,S,
p687
sg13
VCave
p688
sg15
V45
p689
sg17
g689
sg18
V40
p690
sbag1
(g2
g3
Ntp691
Rp692
(dp693
g7
V217
p694
sg9
VUrsaring
p695
sg11
g114
sg13
VCave
p696
sg15
V47
p697
sg17
g697
sg18
V20
p698
sbag1
(g2
g3
Ntp699
Rp700
(dp701
g7
V232
p702
sg9
VDonphan
p703
sg11
g123
sg13
VCave
p704
sg15
V47
p705
sg17
g705
sg18
V20
p706
sbag1
(g2
g3
Ntp707
Rp708
(dp709
g7
V246
p710
sg9
VLarvitar
p711
sg11
VG,S,
p712
sg13
VCave
p713
sg15
V15
p714
sg17
V20
p715
sg18
V5
p716
sbag1
(g2
g3
Ntp717
Rp718
(dp719
g7
V200
p720
sg9
VMisdreavus
p721
sg11
VG,S,C,
p722
sg13
VCave
p723
sg15
V45
p724
sg17
g724
sg18
V30
p725
sbag1
(g2
g3
Ntp726
Rp727
(dp728
g7
V077
p729
sg9
VPonyta
p730
sg11
VHG,SS,
p731
sg13
VGrass
p732
sg15
V42
p733
sg17
g733
sg18
V30
p734
sbag1
(g2
g3
Ntp735
Rp736
(dp737
g7
V078
p738
sg9
VRapidash
p739
sg11
VHG,SS,
p740
sg13
VGrass
p741
sg15
V44
p742
sg17
g742
sg18
V10
p743
sbag1
(g2
g3
Ntp744
Rp745
(dp746
g7
V084
p747
sg9
VDoduo
p748
sg11
VHG,SS,
p749
sg13
VGrass
p750
sg15
V41
p751
sg17
g751
sg18
V5
p752
sbag1
(g2
g3
Ntp753
Rp754
(dp755
g7
V085
p756
sg9
VDodrio
p757
sg11
VHG,SS,
p758
sg13
VGrass
p759
sg15
V43
p760
sg17
g760
sg18
V5
p761
sbag1
(g2
g3
Ntp762
Rp763
(dp764
g7
V114
p765
sg9
VTangela
p766
sg11
VHG,SS,
p767
sg13
VGrass
p768
sg15
V41
p769
sg17
g769
sg18
V30
p770
sbag1
(g2
g3
Ntp771
Rp772
(dp773
g7
V215
p774
sg9
VSneasel
p775
sg11
VHG,SS,
p776
sg13
VGrass
p777
sg15
V41
p778
sg17
V43
p779
sg18
V10
p780
sbag1
(g2
g3
Ntp781
Rp782
(dp783
g7
V217
p784
sg9
VUrsaring
p785
sg11
VSS,
p786
sg13
VGrass
p787
sg15
V42
p788
sg17
g788
sg18
V20
p789
sbag1
(g2
g3
Ntp790
Rp791
(dp792
g7
V232
p793
sg9
VDonphan
p794
sg11
VHG,
p795
sg13
VGrass
p796
sg15
V42
p797
sg17
g797
sg18
V20
p798
sbag1
(g2
g3
Ntp799
Rp800
(dp801
g7
V060
p802
sg9
VPoliwag
p803
sg11
VHG,SS,
p804
sg13
VSurf
p805
sg15
V30
p806
sg17
V40
p807
sg18
V9
p808
sbag1
(g2
g3
Ntp809
Rp810
(dp811
g7
V061
p812
sg9
VPoliwhirl
p813
sg11
VHG,SS,
p814
sg13
VSurf
p815
sg15
V30
p816
sg17
V48
p817
sg18
V91
p818
sbag1
(g2
g3
Ntp819
Rp820
(dp821
g7
V060
p822
sg9
VPoliwag
p823
sg11
VHG,SS,
p824
sg13
VFish Old
p825
sg15
V10
p826
sg17
g826
sg18
V15
p827
sbag1
(g2
g3
Ntp828
Rp829
(dp830
g7
V129
p831
sg9
VMagikarp
p832
sg11
VHG,SS,
p833
sg13
VFish Old
p834
sg15
V10
p835
sg17
g835
sg18
V85
p836
sbag1
(g2
g3
Ntp837
Rp838
(dp839
g7
V060
p840
sg9
VPoliwag
p841
sg11
VHG,SS,
p842
sg13
VFish Good
p843
sg15
V20
p844
sg17
g844
sg18
V60
p845
sbag1
(g2
g3
Ntp846
Rp847
(dp848
g7
V129
p849
sg9
VMagikarp
p850
sg11
VHG,SS,
p851
sg13
VFish Good
p852
sg15
V20
p853
sg17
g853
sg18
V40
p854
sbag1
(g2
g3
Ntp855
Rp856
(dp857
g7
V060
p858
sg9
VPoliwag
p859
sg11
VHG,SS,
p860
sg13
VFish Super
p861
sg15
V40
p862
sg17
g862
sg18
V80
p863
sbag1
(g2
g3
Ntp864
Rp865
(dp866
g7
V129
p867
sg9
VMagikarp
p868
sg11
VHG,SS,
p869
sg13
VFish Super
p870
sg15
V40
p871
sg17
g871
sg18
V20
p872
sbag1
(g2
g3
Ntp873
Rp874
(dp875
g7
V177
p876
sg9
VNatu
p877
sg11
VHG,SS,
p878
sg13
VHeadbutt
p879
sg15
V39
p880
sg17
V44
p881
sg18
V10
p882
sbag1
(g2
g3
Ntp883
Rp884
(dp885
g7
V190
p886
sg9
VAipom
p887
sg11
VHG,SS,
p888
sg13
VHeadbutt
p889
sg15
V39
p890
sg17
V44
p891
sg18
V30
p892
sbag1
(g2
g3
Ntp893
Rp894
(dp895
g7
V214
p896
sg9
VHeracross
p897
sg11
VHG,SS,
p898
sg13
VHeadbutt
p899
sg15
V39
p900
sg17
V44
p901
sg18
V60
p902
sbag1
(g2
g3
Ntp903
Rp904
(dp905
g7
V264
p906
sg9
VLinoone
p907
sg11
VHG,SS,
p908
sg13
VHoenn
p909
sg15
V42
p910
sg17
g910
sg18
V20
p911
sbag1
(g2
g3
Ntp912
Rp913
(dp914
g7
V293
p915
sg9
VWhismur
p916
sg11
VHG,SS,
p917
sg13
VHoenn
p918
sg15
V41
p919
sg17
V42
p920
sg18
V20
p921
sbag1
(g2
g3
Ntp922
Rp923
(dp924
g7
V399
p925
sg9
VBidoof
p926
sg11
VHG,SS,
p927
sg13
VSinnoh
p928
sg15
V42
p929
sg17
g929
sg18
V20
p930
sbag1
(g2
g3
Ntp931
Rp932
(dp933
g7
V418
p934
sg9
VBuizel
p935
sg11
VHG,SS,
p936
sg13
VSinnoh
p937
sg15
V41
p938
sg17
V42
p939
sg18
V20
p940
sbag1
(g2
g3
Ntp941
Rp942
(dp943
g7
V042
p944
sg9
VGolbat
p945
sg11
VHG,SS,
p946
sg13
VCave
p947
sg15
V45
p948
sg17
g948
sg18
V5
p949
sbag1
(g2
g3
Ntp950
Rp951
(dp952
g7
V075
p953
sg9
VGraveler
p954
sg11
VHG,SS,
p955
sg13
VCave
p956
sg15
V41
p957
sg17
V43
p958
sg18
V20
p959
sbag1
(g2
g3
Ntp960
Rp961
(dp962
g7
V095
p963
sg9
VOnix
p964
sg11
VHG,SS,
p965
sg13
VCave
p966
sg15
V42
p967
sg17
g967
sg18
V30
p968
sbag1
(g2
g3
Ntp969
Rp970
(dp971
g7
V216
p972
sg9
VTeddiursa
p973
sg11
g786
sg13
VCave
p974
sg15
V43
p975
sg17
g975
sg18
V10
p976
sbag1
(g2
g3
Ntp977
Rp978
(dp979
g7
V217
p980
sg9
VUrsaring
p981
sg11
g786
sg13
VCave
p982
sg15
V44
p983
sg17
g983
sg18
V30
p984
sbag1
(g2
g3
Ntp985
Rp986
(dp987
g7
V231
p988
sg9
VPhanpy
p989
sg11
g795
sg13
VCave
p990
sg15
V43
p991
sg17
g991
sg18
V10
p992
sbag1
(g2
g3
Ntp993
Rp994
(dp995
g7
V232
p996
sg9
VDonphan
p997
sg11
g795
sg13
VCave
p998
sg15
V44
p999
sg17
g999
sg18
V30
p1000
sbag1
(g2
g3
Ntp1001
Rp1002
(dp1003
g7
V246
p1004
sg9
VLarvitar
p1005
sg11
VHG,SS,
p1006
sg13
VCave
p1007
sg15
V15
p1008
sg17
V20
p1009
sg18
V5
p1010
sbag1
(g2
g3
Ntp1011
Rp1012
(dp1013
g7
V296
p1014
sg9
VMakuhita
p1015
sg11
VHG,SS,
p1016
sg13
VHoenn
p1017
sg15
V43
p1018
sg17
g1018
sg18
V20
p1019
sbag1
(g2
g3
Ntp1020
Rp1021
(dp1022
g7
V359
p1023
sg9
VAbsol
p1024
sg11
VHG,SS,
p1025
sg13
VHoenn
p1026
sg15
V42
p1027
sg17
V44
p1028
sg18
V20
p1029
sbag1
(g2
g3
Ntp1030
Rp1031
(dp1032
g7
V433
p1033
sg9
VChingling
p1034
sg11
VHG,SS,
p1035
sg13
VSinnoh
p1036
sg15
V43
p1037
sg17
g1037
sg18
V20
p1038
sbag1
(g2
g3
Ntp1039
Rp1040
(dp1041
g7
V436
p1042
sg9
VBronzor
p1043
sg11
VHG,SS,
p1044
sg13
VSinnoh
p1045
sg15
V42
p1046
sg17
V44
p1047
sg18
V20
p1048
sbag1
(g2
g3
Ntp1049
Rp1050
(dp1051
g7
V118
p1052
sg9
VGoldeen
p1053
sg11
VHG,SS,
p1054
sg13
VSurf
p1055
sg15
V30
p1056
sg17
V40
p1057
sg18
V9
p1058
sbag1
(g2
g3
Ntp1059
Rp1060
(dp1061
g7
V119
p1062
sg9
VSeaking
p1063
sg11
VHG,SS,
p1064
sg13
VSurf
p1065
sg15
V30
p1066
sg17
V50
p1067
sg18
V91
p1068
sbag1
(g2
g3
Ntp1069
Rp1070
(dp1071
g7
V118
p1072
sg9
VGoldeen
p1073
sg11
VHG,SS,
p1074
sg13
VFish Old
p1075
sg15
V10
p1076
sg17
g1076
sg18
V15
p1077
sbag1
(g2
g3
Ntp1078
Rp1079
(dp1080
g7
V129
p1081
sg9
VMagikarp
p1082
sg11
VHG,SS,
p1083
sg13
VFish Old
p1084
sg15
V10
p1085
sg17
g1085
sg18
V85
p1086
sbag1
(g2
g3
Ntp1087
Rp1088
(dp1089
g7
V118
p1090
sg9
VGoldeen
p1091
sg11
VHG,SS,
p1092
sg13
VFish Good
p1093
sg15
V20
p1094
sg17
g1094
sg18
V30
p1095
sbag1
(g2
g3
Ntp1096
Rp1097
(dp1098
g7
V119
p1099
sg9
VSeaking
p1100
sg11
VHG,SS,
p1101
sg13
VFish Good
p1102
sg15
V20
p1103
sg17
g1103
sg18
V20
p1104
sbag1
(g2
g3
Ntp1105
Rp1106
(dp1107
g7
V129
p1108
sg9
VMagikarp
p1109
sg11
VHG,SS,
p1110
sg13
VFish Good
p1111
sg15
V20
p1112
sg17
g1112
sg18
V50
p1113
sbag1
(g2
g3
Ntp1114
Rp1115
(dp1116
g7
V130
p1117
sg9
VGyarados
p1118
sg11
VHG,SS,
p1119
sg13
VFish Good
p1120
sg15
V20
p1121
sg17
g1121
sg18
V10
p1122
sbag1
(g2
g3
Ntp1123
Rp1124
(dp1125
g7
V119
p1126
sg9
VSeaking
p1127
sg11
VHG,SS,
p1128
sg13
VFish Super
p1129
sg15
V40
p1130
sg17
g1130
sg18
V50
p1131
sbag1
(g2
g3
Ntp1132
Rp1133
(dp1134
g7
V130
p1135
sg9
VGyarados
p1136
sg11
VHG,SS,
p1137
sg13
VFish Super
p1138
sg15
V40
p1139
sg17
g1139
sg18
V80
p1140
sbag1
(g2
g3
Ntp1141
Rp1142
(dp1143
g7
V042
p1144
sg9
VGolbat
p1145
sg11
VHG,SS,
p1146
sg13
VCave
p1147
sg15
V48
p1148
sg17
g1148
sg18
V5
p1149
sbag1
(g2
g3
Ntp1150
Rp1151
(dp1152
g7
V055
p1153
sg9
VGolduck
p1154
sg11
VHG,SS,
p1155
sg13
VCave
p1156
sg15
V48
p1157
sg17
g1157
sg18
V20
p1158
sbag1
(g2
g3
Ntp1159
Rp1160
(dp1161
g7
V195
p1162
sg9
VQuagsire
p1163
sg11
VHG,SS,
p1164
sg13
VCave
p1165
sg15
V45
p1166
sg17
g1166
sg18
V35
p1167
sbag1
(g2
g3
Ntp1168
Rp1169
(dp1170
g7
V200
p1171
sg9
VMisdreavus
p1172
sg11
VHG,SS,
p1173
sg13
VCave
p1174
sg15
V45
p1175
sg17
g1175
sg18
V30
p1176
sbag1
(g2
g3
Ntp1177
Rp1178
(dp1179
g7
V216
p1180
sg9
VTeddiursa
p1181
sg11
g786
sg13
VCave
p1182
sg15
V46
p1183
sg17
g1183
sg18
V10
p1184
sbag1
(g2
g3
Ntp1185
Rp1186
(dp1187
g7
V217
p1188
sg9
VUrsaring
p1189
sg11
g786
sg13
VCave
p1190
sg15
V47
p1191
sg17
V48
p1192
sg18
V20
p1193
sbag1
(g2
g3
Ntp1194
Rp1195
(dp1196
g7
V231
p1197
sg9
VPhanpy
p1198
sg11
g795
sg13
VCave
p1199
sg15
V46
p1200
sg17
g1200
sg18
V10
p1201
sbag1
(g2
g3
Ntp1202
Rp1203
(dp1204
g7
V232
p1205
sg9
VDonphan
p1206
sg11
g795
sg13
VCave
p1207
sg15
V47
p1208
sg17
V48
p1209
sg18
V20
p1210
sbag1
(g2
g3
Ntp1211
Rp1212
(dp1213
g7
V246
p1214
sg9
VLarvitar
p1215
sg11
VHG,SS,
p1216
sg13
VCave
p1217
sg15
V15
p1218
sg17
V20
p1219
sg18
V5
p1220
sbag1
(g2
g3
Ntp1221
Rp1222
(dp1223
g7
V247
p1224
sg9
VPupitar
p1225
sg11
g795
sg13
VCave
p1226
sg15
V45
p1227
sg17
g1227
sg18
V5
p1228
sbag1
(g2
g3
Ntp1229
Rp1230
(dp1231
g7
V247
p1232
sg9
VPupitar
p1233
sg11
g786
sg13
VCave
p1234
sg15
V30
p1235
sg17
g1235
sg18
V5
p1236
sbag1
(g2
g3
Ntp1237
Rp1238
(dp1239
g7
V296
p1240
sg9
VMakuhita
p1241
sg11
VHG,SS,
p1242
sg13
VHoenn
p1243
sg15
V48
p1244
sg17
V50
p1245
sg18
V20
p1246
sbag1
(g2
g3
Ntp1247
Rp1248
(dp1249
g7
V359
p1250
sg9
VAbsol
p1251
sg11
VHG,SS,
p1252
sg13
VHoenn
p1253
sg15
V46
p1254
sg17
V48
p1255
sg18
V20
p1256
sbag1
(g2
g3
Ntp1257
Rp1258
(dp1259
g7
V433
p1260
sg9
VChingling
p1261
sg11
VHG,SS,
p1262
sg13
VSinnoh
p1263
sg15
V48
p1264
sg17
V50
p1265
sg18
V20
p1266
sbag1
(g2
g3
Ntp1267
Rp1268
(dp1269
g7
V436
p1270
sg9
VBronzor
p1271
sg11
VHG,SS,
p1272
sg13
VSinnoh
p1273
sg15
V46
p1274
sg17
V48
p1275
sg18
V20
p1276
sbag1
(g2
g3
Ntp1277
Rp1278
(dp1279
g7
V042
p1280
sg9
VGolbat
p1281
sg11
VHG,SS,
p1282
sg13
VCave
p1283
sg15
V48
p1284
sg17
g1284
sg18
V5
p1285
sbag1
(g2
g3
Ntp1286
Rp1287
(dp1288
g7
V055
p1289
sg9
VGolduck
p1290
sg11
VHG,SS,
p1291
sg13
VCave
p1292
sg15
V48
p1293
sg17
g1293
sg18
V10
p1294
sbag1
(g2
g3
Ntp1295
Rp1296
(dp1297
g7
V195
p1298
sg9
VQuagsire
p1299
sg11
VHG,SS,
p1300
sg13
VCave
p1301
sg15
V45
p1302
sg17
g1302
sg18
V40
p1303
sbag1
(g2
g3
Ntp1304
Rp1305
(dp1306
g7
V200
p1307
sg9
VMisdreavus
p1308
sg11
VHG,SS,
p1309
sg13
VCave
p1310
sg15
V45
p1311
sg17
g1311
sg18
V10
p1312
sbag1
(g2
g3
Ntp1313
Rp1314
(dp1315
g7
V208
p1316
sg9
VSteelix
p1317
sg11
VHG,SS,
p1318
sg13
VCave
p1319
sg15
V48
p1320
sg17
g1320
sg18
V20
p1321
sbag1
(g2
g3
Ntp1322
Rp1323
(dp1324
g7
V217
p1325
sg9
VUrsaring
p1326
sg11
g786
sg13
VCave
p1327
sg15
V47
p1328
sg17
V48
p1329
sg18
V20
p1330
sbag1
(g2
g3
Ntp1331
Rp1332
(dp1333
g7
V232
p1334
sg9
VDonphan
p1335
sg11
g795
sg13
VCave
p1336
sg15
V47
p1337
sg17
V48
p1338
sg18
V20
p1339
sbag1
(g2
g3
Ntp1340
Rp1341
(dp1342
g7
V246
p1343
sg9
VLarvitar
p1344
sg11
VHG,SS,
p1345
sg13
VCave
p1346
sg15
V15
p1347
sg17
V20
p1348
sg18
V5
p1349
sbag1
(g2
g3
Ntp1350
Rp1351
(dp1352
g7
V296
p1353
sg9
VMakuhita
p1354
sg11
VHG,SS,
p1355
sg13
VHoenn
p1356
sg15
V47
p1357
sg17
V48
p1358
sg18
V20
p1359
sbag1
(g2
g3
Ntp1360
Rp1361
(dp1362
g7
V359
p1363
sg9
VAbsol
p1364
sg11
VHG,SS,
p1365
sg13
VHoenn
p1366
sg15
V45
p1367
sg17
V48
p1368
sg18
V20
p1369
sbag1
(g2
g3
Ntp1370
Rp1371
(dp1372
g7
V433
p1373
sg9
VChingling
p1374
sg11
VHG,SS,
p1375
sg13
VSinnoh
p1376
sg15
V47
p1377
sg17
V48
p1378
sg18
V20
p1379
sbag1
(g2
g3
Ntp1380
Rp1381
(dp1382
g7
V436
p1383
sg9
VBronzor
p1384
sg11
VHG,SS,
p1385
sg13
VSinnoh
p1386
sg15
V45
p1387
sg17
V48
p1388
sg18
V20
p1389
sbag1
(g2
g3
Ntp1390
Rp1391
(dp1392
g7
V146
p1393
sg9
VMoltres
p1394
sg11
VHG,SS,
p1395
sg13
VSpecial
p1396
sg15
V50
p1397
sg17
g1397
sg18
V0
p1398
sbag1
(g2
g3
Ntp1399
Rp1400
(dp1401
g7
V042
p1402
sg9
VGolbat
p1403
sg11
VHG,SS,
p1404
sg13
VGrass
p1405
sg15
V48
p1406
sg17
V51
p1407
sg18
V40
p1408
sbag1
(g2
g3
Ntp1409
Rp1410
(dp1411
g7
V055
p1412
sg9
VGolduck
p1413
sg11
VHG,SS,
p1414
sg13
VGrass
p1415
sg15
V51
p1416
sg17
g1416
sg18
V5
p1417
sbag1
(g2
g3
Ntp1418
Rp1419
(dp1420
g7
V095
p1421
sg9
VOnix
p1422
sg11
VHG,SS,
p1423
sg13
VGrass
p1424
sg15
V48
p1425
sg17
g1425
sg18
V30
p1426
sbag1
(g2
g3
Ntp1427
Rp1428
(dp1429
g7
V216
p1430
sg9
VTeddiursa
p1431
sg11
g786
sg13
VGrass
p1432
sg15
V48
p1433
sg17
g1433
sg18
V10
p1434
sbag1
(g2
g3
Ntp1435
Rp1436
(dp1437
g7
V217
p1438
sg9
VUrsaring
p1439
sg11
g786
sg13
VGrass
p1440
sg15
V50
p1441
sg17
g1441
sg18
V10
p1442
sbag1
(g2
g3
Ntp1443
Rp1444
(dp1445
g7
V231
p1446
sg9
VPhanpy
p1447
sg11
g795
sg13
VGrass
p1448
sg15
V48
p1449
sg17
g1449
sg18
V10
p1450
sbag1
(g2
g3
Ntp1451
Rp1452
(dp1453
g7
V232
p1454
sg9
VDonphan
p1455
sg11
g795
sg13
VGrass
p1456
sg15
V50
p1457
sg17
g1457
sg18
V10
p1458
sbag1
(g2
g3
Ntp1459
Rp1460
(dp1461
g7
V246
p1462
sg9
VLarvitar
p1463
sg11
VHG,SS,
p1464
sg13
VGrass
p1465
sg15
V15
p1466
sg17
V20
p1467
sg18
V5
p1468
sbag1
(g2
g3
Ntp1469
Rp1470
(dp1471
g7
V296
p1472
sg9
VMakuhita
p1473
sg11
VHG,SS,
p1474
sg13
VHoenn
p1475
sg15
V48
p1476
sg17
g1476
sg18
V20
p1477
sbag1
(g2
g3
Ntp1478
Rp1479
(dp1480
g7
V359
p1481
sg9
VAbsol
p1482
sg11
VHG,SS,
p1483
sg13
VHoenn
p1484
sg15
V48
p1485
sg17
V51
p1486
sg18
V20
p1487
sbag1
(g2
g3
Ntp1488
Rp1489
(dp1490
g7
V433
p1491
sg9
VChingling
p1492
sg11
VHG,SS,
p1493
sg13
VSinnoh
p1494
sg15
V48
p1495
sg17
g1495
sg18
V20
p1496
sbag1
(g2
g3
Ntp1497
Rp1498
(dp1499
g7
V436
p1500
sg9
VBronzor
p1501
sg11
VHG,SS,
p1502
sg13
VSinnoh
p1503
sg15
V48
p1504
sg17
V51
p1505
sg18
V20
p1506
sbag1
(g2
g3
Ntp1507
Rp1508
(dp1509
g7
V177
p1510
sg9
VNatu
p1511
sg11
VHG,SS,
p1512
sg13
VHeadbutt
p1513
sg15
V40
p1514
sg17
V44
p1515
sg18
V10
p1516
sbag1
(g2
g3
Ntp1517
Rp1518
(dp1519
g7
V190
p1520
sg9
VAipom
p1521
sg11
VHG,SS,
p1522
sg13
VHeadbutt
p1523
sg15
V39
p1524
sg17
V44
p1525
sg18
V30
p1526
sbag1
(g2
g3
Ntp1527
Rp1528
(dp1529
g7
V214
p1530
sg9
VHeracross
p1531
sg11
VHG,SS,
p1532
sg13
VHeadbutt
p1533
sg15
V39
p1534
sg17
V44
p1535
sg18
V60
p1536
sbag1
(g2
g3
Ntp1537
Rp1538
(dp1539
g7
V042
p1540
sg9
VGolbat
p1541
sg11
VHG,SS,
p1542
sg13
VCave
p1543
sg15
V48
p1544
sg17
g1544
sg18
V5
p1545
sbag1
(g2
g3
Ntp1546
Rp1547
(dp1548
g7
V055
p1549
sg9
VGolduck
p1550
sg11
VHG,SS,
p1551
sg13
VCave
p1552
sg15
V48
p1553
sg17
g1553
sg18
V10
p1554
sbag1
(g2
g3
Ntp1555
Rp1556
(dp1557
g7
V195
p1558
sg9
VQuagsire
p1559
sg11
VHG,SS,
p1560
sg13
VCave
p1561
sg15
V45
p1562
sg17
g1562
sg18
V30
p1563
sbag1
(g2
g3
Ntp1564
Rp1565
(dp1566
g7
V200
p1567
sg9
VMisdreavus
p1568
sg11
VHG,SS,
p1569
sg13
VCave
p1570
sg15
V45
p1571
sg17
g1571
sg18
V10
p1572
sbag1
(g2
g3
Ntp1573
Rp1574
(dp1575
g7
V215
p1576
sg9
VSneasel
p1577
sg11
VHG,SS,
p1578
sg13
VCave
p1579
sg15
V48
p1580
sg17
g1580
sg18
V20
p1581
sbag1
(g2
g3
Ntp1582
Rp1583
(dp1584
g7
V216
p1585
sg9
VTeddiursa
p1586
sg11
g786
sg13
VCave
p1587
sg15
V46
p1588
sg17
g1588
sg18
V10
p1589
sbag1
(g2
g3
Ntp1590
Rp1591
(dp1592
g7
V217
p1593
sg9
VUrsaring
p1594
sg11
g786
sg13
VCave
p1595
sg15
V48
p1596
sg17
V50
p1597
sg18
V20
p1598
sbag1
(g2
g3
Ntp1599
Rp1600
(dp1601
g7
V231
p1602
sg9
VPhanpy
p1603
sg11
g795
sg13
VCave
p1604
sg15
V46
p1605
sg17
g1605
sg18
V10
p1606
sbag1
(g2
g3
Ntp1607
Rp1608
(dp1609
g7
V232
p1610
sg9
VDonphan
p1611
sg11
g795
sg13
VCave
p1612
sg15
V48
p1613
sg17
V50
p1614
sg18
V20
p1615
sbag1
(g2
g3
Ntp1616
Rp1617
(dp1618
g7
V246
p1619
sg9
VLarvitar
p1620
sg11
VHG,SS,
p1621
sg13
VCave
p1622
sg15
V15
p1623
sg17
V20
p1624
sg18
V5
p1625
sbag1
(g2
g3
Ntp1626
Rp1627
(dp1628
g7
V296
p1629
sg9
VMakuhita
p1630
sg11
VHG,SS,
p1631
sg13
VHoenn
p1632
sg15
V48
p1633
sg17
V50
p1634
sg18
V20
p1635
sbag1
(g2
g3
Ntp1636
Rp1637
(dp1638
g7
V359
p1639
sg9
VAbsol
p1640
sg11
VHG,SS,
p1641
sg13
VHoenn
p1642
sg15
V46
p1643
sg17
V48
p1644
sg18
V20
p1645
sbag1
(g2
g3
Ntp1646
Rp1647
(dp1648
g7
V433
p1649
sg9
VChingling
p1650
sg11
VHG,SS,
p1651
sg13
VSinnoh
p1652
sg15
V48
p1653
sg17
V50
p1654
sg18
V20
p1655
sbag1
(g2
g3
Ntp1656
Rp1657
(dp1658
g7
V436
p1659
sg9
VBronzor
p1660
sg11
VHG,SS,
p1661
sg13
VSinnoh
p1662
sg15
V46
p1663
sg17
V48
p1664
sg18
V20
p1665
sbag1
(g2
g3
Ntp1666
Rp1667
(dp1668
g7
V042
p1669
sg9
VGolbat
p1670
sg11
VHG,SS,
p1671
sg13
VGrass
p1672
sg15
V48
p1673
sg17
g1673
sg18
V5
p1674
sbag1
(g2
g3
Ntp1675
Rp1676
(dp1677
g7
V055
p1678
sg9
VGolduck
p1679
sg11
VHG,SS,
p1680
sg13
VGrass
p1681
sg15
V48
p1682
sg17
g1682
sg18
V30
p1683
sbag1
(g2
g3
Ntp1684
Rp1685
(dp1686
g7
V195
p1687
sg9
VQuagsire
p1688
sg11
VHG,SS,
p1689
sg13
VGrass
p1690
sg15
V45
p1691
sg17
g1691
sg18
V15
p1692
sbag1
(g2
g3
Ntp1693
Rp1694
(dp1695
g7
V200
p1696
sg9
VMisdreavus
p1697
sg11
VHG,SS,
p1698
sg13
VGrass
p1699
sg15
V45
p1700
sg17
V48
p1701
sg18
V15
p1702
sbag1
(g2
g3
Ntp1703
Rp1704
(dp1705
g7
V215
p1706
sg9
VSneasel
p1707
sg11
VHG,SS,
p1708
sg13
VGrass
p1709
sg15
V45
p1710
sg17
g1710
sg18
V20
p1711
sbag1
(g2
g3
Ntp1712
Rp1713
(dp1714
g7
V217
p1715
sg9
VUrsaring
p1716
sg11
g786
sg13
VGrass
p1717
sg15
V47
p1718
sg17
g1718
sg18
V20
p1719
sbag1
(g2
g3
Ntp1720
Rp1721
(dp1722
g7
V232
p1723
sg9
VDonphan
p1724
sg11
g795
sg13
VGrass
p1725
sg15
V47
p1726
sg17
g1726
sg18
V20
p1727
sbag1
(g2
g3
Ntp1728
Rp1729
(dp1730
g7
V246
p1731
sg9
VLarvitar
p1732
sg11
VHG,SS,
p1733
sg13
VGrass
p1734
sg15
V15
p1735
sg17
V30
p1736
sg18
V10
p1737
sbag1
(g2
g3
Ntp1738
Rp1739
(dp1740
g7
V296
p1741
sg9
VMakuhita
p1742
sg11
VHG,SS,
p1743
sg13
VHoenn
p1744
sg15
V47
p1745
sg17
g1745
sg18
V20
p1746
sbag1
(g2
g3
Ntp1747
Rp1748
(dp1749
g7
V359
p1750
sg9
VAbsol
p1751
sg11
VHG,SS,
p1752
sg13
VHoenn
p1753
sg15
V45
p1754
sg17
V48
p1755
sg18
V20
p1756
sbag1
(g2
g3
Ntp1757
Rp1758
(dp1759
g7
V433
p1760
sg9
VChingling
p1761
sg11
VHG,SS,
p1762
sg13
VSinnoh
p1763
sg15
V47
p1764
sg17
g1764
sg18
V20
p1765
sbag1
(g2
g3
Ntp1766
Rp1767
(dp1768
g7
V436
p1769
sg9
VBronzor
p1770
sg11
VHG,SS,
p1771
sg13
VSinnoh
p1772
sg15
V45
p1773
sg17
V48
p1774
sg18
V20
p1775
sbag1
(g2
g3
Ntp1776
Rp1777
(dp1778
g7
V042
p1779
sg9
VGolbat
p1780
sg11
VHG,SS,
p1781
sg13
VCave
p1782
sg15
V48
p1783
sg17
g1783
sg18
V5
p1784
sbag1
(g2
g3
Ntp1785
Rp1786
(dp1787
g7
V055
p1788
sg9
VGolduck
p1789
sg11
VHG,SS,
p1790
sg13
VCave
p1791
sg15
V48
p1792
sg17
g1792
sg18
V30
p1793
sbag1
(g2
g3
Ntp1794
Rp1795
(dp1796
g7
V195
p1797
sg9
VQuagsire
p1798
sg11
VHG,SS,
p1799
sg13
VCave
p1800
sg15
V45
p1801
sg17
g1801
sg18
V20
p1802
sbag1
(g2
g3
Ntp1803
Rp1804
(dp1805
g7
V200
p1806
sg9
VMisdreavus
p1807
sg11
VHG,SS,
p1808
sg13
VCave
p1809
sg15
V45
p1810
sg17
g1810
sg18
V10
p1811
sbag1
(g2
g3
Ntp1812
Rp1813
(dp1814
g7
V215
p1815
sg9
VSneasel
p1816
sg11
VHG,SS,
p1817
sg13
VCave
p1818
sg15
V50
p1819
sg17
g1819
sg18
V20
p1820
sbag1
(g2
g3
Ntp1821
Rp1822
(dp1823
g7
V217
p1824
sg9
VUrsaring
p1825
sg11
g786
sg13
VCave
p1826
sg15
V47
p1827
sg17
g1827
sg18
V20
p1828
sbag1
(g2
g3
Ntp1829
Rp1830
(dp1831
g7
V232
p1832
sg9
VDonphan
p1833
sg11
g795
sg13
VCave
p1834
sg15
V47
p1835
sg17
g1835
sg18
V20
p1836
sbag1
(g2
g3
Ntp1837
Rp1838
(dp1839
g7
V246
p1840
sg9
VLarvitar
p1841
sg11
VHG,SS,
p1842
sg13
VCave
p1843
sg15
V15
p1844
sg17
V20
p1845
sg18
V5
p1846
sbag1
(g2
g3
Ntp1847
Rp1848
(dp1849
g7
V296
p1850
sg9
VMakuhita
p1851
sg11
VHG,SS,
p1852
sg13
VHoenn
p1853
sg15
V47
p1854
sg17
g1854
sg18
V20
p1855
sbag1
(g2
g3
Ntp1856
Rp1857
(dp1858
g7
V359
p1859
sg9
VAbsol
p1860
sg11
VHG,SS,
p1861
sg13
VHoenn
p1862
sg15
V45
p1863
sg17
V48
p1864
sg18
V20
p1865
sbag1
(g2
g3
Ntp1866
Rp1867
(dp1868
g7
V433
p1869
sg9
VChingling
p1870
sg11
VHG,SS,
p1871
sg13
VSinnoh
p1872
sg15
V47
p1873
sg17
g1873
sg18
V20
p1874
sbag1
(g2
g3
Ntp1875
Rp1876
(dp1877
g7
V436
p1878
sg9
VBronzor
p1879
sg11
VHG,SS,
p1880
sg13
VSinnoh
p1881
sg15
V45
p1882
sg17
V48
p1883
sg18
V20
p1884
sba.