(lp0
ccopy_reg
_reconstructor
p1
(c__main__
WildPokemon
p2
c__builtin__
object
p3
Ntp4
Rp5
(dp6
VpDexNo
p7
V019
p8
sVpSpecies
p9
VRattata
p10
sVpGames
p11
VG,S,
p12
sVpArea
p13
VCave
p14
sVpMinLevel
p15
V14
p16
sVpMaxLevel
p17
V16
p18
sVpRate
p19
V14
p20
sbag1
(g2
g3
Ntp21
Rp22
(dp23
g7
V019
p24
sg9
VRattata
p25
sg11
VC,
p26
sg13
VCave
p27
sg15
V14
p28
sg17
g28
sg19
V30
p29
sbag1
(g2
g3
Ntp30
Rp31
(dp32
g7
V020
p33
sg9
VRaticate
p34
sg11
g26
sg13
VCave
p35
sg15
V16
p36
sg17
g36
sg19
V5
p37
sbag1
(g2
g3
Ntp38
Rp39
(dp40
g7
V041
p41
sg9
VZubat
p42
sg11
VG,S,
p43
sg13
VCave
p44
sg15
V13
p45
sg17
V15
p46
sg19
V60
p47
sbag1
(g2
g3
Ntp48
Rp49
(dp50
g7
V041
p51
sg9
VZubat
p52
sg11
g26
sg13
VCave
p53
sg15
V13
p54
sg17
g54
sg19
V30
p55
sbag1
(g2
g3
Ntp56
Rp57
(dp58
g7
V042
p59
sg9
VGolbat
p60
sg11
g26
sg13
VCave
p61
sg15
V13
p62
sg17
g62
sg19
V10
p63
sbag1
(g2
g3
Ntp64
Rp65
(dp66
g7
V066
p67
sg9
VMachop
p68
sg11
VG,S,
p69
sg13
VCave
p70
sg15
V14
p71
sg17
g71
sg19
V20
p72
sbag1
(g2
g3
Ntp73
Rp74
(dp75
g7
V066
p76
sg9
VMachop
p77
sg11
g26
sg13
VCave
p78
sg15
V14
p79
sg17
g79
sg19
V20
p80
sbag1
(g2
g3
Ntp81
Rp82
(dp83
g7
V074
p84
sg9
VGeodude
p85
sg11
VG,S,C,
p86
sg13
VCave
p87
sg15
V14
p88
sg17
g88
sg19
V5
p89
sbag1
(g2
g3
Ntp90
Rp91
(dp92
g7
V183
p93
sg9
VMarill
p94
sg11
VG,S,
p95
sg13
VCave
p96
sg15
V15
p97
sg17
g97
sg19
V1
p98
sbag1
(g2
g3
Ntp99
Rp100
(dp101
g7
V183
p102
sg9
VMarill
p103
sg11
g26
sg13
VCave
p104
sg15
V14
p105
sg17
g105
sg19
V20
p106
sbag1
(g2
g3
Ntp107
Rp108
(dp109
g7
V118
p110
sg9
VGoldeen
p111
sg11
VG,S,
p112
sg13
VSurf
p113
sg15
V15
p114
sg17
V24
p115
sg19
V90
p116
sbag1
(g2
g3
Ntp117
Rp118
(dp119
g7
V118
p120
sg9
VGoldeen
p121
sg11
g26
sg13
VSurf
p122
sg15
V15
p123
sg17
V19
p124
sg19
V60
p125
sbag1
(g2
g3
Ntp126
Rp127
(dp128
g7
V119
p129
sg9
VSeaking
p130
sg11
VG,S,C,
p131
sg13
VSurf
p132
sg15
V20
p133
sg17
V24
p134
sg19
V10
p135
sbag1
(g2
g3
Ntp136
Rp137
(dp138
g7
V183
p139
sg9
VMarill
p140
sg11
g26
sg13
VSurf
p141
sg15
V20
p142
sg17
V24
p143
sg19
V30
p144
sbag1
(g2
g3
Ntp145
Rp146
(dp147
g7
V118
p148
sg9
VGoldeen
p149
sg11
VG,S,C,
p150
sg13
VFish Old
p151
sg15
V10
p152
sg17
g152
sg19
V15
p153
sbag1
(g2
g3
Ntp154
Rp155
(dp156
g7
V129
p157
sg9
VMagikarp
p158
sg11
VG,S,C,
p159
sg13
VFish Old
p160
sg15
V10
p161
sg17
g161
sg19
V85
p162
sbag1
(g2
g3
Ntp163
Rp164
(dp165
g7
V118
p166
sg9
VGoldeen
p167
sg11
VG,S,C,
p168
sg13
VFish Good
p169
sg15
V20
p170
sg17
g170
sg19
V65
p171
sbag1
(g2
g3
Ntp172
Rp173
(dp174
g7
V129
p175
sg9
VMagikarp
p176
sg11
VG,S,C,
p177
sg13
VFish Good
p178
sg15
V20
p179
sg17
g179
sg19
V35
p180
sbag1
(g2
g3
Ntp181
Rp182
(dp183
g7
V118
p184
sg9
VGoldeen
p185
sg11
VG,S,C,
p186
sg13
VFish Super
p187
sg15
V40
p188
sg17
g188
sg19
V70
p189
sbag1
(g2
g3
Ntp190
Rp191
(dp192
g7
V119
p193
sg9
VSeaking
p194
sg11
VG,S,C,
p195
sg13
VFish Super
p196
sg15
V40
p197
sg17
g197
sg19
V10
p198
sbag1
(g2
g3
Ntp199
Rp200
(dp201
g7
V129
p202
sg9
VMagikarp
p203
sg11
VG,S,C,
p204
sg13
VFish Super
p205
sg15
V40
p206
sg17
g206
sg19
V20
p207
sbag1
(g2
g3
Ntp208
Rp209
(dp210
g7
V019
p211
sg9
VRattata
p212
sg11
VG,S,
p213
sg13
VSwarm
p214
sg15
V16
p215
sg17
g215
sg19
V5
p216
sbag1
(g2
g3
Ntp217
Rp218
(dp219
g7
V041
p220
sg9
VZubat
p221
sg11
VG,S,
p222
sg13
VSwarm
p223
sg15
V15
p224
sg17
g224
sg19
V30
p225
sbag1
(g2
g3
Ntp226
Rp227
(dp228
g7
V066
p229
sg9
VMachop
p230
sg11
VG,S,
p231
sg13
VSwarm
p232
sg15
V14
p233
sg17
g233
sg19
V20
p234
sbag1
(g2
g3
Ntp235
Rp236
(dp237
g7
V074
p238
sg9
VGeodude
p239
sg11
VG,S,
p240
sg13
VSwarm
p241
sg15
V14
p242
sg17
g242
sg19
V5
p243
sbag1
(g2
g3
Ntp244
Rp245
(dp246
g7
V183
p247
sg9
VMarill
p248
sg11
VG,S,
p249
sg13
VSwarm
p250
sg15
V13
p251
sg17
V15
p252
sg19
V40
p253
sbag1
(g2
g3
Ntp254
Rp255
(dp256
g7
V019
p257
sg9
VRattata
p258
sg11
VG,S,
p259
sg13
VCave
p260
sg15
V14
p261
sg17
g261
sg19
V10
p262
sbag1
(g2
g3
Ntp263
Rp264
(dp265
g7
V019
p266
sg9
VRattata
p267
sg11
g26
sg13
VCave
p268
sg15
V14
p269
sg17
g269
sg19
V30
p270
sbag1
(g2
g3
Ntp271
Rp272
(dp273
g7
V020
p274
sg9
VRaticate
p275
sg11
g26
sg13
VCave
p276
sg15
V14
p277
sg17
g277
sg19
V20
p278
sbag1
(g2
g3
Ntp279
Rp280
(dp281
g7
V041
p282
sg9
VZubat
p283
sg11
VG,S,
p284
sg13
VCave
p285
sg15
V14
p286
sg17
g286
sg19
V5
p287
sbag1
(g2
g3
Ntp288
Rp289
(dp290
g7
V041
p291
sg9
VZubat
p292
sg11
g26
sg13
VCave
p293
sg15
V15
p294
sg17
g294
sg19
V10
p295
sbag1
(g2
g3
Ntp296
Rp297
(dp298
g7
V042
p299
sg9
VGolbat
p300
sg11
g26
sg13
VCave
p301
sg15
V15
p302
sg17
g302
sg19
V5
p303
sbag1
(g2
g3
Ntp304
Rp305
(dp306
g7
V066
p307
sg9
VMachop
p308
sg11
VG,S,
p309
sg13
VCave
p310
sg15
V13
p311
sg17
V15
p312
sg19
V35
p313
sbag1
(g2
g3
Ntp314
Rp315
(dp316
g7
V066
p317
sg9
VMachop
p318
sg11
g26
sg13
VCave
p319
sg15
V15
p320
sg17
g320
sg19
V20
p321
sbag1
(g2
g3
Ntp322
Rp323
(dp324
g7
V074
p325
sg9
VGeodude
p326
sg11
VG,S,
p327
sg13
VCave
p328
sg15
V13
p329
sg17
V15
p330
sg19
V50
p331
sbag1
(g2
g3
Ntp332
Rp333
(dp334
g7
V074
p335
sg9
VGeodude
p336
sg11
g26
sg13
VCave
p337
sg15
V13
p338
sg17
g338
sg19
V30
p339
sbag1
(g2
g3
Ntp340
Rp341
(dp342
g7
V183
p343
sg9
VMarill
p344
sg11
g26
sg13
VCave
p345
sg15
V15
p346
sg17
g346
sg19
V5
p347
sbag1
(g2
g3
Ntp348
Rp349
(dp350
g7
V020
p351
sg9
VRaticate
p352
sg11
VG,S,
p353
sg13
VCave
p354
sg15
V30
p355
sg17
g355
sg19
V10
p356
sbag1
(g2
g3
Ntp357
Rp358
(dp359
g7
V020
p360
sg9
VRaticate
p361
sg11
g26
sg13
VCave
p362
sg15
V30
p363
sg17
g363
sg19
V20
p364
sbag1
(g2
g3
Ntp365
Rp366
(dp367
g7
V042
p368
sg9
VGolbat
p369
sg11
VG,S,
p370
sg13
VCave
p371
sg15
V30
p372
sg17
g372
sg19
V5
p373
sbag1
(g2
g3
Ntp374
Rp375
(dp376
g7
V042
p377
sg9
VGolbat
p378
sg11
g26
sg13
VCave
p379
sg15
V30
p380
sg17
g380
sg19
V15
p381
sbag1
(g2
g3
Ntp382
Rp383
(dp384
g7
V066
p385
sg9
VMachop
p386
sg11
VG,S,
p387
sg13
VCave
p388
sg15
V28
p389
sg17
g389
sg19
V5
p390
sbag1
(g2
g3
Ntp391
Rp392
(dp393
g7
V066
p394
sg9
VMachop
p395
sg11
g26
sg13
VCave
p396
sg15
V28
p397
sg17
g397
sg19
V5
p398
sbag1
(g2
g3
Ntp399
Rp400
(dp401
g7
V067
p402
sg9
VMachoke
p403
sg11
VG,S,
p404
sg13
VCave
p405
sg15
V32
p406
sg17
g406
sg19
V30
p407
sbag1
(g2
g3
Ntp408
Rp409
(dp410
g7
V067
p411
sg9
VMachoke
p412
sg11
g26
sg13
VCave
p413
sg15
V32
p414
sg17
g414
sg19
V30
p415
sbag1
(g2
g3
Ntp416
Rp417
(dp418
g7
V074
p419
sg9
VGeodude
p420
sg11
VG,S,
p421
sg13
VCave
p422
sg15
V31
p423
sg17
g423
sg19
V20
p424
sbag1
(g2
g3
Ntp425
Rp426
(dp427
g7
V074
p428
sg9
VGeodude
p429
sg11
g26
sg13
VCave
p430
sg15
V31
p431
sg17
g431
sg19
V30
p432
sbag1
(g2
g3
Ntp433
Rp434
(dp435
g7
V075
p436
sg9
VGraveler
p437
sg11
VG,S,C,
p438
sg13
VCave
p439
sg15
V31
p440
sg17
g440
sg19
V30
p441
sbag1
(g2
g3
Ntp442
Rp443
(dp444
g7
V183
p445
sg9
VMarill
p446
sg11
g26
sg13
VCave
p447
sg15
V28
p448
sg17
g448
sg19
V5
p449
sbag1
(g2
g3
Ntp450
Rp451
(dp452
g7
V118
p453
sg9
VGoldeen
p454
sg11
VG,S,
p455
sg13
VSurf
p456
sg15
V20
p457
sg17
V29
p458
sg19
V90
p459
sbag1
(g2
g3
Ntp460
Rp461
(dp462
g7
V118
p463
sg9
VGoldeen
p464
sg11
g26
sg13
VSurf
p465
sg15
V20
p466
sg17
V24
p467
sg19
V60
p468
sbag1
(g2
g3
Ntp469
Rp470
(dp471
g7
V119
p472
sg9
VSeaking
p473
sg11
VG,S,C,
p474
sg13
VSurf
p475
sg15
V25
p476
sg17
V29
p477
sg19
V10
p478
sbag1
(g2
g3
Ntp479
Rp480
(dp481
g7
V183
p482
sg9
VMarill
p483
sg11
g26
sg13
VSurf
p484
sg15
V25
p485
sg17
V29
p486
sg19
V30
p487
sbag1
(g2
g3
Ntp488
Rp489
(dp490
g7
V118
p491
sg9
VGoldeen
p492
sg11
VG,S,C,
p493
sg13
VFish Old
p494
sg15
V10
p495
sg17
g495
sg19
V15
p496
sbag1
(g2
g3
Ntp497
Rp498
(dp499
g7
V129
p500
sg9
VMagikarp
p501
sg11
VG,S,C,
p502
sg13
VFish Old
p503
sg15
V10
p504
sg17
g504
sg19
V85
p505
sbag1
(g2
g3
Ntp506
Rp507
(dp508
g7
V118
p509
sg9
VGoldeen
p510
sg11
VG,S,C,
p511
sg13
VFish Good
p512
sg15
V20
p513
sg17
g513
sg19
V65
p514
sbag1
(g2
g3
Ntp515
Rp516
(dp517
g7
V129
p518
sg9
VMagikarp
p519
sg11
VG,S,C,
p520
sg13
VFish Good
p521
sg15
V20
p522
sg17
g522
sg19
V35
p523
sbag1
(g2
g3
Ntp524
Rp525
(dp526
g7
V118
p527
sg9
VGoldeen
p528
sg11
VG,S,C,
p529
sg13
VFish Super
p530
sg15
V40
p531
sg17
g531
sg19
V70
p532
sbag1
(g2
g3
Ntp533
Rp534
(dp535
g7
V119
p536
sg9
VSeaking
p537
sg11
VG,S,C,
p538
sg13
VFish Super
p539
sg15
V40
p540
sg17
g540
sg19
V10
p541
sbag1
(g2
g3
Ntp542
Rp543
(dp544
g7
V129
p545
sg9
VMagikarp
p546
sg11
VG,S,C,
p547
sg13
VFish Super
p548
sg15
V40
p549
sg17
g549
sg19
V20
p550
sbag1
(g2
g3
Ntp551
Rp552
(dp553
g7
V019
p554
sg9
VRattata
p555
sg11
VG,S,
p556
sg13
VCave
p557
sg15
V16
p558
sg17
g558
sg19
V20
p559
sbag1
(g2
g3
Ntp560
Rp561
(dp562
g7
V020
p563
sg9
VRaticate
p564
sg11
VG,S,
p565
sg13
VCave
p566
sg15
V16
p567
sg17
g567
sg19
V5
p568
sbag1
(g2
g3
Ntp569
Rp570
(dp571
g7
V020
p572
sg9
VRaticate
p573
sg11
g26
sg13
VCave
p574
sg15
V18
p575
sg17
g575
sg19
V5
p576
sbag1
(g2
g3
Ntp577
Rp578
(dp579
g7
V041
p580
sg9
VZubat
p581
sg11
VG,S,C,
p582
sg13
VCave
p583
sg15
V15
p584
sg17
V17
p585
sg19
V60
p586
sbag1
(g2
g3
Ntp587
Rp588
(dp589
g7
V042
p590
sg9
VGolbat
p591
sg11
g26
sg13
VCave
p592
sg15
V17
p593
sg17
g593
sg19
V20
p594
sbag1
(g2
g3
Ntp595
Rp596
(dp597
g7
V066
p598
sg9
VMachop
p599
sg11
VG,S,
p600
sg13
VCave
p601
sg15
V16
p602
sg17
g602
sg19
V10
p603
sbag1
(g2
g3
Ntp604
Rp605
(dp606
g7
V066
p607
sg9
VMachop
p608
sg11
g26
sg13
VCave
p609
sg15
V16
p610
sg17
g610
sg19
V10
p611
sbag1
(g2
g3
Ntp612
Rp613
(dp614
g7
V074
p615
sg9
VGeodude
p616
sg11
VG,S,C,
p617
sg13
VCave
p618
sg15
V16
p619
sg17
g619
sg19
V5
p620
sbag1
(g2
g3
Ntp621
Rp622
(dp623
g7
V183
p624
sg9
VMarill
p625
sg11
g26
sg13
VCave
p626
sg15
V16
p627
sg17
g627
sg19
V10
p628
sbag1
(g2
g3
Ntp629
Rp630
(dp631
g7
V118
p632
sg9
VGoldeen
p633
sg11
VG,S,
p634
sg13
VSurf
p635
sg15
V15
p636
sg17
V24
p637
sg19
V90
p638
sbag1
(g2
g3
Ntp639
Rp640
(dp641
g7
V118
p642
sg9
VGoldeen
p643
sg11
g26
sg13
VSurf
p644
sg15
V15
p645
sg17
V19
p646
sg19
V60
p647
sbag1
(g2
g3
Ntp648
Rp649
(dp650
g7
V119
p651
sg9
VSeaking
p652
sg11
VG,S,C,
p653
sg13
VSurf
p654
sg15
V20
p655
sg17
V24
p656
sg19
V10
p657
sbag1
(g2
g3
Ntp658
Rp659
(dp660
g7
V183
p661
sg9
VMarill
p662
sg11
g26
sg13
VSurf
p663
sg15
V20
p664
sg17
V24
p665
sg19
V30
p666
sbag1
(g2
g3
Ntp667
Rp668
(dp669
g7
V118
p670
sg9
VGoldeen
p671
sg11
VG,S,C,
p672
sg13
VFish Old
p673
sg15
V10
p674
sg17
g674
sg19
V15
p675
sbag1
(g2
g3
Ntp676
Rp677
(dp678
g7
V129
p679
sg9
VMagikarp
p680
sg11
VG,S,C,
p681
sg13
VFish Old
p682
sg15
V10
p683
sg17
g683
sg19
V85
p684
sbag1
(g2
g3
Ntp685
Rp686
(dp687
g7
V118
p688
sg9
VGoldeen
p689
sg11
VG,S,C,
p690
sg13
VFish Good
p691
sg15
V20
p692
sg17
g692
sg19
V65
p693
sbag1
(g2
g3
Ntp694
Rp695
(dp696
g7
V129
p697
sg9
VMagikarp
p698
sg11
VG,S,C,
p699
sg13
VFish Good
p700
sg15
V20
p701
sg17
g701
sg19
V35
p702
sbag1
(g2
g3
Ntp703
Rp704
(dp705
g7
V118
p706
sg9
VGoldeen
p707
sg11
VG,S,C,
p708
sg13
VFish Super
p709
sg15
V40
p710
sg17
g710
sg19
V70
p711
sbag1
(g2
g3
Ntp712
Rp713
(dp714
g7
V119
p715
sg9
VSeaking
p716
sg11
VG,S,C,
p717
sg13
VFish Super
p718
sg15
V40
p719
sg17
g719
sg19
V10
p720
sbag1
(g2
g3
Ntp721
Rp722
(dp723
g7
V129
p724
sg9
VMagikarp
p725
sg11
VG,S,C,
p726
sg13
VFish Super
p727
sg15
V40
p728
sg17
g728
sg19
V20
p729
sbag1
(g2
g3
Ntp730
Rp731
(dp732
g7
V236
p733
sg9
VTyrogue
p734
sg11
VG,S,C,
p735
sg13
VGift
p736
sg15
V10
p737
sg17
g737
sg19
V0
p738
sbag1
(g2
g3
Ntp739
Rp740
(dp741
g7
V019
p742
sg9
VRattata
p743
sg11
VHG,SS,
p744
sg13
VCave
p745
sg15
V14
p746
sg17
V16
p747
sg19
V14
p748
sbag1
(g2
g3
Ntp749
Rp750
(dp751
g7
V041
p752
sg9
VZubat
p753
sg11
VHG,SS,
p754
sg13
VCave
p755
sg15
V13
p756
sg17
V15
p757
sg19
V60
p758
sbag1
(g2
g3
Ntp759
Rp760
(dp761
g7
V066
p762
sg9
VMachop
p763
sg11
VHG,SS,
p764
sg13
VCave
p765
sg15
V14
p766
sg17
g766
sg19
V20
p767
sbag1
(g2
g3
Ntp768
Rp769
(dp770
g7
V074
p771
sg9
VGeodude
p772
sg11
VHG,SS,
p773
sg13
VCave
p774
sg15
V14
p775
sg17
g775
sg19
V5
p776
sbag1
(g2
g3
Ntp777
Rp778
(dp779
g7
V183
p780
sg9
VMarill
p781
sg11
VHG,SS,
p782
sg13
VCave
p783
sg15
V15
p784
sg17
g784
sg19
V1
p785
sbag1
(g2
g3
Ntp786
Rp787
(dp788
g7
V118
p789
sg9
VGoldeen
p790
sg11
VHG,SS,
p791
sg13
VSurf
p792
sg15
V10
p793
sg17
V25
p794
sg19
V90
p795
sbag1
(g2
g3
Ntp796
Rp797
(dp798
g7
V119
p799
sg9
VSeaking
p800
sg11
VHG,SS,
p801
sg13
VSurf
p802
sg15
V15
p803
sg17
V25
p804
sg19
V10
p805
sbag1
(g2
g3
Ntp806
Rp807
(dp808
g7
V118
p809
sg9
VGoldeen
p810
sg11
VHG,SS,
p811
sg13
VFish Old
p812
sg15
V10
p813
sg17
g813
sg19
V15
p814
sbag1
(g2
g3
Ntp815
Rp816
(dp817
g7
V129
p818
sg9
VMagikarp
p819
sg11
VHG,SS,
p820
sg13
VFish Old
p821
sg15
V10
p822
sg17
g822
sg19
V85
p823
sbag1
(g2
g3
Ntp824
Rp825
(dp826
g7
V118
p827
sg9
VGoldeen
p828
sg11
VHG,SS,
p829
sg13
VFish Good
p830
sg15
V20
p831
sg17
g831
sg19
V60
p832
sbag1
(g2
g3
Ntp833
Rp834
(dp835
g7
V129
p836
sg9
VMagikarp
p837
sg11
VHG,SS,
p838
sg13
VFish Good
p839
sg15
V20
p840
sg17
g840
sg19
V40
p841
sbag1
(g2
g3
Ntp842
Rp843
(dp844
g7
V118
p845
sg9
VGoldeen
p846
sg11
VHG,SS,
p847
sg13
VFish Super
p848
sg15
V40
p849
sg17
g849
sg19
V70
p850
sbag1
(g2
g3
Ntp851
Rp852
(dp853
g7
V119
p854
sg9
VSeaking
p855
sg11
VHG,SS,
p856
sg13
VFish Super
p857
sg15
V40
p858
sg17
g858
sg19
V10
p859
sbag1
(g2
g3
Ntp860
Rp861
(dp862
g7
V129
p863
sg9
VMagikarp
p864
sg11
VHG,SS,
p865
sg13
VFish Super
p866
sg15
V40
p867
sg17
g867
sg19
V20
p868
sbag1
(g2
g3
Ntp869
Rp870
(dp871
g7
V019
p872
sg9
VRattata
p873
sg11
VHG,SS,
p874
sg13
VCave
p875
sg15
V14
p876
sg17
V16
p877
sg19
V14
p878
sbag1
(g2
g3
Ntp879
Rp880
(dp881
g7
V041
p882
sg9
VZubat
p883
sg11
VHG,SS,
p884
sg13
VCave
p885
sg15
V13
p886
sg17
V15
p887
sg19
V20
p888
sbag1
(g2
g3
Ntp889
Rp890
(dp891
g7
V066
p892
sg9
VMachop
p893
sg11
VHG,SS,
p894
sg13
VCave
p895
sg15
V14
p896
sg17
g896
sg19
V20
p897
sbag1
(g2
g3
Ntp898
Rp899
(dp900
g7
V074
p901
sg9
VGeodude
p902
sg11
VHG,SS,
p903
sg13
VCave
p904
sg15
V14
p905
sg17
g905
sg19
V5
p906
sbag1
(g2
g3
Ntp907
Rp908
(dp909
g7
V183
p910
sg9
VMarill
p911
sg11
VHG,SS,
p912
sg13
VCave
p913
sg15
V13
p914
sg17
V15
p915
sg19
V41
p916
sbag1
(g2
g3
Ntp917
Rp918
(dp919
g7
V296
p920
sg9
VMakuhita
p921
sg11
VHG,SS,
p922
sg13
VHoenn
p923
sg15
V14
p924
sg17
g924
sg19
V20
p925
sbag1
(g2
g3
Ntp926
Rp927
(dp928
g7
V359
p929
sg9
VAbsol
p930
sg11
VHG,SS,
p931
sg13
VHoenn
p932
sg15
V13
p933
sg17
V15
p934
sg19
V20
p935
sbag1
(g2
g3
Ntp936
Rp937
(dp938
g7
V433
p939
sg9
VChingling
p940
sg11
VHG,SS,
p941
sg13
VSinnoh
p942
sg15
V14
p943
sg17
g943
sg19
V20
p944
sbag1
(g2
g3
Ntp945
Rp946
(dp947
g7
V436
p948
sg9
VBronzor
p949
sg11
VHG,SS,
p950
sg13
VSinnoh
p951
sg15
V13
p952
sg17
V15
p953
sg19
V20
p954
sbag1
(g2
g3
Ntp955
Rp956
(dp957
g7
V019
p958
sg9
VRattata
p959
sg11
VHG,SS,
p960
sg13
VCave
p961
sg15
V14
p962
sg17
g962
sg19
V10
p963
sbag1
(g2
g3
Ntp964
Rp965
(dp966
g7
V041
p967
sg9
VZubat
p968
sg11
VHG,SS,
p969
sg13
VCave
p970
sg15
V13
p971
sg17
V15
p972
sg19
V5
p973
sbag1
(g2
g3
Ntp974
Rp975
(dp976
g7
V066
p977
sg9
VMachop
p978
sg11
VHG,SS,
p979
sg13
VCave
p980
sg15
V13
p981
sg17
V15
p982
sg19
V35
p983
sbag1
(g2
g3
Ntp984
Rp985
(dp986
g7
V074
p987
sg9
VGeodude
p988
sg11
VHG,SS,
p989
sg13
VCave
p990
sg15
V13
p991
sg17
V15
p992
sg19
V50
p993
sbag1
(g2
g3
Ntp994
Rp995
(dp996
g7
V296
p997
sg9
VMakuhita
p998
sg11
VHG,SS,
p999
sg13
VHoenn
p1000
sg15
V15
p1001
sg17
g1001
sg19
V20
p1002
sbag1
(g2
g3
Ntp1003
Rp1004
(dp1005
g7
V359
p1006
sg9
VAbsol
p1007
sg11
VHG,SS,
p1008
sg13
VHoenn
p1009
sg15
V13
p1010
sg17
g1010
sg19
V20
p1011
sbag1
(g2
g3
Ntp1012
Rp1013
(dp1014
g7
V433
p1015
sg9
VChingling
p1016
sg11
VHG,SS,
p1017
sg13
VSinnoh
p1018
sg15
V15
p1019
sg17
g1019
sg19
V20
p1020
sbag1
(g2
g3
Ntp1021
Rp1022
(dp1023
g7
V436
p1024
sg9
VBronzor
p1025
sg11
VHG,SS,
p1026
sg13
VSinnoh
p1027
sg15
V13
p1028
sg17
g1028
sg19
V20
p1029
sbag1
(g2
g3
Ntp1030
Rp1031
(dp1032
g7
V020
p1033
sg9
VRaticate
p1034
sg11
VHG,SS,
p1035
sg13
VCave
p1036
sg15
V30
p1037
sg17
g1037
sg19
V10
p1038
sbag1
(g2
g3
Ntp1039
Rp1040
(dp1041
g7
V042
p1042
sg9
VGolbat
p1043
sg11
VHG,SS,
p1044
sg13
VCave
p1045
sg15
V30
p1046
sg17
g1046
sg19
V5
p1047
sbag1
(g2
g3
Ntp1048
Rp1049
(dp1050
g7
V066
p1051
sg9
VMachop
p1052
sg11
VHG,SS,
p1053
sg13
VCave
p1054
sg15
V28
p1055
sg17
g1055
sg19
V5
p1056
sbag1
(g2
g3
Ntp1057
Rp1058
(dp1059
g7
V067
p1060
sg9
VMachoke
p1061
sg11
VHG,SS,
p1062
sg13
VCave
p1063
sg15
V32
p1064
sg17
g1064
sg19
V30
p1065
sbag1
(g2
g3
Ntp1066
Rp1067
(dp1068
g7
V074
p1069
sg9
VGeodude
p1070
sg11
VHG,SS,
p1071
sg13
VCave
p1072
sg15
V31
p1073
sg17
g1073
sg19
V20
p1074
sbag1
(g2
g3
Ntp1075
Rp1076
(dp1077
g7
V075
p1078
sg9
VGraveler
p1079
sg11
VHG,SS,
p1080
sg13
VCave
p1081
sg15
V31
p1082
sg17
g1082
sg19
V30
p1083
sbag1
(g2
g3
Ntp1084
Rp1085
(dp1086
g7
V118
p1087
sg9
VGoldeen
p1088
sg11
VHG,SS,
p1089
sg13
VSurf
p1090
sg15
V10
p1091
sg17
V15
p1092
sg19
V90
p1093
sbag1
(g2
g3
Ntp1094
Rp1095
(dp1096
g7
V119
p1097
sg9
VSeaking
p1098
sg11
VHG,SS,
p1099
sg13
VSurf
p1100
sg15
V15
p1101
sg17
g1101
sg19
V10
p1102
sbag1
(g2
g3
Ntp1103
Rp1104
(dp1105
g7
V118
p1106
sg9
VGoldeen
p1107
sg11
VHG,SS,
p1108
sg13
VFish Old
p1109
sg15
V10
p1110
sg17
g1110
sg19
V15
p1111
sbag1
(g2
g3
Ntp1112
Rp1113
(dp1114
g7
V129
p1115
sg9
VMagikarp
p1116
sg11
VHG,SS,
p1117
sg13
VFish Old
p1118
sg15
V10
p1119
sg17
g1119
sg19
V85
p1120
sbag1
(g2
g3
Ntp1121
Rp1122
(dp1123
g7
V118
p1124
sg9
VGoldeen
p1125
sg11
VHG,SS,
p1126
sg13
VFish Good
p1127
sg15
V20
p1128
sg17
g1128
sg19
V60
p1129
sbag1
(g2
g3
Ntp1130
Rp1131
(dp1132
g7
V129
p1133
sg9
VMagikarp
p1134
sg11
VHG,SS,
p1135
sg13
VFish Good
p1136
sg15
V20
p1137
sg17
g1137
sg19
V40
p1138
sbag1
(g2
g3
Ntp1139
Rp1140
(dp1141
g7
V118
p1142
sg9
VGoldeen
p1143
sg11
VHG,SS,
p1144
sg13
VFish Super
p1145
sg15
V40
p1146
sg17
g1146
sg19
V70
p1147
sbag1
(g2
g3
Ntp1148
Rp1149
(dp1150
g7
V119
p1151
sg9
VSeaking
p1152
sg11
VHG,SS,
p1153
sg13
VFish Super
p1154
sg15
V40
p1155
sg17
g1155
sg19
V10
p1156
sbag1
(g2
g3
Ntp1157
Rp1158
(dp1159
g7
V129
p1160
sg9
VMagikarp
p1161
sg11
VHG,SS,
p1162
sg13
VFish Super
p1163
sg15
V40
p1164
sg17
g1164
sg19
V20
p1165
sbag1
(g2
g3
Ntp1166
Rp1167
(dp1168
g7
V296
p1169
sg9
VMakuhita
p1170
sg11
VHG,SS,
p1171
sg13
VHoenn
p1172
sg15
V31
p1173
sg17
g1173
sg19
V20
p1174
sbag1
(g2
g3
Ntp1175
Rp1176
(dp1177
g7
V359
p1178
sg9
VAbsol
p1179
sg11
VHG,SS,
p1180
sg13
VHoenn
p1181
sg15
V31
p1182
sg17
V32
p1183
sg19
V20
p1184
sbag1
(g2
g3
Ntp1185
Rp1186
(dp1187
g7
V433
p1188
sg9
VChingling
p1189
sg11
VHG,SS,
p1190
sg13
VSinnoh
p1191
sg15
V31
p1192
sg17
g1192
sg19
V20
p1193
sbag1
(g2
g3
Ntp1194
Rp1195
(dp1196
g7
V436
p1197
sg9
VBronzor
p1198
sg11
VHG,SS,
p1199
sg13
VSinnoh
p1200
sg15
V31
p1201
sg17
V32
p1202
sg19
V20
p1203
sbag1
(g2
g3
Ntp1204
Rp1205
(dp1206
g7
V019
p1207
sg9
VRattata
p1208
sg11
VHG,SS,
p1209
sg13
VCave
p1210
sg15
V16
p1211
sg17
g1211
sg19
V20
p1212
sbag1
(g2
g3
Ntp1213
Rp1214
(dp1215
g7
V020
p1216
sg9
VRaticate
p1217
sg11
VHG,SS,
p1218
sg13
VCave
p1219
sg15
V16
p1220
sg17
g1220
sg19
V5
p1221
sbag1
(g2
g3
Ntp1222
Rp1223
(dp1224
g7
V041
p1225
sg9
VZubat
p1226
sg11
VHG,SS,
p1227
sg13
VCave
p1228
sg15
V15
p1229
sg17
V17
p1230
sg19
V60
p1231
sbag1
(g2
g3
Ntp1232
Rp1233
(dp1234
g7
V066
p1235
sg9
VMachop
p1236
sg11
VHG,SS,
p1237
sg13
VCave
p1238
sg15
V13
p1239
sg17
V16
p1240
sg19
V10
p1241
sbag1
(g2
g3
Ntp1242
Rp1243
(dp1244
g7
V074
p1245
sg9
VGeodude
p1246
sg11
VHG,SS,
p1247
sg13
VCave
p1248
sg15
V13
p1249
sg17
V16
p1250
sg19
V5
p1251
sbag1
(g2
g3
Ntp1252
Rp1253
(dp1254
g7
V118
p1255
sg9
VGoldeen
p1256
sg11
VHG,SS,
p1257
sg13
VSurf
p1258
sg15
V10
p1259
sg17
V15
p1260
sg19
V90
p1261
sbag1
(g2
g3
Ntp1262
Rp1263
(dp1264
g7
V119
p1265
sg9
VSeaking
p1266
sg11
VHG,SS,
p1267
sg13
VSurf
p1268
sg15
V15
p1269
sg17
g1269
sg19
V10
p1270
sbag1
(g2
g3
Ntp1271
Rp1272
(dp1273
g7
V118
p1274
sg9
VGoldeen
p1275
sg11
VHG,SS,
p1276
sg13
VFish Old
p1277
sg15
V10
p1278
sg17
g1278
sg19
V15
p1279
sbag1
(g2
g3
Ntp1280
Rp1281
(dp1282
g7
V129
p1283
sg9
VMagikarp
p1284
sg11
VHG,SS,
p1285
sg13
VFish Old
p1286
sg15
V10
p1287
sg17
g1287
sg19
V85
p1288
sbag1
(g2
g3
Ntp1289
Rp1290
(dp1291
g7
V118
p1292
sg9
VGoldeen
p1293
sg11
VHG,SS,
p1294
sg13
VFish Good
p1295
sg15
V20
p1296
sg17
g1296
sg19
V60
p1297
sbag1
(g2
g3
Ntp1298
Rp1299
(dp1300
g7
V129
p1301
sg9
VMagikarp
p1302
sg11
VHG,SS,
p1303
sg13
VFish Good
p1304
sg15
V20
p1305
sg17
g1305
sg19
V40
p1306
sbag1
(g2
g3
Ntp1307
Rp1308
(dp1309
g7
V118
p1310
sg9
VGoldeen
p1311
sg11
VHG,SS,
p1312
sg13
VFish Super
p1313
sg15
V40
p1314
sg17
g1314
sg19
V70
p1315
sbag1
(g2
g3
Ntp1316
Rp1317
(dp1318
g7
V119
p1319
sg9
VSeaking
p1320
sg11
VHG,SS,
p1321
sg13
VFish Super
p1322
sg15
V40
p1323
sg17
g1323
sg19
V10
p1324
sbag1
(g2
g3
Ntp1325
Rp1326
(dp1327
g7
V129
p1328
sg9
VMagikarp
p1329
sg11
VHG,SS,
p1330
sg13
VFish Super
p1331
sg15
V40
p1332
sg17
g1332
sg19
V20
p1333
sbag1
(g2
g3
Ntp1334
Rp1335
(dp1336
g7
V296
p1337
sg9
VMakuhita
p1338
sg11
VHG,SS,
p1339
sg13
VHoenn
p1340
sg15
V15
p1341
sg17
g1341
sg19
V20
p1342
sbag1
(g2
g3
Ntp1343
Rp1344
(dp1345
g7
V359
p1346
sg9
VAbsol
p1347
sg11
VHG,SS,
p1348
sg13
VHoenn
p1349
sg15
V13
p1350
sg17
g1350
sg19
V20
p1351
sbag1
(g2
g3
Ntp1352
Rp1353
(dp1354
g7
V433
p1355
sg9
VChingling
p1356
sg11
VHG,SS,
p1357
sg13
VSinnoh
p1358
sg15
V15
p1359
sg17
g1359
sg19
V20
p1360
sbag1
(g2
g3
Ntp1361
Rp1362
(dp1363
g7
V436
p1364
sg9
VBronzor
p1365
sg11
VHG,SS,
p1366
sg13
VSinnoh
p1367
sg15
V13
p1368
sg17
g1368
sg19
V20
p1369
sbag1
(g2
g3
Ntp1370
Rp1371
(dp1372
g7
V236
p1373
sg9
VTyrogue
p1374
sg11
VHG,SS,
p1375
sg13
VGift
p1376
sg15
V10
p1377
sg17
g1377
sg19
V0
p1378
sba.