(lp0
ccopy_reg
_reconstructor
p1
(c__main__
WildPokemon
p2
c__builtin__
object
p3
Ntp4
Rp5
(dp6
VpDexNo
p7
V353
p8
sVpSpecies
p9
VShuppet
p10
sVpGames
p11
VS,E,
p12
sVpArea
p13
V1F-3F
p14
sVpMinLevel
p15
V22
p16
sVpMaxLevel
p17
V29
p18
sVpRate
p19
V100
p20
sbag1
(g2
g3
Ntp21
Rp22
(dp23
g7
V355
p24
sg9
VDuskull
p25
sg11
VRu,
p26
sg13
V1F-3F
p27
sg15
V22
p28
sg17
V29
p29
sg19
V100
p30
sbag1
(g2
g3
Ntp31
Rp32
(dp33
g7
V353
p34
sg9
VShuppet
p35
sg11
g26
sg13
V4F-6F
p36
sg15
V25
p37
sg17
V29
p38
sg19
V10
p39
sbag1
(g2
g3
Ntp40
Rp41
(dp42
g7
V353
p43
sg9
VShuppet
p44
sg11
VS,E,
p45
sg13
V4F-6F
p46
sg15
V22
p47
sg17
V29
p48
sg19
V90
p49
sbag1
(g2
g3
Ntp50
Rp51
(dp52
g7
V355
p53
sg9
VDuskull
p54
sg11
g26
sg13
V4F-6F
p55
sg15
V22
p56
sg17
V29
p57
sg19
V90
p58
sbag1
(g2
g3
Ntp59
Rp60
(dp61
g7
V355
p62
sg9
VDuskull
p63
sg11
VS,E,
p64
sg13
V4F-6F
p65
sg15
V25
p66
sg17
V29
p67
sg19
V10
p68
sbag1
(g2
g3
Ntp69
Rp70
(dp71
g7
V037
p72
sg9
VVulpix
p73
sg11
VRu,S,
p74
sg13
VGrass
p75
sg15
V25
p76
sg17
V29
p77
sg19
V20
p78
sbag1
(g2
g3
Ntp79
Rp80
(dp81
g7
V037
p82
sg9
VVulpix
p83
sg11
VE,
p84
sg13
VGrass
p85
sg15
V25
p86
sg17
V29
p87
sg19
V30
p88
sbag1
(g2
g3
Ntp89
Rp90
(dp91
g7
V278
p92
sg9
VWingull
p93
sg11
VRu,S,E,
p94
sg13
VGrass
p95
sg15
V26
p96
sg17
V28
p97
sg19
V10
p98
sbag1
(g2
g3
Ntp99
Rp100
(dp101
g7
V307
p102
sg9
VMeditite
p103
sg11
VRu,S,
p104
sg13
VGrass
p105
sg15
V27
p106
sg17
V29
p107
sg19
V30
p108
sbag1
(g2
g3
Ntp109
Rp110
(dp111
g7
V355
p112
sg9
VDuskull
p113
sg11
g26
sg13
VGrass
p114
sg15
V27
p115
sg17
V29
p116
sg19
V40
p117
sbag1
(g2
g3
Ntp118
Rp119
(dp120
g7
V353
p121
sg9
VShuppet
p122
sg11
VS,
p123
sg13
VGrass
p124
sg15
V27
p125
sg17
V29
p126
sg19
V40
p127
sbag1
(g2
g3
Ntp128
Rp129
(dp130
g7
V353
p131
sg9
VShuppet
p132
sg11
g84
sg13
VGrass
p133
sg15
V27
p134
sg17
V29
p135
sg19
V60
p136
sbag1
(g2
g3
Ntp137
Rp138
(dp139
g7
V353
p140
sg9
VShuppet
p141
sg11
g26
sg13
VGrass
p142
sg15
V26
p143
sg17
V30
p144
sg19
V13
p145
sbag1
(g2
g3
Ntp146
Rp147
(dp148
g7
V353
p149
sg9
VShuppet
p150
sg11
VS,E,
p151
sg13
VGrass
p152
sg15
V24
p153
sg17
V30
p154
sg19
V85
p155
sbag1
(g2
g3
Ntp156
Rp157
(dp158
g7
V355
p159
sg9
VDuskull
p160
sg11
g26
sg13
VGrass
p161
sg15
V24
p162
sg17
V30
p163
sg19
V85
p164
sbag1
(g2
g3
Ntp165
Rp166
(dp167
g7
V355
p168
sg9
VDuskull
p169
sg11
VS,E,
p170
sg13
VGrass
p171
sg15
V26
p172
sg17
V30
p173
sg19
V13
p174
sbag1
(g2
g3
Ntp175
Rp176
(dp177
g7
V358
p178
sg9
VChimecho
p179
sg11
VRu,S,E,
p180
sg13
VGrass
p181
sg15
V28
p182
sg17
g182
sg19
V2
p183
sbag1
(g2
g3
Ntp184
Rp185
(dp186
g7
V353
p187
sg9
VShuppet
p188
sg11
VOR,AS,
p189
sg13
V1F-4F
p190
sg15
V28
p191
sg17
V31
p192
sg19
V65
p193
sbag1
(g2
g3
Ntp194
Rp195
(dp196
g7
V355
p197
sg9
VDuskull
p198
sg11
VOR,AS,
p199
sg13
V1F-4F
p200
sg15
V28
p201
sg17
V31
p202
sg19
V35
p203
sbag1
(g2
g3
Ntp204
Rp205
(dp206
g7
V353
p207
sg9
VShuppet
p208
sg11
VOR,AS,
p209
sg13
VHorde Encounter
p210
sg15
V15
p211
sg17
g211
sg19
V100
p212
sbag1
(g2
g3
Ntp213
Rp214
(dp215
g7
V037
p216
sg9
VVulpix
p217
sg11
VOR,AS,
p218
sg13
VGrass
p219
sg15
V29
p220
sg17
V31
p221
sg19
V15
p222
sbag1
(g2
g3
Ntp223
Rp224
(dp225
g7
V278
p226
sg9
VWingull
p227
sg11
VOR,AS,
p228
sg13
VGrass
p229
sg15
V30
p230
sg17
g230
sg19
V5
p231
sbag1
(g2
g3
Ntp232
Rp233
(dp234
g7
V307
p235
sg9
VMeditite
p236
sg11
VOR,AS,
p237
sg13
VGrass
p238
sg15
V28
p239
sg17
V31
p240
sg19
V40
p241
sbag1
(g2
g3
Ntp242
Rp243
(dp244
g7
V353
p245
sg9
VShuppet
p246
sg11
VOR,AS,
p247
sg13
VGrass
p248
sg15
V28
p249
sg17
V31
p250
sg19
V40
p251
sbag1
(g2
g3
Ntp252
Rp253
(dp254
g7
V037
p255
sg9
VVulpix
p256
sg11
VOR,AS,
p257
sg13
VHorde Encounter
p258
sg15
V15
p259
sg17
g259
sg19
V5
p260
sbag1
(g2
g3
Ntp261
Rp262
(dp263
g7
V307
p264
sg9
VMeditite
p265
sg11
VOR,AS,
p266
sg13
VHorde Encounter
p267
sg15
V15
p268
sg17
g268
sg19
V35
p269
sbag1
(g2
g3
Ntp270
Rp271
(dp272
g7
V353
p273
sg9
VShuppet
p274
sg11
VOR,AS,
p275
sg13
VHorde Encounter
p276
sg15
V15
p277
sg17
g277
sg19
V60
p278
sbag1
(g2
g3
Ntp279
Rp280
(dp281
g7
V058
p282
sg9
VGrowlithe
p283
sg11
VOR,AS,
p284
sg13
VGrass
p285
sg15
V31
p286
sg17
g286
sg19
V0
p287
sbag1
(g2
g3
Ntp288
Rp289
(dp290
g7
V436
p291
sg9
VBronzor
p292
sg11
VOR,AS,
p293
sg13
VGrass
p294
sg15
V31
p295
sg17
g295
sg19
V0
p296
sbag1
(g2
g3
Ntp297
Rp298
(dp299
g7
V605
p300
sg9
VElgyem
p301
sg11
VOR,AS,
p302
sg13
VGrass
p303
sg15
V31
p304
sg17
g304
sg19
V0
p305
sbag1
(g2
g3
Ntp306
Rp307
(dp308
g7
V037
p309
sg9
VVulpix
p310
sg11
VOR,AS,
p311
sg13
VGrass
p312
sg15
V29
p313
sg17
V31
p314
sg19
V15
p315
sbag1
(g2
g3
Ntp316
Rp317
(dp318
g7
V307
p319
sg9
VMeditite
p320
sg11
VOR,AS,
p321
sg13
VGrass
p322
sg15
V28
p323
sg17
V31
p324
sg19
V40
p325
sbag1
(g2
g3
Ntp326
Rp327
(dp328
g7
V353
p329
sg9
VShuppet
p330
sg11
VOR,AS,
p331
sg13
VGrass
p332
sg15
V28
p333
sg17
V31
p334
sg19
V40
p335
sbag1
(g2
g3
Ntp336
Rp337
(dp338
g7
V358
p339
sg9
VChimecho
p340
sg11
VOR,AS,
p341
sg13
VGrass
p342
sg15
V30
p343
sg17
g343
sg19
V5
p344
sbag1
(g2
g3
Ntp345
Rp346
(dp347
g7
V037
p348
sg9
VVulpix
p349
sg11
VOR,AS,
p350
sg13
VHorde Encounter
p351
sg15
V15
p352
sg17
g352
sg19
V5
p353
sbag1
(g2
g3
Ntp354
Rp355
(dp356
g7
V307
p357
sg9
VMeditite
p358
sg11
VOR,AS,
p359
sg13
VHorde Encounter
p360
sg15
V15
p361
sg17
g361
sg19
V35
p362
sbag1
(g2
g3
Ntp363
Rp364
(dp365
g7
V353
p366
sg9
VShuppet
p367
sg11
VOR,AS,
p368
sg13
VHorde Encounter
p369
sg15
V15
p370
sg17
g370
sg19
V60
p371
sbag1
(g2
g3
Ntp372
Rp373
(dp374
g7
V058
p375
sg9
VGrowlithe
p376
sg11
VOR,AS,
p377
sg13
VGrass
p378
sg15
V31
p379
sg17
g379
sg19
V0
p380
sbag1
(g2
g3
Ntp381
Rp382
(dp383
g7
V436
p384
sg9
VBronzor
p385
sg11
VOR,AS,
p386
sg13
VGrass
p387
sg15
V31
p388
sg17
g388
sg19
V0
p389
sbag1
(g2
g3
Ntp390
Rp391
(dp392
g7
V605
p393
sg9
VElgyem
p394
sg11
VOR,AS,
p395
sg13
VGrass
p396
sg15
V31
p397
sg17
g397
sg19
V0
p398
sba.