(lp0
ccopy_reg
_reconstructor
p1
(c__main__
WildPokemon
p2
c__builtin__
object
p3
Ntp4
Rp5
(dp6
VpDexNo
p7
V027
p8
sVpSpecies
p9
VSandshrew
p10
sVpGames
p11
VY,
p12
sVpArea
p13
VCave
p14
sVpMinLevel
p15
V12
p16
sVpMaxLevel
p17
g16
sVpRate
p18
V4
p19
sbag1
(g2
g3
Ntp20
Rp21
(dp22
g7
V035
p23
sg9
VClefairy
p24
sg11
VR,B,
p25
sg13
VCave
p26
sg15
V8
p27
sg17
g27
sg18
V1
p28
sbag1
(g2
g3
Ntp29
Rp30
(dp31
g7
V035
p32
sg9
VClefairy
p33
sg11
g12
sg13
VCave
p34
sg15
V11
p35
sg17
g35
sg18
V1
p36
sbag1
(g2
g3
Ntp37
Rp38
(dp39
g7
V041
p40
sg9
VZubat
p41
sg11
VR,B,
p42
sg13
VCave
p43
sg15
V6
p44
sg17
V11
p45
sg18
V79
p46
sbag1
(g2
g3
Ntp47
Rp48
(dp49
g7
V041
p50
sg9
VZubat
p51
sg11
g12
sg13
VCave
p52
sg15
g44
sg17
V11
p53
sg18
V75
p54
sbag1
(g2
g3
Ntp55
Rp56
(dp57
g7
V046
p58
sg9
VParas
p59
sg11
VR,B,
p60
sg13
VCave
p61
sg15
g27
sg17
g27
sg18
V5
p62
sbag1
(g2
g3
Ntp63
Rp64
(dp65
g7
V074
p66
sg9
VGeodude
p67
sg11
VR,B,
p68
sg13
VCave
p69
sg15
g27
sg17
V10
p70
sg18
V15
p71
sbag1
(g2
g3
Ntp72
Rp73
(dp74
g7
V074
p75
sg9
VGeodude
p76
sg11
g12
sg13
VCave
p77
sg15
V10
p78
sg17
g78
sg18
V20
p79
sbag1
(g2
g3
Ntp80
Rp81
(dp82
g7
V035
p83
sg9
VClefairy
p84
sg11
VR,B,
p85
sg13
VCave
p86
sg15
V9
p87
sg17
g87
sg18
V4
p88
sbag1
(g2
g3
Ntp89
Rp90
(dp91
g7
V035
p92
sg9
VClefairy
p93
sg11
g12
sg13
VCave
p94
sg15
V10
p95
sg17
V12
p96
sg18
V5
p97
sbag1
(g2
g3
Ntp98
Rp99
(dp100
g7
V041
p101
sg9
VZubat
p102
sg11
VR,B,
p103
sg13
VCave
p104
sg15
V7
p105
sg17
V11
p106
sg18
V60
p107
sbag1
(g2
g3
Ntp108
Rp109
(dp110
g7
V041
p111
sg9
VZubat
p112
sg11
g12
sg13
VCave
p113
sg15
g27
sg17
V11
p114
sg18
V65
p115
sbag1
(g2
g3
Ntp116
Rp117
(dp118
g7
V046
p119
sg9
VParas
p120
sg11
VR,B,
p121
sg13
VCave
p122
sg15
V10
p123
sg17
g123
sg18
V10
p124
sbag1
(g2
g3
Ntp125
Rp126
(dp127
g7
V046
p128
sg9
VParas
p129
sg11
g12
sg13
VCave
p130
sg15
g87
sg17
V11
p131
sg18
V10
p132
sbag1
(g2
g3
Ntp133
Rp134
(dp135
g7
V074
p136
sg9
VGeodude
p137
sg11
VR,B,
p138
sg13
VCave
p139
sg15
g105
sg17
g87
sg18
V26
p140
sbag1
(g2
g3
Ntp141
Rp142
(dp143
g7
V074
p144
sg9
VGeodude
p145
sg11
g12
sg13
VCave
p146
sg15
V10
p147
sg17
V11
p148
sg18
V20
p149
sbag1
(g2
g3
Ntp150
Rp151
(dp152
g7
V035
p153
sg9
VClefairy
p154
sg11
VR,B,
p155
sg13
VCave
p156
sg15
V10
p157
sg17
V12
p158
sg18
V6
p159
sbag1
(g2
g3
Ntp160
Rp161
(dp162
g7
V035
p163
sg9
VClefairy
p164
sg11
g12
sg13
VCave
p165
sg15
g87
sg17
V13
p166
sg18
V10
p167
sbag1
(g2
g3
Ntp168
Rp169
(dp170
g7
V041
p171
sg9
VZubat
p172
sg11
VR,B,
p173
sg13
VCave
p174
sg15
g87
sg17
V12
p175
sg18
V49
p176
sbag1
(g2
g3
Ntp177
Rp178
(dp179
g7
V041
p180
sg9
VZubat
p181
sg11
g12
sg13
VCave
p182
sg15
V10
p183
sg17
V13
p184
sg18
V60
p185
sbag1
(g2
g3
Ntp186
Rp187
(dp188
g7
V046
p189
sg9
VParas
p190
sg11
VR,B,
p191
sg13
VCave
p192
sg15
V10
p193
sg17
V12
p194
sg18
V15
p195
sbag1
(g2
g3
Ntp196
Rp197
(dp198
g7
V046
p199
sg9
VParas
p200
sg11
g12
sg13
VCave
p201
sg15
V13
p202
sg17
g202
sg18
V15
p203
sbag1
(g2
g3
Ntp204
Rp205
(dp206
g7
V074
p207
sg9
VGeodude
p208
sg11
VR,B,
p209
sg13
VCave
p210
sg15
g87
sg17
V10
p211
sg18
V30
p212
sbag1
(g2
g3
Ntp213
Rp214
(dp215
g7
V074
p216
sg9
VGeodude
p217
sg11
g12
sg13
VCave
p218
sg15
V11
p219
sg17
g219
sg18
V15
p220
sbag1
(g2
g3
Ntp221
Rp222
(dp223
g7
V027
p224
sg9
VSandshrew
p225
sg11
VG,
p226
sg13
VCave
p227
sg15
g27
sg17
g27
sg18
V20
p228
sbag1
(g2
g3
Ntp229
Rp230
(dp231
g7
V027
p232
sg9
VSandshrew
p233
sg11
VC,
p234
sg13
VCave
p235
sg15
g27
sg17
g27
sg18
V20
p236
sbag1
(g2
g3
Ntp237
Rp238
(dp239
g7
V028
p240
sg9
VSandslash
p241
sg11
g226
sg13
VCave
p242
sg15
V10
p243
sg17
g243
sg18
V5
p244
sbag1
(g2
g3
Ntp245
Rp246
(dp247
g7
V035
p248
sg9
VClefairy
p249
sg11
VG,S,
p250
sg13
VCave
p251
sg15
g27
sg17
g27
sg18
V5
p252
sbag1
(g2
g3
Ntp253
Rp254
(dp255
g7
V035
p256
sg9
VClefairy
p257
sg11
g234
sg13
VCave
p258
sg15
g27
sg17
g27
sg18
V5
p259
sbag1
(g2
g3
Ntp260
Rp261
(dp262
g7
V035
p263
sg9
VClefairy
p264
sg11
g234
sg13
VCave
p265
sg15
g27
sg17
V12
p266
sg18
V25
p267
sbag1
(g2
g3
Ntp268
Rp269
(dp270
g7
V041
p271
sg9
VZubat
p272
sg11
VG,C,
p273
sg13
VCave
p274
sg15
g44
sg17
g44
sg18
V30
p275
sbag1
(g2
g3
Ntp276
Rp277
(dp278
g7
V041
p279
sg9
VZubat
p280
sg11
VS,
p281
sg13
VCave
p282
sg15
g44
sg17
g27
sg18
V50
p283
sbag1
(g2
g3
Ntp284
Rp285
(dp286
g7
V046
p287
sg9
VParas
p288
sg11
VG,S,C,
p289
sg13
VCave
p290
sg15
V12
p291
sg17
g291
sg18
V10
p292
sbag1
(g2
g3
Ntp293
Rp294
(dp295
g7
V074
p296
sg9
VGeodude
p297
sg11
g226
sg13
VCave
p298
sg15
g27
sg17
g27
sg18
V30
p299
sbag1
(g2
g3
Ntp300
Rp301
(dp302
g7
V074
p303
sg9
VGeodude
p304
sg11
VS,C,
p305
sg13
VCave
p306
sg15
g27
sg17
V10
p307
sg18
V35
p308
sbag1
(g2
g3
Ntp309
Rp310
(dp311
g7
V041
p312
sg9
VZubat
p313
sg11
VFR,LG,
p314
sg13
VCave
p315
sg15
g44
sg17
V10
p316
sg18
V69
p317
sbag1
(g2
g3
Ntp318
Rp319
(dp320
g7
V074
p321
sg9
VGeodude
p322
sg11
VFR,LG,
p323
sg13
VCave
p324
sg15
g105
sg17
g87
sg18
V25
p325
sbag1
(g2
g3
Ntp326
Rp327
(dp328
g7
V046
p329
sg9
VParas
p330
sg11
VFR,LG,
p331
sg13
VCave
p332
sg15
g27
sg17
g27
sg18
V5
p333
sbag1
(g2
g3
Ntp334
Rp335
(dp336
g7
V035
p337
sg9
VClefairy
p338
sg11
VFR,LG,
p339
sg13
VCave
p340
sg15
V8,10
p341
sg17
g341
sg18
V1
p342
sbag1
(g2
g3
Ntp343
Rp344
(dp345
g7
V046
p346
sg9
VParas
p347
sg11
VFR,LG,
p348
sg13
VCave
p349
sg15
V5
p350
sg17
V10
p351
sg18
V100
p352
sbag1
(g2
g3
Ntp353
Rp354
(dp355
g7
V041
p356
sg9
VZubat
p357
sg11
VFR,LG,
p358
sg13
VCave
p359
sg15
g27
sg17
V11
p360
sg18
V49
p361
sbag1
(g2
g3
Ntp362
Rp363
(dp364
g7
V074
p365
sg9
VGeodude
p366
sg11
VFR,LG,
p367
sg13
VCave
p368
sg15
g87
sg17
V10
p369
sg18
V30
p370
sbag1
(g2
g3
Ntp371
Rp372
(dp373
g7
V046
p374
sg9
VParas
p375
sg11
VFR,LG,
p376
sg13
VCave
p377
sg15
V10
p378
sg17
V12
p379
sg18
V15
p380
sbag1
(g2
g3
Ntp381
Rp382
(dp383
g7
V035
p384
sg9
VClefairy
p385
sg11
VFR,LG,
p386
sg13
VCave
p387
sg15
V10
p388
sg17
V12
p389
sg18
V6
p390
sbag1
(g2
g3
Ntp391
Rp392
(dp393
g7
V041
p394
sg9
VZubat
p395
sg11
VHG,
p396
sg13
VCave
p397
sg15
g44
sg17
g44
sg18
V30
p398
sbag1
(g2
g3
Ntp399
Rp400
(dp401
g7
V041
p402
sg9
VZubat
p403
sg11
VSS,
p404
sg13
VCave
p405
sg15
g44
sg17
g27
sg18
V50
p406
sbag1
(g2
g3
Ntp407
Rp408
(dp409
g7
V074
p410
sg9
VGeodude
p411
sg11
g396
sg13
VCave
p412
sg15
g27
sg17
g27
sg18
V30
p413
sbag1
(g2
g3
Ntp414
Rp415
(dp416
g7
V074
p417
sg9
VGeodude
p418
sg11
g404
sg13
VCave
p419
sg15
g44
sg17
V10
p420
sg18
V35
p421
sbag1
(g2
g3
Ntp422
Rp423
(dp424
g7
V027
p425
sg9
VSandshrew
p426
sg11
g396
sg13
VCave
p427
sg15
g27
sg17
g27
sg18
V20
p428
sbag1
(g2
g3
Ntp429
Rp430
(dp431
g7
V046
p432
sg9
VParas
p433
sg11
VHG,SS,
p434
sg13
VCave
p435
sg15
V12
p436
sg17
g436
sg18
V10
p437
sbag1
(g2
g3
Ntp438
Rp439
(dp440
g7
V028
p441
sg9
VSandslash
p442
sg11
g396
sg13
VCave
p443
sg15
V10
p444
sg17
g444
sg18
V5
p445
sbag1
(g2
g3
Ntp446
Rp447
(dp448
g7
V035
p449
sg9
VClefairy
p450
sg11
VHG,SS,
p451
sg13
VCave
p452
sg15
g27
sg17
g27
sg18
V5
p453
sbag1
(g2
g3
Ntp454
Rp455
(dp456
g7
V296
p457
sg9
VMakuhita
p458
sg11
VHG,SS,
p459
sg13
VHoenn
p460
sg15
g27
sg17
g27
sg18
V20
p461
sbag1
(g2
g3
Ntp462
Rp463
(dp464
g7
V359
p465
sg9
VAbsol
p466
sg11
VHG,SS,
p467
sg13
VHoenn
p468
sg15
g44
sg17
g27
sg18
V20
p469
sbag1
(g2
g3
Ntp470
Rp471
(dp472
g7
V433
p473
sg9
VChingling
p474
sg11
VHG,SS,
p475
sg13
VSinnoh
p476
sg15
g27
sg17
g27
sg18
V20
p477
sbag1
(g2
g3
Ntp478
Rp479
(dp480
g7
V436
p481
sg9
VBronzor
p482
sg11
VHG,SS,
p483
sg13
VSinnoh
p484
sg15
g44
sg17
g27
sg18
V20
p485
sbag1
(g2
g3
Ntp486
Rp487
(dp488
g7
V035
p489
sg9
VClefairy
p490
sg11
VPi,Ev,
p491
sg13
VCave
p492
sg15
g350
sg17
V10
p493
sg18
V4
p494
sbag1
(g2
g3
Ntp495
Rp496
(dp497
g7
V041
p498
sg9
VZubat
p499
sg11
VPi,Ev,
p500
sg13
VCave
p501
sg15
g350
sg17
V10
p502
sg18
V40
p503
sbag1
(g2
g3
Ntp504
Rp505
(dp506
g7
V046
p507
sg9
VParas
p508
sg11
VPi,Ev,
p509
sg13
VCave
p510
sg15
g350
sg17
V10
p511
sg18
V15
p512
sbag1
(g2
g3
Ntp513
Rp514
(dp515
g7
V074
p516
sg9
VGeodude
p517
sg11
VPi,Ev,
p518
sg13
VCave
p519
sg15
g350
sg17
V10
p520
sg18
V40
p521
sbag1
(g2
g3
Ntp522
Rp523
(dp524
g7
V095
p525
sg9
VOnix
p526
sg11
VPi,Ev,
p527
sg13
VCave
p528
sg15
g350
sg17
V10
p529
sg18
V1
p530
sbag1
(g2
g3
Ntp531
Rp532
(dp533
g7
V113
p534
sg9
VChansey
p535
sg11
VPi,Ev,
p536
sg13
VCave
p537
sg15
g350
sg17
V10
p538
sg18
V0
p539
sbag1
(g2
g3
Ntp540
Rp541
(dp542
g7
V035
p543
sg9
VClefairy
p544
sg11
VPi,Ev,
p545
sg13
VCave
p546
sg15
g350
sg17
V10
p547
sg18
V9
p548
sbag1
(g2
g3
Ntp549
Rp550
(dp551
g7
V036
p552
sg9
VClefable
p553
sg11
VPi,Ev,
p554
sg13
VCave
p555
sg15
g350
sg17
V10
p556
sg18
V1
p557
sbag1
(g2
g3
Ntp558
Rp559
(dp560
g7
V041
p561
sg9
VZubat
p562
sg11
VPi,Ev,
p563
sg13
VCave
p564
sg15
g350
sg17
V10
p565
sg18
V40
p566
sbag1
(g2
g3
Ntp567
Rp568
(dp569
g7
V046
p570
sg9
VParas
p571
sg11
VPi,Ev,
p572
sg13
VCave
p573
sg15
g350
sg17
V10
p574
sg18
V15
p575
sbag1
(g2
g3
Ntp576
Rp577
(dp578
g7
V074
p579
sg9
VGeodude
p580
sg11
VPi,Ev,
p581
sg13
VCave
p582
sg15
g350
sg17
V10
p583
sg18
V34
p584
sbag1
(g2
g3
Ntp585
Rp586
(dp587
g7
V095
p588
sg9
VOnix
p589
sg11
VPi,Ev,
p590
sg13
VCave
p591
sg15
g350
sg17
V10
p592
sg18
V1
p593
sbag1
(g2
g3
Ntp594
Rp595
(dp596
g7
V113
p597
sg9
VChansey
p598
sg11
VPi,Ev,
p599
sg13
VCave
p600
sg15
g350
sg17
V10
p601
sg18
V0
p602
sba.