(lp0
ccopy_reg
_reconstructor
p1
(c__main__
WildPokemon
p2
c__builtin__
object
p3
Ntp4
Rp5
(dp6
VpDexNo
p7
V021
p8
sVpSpecies
p9
VSpearow
p10
sVpGames
p11
VFR,
p12
sVpArea
p13
VGrass
p14
sVpMinLevel
p15
V30
p16
sVpMaxLevel
p17
V32
p18
sVpRate
p19
V15
p20
sbag1
(g2
g3
Ntp21
Rp22
(dp23
g7
V021
p24
sg9
VSpearow
p25
sg11
VLG,
p26
sg13
VGrass
p27
sg15
V32
p28
sg17
g28
sg19
V10
p29
sbag1
(g2
g3
Ntp30
Rp31
(dp32
g7
V022
p33
sg9
VFearow
p34
sg11
VFR,LG,
p35
sg13
VGrass
p36
sg15
V38
p37
sg17
V40
p38
sg19
V25
p39
sbag1
(g2
g3
Ntp40
Rp41
(dp42
g7
V066
p43
sg9
VMachop
p44
sg11
VFR,LG,
p45
sg13
VGrass
p46
sg15
V35
p47
sg17
g47
sg19
V10
p48
sbag1
(g2
g3
Ntp49
Rp50
(dp51
g7
V074
p52
sg9
VGeodude
p53
sg11
VFR,LG,
p54
sg13
VGrass
p55
sg15
V33
p56
sg17
g56
sg19
V10
p57
sbag1
(g2
g3
Ntp58
Rp59
(dp60
g7
V077
p61
sg9
VPonyta
p62
sg11
VFR,LG,
p63
sg13
VGrass
p64
sg15
V30
p65
sg17
V36
p66
sg19
V35
p67
sbag1
(g2
g3
Ntp68
Rp69
(dp70
g7
V078
p71
sg9
VRapidash
p72
sg11
VFR,LG,
p73
sg13
VGrass
p74
sg15
V39
p75
sg17
V42
p76
sg19
V5
p77
sbag1
(g2
g3
Ntp78
Rp79
(dp80
g7
V126
p81
sg9
VMagmar
p82
sg11
g26
sg13
VGrass
p83
sg15
V38
p84
sg17
V40
p85
sg19
V5
p86
sbag1
(g2
g3
Ntp87
Rp88
(dp89
g7
V074
p90
sg9
VGeodude
p91
sg11
VFR,LG,
p92
sg13
VRock Smash
p93
sg15
V5
p94
sg17
V30
p95
sg19
V95
p96
sbag1
(g2
g3
Ntp97
Rp98
(dp99
g7
V075
p100
sg9
VGraveler
p101
sg11
VFR,LG,
p102
sg13
VRock Smash
p103
sg15
V25
p104
sg17
V40
p105
sg19
V5
p106
sbag1
(g2
g3
Ntp107
Rp108
(dp109
g7
V066
p110
sg9
VMachop
p111
sg11
VFR,LG,
p112
sg13
VCave
p113
sg15
V31
p114
sg17
V39 
p115
sg19
V50
p116
sbag1
(g2
g3
Ntp117
Rp118
(dp119
g7
V074
p120
sg9
VGeodude
p121
sg11
VFR,LG,
p122
sg13
VCave
p123
sg15
V29
p124
sg17
V37
p125
sg19
V50
p126
sbag1
(g2
g3
Ntp127
Rp128
(dp129
g7
V066
p130
sg9
VMachop
p131
sg11
VFR,LG,
p132
sg13
VCave
p133
sg15
V32
p134
sg17
V36
p135
sg19
V40
p136
sbag1
(g2
g3
Ntp137
Rp138
(dp139
g7
V074
p140
sg9
VGeodude
p141
sg11
VFR,LG,
p142
sg13
VCave
p143
sg15
V30
p144
sg17
V34
p145
sg19
V40
p146
sbag1
(g2
g3
Ntp147
Rp148
(dp149
g7
V067
p150
sg9
VMachoke
p151
sg11
VFR,LG,
p152
sg13
VCave
p153
sg15
V38
p154
sg17
V40
p155
sg19
V20
p156
sbag1
(g2
g3
Ntp157
Rp158
(dp159
g7
V074
p160
sg9
VGeodude
p161
sg11
VFR,LG,
p162
sg13
VRock Smash
p163
sg15
g94
sg17
V30
p164
sg19
V95
p165
sbag1
(g2
g3
Ntp166
Rp167
(dp168
g7
V075
p169
sg9
VGraveler
p170
sg11
VFR,LG,
p171
sg13
VRock Smash
p172
sg15
V25
p173
sg17
V40
p174
sg19
V5
p175
sbag1
(g2
g3
Ntp176
Rp177
(dp178
g7
V074
p179
sg9
VGeodude
p180
sg11
VFR,LG,
p181
sg13
VRock Smash
p182
sg15
g94
sg17
V30
p183
sg19
V95
p184
sbag1
(g2
g3
Ntp185
Rp186
(dp187
g7
V075
p188
sg9
VGraveler
p189
sg11
VFR,LG,
p190
sg13
VRock Smash
p191
sg15
V25
p192
sg17
V40
p193
sg19
V5
p194
sbag1
(g2
g3
Ntp195
Rp196
(dp197
g7
V146
p198
sg9
VMoltres
p199
sg11
VFR,LG,
p200
sg13
VSpecial
p201
sg15
V50
p202
sg17
g202
sg19
V0
p203
sbag1
(g2
g3
Ntp204
Rp205
(dp206
g7
V074
p207
sg9
VGeodude
p208
sg11
VFR,LG,
p209
sg13
VCave
p210
sg15
V32
p211
sg17
V40
p212
sg19
V50
p213
sbag1
(g2
g3
Ntp214
Rp215
(dp216
g7
V066
p217
sg9
VMachop
p218
sg11
VFR,LG,
p219
sg13
VCave
p220
sg15
V34
p221
sg17
V38
p222
sg19
V40
p223
sbag1
(g2
g3
Ntp224
Rp225
(dp226
g7
V067
p227
sg9
VMachoke
p228
sg11
VFR,LG,
p229
sg13
VCave
p230
sg15
V40
p231
sg17
V42
p232
sg19
V10
p233
sbag1
(g2
g3
Ntp234
Rp235
(dp236
g7
V074
p237
sg9
VGeodude
p238
sg11
VFR,LG,
p239
sg13
VRock Smash
p240
sg15
V25
p241
sg17
V40
p242
sg19
V65
p243
sbag1
(g2
g3
Ntp244
Rp245
(dp246
g7
V075
p247
sg9
VGraveler
p248
sg11
VFR,LG,
p249
sg13
VRock Smash
p250
sg15
V30
p251
sg17
V50
p252
sg19
V35
p253
sbag1
(g2
g3
Ntp254
Rp255
(dp256
g7
V074
p257
sg9
VGeodude
p258
sg11
VFR,LG,
p259
sg13
VCave
p260
sg15
V34
p261
sg17
V42
p262
sg19
V70
p263
sbag1
(g2
g3
Ntp264
Rp265
(dp266
g7
V218
p267
sg9
VSlugma
p268
sg11
VFR,LG,
p269
sg13
VCave
p270
sg15
V24
p271
sg17
V30
p272
sg19
V30
p273
sbag1
(g2
g3
Ntp274
Rp275
(dp276
g7
V074
p277
sg9
VGeodude
p278
sg11
VFR,LG,
p279
sg13
VRock Smash
p280
sg15
V25
p281
sg17
V40
p282
sg19
V65
p283
sbag1
(g2
g3
Ntp284
Rp285
(dp286
g7
V075
p287
sg9
VGraveler
p288
sg11
VFR,LG,
p289
sg13
VRock Smash
p290
sg15
V30
p291
sg17
V50
p292
sg19
V35
p293
sbag1
(g2
g3
Ntp294
Rp295
(dp296
g7
V218
p297
sg9
VSlugma
p298
sg11
VFR,LG,
p299
sg13
VCave
p300
sg15
V22
p301
sg17
V32
p302
sg19
V60
p303
sbag1
(g2
g3
Ntp304
Rp305
(dp306
g7
V074
p307
sg9
VGeodude
p308
sg11
VFR,LG,
p309
sg13
VCave
p310
sg15
V40
p311
sg17
V44
p312
sg19
V40
p313
sbag1
(g2
g3
Ntp314
Rp315
(dp316
g7
V074
p317
sg9
VGeodude
p318
sg11
VFR,LG,
p319
sg13
VRock Smash
p320
sg15
V25
p321
sg17
V40
p322
sg19
V65
p323
sbag1
(g2
g3
Ntp324
Rp325
(dp326
g7
V075
p327
sg9
VGraveler
p328
sg11
VFR,LG,
p329
sg13
VRock Smash
p330
sg15
V30
p331
sg17
V50
p332
sg19
V35
p333
sbag1
(g2
g3
Ntp334
Rp335
(dp336
g7
V218
p337
sg9
VSlugma
p338
sg11
VFR,LG,
p339
sg13
VCave
p340
sg15
V18
p341
sg17
V36
p342
sg19
V100
p343
sbag1
(g2
g3
Ntp344
Rp345
(dp346
g7
V218
p347
sg9
VSlugma
p348
sg11
VFR,LG,
p349
sg13
VRock Smash
p350
sg15
V15
p351
sg17
V35
p352
sg19
V90
p353
sbag1
(g2
g3
Ntp354
Rp355
(dp356
g7
V219
p357
sg9
VMagcargo
p358
sg11
VFR,LG,
p359
sg13
VRock Smash
p360
sg15
V25
p361
sg17
V45
p362
sg19
V10
p363
sba.