(lp0
ccopy_reg
_reconstructor
p1
(c__main__
WildPokemon
p2
c__builtin__
object
p3
Ntp4
Rp5
(dp6
VpDexNo
p7
V138
p8
sVpSpecies
p9
VOmanyte
p10
sVpGames
p11
VB,W,
p12
sVpArea
p13
VHelix
p14
sVpMinLevel
p15
V25
p16
sVpMaxLevel
p17
g16
sVpRate
p18
V0
p19
sbag1
(g2
g3
Ntp20
Rp21
(dp22
g7
V140
p23
sg9
VKabuto
p24
sg11
VB,W,
p25
sg13
VDome
p26
sg15
V25
p27
sg17
g27
sg18
V0
p28
sbag1
(g2
g3
Ntp29
Rp30
(dp31
g7
V142
p32
sg9
VAerodactyl
p33
sg11
VB,W,
p34
sg13
VAmber
p35
sg15
V25
p36
sg17
g36
sg18
V0
p37
sbag1
(g2
g3
Ntp38
Rp39
(dp40
g7
V345
p41
sg9
VLileep
p42
sg11
VB,W,
p43
sg13
VRoot
p44
sg15
V25
p45
sg17
g45
sg18
V0
p46
sbag1
(g2
g3
Ntp47
Rp48
(dp49
g7
V347
p50
sg9
VAnorith
p51
sg11
VB,W,
p52
sg13
VClaw
p53
sg15
V25
p54
sg17
g54
sg18
V0
p55
sbag1
(g2
g3
Ntp56
Rp57
(dp58
g7
V408
p59
sg9
VCranidos
p60
sg11
VB,W,
p61
sg13
VSkull
p62
sg15
V25
p63
sg17
g63
sg18
V0
p64
sbag1
(g2
g3
Ntp65
Rp66
(dp67
g7
V410
p68
sg9
VShieldon
p69
sg11
VB,W,
p70
sg13
VArmor
p71
sg15
V25
p72
sg17
g72
sg18
V0
p73
sbag1
(g2
g3
Ntp74
Rp75
(dp76
g7
V564
p77
sg9
VTirtouga
p78
sg11
VB,W,
p79
sg13
VCover
p80
sg15
V25
p81
sg17
g81
sg18
V0
p82
sbag1
(g2
g3
Ntp83
Rp84
(dp85
g7
V566
p86
sg9
VArchen
p87
sg11
VB,W,
p88
sg13
VPlume
p89
sg15
V25
p90
sg17
g90
sg18
V0
p91
sbag1
(g2
g3
Ntp92
Rp93
(dp94
g7
V546
p95
sg9
VCottonee
p96
sg11
VW,
p97
sg13
VTrade
p98
sg15
V15
p99
sg17
g99
sg18
V0
p100
sbag1
(g2
g3
Ntp101
Rp102
(dp103
g7
V548
p104
sg9
VPetilil
p105
sg11
VB,
p106
sg13
VTrade
p107
sg15
V15
p108
sg17
g108
sg18
V0
p109
sbag1
(g2
g3
Ntp110
Rp111
(dp112
g7
V440
p113
sg9
VHappiny
p114
sg11
VB2,W2,
p115
sg13
VEgg
p116
sg15
V1
p117
sg17
g117
sg18
V0
p118
sbag1
(g2
g3
Ntp119
Rp120
(dp121
g7
V138
p122
sg9
VOmanyte
p123
sg11
VB2,W2,
p124
sg13
VHelix
p125
sg15
V25
p126
sg17
g126
sg18
V0
p127
sbag1
(g2
g3
Ntp128
Rp129
(dp130
g7
V140
p131
sg9
VKabuto
p132
sg11
VB2,W2,
p133
sg13
VDome
p134
sg15
V25
p135
sg17
g135
sg18
V0
p136
sbag1
(g2
g3
Ntp137
Rp138
(dp139
g7
V142
p140
sg9
VAerodactyl
p141
sg11
VB2,W2,
p142
sg13
VAmber
p143
sg15
V25
p144
sg17
g144
sg18
V0
p145
sbag1
(g2
g3
Ntp146
Rp147
(dp148
g7
V345
p149
sg9
VLileep
p150
sg11
VB2,W2,
p151
sg13
VRoot
p152
sg15
V25
p153
sg17
g153
sg18
V0
p154
sbag1
(g2
g3
Ntp155
Rp156
(dp157
g7
V347
p158
sg9
VAnorith
p159
sg11
VB2,W2,
p160
sg13
VClaw
p161
sg15
V25
p162
sg17
g162
sg18
V0
p163
sbag1
(g2
g3
Ntp164
Rp165
(dp166
g7
V408
p167
sg9
VCranidos
p168
sg11
VB2,W2,
p169
sg13
VSkull
p170
sg15
V25
p171
sg17
g171
sg18
V0
p172
sbag1
(g2
g3
Ntp173
Rp174
(dp175
g7
V410
p176
sg9
VShieldon
p177
sg11
VB2,W2,
p178
sg13
VArmor
p179
sg15
V25
p180
sg17
g180
sg18
V0
p181
sbag1
(g2
g3
Ntp182
Rp183
(dp184
g7
V564
p185
sg9
VTirtouga
p186
sg11
VB2,W2,
p187
sg13
VCover
p188
sg15
V25
p189
sg17
g189
sg18
V0
p190
sbag1
(g2
g3
Ntp191
Rp192
(dp193
g7
V566
p194
sg9
VArchen
p195
sg11
VB2,W2,
p196
sg13
VPlume
p197
sg15
V25
p198
sg17
g198
sg18
V0
p199
sbag1
(g2
g3
Ntp200
Rp201
(dp202
g7
V480
p203
sg9
VUxie
p204
sg11
VB2,W2,
p205
sg13
VSpecial
p206
sg15
V65
p207
sg17
g207
sg18
V0
p208
sba.