(lp0
ccopy_reg
_reconstructor
p1
(c__main__
WildPokemon
p2
c__builtin__
object
p3
Ntp4
Rp5
(dp6
VpDexNo
p7
V010
p8
sVpSpecies
p9
VCaterpie
p10
sVpGames
p11
VG,
p12
sVpArea
p13
VGrass
p14
sVpMinLevel
p15
V10
p16
sVpMaxLevel
p17
V12
p18
sVpRate
p19
V50
p20
sbag1
(g2
g3
Ntp21
Rp22
(dp23
g7
V010
p24
sg9
VCaterpie
p25
sg11
g12
sg13
VGrass
p26
sg15
V10
p27
sg17
g27
sg19
V30
p28
sbag1
(g2
g3
Ntp29
Rp30
(dp31
g7
V010
p32
sg9
VCaterpie
p33
sg11
VC,
p34
sg13
VGrass
p35
sg15
V10
p36
sg17
g36
sg19
V5
p37
sbag1
(g2
g3
Ntp38
Rp39
(dp40
g7
V011
p41
sg9
VMetapod
p42
sg11
g12
sg13
VGrass
p43
sg15
V10
p44
sg17
g44
sg19
V30
p45
sbag1
(g2
g3
Ntp46
Rp47
(dp48
g7
V013
p49
sg9
VWeedle
p50
sg11
VS,
p51
sg13
VGrass
p52
sg15
V10
p53
sg17
V12
p54
sg19
V50
p55
sbag1
(g2
g3
Ntp56
Rp57
(dp58
g7
V013
p59
sg9
VWeedle
p60
sg11
g51
sg13
VGrass
p61
sg15
V10
p62
sg17
g62
sg19
V30
p63
sbag1
(g2
g3
Ntp64
Rp65
(dp66
g7
V013
p67
sg9
VWeedle
p68
sg11
g34
sg13
VGrass
p69
sg15
V10
p70
sg17
g70
sg19
V5
p71
sbag1
(g2
g3
Ntp72
Rp73
(dp74
g7
V014
p75
sg9
VKakuna
p76
sg11
g51
sg13
VGrass
p77
sg15
V10
p78
sg17
g78
sg19
V30
p79
sbag1
(g2
g3
Ntp80
Rp81
(dp82
g7
V016
p83
sg9
VPidgey
p84
sg11
VG,S,
p85
sg13
VGrass
p86
sg15
V10
p87
sg17
V14
p88
sg19
V20
p89
sbag1
(g2
g3
Ntp90
Rp91
(dp92
g7
V016
p93
sg9
VPidgey
p94
sg11
VG,S,
p95
sg13
VGrass
p96
sg15
V12
p97
sg17
V14
p98
sg19
V15
p99
sbag1
(g2
g3
Ntp100
Rp101
(dp102
g7
V016
p103
sg9
VPidgey
p104
sg11
g34
sg13
VGrass
p105
sg15
V13
p106
sg17
g106
sg19
V10
p107
sbag1
(g2
g3
Ntp108
Rp109
(dp110
g7
V029
p111
sg9
VNidoran\u2640
p112
sg11
g34
sg13
VGrass
p113
sg15
V12
p114
sg17
g114
sg19
V30
p115
sbag1
(g2
g3
Ntp116
Rp117
(dp118
g7
V032
p119
sg9
VNidoran\u2642
p120
sg11
g34
sg13
VGrass
p121
sg15
V12
p122
sg17
g122
sg19
V30
p123
sbag1
(g2
g3
Ntp124
Rp125
(dp126
g7
V048
p127
sg9
VVenonat
p128
sg11
g34
sg13
VGrass
p129
sg15
V10
p130
sg17
V12
p131
sg19
V10
p132
sbag1
(g2
g3
Ntp133
Rp134
(dp135
g7
V054
p136
sg9
VPsyduck
p137
sg11
g34
sg13
VGrass
p138
sg15
V12
p139
sg17
g139
sg19
V30
p140
sbag1
(g2
g3
Ntp141
Rp142
(dp143
g7
V163
p144
sg9
VHoothoot
p145
sg11
VG,S,
p146
sg13
VGrass
p147
sg15
V10
p148
sg17
V14
p149
sg19
V100
p150
sbag1
(g2
g3
Ntp151
Rp152
(dp153
g7
V163
p154
sg9
VHoothoot
p155
sg11
g34
sg13
VGrass
p156
sg15
V13
p157
sg17
V15
p158
sg19
V40
p159
sbag1
(g2
g3
Ntp160
Rp161
(dp162
g7
V165
p163
sg9
VLedyba
p164
sg11
g34
sg13
VGrass
p165
sg15
V14
p166
sg17
g166
sg19
V20
p167
sbag1
(g2
g3
Ntp168
Rp169
(dp170
g7
V167
p171
sg9
VSpinarak
p172
sg11
g34
sg13
VGrass
p173
sg15
V14
p174
sg17
g174
sg19
V20
p175
sbag1
(g2
g3
Ntp176
Rp177
(dp178
g7
V191
p179
sg9
VSunkern
p180
sg11
VG,S,
p181
sg13
VGrass
p182
sg15
V11
p183
sg17
V13
p184
sg19
V25
p185
sbag1
(g2
g3
Ntp186
Rp187
(dp188
g7
V191
p189
sg9
VSunkern
p190
sg11
g34
sg13
VGrass
p191
sg15
V14
p192
sg17
g192
sg19
V20
p193
sbag1
(g2
g3
Ntp194
Rp195
(dp196
g7
V010
p197
sg9
VCaterpie
p198
sg11
VG,S,C,
p199
sg13
VGrass
p200
sg15
V7
p201
sg17
V18
p202
sg19
V20
p203
sbag1
(g2
g3
Ntp204
Rp205
(dp206
g7
V011
p207
sg9
VMetapod
p208
sg11
VG,S,C,
p209
sg13
VGrass
p210
sg15
V9
p211
sg17
V18
p212
sg19
V10
p213
sbag1
(g2
g3
Ntp214
Rp215
(dp216
g7
V012
p217
sg9
VButterfree
p218
sg11
VG,S,C,
p219
sg13
VGrass
p220
sg15
V12
p221
sg17
V15
p222
sg19
V5
p223
sbag1
(g2
g3
Ntp224
Rp225
(dp226
g7
V013
p227
sg9
VWeedle
p228
sg11
VG,S,C,
p229
sg13
VGrass
p230
sg15
g201
sg17
V18
p231
sg19
V20
p232
sbag1
(g2
g3
Ntp233
Rp234
(dp235
g7
V014
p236
sg9
VKakuna
p237
sg11
VG,S,C,
p238
sg13
VGrass
p239
sg15
g211
sg17
V18
p240
sg19
V10
p241
sbag1
(g2
g3
Ntp242
Rp243
(dp244
g7
V015
p245
sg9
VBeedrill
p246
sg11
VG,S,C,
p247
sg13
VGrass
p248
sg15
V12
p249
sg17
V15
p250
sg19
V5
p251
sbag1
(g2
g3
Ntp252
Rp253
(dp254
g7
V046
p255
sg9
VParas
p256
sg11
VG,S,C,
p257
sg13
VGrass
p258
sg15
V10
p259
sg17
V17
p260
sg19
V10
p261
sbag1
(g2
g3
Ntp262
Rp263
(dp264
g7
V048
p265
sg9
VVenonat
p266
sg11
VG,S,C,
p267
sg13
VGrass
p268
sg15
V10
p269
sg17
V16
p270
sg19
V10
p271
sbag1
(g2
g3
Ntp272
Rp273
(dp274
g7
V123
p275
sg9
VScyther
p276
sg11
VG,S,C,
p277
sg13
VGrass
p278
sg15
V13
p279
sg17
V14
p280
sg19
V5
p281
sbag1
(g2
g3
Ntp282
Rp283
(dp284
g7
V127
p285
sg9
VPinsir
p286
sg11
VG,S,C,
p287
sg13
VGrass
p288
sg15
V13
p289
sg17
V14
p290
sg19
V5
p291
sbag1
(g2
g3
Ntp292
Rp293
(dp294
g7
V098
p295
sg9
VKrabby
p296
sg11
VG,S,C,
p297
sg13
VFish Super
p298
sg15
V40
p299
sg17
g299
sg19
V100
p300
sbag1
(g2
g3
Ntp301
Rp302
(dp303
g7
V010
p304
sg9
VCaterpie
p305
sg11
VHG,
p306
sg13
VGrass
p307
sg15
V10
p308
sg17
V12
p309
sg19
V50
p310
sbag1
(g2
g3
Ntp311
Rp312
(dp313
g7
V010
p314
sg9
VCaterpie
p315
sg11
g306
sg13
VGrass
p316
sg15
V10
p317
sg17
g317
sg19
V30
p318
sbag1
(g2
g3
Ntp319
Rp320
(dp321
g7
V011
p322
sg9
VMetapod
p323
sg11
g306
sg13
VGrass
p324
sg15
V10
p325
sg17
g325
sg19
V30
p326
sbag1
(g2
g3
Ntp327
Rp328
(dp329
g7
V013
p330
sg9
VWeedle
p331
sg11
VSS,
p332
sg13
VGrass
p333
sg15
V10
p334
sg17
V12
p335
sg19
V50
p336
sbag1
(g2
g3
Ntp337
Rp338
(dp339
g7
V013
p340
sg9
VWeedle
p341
sg11
g332
sg13
VGrass
p342
sg15
V10
p343
sg17
g343
sg19
V30
p344
sbag1
(g2
g3
Ntp345
Rp346
(dp347
g7
V014
p348
sg9
VKakuna
p349
sg11
g332
sg13
VGrass
p350
sg15
V10
p351
sg17
g351
sg19
V30
p352
sbag1
(g2
g3
Ntp353
Rp354
(dp355
g7
V016
p356
sg9
VPidgey
p357
sg11
VHG,SS,
p358
sg13
VGrass
p359
sg15
V10
p360
sg17
V14
p361
sg19
V20
p362
sbag1
(g2
g3
Ntp363
Rp364
(dp365
g7
V016
p366
sg9
VPidgey
p367
sg11
VHG,SS,
p368
sg13
VGrass
p369
sg15
V12
p370
sg17
V14
p371
sg19
V15
p372
sbag1
(g2
g3
Ntp373
Rp374
(dp375
g7
V163
p376
sg9
VHoothoot
p377
sg11
VHG,SS,
p378
sg13
VGrass
p379
sg15
V10
p380
sg17
V14
p381
sg19
V100
p382
sbag1
(g2
g3
Ntp383
Rp384
(dp385
g7
V191
p386
sg9
VSunkern
p387
sg11
VHG,SS,
p388
sg13
VGrass
p389
sg15
V12
p390
sg17
g390
sg19
V25
p391
sbag1
(g2
g3
Ntp392
Rp393
(dp394
g7
V102
p395
sg9
VExeggcute
p396
sg11
VHG,SS,
p397
sg13
VHeadbutt
p398
sg15
V10
p399
sg17
V15
p400
sg19
V20
p401
sbag1
(g2
g3
Ntp402
Rp403
(dp404
g7
V163
p405
sg9
VHoothoot
p406
sg11
VHG,SS,
p407
sg13
VHeadbutt
p408
sg15
V10
p409
sg17
V15
p410
sg19
V50
p411
sbag1
(g2
g3
Ntp412
Rp413
(dp414
g7
V165
p415
sg9
VLedyba
p416
sg11
g332
sg13
VHeadbutt
p417
sg15
V13
p418
sg17
V15
p419
sg19
V30
p420
sbag1
(g2
g3
Ntp421
Rp422
(dp423
g7
V167
p424
sg9
VSpinarak
p425
sg11
g306
sg13
VHeadbutt
p426
sg15
V13
p427
sg17
V15
p428
sg19
V30
p429
sbag1
(g2
g3
Ntp430
Rp431
(dp432
g7
V204
p433
sg9
VPineco
p434
sg11
VHG,SS,
p435
sg13
VHeadbutt
p436
sg15
V10
p437
sg17
V12
p438
sg19
V30
p439
sbag1
(g2
g3
Ntp440
Rp441
(dp442
g7
V102
p443
sg9
VExeggcute
p444
sg11
VHG,SS,
p445
sg13
VHeadbutt
p446
sg15
V18
p447
sg17
V20
p448
sg19
V65
p449
sbag1
(g2
g3
Ntp450
Rp451
(dp452
g7
V420
p453
sg9
VCherubi
p454
sg11
VHG,SS,
p455
sg13
VHeadbutt
p456
sg15
V18
p457
sg17
V25
p458
sg19
V35
p459
sbag1
(g2
g3
Ntp460
Rp461
(dp462
g7
V311
p463
sg9
VPlusle
p464
sg11
VHG,SS,
p465
sg13
VHoenn
p466
sg15
V10
p467
sg17
g467
sg19
V20
p468
sbag1
(g2
g3
Ntp469
Rp470
(dp471
g7
V312
p472
sg9
VMinun
p473
sg11
VHG,SS,
p474
sg13
VHoenn
p475
sg15
V12
p476
sg17
g476
sg19
V20
p477
sbag1
(g2
g3
Ntp478
Rp479
(dp480
g7
V403
p481
sg9
VShinx
p482
sg11
VHG,SS,
p483
sg13
VSinnoh
p484
sg15
V10
p485
sg17
V12
p486
sg19
V40
p487
sbag1
(g2
g3
Ntp488
Rp489
(dp490
g7
V010
p491
sg9
VCaterpie
p492
sg11
VHG,SS,
p493
sg13
VGrass
p494
sg15
g201
sg17
V18
p495
sg19
V20
p496
sbag1
(g2
g3
Ntp497
Rp498
(dp499
g7
V011
p500
sg9
VMetapod
p501
sg11
VHG,SS,
p502
sg13
VGrass
p503
sg15
g211
sg17
V18
p504
sg19
V10
p505
sbag1
(g2
g3
Ntp506
Rp507
(dp508
g7
V012
p509
sg9
VButterfree
p510
sg11
VHG,SS,
p511
sg13
VGrass
p512
sg15
V12
p513
sg17
V15
p514
sg19
V5
p515
sbag1
(g2
g3
Ntp516
Rp517
(dp518
g7
V013
p519
sg9
VWeedle
p520
sg11
VHG,SS,
p521
sg13
VGrass
p522
sg15
g201
sg17
V18
p523
sg19
V20
p524
sbag1
(g2
g3
Ntp525
Rp526
(dp527
g7
V014
p528
sg9
VKakuna
p529
sg11
VHG,SS,
p530
sg13
VGrass
p531
sg15
g211
sg17
V18
p532
sg19
V10
p533
sbag1
(g2
g3
Ntp534
Rp535
(dp536
g7
V015
p537
sg9
VBeedrill
p538
sg11
VHG,SS,
p539
sg13
VGrass
p540
sg15
V12
p541
sg17
V15
p542
sg19
V5
p543
sbag1
(g2
g3
Ntp544
Rp545
(dp546
g7
V046
p547
sg9
VParas
p548
sg11
VHG,SS,
p549
sg13
VGrass
p550
sg15
V10
p551
sg17
V17
p552
sg19
V10
p553
sbag1
(g2
g3
Ntp554
Rp555
(dp556
g7
V048
p557
sg9
VVenonat
p558
sg11
VHG,SS,
p559
sg13
VGrass
p560
sg15
V10
p561
sg17
V16
p562
sg19
V10
p563
sbag1
(g2
g3
Ntp564
Rp565
(dp566
g7
V123
p567
sg9
VScyther
p568
sg11
VHG,SS,
p569
sg13
VGrass
p570
sg15
V13
p571
sg17
V14
p572
sg19
V5
p573
sbag1
(g2
g3
Ntp574
Rp575
(dp576
g7
V127
p577
sg9
VPinsir
p578
sg11
VHG,SS,
p579
sg13
VGrass
p580
sg15
V13
p581
sg17
V14
p582
sg19
V5
p583
sbag1
(g2
g3
Ntp584
Rp585
(dp586
g7
V010
p587
sg9
VCaterpie
p588
sg11
VHG,SS,
p589
sg13
VGrass
p590
sg15
V24
p591
sg17
V36
p592
sg19
V20
p593
sbag1
(g2
g3
Ntp594
Rp595
(dp596
g7
V011
p597
sg9
VMetapod
p598
sg11
VHG,SS,
p599
sg13
VGrass
p600
sg15
V26
p601
sg17
V36
p602
sg19
V10
p603
sbag1
(g2
g3
Ntp604
Rp605
(dp606
g7
V012
p607
sg9
VButterfree
p608
sg11
VHG,SS,
p609
sg13
VGrass
p610
sg15
V27
p611
sg17
V30
p612
sg19
V5
p613
sbag1
(g2
g3
Ntp614
Rp615
(dp616
g7
V013
p617
sg9
VWeedle
p618
sg11
VHG,SS,
p619
sg13
VGrass
p620
sg15
V24
p621
sg17
V36
p622
sg19
V20
p623
sbag1
(g2
g3
Ntp624
Rp625
(dp626
g7
V014
p627
sg9
VKakuna
p628
sg11
VHG,SS,
p629
sg13
VGrass
p630
sg15
V26
p631
sg17
V36
p632
sg19
V10
p633
sbag1
(g2
g3
Ntp634
Rp635
(dp636
g7
V015
p637
sg9
VBeedrill
p638
sg11
VHG,SS,
p639
sg13
VGrass
p640
sg15
V27
p641
sg17
V30
p642
sg19
V5
p643
sbag1
(g2
g3
Ntp644
Rp645
(dp646
g7
V046
p647
sg9
VParas
p648
sg11
VHG,SS,
p649
sg13
VGrass
p650
sg15
V27
p651
sg17
V34
p652
sg19
V10
p653
sbag1
(g2
g3
Ntp654
Rp655
(dp656
g7
V048
p657
sg9
VVenonat
p658
sg11
VHG,SS,
p659
sg13
VGrass
p660
sg15
V25
p661
sg17
V32
p662
sg19
V10
p663
sbag1
(g2
g3
Ntp664
Rp665
(dp666
g7
V123
p667
sg9
VScyther
p668
sg11
VHG,SS,
p669
sg13
VGrass
p670
sg15
V27
p671
sg17
V28
p672
sg19
V5
p673
sbag1
(g2
g3
Ntp674
Rp675
(dp676
g7
V127
p677
sg9
VPinsir
p678
sg11
VHG,SS,
p679
sg13
VGrass
p680
sg15
V27
p681
sg17
V28
p682
sg19
V5
p683
sbag1
(g2
g3
Ntp684
Rp685
(dp686
g7
V123
p687
sg9
VScyther
p688
sg11
VHG,SS,
p689
sg13
VGrass
p690
sg15
V27
p691
sg17
V28
p692
sg19
V5
p693
sbag1
(g2
g3
Ntp694
Rp695
(dp696
g7
V127
p697
sg9
VPinsir
p698
sg11
VHG,SS,
p699
sg13
VGrass
p700
sg15
V27
p701
sg17
V28
p702
sg19
V5
p703
sbag1
(g2
g3
Ntp704
Rp705
(dp706
g7
V265
p707
sg9
VWurmple
p708
sg11
VHG,SS,
p709
sg13
VGrass
p710
sg15
V24
p711
sg17
V36
p712
sg19
V20
p713
sbag1
(g2
g3
Ntp714
Rp715
(dp716
g7
V266
p717
sg9
VSilcoon
p718
sg11
VHG,SS,
p719
sg13
VGrass
p720
sg15
V24
p721
sg17
V32
p722
sg19
V10
p723
sbag1
(g2
g3
Ntp724
Rp725
(dp726
g7
V269
p727
sg9
VDustox
p728
sg11
VHG,SS,
p729
sg13
VGrass
p730
sg15
V25
p731
sg17
V32
p732
sg19
V5
p733
sbag1
(g2
g3
Ntp734
Rp735
(dp736
g7
V290
p737
sg9
VNincada
p738
sg11
VHG,SS,
p739
sg13
VGrass
p740
sg15
V26
p741
sg17
V36
p742
sg19
V20
p743
sbag1
(g2
g3
Ntp744
Rp745
(dp746
g7
V313
p747
sg9
VVolbeat
p748
sg11
VHG,SS,
p749
sg13
VGrass
p750
sg15
V26
p751
sg17
V36
p752
sg19
V10
p753
sbag1
(g2
g3
Ntp754
Rp755
(dp756
g7
V401
p757
sg9
VKricketot
p758
sg11
VHG,SS,
p759
sg13
VGrass
p760
sg15
V27
p761
sg17
V30
p762
sg19
V10
p763
sbag1
(g2
g3
Ntp764
Rp765
(dp766
g7
V402
p767
sg9
VKricketune
p768
sg11
VHG,SS,
p769
sg13
VGrass
p770
sg15
V27
p771
sg17
V30
p772
sg19
V10
p773
sbag1
(g2
g3
Ntp774
Rp775
(dp776
g7
V415
p777
sg9
VCombee
p778
sg11
VHG,SS,
p779
sg13
VGrass
p780
sg15
V27
p781
sg17
V34
p782
sg19
V5
p783
sbag1
(g2
g3
Ntp784
Rp785
(dp786
g7
V123
p787
sg9
VScyther
p788
sg11
VHG,SS,
p789
sg13
VGrass
p790
sg15
V27
p791
sg17
V28
p792
sg19
V5
p793
sbag1
(g2
g3
Ntp794
Rp795
(dp796
g7
V127
p797
sg9
VPinsir
p798
sg11
VHG,SS,
p799
sg13
VGrass
p800
sg15
V27
p801
sg17
V28
p802
sg19
V5
p803
sbag1
(g2
g3
Ntp804
Rp805
(dp806
g7
V265
p807
sg9
VWurmple
p808
sg11
VHG,SS,
p809
sg13
VGrass
p810
sg15
V24
p811
sg17
V36
p812
sg19
V20
p813
sbag1
(g2
g3
Ntp814
Rp815
(dp816
g7
V267
p817
sg9
VBeautifly
p818
sg11
VHG,SS,
p819
sg13
VGrass
p820
sg15
V25
p821
sg17
V32
p822
sg19
V5
p823
sbag1
(g2
g3
Ntp824
Rp825
(dp826
g7
V268
p827
sg9
VCascoon
p828
sg11
VHG,SS,
p829
sg13
VGrass
p830
sg15
V24
p831
sg17
V35
p832
sg19
V10
p833
sbag1
(g2
g3
Ntp834
Rp835
(dp836
g7
V290
p837
sg9
VNincada
p838
sg11
VHG,SS,
p839
sg13
VGrass
p840
sg15
V26
p841
sg17
V36
p842
sg19
V20
p843
sbag1
(g2
g3
Ntp844
Rp845
(dp846
g7
V314
p847
sg9
VIllumise
p848
sg11
VHG,SS,
p849
sg13
VGrass
p850
sg15
V26
p851
sg17
V36
p852
sg19
V10
p853
sbag1
(g2
g3
Ntp854
Rp855
(dp856
g7
V401
p857
sg9
VKricketot
p858
sg11
VHG,SS,
p859
sg13
VGrass
p860
sg15
V27
p861
sg17
V30
p862
sg19
V10
p863
sbag1
(g2
g3
Ntp864
Rp865
(dp866
g7
V402
p867
sg9
VKricketune
p868
sg11
VHG,SS,
p869
sg13
VGrass
p870
sg15
V27
p871
sg17
V30
p872
sg19
V10
p873
sbag1
(g2
g3
Ntp874
Rp875
(dp876
g7
V415
p877
sg9
VCombee
p878
sg11
VHG,SS,
p879
sg13
VGrass
p880
sg15
V27
p881
sg17
V34
p882
sg19
V5
p883
sba.