(lp0
ccopy_reg
_reconstructor
p1
(c__main__
WildPokemon
p2
c__builtin__
object
p3
Ntp4
Rp5
(dp6
VpDexNo
p7
V072
p8
sVpSpecies
p9
VTentacool
p10
sVpGames
p11
VG,S,C,
p12
sVpArea
p13
VSurf
p14
sVpMinLevel
p15
V15
p16
sVpMaxLevel
p17
V24
p18
sVpRate
p19
V90
p20
sbag1
(g2
g3
Ntp21
Rp22
(dp23
g7
V073
p24
sg9
VTentacruel
p25
sg11
VG,S,C,
p26
sg13
VSurf
p27
sg15
V20
p28
sg17
V24
p29
sg19
V10
p30
sbag1
(g2
g3
Ntp31
Rp32
(dp33
g7
V072
p34
sg9
VTentacool
p35
sg11
VG,S,C,
p36
sg13
VFish Old
p37
sg15
V10
p38
sg17
g38
sg19
V15
p39
sbag1
(g2
g3
Ntp40
Rp41
(dp42
g7
V129
p43
sg9
VMagikarp
p44
sg11
VG,S,C,
p45
sg13
VFish Old
p46
sg15
V10
p47
sg17
g47
sg19
V85
p48
sbag1
(g2
g3
Ntp49
Rp50
(dp51
g7
V072
p52
sg9
VTentacool
p53
sg11
VG,S,C,
p54
sg13
VFish Good
p55
sg15
V20
p56
sg17
g56
sg19
V35
p57
sbag1
(g2
g3
Ntp58
Rp59
(dp60
g7
V090
p61
sg9
VShellder
p62
sg11
VG,S,C,
p63
sg13
VFish Good
p64
sg15
V20
p65
sg17
g65
sg19
V10
p66
sbag1
(g2
g3
Ntp67
Rp68
(dp69
g7
V129
p70
sg9
VMagikarp
p71
sg11
VG,S,C,
p72
sg13
VFish Good
p73
sg15
V20
p74
sg17
g74
sg19
V35
p75
sbag1
(g2
g3
Ntp76
Rp77
(dp78
g7
V170
p79
sg9
VChinchou
p80
sg11
VG,S,C,
p81
sg13
VFish Good
p82
sg15
V20
p83
sg17
g83
sg19
V20
p84
sbag1
(g2
g3
Ntp85
Rp86
(dp87
g7
V073
p88
sg9
VTentacruel
p89
sg11
VG,S,C,
p90
sg13
VFish Super
p91
sg15
V40
p92
sg17
g92
sg19
V20
p93
sbag1
(g2
g3
Ntp94
Rp95
(dp96
g7
V090
p97
sg9
VShellder
p98
sg11
VG,S,C,
p99
sg13
VFish Super
p100
sg15
V40
p101
sg17
g101
sg19
V30
p102
sbag1
(g2
g3
Ntp103
Rp104
(dp105
g7
V170
p106
sg9
VChinchou
p107
sg11
VG,S,C,
p108
sg13
VFish Super
p109
sg15
V40
p110
sg17
g110
sg19
V40
p111
sbag1
(g2
g3
Ntp112
Rp113
(dp114
g7
V171
p115
sg9
VLanturn
p116
sg11
VG,S,C,
p117
sg13
VFish Super
p118
sg15
V40
p119
sg17
g119
sg19
V10
p120
sbag1
(g2
g3
Ntp121
Rp122
(dp123
g7
V152
p124
sg9
VChikorita
p125
sg11
VG,S,C,
p126
sg13
VStarter
p127
sg15
V5
p128
sg17
g128
sg19
V0
p129
sbag1
(g2
g3
Ntp130
Rp131
(dp132
g7
V155
p133
sg9
VCyndaquil
p134
sg11
VG,S,C,
p135
sg13
VStarter
p136
sg15
g128
sg17
g128
sg19
V0
p137
sbag1
(g2
g3
Ntp138
Rp139
(dp140
g7
V158
p141
sg9
VTotodile
p142
sg11
VG,S,C,
p143
sg13
VStarter
p144
sg15
g128
sg17
g128
sg19
V0
p145
sbag1
(g2
g3
Ntp146
Rp147
(dp148
g7
V072
p149
sg9
VTentacool
p150
sg11
VHG,SS,
p151
sg13
VSurf
p152
sg15
V10
p153
sg17
V25
p154
sg19
V90
p155
sbag1
(g2
g3
Ntp156
Rp157
(dp158
g7
V073
p159
sg9
VTentacruel
p160
sg11
VHG,SS,
p161
sg13
VSurf
p162
sg15
V15
p163
sg17
V25
p164
sg19
V10
p165
sbag1
(g2
g3
Ntp166
Rp167
(dp168
g7
V072
p169
sg9
VTentacool
p170
sg11
VHG,SS,
p171
sg13
VFish Old
p172
sg15
V10
p173
sg17
g173
sg19
V5
p174
sbag1
(g2
g3
Ntp175
Rp176
(dp177
g7
V129
p178
sg9
VMagikarp
p179
sg11
VHG,SS,
p180
sg13
VFish Old
p181
sg15
V10
p182
sg17
g182
sg19
V95
p183
sbag1
(g2
g3
Ntp184
Rp185
(dp186
g7
V072
p187
sg9
VTentacool
p188
sg11
VHG,SS,
p189
sg13
VFish Good
p190
sg15
V20
p191
sg17
g191
sg19
V30
p192
sbag1
(g2
g3
Ntp193
Rp194
(dp195
g7
V090
p196
sg9
VShellder
p197
sg11
VHG,SS,
p198
sg13
VFish Good
p199
sg15
V20
p200
sg17
g200
sg19
V3
p201
sbag1
(g2
g3
Ntp202
Rp203
(dp204
g7
V129
p205
sg9
VMagikarp
p206
sg11
VHG,SS,
p207
sg13
VFish Good
p208
sg15
V20
p209
sg17
g209
sg19
V60
p210
sbag1
(g2
g3
Ntp211
Rp212
(dp213
g7
V170
p214
sg9
VChinchou
p215
sg11
VHG,SS,
p216
sg13
VFish Good
p217
sg15
V20
p218
sg17
g218
sg19
V7
p219
sbag1
(g2
g3
Ntp220
Rp221
(dp222
g7
V073
p223
sg9
VTentacruel
p224
sg11
VHG,SS,
p225
sg13
VFish Super
p226
sg15
V40
p227
sg17
g227
sg19
V7
p228
sbag1
(g2
g3
Ntp229
Rp230
(dp231
g7
V090
p232
sg9
VShellder
p233
sg11
VHG,SS,
p234
sg13
VFish Super
p235
sg15
V40
p236
sg17
g236
sg19
V30
p237
sbag1
(g2
g3
Ntp238
Rp239
(dp240
g7
V170
p241
sg9
VChinchou
p242
sg11
VHG,SS,
p243
sg13
VFish Super
p244
sg15
V40
p245
sg17
g245
sg19
V60
p246
sbag1
(g2
g3
Ntp247
Rp248
(dp249
g7
V171
p250
sg9
VLanturn
p251
sg11
VHG,SS,
p252
sg13
VFish Super
p253
sg15
V40
p254
sg17
g254
sg19
V3
p255
sbag1
(g2
g3
Ntp256
Rp257
(dp258
g7
V102
p259
sg9
VExeggcute
p260
sg11
VHG,SS,
p261
sg13
VHeadbutt
p262
sg15
V2
p263
sg17
V3
p264
sg19
V20
p265
sbag1
(g2
g3
Ntp266
Rp267
(dp268
g7
V163
p269
sg9
VHoothoot
p270
sg11
VHG,SS,
p271
sg13
VHeadbutt
p272
sg15
g263
sg17
g264
sg19
V50
p273
sbag1
(g2
g3
Ntp274
Rp275
(dp276
g7
V204
p277
sg9
VPineco
p278
sg11
VHG,SS,
p279
sg13
VHeadbutt
p280
sg15
g263
sg17
g264
sg19
V30
p281
sbag1
(g2
g3
Ntp282
Rp283
(dp284
g7
V102
p285
sg9
VExeggcute
p286
sg11
VHG,SS,
p287
sg13
VHeadbutt
p288
sg15
V4
p289
sg17
g128
sg19
V20
p290
sbag1
(g2
g3
Ntp291
Rp292
(dp293
g7
V163
p294
sg9
VHoothoot
p295
sg11
VHG,SS,
p296
sg13
VHeadbutt
p297
sg15
g289
sg17
g128
sg19
V50
p298
sbag1
(g2
g3
Ntp299
Rp300
(dp301
g7
V165
p302
sg9
VLedyba
p303
sg11
VSS,
p304
sg13
VHeadbutt
p305
sg15
g289
sg17
g128
sg19
V30
p306
sbag1
(g2
g3
Ntp307
Rp308
(dp309
g7
V167
p310
sg9
VSpinarak
p311
sg11
VHG,
p312
sg13
VHeadbutt
p313
sg15
g289
sg17
g128
sg19
V30
p314
sbag1
(g2
g3
Ntp315
Rp316
(dp317
g7
V152
p318
sg9
VChikorita
p319
sg11
VHG,SS,
p320
sg13
VStarter
p321
sg15
g128
sg17
g128
sg19
V0
p322
sbag1
(g2
g3
Ntp323
Rp324
(dp325
g7
V155
p326
sg9
VCyndaquil
p327
sg11
VHG,SS,
p328
sg13
VStarter
p329
sg15
g128
sg17
g128
sg19
V0
p330
sbag1
(g2
g3
Ntp331
Rp332
(dp333
g7
V158
p334
sg9
VTotodile
p335
sg11
VHG,SS,
p336
sg13
VStarter
p337
sg15
g128
sg17
g128
sg19
V0
p338
sba.