(lp0
ccopy_reg
_reconstructor
p1
(c__main__
WildPokemon
p2
c__builtin__
object
p3
Ntp4
Rp5
(dp6
VpDexNo
p7
V081
p8
sVpSpecies
p9
VMagnemite
p10
sVpGames
p11
VRu,S,E,
p12
sVpArea
p13
VEntrance
p14
sVpMinLevel
p15
V22
p16
sVpMaxLevel
p17
V26
p18
sVpRate
p19
V50
p20
sbag1
(g2
g3
Ntp21
Rp22
(dp23
g7
V100
p24
sg9
VVoltorb
p25
sg11
VRu,S,E,
p26
sg13
VEntrance
p27
sg15
V22
p28
sg17
V26
p29
sg19
V50
p30
sbag1
(g2
g3
Ntp31
Rp32
(dp33
g7
V081
p34
sg9
VMagnemite
p35
sg11
VRu,S,E,
p36
sg13
VBasement
p37
sg15
V22
p38
sg17
V26
p39
sg19
V49
p40
sbag1
(g2
g3
Ntp41
Rp42
(dp43
g7
V082
p44
sg9
VMagneton
p45
sg11
VRu,S,E,
p46
sg13
VBasement
p47
sg15
V26
p48
sg17
g48
sg19
V1
p49
sbag1
(g2
g3
Ntp50
Rp51
(dp52
g7
V100
p53
sg9
VVoltorb
p54
sg11
VRu,S,E,
p55
sg13
VBasement
p56
sg15
V22
p57
sg17
V26
p58
sg19
V49
p59
sbag1
(g2
g3
Ntp60
Rp61
(dp62
g7
V101
p63
sg9
VElectrode
p64
sg11
VRu,S,E,
p65
sg13
VBasement
p66
sg15
V26
p67
sg17
g67
sg19
V1
p68
sbag1
(g2
g3
Ntp69
Rp70
(dp71
g7
V100
p72
sg9
VVoltorb
p73
sg11
VRu,S,E,
p74
sg13
VFake
p75
sg15
V25
p76
sg17
g76
sg19
V0
p77
sbag1
(g2
g3
Ntp78
Rp79
(dp80
g7
V081
p81
sg9
VMagnemite
p82
sg11
VOR,AS,
p83
sg13
VCave
p84
sg15
V22
p85
sg17
V25
p86
sg19
V50
p87
sbag1
(g2
g3
Ntp88
Rp89
(dp90
g7
V100
p91
sg9
VVoltorb
p92
sg11
VOR,AS,
p93
sg13
VCave
p94
sg15
V22
p95
sg17
V25
p96
sg19
V50
p97
sbag1
(g2
g3
Ntp98
Rp99
(dp100
g7
V081
p101
sg9
VMagnemite
p102
sg11
VOR,AS,
p103
sg13
VHorde Encounter
p104
sg15
V12
p105
sg17
g105
sg19
V35
p106
sbag1
(g2
g3
Ntp107
Rp108
(dp109
g7
V100
p110
sg9
VVoltorb
p111
sg11
VOR,AS,
p112
sg13
VHorde Encounter
p113
sg15
V12
p114
sg17
g114
sg19
V65
p115
sbag1
(g2
g3
Ntp116
Rp117
(dp118
g7
V100
p119
sg9
VVoltorb
p120
sg11
VOR,AS,
p121
sg13
VFake
p122
sg15
V25
p123
sg17
g123
sg19
V0
p124
sba.