(lp0
ccopy_reg
_reconstructor
p1
(c__main__
WildPokemon
p2
c__builtin__
object
p3
Ntp4
Rp5
(dp6
VpDexNo
p7
V052
p8
sVpSpecies
p9
VMeowth
p10
sVpGames
p11
VB2,W2,
p12
sVpArea
p13
VTrade
p14
sVpMinLevel
p15
V50
p16
sVpMaxLevel
p17
g16
sVpRate
p18
V0
p19
sbag1
(g2
g3
Ntp20
Rp21
(dp22
g7
V202
p23
sg9
VWobbuffet
p24
sg11
VB2,W2,
p25
sg13
VTrade
p26
sg15
V50
p27
sg17
g27
sg18
V0
p28
sbag1
(g2
g3
Ntp29
Rp30
(dp31
g7
V280
p32
sg9
VRalts
p33
sg11
VB2,W2,
p34
sg13
VTrade
p35
sg15
V50
p36
sg17
g36
sg18
V0
p37
sbag1
(g2
g3
Ntp38
Rp39
(dp40
g7
V410
p41
sg9
VShieldon
p42
sg11
VB2,W2,
p43
sg13
VTrade
p44
sg15
V50
p45
sg17
g45
sg18
V0
p46
sbag1
(g2
g3
Ntp47
Rp48
(dp49
g7
V111
p50
sg9
VRhyhorn
p51
sg11
VB2,W2,
p52
sg13
VTrade
p53
sg15
V50
p54
sg17
g54
sg18
V0
p55
sbag1
(g2
g3
Ntp56
Rp57
(dp58
g7
V422
p59
sg9
VShellos
p60
sg11
VB2,W2,
p61
sg13
VTrade
p62
sg15
V50
p63
sg17
g63
sg18
V0
p64
sbag1
(g2
g3
Ntp65
Rp66
(dp67
g7
V303
p68
sg9
VMawile
p69
sg11
VB2,W2,
p70
sg13
VTrade
p71
sg15
V50
p72
sg17
g72
sg18
V0
p73
sbag1
(g2
g3
Ntp74
Rp75
(dp76
g7
V442
p77
sg9
VSpiritomb
p78
sg11
VB2,W2,
p79
sg13
VTrade
p80
sg15
V50
p81
sg17
g81
sg18
V0
p82
sbag1
(g2
g3
Ntp83
Rp84
(dp85
g7
V143
p86
sg9
VSnorlax
p87
sg11
VB2,W2,
p88
sg13
VTrade
p89
sg15
V50
p90
sg17
g90
sg18
V0
p91
sbag1
(g2
g3
Ntp92
Rp93
(dp94
g7
V216
p95
sg9
VTeddiursa
p96
sg11
VB2,W2,
p97
sg13
VTrade
p98
sg15
V50
p99
sg17
g99
sg18
V0
p100
sbag1
(g2
g3
Ntp101
Rp102
(dp103
g7
V327
p104
sg9
VSpinda
p105
sg11
VB2,W2,
p106
sg13
VTrade
p107
sg15
V50
p108
sg17
g108
sg18
V0
p109
sbag1
(g2
g3
Ntp110
Rp111
(dp112
g7
V175
p113
sg9
VTogepi
p114
sg11
VB2,W2,
p115
sg13
VTrade
p116
sg15
V50
p117
sg17
g117
sg18
V0
p118
sbag1
(g2
g3
Ntp119
Rp120
(dp121
g7
V056
p122
sg9
VMankey
p123
sg11
VB2,W2,
p124
sg13
VTrade
p125
sg15
V50
p126
sg17
g126
sg18
V0
p127
sbag1
(g2
g3
Ntp128
Rp129
(dp130
g7
V202
p131
sg9
VWobbuffet
p132
sg11
VB2,W2,
p133
sg13
VTrade
p134
sg15
V50
p135
sg17
g135
sg18
V0
p136
sbag1
(g2
g3
Ntp137
Rp138
(dp139
g7
V280
p140
sg9
VRalts
p141
sg11
VB2,W2,
p142
sg13
VTrade
p143
sg15
V50
p144
sg17
g144
sg18
V0
p145
sbag1
(g2
g3
Ntp146
Rp147
(dp148
g7
V408
p149
sg9
VCranidos
p150
sg11
VB2,W2,
p151
sg13
VTrade
p152
sg15
V50
p153
sg17
g153
sg18
V0
p154
sbag1
(g2
g3
Ntp155
Rp156
(dp157
g7
V111
p158
sg9
VRhyhorn
p159
sg11
VB2,W2,
p160
sg13
VTrade
p161
sg15
V50
p162
sg17
g162
sg18
V0
p163
sbag1
(g2
g3
Ntp164
Rp165
(dp166
g7
V422
p167
sg9
VShellos
p168
sg11
VB2,W2,
p169
sg13
VTrade
p170
sg15
V50
p171
sg17
g171
sg18
V0
p172
sbag1
(g2
g3
Ntp173
Rp174
(dp175
g7
V302
p176
sg9
VSableye
p177
sg11
VB2,W2,
p178
sg13
VTrade
p179
sg15
V50
p180
sg17
g180
sg18
V0
p181
sbag1
(g2
g3
Ntp182
Rp183
(dp184
g7
V442
p185
sg9
VSpiritomb
p186
sg11
VB2,W2,
p187
sg13
VTrade
p188
sg15
V50
p189
sg17
g189
sg18
V0
p190
sbag1
(g2
g3
Ntp191
Rp192
(dp193
g7
V143
p194
sg9
VSnorlax
p195
sg11
VB2,W2,
p196
sg13
VTrade
p197
sg15
V50
p198
sg17
g198
sg18
V0
p199
sbag1
(g2
g3
Ntp200
Rp201
(dp202
g7
V231
p203
sg9
VPhanpy
p204
sg11
VB2,W2,
p205
sg13
VTrade
p206
sg15
V50
p207
sg17
g207
sg18
V0
p208
sbag1
(g2
g3
Ntp209
Rp210
(dp211
g7
V327
p212
sg9
VSpinda
p213
sg11
VB2,W2,
p214
sg13
VTrade
p215
sg15
V50
p216
sg17
g216
sg18
V0
p217
sbag1
(g2
g3
Ntp218
Rp219
(dp220
g7
V175
p221
sg9
VTogepi
p222
sg11
VB2,W2,
p223
sg13
VTrade
p224
sg15
V50
p225
sg17
g225
sg18
V0
p226
sba.