(lp0
ccopy_reg
_reconstructor
p1
(c__main__
WildPokemon
p2
c__builtin__
object
p3
Ntp4
Rp5
(dp6
VpDexNo
p7
V066
p8
sVpSpecies
p9
VMachop
p10
sVpGames
p11
VSw,Sh,
p12
sVpArea
p13
VGrass
p14
sVpMinLevel
p15
V14
p16
sVpMaxLevel
p17
V16
p18
sVpRate
p19
V0
p20
sbag1
(g2
g3
Ntp21
Rp22
(dp23
g7
V092
p24
sg9
VGastly
p25
sg11
VSw,Sh,
p26
sg13
VGrass
p27
sg15
V14
p28
sg17
V16
p29
sg19
g20
sbag1
(g2
g3
Ntp30
Rp31
(dp32
g7
V177
p33
sg9
VNatu
p34
sg11
VSw,Sh,
p35
sg13
VGrass
p36
sg15
V14
p37
sg17
V16
p38
sg19
g20
sbag1
(g2
g3
Ntp39
Rp40
(dp41
g7
V225
p42
sg9
VDelibird
p43
sg11
VSw,
p44
sg13
VGrass
p45
sg15
V14
p46
sg17
V15
p47
sg19
g20
sbag1
(g2
g3
Ntp48
Rp49
(dp50
g7
V225
p51
sg9
VDelibird
p52
sg11
VSh,
p53
sg13
VGrass
p54
sg15
V14
p55
sg17
V16
p56
sg19
g20
sbag1
(g2
g3
Ntp57
Rp58
(dp59
g7
V280
p60
sg9
VRalts
p61
sg11
VSw,Sh,
p62
sg13
VGrass
p63
sg15
V14
p64
sg17
V16
p65
sg19
g20
sbag1
(g2
g3
Ntp66
Rp67
(dp68
g7
V343
p69
sg9
VBaltoy
p70
sg11
VSw,Sh,
p71
sg13
VGrass
p72
sg15
V14
p73
sg17
V16
p74
sg19
g20
sbag1
(g2
g3
Ntp75
Rp76
(dp77
g7
V361
p78
sg9
VSnorunt
p79
sg11
g44
sg13
VGrass
p80
sg15
V14
p81
sg17
V15
p82
sg19
g20
sbag1
(g2
g3
Ntp83
Rp84
(dp85
g7
V361
p86
sg9
VSnorunt
p87
sg11
g44
sg13
VGrass
p88
sg15
V14
p89
sg17
V16
p90
sg19
g20
sbag1
(g2
g3
Ntp91
Rp92
(dp93
g7
V361
p94
sg9
VSnorunt
p95
sg11
g53
sg13
VGrass
p96
sg15
V14
p97
sg17
V16
p98
sg19
g20
sbag1
(g2
g3
Ntp99
Rp100
(dp101
g7
V434
p102
sg9
VStunky
p103
sg11
g44
sg13
VGrass
p104
sg15
V14
p105
sg17
V15
p106
sg19
g20
sbag1
(g2
g3
Ntp107
Rp108
(dp109
g7
V434
p110
sg9
VStunky
p111
sg11
g44
sg13
VGrass
p112
sg15
V14
p113
sg17
V16
p114
sg19
g20
sbag1
(g2
g3
Ntp115
Rp116
(dp117
g7
V434
p118
sg9
VStunky
p119
sg11
g53
sg13
VGrass
p120
sg15
V14
p121
sg17
V16
p122
sg19
g20
sbag1
(g2
g3
Ntp123
Rp124
(dp125
g7
V459
p126
sg9
VSnover
p127
sg11
g44
sg13
VGrass
p128
sg15
V14
p129
sg17
V15
p130
sg19
g20
sbag1
(g2
g3
Ntp131
Rp132
(dp133
g7
V459
p134
sg9
VSnover
p135
sg11
g44
sg13
VGrass
p136
sg15
V14
p137
sg17
V16
p138
sg19
g20
sbag1
(g2
g3
Ntp139
Rp140
(dp141
g7
V459
p142
sg9
VSnover
p143
sg11
g53
sg13
VGrass
p144
sg15
V14
p145
sg17
V16
p146
sg19
g20
sbag1
(g2
g3
Ntp147
Rp148
(dp149
g7
V519
p150
sg9
VPidove
p151
sg11
VSw,Sh,
p152
sg13
VGrass
p153
sg15
V14
p154
sg17
V16
p155
sg19
g20
sbag1
(g2
g3
Ntp156
Rp157
(dp158
g7
V535
p159
sg9
VTympole
p160
sg11
VSw,Sh,
p161
sg13
VGrass
p162
sg15
V14
p163
sg17
V16
p164
sg19
g20
sbag1
(g2
g3
Ntp165
Rp166
(dp167
g7
V557
p168
sg9
VDwebble
p169
sg11
VSw,Sh,
p170
sg13
VGrass
p171
sg15
V14
p172
sg17
V16
p173
sg19
g20
sbag1
(g2
g3
Ntp174
Rp175
(dp176
g7
V595
p177
sg9
VJoltik
p178
sg11
VSw,Sh,
p179
sg13
VGrass
p180
sg15
V14
p181
sg17
V16
p182
sg19
g20
sbag1
(g2
g3
Ntp183
Rp184
(dp185
g7
V660
p186
sg9
VDiggersby
p187
sg11
VSw,Sh,
p188
sg13
VGrass
p189
sg15
V14
p190
sg17
V16
p191
sg19
g20
sbag1
(g2
g3
Ntp192
Rp193
(dp194
g7
V736
p195
sg9
VGrubbin
p196
sg11
VSw,Sh,
p197
sg13
VGrass
p198
sg15
V14
p199
sg17
V16
p200
sg19
g20
sbag1
(g2
g3
Ntp201
Rp202
(dp203
g7
V749
p204
sg9
VMudbray
p205
sg11
VSw,Sh,
p206
sg13
VGrass
p207
sg15
V14
p208
sg17
V16
p209
sg19
g20
sbag1
(g2
g3
Ntp210
Rp211
(dp212
g7
V759
p213
sg9
VStufful
p214
sg11
VSw,Sh,
p215
sg13
VGrass
p216
sg15
V14
p217
sg17
V16
p218
sg19
g20
sbag1
(g2
g3
Ntp219
Rp220
(dp221
g7
V420
p222
sg9
VCherubi
p223
sg11
VSw,Sh,
p224
sg13
VBerry tree
p225
sg15
V14
p226
sg17
V16
p227
sg19
V50
p228
sbag1
(g2
g3
Ntp229
Rp230
(dp231
g7
V819
p232
sg9
VSkwovet
p233
sg11
VSw,Sh,
p234
sg13
VBerry tree
p235
sg15
V14
p236
sg17
V16
p237
sg19
V50
p238
sbag1
(g2
g3
Ntp239
Rp240
(dp241
g7
V129
p242
sg9
VMagikarp
p243
sg11
VSw,Sh,
p244
sg13
VFishing
p245
sg15
V14
p246
sg17
V16
p247
sg19
V58
p248
sbag1
(g2
g3
Ntp249
Rp250
(dp251
g7
V339
p252
sg9
VBarboach
p253
sg11
VSw,Sh,
p254
sg13
VFishing
p255
sg15
V14
p256
sg17
V16
p257
sg19
V40
p258
sbag1
(g2
g3
Ntp259
Rp260
(dp261
g7
V550
p262
sg9
VBasculin
p263
sg11
g44
sg13
VFishing
p264
sg15
V14
p265
sg17
V16
p266
sg19
V2
p267
sbag1
(g2
g3
Ntp268
Rp269
(dp270
g7
V550
p271
sg9
VBasculin
p272
sg11
g53
sg13
VFishing
p273
sg15
V14
p274
sg17
V16
p275
sg19
V2
p276
sbag1
(g2
g3
Ntp277
Rp278
(dp279
g7
V037
p280
sg9
VVulpix
p281
sg11
g44
sg13
VGrass
p282
sg15
V26
p283
sg17
V28
p284
sg19
g20
sbag1
(g2
g3
Ntp285
Rp286
(dp287
g7
V044
p288
sg9
VGloom
p289
sg11
VSw,Sh,
p290
sg13
VGrass
p291
sg15
V26
p292
sg17
V28
p293
sg19
g20
sbag1
(g2
g3
Ntp294
Rp295
(dp296
g7
V058
p297
sg9
VGrowlithe
p298
sg11
g53
sg13
VGrass
p299
sg15
V26
p300
sg17
V28
p301
sg19
g20
sbag1
(g2
g3
Ntp302
Rp303
(dp304
g7
V225
p305
sg9
VDelibird
p306
sg11
VSw,Sh,
p307
sg13
VGrass
p308
sg15
V26
p309
sg17
V28
p310
sg19
g20
sbag1
(g2
g3
Ntp311
Rp312
(dp313
g7
V280
p314
sg9
VRalts
p315
sg11
VSw,Sh,
p316
sg13
VGrass
p317
sg15
V26
p318
sg17
V28
p319
sg19
g20
sbag1
(g2
g3
Ntp320
Rp321
(dp322
g7
V361
p323
sg9
VSnorunt
p324
sg11
VSw,Sh,
p325
sg13
VGrass
p326
sg15
V26
p327
sg17
V28
p328
sg19
g20
sbag1
(g2
g3
Ntp329
Rp330
(dp331
g7
V425
p332
sg9
VDrifloon
p333
sg11
VSw,Sh,
p334
sg13
VGrass
p335
sg15
V26
p336
sg17
V28
p337
sg19
g20
sbag1
(g2
g3
Ntp338
Rp339
(dp340
g7
V434
p341
sg9
VStunky
p342
sg11
VSw,Sh,
p343
sg13
VGrass
p344
sg15
V26
p345
sg17
V28
p346
sg19
g20
sbag1
(g2
g3
Ntp347
Rp348
(dp349
g7
V509
p350
sg9
VPurrloin
p351
sg11
VSw,Sh,
p352
sg13
VGrass
p353
sg15
V26
p354
sg17
V28
p355
sg19
g20
sbag1
(g2
g3
Ntp356
Rp357
(dp358
g7
V536
p359
sg9
VPalpitoad
p360
sg11
VSw,Sh,
p361
sg13
VGrass
p362
sg15
V26
p363
sg17
V28
p364
sg19
g20
sbag1
(g2
g3
Ntp365
Rp366
(dp367
g7
V557
p368
sg9
VDwebble
p369
sg11
VSw,Sh,
p370
sg13
VGrass
p371
sg15
V26
p372
sg17
V28
p373
sg19
g20
sbag1
(g2
g3
Ntp374
Rp375
(dp376
g7
V582
p377
sg9
VVanillite
p378
sg11
VSw,Sh,
p379
sg13
VGrass
p380
sg15
V26
p381
sg17
V28
p382
sg19
g20
sbag1
(g2
g3
Ntp383
Rp384
(dp385
g7
V599
p386
sg9
VKlink
p387
sg11
VSw,Sh,
p388
sg13
VGrass
p389
sg15
V26
p390
sg17
V28
p391
sg19
g20
sbag1
(g2
g3
Ntp392
Rp393
(dp394
g7
V622
p395
sg9
VGolett
p396
sg11
VSw,Sh,
p397
sg13
VGrass
p398
sg15
V26
p399
sg17
V28
p400
sg19
g20
sbag1
(g2
g3
Ntp401
Rp402
(dp403
g7
V659
p404
sg9
VBunnelby
p405
sg11
VSw,Sh,
p406
sg13
VGrass
p407
sg15
V26
p408
sg17
V28
p409
sg19
g20
sbag1
(g2
g3
Ntp410
Rp411
(dp412
g7
V118
p413
sg9
VGoldeen
p414
sg11
VSw,Sh,
p415
sg13
VSurf
p416
sg15
V42
p417
sg17
V45
p418
sg19
g20
sbag1
(g2
g3
Ntp419
Rp420
(dp421
g7
V278
p422
sg9
VWingull
p423
sg11
VSw,Sh,
p424
sg13
VSurf
p425
sg15
V42
p426
sg17
V45
p427
sg19
g20
sbag1
(g2
g3
Ntp428
Rp429
(dp430
g7
V339
p431
sg9
VBarboach
p432
sg11
VSw,Sh,
p433
sg13
VSurf
p434
sg15
V42
p435
sg17
V45
p436
sg19
g20
sbag1
(g2
g3
Ntp437
Rp438
(dp439
g7
V425
p440
sg9
VDrifloon
p441
sg11
VSw,Sh,
p442
sg13
VSurf
p443
sg15
V42
p444
sg17
V45
p445
sg19
g20
sbag1
(g2
g3
Ntp446
Rp447
(dp448
g7
V582
p449
sg9
VVanillite
p450
sg11
VSw,Sh,
p451
sg13
VSurf
p452
sg15
V42
p453
sg17
V45
p454
sg19
g20
sbag1
(g2
g3
Ntp455
Rp456
(dp457
g7
V592
p458
sg9
VFrillish
p459
sg11
VSw,Sh,
p460
sg13
VSurf
p461
sg15
V42
p462
sg17
V45
p463
sg19
g20
sbag1
(g2
g3
Ntp464
Rp465
(dp466
g7
V823
p467
sg9
VCorviknight
p468
sg11
VSw,Sh,
p469
sg13
VWanderer
p470
sg15
V50
p471
sg17
g471
sg19
V0
p472
sbag1
(g2
g3
Ntp473
Rp474
(dp475
g7
V836
p476
sg9
VBoltund
p477
sg11
VSw,Sh,
p478
sg13
VWanderer
p479
sg15
V65
p480
sg17
g480
sg19
V0
p481
sbag1
(g2
g3
Ntp482
Rp483
(dp484
g7
V426
p485
sg9
VDrifblim
p486
sg11
VSw,Sh,
p487
sg13
VWanderer
p488
sg15
V36
p489
sg17
g489
sg19
g20
sbag1
(g2
g3
Ntp490
Rp491
(dp492
g7
V435
p493
sg9
VSkuntank
p494
sg11
VSw,Sh,
p495
sg13
VWanderer
p496
sg15
V36
p497
sg17
g497
sg19
g20
sbag1
(g2
g3
Ntp498
Rp499
(dp500
g7
V448
p501
sg9
VLucario
p502
sg11
VSw,Sh,
p503
sg13
VWanderer
p504
sg15
V36
p505
sg17
g505
sg19
g20
sbag1
(g2
g3
Ntp506
Rp507
(dp508
g7
V537
p509
sg9
VSeismitoad
p510
sg11
VSw,Sh,
p511
sg13
VWanderer
p512
sg15
V36
p513
sg17
g513
sg19
g20
sbag1
(g2
g3
Ntp514
Rp515
(dp516
g7
V583
p517
sg9
VVanillish
p518
sg11
VSw,Sh,
p519
sg13
VWanderer
p520
sg15
V36
p521
sg17
g521
sg19
g20
sbag1
(g2
g3
Ntp522
Rp523
(dp524
g7
V178
p525
sg9
VXatu
p526
sg11
VSw,Sh,
p527
sg13
VWanderer
p528
sg15
V26
p529
sg17
g529
sg19
g20
sbag1
(g2
g3
Ntp530
Rp531
(dp532
g7
V279
p533
sg9
VPelipper
p534
sg11
VSw,Sh,
p535
sg13
VWanderer
p536
sg15
V26
p537
sg17
g537
sg19
g20
sbag1
(g2
g3
Ntp538
Rp539
(dp540
g7
V510
p541
sg9
VLiepard
p542
sg11
VSw,Sh,
p543
sg13
VWanderer
p544
sg15
V28
p545
sg17
g545
sg19
V0
p546
sbag1
(g2
g3
Ntp547
Rp548
(dp549
g7
V130
p550
sg9
VGyarados
p551
sg11
VSw,Sh,
p552
sg13
VWanderer
p553
sg15
V56
p554
sg17
g554
sg19
g20
sbag1
(g2
g3
Ntp555
Rp556
(dp557
g7
V131
p558
sg9
VLapras
p559
sg11
VSw,Sh,
p560
sg13
VWanderer
p561
sg15
V56
p562
sg17
g562
sg19
g20
sbag1
(g2
g3
Ntp563
Rp564
(dp565
g7
V119
p566
sg9
VSeaking
p567
sg11
VSw,Sh,
p568
sg13
VWanderer
p569
sg15
V46
p570
sg17
g570
sg19
g20
sbag1
(g2
g3
Ntp571
Rp572
(dp573
g7
V279
p574
sg9
VPelipper
p575
sg11
VSw,Sh,
p576
sg13
VWanderer
p577
sg15
V46
p578
sg17
g578
sg19
g20
sbag1
(g2
g3
Ntp579
Rp580
(dp581
g7
V584
p582
sg9
VVanilluxe
p583
sg11
VSw,Sh,
p584
sg13
VWanderer
p585
sg15
V47
p586
sg17
g586
sg19
g20
sbag1
(g2
g3
Ntp587
Rp588
(dp589
g7
V593
p590
sg9
VJellicent
p591
sg11
VSw,Sh,
p592
sg13
VWanderer
p593
sg15
V46
p594
sg17
g594
sg19
g20
sbag1
(g2
g3
Ntp595
Rp596
(dp597
g7
V119
p598
sg9
VSeaking
p599
sg11
VSw,Sh,
p600
sg13
VWanderer
p601
sg15
V46
p602
sg17
g602
sg19
g20
sbag1
(g2
g3
Ntp603
Rp604
(dp605
g7
V340
p606
sg9
VWhiscash
p607
sg11
VSw,Sh,
p608
sg13
VWanderer
p609
sg15
V46
p610
sg17
g610
sg19
g20
sbag1
(g2
g3
Ntp611
Rp612
(dp613
g7
V426
p614
sg9
VDrifblim
p615
sg11
VSw,Sh,
p616
sg13
VWanderer
p617
sg15
V46
p618
sg17
g618
sg19
g20
sbag1
(g2
g3
Ntp619
Rp620
(dp621
g7
V584
p622
sg9
VVanilluxe
p623
sg11
VSw,Sh,
p624
sg13
VWanderer
p625
sg15
V47
p626
sg17
g626
sg19
g20
sbag1
(g2
g3
Ntp627
Rp628
(dp629
g7
V279
p630
sg9
VPelipper
p631
sg11
VSw,Sh,
p632
sg13
VWanderer
p633
sg15
V46
p634
sg17
g634
sg19
g20
sbag1
(g2
g3
Ntp635
Rp636
(dp637
g7
V340
p638
sg9
VWhiscash
p639
sg11
VSw,Sh,
p640
sg13
VWanderer
p641
sg15
V46
p642
sg17
g642
sg19
g20
sbag1
(g2
g3
Ntp643
Rp644
(dp645
g7
V426
p646
sg9
VDrifblim
p647
sg11
VSw,Sh,
p648
sg13
VWanderer
p649
sg15
V46
p650
sg17
g650
sg19
g20
sbag1
(g2
g3
Ntp651
Rp652
(dp653
g7
V584
p654
sg9
VVanilluxe
p655
sg11
VSw,Sh,
p656
sg13
VWanderer
p657
sg15
V47
p658
sg17
g658
sg19
g20
sba.