(lp0
ccopy_reg
_reconstructor
p1
(c__main__
WildPokemon
p2
c__builtin__
object
p3
Ntp4
Rp5
(dp6
VpDexNo
p7
V495
p8
sVpSpecies
p9
VSnivy
p10
sVpGames
p11
VB,W,
p12
sVpArea
p13
VStarter
p14
sVpMinLevel
p15
V5
p16
sVpMaxLevel
p17
g16
sVpRate
p18
V0
p19
sbag1
(g2
g3
Ntp20
Rp21
(dp22
g7
V498
p23
sg9
VTepig
p24
sg11
VB,W,
p25
sg13
VStarter
p26
sg15
g16
sg17
g16
sg18
V0
p27
sbag1
(g2
g3
Ntp28
Rp29
(dp30
g7
V501
p31
sg9
VOshawott
p32
sg11
VB,W,
p33
sg13
VStarter
p34
sg15
g16
sg17
g16
sg18
V0
p35
sba.