(lp0
ccopy_reg
_reconstructor
p1
(c__main__
WildPokemon
p2
c__builtin__
object
p3
Ntp4
Rp5
(dp6
VpDexNo
p7
V029
p8
sVpSpecies
p9
VNidoran\u2640
p10
sVpGames
p11
VSw,Sh,
p12
sVpArea
p13
VGrass
p14
sVpMinLevel
p15
V60
p16
sVpMaxLevel
p17
V65
p18
sVpRate
p19
V0
p20
sbag1
(g2
g3
Ntp21
Rp22
(dp23
g7
V032
p24
sg9
VNidoran\u2642
p25
sg11
VSw,Sh,
p26
sg13
VGrass
p27
sg15
V60
p28
sg17
V65
p29
sg19
g20
sbag1
(g2
g3
Ntp30
Rp31
(dp32
g7
V239
p33
sg9
VElekid
p34
sg11
VSw,Sh,
p35
sg13
VGrass
p36
sg15
V60
p37
sg17
V65
p38
sg19
g20
sbag1
(g2
g3
Ntp39
Rp40
(dp41
g7
V240
p42
sg9
VMagby
p43
sg11
VSw,Sh,
p44
sg13
VGrass
p45
sg15
V60
p46
sg17
V65
p47
sg19
g20
sbag1
(g2
g3
Ntp48
Rp49
(dp50
g7
V439
p51
sg9
VMime Jr.
p52
sg11
VSw,Sh,
p53
sg13
VGrass
p54
sg15
V60
p55
sg17
V65
p56
sg19
g20
sbag1
(g2
g3
Ntp57
Rp58
(dp59
g7
V582
p60
sg9
VVanillite
p61
sg11
VSw,Sh,
p62
sg13
VGrass
p63
sg15
V60
p64
sg17
V65
p65
sg19
g20
sbag1
(g2
g3
Ntp66
Rp67
(dp68
g7
V588
p69
sg9
VKarrablast
p70
sg11
VSw,Sh,
p71
sg13
VGrass
p72
sg15
V60
p73
sg17
V65
p74
sg19
g20
sbag1
(g2
g3
Ntp75
Rp76
(dp77
g7
V708
p78
sg9
VPhantump
p79
sg11
VSw,Sh,
p80
sg13
VGrass
p81
sg15
V60
p82
sg17
V65
p83
sg19
g20
sbag1
(g2
g3
Ntp84
Rp85
(dp86
g7
V751
p87
sg9
VDewpider
p88
sg11
VSw,Sh,
p89
sg13
VGrass
p90
sg15
V60
p91
sg17
V65
p92
sg19
g20
sbag1
(g2
g3
Ntp93
Rp94
(dp95
g7
V854
p96
sg9
VSinistea
p97
sg11
VSw,Sh,
p98
sg13
VGrass
p99
sg15
V60
p100
sg17
V65
p101
sg19
g20
sbag1
(g2
g3
Ntp102
Rp103
(dp104
g7
V854
p105
sg9
VSinistea
p106
sg11
VSw,Sh,
p107
sg13
VGrass
p108
sg15
V60
p109
sg17
V65
p110
sg19
g20
sbag1
(g2
g3
Ntp111
Rp112
(dp113
g7
V856
p114
sg9
VHatenna
p115
sg11
VSw,Sh,
p116
sg13
VGrass
p117
sg15
V60
p118
sg17
V65
p119
sg19
g20
sbag1
(g2
g3
Ntp120
Rp121
(dp122
g7
V029
p123
sg9
VNidoran\u2640
p124
sg11
VSw,
p125
sg13
VGrass
p126
sg15
V60
p127
sg17
V65
p128
sg19
g20
sbag1
(g2
g3
Ntp129
Rp130
(dp131
g7
V029
p132
sg9
VNidoran\u2640
p133
sg11
VSh,
p134
sg13
VGrass
p135
sg15
V60
p136
sg17
V65
p137
sg19
g20
sbag1
(g2
g3
Ntp138
Rp139
(dp140
g7
V032
p141
sg9
VNidoran\u2642
p142
sg11
g125
sg13
VGrass
p143
sg15
V60
p144
sg17
V65
p145
sg19
g20
sbag1
(g2
g3
Ntp146
Rp147
(dp148
g7
V032
p149
sg9
VNidoran\u2642
p150
sg11
g134
sg13
VGrass
p151
sg15
V60
p152
sg17
V65
p153
sg19
g20
sbag1
(g2
g3
Ntp154
Rp155
(dp156
g7
V077
p157
sg9
VPonyta
p158
sg11
g134
sg13
VGrass
p159
sg15
V60
p160
sg17
V65
p161
sg19
g20
sbag1
(g2
g3
Ntp162
Rp163
(dp164
g7
V125
p165
sg9
VElectabuzz
p166
sg11
VSw,Sh,
p167
sg13
VGrass
p168
sg15
V60
p169
sg17
V65
p170
sg19
g20
sbag1
(g2
g3
Ntp171
Rp172
(dp173
g7
V126
p174
sg9
VMagmar
p175
sg11
VSw,Sh,
p176
sg13
VGrass
p177
sg15
V60
p178
sg17
V65
p179
sg19
g20
sbag1
(g2
g3
Ntp180
Rp181
(dp182
g7
V359
p183
sg9
VAbsol
p184
sg11
VSw,Sh,
p185
sg13
VGrass
p186
sg15
V60
p187
sg17
V65
p188
sg19
g20
sbag1
(g2
g3
Ntp189
Rp190
(dp191
g7
V531
p192
sg9
VAudino
p193
sg11
VSw,Sh,
p194
sg13
VGrass
p195
sg15
V60
p196
sg17
V65
p197
sg19
g20
sbag1
(g2
g3
Ntp198
Rp199
(dp200
g7
V583
p201
sg9
VVanillish
p202
sg11
VSw,Sh,
p203
sg13
VGrass
p204
sg15
V60
p205
sg17
V65
p206
sg19
g20
sbag1
(g2
g3
Ntp207
Rp208
(dp209
g7
V596
p210
sg9
VGalvantula
p211
sg11
VSw,Sh,
p212
sg13
VGrass
p213
sg15
V60
p214
sg17
V65
p215
sg19
g20
sbag1
(g2
g3
Ntp216
Rp217
(dp218
g7
V608
p219
sg9
VLampent
p220
sg11
VSw,Sh,
p221
sg13
VGrass
p222
sg15
V60
p223
sg17
V65
p224
sg19
g20
sbag1
(g2
g3
Ntp225
Rp226
(dp227
g7
V615
p228
sg9
VCryogonal
p229
sg11
VSw,Sh,
p230
sg13
VGrass
p231
sg15
V60
p232
sg17
V65
p233
sg19
g20
sbag1
(g2
g3
Ntp234
Rp235
(dp236
g7
V631
p237
sg9
VHeatmor
p238
sg11
VSw,Sh,
p239
sg13
VGrass
p240
sg15
V60
p241
sg17
V65
p242
sg19
g20
sbag1
(g2
g3
Ntp243
Rp244
(dp245
g7
V632
p246
sg9
VDurant
p247
sg11
VSw,Sh,
p248
sg13
VGrass
p249
sg15
V60
p250
sg17
V65
p251
sg19
g20
sbag1
(g2
g3
Ntp252
Rp253
(dp254
g7
V708
p255
sg9
VPhantump
p256
sg11
VSw,Sh,
p257
sg13
VGrass
p258
sg15
V60
p259
sg17
V65
p260
sg19
g20
sbag1
(g2
g3
Ntp261
Rp262
(dp263
g7
V752
p264
sg9
VAraquanid
p265
sg11
VSw,Sh,
p266
sg13
VGrass
p267
sg15
V60
p268
sg17
V65
p269
sg19
g20
sbag1
(g2
g3
Ntp270
Rp271
(dp272
g7
V778
p273
sg9
VMimikyu
p274
sg11
VSw,Sh,
p275
sg13
VGrass
p276
sg15
V60
p277
sg17
V65
p278
sg19
g20
sbag1
(g2
g3
Ntp279
Rp280
(dp281
g7
V854
p282
sg9
VSinistea
p283
sg11
VSw,Sh,
p284
sg13
VGrass
p285
sg15
V60
p286
sg17
V65
p287
sg19
g20
sbag1
(g2
g3
Ntp288
Rp289
(dp290
g7
V854
p291
sg9
VSinistea
p292
sg11
VSw,Sh,
p293
sg13
VGrass
p294
sg15
V60
p295
sg17
V65
p296
sg19
g20
sbag1
(g2
g3
Ntp297
Rp298
(dp299
g7
V857
p300
sg9
VHattrem
p301
sg11
VSw,Sh,
p302
sg13
VGrass
p303
sg15
V60
p304
sg17
V65
p305
sg19
g20
sbag1
(g2
g3
Ntp306
Rp307
(dp308
g7
V886
p309
sg9
VDrakloak
p310
sg11
VSw,Sh,
p311
sg13
VGrass
p312
sg15
V60
p313
sg17
V65
p314
sg19
g20
sbag1
(g2
g3
Ntp315
Rp316
(dp317
g7
V078
p318
sg9
VRapidash
p319
sg11
g134
sg13
VWanderer
p320
sg15
V67
p321
sg17
g321
sg19
g20
sbag1
(g2
g3
Ntp322
Rp323
(dp324
g7
V478
p325
sg9
VFroslass
p326
sg11
VSw,Sh,
p327
sg13
VWanderer
p328
sg15
V65
p329
sg17
g329
sg19
g20
sbag1
(g2
g3
Ntp330
Rp331
(dp332
g7
V709
p333
sg9
VTrevenant
p334
sg11
VSw,Sh,
p335
sg13
VWanderer
p336
sg15
V63
p337
sg17
g337
sg19
g20
sbag1
(g2
g3
Ntp338
Rp339
(dp340
g7
V778
p341
sg9
VMimikyu
p342
sg11
g125
sg13
VWanderer
p343
sg15
V62
p344
sg17
g344
sg19
g20
sbag1
(g2
g3
Ntp345
Rp346
(dp347
g7
V855
p348
sg9
VPolteageist
p349
sg11
VSw,Sh,
p350
sg13
VWanderer
p351
sg15
V63
p352
sg17
g352
sg19
g20
sbag1
(g2
g3
Ntp353
Rp354
(dp355
g7
V887
p356
sg9
VDragapult
p357
sg11
VSw,Sh,
p358
sg13
VWanderer
p359
sg15
V65
p360
sg17
g360
sg19
g20
sbag1
(g2
g3
Ntp361
Rp362
(dp363
g7
V478
p364
sg9
VFroslass
p365
sg11
VSw,Sh,
p366
sg13
VWanderer
p367
sg15
V65
p368
sg17
g368
sg19
g20
sbag1
(g2
g3
Ntp369
Rp370
(dp371
g7
V855
p372
sg9
VPolteageist
p373
sg11
VSw,Sh,
p374
sg13
VWanderer
p375
sg15
V63
p376
sg17
g376
sg19
g20
sbag1
(g2
g3
Ntp377
Rp378
(dp379
g7
V887
p380
sg9
VDragapult
p381
sg11
VSw,Sh,
p382
sg13
VWanderer
p383
sg15
V65
p384
sg17
g384
sg19
g20
sbag1
(g2
g3
Ntp385
Rp386
(dp387
g7
V855
p388
sg9
VPolteageist
p389
sg11
VSw,Sh,
p390
sg13
VWanderer
p391
sg15
V63
p392
sg17
g392
sg19
g20
sbag1
(g2
g3
Ntp393
Rp394
(dp395
g7
V887
p396
sg9
VDragapult
p397
sg11
VSw,Sh,
p398
sg13
VWanderer
p399
sg15
V65
p400
sg17
g400
sg19
g20
sbag1
(g2
g3
Ntp401
Rp402
(dp403
g7
V478
p404
sg9
VFroslass
p405
sg11
VSw,Sh,
p406
sg13
VWanderer
p407
sg15
V65
p408
sg17
g408
sg19
g20
sbag1
(g2
g3
Ntp409
Rp410
(dp411
g7
V709
p412
sg9
VTrevenant
p413
sg11
VSw,Sh,
p414
sg13
VWanderer
p415
sg15
V63
p416
sg17
g416
sg19
g20
sbag1
(g2
g3
Ntp417
Rp418
(dp419
g7
V778
p420
sg9
VMimikyu
p421
sg11
VSw,Sh,
p422
sg13
VWanderer
p423
sg15
V62
p424
sg17
g424
sg19
g20
sbag1
(g2
g3
Ntp425
Rp426
(dp427
g7
V855
p428
sg9
VPolteageist
p429
sg11
VSw,Sh,
p430
sg13
VWanderer
p431
sg15
V63
p432
sg17
g432
sg19
g20
sbag1
(g2
g3
Ntp433
Rp434
(dp435
g7
V887
p436
sg9
VDragapult
p437
sg11
VSw,Sh,
p438
sg13
VWanderer
p439
sg15
V65
p440
sg17
g440
sg19
g20
sba.