(lp0
ccopy_reg
_reconstructor
p1
(c__main__
WildPokemon
p2
c__builtin__
object
p3
Ntp4
Rp5
(dp6
VpDexNo
p7
V041
p8
sVpSpecies
p9
VZubat
p10
sVpGames
p11
VD,P,
p12
sVpArea
p13
VCave
p14
sVpMinLevel
p15
V6
p16
sVpMaxLevel
p17
g16
sVpRate
p18
V20
p19
sbag1
(g2
g3
Ntp20
Rp21
(dp22
g7
V041
p23
sg9
VZubat
p24
sg11
VPt,
p25
sg13
VCave
p26
sg15
V5
p27
sg17
V8
p28
sg18
V50
p29
sbag1
(g2
g3
Ntp30
Rp31
(dp32
g7
V054
p33
sg9
VPsyduck
p34
sg11
g25
sg13
VCave
p35
sg15
g27
sg17
V7
p36
sg18
V35
p37
sbag1
(g2
g3
Ntp38
Rp39
(dp40
g7
V074
p41
sg9
VGeodude
p42
sg11
VD,P,
p43
sg13
VCave
p44
sg15
V4
p45
sg17
g28
sg18
V80
p46
sbag1
(g2
g3
Ntp47
Rp48
(dp49
g7
V074
p50
sg9
VGeodude
p51
sg11
g25
sg13
VCave
p52
sg15
g27
sg17
g36
sg18
V15
p53
sbag1
(g2
g3
Ntp54
Rp55
(dp56
g7
V041
p57
sg9
VZubat
p58
sg11
VD,P,
p59
sg13
VCave
p60
sg15
g28
sg17
V10
p61
sg18
V60
p62
sbag1
(g2
g3
Ntp63
Rp64
(dp65
g7
V041
p66
sg9
VZubat
p67
sg11
g25
sg13
VCave
p68
sg15
g16
sg17
V9
p69
sg18
V45
p70
sbag1
(g2
g3
Ntp71
Rp72
(dp73
g7
V042
p74
sg9
VGolbat
p75
sg11
g25
sg13
VCave
p76
sg15
V10
p77
sg17
g77
sg18
V5
p78
sbag1
(g2
g3
Ntp79
Rp80
(dp81
g7
V054
p82
sg9
VPsyduck
p83
sg11
VD,P,
p84
sg13
VCave
p85
sg15
g28
sg17
V10
p86
sg18
V30
p87
sbag1
(g2
g3
Ntp88
Rp89
(dp90
g7
V054
p91
sg9
VPsyduck
p92
sg11
g25
sg13
VCave
p93
sg15
g28
sg17
V10
p94
sg18
V35
p95
sbag1
(g2
g3
Ntp96
Rp97
(dp98
g7
V074
p99
sg9
VGeodude
p100
sg11
VD,P,
p101
sg13
VCave
p102
sg15
g36
sg17
g69
sg18
V10
p103
sbag1
(g2
g3
Ntp104
Rp105
(dp106
g7
V074
p107
sg9
VGeodude
p108
sg11
g25
sg13
VCave
p109
sg15
g16
sg17
g28
sg18
V15
p110
sbag1
(g2
g3
Ntp111
Rp112
(dp113
g7
V041
p114
sg9
VZubat
p115
sg11
VD,P,
p116
sg13
VSurf
p117
sg15
V20
p118
sg17
V30
p119
sg18
V60
p120
sbag1
(g2
g3
Ntp121
Rp122
(dp123
g7
V041
p124
sg9
VZubat
p125
sg11
g25
sg13
VSurf
p126
sg15
V20
p127
sg17
V30
p128
sg18
V30
p129
sbag1
(g2
g3
Ntp130
Rp131
(dp132
g7
V042
p133
sg9
VGolbat
p134
sg11
VD,P,Pt,
p135
sg13
VSurf
p136
sg15
V20
p137
sg17
V40
p138
sg18
V5
p139
sbag1
(g2
g3
Ntp140
Rp141
(dp142
g7
V054
p143
sg9
VPsyduck
p144
sg11
VD,P,
p145
sg13
VSurf
p146
sg15
V20
p147
sg17
V30
p148
sg18
V30
p149
sbag1
(g2
g3
Ntp150
Rp151
(dp152
g7
V054
p153
sg9
VPsyduck
p154
sg11
g25
sg13
VSurf
p155
sg15
V20
p156
sg17
V30
p157
sg18
V60
p158
sbag1
(g2
g3
Ntp159
Rp160
(dp161
g7
V055
p162
sg9
VGolduck
p163
sg11
VD,P,Pt,
p164
sg13
VSurf
p165
sg15
V20
p166
sg17
V40
p167
sg18
V5
p168
sbag1
(g2
g3
Ntp169
Rp170
(dp171
g7
V129
p172
sg9
VMagikarp
p173
sg11
VD,P,
p174
sg13
VFish Old
p175
sg15
V3
p176
sg17
V10
p177
sg18
V100
p178
sbag1
(g2
g3
Ntp179
Rp180
(dp181
g7
V129
p182
sg9
VMagikarp
p183
sg11
g25
sg13
VFish Old
p184
sg15
g176
sg17
V15
p185
sg18
V100
p186
sbag1
(g2
g3
Ntp187
Rp188
(dp189
g7
V129
p190
sg9
VMagikarp
p191
sg11
VD,P,Pt,
p192
sg13
VFish Good
p193
sg15
V10
p194
sg17
V25
p195
sg18
V55
p196
sbag1
(g2
g3
Ntp197
Rp198
(dp199
g7
V339
p200
sg9
VBarboach
p201
sg11
VD,P,Pt,
p202
sg13
VFish Good
p203
sg15
V10
p204
sg17
V25
p205
sg18
V45
p206
sbag1
(g2
g3
Ntp207
Rp208
(dp209
g7
V130
p210
sg9
VGyarados
p211
sg11
VD,P,Pt,
p212
sg13
VFish Super
p213
sg15
V30
p214
sg17
V55
p215
sg18
V55
p216
sbag1
(g2
g3
Ntp217
Rp218
(dp219
g7
V340
p220
sg9
VWhiscash
p221
sg11
VD,P,
p222
sg13
VFish Super
p223
sg15
V20
p224
sg17
V50
p225
sg18
V45
p226
sbag1
(g2
g3
Ntp227
Rp228
(dp229
g7
V340
p230
sg9
VWhiscash
p231
sg11
g25
sg13
VFish Super
p232
sg15
V30
p233
sg17
V55
p234
sg18
V45
p235
sba.