(lp0
ccopy_reg
_reconstructor
p1
(c__main__
WildPokemon
p2
c__builtin__
object
p3
Ntp4
Rp5
(dp6
VpDexNo
p7
V041
p8
sVpSpecies
p9
VZubat
p10
sVpGames
p11
VD,P,
p12
sVpArea
p13
VCave
p14
sVpMinLevel
p15
V6
p16
sVpMaxLevel
p17
V8
p18
sVpRate
p19
V48
p20
sbag1
(g2
g3
Ntp21
Rp22
(dp23
g7
V041
p24
sg9
VZubat
p25
sg11
VPt,
p26
sg13
VCave
p27
sg15
V5
p28
sg17
V7
p29
sg19
V20
p30
sbag1
(g2
g3
Ntp31
Rp32
(dp33
g7
V074
p34
sg9
VGeodude
p35
sg11
VD,P,
p36
sg13
VCave
p37
sg15
V4
p38
sg17
V10
p39
sg19
V50
p40
sbag1
(g2
g3
Ntp41
Rp42
(dp43
g7
V074
p44
sg9
VGeodude
p45
sg11
g26
sg13
VCave
p46
sg15
g38
sg17
g18
sg19
V70
p47
sbag1
(g2
g3
Ntp48
Rp49
(dp50
g7
V095
p51
sg9
VOnix
p52
sg11
VD,P,
p53
sg13
VCave
p54
sg15
g18
sg17
g18
sg19
V2
p55
sbag1
(g2
g3
Ntp56
Rp57
(dp58
g7
V095
p59
sg9
VOnix
p60
sg11
g26
sg13
VCave
p61
sg15
V6,8
p62
sg17
g62
sg19
V10
p63
sbag1
(g2
g3
Ntp64
Rp65
(dp66
g7
V041
p67
sg9
VZubat
p68
sg11
VD,P,
p69
sg13
VCave
p70
sg15
g16
sg17
g18
sg19
V48
p71
sbag1
(g2
g3
Ntp72
Rp73
(dp74
g7
V041
p75
sg9
VZubat
p76
sg11
g26
sg13
VCave
p77
sg15
g16
sg17
g18
sg19
V25
p78
sbag1
(g2
g3
Ntp79
Rp80
(dp81
g7
V074
p82
sg9
VGeodude
p83
sg11
VD,P,
p84
sg13
VCave
p85
sg15
g38
sg17
V10
p86
sg19
V50
p87
sbag1
(g2
g3
Ntp88
Rp89
(dp90
g7
V074
p91
sg9
VGeodude
p92
sg11
g26
sg13
VCave
p93
sg15
g28
sg17
V9
p94
sg19
V65
p95
sbag1
(g2
g3
Ntp96
Rp97
(dp98
g7
V095
p99
sg9
VOnix
p100
sg11
VD,P,
p101
sg13
VCave
p102
sg15
g94
sg17
g94
sg19
V2
p103
sbag1
(g2
g3
Ntp104
Rp105
(dp106
g7
V095
p107
sg9
VOnix
p108
sg11
g26
sg13
VCave
p109
sg15
V7,9
p110
sg17
g110
sg19
V10
p111
sba.