(lp0
ccopy_reg
_reconstructor
p1
(c__main__
WildPokemon
p2
c__builtin__
object
p3
Ntp4
Rp5
(dp6
VpDexNo
p7
V072
p8
sVpSpecies
p9
VTentacool
p10
sVpGames
p11
VFR,LG,
p12
sVpArea
p13
VSurf
p14
sVpMinLevel
p15
V5
p16
sVpMaxLevel
p17
V40
p18
sVpRate
p19
V95
p20
sbag1
(g2
g3
Ntp21
Rp22
(dp23
g7
V073
p24
sg9
VTentacruel
p25
sg11
VFR,LG,
p26
sg13
VSurf
p27
sg15
V35
p28
sg17
V40
p29
sg19
V5
p30
sbag1
(g2
g3
Ntp31
Rp32
(dp33
g7
V129
p34
sg9
VMagikarp
p35
sg11
VFR,LG,
p36
sg13
VFish Old
p37
sg15
g16
sg17
g16
sg19
V100
p38
sbag1
(g2
g3
Ntp39
Rp40
(dp41
g7
V116
p42
sg9
VHorsea
p43
sg11
VFR,
p44
sg13
VFish Good
p45
sg15
g16
sg17
V15
p46
sg19
V80
p47
sbag1
(g2
g3
Ntp48
Rp49
(dp50
g7
V098
p51
sg9
VKrabby
p52
sg11
VLG,
p53
sg13
VFish Good
p54
sg15
g16
sg17
V15
p55
sg19
V80
p56
sbag1
(g2
g3
Ntp57
Rp58
(dp59
g7
V129
p60
sg9
VMagikarp
p61
sg11
VFR,LG,
p62
sg13
VFish Good
p63
sg15
g16
sg17
V15
p64
sg19
V20
p65
sbag1
(g2
g3
Ntp66
Rp67
(dp68
g7
V116
p69
sg9
VHorsea
p70
sg11
g44
sg13
VFish Super
p71
sg15
V15
p72
sg17
V25
p73
sg19
V40
p74
sbag1
(g2
g3
Ntp75
Rp76
(dp77
g7
V211
p78
sg9
VQwilfish
p79
sg11
g44
sg13
VFish Super
p80
sg15
V15
p81
sg17
V25
p82
sg19
V40
p83
sbag1
(g2
g3
Ntp84
Rp85
(dp86
g7
V098
p87
sg9
VKrabby
p88
sg11
g53
sg13
VFish Super
p89
sg15
V15
p90
sg17
V25
p91
sg19
V40
p92
sbag1
(g2
g3
Ntp93
Rp94
(dp95
g7
V223
p96
sg9
VRemoraid
p97
sg11
g53
sg13
VFish Super
p98
sg15
V15
p99
sg17
V25
p100
sg19
V40
p101
sbag1
(g2
g3
Ntp102
Rp103
(dp104
g7
V130
p105
sg9
VGyarados
p106
sg11
VFR,LG,
p107
sg13
VFish Super
p108
sg15
V15
p109
sg17
V25
p110
sg19
V15
p111
sbag1
(g2
g3
Ntp112
Rp113
(dp114
g7
V117
p115
sg9
VSeadra
p116
sg11
g44
sg13
VFish Super
p117
sg15
V25
p118
sg17
V35
p119
sg19
V4
p120
sbag1
(g2
g3
Ntp121
Rp122
(dp123
g7
V099
p124
sg9
VKingler
p125
sg11
g53
sg13
VFish Super
p126
sg15
V25
p127
sg17
V35
p128
sg19
V4
p129
sbag1
(g2
g3
Ntp130
Rp131
(dp132
g7
V054
p133
sg9
VPsyduck
p134
sg11
g44
sg13
VFish Super
p135
sg15
V25
p136
sg17
V35
p137
sg19
V1
p138
sbag1
(g2
g3
Ntp139
Rp140
(dp141
g7
V079
p142
sg9
VSlowpoke
p143
sg11
g53
sg13
VFish Super
p144
sg15
V25
p145
sg17
V35
p146
sg19
V1
p147
sba.