(lp0
ccopy_reg
_reconstructor
p1
(c__main__
WildPokemon
p2
c__builtin__
object
p3
Ntp4
Rp5
(dp6
VpDexNo
p7
V505
p8
sVpSpecies
p9
VWatchog
p10
sVpGames
p11
VB,W,
p12
sVpArea
p13
VGrass
p14
sVpMinLevel
p15
V28
p16
sVpMaxLevel
p17
V31
p18
sVpRate
p19
V36
p20
sbag1
(g2
g3
Ntp21
Rp22
(dp23
g7
V507
p24
sg9
VHerdier
p25
sg11
VB,W,
p26
sg13
VGrass
p27
sg15
V28
p28
sg17
V31
p29
sg19
V36
p30
sbag1
(g2
g3
Ntp31
Rp32
(dp33
g7
V559
p34
sg9
VScraggy
p35
sg11
VB,W,
p36
sg13
VGrass
p37
sg15
V29
p38
sg17
V31
p39
sg19
V14
p40
sbag1
(g2
g3
Ntp41
Rp42
(dp43
g7
V599
p44
sg9
VKlink
p45
sg11
VB,W,
p46
sg13
VGrass
p47
sg15
V29
p48
sg17
V31
p49
sg19
V14
p50
sbag1
(g2
g3
Ntp51
Rp52
(dp53
g7
V531
p54
sg9
VAudino
p55
sg11
VB,W,
p56
sg13
VRustling
p57
sg15
V28
p58
sg17
V31
p59
sg19
V95
p60
sbag1
(g2
g3
Ntp61
Rp62
(dp63
g7
V508
p64
sg9
VStoutland
p65
sg11
VB,W,
p66
sg13
VRustling
p67
sg15
V31
p68
sg17
g68
sg19
V5
p69
sbag1
(g2
g3
Ntp70
Rp71
(dp72
g7
V592
p73
sg9
VFrillish
p74
sg11
VB,W,
p75
sg13
VSurf
p76
sg15
V5
p77
sg17
V15
p78
sg19
V100
p79
sbag1
(g2
g3
Ntp80
Rp81
(dp82
g7
V594
p83
sg9
VAlomomola
p84
sg11
VB,W,
p85
sg13
VRippling
p86
sg15
g77
sg17
V20
p87
sg19
V95
p88
sbag1
(g2
g3
Ntp89
Rp90
(dp91
g7
V593
p92
sg9
VJellicent
p93
sg11
VB,W,
p94
sg13
VRippling
p95
sg15
g77
sg17
V20
p96
sg19
V5
p97
sbag1
(g2
g3
Ntp98
Rp99
(dp100
g7
V456
p101
sg9
VFinneon
p102
sg11
VB,W,
p103
sg13
VFishing
p104
sg15
V35
p105
sg17
V55
p106
sg19
V65
p107
sbag1
(g2
g3
Ntp108
Rp109
(dp110
g7
V116
p111
sg9
VHorsea
p112
sg11
VB,W,
p113
sg13
VFishing
p114
sg15
V35
p115
sg17
V55
p116
sg19
V35
p117
sbag1
(g2
g3
Ntp118
Rp119
(dp120
g7
V117
p121
sg9
VSeadra
p122
sg11
VB,W,
p123
sg13
VRippling
p124
sg15
V35
p125
sg17
V60
p126
sg19
V60
p127
sbag1
(g2
g3
Ntp128
Rp129
(dp130
g7
V211
p131
sg9
VQwilfish
p132
sg11
VB,W,
p133
sg13
VRippling
p134
sg15
V35
p135
sg17
V60
p136
sg19
V30
p137
sbag1
(g2
g3
Ntp138
Rp139
(dp140
g7
V230
p141
sg9
VKingdra
p142
sg11
VB,W,
p143
sg13
VRippling
p144
sg15
V45
p145
sg17
V70
p146
sg19
V5
p147
sbag1
(g2
g3
Ntp148
Rp149
(dp150
g7
V457
p151
sg9
VLumineon
p152
sg11
VB,W,
p153
sg13
VRippling
p154
sg15
V35
p155
sg17
V70
p156
sg19
V5
p157
sbag1
(g2
g3
Ntp158
Rp159
(dp160
g7
V082
p161
sg9
VMagneton
p162
sg11
VB2,W2,
p163
sg13
VGrass
p164
sg15
V57
p165
sg17
V59
p166
sg19
V15
p167
sbag1
(g2
g3
Ntp168
Rp169
(dp170
g7
V110
p171
sg9
VWeezing
p172
sg11
VB2,W2,
p173
sg13
VGrass
p174
sg15
V57
p175
sg17
V58
p176
sg19
V15
p177
sbag1
(g2
g3
Ntp178
Rp179
(dp180
g7
V505
p181
sg9
VWatchog
p182
sg11
VB2,W2,
p183
sg13
VGrass
p184
sg15
V56
p185
sg17
g185
sg19
V20
p186
sbag1
(g2
g3
Ntp187
Rp188
(dp189
g7
V507
p190
sg9
VHerdier
p191
sg11
VB2,W2,
p192
sg13
VGrass
p193
sg15
V56
p194
sg17
g194
sg19
V20
p195
sbag1
(g2
g3
Ntp196
Rp197
(dp198
g7
V560
p199
sg9
VScrafty
p200
sg11
VB2,W2,
p201
sg13
VGrass
p202
sg15
V57
p203
sg17
V58
p204
sg19
V15
p205
sbag1
(g2
g3
Ntp206
Rp207
(dp208
g7
V600
p209
sg9
VKlang
p210
sg11
VB2,W2,
p211
sg13
VGrass
p212
sg15
V57
p213
sg17
V59
p214
sg19
V15
p215
sbag1
(g2
g3
Ntp216
Rp217
(dp218
g7
V462
p219
sg9
VMagnezone
p220
sg11
VB2,W2,
p221
sg13
VRustling
p222
sg15
V59
p223
sg17
g223
sg19
V5
p224
sbag1
(g2
g3
Ntp225
Rp226
(dp227
g7
V508
p228
sg9
VStoutland
p229
sg11
VB2,W2,
p230
sg13
VRustling
p231
sg15
V59
p232
sg17
g232
sg19
V5
p233
sbag1
(g2
g3
Ntp234
Rp235
(dp236
g7
V531
p237
sg9
VAudino
p238
sg11
VB2,W2,
p239
sg13
VRustling
p240
sg15
V56
p241
sg17
V59
p242
sg19
V85
p243
sbag1
(g2
g3
Ntp244
Rp245
(dp246
g7
V601
p247
sg9
VKlinklang
p248
sg11
VB2,W2,
p249
sg13
VRustling
p250
sg15
V59
p251
sg17
g251
sg19
V5
p252
sbag1
(g2
g3
Ntp253
Rp254
(dp255
g7
V592
p256
sg9
VFrillish
p257
sg11
VB2,W2,
p258
sg13
VSurf
p259
sg15
V45
p260
sg17
V60
p261
sg19
V100
p262
sbag1
(g2
g3
Ntp263
Rp264
(dp265
g7
V593
p266
sg9
VJellicent
p267
sg11
VB2,W2,
p268
sg13
VRippling
p269
sg15
V50
p270
sg17
V60
p271
sg19
V5
p272
sbag1
(g2
g3
Ntp273
Rp274
(dp275
g7
V594
p276
sg9
VAlomomola
p277
sg11
VB2,W2,
p278
sg13
VRippling
p279
sg15
V45
p280
sg17
V60
p281
sg19
V95
p282
sbag1
(g2
g3
Ntp283
Rp284
(dp285
g7
V116
p286
sg9
VHorsea
p287
sg11
VB2,W2,
p288
sg13
VFish Super
p289
sg15
V35
p290
sg17
V55
p291
sg19
V35
p292
sbag1
(g2
g3
Ntp293
Rp294
(dp295
g7
V456
p296
sg9
VFinneon
p297
sg11
VB2,W2,
p298
sg13
VFish Super
p299
sg15
V35
p300
sg17
V55
p301
sg19
V65
p302
sbag1
(g2
g3
Ntp303
Rp304
(dp305
g7
V117
p306
sg9
VSeadra
p307
sg11
VB2,W2,
p308
sg13
VRippling
p309
sg15
V35
p310
sg17
V60
p311
sg19
V60
p312
sbag1
(g2
g3
Ntp313
Rp314
(dp315
g7
V211
p316
sg9
VQwilfish
p317
sg11
VB2,W2,
p318
sg13
VRippling
p319
sg15
V35
p320
sg17
V60
p321
sg19
V30
p322
sbag1
(g2
g3
Ntp323
Rp324
(dp325
g7
V230
p326
sg9
VKingdra
p327
sg11
VB2,W2,
p328
sg13
VRippling
p329
sg15
V45
p330
sg17
V70
p331
sg19
V5
p332
sbag1
(g2
g3
Ntp333
Rp334
(dp335
g7
V457
p336
sg9
VLumineon
p337
sg11
VB2,W2,
p338
sg13
VRippling
p339
sg15
V35
p340
sg17
V70
p341
sg19
V5
p342
sba.