(lp0
ccopy_reg
_reconstructor
p1
(c__main__
WildPokemon
p2
c__builtin__
object
p3
Ntp4
Rp5
(dp6
VpDexNo
p7
V129
p8
sVpSpecies
p9
VMagikarp
p10
sVpGames
p11
VR,B,Y,
p12
sVpArea
p13
VFish Old
p14
sVpMinLevel
p15
V5
p16
sVpMaxLevel
p17
g16
sVpRate
p18
V100
p19
sbag1
(g2
g3
Ntp20
Rp21
(dp22
g7
V060
p23
sg9
VPoliwag
p24
sg11
VR,B,Y,
p25
sg13
VFish Good
p26
sg15
V10
p27
sg17
g27
sg18
V50
p28
sbag1
(g2
g3
Ntp29
Rp30
(dp31
g7
V118
p32
sg9
VGoldeen
p33
sg11
VR,B,Y,
p34
sg13
VFish Good
p35
sg15
V10
p36
sg17
g36
sg18
V50
p37
sbag1
(g2
g3
Ntp38
Rp39
(dp40
g7
V060
p41
sg9
VPoliwag
p42
sg11
VR,B,
p43
sg13
VFish Super
p44
sg15
V15
p45
sg17
g45
sg18
V50
p46
sbag1
(g2
g3
Ntp47
Rp48
(dp49
g7
V072
p50
sg9
VTentacool
p51
sg11
VR,B,
p52
sg13
VFish Super
p53
sg15
V15
p54
sg17
g54
sg18
V50
p55
sbag1
(g2
g3
Ntp56
Rp57
(dp58
g7
V072
p59
sg9
VTentacool
p60
sg11
VY,
p61
sg13
VFish Super
p62
sg15
V10
p63
sg17
V20
p64
sg18
V40
p65
sbag1
(g2
g3
Ntp66
Rp67
(dp68
g7
V120
p69
sg9
VStaryu
p70
sg11
g61
sg13
VFish Super
p71
sg15
g16
sg17
V10
p72
sg18
V60
p73
sbag1
(g2
g3
Ntp74
Rp75
(dp76
g7
V072
p77
sg9
VTentacool
p78
sg11
VG,S,C,
p79
sg13
VSurf
p80
sg15
V30
p81
sg17
V39
p82
sg18
V90
p83
sbag1
(g2
g3
Ntp84
Rp85
(dp86
g7
V073
p87
sg9
VTentacruel
p88
sg11
VG,S,C,
p89
sg13
VSurf
p90
sg15
V35
p91
sg17
V39
p92
sg18
V10
p93
sbag1
(g2
g3
Ntp94
Rp95
(dp96
g7
V072
p97
sg9
VTentacool
p98
sg11
VG,S,C,
p99
sg13
VFish Old
p100
sg15
V10
p101
sg17
g101
sg18
V15
p102
sbag1
(g2
g3
Ntp103
Rp104
(dp105
g7
V129
p106
sg9
VMagikarp
p107
sg11
VG,S,C,
p108
sg13
VFish Old
p109
sg15
V10
p110
sg17
g110
sg18
V85
p111
sbag1
(g2
g3
Ntp112
Rp113
(dp114
g7
V072
p115
sg9
VTentacool
p116
sg11
VG,S,C,
p117
sg13
VFish Good
p118
sg15
V20
p119
sg17
g119
sg18
V35
p120
sbag1
(g2
g3
Ntp121
Rp122
(dp123
g7
V090
p124
sg9
VShellder
p125
sg11
VG,S,C,
p126
sg13
VFish Good
p127
sg15
V20
p128
sg17
g128
sg18
V10
p129
sbag1
(g2
g3
Ntp130
Rp131
(dp132
g7
V129
p133
sg9
VMagikarp
p134
sg11
VG,S,C,
p135
sg13
VFish Good
p136
sg15
V20
p137
sg17
g137
sg18
V35
p138
sbag1
(g2
g3
Ntp139
Rp140
(dp141
g7
V170
p142
sg9
VChinchou
p143
sg11
VG,S,C,
p144
sg13
VFish Good
p145
sg15
V20
p146
sg17
g146
sg18
V20
p147
sbag1
(g2
g3
Ntp148
Rp149
(dp150
g7
V073
p151
sg9
VTentacruel
p152
sg11
VG,S,C,
p153
sg13
VFish Super
p154
sg15
V40
p155
sg17
g155
sg18
V20
p156
sbag1
(g2
g3
Ntp157
Rp158
(dp159
g7
V090
p160
sg9
VShellder
p161
sg11
VG,S,C,
p162
sg13
VFish Super
p163
sg15
V40
p164
sg17
g164
sg18
V30
p165
sbag1
(g2
g3
Ntp166
Rp167
(dp168
g7
V170
p169
sg9
VChinchou
p170
sg11
VG,S,C,
p171
sg13
VFish Super
p172
sg15
V40
p173
sg17
g173
sg18
V40
p174
sbag1
(g2
g3
Ntp175
Rp176
(dp177
g7
V171
p178
sg9
VLanturn
p179
sg11
VG,S,C,
p180
sg13
VFish Super
p181
sg15
V40
p182
sg17
g182
sg18
V10
p183
sbag1
(g2
g3
Ntp184
Rp185
(dp186
g7
V072
p187
sg9
VTentacool
p188
sg11
VFR,LG,
p189
sg13
VSurf
p190
sg15
g16
sg17
V40
p191
sg18
V100
p192
sbag1
(g2
g3
Ntp193
Rp194
(dp195
g7
V129
p196
sg9
VMagikarp
p197
sg11
VFR,LG,
p198
sg13
VFish Old
p199
sg15
g16
sg17
V10
p200
sg18
V100
p201
sbag1
(g2
g3
Ntp202
Rp203
(dp204
g7
V098
p205
sg9
VKrabby
p206
sg11
VFR,
p207
sg13
VFish Good
p208
sg15
g16
sg17
V15
p209
sg18
V20
p210
sbag1
(g2
g3
Ntp211
Rp212
(dp213
g7
V098
p214
sg9
VKrabby
p215
sg11
VLG,
p216
sg13
VFish Good
p217
sg15
g16
sg17
V15
p218
sg18
V60
p219
sbag1
(g2
g3
Ntp220
Rp221
(dp222
g7
V116
p223
sg9
VHorsea
p224
sg11
g207
sg13
VFish Good
p225
sg15
g16
sg17
V15
p226
sg18
V60
p227
sbag1
(g2
g3
Ntp228
Rp229
(dp230
g7
V116
p231
sg9
VHorsea
p232
sg11
g216
sg13
VFish Good
p233
sg15
g16
sg17
V15
p234
sg18
V20
p235
sbag1
(g2
g3
Ntp236
Rp237
(dp238
g7
V129
p239
sg9
VMagikarp
p240
sg11
VFR,LG,
p241
sg13
VFish Good
p242
sg15
g16
sg17
V15
p243
sg18
V20
p244
sbag1
(g2
g3
Ntp245
Rp246
(dp247
g7
V054
p248
sg9
VPsyduck
p249
sg11
g207
sg13
VFish Super
p250
sg15
V25
p251
sg17
V35
p252
sg18
V1
p253
sbag1
(g2
g3
Ntp254
Rp255
(dp256
g7
V079
p257
sg9
VSlowpoke
p258
sg11
g216
sg13
VFish Super
p259
sg15
V25
p260
sg17
V35
p261
sg18
V1
p262
sbag1
(g2
g3
Ntp263
Rp264
(dp265
g7
V090
p266
sg9
VShellder
p267
sg11
g207
sg13
VFish Super
p268
sg15
V15
p269
sg17
V25
p270
sg18
V40
p271
sbag1
(g2
g3
Ntp272
Rp273
(dp274
g7
V098
p275
sg9
VKrabby
p276
sg11
g216
sg13
VFish Super
p277
sg15
V15
p278
sg17
V25
p279
sg18
V40
p280
sbag1
(g2
g3
Ntp281
Rp282
(dp283
g7
V099
p284
sg9
VKingler
p285
sg11
g216
sg13
VFish Super
p286
sg15
V25
p287
sg17
V35
p288
sg18
V4
p289
sbag1
(g2
g3
Ntp290
Rp291
(dp292
g7
V116
p293
sg9
VHorsea
p294
sg11
g207
sg13
VFish Super
p295
sg15
V15
p296
sg17
V25
p297
sg18
V40
p298
sbag1
(g2
g3
Ntp299
Rp300
(dp301
g7
V117
p302
sg9
VSeadra
p303
sg11
g207
sg13
VFish Super
p304
sg15
V25
p305
sg17
V35
p306
sg18
V4
p307
sbag1
(g2
g3
Ntp308
Rp309
(dp310
g7
V120
p311
sg9
VStaryu
p312
sg11
g216
sg13
VFish Super
p313
sg15
V15
p314
sg17
V25
p315
sg18
V40
p316
sbag1
(g2
g3
Ntp317
Rp318
(dp319
g7
V130
p320
sg9
VGyarados
p321
sg11
VFR,LG,
p322
sg13
VFish Super
p323
sg15
V15
p324
sg17
V25
p325
sg18
V15
p326
sbag1
(g2
g3
Ntp327
Rp328
(dp329
g7
V072
p330
sg9
VTentacool
p331
sg11
VHG,SS,
p332
sg13
VSurf
p333
sg15
V30
p334
sg17
V35
p335
sg18
V90
p336
sbag1
(g2
g3
Ntp337
Rp338
(dp339
g7
V073
p340
sg9
VTentacruel
p341
sg11
VHG,SS,
p342
sg13
VSurf
p343
sg15
V35
p344
sg17
g344
sg18
V10
p345
sbag1
(g2
g3
Ntp346
Rp347
(dp348
g7
V072
p349
sg9
VTentacool
p350
sg11
VHG,SS,
p351
sg13
VFish Old
p352
sg15
V10
p353
sg17
g353
sg18
V5
p354
sbag1
(g2
g3
Ntp355
Rp356
(dp357
g7
V129
p358
sg9
VMagikarp
p359
sg11
VHG,SS,
p360
sg13
VFish Old
p361
sg15
V10
p362
sg17
g362
sg18
V95
p363
sbag1
(g2
g3
Ntp364
Rp365
(dp366
g7
V072
p367
sg9
VTentacool
p368
sg11
VHG,SS,
p369
sg13
VFish Good
p370
sg15
V20
p371
sg17
g371
sg18
V30
p372
sbag1
(g2
g3
Ntp373
Rp374
(dp375
g7
V090
p376
sg9
VShellder
p377
sg11
VHG,SS,
p378
sg13
VFish Good
p379
sg15
V20
p380
sg17
g380
sg18
V3
p381
sbag1
(g2
g3
Ntp382
Rp383
(dp384
g7
V129
p385
sg9
VMagikarp
p386
sg11
VHG,SS,
p387
sg13
VFish Good
p388
sg15
V20
p389
sg17
g389
sg18
V60
p390
sbag1
(g2
g3
Ntp391
Rp392
(dp393
g7
V170
p394
sg9
VChinchou
p395
sg11
VHG,SS,
p396
sg13
VFish Good
p397
sg15
V20
p398
sg17
g398
sg18
V7
p399
sbag1
(g2
g3
Ntp400
Rp401
(dp402
g7
V073
p403
sg9
VTentacruel
p404
sg11
VHG,SS,
p405
sg13
VFish Super
p406
sg15
V40
p407
sg17
g407
sg18
V7
p408
sbag1
(g2
g3
Ntp409
Rp410
(dp411
g7
V090
p412
sg9
VShellder
p413
sg11
VHG,SS,
p414
sg13
VFish Super
p415
sg15
V40
p416
sg17
g416
sg18
V30
p417
sbag1
(g2
g3
Ntp418
Rp419
(dp420
g7
V170
p421
sg9
VChinchou
p422
sg11
VHG,SS,
p423
sg13
VFish Super
p424
sg15
V40
p425
sg17
g425
sg18
V60
p426
sbag1
(g2
g3
Ntp427
Rp428
(dp429
g7
V171
p430
sg9
VLanturn
p431
sg11
VHG,SS,
p432
sg13
VFish Super
p433
sg15
V40
p434
sg17
g434
sg18
V3
p435
sbag1
(g2
g3
Ntp436
Rp437
(dp438
g7
V163
p439
sg9
VHoothoot
p440
sg11
VHG,SS,
p441
sg13
VHeadbutt
p442
sg15
V2
p443
sg17
V3
p444
sg18
V50
p445
sbag1
(g2
g3
Ntp446
Rp447
(dp448
g7
V165
p449
sg9
VLedyba
p450
sg11
VSS,
p451
sg13
VHeadbutt
p452
sg15
g16
sg17
V6
p453
sg18
V30
p454
sbag1
(g2
g3
Ntp455
Rp456
(dp457
g7
V167
p458
sg9
VSpinarak
p459
sg11
VHG,
p460
sg13
VHeadbutt
p461
sg15
g16
sg17
g453
sg18
V30
p462
sbag1
(g2
g3
Ntp463
Rp464
(dp465
g7
V204
p466
sg9
VPineco
p467
sg11
VHG,SS,
p468
sg13
VHeadbutt
p469
sg15
g443
sg17
g444
sg18
V30
p470
sbag1
(g2
g3
Ntp471
Rp472
(dp473
g7
V265
p474
sg9
VWurmple
p475
sg11
VHG,SS,
p476
sg13
VHeadbutt
p477
sg15
g443
sg17
g444
sg18
V20
p478
sbag1
(g2
g3
Ntp479
Rp480
(dp481
g7
V163
p482
sg9
VHoothoot
p483
sg11
VHG,SS,
p484
sg13
VHeadbutt
p485
sg15
g16
sg17
g453
sg18
V50
p486
sbag1
(g2
g3
Ntp487
Rp488
(dp489
g7
V265
p490
sg9
VWurmple
p491
sg11
VHG,SS,
p492
sg13
VHeadbutt
p493
sg15
g16
sg17
g453
sg18
V20
p494
sbag1
(g2
g3
Ntp495
Rp496
(dp497
g7
V016
p498
sg9
VPidgey
p499
sg11
VPi,Ev,
p500
sg13
VSky
p501
sg15
g444
sg17
V56
p502
sg18
V60
p503
sbag1
(g2
g3
Ntp504
Rp505
(dp506
g7
V017
p507
sg9
VPidgeotto
p508
sg11
VPi,Ev,
p509
sg13
VSky
p510
sg15
g444
sg17
V56
p511
sg18
V35
p512
sbag1
(g2
g3
Ntp513
Rp514
(dp515
g7
V018
p516
sg9
VPidgeot
p517
sg11
VPi,Ev,
p518
sg13
VSky
p519
sg15
g444
sg17
V56
p520
sg18
V5
p521
sba.