(lp0
ccopy_reg
_reconstructor
p1
(c__main__
WildPokemon
p2
c__builtin__
object
p3
Ntp4
Rp5
(dp6
VpDexNo
p7
V129
p8
sVpSpecies
p9
VMagikarp
p10
sVpGames
p11
VX,Y,
p12
sVpArea
p13
VFish Old
p14
sVpMinLevel
p15
V15
p16
sVpMaxLevel
p17
g16
sVpRate
p18
V100
p19
sbag1
(g2
g3
Ntp20
Rp21
(dp22
g7
V118
p23
sg9
VGoldeen
p24
sg11
VX,Y,
p25
sg13
VFish Good
p26
sg15
V25
p27
sg17
g27
sg18
V65
p28
sbag1
(g2
g3
Ntp29
Rp30
(dp31
g7
V341
p32
sg9
VCorphish
p33
sg11
VX,Y,
p34
sg13
VFish Good
p35
sg15
V25
p36
sg17
g36
sg18
V35
p37
sbag1
(g2
g3
Ntp38
Rp39
(dp40
g7
V119
p41
sg9
VSeaking
p42
sg11
VX,Y,
p43
sg13
VFish Super
p44
sg15
V35
p45
sg17
g45
sg18
V35
p46
sbag1
(g2
g3
Ntp47
Rp48
(dp49
g7
V130
p50
sg9
VGyarados
p51
sg11
VX,Y,
p52
sg13
VFish Super
p53
sg15
V35
p54
sg17
g54
sg18
V60
p55
sbag1
(g2
g3
Ntp56
Rp57
(dp58
g7
V342
p59
sg9
VCrawdaunt
p60
sg11
VX,Y,
p61
sg13
VFish Super
p62
sg15
V35
p63
sg17
g63
sg18
V5
p64
sba.