(lp0
ccopy_reg
_reconstructor
p1
(c__main__
WildPokemon
p2
c__builtin__
object
p3
Ntp4
Rp5
(dp6
VpDexNo
p7
V333
p8
sVpSpecies
p9
VSwablu
p10
sVpGames
p11
VSw,Sh,
p12
sVpArea
p13
VGrass
p14
sVpMinLevel
p15
V60
p16
sVpMaxLevel
p17
V65
p18
sVpRate
p19
V0
p20
sbag1
(g2
g3
Ntp21
Rp22
(dp23
g7
V359
p24
sg9
VAbsol
p25
sg11
VSw,Sh,
p26
sg13
VGrass
p27
sg15
V60
p28
sg17
V65
p29
sg19
g20
sbag1
(g2
g3
Ntp30
Rp31
(dp32
g7
V531
p33
sg9
VAudino
p34
sg11
VSw,Sh,
p35
sg13
VGrass
p36
sg15
V60
p37
sg17
V65
p38
sg19
g20
sbag1
(g2
g3
Ntp39
Rp40
(dp41
g7
V621
p42
sg9
VDruddigon
p43
sg11
VSw,Sh,
p44
sg13
VGrass
p45
sg15
V60
p46
sg17
V65
p47
sg19
g20
sbag1
(g2
g3
Ntp48
Rp49
(dp50
g7
V872
p51
sg9
VSnom
p52
sg11
VSw,Sh,
p53
sg13
VGrass
p54
sg15
V60
p55
sg17
V65
p56
sg19
g20
sbag1
(g2
g3
Ntp57
Rp58
(dp59
g7
V873
p60
sg9
VFrosmoth
p61
sg11
VSw,Sh,
p62
sg13
VGrass
p63
sg15
V60
p64
sg17
V65
p65
sg19
g20
sbag1
(g2
g3
Ntp66
Rp67
(dp68
g7
V873
p69
sg9
VFrosmoth
p70
sg11
VSw,Sh,
p71
sg13
VWanderer
p72
sg15
V65
p73
sg17
g73
sg19
V0
p74
sbag1
(g2
g3
Ntp75
Rp76
(dp77
g7
V873
p78
sg9
VFrosmoth
p79
sg11
VSw,Sh,
p80
sg13
VWanderer
p81
sg15
V65
p82
sg17
g82
sg19
V0
p83
sbag1
(g2
g3
Ntp84
Rp85
(dp86
g7
V334
p87
sg9
VAltaria
p88
sg11
VSw,Sh,
p89
sg13
VWanderer
p90
sg15
V65
p91
sg17
g91
sg19
g20
sbag1
(g2
g3
Ntp92
Rp93
(dp94
g7
V359
p95
sg9
VAbsol
p96
sg11
VSw,Sh,
p97
sg13
VWanderer
p98
sg15
V67
p99
sg17
g99
sg19
g20
sbag1
(g2
g3
Ntp100
Rp101
(dp102
g7
V373
p103
sg9
VSalamence
p104
sg11
VSw,
p105
sg13
VWanderer
p106
sg15
V68
p107
sg17
g107
sg19
g20
sbag1
(g2
g3
Ntp108
Rp109
(dp110
g7
V445
p111
sg9
VGarchomp
p112
sg11
VSh,
p113
sg13
VWanderer
p114
sg15
V68
p115
sg17
g115
sg19
g20
sbag1
(g2
g3
Ntp116
Rp117
(dp118
g7
V621
p119
sg9
VDruddigon
p120
sg11
VSw,Sh,
p121
sg13
VWanderer
p122
sg15
V65
p123
sg17
g123
sg19
g20
sbag1
(g2
g3
Ntp124
Rp125
(dp126
g7
V873
p127
sg9
VFrosmoth
p128
sg11
VSw,Sh,
p129
sg13
VWanderer
p130
sg15
V65
p131
sg17
g131
sg19
g20
sba.