(lp0
ccopy_reg
_reconstructor
p1
(c__main__
WildPokemon
p2
c__builtin__
object
p3
Ntp4
Rp5
(dp6
VpDexNo
p7
V010
p8
sVpSpecies
p9
VCaterpie
p10
sVpGames
p11
VFR,LG,
p12
sVpArea
p13
VGrass
p14
sVpMinLevel
p15
V6
p16
sVpMaxLevel
p17
g16
sVpRate
p18
V10
p19
sbag1
(g2
g3
Ntp20
Rp21
(dp22
g7
V011
p23
sg9
VMetapod
p24
sg11
VFR,
p25
sg13
VGrass
p26
sg15
V9
p27
sg17
g27
sg18
V5
p28
sbag1
(g2
g3
Ntp29
Rp30
(dp31
g7
V011
p32
sg9
VMetapod
p33
sg11
VLG,
p34
sg13
VGrass
p35
sg15
g27
sg17
g27
sg18
V20
p36
sbag1
(g2
g3
Ntp37
Rp38
(dp39
g7
V013
p40
sg9
VWeedle
p41
sg11
VFR,LG,
p42
sg13
VGrass
p43
sg15
g16
sg17
g16
sg18
V10
p44
sbag1
(g2
g3
Ntp45
Rp46
(dp47
g7
V014
p48
sg9
VKakuna
p49
sg11
g25
sg13
VGrass
p50
sg15
g27
sg17
g27
sg18
V20
p51
sbag1
(g2
g3
Ntp52
Rp53
(dp54
g7
V014
p55
sg9
VKakuna
p56
sg11
g34
sg13
VGrass
p57
sg15
g27
sg17
g27
sg18
V5
p58
sbag1
(g2
g3
Ntp59
Rp60
(dp61
g7
V165
p62
sg9
VLedyba
p63
sg11
g25
sg13
VGrass
p64
sg15
g27
sg17
V14
p65
sg18
V5
p66
sbag1
(g2
g3
Ntp67
Rp68
(dp69
g7
V165
p70
sg9
VLedyba
p71
sg11
g34
sg13
VGrass
p72
sg15
g27
sg17
V14
p73
sg18
V30
p74
sbag1
(g2
g3
Ntp75
Rp76
(dp77
g7
V167
p78
sg9
VSpinarak
p79
sg11
g25
sg13
VGrass
p80
sg15
g27
sg17
V14
p81
sg18
V30
p82
sbag1
(g2
g3
Ntp83
Rp84
(dp85
g7
V167
p86
sg9
VSpinarak
p87
sg11
g34
sg13
VGrass
p88
sg15
g27
sg17
V14
p89
sg18
V5
p90
sbag1
(g2
g3
Ntp91
Rp92
(dp93
g7
V214
p94
sg9
VHeracross
p95
sg11
VFR,LG,
p96
sg13
VGrass
p97
sg15
V15
p98
sg17
V30
p99
sg18
V20
p100
sba.