(lp0
ccopy_reg
_reconstructor
p1
(c__main__
WildPokemon
p2
c__builtin__
object
p3
Ntp4
Rp5
(dp6
VpDexNo
p7
V183
p8
sVpSpecies
p9
VMarill
p10
sVpGames
p11
VRu,S,E,
p12
sVpArea
p13
VSurf
p14
sVpMinLevel
p15
V5
p16
sVpMaxLevel
p17
V35
p18
sVpRate
p19
V100
p20
sbag1
(g2
g3
Ntp21
Rp22
(dp23
g7
V118
p24
sg9
VGoldeen
p25
sg11
VRu,S,E,
p26
sg13
VFish Old
p27
sg15
g16
sg17
V10
p28
sg19
V30
p29
sbag1
(g2
g3
Ntp30
Rp31
(dp32
g7
V129
p33
sg9
VMagikarp
p34
sg11
VRu,S,E,
p35
sg13
VFish Old
p36
sg15
g16
sg17
V10
p37
sg19
V70
p38
sbag1
(g2
g3
Ntp39
Rp40
(dp41
g7
V118
p42
sg9
VGoldeen
p43
sg11
VRu,S,E,
p44
sg13
VFish Good
p45
sg15
V10
p46
sg17
V30
p47
sg19
V20
p48
sbag1
(g2
g3
Ntp49
Rp50
(dp51
g7
V129
p52
sg9
VMagikarp
p53
sg11
VRu,S,E,
p54
sg13
VFish Good
p55
sg15
V10
p56
sg17
V30
p57
sg19
V60
p58
sbag1
(g2
g3
Ntp59
Rp60
(dp61
g7
V341
p62
sg9
VCorphish
p63
sg11
VRu,S,E,
p64
sg13
VFish Good
p65
sg15
V10
p66
sg17
V30
p67
sg19
V20
p68
sbag1
(g2
g3
Ntp69
Rp70
(dp71
g7
V341
p72
sg9
VCorphish
p73
sg11
VRu,S,E,
p74
sg13
VFish Super
p75
sg15
V20
p76
sg17
V45
p77
sg19
V100
p78
sbag1
(g2
g3
Ntp79
Rp80
(dp81
g7
V183
p82
sg9
VMarill
p83
sg11
VOR,AS,
p84
sg13
VSurf
p85
sg15
V15
p86
sg17
g86
sg19
V50
p87
sbag1
(g2
g3
Ntp88
Rp89
(dp90
g7
V184
p91
sg9
VAzumarill
p92
sg11
VOR,AS,
p93
sg13
VSurf
p94
sg15
V20
p95
sg17
V25
p96
sg19
V31
p97
sbag1
(g2
g3
Ntp98
Rp99
(dp100
g7
V283
p101
sg9
VSurskit
p102
sg11
VOR,AS,
p103
sg13
VSurf
p104
sg15
V15
p105
sg17
g105
sg19
V15
p106
sbag1
(g2
g3
Ntp107
Rp108
(dp109
g7
V284
p110
sg9
VMasquerain
p111
sg11
VOR,AS,
p112
sg13
VSurf
p113
sg15
V25
p114
sg17
g114
sg19
V4
p115
sbag1
(g2
g3
Ntp116
Rp117
(dp118
g7
V118
p119
sg9
VGoldeen
p120
sg11
VOR,AS,
p121
sg13
VFish Old
p122
sg15
g16
sg17
g16
sg19
V35
p123
sbag1
(g2
g3
Ntp124
Rp125
(dp126
g7
V129
p127
sg9
VMagikarp
p128
sg11
VOR,AS,
p129
sg13
VFish Old
p130
sg15
V10
p131
sg17
V15
p132
sg19
V65
p133
sbag1
(g2
g3
Ntp134
Rp135
(dp136
g7
V118
p137
sg9
VGoldeen
p138
sg11
VOR,AS,
p139
sg13
VFish Good
p140
sg15
V25
p141
sg17
g141
sg19
V35
p142
sbag1
(g2
g3
Ntp143
Rp144
(dp145
g7
V129
p146
sg9
VMagikarp
p147
sg11
VOR,AS,
p148
sg13
VFish Good
p149
sg15
V25
p150
sg17
g150
sg19
V60
p151
sbag1
(g2
g3
Ntp152
Rp153
(dp154
g7
V341
p155
sg9
VCorphish
p156
sg11
VOR,AS,
p157
sg13
VFish Good
p158
sg15
V25
p159
sg17
g159
sg19
V5
p160
sbag1
(g2
g3
Ntp161
Rp162
(dp163
g7
V341
p164
sg9
VCorphish
p165
sg11
VOR,AS,
p166
sg13
VFish Super
p167
sg15
V30
p168
sg17
V40
p169
sg19
V100
p170
sba.