(lp0
ccopy_reg
_reconstructor
p1
(c__main__
WildPokemon
p2
c__builtin__
object
p3
Ntp4
Rp5
(dp6
VpDexNo
p7
V261
p8
sVpSpecies
p9
VPoochyena
p10
sVpGames
p11
VE,
p12
sVpArea
p13
VGrass
p14
sVpMinLevel
p15
V5
p16
sVpMaxLevel
p17
V6
p18
sVpRate
p19
V30
p20
sbag1
(g2
g3
Ntp21
Rp22
(dp23
g7
V263
p24
sg9
VZigzagoon
p25
sg11
VRu,S,
p26
sg13
VGrass
p27
sg15
g16
sg17
g18
sg19
V30
p28
sbag1
(g2
g3
Ntp29
Rp30
(dp31
g7
V265
p32
sg9
VWurmple
p33
sg11
VRu,S,E,
p34
sg13
VGrass
p35
sg15
g16
sg17
g18
sg19
V25
p36
sbag1
(g2
g3
Ntp37
Rp38
(dp39
g7
V266
p40
sg9
VSilcoon
p41
sg11
VRu,S,E,
p42
sg13
VGrass
p43
sg15
g16
sg17
g16
sg19
V10
p44
sbag1
(g2
g3
Ntp45
Rp46
(dp47
g7
V268
p48
sg9
VCascoon
p49
sg11
VRu,S,E,
p50
sg13
VGrass
p51
sg15
g16
sg17
g16
sg19
V10
p52
sbag1
(g2
g3
Ntp53
Rp54
(dp55
g7
V276
p56
sg9
VTaillow
p57
sg11
VRu,S,E,
p58
sg13
VGrass
p59
sg15
g16
sg17
g18
sg19
V5
p60
sbag1
(g2
g3
Ntp61
Rp62
(dp63
g7
V285
p64
sg9
VShroomish
p65
sg11
VRu,S,E,
p66
sg13
VGrass
p67
sg15
g16
sg17
g18
sg19
V15
p68
sbag1
(g2
g3
Ntp69
Rp70
(dp71
g7
V287
p72
sg9
VSlakoth
p73
sg11
VRu,S,E,
p74
sg13
VGrass
p75
sg15
g16
sg17
g18
sg19
V5
p76
sbag1
(g2
g3
Ntp77
Rp78
(dp79
g7
V263
p80
sg9
VZigzagoon
p81
sg11
VOR,AS,
p82
sg13
VGrass
p83
sg15
V4
p84
sg17
g18
sg19
V30
p85
sbag1
(g2
g3
Ntp86
Rp87
(dp88
g7
V265
p89
sg9
VWurmple
p90
sg11
VOR,AS,
p91
sg13
VGrass
p92
sg15
g84
sg17
g18
sg19
V30
p93
sbag1
(g2
g3
Ntp94
Rp95
(dp96
g7
V266
p97
sg9
VSilcoon
p98
sg11
VOR,AS,
p99
sg13
VGrass
p100
sg15
g18
sg17
g18
sg19
V10
p101
sbag1
(g2
g3
Ntp102
Rp103
(dp104
g7
V268
p105
sg9
VCascoon
p106
sg11
VOR,AS,
p107
sg13
VGrass
p108
sg15
g18
sg17
g18
sg19
V10
p109
sbag1
(g2
g3
Ntp110
Rp111
(dp112
g7
V276
p113
sg9
VTaillow
p114
sg11
VOR,AS,
p115
sg13
VGrass
p116
sg15
g16
sg17
g16
sg19
V5
p117
sbag1
(g2
g3
Ntp118
Rp119
(dp120
g7
V285
p121
sg9
VShroomish
p122
sg11
VOR,AS,
p123
sg13
VGrass
p124
sg15
g16
sg17
g16
sg19
V10
p125
sbag1
(g2
g3
Ntp126
Rp127
(dp128
g7
V287
p129
sg9
VSlakoth
p130
sg11
VOR,AS,
p131
sg13
VGrass
p132
sg15
g16
sg17
g16
sg19
V5
p133
sbag1
(g2
g3
Ntp134
Rp135
(dp136
g7
V263
p137
sg9
VZigzagoon
p138
sg11
VOR,AS,
p139
sg13
VHorde Encounter
p140
sg15
V3
p141
sg17
g141
sg19
V35
p142
sbag1
(g2
g3
Ntp143
Rp144
(dp145
g7
V265
p146
sg9
VWurmple
p147
sg11
VOR,AS,
p148
sg13
VHorde Encounter
p149
sg15
g141
sg17
g141
sg19
V60
p150
sbag1
(g2
g3
Ntp151
Rp152
(dp153
g7
V285
p154
sg9
VShroomish
p155
sg11
VOR,AS,
p156
sg13
VHorde Encounter
p157
sg15
g141
sg17
g141
sg19
V5
p158
sbag1
(g2
g3
Ntp159
Rp160
(dp161
g7
V046
p162
sg9
VParas
p163
sg11
VOR,AS,
p164
sg13
VGrass
p165
sg15
g18
sg17
g18
sg19
V0
p166
sbag1
(g2
g3
Ntp167
Rp168
(dp169
g7
V546
p170
sg9
VCottonee
p171
sg11
VOR,AS,
p172
sg13
VGrass
p173
sg15
g18
sg17
g18
sg19
V0
p174
sbag1
(g2
g3
Ntp175
Rp176
(dp177
g7
V708
p178
sg9
VPhantump
p179
sg11
VOR,AS,
p180
sg13
VGrass
p181
sg15
g18
sg17
g18
sg19
V0
p182
sba.