(lp0
ccopy_reg
_reconstructor
p1
(c__main__
WildPokemon
p2
c__builtin__
object
p3
Ntp4
Rp5
(dp6
VpDexNo
p7
V138
p8
sVpSpecies
p9
VOmanyte
p10
sVpGames
p11
VHG,SS,
p12
sVpArea
p13
VHelix
p14
sVpMinLevel
p15
V20
p16
sVpMaxLevel
p17
g16
sVpRate
p18
V0
p19
sbag1
(g2
g3
Ntp20
Rp21
(dp22
g7
V140
p23
sg9
VKabuto
p24
sg11
VHG,SS,
p25
sg13
VDome
p26
sg15
V20
p27
sg17
g27
sg18
V0
p28
sbag1
(g2
g3
Ntp29
Rp30
(dp31
g7
V142
p32
sg9
VAerodactyl
p33
sg11
VHG,SS,
p34
sg13
VAmber
p35
sg15
V20
p36
sg17
g36
sg18
V0
p37
sbag1
(g2
g3
Ntp38
Rp39
(dp40
g7
V345
p41
sg9
VLileep
p42
sg11
VHG,SS,
p43
sg13
VRoot
p44
sg15
V20
p45
sg17
g45
sg18
V0
p46
sbag1
(g2
g3
Ntp47
Rp48
(dp49
g7
V347
p50
sg9
VAnorith
p51
sg11
VHG,SS,
p52
sg13
VClaw
p53
sg15
V20
p54
sg17
g54
sg18
V0
p55
sbag1
(g2
g3
Ntp56
Rp57
(dp58
g7
V408
p59
sg9
VCranidos
p60
sg11
VHG,SS,
p61
sg13
VSkull
p62
sg15
V20
p63
sg17
g63
sg18
V0
p64
sbag1
(g2
g3
Ntp65
Rp66
(dp67
g7
V410
p68
sg9
VShieldon
p69
sg11
VHG,SS,
p70
sg13
VArmor
p71
sg15
V20
p72
sg17
g72
sg18
V0
p73
sba.