(lp0
ccopy_reg
_reconstructor
p1
(c__main__
WildPokemon
p2
c__builtin__
object
p3
Ntp4
Rp5
(dp6
VpDexNo
p7
V519
p8
sVpSpecies
p9
VPidove
p10
sVpGames
p11
VB,W,
p12
sVpArea
p13
VGrass
p14
sVpMinLevel
p15
V12
p16
sVpMaxLevel
p17
V13
p18
sVpRate
p19
V30
p20
sbag1
(g2
g3
Ntp21
Rp22
(dp23
g7
V532
p24
sg9
VTimburr
p25
sg11
VB,W,
p26
sg13
VGrass
p27
sg15
V13
p28
sg17
V14
p29
sg19
V20
p30
sbag1
(g2
g3
Ntp31
Rp32
(dp33
g7
V535
p34
sg9
VTympole
p35
sg11
VB,W,
p36
sg13
VGrass
p37
sg15
V12
p38
sg17
V15
p39
sg19
V40
p40
sbag1
(g2
g3
Ntp41
Rp42
(dp43
g7
V538
p44
sg9
VThroh
p45
sg11
VW,
p46
sg13
VGrass
p47
sg15
V12
p48
sg17
V15
p49
sg19
V10
p50
sbag1
(g2
g3
Ntp51
Rp52
(dp53
g7
V539
p54
sg9
VSawk
p55
sg11
VB,
p56
sg13
VGrass
p57
sg15
V12
p58
sg17
V15
p59
sg19
V10
p60
sbag1
(g2
g3
Ntp61
Rp62
(dp63
g7
V519
p64
sg9
VPidove
p65
sg11
VB,W,
p66
sg13
VDark
p67
sg15
V14
p68
sg17
V15
p69
sg19
V30
p70
sbag1
(g2
g3
Ntp71
Rp72
(dp73
g7
V532
p74
sg9
VTimburr
p75
sg11
VB,W,
p76
sg13
VDark
p77
sg15
V15
p78
sg17
V16
p79
sg19
V20
p80
sbag1
(g2
g3
Ntp81
Rp82
(dp83
g7
V535
p84
sg9
VTympole
p85
sg11
VB,W,
p86
sg13
VDark
p87
sg15
V14
p88
sg17
V17
p89
sg19
V40
p90
sbag1
(g2
g3
Ntp91
Rp92
(dp93
g7
V538
p94
sg9
VThroh
p95
sg11
g46
sg13
VDark
p96
sg15
V14
p97
sg17
V17
p98
sg19
V10
p99
sbag1
(g2
g3
Ntp100
Rp101
(dp102
g7
V539
p103
sg9
VSawk
p104
sg11
g56
sg13
VDark
p105
sg15
V14
p106
sg17
V17
p107
sg19
V10
p108
sbag1
(g2
g3
Ntp109
Rp110
(dp111
g7
V531
p112
sg9
VAudino
p113
sg11
VB,W,
p114
sg13
VRustling
p115
sg15
V12
p116
sg17
V15
p117
sg19
V95
p118
sbag1
(g2
g3
Ntp119
Rp120
(dp121
g7
V538
p122
sg9
VThroh
p123
sg11
g56
sg13
VRustling
p124
sg15
V15
p125
sg17
g125
sg19
V5
p126
sbag1
(g2
g3
Ntp127
Rp128
(dp129
g7
V539
p130
sg9
VSawk
p131
sg11
g46
sg13
VRustling
p132
sg15
V15
p133
sg17
g133
sg19
V5
p134
sbag1
(g2
g3
Ntp135
Rp136
(dp137
g7
V519
p138
sg9
VPidove
p139
sg11
VB,W,
p140
sg13
VGrass
p141
sg15
V15
p142
sg17
V16
p143
sg19
V15
p144
sbag1
(g2
g3
Ntp145
Rp146
(dp147
g7
V540
p148
sg9
VSewaddle
p149
sg11
VB,W,
p150
sg13
VGrass
p151
sg15
V14
p152
sg17
V17
p153
sg19
V35
p154
sbag1
(g2
g3
Ntp155
Rp156
(dp157
g7
V543
p158
sg9
VVenipede
p159
sg11
VB,W,
p160
sg13
VGrass
p161
sg15
V15
p162
sg17
V16
p163
sg19
V15
p164
sbag1
(g2
g3
Ntp165
Rp166
(dp167
g7
V546
p168
sg9
VCottonee
p169
sg11
g56
sg13
VGrass
p170
sg15
V14
p171
sg17
V17
p172
sg19
V35
p173
sbag1
(g2
g3
Ntp174
Rp175
(dp176
g7
V548
p177
sg9
VPetilil
p178
sg11
g46
sg13
VGrass
p179
sg15
V14
p180
sg17
V17
p181
sg19
V35
p182
sbag1
(g2
g3
Ntp183
Rp184
(dp185
g7
V520
p186
sg9
VTranquill
p187
sg11
VB,W,
p188
sg13
VDark
p189
sg15
V23
p190
sg17
V24
p191
sg19
V15
p192
sbag1
(g2
g3
Ntp193
Rp194
(dp195
g7
V541
p196
sg9
VSwadloon
p197
sg11
VB,W,
p198
sg13
VDark
p199
sg15
V22
p200
sg17
V25
p201
sg19
V35
p202
sbag1
(g2
g3
Ntp203
Rp204
(dp205
g7
V544
p206
sg9
VWhirlipede
p207
sg11
VB,W,
p208
sg13
VDark
p209
sg15
V23
p210
sg17
V24
p211
sg19
V15
p212
sbag1
(g2
g3
Ntp213
Rp214
(dp215
g7
V546
p216
sg9
VCottonee
p217
sg11
g56
sg13
VDark
p218
sg15
V22
p219
sg17
V25
p220
sg19
V35
p221
sbag1
(g2
g3
Ntp222
Rp223
(dp224
g7
V548
p225
sg9
VPetilil
p226
sg11
g46
sg13
VDark
p227
sg15
V22
p228
sg17
V25
p229
sg19
V35
p230
sbag1
(g2
g3
Ntp231
Rp232
(dp233
g7
V511
p234
sg9
VPansage
p235
sg11
VB,W,
p236
sg13
VRustling
p237
sg15
V15
p238
sg17
g238
sg19
V10
p239
sbag1
(g2
g3
Ntp240
Rp241
(dp242
g7
V513
p243
sg9
VPansear
p244
sg11
VB,W,
p245
sg13
VRustling
p246
sg15
V15
p247
sg17
g247
sg19
V10
p248
sbag1
(g2
g3
Ntp249
Rp250
(dp251
g7
V515
p252
sg9
VPanpour
p253
sg11
VB,W,
p254
sg13
VRustling
p255
sg15
V15
p256
sg17
g256
sg19
V10
p257
sbag1
(g2
g3
Ntp258
Rp259
(dp260
g7
V531
p261
sg9
VAudino
p262
sg11
VB,W,
p263
sg13
VRustling
p264
sg15
V14
p265
sg17
V17
p266
sg19
V65
p267
sbag1
(g2
g3
Ntp268
Rp269
(dp270
g7
V547
p271
sg9
VWhimsicott
p272
sg11
g56
sg13
VRustling
p273
sg15
V17
p274
sg17
g274
sg19
V5
p275
sbag1
(g2
g3
Ntp276
Rp277
(dp278
g7
V549
p279
sg9
VLilligant
p280
sg11
g46
sg13
VRustling
p281
sg15
V17
p282
sg17
g282
sg19
V5
p283
sbag1
(g2
g3
Ntp284
Rp285
(dp286
g7
V550
p287
sg9
VBasculin
p288
sg11
g56
sg13
VSurf
p289
sg15
V5
p290
sg17
V20
p291
sg19
V100
p292
sbag1
(g2
g3
Ntp293
Rp294
(dp295
g7
V550
p296
sg9
VBasculin
p297
sg11
g46
sg13
VSurf
p298
sg15
g290
sg17
V20
p299
sg19
V100
p300
sbag1
(g2
g3
Ntp301
Rp302
(dp303
g7
V550
p304
sg9
VBasculin
p305
sg11
g46
sg13
VRippling
p306
sg15
g290
sg17
V20
p307
sg19
V100
p308
sbag1
(g2
g3
Ntp309
Rp310
(dp311
g7
V550
p312
sg9
VBasculin
p313
sg11
g56
sg13
VRippling
p314
sg15
g290
sg17
V20
p315
sg19
V100
p316
sbag1
(g2
g3
Ntp317
Rp318
(dp319
g7
V118
p320
sg9
VGoldeen
p321
sg11
VB,W,
p322
sg13
VFishing
p323
sg15
V35
p324
sg17
V55
p325
sg19
V70
p326
sbag1
(g2
g3
Ntp327
Rp328
(dp329
g7
V550
p330
sg9
VBasculin
p331
sg11
g56
sg13
VFishing
p332
sg15
V35
p333
sg17
V55
p334
sg19
V30
p335
sbag1
(g2
g3
Ntp336
Rp337
(dp338
g7
V550
p339
sg9
VBasculin
p340
sg11
g46
sg13
VFishing
p341
sg15
V35
p342
sg17
V55
p343
sg19
V30
p344
sbag1
(g2
g3
Ntp345
Rp346
(dp347
g7
V118
p348
sg9
VGoldeen
p349
sg11
VB,W,
p350
sg13
VRippling
p351
sg15
V35
p352
sg17
V60
p353
sg19
V60
p354
sbag1
(g2
g3
Ntp355
Rp356
(dp357
g7
V119
p358
sg9
VSeaking
p359
sg11
VB,W,
p360
sg13
VRippling
p361
sg15
V35
p362
sg17
V70
p363
sg19
V10
p364
sbag1
(g2
g3
Ntp365
Rp366
(dp367
g7
V550
p368
sg9
VBasculin
p369
sg11
g46
sg13
VRippling
p370
sg15
V35
p371
sg17
V60
p372
sg19
V30
p373
sbag1
(g2
g3
Ntp374
Rp375
(dp376
g7
V550
p377
sg9
VBasculin
p378
sg11
g56
sg13
VRippling
p379
sg15
V35
p380
sg17
V60
p381
sg19
V30
p382
sbag1
(g2
g3
Ntp383
Rp384
(dp385
g7
V640
p386
sg9
VVirizion
p387
sg11
VB,W,
p388
sg13
VSpecial
p389
sg15
V42
p390
sg17
g390
sg19
V0
p391
sbag1
(g2
g3
Ntp392
Rp393
(dp394
g7
V193
p395
sg9
VYanma
p396
sg11
VB2,W2,
p397
sg13
VGrass
p398
sg15
V55
p399
sg17
g399
sg19
V10
p400
sbag1
(g2
g3
Ntp401
Rp402
(dp403
g7
V454
p404
sg9
VToxicroak
p405
sg11
VB2,W2,
p406
sg13
VGrass
p407
sg15
V55
p408
sg17
g408
sg19
V10
p409
sbag1
(g2
g3
Ntp410
Rp411
(dp412
g7
V533
p413
sg9
VGurdurr
p414
sg11
VB2,W2,
p415
sg13
VGrass
p416
sg15
V54
p417
sg17
V56
p418
sg19
V40
p419
sbag1
(g2
g3
Ntp420
Rp421
(dp422
g7
V536
p423
sg9
VPalpitoad
p424
sg11
VB2,W2,
p425
sg13
VGrass
p426
sg15
V54
p427
sg17
V57
p428
sg19
V25
p429
sbag1
(g2
g3
Ntp430
Rp431
(dp432
g7
V538
p433
sg9
VThroh
p434
sg11
VW2,
p435
sg13
VGrass
p436
sg15
V55
p437
sg17
V57
p438
sg19
V15
p439
sbag1
(g2
g3
Ntp440
Rp441
(dp442
g7
V539
p443
sg9
VSawk
p444
sg11
VB2,
p445
sg13
VGrass
p446
sg15
V55
p447
sg17
V57
p448
sg19
V15
p449
sbag1
(g2
g3
Ntp450
Rp451
(dp452
g7
V193
p453
sg9
VYanma
p454
sg11
VB2,W2,
p455
sg13
VDark
p456
sg15
V63
p457
sg17
g457
sg19
V10
p458
sbag1
(g2
g3
Ntp459
Rp460
(dp461
g7
V454
p462
sg9
VToxicroak
p463
sg11
VB2,W2,
p464
sg13
VDark
p465
sg15
V63
p466
sg17
g466
sg19
V10
p467
sbag1
(g2
g3
Ntp468
Rp469
(dp470
g7
V533
p471
sg9
VGurdurr
p472
sg11
VB2,W2,
p473
sg13
VDark
p474
sg15
V63
p475
sg17
V64
p476
sg19
V40
p477
sbag1
(g2
g3
Ntp478
Rp479
(dp480
g7
V536
p481
sg9
VPalpitoad
p482
sg11
VB2,W2,
p483
sg13
VDark
p484
sg15
V64
p485
sg17
V65
p486
sg19
V25
p487
sbag1
(g2
g3
Ntp488
Rp489
(dp490
g7
V538
p491
sg9
VThroh
p492
sg11
g435
sg13
VDark
p493
sg15
V63
p494
sg17
V65
p495
sg19
V15
p496
sbag1
(g2
g3
Ntp497
Rp498
(dp499
g7
V539
p500
sg9
VSawk
p501
sg11
g445
sg13
VDark
p502
sg15
V63
p503
sg17
V65
p504
sg19
V15
p505
sbag1
(g2
g3
Ntp506
Rp507
(dp508
g7
V469
p509
sg9
VYanmega
p510
sg11
VB2,W2,
p511
sg13
VRustling
p512
sg15
V57
p513
sg17
g513
sg19
V5
p514
sbag1
(g2
g3
Ntp515
Rp516
(dp517
g7
V531
p518
sg9
VAudino
p519
sg11
VB2,W2,
p520
sg13
VRustling
p521
sg15
V54
p522
sg17
V57
p523
sg19
V85
p524
sbag1
(g2
g3
Ntp525
Rp526
(dp527
g7
V537
p528
sg9
VSeismitoad
p529
sg11
VB2,W2,
p530
sg13
VRustling
p531
sg15
V57
p532
sg17
g532
sg19
V5
p533
sbag1
(g2
g3
Ntp534
Rp535
(dp536
g7
V538
p537
sg9
VThroh
p538
sg11
g445
sg13
VRustling
p539
sg15
V57
p540
sg17
g540
sg19
V5
p541
sbag1
(g2
g3
Ntp542
Rp543
(dp544
g7
V539
p545
sg9
VSawk
p546
sg11
g435
sg13
VRustling
p547
sg15
V57
p548
sg17
g548
sg19
V5
p549
sbag1
(g2
g3
Ntp550
Rp551
(dp552
g7
V061
p553
sg9
VPoliwhirl
p554
sg11
VB2,W2,
p555
sg13
VGrotto
p556
sg15
V55
p557
sg17
V60
p558
sg19
V0
p559
sbag1
(g2
g3
Ntp560
Rp561
(dp562
g7
V297
p563
sg9
VHariyama
p564
sg11
g445
sg13
VGrotto
p565
sg15
V55
p566
sg17
V60
p567
sg19
V0
p568
sbag1
(g2
g3
Ntp569
Rp570
(dp571
g7
V297
p572
sg9
VHariyama
p573
sg11
g435
sg13
VGrotto
p574
sg15
V55
p575
sg17
V60
p576
sg19
V0
p577
sbag1
(g2
g3
Ntp578
Rp579
(dp580
g7
V308
p581
sg9
VMedicham
p582
sg11
g445
sg13
VGrotto
p583
sg15
V55
p584
sg17
V60
p585
sg19
V0
p586
sbag1
(g2
g3
Ntp587
Rp588
(dp589
g7
V308
p590
sg9
VMedicham
p591
sg11
g435
sg13
VGrotto
p592
sg15
V55
p593
sg17
V60
p594
sg19
V0
p595
sbag1
(g2
g3
Ntp596
Rp597
(dp598
g7
V371
p599
sg9
VBagon
p600
sg11
VB2,W2,
p601
sg13
VGrotto
p602
sg15
V55
p603
sg17
V60
p604
sg19
V0
p605
sbag1
(g2
g3
Ntp606
Rp607
(dp608
g7
V519
p609
sg9
VPidove
p610
sg11
VB2,W2,
p611
sg13
VSpecial
p612
sg15
V13
p613
sg17
g613
sg19
V0
p614
sbag1
(g2
g3
Ntp615
Rp616
(dp617
g7
V532
p618
sg9
VTimburr
p619
sg11
VB2,W2,
p620
sg13
VSpecial
p621
sg15
V13
p622
sg17
g622
sg19
V0
p623
sbag1
(g2
g3
Ntp624
Rp625
(dp626
g7
V535
p627
sg9
VTympole
p628
sg11
VB2,W2,
p629
sg13
VSpecial
p630
sg15
V13
p631
sg17
g631
sg19
V0
p632
sbag1
(g2
g3
Ntp633
Rp634
(dp635
g7
V288
p636
sg9
VVigoroth
p637
sg11
VB2,W2,
p638
sg13
VGrass
p639
sg15
V55
p640
sg17
V57
p641
sg19
V15
p642
sbag1
(g2
g3
Ntp643
Rp644
(dp645
g7
V541
p646
sg9
VSwadloon
p647
sg11
VB2,W2,
p648
sg13
VGrass
p649
sg15
V54
p650
sg17
V56
p651
sg19
V25
p652
sbag1
(g2
g3
Ntp653
Rp654
(dp655
g7
V544
p656
sg9
VWhirlipede
p657
sg11
VB2,W2,
p658
sg13
VGrass
p659
sg15
V55
p660
sg17
V57
p661
sg19
V15
p662
sbag1
(g2
g3
Ntp663
Rp664
(dp665
g7
V546
p666
sg9
VCottonee
p667
sg11
g445
sg13
VGrass
p668
sg15
V54
p669
sg17
V57
p670
sg19
V45
p671
sbag1
(g2
g3
Ntp672
Rp673
(dp674
g7
V548
p675
sg9
VPetilil
p676
sg11
g435
sg13
VGrass
p677
sg15
V54
p678
sg17
V57
p679
sg19
V45
p680
sbag1
(g2
g3
Ntp681
Rp682
(dp683
g7
V288
p684
sg9
VVigoroth
p685
sg11
VB2,W2,
p686
sg13
VDark
p687
sg15
V63
p688
sg17
V65
p689
sg19
V15
p690
sbag1
(g2
g3
Ntp691
Rp692
(dp693
g7
V541
p694
sg9
VSwadloon
p695
sg11
VB2,W2,
p696
sg13
VDark
p697
sg15
V62
p698
sg17
V64
p699
sg19
V25
p700
sbag1
(g2
g3
Ntp701
Rp702
(dp703
g7
V544
p704
sg9
VWhirlipede
p705
sg11
VB2,W2,
p706
sg13
VDark
p707
sg15
V63
p708
sg17
V65
p709
sg19
V15
p710
sbag1
(g2
g3
Ntp711
Rp712
(dp713
g7
V546
p714
sg9
VCottonee
p715
sg11
g445
sg13
VDark
p716
sg15
V62
p717
sg17
V65
p718
sg19
V45
p719
sbag1
(g2
g3
Ntp720
Rp721
(dp722
g7
V548
p723
sg9
VPetilil
p724
sg11
g435
sg13
VDark
p725
sg15
V62
p726
sg17
V65
p727
sg19
V45
p728
sbag1
(g2
g3
Ntp729
Rp730
(dp731
g7
V289
p732
sg9
VSlaking
p733
sg11
VB2,W2,
p734
sg13
VRustling
p735
sg15
V57
p736
sg17
g736
sg19
V5
p737
sbag1
(g2
g3
Ntp738
Rp739
(dp740
g7
V511
p741
sg9
VPansage
p742
sg11
VB2,W2,
p743
sg13
VRustling
p744
sg15
V55
p745
sg17
g745
sg19
V10
p746
sbag1
(g2
g3
Ntp747
Rp748
(dp749
g7
V513
p750
sg9
VPansear
p751
sg11
VB2,W2,
p752
sg13
VRustling
p753
sg15
V55
p754
sg17
g754
sg19
V10
p755
sbag1
(g2
g3
Ntp756
Rp757
(dp758
g7
V515
p759
sg9
VPanpour
p760
sg11
VB2,W2,
p761
sg13
VRustling
p762
sg15
V55
p763
sg17
g763
sg19
V10
p764
sbag1
(g2
g3
Ntp765
Rp766
(dp767
g7
V531
p768
sg9
VAudino
p769
sg11
g445
sg13
VRustling
p770
sg15
V54
p771
sg17
V64
p772
sg19
V55
p773
sbag1
(g2
g3
Ntp774
Rp775
(dp776
g7
V531
p777
sg9
VAudino
p778
sg11
g435
sg13
VRustling
p779
sg15
V54
p780
sg17
V57
p781
sg19
V55
p782
sbag1
(g2
g3
Ntp783
Rp784
(dp785
g7
V545
p786
sg9
VScolipede
p787
sg11
VB2,W2,
p788
sg13
VRustling
p789
sg15
V57
p790
sg17
g790
sg19
V5
p791
sbag1
(g2
g3
Ntp792
Rp793
(dp794
g7
V547
p795
sg9
VWhimsicott
p796
sg11
g445
sg13
VRustling
p797
sg15
V57
p798
sg17
g798
sg19
V5
p799
sbag1
(g2
g3
Ntp800
Rp801
(dp802
g7
V549
p803
sg9
VLilligant
p804
sg11
g435
sg13
VRustling
p805
sg15
V57
p806
sg17
g806
sg19
V5
p807
sbag1
(g2
g3
Ntp808
Rp809
(dp810
g7
V183
p811
sg9
VMarill
p812
sg11
VB2,W2,
p813
sg13
VSurf
p814
sg15
V45
p815
sg17
V60
p816
sg19
V30
p817
sbag1
(g2
g3
Ntp818
Rp819
(dp820
g7
V550
p821
sg9
VBasculin
p822
sg11
g445
sg13
VSurf
p823
sg15
V45
p824
sg17
V60
p825
sg19
V70
p826
sbag1
(g2
g3
Ntp827
Rp828
(dp829
g7
V550
p830
sg9
VBasculin
p831
sg11
g435
sg13
VSurf
p832
sg15
V45
p833
sg17
V60
p834
sg19
V70
p835
sbag1
(g2
g3
Ntp836
Rp837
(dp838
g7
V183
p839
sg9
VMarill
p840
sg11
VB2,W2,
p841
sg13
VRippling
p842
sg15
V45
p843
sg17
V60
p844
sg19
V60
p845
sbag1
(g2
g3
Ntp846
Rp847
(dp848
g7
V184
p849
sg9
VAzumarill
p850
sg11
VB2,W2,
p851
sg13
VRippling
p852
sg15
V50
p853
sg17
V60
p854
sg19
V5
p855
sbag1
(g2
g3
Ntp856
Rp857
(dp858
g7
V550
p859
sg9
VBasculin
p860
sg11
g445
sg13
VRippling
p861
sg15
V45
p862
sg17
V60
p863
sg19
V35
p864
sbag1
(g2
g3
Ntp865
Rp866
(dp867
g7
V550
p868
sg9
VBasculin
p869
sg11
g435
sg13
VRippling
p870
sg15
V45
p871
sg17
V60
p872
sg19
V35
p873
sbag1
(g2
g3
Ntp874
Rp875
(dp876
g7
V118
p877
sg9
VGoldeen
p878
sg11
VB2,W2,
p879
sg13
VFish Super
p880
sg15
V40
p881
sg17
V70
p882
sg19
V70
p883
sbag1
(g2
g3
Ntp884
Rp885
(dp886
g7
V550
p887
sg9
VBasculin
p888
sg11
g445
sg13
VFish Super
p889
sg15
V40
p890
sg17
V60
p891
sg19
V30
p892
sbag1
(g2
g3
Ntp893
Rp894
(dp895
g7
V550
p896
sg9
VBasculin
p897
sg11
g435
sg13
VFish Super
p898
sg15
V40
p899
sg17
V60
p900
sg19
V30
p901
sbag1
(g2
g3
Ntp902
Rp903
(dp904
g7
V118
p905
sg9
VGoldeen
p906
sg11
VB2,W2,
p907
sg13
VRippling
p908
sg15
V35
p909
sg17
V60
p910
sg19
V60
p911
sbag1
(g2
g3
Ntp912
Rp913
(dp914
g7
V119
p915
sg9
VSeaking
p916
sg11
VB2,W2,
p917
sg13
VRippling
p918
sg15
V35
p919
sg17
V70
p920
sg19
V10
p921
sbag1
(g2
g3
Ntp922
Rp923
(dp924
g7
V550
p925
sg9
VBasculin
p926
sg11
g445
sg13
VRippling
p927
sg15
V35
p928
sg17
V60
p929
sg19
V30
p930
sbag1
(g2
g3
Ntp931
Rp932
(dp933
g7
V550
p934
sg9
VBasculin
p935
sg11
g435
sg13
VRippling
p936
sg15
V35
p937
sg17
V60
p938
sg19
V30
p939
sbag1
(g2
g3
Ntp940
Rp941
(dp942
g7
V012
p943
sg9
VButterfree
p944
sg11
g435
sg13
VGrotto
p945
sg15
V55
p946
sg17
V60
p947
sg19
V0
p948
sbag1
(g2
g3
Ntp949
Rp950
(dp951
g7
V015
p952
sg9
VBeedrill
p953
sg11
g445
sg13
VGrotto
p954
sg15
V55
p955
sg17
V60
p956
sg19
V0
p957
sbag1
(g2
g3
Ntp958
Rp959
(dp960
g7
V198
p961
sg9
VMurkrow
p962
sg11
VB2,W2,
p963
sg13
VGrotto
p964
sg15
V55
p965
sg17
V60
p966
sg19
V0
p967
sbag1
(g2
g3
Ntp968
Rp969
(dp970
g7
V286
p971
sg9
VBreloom
p972
sg11
VB2,W2,
p973
sg13
VGrotto
p974
sg15
V55
p975
sg17
V60
p976
sg19
V0
p977
sbag1
(g2
g3
Ntp978
Rp979
(dp980
g7
V591
p981
sg9
VAmoonguss
p982
sg11
VB2,W2,
p983
sg13
VGrotto
p984
sg15
V55
p985
sg17
V60
p986
sg19
V0
p987
sba.