(lp0
ccopy_reg
_reconstructor
p1
(c__main__
WildPokemon
p2
c__builtin__
object
p3
Ntp4
Rp5
(dp6
VpDexNo
p7
V039
p8
sVpSpecies
p9
VJigglypuff
p10
sVpGames
p11
VX,Y,
p12
sVpArea
p13
VYellow flowers
p14
sVpMinLevel
p15
V50
p16
sVpMaxLevel
p17
g16
sVpRate
p18
V10
p19
sbag1
(g2
g3
Ntp20
Rp21
(dp22
g7
V132
p23
sg9
VDitto
p24
sg11
VX,Y,
p25
sg13
VYellow flowers
p26
sg15
V48
p27
sg17
V49
p28
sg18
V20
p29
sbag1
(g2
g3
Ntp30
Rp31
(dp32
g7
V164
p33
sg9
VNoctowl
p34
sg11
VX,Y,
p35
sg13
VYellow flowers
p36
sg15
V50
p37
sg17
g37
sg18
V10
p38
sbag1
(g2
g3
Ntp39
Rp40
(dp41
g7
V571
p42
sg9
VZoroark
p43
sg11
VX,Y,
p44
sg13
VYellow flowers
p45
sg15
V48
p46
sg17
V50
p47
sg18
V10
p48
sbag1
(g2
g3
Ntp49
Rp50
(dp51
g7
V575
p52
sg9
VGothorita
p53
sg11
VX,Y,
p54
sg13
VYellow flowers
p55
sg15
V48
p56
sg17
V50
p57
sg18
V30
p58
sbag1
(g2
g3
Ntp59
Rp60
(dp61
g7
V591
p62
sg9
VAmoonguss
p63
sg11
VX,Y,
p64
sg13
VYellow flowers
p65
sg15
V49
p66
sg17
V50
p67
sg18
V20
p68
sbag1
(g2
g3
Ntp69
Rp70
(dp71
g7
V039
p72
sg9
VJigglypuff
p73
sg11
VX,Y,
p74
sg13
VPurple flowers
p75
sg15
V48
p76
sg17
V49
p77
sg18
V20
p78
sbag1
(g2
g3
Ntp79
Rp80
(dp81
g7
V132
p82
sg9
VDitto
p83
sg11
VX,Y,
p84
sg13
VPurple flowers
p85
sg15
V50
p86
sg17
g86
sg18
V10
p87
sbag1
(g2
g3
Ntp88
Rp89
(dp90
g7
V164
p91
sg9
VNoctowl
p92
sg11
VX,Y,
p93
sg13
VPurple flowers
p94
sg15
V48
p95
sg17
V50
p96
sg18
V30
p97
sbag1
(g2
g3
Ntp98
Rp99
(dp100
g7
V571
p101
sg9
VZoroark
p102
sg11
VX,Y,
p103
sg13
VPurple flowers
p104
sg15
V48
p105
sg17
V50
p106
sg18
V10
p107
sbag1
(g2
g3
Ntp108
Rp109
(dp110
g7
V575
p111
sg9
VGothorita
p112
sg11
VX,Y,
p113
sg13
VPurple flowers
p114
sg15
V50
p115
sg17
g115
sg18
V10
p116
sbag1
(g2
g3
Ntp117
Rp118
(dp119
g7
V591
p120
sg9
VAmoonguss
p121
sg11
VX,Y,
p122
sg13
VPurple flowers
p123
sg15
V49
p124
sg17
V50
p125
sg18
V20
p126
sbag1
(g2
g3
Ntp127
Rp128
(dp129
g7
V060
p130
sg9
VPoliwag
p131
sg11
VX,Y,
p132
sg13
VHorde Encounter
p133
sg15
V25
p134
sg17
g134
sg18
V35
p135
sbag1
(g2
g3
Ntp136
Rp137
(dp138
g7
V271
p139
sg9
VLombre
p140
sg11
VX,Y,
p141
sg13
VHorde Encounter
p142
sg15
V25
p143
sg17
g143
sg18
V5
p144
sbag1
(g2
g3
Ntp145
Rp146
(dp147
g7
V590
p148
sg9
VFoongus
p149
sg11
VX,Y,
p150
sg13
VHorde Encounter
p151
sg15
V25
p152
sg17
g152
sg18
V60
p153
sbag1
(g2
g3
Ntp154
Rp155
(dp156
g7
V061
p157
sg9
VPoliwhirl
p158
sg11
VX,Y,
p159
sg13
VSurf
p160
sg15
V48
p161
sg17
V50
p162
sg18
V34
p163
sbag1
(g2
g3
Ntp164
Rp165
(dp166
g7
V271
p167
sg9
VLombre
p168
sg11
VX,Y,
p169
sg13
VSurf
p170
sg15
V48
p171
sg17
V50
p172
sg18
V66
p173
sbag1
(g2
g3
Ntp174
Rp175
(dp176
g7
V060
p177
sg9
VPoliwag
p178
sg11
VX,Y,
p179
sg13
VFish Old
p180
sg15
V30
p181
sg17
g181
sg18
V100
p182
sbag1
(g2
g3
Ntp183
Rp184
(dp185
g7
V061
p186
sg9
VPoliwhirl
p187
sg11
VX,Y,
p188
sg13
VFish Good
p189
sg15
V40
p190
sg17
g190
sg18
V35
p191
sbag1
(g2
g3
Ntp192
Rp193
(dp194
g7
V550
p195
sg9
VBasculin
p196
sg11
VY,
p197
sg13
VFish Good
p198
sg15
V40
p199
sg17
g199
sg18
V65
p200
sbag1
(g2
g3
Ntp201
Rp202
(dp203
g7
V550
p204
sg9
VBasculin
p205
sg11
VX,
p206
sg13
VFish Good
p207
sg15
V40
p208
sg17
g208
sg18
V65
p209
sbag1
(g2
g3
Ntp210
Rp211
(dp212
g7
V061
p213
sg9
VPoliwhirl
p214
sg11
VX,Y,
p215
sg13
VFish Super
p216
sg15
V50
p217
sg17
g217
sg18
V65
p218
sbag1
(g2
g3
Ntp219
Rp220
(dp221
g7
V550
p222
sg9
VBasculin
p223
sg11
g206
sg13
VFish Super
p224
sg15
V50
p225
sg17
g225
sg18
V35
p226
sbag1
(g2
g3
Ntp227
Rp228
(dp229
g7
V550
p230
sg9
VBasculin
p231
sg11
g197
sg13
VFish Super
p232
sg15
V50
p233
sg17
g233
sg18
V35
p234
sbag1
(g2
g3
Ntp235
Rp236
(dp237
g7
V569
p238
sg9
VGarbodor
p239
sg11
VX,Y,
p240
sg13
VShaking trash cans
p241
sg15
V46
p242
sg17
V50
p243
sg18
V100
p244
sbag1
(g2
g3
Ntp245
Rp246
(dp247
g7
V354
p248
sg9
VBanette
p249
sg11
VX,Y,
p250
sg13
VShaking trash cans
p251
sg15
V46
p252
sg17
V50
p253
sg18
V100
p254
sba.