(lp0
ccopy_reg
_reconstructor
p1
(c__main__
WildPokemon
p2
c__builtin__
object
p3
Ntp4
Rp5
(dp6
VpDexNo
p7
V092
p8
sVpSpecies
p9
VGastly
p10
sVpGames
p11
VR,B,
p12
sVpArea
p13
V3F
p14
sVpMinLevel
p15
V18
p16
sVpMaxLevel
p17
V24
p18
sVpRate
p19
V90
p20
sbag1
(g2
g3
Ntp21
Rp22
(dp23
g7
V092
p24
sg9
VGastly
p25
sg11
VY,
p26
sg13
V3F
p27
sg15
V18
p28
sg17
V25
p29
sg19
V95
p30
sbag1
(g2
g3
Ntp31
Rp32
(dp33
g7
V093
p34
sg9
VHaunter
p35
sg11
VR,B,
p36
sg13
V3F
p37
sg15
V25
p38
sg17
g38
sg19
V1
p39
sbag1
(g2
g3
Ntp40
Rp41
(dp42
g7
V093
p43
sg9
VHaunter
p44
sg11
g26
sg13
V3F
p45
sg15
V20
p46
sg17
V25
p47
sg19
V5
p48
sbag1
(g2
g3
Ntp49
Rp50
(dp51
g7
V104
p52
sg9
VCubone
p53
sg11
VR,B,
p54
sg13
V3F
p55
sg15
V20
p56
sg17
V22
p57
sg19
V9
p58
sbag1
(g2
g3
Ntp59
Rp60
(dp61
g7
V092
p62
sg9
VGastly
p63
sg11
VR,B,
p64
sg13
V4F
p65
sg15
V18
p66
sg17
V24
p67
sg19
V86
p68
sbag1
(g2
g3
Ntp69
Rp70
(dp71
g7
V092
p72
sg9
VGastly
p73
sg11
g26
sg13
V4F
p74
sg15
V18
p75
sg17
V25
p76
sg19
V95
p77
sbag1
(g2
g3
Ntp78
Rp79
(dp80
g7
V093
p81
sg9
VHaunter
p82
sg11
VR,B,
p83
sg13
V4F
p84
sg15
V25
p85
sg17
g85
sg19
V5
p86
sbag1
(g2
g3
Ntp87
Rp88
(dp89
g7
V093
p90
sg9
VHaunter
p91
sg11
g26
sg13
V4F
p92
sg15
V20
p93
sg17
V25
p94
sg19
V5
p95
sbag1
(g2
g3
Ntp96
Rp97
(dp98
g7
V104
p99
sg9
VCubone
p100
sg11
VR,B,
p101
sg13
V4F
p102
sg15
V20
p103
sg17
V22
p104
sg19
V9
p105
sbag1
(g2
g3
Ntp106
Rp107
(dp108
g7
V092
p109
sg9
VGastly
p110
sg11
VR,B,
p111
sg13
V5F
p112
sg15
V18
p113
sg17
V24
p114
sg19
V86
p115
sbag1
(g2
g3
Ntp116
Rp117
(dp118
g7
V092
p119
sg9
VGastly
p120
sg11
g26
sg13
V5F
p121
sg15
V21
p122
sg17
V27
p123
sg19
V90
p124
sbag1
(g2
g3
Ntp125
Rp126
(dp127
g7
V093
p128
sg9
VHaunter
p129
sg11
VR,B,
p130
sg13
V5F
p131
sg15
V25
p132
sg17
g132
sg19
V5
p133
sbag1
(g2
g3
Ntp134
Rp135
(dp136
g7
V093
p137
sg9
VHaunter
p138
sg11
g26
sg13
V5F
p139
sg15
V22
p140
sg17
V27
p141
sg19
V5
p142
sbag1
(g2
g3
Ntp143
Rp144
(dp145
g7
V104
p146
sg9
VCubone
p147
sg11
VR,B,
p148
sg13
V5F
p149
sg15
V20
p150
sg17
V22
p151
sg19
V9
p152
sbag1
(g2
g3
Ntp153
Rp154
(dp155
g7
V104
p156
sg9
VCubone
p157
sg11
g26
sg13
V5F
p158
sg15
V20
p159
sg17
g159
sg19
V5
p160
sbag1
(g2
g3
Ntp161
Rp162
(dp163
g7
V092
p164
sg9
VGastly
p165
sg11
VR,B,
p166
sg13
V6F
p167
sg15
V19
p168
sg17
V24
p169
sg19
V85
p170
sbag1
(g2
g3
Ntp171
Rp172
(dp173
g7
V092
p174
sg9
VGastly
p175
sg11
g26
sg13
V6F
p176
sg15
V21
p177
sg17
V27
p178
sg19
V90
p179
sbag1
(g2
g3
Ntp180
Rp181
(dp182
g7
V093
p183
sg9
VHaunter
p184
sg11
VR,B,
p185
sg13
V6F
p186
sg15
V26
p187
sg17
V28
p188
sg19
V6
p189
sbag1
(g2
g3
Ntp190
Rp191
(dp192
g7
V093
p193
sg9
VHaunter
p194
sg11
g26
sg13
V6F
p195
sg15
V22
p196
sg17
V27
p197
sg19
V5
p198
sbag1
(g2
g3
Ntp199
Rp200
(dp201
g7
V104
p202
sg9
VCubone
p203
sg11
VR,B,
p204
sg13
V6F
p205
sg15
V22
p206
sg17
V24
p207
sg19
V9
p208
sbag1
(g2
g3
Ntp209
Rp210
(dp211
g7
V104
p212
sg9
VCubone
p213
sg11
g26
sg13
V6F
p214
sg15
V20
p215
sg17
g215
sg19
V5
p216
sbag1
(g2
g3
Ntp217
Rp218
(dp219
g7
V092
p220
sg9
VGastly
p221
sg11
VR,B,
p222
sg13
V7F
p223
sg15
V20
p224
sg17
V24
p225
sg19
V75
p226
sbag1
(g2
g3
Ntp227
Rp228
(dp229
g7
V092
p230
sg9
VGastly
p231
sg11
g26
sg13
V7F
p232
sg15
V23
p233
sg17
V29
p234
sg19
V90
p235
sbag1
(g2
g3
Ntp236
Rp237
(dp238
g7
V093
p239
sg9
VHaunter
p240
sg11
VR,B,
p241
sg13
V7F
p242
sg15
V28
p243
sg17
V30
p244
sg19
V15
p245
sbag1
(g2
g3
Ntp246
Rp247
(dp248
g7
V093
p249
sg9
VHaunter
p250
sg11
g26
sg13
V7F
p251
sg15
V24
p252
sg17
V29
p253
sg19
V5
p254
sbag1
(g2
g3
Ntp255
Rp256
(dp257
g7
V104
p258
sg9
VCubone
p259
sg11
VR,B,
p260
sg13
V7F
p261
sg15
V22
p262
sg17
V24
p263
sg19
V10
p264
sbag1
(g2
g3
Ntp265
Rp266
(dp267
g7
V104
p268
sg9
VCubone
p269
sg11
g26
sg13
V7F
p270
sg15
V24
p271
sg17
g271
sg19
V5
p272
sbag1
(g2
g3
Ntp273
Rp274
(dp275
g7
V105
p276
sg9
VGhost Marowak
p277
sg11
VR,B,Y,
p278
sg13
VSpecial
p279
sg15
V30
p280
sg17
g280
sg19
V0
p281
sbag1
(g2
g3
Ntp282
Rp283
(dp284
g7
V092
p285
sg9
VGastly
p286
sg11
VFR,LG,
p287
sg13
V3F
p288
sg15
V13
p289
sg17
V19
p290
sg19
V90
p291
sbag1
(g2
g3
Ntp292
Rp293
(dp294
g7
V093
p295
sg9
VHaunter
p296
sg11
VFR,LG,
p297
sg13
V3F
p298
sg15
V20
p299
sg17
g299
sg19
V1
p300
sbag1
(g2
g3
Ntp301
Rp302
(dp303
g7
V104
p304
sg9
VCubone
p305
sg11
VFR,LG,
p306
sg13
V3F
p307
sg15
V15
p308
sg17
V17
p309
sg19
V9
p310
sbag1
(g2
g3
Ntp311
Rp312
(dp313
g7
V092
p314
sg9
VGastly
p315
sg11
VFR,LG,
p316
sg13
V4F-5F
p317
sg15
V13
p318
sg17
V19
p319
sg19
V86
p320
sbag1
(g2
g3
Ntp321
Rp322
(dp323
g7
V093
p324
sg9
VHaunter
p325
sg11
VFR,LG,
p326
sg13
V4F-5F
p327
sg15
V20
p328
sg17
g328
sg19
V5
p329
sbag1
(g2
g3
Ntp330
Rp331
(dp332
g7
V104
p333
sg9
VCubone
p334
sg11
VFR,LG,
p335
sg13
V4F-5F
p336
sg15
V15
p337
sg17
V17
p338
sg19
V9
p339
sbag1
(g2
g3
Ntp340
Rp341
(dp342
g7
V092
p343
sg9
VGastly
p344
sg11
VFR,LG,
p345
sg13
V6F
p346
sg15
V14
p347
sg17
V19
p348
sg19
V85
p349
sbag1
(g2
g3
Ntp350
Rp351
(dp352
g7
V093
p353
sg9
VHaunter
p354
sg11
VFR,LG,
p355
sg13
V6F
p356
sg15
V21
p357
sg17
V23
p358
sg19
V6
p359
sbag1
(g2
g3
Ntp360
Rp361
(dp362
g7
V104
p363
sg9
VCubone
p364
sg11
VFR,LG,
p365
sg13
V6F
p366
sg15
V17
p367
sg17
V19
p368
sg19
V9
p369
sbag1
(g2
g3
Ntp370
Rp371
(dp372
g7
V092
p373
sg9
VGastly
p374
sg11
VFR,LG,
p375
sg13
V7F
p376
sg15
V15
p377
sg17
V19
p378
sg19
V75
p379
sbag1
(g2
g3
Ntp380
Rp381
(dp382
g7
V093
p383
sg9
VHaunter
p384
sg11
VFR,LG,
p385
sg13
V7F
p386
sg15
V23
p387
sg17
V25
p388
sg19
V15
p389
sbag1
(g2
g3
Ntp390
Rp391
(dp392
g7
V104
p393
sg9
VCubone
p394
sg11
VFR,LG,
p395
sg13
V7F
p396
sg15
V17
p397
sg17
V19
p398
sg19
V10
p399
sbag1
(g2
g3
Ntp400
Rp401
(dp402
g7
V105
p403
sg9
VGhost Marowak
p404
sg11
VFR,LG,
p405
sg13
VSpecial
p406
sg15
V30
p407
sg17
g407
sg19
V0
p408
sbag1
(g2
g3
Ntp409
Rp410
(dp411
g7
V041
p412
sg9
VZubat
p413
sg11
VPi,Ev,
p414
sg13
V3F-4F
p415
sg15
V27
p416
sg17
V32
p417
sg19
V5
p418
sbag1
(g2
g3
Ntp419
Rp420
(dp421
g7
V042
p422
sg9
VGolbat
p423
sg11
VPi,Ev,
p424
sg13
V3F-4F
p425
sg15
V27
p426
sg17
V32
p427
sg19
V5
p428
sbag1
(g2
g3
Ntp429
Rp430
(dp431
g7
V092
p432
sg9
VGastly
p433
sg11
VPi,Ev,
p434
sg13
V3F-4F
p435
sg15
V27
p436
sg17
V32
p437
sg19
V75
p438
sbag1
(g2
g3
Ntp439
Rp440
(dp441
g7
V093
p442
sg9
VHaunter
p443
sg11
VPi,Ev,
p444
sg13
V3F-4F
p445
sg15
V27
p446
sg17
V32
p447
sg19
V5
p448
sbag1
(g2
g3
Ntp449
Rp450
(dp451
g7
V104
p452
sg9
VCubone
p453
sg11
VPi,Ev,
p454
sg13
V3F-4F
p455
sg15
V27
p456
sg17
V32
p457
sg19
V10
p458
sbag1
(g2
g3
Ntp459
Rp460
(dp461
g7
V041
p462
sg9
VZubat
p463
sg11
VPi,Ev,
p464
sg13
V5F-6F
p465
sg15
V27
p466
sg17
V32
p467
sg19
V5
p468
sbag1
(g2
g3
Ntp469
Rp470
(dp471
g7
V042
p472
sg9
VGolbat
p473
sg11
VPi,Ev,
p474
sg13
V5F-6F
p475
sg15
V27
p476
sg17
V32
p477
sg19
V5
p478
sbag1
(g2
g3
Ntp479
Rp480
(dp481
g7
V092
p482
sg9
VGastly
p483
sg11
VPi,Ev,
p484
sg13
V5F-6F
p485
sg15
V27
p486
sg17
V32
p487
sg19
V70
p488
sbag1
(g2
g3
Ntp489
Rp490
(dp491
g7
V093
p492
sg9
VHaunter
p493
sg11
VPi,Ev,
p494
sg13
V5F-6F
p495
sg15
V27
p496
sg17
V32
p497
sg19
V10
p498
sbag1
(g2
g3
Ntp499
Rp500
(dp501
g7
V104
p502
sg9
VCubone
p503
sg11
VPi,Ev,
p504
sg13
V5F-6F
p505
sg15
V27
p506
sg17
V32
p507
sg19
V10
p508
sbag1
(g2
g3
Ntp509
Rp510
(dp511
g7
V113
p512
sg9
VChansey
p513
sg11
VPi,Ev,
p514
sg13
V3F-6F
p515
sg15
V27
p516
sg17
V32
p517
sg19
V0
p518
sba.