(lp0
ccopy_reg
_reconstructor
p1
(c__main__
WildPokemon
p2
c__builtin__
object
p3
Ntp4
Rp5
(dp6
VpDexNo
p7
V019
p8
sVpSpecies
p9
VRattata
p10
sVpGames
p11
VY,
p12
sVpArea
p13
V1F
p14
sVpMinLevel
p15
V34
p16
sVpMaxLevel
p17
V37
p18
sVpRate
p19
V35
p20
sbag1
(g2
g3
Ntp21
Rp22
(dp23
g7
V020
p24
sg9
VRaticate
p25
sg11
g12
sg13
V1F
p26
sg15
V34
p27
sg17
V37
p28
sg19
V25
p29
sbag1
(g2
g3
Ntp30
Rp31
(dp32
g7
V037
p33
sg9
VVulpix
p34
sg11
VB,
p35
sg13
V1F
p36
sg15
V34
p37
sg17
g37
sg19
V10
p38
sbag1
(g2
g3
Ntp39
Rp40
(dp41
g7
V058
p42
sg9
VGrowlithe
p43
sg11
VR,
p44
sg13
V1F
p45
sg15
V34
p46
sg17
g46
sg19
V10
p47
sbag1
(g2
g3
Ntp48
Rp49
(dp50
g7
V058
p51
sg9
VGrowlithe
p52
sg11
g12
sg13
V1F
p53
sg15
V26
p54
sg17
V38
p55
sg19
V20
p56
sbag1
(g2
g3
Ntp57
Rp58
(dp59
g7
V077
p60
sg9
VPonyta
p61
sg11
VR,B,
p62
sg13
V1F
p63
sg15
V28
p64
sg17
V34
p65
sg19
V40
p66
sbag1
(g2
g3
Ntp67
Rp68
(dp69
g7
V088
p70
sg9
VGrimer
p71
sg11
g44
sg13
V1F
p72
sg15
V30
p73
sg17
g73
sg19
V5
p74
sbag1
(g2
g3
Ntp75
Rp76
(dp77
g7
V088
p78
sg9
VGrimer
p79
sg11
g35
sg13
V1F
p80
sg15
V30
p81
sg17
V32
p82
sg19
V40
p83
sbag1
(g2
g3
Ntp84
Rp85
(dp86
g7
V088
p87
sg9
VGrimer
p88
sg11
g12
sg13
V1F
p89
sg15
V23
p90
sg17
V26
p91
sg19
V20
p92
sbag1
(g2
g3
Ntp93
Rp94
(dp95
g7
V089
p96
sg9
VMuk
p97
sg11
g44
sg13
V1F
p98
sg15
V39
p99
sg17
g99
sg19
V1
p100
sbag1
(g2
g3
Ntp101
Rp102
(dp103
g7
V089
p104
sg9
VMuk
p105
sg11
g35
sg13
V1F
p106
sg15
V37
p107
sg17
g107
sg19
V4
p108
sbag1
(g2
g3
Ntp109
Rp110
(dp111
g7
V109
p112
sg9
VKoffing
p113
sg11
g44
sg13
V1F
p114
sg15
V30
p115
sg17
V32
p116
sg19
V40
p117
sbag1
(g2
g3
Ntp118
Rp119
(dp120
g7
V109
p121
sg9
VKoffing
p122
sg11
g35
sg13
V1F
p123
sg15
V30
p124
sg17
g124
sg19
V5
p125
sbag1
(g2
g3
Ntp126
Rp127
(dp128
g7
V110
p129
sg9
VWeezing
p130
sg11
g44
sg13
V1F
p131
sg15
V37
p132
sg17
g132
sg19
V4
p133
sbag1
(g2
g3
Ntp134
Rp135
(dp136
g7
V110
p137
sg9
VWeezing
p138
sg11
g35
sg13
V1F
p139
sg15
V39
p140
sg17
g140
sg19
V1
p141
sbag1
(g2
g3
Ntp142
Rp143
(dp144
g7
V019
p145
sg9
VRattata
p146
sg11
g12
sg13
V2F
p147
sg15
V37
p148
sg17
V40
p149
sg19
V35
p150
sbag1
(g2
g3
Ntp151
Rp152
(dp153
g7
V020
p154
sg9
VRaticate
p155
sg11
g12
sg13
V2F
p156
sg15
V37
p157
sg17
V40
p158
sg19
V25
p159
sbag1
(g2
g3
Ntp160
Rp161
(dp162
g7
V037
p163
sg9
VVulpix
p164
sg11
g35
sg13
V2F
p165
sg15
V32
p166
sg17
g166
sg19
V25
p167
sbag1
(g2
g3
Ntp168
Rp169
(dp170
g7
V058
p171
sg9
VGrowlithe
p172
sg11
g44
sg13
V2F
p173
sg15
V32
p174
sg17
g174
sg19
V25
p175
sbag1
(g2
g3
Ntp176
Rp177
(dp178
g7
V077
p179
sg9
VPonyta
p180
sg11
VR,B,
p181
sg13
V2F
p182
sg15
V28
p183
sg17
V32
p184
sg19
V25
p185
sbag1
(g2
g3
Ntp186
Rp187
(dp188
g7
V088
p189
sg9
VGrimer
p190
sg11
g44
sg13
V2F
p191
sg15
V30
p192
sg17
g192
sg19
V5
p193
sbag1
(g2
g3
Ntp194
Rp195
(dp196
g7
V088
p197
sg9
VGrimer
p198
sg11
g35
sg13
V2F
p199
sg15
V30
p200
sg17
V34
p201
sg19
V40
p202
sbag1
(g2
g3
Ntp203
Rp204
(dp205
g7
V088
p206
sg9
VGrimer
p207
sg11
g12
sg13
V2F
p208
sg15
V26
p209
sg17
V35
p210
sg19
V35
p211
sbag1
(g2
g3
Ntp212
Rp213
(dp214
g7
V089
p215
sg9
VMuk
p216
sg11
g44
sg13
V2F
p217
sg15
V37
p218
sg17
g218
sg19
V1
p219
sbag1
(g2
g3
Ntp220
Rp221
(dp222
g7
V089
p223
sg9
VMuk
p224
sg11
g35
sg13
V2F
p225
sg15
V39
p226
sg17
g226
sg19
V4
p227
sbag1
(g2
g3
Ntp228
Rp229
(dp230
g7
V089
p231
sg9
VMuk
p232
sg11
g12
sg13
V2F
p233
sg15
V35
p234
sg17
V38
p235
sg19
V5
p236
sbag1
(g2
g3
Ntp237
Rp238
(dp239
g7
V109
p240
sg9
VKoffing
p241
sg11
g44
sg13
V2F
p242
sg15
V30
p243
sg17
V34
p244
sg19
V40
p245
sbag1
(g2
g3
Ntp246
Rp247
(dp248
g7
V109
p249
sg9
VKoffing
p250
sg11
g35
sg13
V2F
p251
sg15
V30
p252
sg17
g252
sg19
V5
p253
sbag1
(g2
g3
Ntp254
Rp255
(dp256
g7
V110
p257
sg9
VWeezing
p258
sg11
g44
sg13
V2F
p259
sg15
V39
p260
sg17
g260
sg19
V4
p261
sbag1
(g2
g3
Ntp262
Rp263
(dp264
g7
V110
p265
sg9
VWeezing
p266
sg11
g35
sg13
V2F
p267
sg15
V37
p268
sg17
g268
sg19
V1
p269
sbag1
(g2
g3
Ntp270
Rp271
(dp272
g7
V019
p273
sg9
VRattata
p274
sg11
g12
sg13
V3F
p275
sg15
V40
p276
sg17
V43
p277
sg19
V35
p278
sbag1
(g2
g3
Ntp279
Rp280
(dp281
g7
V020
p282
sg9
VRaticate
p283
sg11
g12
sg13
V3F
p284
sg15
V40
p285
sg17
V43
p286
sg19
V25
p287
sbag1
(g2
g3
Ntp288
Rp289
(dp290
g7
V037
p291
sg9
VVulpix
p292
sg11
g35
sg13
V3F
p293
sg15
V33
p294
sg17
g294
sg19
V15
p295
sbag1
(g2
g3
Ntp296
Rp297
(dp298
g7
V058
p299
sg9
VGrowlithe
p300
sg11
g44
sg13
V3F
p301
sg15
V33
p302
sg17
g302
sg19
V15
p303
sbag1
(g2
g3
Ntp304
Rp305
(dp306
g7
V077
p307
sg9
VPonyta
p308
sg11
g44
sg13
V3F
p309
sg15
V32
p310
sg17
V36
p311
sg19
V24
p312
sbag1
(g2
g3
Ntp313
Rp314
(dp315
g7
V077
p316
sg9
VPonyta
p317
sg11
g35
sg13
V3F
p318
sg15
V32
p319
sg17
V36
p320
sg19
V14
p321
sbag1
(g2
g3
Ntp322
Rp323
(dp324
g7
V088
p325
sg9
VGrimer
p326
sg11
g44
sg13
V3F
p327
sg15
V34
p328
sg17
g328
sg19
V5
p329
sbag1
(g2
g3
Ntp330
Rp331
(dp332
g7
V088
p333
sg9
VGrimer
p334
sg11
g35
sg13
V3F
p335
sg15
V31
p336
sg17
V35
p337
sg19
V40
p338
sbag1
(g2
g3
Ntp339
Rp340
(dp341
g7
V088
p342
sg9
VGrimer
p343
sg11
g12
sg13
V3F
p344
sg15
V32
p345
sg17
V38
p346
sg19
V35
p347
sbag1
(g2
g3
Ntp348
Rp349
(dp350
g7
V089
p351
sg9
VMuk
p352
sg11
g44
sg13
V3F
p353
sg15
V42
p354
sg17
g354
sg19
V1
p355
sbag1
(g2
g3
Ntp356
Rp357
(dp358
g7
V089
p359
sg9
VMuk
p360
sg11
g35
sg13
V3F
p361
sg15
V38
p362
sg17
V40
p363
sg19
V15
p364
sbag1
(g2
g3
Ntp365
Rp366
(dp367
g7
V089
p368
sg9
VMuk
p369
sg11
g12
sg13
V3F
p370
sg15
V38
p371
sg17
V41
p372
sg19
V5
p373
sbag1
(g2
g3
Ntp374
Rp375
(dp376
g7
V109
p377
sg9
VKoffing
p378
sg11
g44
sg13
V3F
p379
sg15
V31
p380
sg17
V35
p381
sg19
V40
p382
sbag1
(g2
g3
Ntp383
Rp384
(dp385
g7
V109
p386
sg9
VKoffing
p387
sg11
g35
sg13
V3F
p388
sg15
V34
p389
sg17
g389
sg19
V5
p390
sbag1
(g2
g3
Ntp391
Rp392
(dp393
g7
V110
p394
sg9
VWeezing
p395
sg11
g44
sg13
V3F
p396
sg15
V38
p397
sg17
V40
p398
sg19
V15
p399
sbag1
(g2
g3
Ntp400
Rp401
(dp402
g7
V110
p403
sg9
VWeezing
p404
sg11
g35
sg13
V3F
p405
sg15
V42
p406
sg17
g406
sg19
V1
p407
sbag1
(g2
g3
Ntp408
Rp409
(dp410
g7
V126
p411
sg9
VMagmar
p412
sg11
g35
sg13
V3F
p413
sg15
V34
p414
sg17
g414
sg19
V10
p415
sbag1
(g2
g3
Ntp416
Rp417
(dp418
g7
V020
p419
sg9
VRaticate
p420
sg11
g12
sg13
VB1F
p421
sg15
V37
p422
sg17
V46
p423
sg19
V40
p424
sbag1
(g2
g3
Ntp425
Rp426
(dp427
g7
V037
p428
sg9
VVulpix
p429
sg11
g35
sg13
VB1F
p430
sg15
V35
p431
sg17
g431
sg19
V15
p432
sbag1
(g2
g3
Ntp433
Rp434
(dp435
g7
V058
p436
sg9
VGrowlithe
p437
sg11
g44
sg13
VB1F
p438
sg15
V35
p439
sg17
g439
sg19
V15
p440
sbag1
(g2
g3
Ntp441
Rp442
(dp443
g7
V077
p444
sg9
VPonyta
p445
sg11
VR,B,
p446
sg13
VB1F
p447
sg15
V32
p448
sg17
V34
p449
sg19
V15
p450
sbag1
(g2
g3
Ntp451
Rp452
(dp453
g7
V088
p454
sg9
VGrimer
p455
sg11
g44
sg13
VB1F
p456
sg15
V35
p457
sg17
g457
sg19
V5
p458
sbag1
(g2
g3
Ntp459
Rp460
(dp461
g7
V088
p462
sg9
VGrimer
p463
sg11
g35
sg13
VB1F
p464
sg15
V31
p465
sg17
V33
p466
sg19
V50
p467
sbag1
(g2
g3
Ntp468
Rp469
(dp470
g7
V088
p471
sg9
VGrimer
p472
sg11
g12
sg13
VB1F
p473
sg15
V35
p474
sg17
V38
p475
sg19
V40
p476
sbag1
(g2
g3
Ntp477
Rp478
(dp479
g7
V089
p480
sg9
VMuk
p481
sg11
g44
sg13
VB1F
p482
sg15
V42
p483
sg17
g483
sg19
V1
p484
sbag1
(g2
g3
Ntp485
Rp486
(dp487
g7
V089
p488
sg9
VMuk
p489
sg11
g35
sg13
VB1F
p490
sg15
V40
p491
sg17
g491
sg19
V10
p492
sbag1
(g2
g3
Ntp493
Rp494
(dp495
g7
V089
p496
sg9
VMuk
p497
sg11
g12
sg13
VB1F
p498
sg15
V41
p499
sg17
g499
sg19
V10
p500
sbag1
(g2
g3
Ntp501
Rp502
(dp503
g7
V109
p504
sg9
VKoffing
p505
sg11
g44
sg13
VB1F
p506
sg15
V31
p507
sg17
V33
p508
sg19
V50
p509
sbag1
(g2
g3
Ntp510
Rp511
(dp512
g7
V109
p513
sg9
VKoffing
p514
sg11
g35
sg13
VB1F
p515
sg15
V35
p516
sg17
g516
sg19
V5
p517
sbag1
(g2
g3
Ntp518
Rp519
(dp520
g7
V110
p521
sg9
VWeezing
p522
sg11
g44
sg13
VB1F
p523
sg15
V40
p524
sg17
V42
p525
sg19
V14
p526
sbag1
(g2
g3
Ntp527
Rp528
(dp529
g7
V110
p530
sg9
VWeezing
p531
sg11
g35
sg13
VB1F
p532
sg15
V42
p533
sg17
g533
sg19
V1
p534
sbag1
(g2
g3
Ntp535
Rp536
(dp537
g7
V126
p538
sg9
VMagmar
p539
sg11
g35
sg13
VB1F
p540
sg15
V38
p541
sg17
g541
sg19
V4
p542
sbag1
(g2
g3
Ntp543
Rp544
(dp545
g7
V132
p546
sg9
VDitto
p547
sg11
g12
sg13
VB1F
p548
sg15
V12
p549
sg17
V24
p550
sg19
V10
p551
sbag1
(g2
g3
Ntp552
Rp553
(dp554
g7
V019
p555
sg9
VRattata
p556
sg11
VFR,LG,
p557
sg13
V1F-3F
p558
sg15
V26
p559
sg17
V28
p560
sg19
V15
p561
sbag1
(g2
g3
Ntp562
Rp563
(dp564
g7
V020
p565
sg9
VRaticate
p566
sg11
VFR,LG,
p567
sg13
V1F-3F
p568
sg15
V32
p569
sg17
V36
p570
sg19
V30
p571
sbag1
(g2
g3
Ntp572
Rp573
(dp574
g7
V037
p575
sg9
VVulpix
p576
sg11
VLG,
p577
sg13
V1F-3F
p578
sg15
V30
p579
sg17
V32
p580
sg19
V15
p581
sbag1
(g2
g3
Ntp582
Rp583
(dp584
g7
V058
p585
sg9
VGrowlithe
p586
sg11
VFR,
p587
sg13
V1F-3F
p588
sg15
V30
p589
sg17
V32
p590
sg19
V15
p591
sbag1
(g2
g3
Ntp592
Rp593
(dp594
g7
V088
p595
sg9
VGrimer
p596
sg11
g587
sg13
V1F-3F
p597
sg15
V28
p598
sg17
g598
sg19
V5
p599
sbag1
(g2
g3
Ntp600
Rp601
(dp602
g7
V088
p603
sg9
VGrimer
p604
sg11
g577
sg13
V1F-3F
p605
sg15
V28
p606
sg17
V30
p607
sg19
V30
p608
sbag1
(g2
g3
Ntp609
Rp610
(dp611
g7
V089
p612
sg9
VMuk
p613
sg11
g577
sg13
V1F-3F
p614
sg15
V32
p615
sg17
g615
sg19
V5
p616
sbag1
(g2
g3
Ntp617
Rp618
(dp619
g7
V109
p620
sg9
VKoffing
p621
sg11
g587
sg13
V1F-3F
p622
sg15
V28
p623
sg17
V30
p624
sg19
V30
p625
sbag1
(g2
g3
Ntp626
Rp627
(dp628
g7
V109
p629
sg9
VKoffing
p630
sg11
g577
sg13
V1F-3F
p631
sg15
V28
p632
sg17
g632
sg19
V5
p633
sbag1
(g2
g3
Ntp634
Rp635
(dp636
g7
V110
p637
sg9
VWeezing
p638
sg11
g587
sg13
V1F-3F
p639
sg15
V32
p640
sg17
g640
sg19
V5
p641
sbag1
(g2
g3
Ntp642
Rp643
(dp644
g7
V019
p645
sg9
VRattata
p646
sg11
VFR,LG,
p647
sg13
VB1F
p648
sg15
V26
p649
sg17
g649
sg19
V5
p650
sbag1
(g2
g3
Ntp651
Rp652
(dp653
g7
V020
p654
sg9
VRaticate
p655
sg11
VFR,LG,
p656
sg13
VB1F
p657
sg15
V34
p658
sg17
V38
p659
sg19
V30
p660
sbag1
(g2
g3
Ntp661
Rp662
(dp663
g7
V037
p664
sg9
VVulpix
p665
sg11
g577
sg13
VB1F
p666
sg15
V30
p667
sg17
V32
p668
sg19
V15
p669
sbag1
(g2
g3
Ntp670
Rp671
(dp672
g7
V058
p673
sg9
VGrowlithe
p674
sg11
g587
sg13
VB1F
p675
sg15
V30
p676
sg17
V32
p677
sg19
V15
p678
sbag1
(g2
g3
Ntp679
Rp680
(dp681
g7
V088
p682
sg9
VGrimer
p683
sg11
g587
sg13
VB1F
p684
sg15
V28
p685
sg17
g685
sg19
V5
p686
sbag1
(g2
g3
Ntp687
Rp688
(dp689
g7
V088
p690
sg9
VGrimer
p691
sg11
g577
sg13
VB1F
p692
sg15
V28
p693
sg17
V30
p694
sg19
V30
p695
sbag1
(g2
g3
Ntp696
Rp697
(dp698
g7
V089
p699
sg9
VMuk
p700
sg11
g577
sg13
VB1F
p701
sg15
V34
p702
sg17
g702
sg19
V5
p703
sbag1
(g2
g3
Ntp704
Rp705
(dp706
g7
V109
p707
sg9
VKoffing
p708
sg11
g587
sg13
VB1F
p709
sg15
V28
p710
sg17
V30
p711
sg19
V30
p712
sbag1
(g2
g3
Ntp713
Rp714
(dp715
g7
V109
p716
sg9
VKoffing
p717
sg11
g577
sg13
VB1F
p718
sg15
V28
p719
sg17
g719
sg19
V5
p720
sbag1
(g2
g3
Ntp721
Rp722
(dp723
g7
V110
p724
sg9
VWeezing
p725
sg11
g587
sg13
VB1F
p726
sg15
V34
p727
sg17
g727
sg19
V5
p728
sbag1
(g2
g3
Ntp729
Rp730
(dp731
g7
V132
p732
sg9
VDitto
p733
sg11
VFR,LG,
p734
sg13
VB1F
p735
sg15
V30
p736
sg17
g736
sg19
V10
p737
sbag1
(g2
g3
Ntp738
Rp739
(dp740
g7
V019
p741
sg9
VRattata
p742
sg11
VPi,Ev,
p743
sg13
V1F-3F
p744
sg15
V39
p745
sg17
V44
p746
sg19
V20
p747
sbag1
(g2
g3
Ntp748
Rp749
(dp750
g7
V020
p751
sg9
VRaticate
p752
sg11
VPi,Ev,
p753
sg13
V1F-3F
p754
sg15
V39
p755
sg17
V44
p756
sg19
V20
p757
sbag1
(g2
g3
Ntp758
Rp759
(dp760
g7
V088
p761
sg9
VGrimer
p762
sg11
VPi,
p763
sg13
V1F-3F
p764
sg15
V39
p765
sg17
V44
p766
sg19
V40
p767
sbag1
(g2
g3
Ntp768
Rp769
(dp770
g7
V089
p771
sg9
VMuk
p772
sg11
g763
sg13
V1F-3F
p773
sg15
V39
p774
sg17
V44
p775
sg19
V5
p776
sbag1
(g2
g3
Ntp777
Rp778
(dp779
g7
V109
p780
sg9
VKoffing
p781
sg11
VEv,
p782
sg13
V1F-3F
p783
sg15
V39
p784
sg17
V44
p785
sg19
V40
p786
sbag1
(g2
g3
Ntp787
Rp788
(dp789
g7
V110
p790
sg9
VWeezing
p791
sg11
g782
sg13
V1F-3F
p792
sg15
V39
p793
sg17
V44
p794
sg19
V5
p795
sbag1
(g2
g3
Ntp796
Rp797
(dp798
g7
V126
p799
sg9
VMagmar
p800
sg11
VPi,Ev,
p801
sg13
V1F-3F
p802
sg15
V39
p803
sg17
V44
p804
sg19
V14
p805
sbag1
(g2
g3
Ntp806
Rp807
(dp808
g7
V132
p809
sg9
VDitto
p810
sg11
VPi,Ev,
p811
sg13
V1F-3F
p812
sg15
V39
p813
sg17
V44
p814
sg19
V1
p815
sbag1
(g2
g3
Ntp816
Rp817
(dp818
g7
V019
p819
sg9
VRattata
p820
sg11
VPi,Ev,
p821
sg13
VB1F
p822
sg15
V39
p823
sg17
V44
p824
sg19
V20
p825
sbag1
(g2
g3
Ntp826
Rp827
(dp828
g7
V020
p829
sg9
VRaticate
p830
sg11
VPi,Ev,
p831
sg13
VB1F
p832
sg15
V39
p833
sg17
V44
p834
sg19
V20
p835
sbag1
(g2
g3
Ntp836
Rp837
(dp838
g7
V088
p839
sg9
VGrimer
p840
sg11
g763
sg13
VB1F
p841
sg15
V39
p842
sg17
V44
p843
sg19
V30
p844
sbag1
(g2
g3
Ntp845
Rp846
(dp847
g7
V089
p848
sg9
VMuk
p849
sg11
g763
sg13
VB1F
p850
sg15
V39
p851
sg17
V44
p852
sg19
V10
p853
sbag1
(g2
g3
Ntp854
Rp855
(dp856
g7
V109
p857
sg9
VKoffing
p858
sg11
g782
sg13
VB1F
p859
sg15
V39
p860
sg17
V44
p861
sg19
V30
p862
sbag1
(g2
g3
Ntp863
Rp864
(dp865
g7
V110
p866
sg9
VWeezing
p867
sg11
g782
sg13
VB1F
p868
sg15
V39
p869
sg17
V44
p870
sg19
V10
p871
sbag1
(g2
g3
Ntp872
Rp873
(dp874
g7
V126
p875
sg9
VMagmar
p876
sg11
VPi,Ev,
p877
sg13
VB1F
p878
sg15
V39
p879
sg17
V44
p880
sg19
V10
p881
sbag1
(g2
g3
Ntp882
Rp883
(dp884
g7
V132
p885
sg9
VDitto
p886
sg11
VPi,Ev,
p887
sg13
VB1F
p888
sg15
V39
p889
sg17
V44
p890
sg19
V10
p891
sbag1
(g2
g3
Ntp892
Rp893
(dp894
g7
V113
p895
sg9
VChansey
p896
sg11
VPi,Ev,
p897
sg13
VB1F-3F
p898
sg15
V39
p899
sg17
V44
p900
sg19
V0
p901
sba.