(lp0
ccopy_reg
_reconstructor
p1
(c__main__
WildPokemon
p2
c__builtin__
object
p3
Ntp4
Rp5
(dp6
VpDexNo
p7
V172
p8
sVpSpecies
p9
VPichu
p10
sVpGames
p11
VC,
p12
sVpArea
p13
VEgg
p14
sVpMinLevel
p15
V5
p16
sVpMaxLevel
p17
g16
sVpRate
p18
V0
p19
sbag1
(g2
g3
Ntp20
Rp21
(dp22
g7
V173
p23
sg9
VCleffa
p24
sg11
g12
sg13
VEgg
p25
sg15
g16
sg17
g16
sg18
V0
p26
sbag1
(g2
g3
Ntp27
Rp28
(dp29
g7
V174
p30
sg9
VIgglybuff
p31
sg11
g12
sg13
VEgg
p32
sg15
g16
sg17
g16
sg18
V0
p33
sbag1
(g2
g3
Ntp34
Rp35
(dp36
g7
V236
p37
sg9
VTyrogue
p38
sg11
g12
sg13
VEgg
p39
sg15
g16
sg17
g16
sg18
V0
p40
sbag1
(g2
g3
Ntp41
Rp42
(dp43
g7
V238
p44
sg9
VSmoochum
p45
sg11
g12
sg13
VEgg
p46
sg15
g16
sg17
g16
sg18
V0
p47
sbag1
(g2
g3
Ntp48
Rp49
(dp50
g7
V239
p51
sg9
VElekid
p52
sg11
g12
sg13
VEgg
p53
sg15
g16
sg17
g16
sg18
V0
p54
sbag1
(g2
g3
Ntp55
Rp56
(dp57
g7
V240
p58
sg9
VMagby
p59
sg11
g12
sg13
VEgg
p60
sg15
g16
sg17
g16
sg18
V0
p61
sba.