(lp0
ccopy_reg
_reconstructor
p1
(c__main__
WildPokemon
p2
c__builtin__
object
p3
Ntp4
Rp5
(dp6
VpDexNo
p7
V020
p8
sVpSpecies
p9
VRaticate
p10
sVpGames
p11
VSu,M,
p12
sVpArea
p13
VGrass
p14
sVpMinLevel
p15
V40
p16
sVpMaxLevel
p17
V43
p18
sVpRate
p19
V30
p20
sbag1
(g2
g3
Ntp21
Rp22
(dp23
g7
V102
p24
sg9
VExeggcute
p25
sg11
VSu,M,
p26
sg13
VGrass
p27
sg15
V40
p28
sg17
V43
p29
sg19
V10
p30
sbag1
(g2
g3
Ntp31
Rp32
(dp33
g7
V210
p34
sg9
VGranbull
p35
sg11
VSu,M,
p36
sg13
VGrass
p37
sg15
V40
p38
sg17
V43
p39
sg19
V20
p40
sbag1
(g2
g3
Ntp41
Rp42
(dp43
g7
V279
p44
sg9
VPelipper
p45
sg11
VSu,M,
p46
sg13
VGrass
p47
sg15
V40
p48
sg17
V43
p49
sg19
V30
p50
sbag1
(g2
g3
Ntp51
Rp52
(dp53
g7
V423
p54
sg9
VGastrodon
p55
sg11
VSu,M,
p56
sg13
VGrass
p57
sg15
V40
p58
sg17
V43
p59
sg19
V10
p60
sbag1
(g2
g3
Ntp61
Rp62
(dp63
g7
V735
p64
sg9
VGumshoos
p65
sg11
VSu,M,
p66
sg13
VGrass
p67
sg15
V40
p68
sg17
V43
p69
sg19
V30
p70
sbag1
(g2
g3
Ntp71
Rp72
(dp73
g7
V739
p74
sg9
VCrabrawler
p75
sg11
VSu,M,
p76
sg13
VBerry pile
p77
sg15
V40
p78
sg17
V43
p79
sg19
V100
p80
sbag1
(g2
g3
Ntp81
Rp82
(dp83
g7
V767
p84
sg9
VWimpod
p85
sg11
VSu,M,
p86
sg13
VChase
p87
sg15
V40
p88
sg17
V43
p89
sg19
V100
p90
sbag1
(g2
g3
Ntp91
Rp92
(dp93
g7
V073
p94
sg9
VTentacruel
p95
sg11
VSu,M,
p96
sg13
VSurf
p97
sg15
V40
p98
sg17
V43
p99
sg19
V20
p100
sbag1
(g2
g3
Ntp101
Rp102
(dp103
g7
V073
p104
sg9
VTentacruel
p105
sg11
VSu,M,
p106
sg13
VSurf
p107
sg15
V40
p108
sg17
V43
p109
sg19
V10
p110
sbag1
(g2
g3
Ntp111
Rp112
(dp113
g7
V131
p114
sg9
VLapras
p115
sg11
VSu,M,
p116
sg13
VSurf
p117
sg15
V40
p118
sg17
V43
p119
sg19
V5
p120
sbag1
(g2
g3
Ntp121
Rp122
(dp123
g7
V279
p124
sg9
VPelipper
p125
sg11
VSu,M,
p126
sg13
VSurf
p127
sg15
V40
p128
sg17
V43
p129
sg19
V20
p130
sbag1
(g2
g3
Ntp131
Rp132
(dp133
g7
V423
p134
sg9
VGastrodon
p135
sg11
VSu,M,
p136
sg13
VSurf
p137
sg15
V40
p138
sg17
V43
p139
sg19
V20
p140
sbag1
(g2
g3
Ntp141
Rp142
(dp143
g7
V457
p144
sg9
VLumineon
p145
sg11
VSu,M,
p146
sg13
VSurf
p147
sg15
V40
p148
sg17
V43
p149
sg19
V25
p150
sbag1
(g2
g3
Ntp151
Rp152
(dp153
g7
V320
p154
sg9
VWailmer
p155
sg11
VSu,M,
p156
sg13
VWater splashes
p157
sg15
V40
p158
sg17
V43
p159
sg19
V90
p160
sbag1
(g2
g3
Ntp161
Rp162
(dp163
g7
V321
p164
sg9
VWailord
p165
sg11
VSu,M,
p166
sg13
VWater splashes
p167
sg15
V40
p168
sg17
V43
p169
sg19
V10
p170
sbag1
(g2
g3
Ntp171
Rp172
(dp173
g7
V129
p174
sg9
VMagikarp
p175
sg11
VSu,M,
p176
sg13
VFish
p177
sg15
V10
p178
sg17
V43
p179
sg19
V79
p180
sbag1
(g2
g3
Ntp181
Rp182
(dp183
g7
V320
p184
sg9
VWailmer
p185
sg11
VSu,M,
p186
sg13
VFish
p187
sg15
V10
p188
sg17
V43
p189
sg19
V20
p190
sbag1
(g2
g3
Ntp191
Rp192
(dp193
g7
V369
p194
sg9
VRelicanth
p195
sg11
VSu,M,
p196
sg13
VFish
p197
sg15
V10
p198
sg17
V43
p199
sg19
V1
p200
sbag1
(g2
g3
Ntp201
Rp202
(dp203
g7
V129
p204
sg9
VMagikarp
p205
sg11
VSu,M,
p206
sg13
VFish
p207
sg15
V10
p208
sg17
V43
p209
sg19
V50
p210
sbag1
(g2
g3
Ntp211
Rp212
(dp213
g7
V320
p214
sg9
VWailmer
p215
sg11
VSu,M,
p216
sg13
VFish
p217
sg15
V10
p218
sg17
V43
p219
sg19
V40
p220
sbag1
(g2
g3
Ntp221
Rp222
(dp223
g7
V369
p224
sg9
VRelicanth
p225
sg11
VSu,M,
p226
sg13
VFish
p227
sg15
V10
p228
sg17
V43
p229
sg19
V10
p230
sbag1
(g2
g3
Ntp231
Rp232
(dp233
g7
V503
p234
sg9
VSamurott
p235
sg11
VSu,M,
p236
sg13
VGrass
p237
sg15
V43
p238
sg17
g238
sg19
V0
p239
sbag1
(g2
g3
Ntp240
Rp241
(dp242
g7
V210
p243
sg9
VGranbull
p244
sg11
VUS,UM,
p245
sg13
VGrass
p246
sg15
V41
p247
sg17
V44
p248
sg19
V20
p249
sbag1
(g2
g3
Ntp250
Rp251
(dp252
g7
V279
p253
sg9
VPelipper
p254
sg11
VUS,UM,
p255
sg13
VGrass
p256
sg15
V41
p257
sg17
V44
p258
sg19
V30
p259
sbag1
(g2
g3
Ntp260
Rp261
(dp262
g7
V423
p263
sg9
VGastrodon
p264
sg11
VUS,UM,
p265
sg13
VGrass
p266
sg15
V41
p267
sg17
V44
p268
sg19
V10
p269
sbag1
(g2
g3
Ntp270
Rp271
(dp272
g7
V676
p273
sg9
VFurfrou
p274
sg11
VUS,UM,
p275
sg13
VGrass
p276
sg15
V41
p277
sg17
V44
p278
sg19
V20
p279
sbag1
(g2
g3
Ntp280
Rp281
(dp282
g7
V686
p283
sg9
VInkay
p284
sg11
VUS,UM,
p285
sg13
VGrass
p286
sg15
V41
p287
sg17
V44
p288
sg19
V20
p289
sbag1
(g2
g3
Ntp290
Rp291
(dp292
g7
V739
p293
sg9
VCrabrawler
p294
sg11
VUS,UM,
p295
sg13
VBerry pile
p296
sg15
V41
p297
sg17
V44
p298
sg19
V100
p299
sbag1
(g2
g3
Ntp300
Rp301
(dp302
g7
V658
p303
sg9
VGreninja
p304
sg11
VUS,UM,
p305
sg13
VGrass
p306
sg15
V44
p307
sg17
g307
sg19
V0
p308
sba.