(lp0
ccopy_reg
_reconstructor
p1
(c__main__
WildPokemon
p2
c__builtin__
object
p3
Ntp4
Rp5
(dp6
VpDexNo
p7
V020
p8
sVpSpecies
p9
VRaticate
p10
sVpGames
p11
VSu,M,
p12
sVpArea
p13
VGrass
p14
sVpMinLevel
p15
V56
p16
sVpMaxLevel
p17
V59
p18
sVpRate
p19
V30
p20
sbag1
(g2
g3
Ntp21
Rp22
(dp23
g7
V055
p24
sg9
VGolduck
p25
sg11
VSu,M,
p26
sg13
VGrass
p27
sg15
V56
p28
sg17
V59
p29
sg19
V15
p30
sbag1
(g2
g3
Ntp31
Rp32
(dp33
g7
V210
p34
sg9
VGranbull
p35
sg11
VSu,M,
p36
sg13
VGrass
p37
sg15
V56
p38
sg17
V59
p39
sg19
V20
p40
sbag1
(g2
g3
Ntp41
Rp42
(dp43
g7
V279
p44
sg9
VPelipper
p45
sg11
VSu,M,
p46
sg13
VGrass
p47
sg15
V56
p48
sg17
V59
p49
sg19
V30
p50
sbag1
(g2
g3
Ntp51
Rp52
(dp53
g7
V735
p54
sg9
VGumshoos
p55
sg11
VSu,M,
p56
sg13
VGrass
p57
sg15
V56
p58
sg17
V59
p59
sg19
V30
p60
sbag1
(g2
g3
Ntp61
Rp62
(dp63
g7
V760
p64
sg9
VBewear
p65
sg11
VSu,M,
p66
sg13
VGrass
p67
sg15
V56
p68
sg17
V59
p69
sg19
V5
p70
sbag1
(g2
g3
Ntp71
Rp72
(dp73
g7
V129
p74
sg9
VMagikarp
p75
sg11
VSu,M,
p76
sg13
VFish
p77
sg15
V10
p78
sg17
V59
p79
sg19
V59
p80
sbag1
(g2
g3
Ntp81
Rp82
(dp83
g7
V147
p84
sg9
VDratini
p85
sg11
VSu,M,
p86
sg13
VFish
p87
sg15
V10
p88
sg17
V59
p89
sg19
V1
p90
sbag1
(g2
g3
Ntp91
Rp92
(dp93
g7
V339
p94
sg9
VBarboach
p95
sg11
VSu,M,
p96
sg13
VFish
p97
sg15
V10
p98
sg17
V59
p99
sg19
V40
p100
sbag1
(g2
g3
Ntp101
Rp102
(dp103
g7
V129
p104
sg9
VMagikarp
p105
sg11
VSu,M,
p106
sg13
VFish
p107
sg15
V10
p108
sg17
V59
p109
sg19
V50
p110
sbag1
(g2
g3
Ntp111
Rp112
(dp113
g7
V147
p114
sg9
VDratini
p115
sg11
VSu,M,
p116
sg13
VFish
p117
sg15
V10
p118
sg17
V59
p119
sg19
V10
p120
sbag1
(g2
g3
Ntp121
Rp122
(dp123
g7
V339
p124
sg9
VBarboach
p125
sg11
VSu,M,
p126
sg13
VFish
p127
sg15
V10
p128
sg17
V59
p129
sg19
V40
p130
sbag1
(g2
g3
Ntp131
Rp132
(dp133
g7
V663
p134
sg9
VTalonflame
p135
sg11
VSu,M,
p136
sg13
VTrade
p137
sg15
V59
p138
sg17
g138
sg19
V0
p139
sbag1
(g2
g3
Ntp140
Rp141
(dp142
g7
V468
p143
sg9
VTogekiss
p144
sg11
VSu,M,
p145
sg13
VGrass
p146
sg15
V59
p147
sg17
g147
sg19
V0
p148
sbag1
(g2
g3
Ntp149
Rp150
(dp151
g7
V279
p152
sg9
VPelipper
p153
sg11
VUS,UM,
p154
sg13
VGrass
p155
sg15
V58
p156
sg17
V61
p157
sg19
V25
p158
sbag1
(g2
g3
Ntp159
Rp160
(dp161
g7
V210
p162
sg9
VGranbull
p163
sg11
VUS,UM,
p164
sg13
VGrass
p165
sg15
V58
p166
sg17
V61
p167
sg19
V20
p168
sbag1
(g2
g3
Ntp169
Rp170
(dp171
g7
V108
p172
sg9
VLickitung
p173
sg11
VUS,UM,
p174
sg13
VGrass
p175
sg15
V58
p176
sg17
V61
p177
sg19
V20
p178
sbag1
(g2
g3
Ntp179
Rp180
(dp181
g7
V686
p182
sg9
VInkay
p183
sg11
VUS,UM,
p184
sg13
VGrass
p185
sg15
V58
p186
sg17
V61
p187
sg19
V15
p188
sbag1
(g2
g3
Ntp189
Rp190
(dp191
g7
V055
p192
sg9
VGolduck
p193
sg11
VUS,UM,
p194
sg13
VGrass
p195
sg15
V58
p196
sg17
V61
p197
sg19
V10
p198
sbag1
(g2
g3
Ntp199
Rp200
(dp201
g7
V760
p202
sg9
VBewear
p203
sg11
VUS,UM,
p204
sg13
VGrass
p205
sg15
V58
p206
sg17
V61
p207
sg19
V10
p208
sbag1
(g2
g3
Ntp209
Rp210
(dp211
g7
V129
p212
sg9
VMagikarp
p213
sg11
VUS,UM,
p214
sg13
VFish
p215
sg15
V10
p216
sg17
V61
p217
sg19
V59
p218
sbag1
(g2
g3
Ntp219
Rp220
(dp221
g7
V147
p222
sg9
VDratini
p223
sg11
VUS,UM,
p224
sg13
VFish
p225
sg15
V10
p226
sg17
V61
p227
sg19
V1
p228
sbag1
(g2
g3
Ntp229
Rp230
(dp231
g7
V339
p232
sg9
VBarboach
p233
sg11
VUS,UM,
p234
sg13
VFish
p235
sg15
V10
p236
sg17
V61
p237
sg19
V40
p238
sbag1
(g2
g3
Ntp239
Rp240
(dp241
g7
V129
p242
sg9
VMagikarp
p243
sg11
VUS,UM,
p244
sg13
VFish
p245
sg15
V10
p246
sg17
V66
p247
sg19
V50
p248
sbag1
(g2
g3
Ntp249
Rp250
(dp251
g7
V147
p252
sg9
VDratini
p253
sg11
VUS,UM,
p254
sg13
VFish
p255
sg15
V10
p256
sg17
V66
p257
sg19
V10
p258
sbag1
(g2
g3
Ntp259
Rp260
(dp261
g7
V339
p262
sg9
VBarboach
p263
sg11
VUS,UM,
p264
sg13
VFish
p265
sg15
V10
p266
sg17
V66
p267
sg19
V40
p268
sbag1
(g2
g3
Ntp269
Rp270
(dp271
g7
V128
p272
sg9
VTauros
p273
sg11
VUS,UM,
p274
sg13
VTrade
p275
sg15
V59
p276
sg17
g276
sg19
V0
p277
sbag1
(g2
g3
Ntp278
Rp279
(dp280
g7
V479
p281
sg9
VRotom
p282
sg11
VUS,UM,
p283
sg13
VGrass
p284
sg15
V61
p285
sg17
g285
sg19
V0
p286
sba.