(lp0
ccopy_reg
_reconstructor
p1
(c__main__
WildPokemon
p2
c__builtin__
object
p3
Ntp4
Rp5
(dp6
VpDexNo
p7
V546
p8
sVpSpecies
p9
VCottonee
p10
sVpGames
p11
VSu,
p12
sVpArea
p13
VGrass
p14
sVpMinLevel
p15
V54
p16
sVpMaxLevel
p17
V57
p18
sVpRate
p19
V50
p20
sbag1
(g2
g3
Ntp21
Rp22
(dp23
g7
V548
p24
sg9
VPetilil
p25
sg11
VM,
p26
sg13
VGrass
p27
sg15
V54
p28
sg17
V57
p29
sg19
V50
p30
sbag1
(g2
g3
Ntp31
Rp32
(dp33
g7
V741
p34
sg9
VOricorio
p35
sg11
VSu,M,
p36
sg13
VGrass
p37
sg15
V54
p38
sg17
V57
p39
sg19
V20
p40
sbag1
(g2
g3
Ntp41
Rp42
(dp43
g7
V743
p44
sg9
VRibombee
p45
sg11
VSu,M,
p46
sg13
VGrass
p47
sg15
V54
p48
sg17
V57
p49
sg19
V30
p50
sbag1
(g2
g3
Ntp51
Rp52
(dp53
g7
V129
p54
sg9
VMagikarp
p55
sg11
VSu,M,
p56
sg13
VFish
p57
sg15
V10
p58
sg17
V57
p59
sg19
V59
p60
sbag1
(g2
g3
Ntp61
Rp62
(dp63
g7
V147
p64
sg9
VDratini
p65
sg11
VSu,M,
p66
sg13
VFish
p67
sg15
V10
p68
sg17
V57
p69
sg19
V1
p70
sbag1
(g2
g3
Ntp71
Rp72
(dp73
g7
V339
p74
sg9
VBarboach
p75
sg11
VSu,M,
p76
sg13
VFish
p77
sg15
V10
p78
sg17
V57
p79
sg19
V40
p80
sbag1
(g2
g3
Ntp81
Rp82
(dp83
g7
V129
p84
sg9
VMagikarp
p85
sg11
VSu,M,
p86
sg13
VFish
p87
sg15
V10
p88
sg17
V57
p89
sg19
V50
p90
sbag1
(g2
g3
Ntp91
Rp92
(dp93
g7
V147
p94
sg9
VDratini
p95
sg11
VSu,M,
p96
sg13
VFish
p97
sg15
V10
p98
sg17
V57
p99
sg19
V10
p100
sbag1
(g2
g3
Ntp101
Rp102
(dp103
g7
V339
p104
sg9
VBarboach
p105
sg11
VSu,M,
p106
sg13
VFish
p107
sg15
V10
p108
sg17
V57
p109
sg19
V40
p110
sbag1
(g2
g3
Ntp111
Rp112
(dp113
g7
V542
p114
sg9
VLeavanny
p115
sg11
VSu,M,
p116
sg13
VGrass
p117
sg15
V57
p118
sg17
g118
sg19
V0
p119
sbag1
(g2
g3
Ntp120
Rp121
(dp122
g7
V546
p123
sg9
VCottonee
p124
sg11
VUS,
p125
sg13
VGrass
p126
sg15
V54
p127
sg17
V57
p128
sg19
V30
p129
sbag1
(g2
g3
Ntp130
Rp131
(dp132
g7
V548
p133
sg9
VPetilil
p134
sg11
VUM,
p135
sg13
VGrass
p136
sg15
V54
p137
sg17
V57
p138
sg19
V30
p139
sbag1
(g2
g3
Ntp140
Rp141
(dp142
g7
V741
p143
sg9
VOricorio
p144
sg11
VUS,UM,
p145
sg13
VGrass
p146
sg15
V54
p147
sg17
V57
p148
sg19
V20
p149
sbag1
(g2
g3
Ntp150
Rp151
(dp152
g7
V743
p153
sg9
VRibombee
p154
sg11
VUS,UM,
p155
sg13
VGrass
p156
sg15
V54
p157
sg17
V57
p158
sg19
V30
p159
sbag1
(g2
g3
Ntp160
Rp161
(dp162
g7
V670
p163
sg9
VFloette
p164
sg11
VUS,UM,
p165
sg13
VGrass
p166
sg15
V54
p167
sg17
V57
p168
sg19
V20
p169
sbag1
(g2
g3
Ntp170
Rp171
(dp172
g7
V200
p173
sg9
VMisdreavus
p174
sg11
VUS,UM,
p175
sg13
VGrass
p176
sg15
V54
p177
sg17
V57
p178
sg19
V10
p179
sbag1
(g2
g3
Ntp180
Rp181
(dp182
g7
V129
p183
sg9
VMagikarp
p184
sg11
VUS,UM,
p185
sg13
VFish
p186
sg15
V10
p187
sg17
V57
p188
sg19
V59
p189
sbag1
(g2
g3
Ntp190
Rp191
(dp192
g7
V147
p193
sg9
VDratini
p194
sg11
VUS,UM,
p195
sg13
VFish
p196
sg15
V10
p197
sg17
V57
p198
sg19
V1
p199
sbag1
(g2
g3
Ntp200
Rp201
(dp202
g7
V339
p203
sg9
VBarboach
p204
sg11
VUS,UM,
p205
sg13
VFish
p206
sg15
V10
p207
sg17
V57
p208
sg19
V40
p209
sbag1
(g2
g3
Ntp210
Rp211
(dp212
g7
V129
p213
sg9
VMagikarp
p214
sg11
VUS,UM,
p215
sg13
VFish
p216
sg15
V10
p217
sg17
V57
p218
sg19
V50
p219
sbag1
(g2
g3
Ntp220
Rp221
(dp222
g7
V147
p223
sg9
VDratini
p224
sg11
VUS,UM,
p225
sg13
VFish
p226
sg15
V10
p227
sg17
V57
p228
sg19
V10
p229
sbag1
(g2
g3
Ntp230
Rp231
(dp232
g7
V339
p233
sg9
VBarboach
p234
sg11
VUS,UM,
p235
sg13
VFish
p236
sg15
V10
p237
sg17
V57
p238
sg19
V40
p239
sbag1
(g2
g3
Ntp240
Rp241
(dp242
g7
V542
p243
sg9
VLeavanny
p244
sg11
VUS,UM,
p245
sg13
VGrass
p246
sg15
V57
p247
sg17
g247
sg19
V0
p248
sba.