(lp0
ccopy_reg
_reconstructor
p1
(c__main__
WildPokemon
p2
c__builtin__
object
p3
Ntp4
Rp5
(dp6
VpDexNo
p7
V020
p8
sVpSpecies
p9
VRaticate
p10
sVpGames
p11
VSu,M,
p12
sVpArea
p13
VGrass
p14
sVpMinLevel
p15
V52
p16
sVpMaxLevel
p17
V55
p18
sVpRate
p19
V30
p20
sbag1
(g2
g3
Ntp21
Rp22
(dp23
g7
V127
p24
sg9
VPinsir
p25
sg11
VSu,M,
p26
sg13
VGrass
p27
sg15
V52
p28
sg17
V55
p29
sg19
V10
p30
sbag1
(g2
g3
Ntp31
Rp32
(dp33
g7
V210
p34
sg9
VGranbull
p35
sg11
VSu,M,
p36
sg13
VGrass
p37
sg15
V52
p38
sg17
V55
p39
sg19
V20
p40
sbag1
(g2
g3
Ntp41
Rp42
(dp43
g7
V447
p44
sg9
VRiolu
p45
sg11
VSu,M,
p46
sg13
VGrass
p47
sg15
V52
p48
sg17
V55
p49
sg19
V10
p50
sbag1
(g2
g3
Ntp51
Rp52
(dp53
g7
V732
p54
sg9
VTrumbeak
p55
sg11
VSu,M,
p56
sg13
VGrass
p57
sg15
V52
p58
sg17
V55
p59
sg19
V30
p60
sbag1
(g2
g3
Ntp61
Rp62
(dp63
g7
V735
p64
sg9
VGumshoos
p65
sg11
VSu,M,
p66
sg13
VGrass
p67
sg15
V52
p68
sg17
V55
p69
sg19
V30
p70
sbag1
(g2
g3
Ntp71
Rp72
(dp73
g7
V604
p74
sg9
VEelektross
p75
sg11
VSu,M,
p76
sg13
VGrass
p77
sg15
V55
p78
sg17
g78
sg19
V0
p79
sbag1
(g2
g3
Ntp80
Rp81
(dp82
g7
V127
p83
sg9
VPinsir
p84
sg11
VUS,UM,
p85
sg13
VGrass
p86
sg15
V52
p87
sg17
V55
p88
sg19
V10
p89
sbag1
(g2
g3
Ntp90
Rp91
(dp92
g7
V214
p93
sg9
VHeracross
p94
sg11
VUS,UM,
p95
sg13
VGrass
p96
sg15
V52
p97
sg17
V55
p98
sg19
V10
p99
sbag1
(g2
g3
Ntp100
Rp101
(dp102
g7
V427
p103
sg9
VBuneary
p104
sg11
VUS,UM,
p105
sg13
VGrass
p106
sg15
V52
p107
sg17
V55
p108
sg19
V20
p109
sbag1
(g2
g3
Ntp110
Rp111
(dp112
g7
V427
p113
sg9
VBuneary
p114
sg11
VUS,UM,
p115
sg13
VGrass
p116
sg15
V52
p117
sg17
V55
p118
sg19
V10
p119
sbag1
(g2
g3
Ntp120
Rp121
(dp122
g7
V447
p123
sg9
VRiolu
p124
sg11
VUS,UM,
p125
sg13
VGrass
p126
sg15
V52
p127
sg17
V55
p128
sg19
V10
p129
sbag1
(g2
g3
Ntp130
Rp131
(dp132
g7
V571
p133
sg9
VZoroark
p134
sg11
VUS,UM,
p135
sg13
VGrass
p136
sg15
V52
p137
sg17
V55
p138
sg19
V20
p139
sbag1
(g2
g3
Ntp140
Rp141
(dp142
g7
V732
p143
sg9
VTrumbeak
p144
sg11
VUS,UM,
p145
sg13
VGrass
p146
sg15
V52
p147
sg17
V55
p148
sg19
V30
p149
sbag1
(g2
g3
Ntp150
Rp151
(dp152
g7
V604
p153
sg9
VEelektross
p154
sg11
VUS,UM,
p155
sg13
VGrass
p156
sg15
V55
p157
sg17
g157
sg19
V0
p158
sbag1
(g2
g3
Ntp159
Rp160
(dp161
g7
V805
p162
sg9
VStakataka
p163
sg11
VUM,
p164
sg13
VGrass
p165
sg15
V60
p166
sg17
g166
sg19
V0
p167
sbag1
(g2
g3
Ntp168
Rp169
(dp170
g7
V806
p171
sg9
VBlacephalon
p172
sg11
VUS,
p173
sg13
VGrass
p174
sg15
V60
p175
sg17
g175
sg19
V0
p176
sba.