(lp0
ccopy_reg
_reconstructor
p1
(c__main__
WildPokemon
p2
c__builtin__
object
p3
Ntp4
Rp5
(dp6
VpDexNo
p7
V051
p8
sVpSpecies
p9
VDugtrio
p10
sVpGames
p11
VSu,M,
p12
sVpArea
p13
VDirt cloud
p14
sVpMinLevel
p15
V56
p16
sVpMaxLevel
p17
V59
p18
sVpRate
p19
V100
p20
sbag1
(g2
g3
Ntp21
Rp22
(dp23
g7
V051
p24
sg9
VDugtrio
p25
sg11
VUS,UM,
p26
sg13
VDirt cloud
p27
sg15
V56
p28
sg17
V59
p29
sg19
V100
p30
sba.