(lp0
ccopy_reg
_reconstructor
p1
(c__main__
WildPokemon
p2
c__builtin__
object
p3
Ntp4
Rp5
(dp6
VpDexNo
p7
V810
p8
sVpSpecies
p9
VGrookey
p10
sVpGames
p11
VSw,Sh,
p12
sVpArea
p13
VStarter
p14
sVpMinLevel
p15
V5
p16
sVpMaxLevel
p17
g16
sVpRate
p18
V0
p19
sbag1
(g2
g3
Ntp20
Rp21
(dp22
g7
V813
p23
sg9
VScorbunny
p24
sg11
VSw,Sh,
p25
sg13
VStarter
p26
sg15
g16
sg17
g16
sg18
V0
p27
sbag1
(g2
g3
Ntp28
Rp29
(dp30
g7
V816
p31
sg9
VSobble
p32
sg11
VSw,Sh,
p33
sg13
VStarter
p34
sg15
g16
sg17
g16
sg18
V0
p35
sbag1
(g2
g3
Ntp36
Rp37
(dp38
g7
V004
p39
sg9
VCharmander
p40
sg11
VSw,Sh,
p41
sg13
VGift
p42
sg15
g16
sg17
g16
sg18
V0
p43
sba.