(lp0
ccopy_reg
_reconstructor
p1
(c__main__
WildPokemon
p2
c__builtin__
object
p3
Ntp4
Rp5
(dp6
VpDexNo
p7
V111
p8
sVpSpecies
p9
VRhyhorn
p10
sVpGames
p11
VSh,
p12
sVpArea
p13
VSand
p14
sVpMinLevel
p15
V10
p16
sVpMaxLevel
p17
V15
p18
sVpRate
p19
V32
p20
sbag1
(g2
g3
Ntp21
Rp22
(dp23
g7
V111
p24
sg9
VRhyhorn
p25
sg11
VSw,
p26
sg13
VSand
p27
sg15
V19
p28
sg17
V24
p29
sg19
V32
p30
sbag1
(g2
g3
Ntp31
Rp32
(dp33
g7
V113
p34
sg9
VChansey
p35
sg11
g12
sg13
VSand
p36
sg15
V10
p37
sg17
V15
p38
sg19
V0
p39
sbag1
(g2
g3
Ntp40
Rp41
(dp42
g7
V113
p43
sg9
VChansey
p44
sg11
g26
sg13
VSand
p45
sg15
V19
p46
sg17
V24
p47
sg19
g39
sbag1
(g2
g3
Ntp48
Rp49
(dp50
g7
V242
p51
sg9
VBlissey
p52
sg11
g12
sg13
VSand
p53
sg15
V10
p54
sg17
V15
p55
sg19
g39
sbag1
(g2
g3
Ntp56
Rp57
(dp58
g7
V242
p59
sg9
VBlissey
p60
sg11
g26
sg13
VSand
p61
sg15
V19
p62
sg17
V24
p63
sg19
g39
sbag1
(g2
g3
Ntp64
Rp65
(dp66
g7
V324
p67
sg9
VTorkoal
p68
sg11
g12
sg13
VSand
p69
sg15
V10
p70
sg17
V15
p71
sg19
V5
p72
sbag1
(g2
g3
Ntp73
Rp74
(dp75
g7
V324
p76
sg9
VTorkoal
p77
sg11
g26
sg13
VSand
p78
sg15
V19
p79
sg17
V24
p80
sg19
V5
p81
sbag1
(g2
g3
Ntp82
Rp83
(dp84
g7
V403
p85
sg9
VShinx
p86
sg11
g12
sg13
VSand
p87
sg15
V10
p88
sg17
V15
p89
sg19
g39
sbag1
(g2
g3
Ntp90
Rp91
(dp92
g7
V403
p93
sg9
VShinx
p94
sg11
g26
sg13
VSand
p95
sg15
V19
p96
sg17
V24
p97
sg19
g39
sbag1
(g2
g3
Ntp98
Rp99
(dp100
g7
V551
p101
sg9
VSandile
p102
sg11
g12
sg13
VSand
p103
sg15
V10
p104
sg17
V15
p105
sg19
g39
sbag1
(g2
g3
Ntp106
Rp107
(dp108
g7
V551
p109
sg9
VSandile
p110
sg11
g26
sg13
VSand
p111
sg15
V19
p112
sg17
V24
p113
sg19
g39
sbag1
(g2
g3
Ntp114
Rp115
(dp116
g7
V559
p117
sg9
VScraggy
p118
sg11
g26
sg13
VSand
p119
sg15
V19
p120
sg17
V24
p121
sg19
g39
sbag1
(g2
g3
Ntp122
Rp123
(dp124
g7
V624
p125
sg9
VPawniard
p126
sg11
g12
sg13
VSand
p127
sg15
V10
p128
sg17
V15
p129
sg19
g39
sbag1
(g2
g3
Ntp130
Rp131
(dp132
g7
V624
p133
sg9
VPawniard
p134
sg11
g26
sg13
VSand
p135
sg15
V19
p136
sg17
V24
p137
sg19
g39
sbag1
(g2
g3
Ntp138
Rp139
(dp140
g7
V627
p141
sg9
VRufflet
p142
sg11
g26
sg13
VSand
p143
sg15
V19
p144
sg17
V24
p145
sg19
V5
p146
sbag1
(g2
g3
Ntp147
Rp148
(dp149
g7
V629
p150
sg9
VVullaby
p151
sg11
g12
sg13
VSand
p152
sg15
V10
p153
sg17
V15
p154
sg19
V5
p155
sbag1
(g2
g3
Ntp156
Rp157
(dp158
g7
V661
p159
sg9
VFletchling
p160
sg11
g12
sg13
VSand
p161
sg15
V10
p162
sg17
V15
p163
sg19
g39
sbag1
(g2
g3
Ntp164
Rp165
(dp166
g7
V661
p167
sg9
VFletchling
p168
sg11
g26
sg13
VSand
p169
sg15
V19
p170
sg17
V24
p171
sg19
g39
sbag1
(g2
g3
Ntp172
Rp173
(dp174
g7
V782
p175
sg9
VJangmo-o
p176
sg11
g26
sg13
VSand
p177
sg15
V19
p178
sg17
V24
p179
sg19
g39
sbag1
(g2
g3
Ntp180
Rp181
(dp182
g7
V843
p183
sg9
VSilicobra
p184
sg11
g12
sg13
VSand
p185
sg15
V10
p186
sg17
V15
p187
sg19
g39
sbag1
(g2
g3
Ntp188
Rp189
(dp190
g7
V843
p191
sg9
VSilicobra
p192
sg11
g26
sg13
VSand
p193
sg15
V19
p194
sg17
V24
p195
sg19
g39
sbag1
(g2
g3
Ntp196
Rp197
(dp198
g7
V052
p199
sg9
VMeowth
p200
sg11
VSw,Sh,
p201
sg13
VTrade
p202
sg15
V15
p203
sg17
g203
sg19
V0
p204
sbag1
(g2
g3
Ntp205
Rp206
(dp207
g7
V077
p208
sg9
VPonyta
p209
sg11
g12
sg13
VTrade
p210
sg15
V15
p211
sg17
g211
sg19
V0
p212
sbag1
(g2
g3
Ntp213
Rp214
(dp215
g7
V083
p216
sg9
VFarfetch'd
p217
sg11
g26
sg13
VTrade
p218
sg15
V15
p219
sg17
g219
sg19
V0
p220
sbag1
(g2
g3
Ntp221
Rp222
(dp223
g7
V103
p224
sg9
VExeggutor
p225
sg11
VSw,Sh,
p226
sg13
VTrade
p227
sg15
V15
p228
sg17
g228
sg19
V0
p229
sbag1
(g2
g3
Ntp230
Rp231
(dp232
g7
V105
p233
sg9
VMarowak
p234
sg11
VSw,Sh,
p235
sg13
VTrade
p236
sg15
V15
p237
sg17
g237
sg19
V0
p238
sbag1
(g2
g3
Ntp239
Rp240
(dp241
g7
V110
p242
sg9
VWeezing
p243
sg11
VSw,Sh,
p244
sg13
VTrade
p245
sg15
V15
p246
sg17
g246
sg19
V0
p247
sbag1
(g2
g3
Ntp248
Rp249
(dp250
g7
V122
p251
sg9
VMr. Mime
p252
sg11
VSw,Sh,
p253
sg13
VTrade
p254
sg15
V15
p255
sg17
g255
sg19
V0
p256
sbag1
(g2
g3
Ntp257
Rp258
(dp259
g7
V222
p260
sg9
VCorsola
p261
sg11
g12
sg13
VTrade
p262
sg15
V15
p263
sg17
g263
sg19
V0
p264
sbag1
(g2
g3
Ntp265
Rp266
(dp267
g7
V263
p268
sg9
VZigzagoon
p269
sg11
VSw,Sh,
p270
sg13
VTrade
p271
sg15
V15
p272
sg17
g272
sg19
V0
p273
sbag1
(g2
g3
Ntp274
Rp275
(dp276
g7
V554
p277
sg9
VDarumaka
p278
sg11
g26
sg13
VTrade
p279
sg15
V15
p280
sg17
g280
sg19
V0
p281
sbag1
(g2
g3
Ntp282
Rp283
(dp284
g7
V618
p285
sg9
VStunfisk
p286
sg11
VSw,Sh,
p287
sg13
VTrade
p288
sg15
V15
p289
sg17
g289
sg19
V0
p290
sba.