(lp0
ccopy_reg
_reconstructor
p1
(c__main__
WildPokemon
p2
c__builtin__
object
p3
Ntp4
Rp5
(dp6
VpDexNo
p7
V001
p8
sVpSpecies
p9
VBulbasaur
p10
sVpGames
p11
VR,B,
p12
sVpArea
p13
VStarter
p14
sVpMinLevel
p15
V5
p16
sVpMaxLevel
p17
g16
sVpRate
p18
V0
p19
sbag1
(g2
g3
Ntp20
Rp21
(dp22
g7
V004
p23
sg9
VCharmander
p24
sg11
VR,B,
p25
sg13
VStarter
p26
sg15
g16
sg17
g16
sg18
V0
p27
sbag1
(g2
g3
Ntp28
Rp29
(dp30
g7
V007
p31
sg9
VSquirtle
p32
sg11
VR,B,
p33
sg13
VStarter
p34
sg15
g16
sg17
g16
sg18
V0
p35
sbag1
(g2
g3
Ntp36
Rp37
(dp38
g7
V025
p39
sg9
VPikachu
p40
sg11
VY,
p41
sg13
VStarter
p42
sg15
g16
sg17
g16
sg18
V0
p43
sbag1
(g2
g3
Ntp44
Rp45
(dp46
g7
V001
p47
sg9
VBulbasaur
p48
sg11
VFR,LG,
p49
sg13
VStarter
p50
sg15
g16
sg17
g16
sg18
V0
p51
sbag1
(g2
g3
Ntp52
Rp53
(dp54
g7
V004
p55
sg9
VCharmander
p56
sg11
VFR,LG,
p57
sg13
VStarter
p58
sg15
g16
sg17
g16
sg18
V0
p59
sbag1
(g2
g3
Ntp60
Rp61
(dp62
g7
V007
p63
sg9
VSquirtle
p64
sg11
VFR,LG,
p65
sg13
VStarter
p66
sg15
g16
sg17
g16
sg18
V0
p67
sbag1
(g2
g3
Ntp68
Rp69
(dp70
g7
V001
p71
sg9
VBulbasaur
p72
sg11
VHG,SS,
p73
sg13
VGift
p74
sg15
g16
sg17
g16
sg18
V0
p75
sbag1
(g2
g3
Ntp76
Rp77
(dp78
g7
V004
p79
sg9
VCharmander
p80
sg11
VHG,SS,
p81
sg13
VGift
p82
sg15
g16
sg17
g16
sg18
V0
p83
sbag1
(g2
g3
Ntp84
Rp85
(dp86
g7
V007
p87
sg9
VSquirtle
p88
sg11
VHG,SS,
p89
sg13
VGift
p90
sg15
g16
sg17
g16
sg18
V0
p91
sbag1
(g2
g3
Ntp92
Rp93
(dp94
g7
V025
p95
sg9
VPikachu
p96
sg11
VPi,
p97
sg13
VStarter
p98
sg15
g16
sg17
g16
sg18
V0
p99
sbag1
(g2
g3
Ntp100
Rp101
(dp102
g7
V133
p103
sg9
VEevee
p104
sg11
VEv,
p105
sg13
VStarter
p106
sg15
g16
sg17
g16
sg18
V0
p107
sba.