(lp0
ccopy_reg
_reconstructor
p1
(c__main__
WildPokemon
p2
c__builtin__
object
p3
Ntp4
Rp5
(dp6
VpDexNo
p7
V041
p8
sVpSpecies
p9
VZubat
p10
sVpGames
p11
VD,P,
p12
sVpArea
p13
VCave
p14
sVpMinLevel
p15
V4
p16
sVpMaxLevel
p17
V6
p18
sVpRate
p19
V78
p20
sbag1
(g2
g3
Ntp21
Rp22
(dp23
g7
V041
p24
sg9
VZubat
p25
sg11
VPt,
p26
sg13
VCave
p27
sg15
V3
p28
sg17
g18
sg19
V65
p29
sbag1
(g2
g3
Ntp30
Rp31
(dp32
g7
V054
p33
sg9
VPsyduck
p34
sg11
VD,P,
p35
sg13
VCave
p36
sg15
V5
p37
sg17
g37
sg19
V2
p38
sbag1
(g2
g3
Ntp39
Rp40
(dp41
g7
V054
p42
sg9
VPsyduck
p43
sg11
g26
sg13
VCave
p44
sg15
g16
sg17
g18
sg19
V35
p45
sbag1
(g2
g3
Ntp46
Rp47
(dp48
g7
V074
p49
sg9
VGeodude
p50
sg11
VD,P,
p51
sg13
VCave
p52
sg15
g37
sg17
g37
sg19
V20
p53
sbag1
(g2
g3
Ntp54
Rp55
(dp56
g7
V041
p57
sg9
VZubat
p58
sg11
VD,P,
p59
sg13
VSurf
p60
sg15
V20
p61
sg17
V30
p62
sg19
V60
p63
sbag1
(g2
g3
Ntp64
Rp65
(dp66
g7
V041
p67
sg9
VZubat
p68
sg11
g26
sg13
VSurf
p69
sg15
V20
p70
sg17
V30
p71
sg19
V30
p72
sbag1
(g2
g3
Ntp73
Rp74
(dp75
g7
V042
p76
sg9
VGolbat
p77
sg11
VD,P,Pt,
p78
sg13
VSurf
p79
sg15
V20
p80
sg17
V40
p81
sg19
V5
p82
sbag1
(g2
g3
Ntp83
Rp84
(dp85
g7
V054
p86
sg9
VPsyduck
p87
sg11
VD,P,
p88
sg13
VSurf
p89
sg15
V20
p90
sg17
V30
p91
sg19
V30
p92
sbag1
(g2
g3
Ntp93
Rp94
(dp95
g7
V054
p96
sg9
VPsyduck
p97
sg11
g26
sg13
VSurf
p98
sg15
V20
p99
sg17
V30
p100
sg19
V60
p101
sbag1
(g2
g3
Ntp102
Rp103
(dp104
g7
V055
p105
sg9
VGolduck
p106
sg11
VD,P,Pt,
p107
sg13
VSurf
p108
sg15
V20
p109
sg17
V40
p110
sg19
V5
p111
sbag1
(g2
g3
Ntp112
Rp113
(dp114
g7
V129
p115
sg9
VMagikarp
p116
sg11
VD,P,
p117
sg13
VFish Old
p118
sg15
g28
sg17
V10
p119
sg19
V100
p120
sbag1
(g2
g3
Ntp121
Rp122
(dp123
g7
V129
p124
sg9
VMagikarp
p125
sg11
g26
sg13
VFish Old
p126
sg15
g28
sg17
V15
p127
sg19
V100
p128
sbag1
(g2
g3
Ntp129
Rp130
(dp131
g7
V129
p132
sg9
VMagikarp
p133
sg11
VD,P,Pt,
p134
sg13
VFish Good
p135
sg15
V10
p136
sg17
V25
p137
sg19
V55
p138
sbag1
(g2
g3
Ntp139
Rp140
(dp141
g7
V339
p142
sg9
VBarboach
p143
sg11
VD,P,Pt,
p144
sg13
VFish Good
p145
sg15
V10
p146
sg17
V25
p147
sg19
V45
p148
sbag1
(g2
g3
Ntp149
Rp150
(dp151
g7
V130
p152
sg9
VGyarados
p153
sg11
VD,P,Pt,
p154
sg13
VFish Super
p155
sg15
V30
p156
sg17
V55
p157
sg19
V55
p158
sbag1
(g2
g3
Ntp159
Rp160
(dp161
g7
V340
p162
sg9
VWhiscash
p163
sg11
VD,P,
p164
sg13
VFish Super
p165
sg15
V20
p166
sg17
V50
p167
sg19
V45
p168
sbag1
(g2
g3
Ntp169
Rp170
(dp171
g7
V340
p172
sg9
VWhiscash
p173
sg11
g26
sg13
VFish Super
p174
sg15
V30
p175
sg17
V55
p176
sg19
V45
p177
sba.