(lp0
ccopy_reg
_reconstructor
p1
(c__main__
WildPokemon
p2
c__builtin__
object
p3
Ntp4
Rp5
(dp6
VpDexNo
p7
V122
p8
sVpSpecies
p9
VMr. Mime
p10
sVpGames
p11
VX,Y,
p12
sVpArea
p13
VCave
p14
sVpMinLevel
p15
V22
p16
sVpMaxLevel
p17
V23
p18
sVpRate
p19
V20
p20
sbag1
(g2
g3
Ntp21
Rp22
(dp23
g7
V202
p24
sg9
VWobbuffet
p25
sg11
VX,Y,
p26
sg13
VCave
p27
sg15
V22
p28
sg17
g28
sg19
V10
p29
sbag1
(g2
g3
Ntp30
Rp31
(dp32
g7
V302
p33
sg9
VSableye
p34
sg11
VX,Y,
p35
sg13
VCave
p36
sg15
V22
p37
sg17
V23
p38
sg19
V5
p39
sbag1
(g2
g3
Ntp40
Rp41
(dp42
g7
V433
p43
sg9
VChingling
p44
sg11
VX,Y,
p45
sg13
VCave
p46
sg15
V21
p47
sg17
V22
p48
sg19
V15
p49
sbag1
(g2
g3
Ntp50
Rp51
(dp52
g7
V524
p53
sg9
VRoggenrola
p54
sg11
VX,Y,
p55
sg13
VCave
p56
sg15
V21
p57
sg17
V22
p58
sg19
V20
p59
sbag1
(g2
g3
Ntp60
Rp61
(dp62
g7
V577
p63
sg9
VSolosis
p64
sg11
VX,Y,
p65
sg13
VCave
p66
sg15
V22
p67
sg17
V23
p68
sg19
V20
p69
sbag1
(g2
g3
Ntp70
Rp71
(dp72
g7
V703
p73
sg9
VCarbink
p74
sg11
VX,Y,
p75
sg13
VCave
p76
sg15
V23
p77
sg17
g77
sg19
V10
p78
sbag1
(g2
g3
Ntp79
Rp80
(dp81
g7
V439
p82
sg9
VMime Jr.
p83
sg11
VX,Y,
p84
sg13
VHorde Encounter
p85
sg15
V11
p86
sg17
g86
sg19
V60
p87
sbag1
(g2
g3
Ntp88
Rp89
(dp90
g7
V524
p91
sg9
VRoggenrola
p92
sg11
VX,Y,
p93
sg13
VHorde Encounter
p94
sg15
V11
p95
sg17
g95
sg19
V35
p96
sbag1
(g2
g3
Ntp97
Rp98
(dp99
g7
V524
p100
sg9
VRoggenrola
p101
sg11
VX,Y,
p102
sg13
VHorde Encounter
p103
sg15
V11
p104
sg17
g104
sg19
V0
p105
sbag1
(g2
g3
Ntp106
Rp107
(dp108
g7
V703
p109
sg9
VCarbink
p110
sg11
VX,Y,
p111
sg13
VHorde Encounter
p112
sg15
V11
p113
sg17
g113
sg19
V0
p114
sbag1
(g2
g3
Ntp115
Rp116
(dp117
g7
V527
p118
sg9
VWoobat
p119
sg11
VX,Y,
p120
sg13
VCeiling
p121
sg15
V21
p122
sg17
V23
p123
sg19
V0
p124
sbag1
(g2
g3
Ntp125
Rp126
(dp127
g7
V597
p128
sg9
VFerroseed
p129
sg11
VX,Y,
p130
sg13
VCeiling
p131
sg15
V21
p132
sg17
V23
p133
sg19
V0
p134
sba.