(lp0
ccopy_reg
_reconstructor
p1
(c__main__
WildPokemon
p2
c__builtin__
object
p3
Ntp4
Rp5
(dp6
VpDexNo
p7
V019
p8
sVpSpecies
p9
VRattata
p10
sVpGames
p11
VB2,W2,
p12
sVpArea
p13
VCave
p14
sVpMinLevel
p15
V17
p16
sVpMaxLevel
p17
g16
sVpRate
p18
V10
p19
sbag1
(g2
g3
Ntp20
Rp21
(dp22
g7
V095
p23
sg9
VOnix
p24
sg11
VB2,W2,
p25
sg13
VCave
p26
sg15
V18
p27
sg17
g27
sg18
V5
p28
sbag1
(g2
g3
Ntp29
Rp30
(dp31
g7
V524
p32
sg9
VRoggenrola
p33
sg11
VB2,W2,
p34
sg13
VCave
p35
sg15
V16
p36
sg17
V18
p37
sg18
V34
p38
sbag1
(g2
g3
Ntp39
Rp40
(dp41
g7
V527
p42
sg9
VWoobat
p43
sg11
VB2,W2,
p44
sg13
VCave
p45
sg15
V16
p46
sg17
V18
p47
sg18
V31
p48
sbag1
(g2
g3
Ntp49
Rp50
(dp51
g7
V532
p52
sg9
VTimburr
p53
sg11
VB2,W2,
p54
sg13
VCave
p55
sg15
V17
p56
sg17
V18
p57
sg18
V20
p58
sbag1
(g2
g3
Ntp59
Rp60
(dp61
g7
V095
p62
sg9
VOnix
p63
sg11
VB2,W2,
p64
sg13
VDust
p65
sg15
V16
p66
sg17
V18
p67
sg18
V20
p68
sbag1
(g2
g3
Ntp69
Rp70
(dp71
g7
V529
p72
sg9
VDrilbur
p73
sg11
VB2,W2,
p74
sg13
VDust
p75
sg15
V16
p76
sg17
V19
p77
sg18
V80
p78
sbag1
(g2
g3
Ntp79
Rp80
(dp81
g7
V020
p82
sg9
VRaticate
p83
sg11
VB2,W2,
p84
sg13
VCave
p85
sg15
V29
p86
sg17
g86
sg18
V10
p87
sbag1
(g2
g3
Ntp88
Rp89
(dp90
g7
V095
p91
sg9
VOnix
p92
sg11
VB2,W2,
p93
sg13
VCave
p94
sg15
V30
p95
sg17
g95
sg18
V5
p96
sbag1
(g2
g3
Ntp97
Rp98
(dp99
g7
V525
p100
sg9
VBoldore
p101
sg11
VB2,W2,
p102
sg13
VCave
p103
sg15
V27
p104
sg17
V30
p105
sg18
V34
p106
sbag1
(g2
g3
Ntp107
Rp108
(dp109
g7
V527
p110
sg9
VWoobat
p111
sg11
VB2,W2,
p112
sg13
VCave
p113
sg15
V27
p114
sg17
V30
p115
sg18
V31
p116
sbag1
(g2
g3
Ntp117
Rp118
(dp119
g7
V533
p120
sg9
VGurdurr
p121
sg11
VB2,W2,
p122
sg13
VCave
p123
sg15
V28
p124
sg17
V30
p125
sg18
V20
p126
sbag1
(g2
g3
Ntp127
Rp128
(dp129
g7
V095
p130
sg9
VOnix
p131
sg11
VB2,W2,
p132
sg13
VDust
p133
sg15
V27
p134
sg17
g134
sg18
V20
p135
sbag1
(g2
g3
Ntp136
Rp137
(dp138
g7
V529
p139
sg9
VDrilbur
p140
sg11
VB2,W2,
p141
sg13
VDust
p142
sg15
V27
p143
sg17
V30
p144
sg18
V80
p145
sbag1
(g2
g3
Ntp146
Rp147
(dp148
g7
V183
p149
sg9
VMarill
p150
sg11
VB2,W2,
p151
sg13
VSurf
p152
sg15
V10
p153
sg17
V30
p154
sg18
V30
p155
sbag1
(g2
g3
Ntp156
Rp157
(dp158
g7
V550
p159
sg9
VBasculin
p160
sg11
VB2,
p161
sg13
VSurf
p162
sg15
V10
p163
sg17
V30
p164
sg18
V70
p165
sbag1
(g2
g3
Ntp166
Rp167
(dp168
g7
V550
p169
sg9
VBasculin
p170
sg11
VW2,
p171
sg13
VSurf
p172
sg15
V10
p173
sg17
V30
p174
sg18
V70
p175
sbag1
(g2
g3
Ntp176
Rp177
(dp178
g7
V183
p179
sg9
VMarill
p180
sg11
VB2,W2,
p181
sg13
VRippling
p182
sg15
V5
p183
sg17
V15
p184
sg18
V60
p185
sbag1
(g2
g3
Ntp186
Rp187
(dp188
g7
V184
p189
sg9
VAzumarill
p190
sg11
VB2,W2,
p191
sg13
VRippling
p192
sg15
g183
sg17
V15
p193
sg18
V5
p194
sbag1
(g2
g3
Ntp195
Rp196
(dp197
g7
V550
p198
sg9
VBasculin
p199
sg11
g161
sg13
VRippling
p200
sg15
g183
sg17
V15
p201
sg18
V35
p202
sbag1
(g2
g3
Ntp203
Rp204
(dp205
g7
V550
p206
sg9
VBasculin
p207
sg11
g171
sg13
VRippling
p208
sg15
g183
sg17
V15
p209
sg18
V35
p210
sbag1
(g2
g3
Ntp211
Rp212
(dp213
g7
V060
p214
sg9
VPoliwag
p215
sg11
VB2,W2,
p216
sg13
VFish Super
p217
sg15
V40
p218
sg17
V70
p219
sg18
V70
p220
sbag1
(g2
g3
Ntp221
Rp222
(dp223
g7
V550
p224
sg9
VBasculin
p225
sg11
g161
sg13
VFish Super
p226
sg15
V40
p227
sg17
V60
p228
sg18
V30
p229
sbag1
(g2
g3
Ntp230
Rp231
(dp232
g7
V550
p233
sg9
VBasculin
p234
sg11
g171
sg13
VFish Super
p235
sg15
V40
p236
sg17
V60
p237
sg18
V30
p238
sbag1
(g2
g3
Ntp239
Rp240
(dp241
g7
V061
p242
sg9
VPoliwhirl
p243
sg11
VB2,W2,
p244
sg13
VRippling
p245
sg15
V40
p246
sg17
V70
p247
sg18
V65
p248
sbag1
(g2
g3
Ntp249
Rp250
(dp251
g7
V062
p252
sg9
VPoliwrath
p253
sg11
VB2,W2,
p254
sg13
VRippling
p255
sg15
V50
p256
sg17
V70
p257
sg18
V5
p258
sbag1
(g2
g3
Ntp259
Rp260
(dp261
g7
V550
p262
sg9
VBasculin
p263
sg11
g161
sg13
VRippling
p264
sg15
V40
p265
sg17
V60
p266
sg18
V30
p267
sbag1
(g2
g3
Ntp268
Rp269
(dp270
g7
V550
p271
sg9
VBasculin
p272
sg11
g171
sg13
VRippling
p273
sg15
V40
p274
sg17
V60
p275
sg18
V30
p276
sba.