(lp0
ccopy_reg
_reconstructor
p1
(c__main__
WildPokemon
p2
c__builtin__
object
p3
Ntp4
Rp5
(dp6
VpDexNo
p7
V551
p8
sVpSpecies
p9
VSandile
p10
sVpGames
p11
VB,W,
p12
sVpArea
p13
V1F-B1F
p14
sVpMinLevel
p15
V19
p16
sVpMaxLevel
p17
V22
p18
sVpRate
p19
V50
p20
sbag1
(g2
g3
Ntp21
Rp22
(dp23
g7
V562
p24
sg9
VYamask
p25
sg11
VB,W,
p26
sg13
V1F-B1F
p27
sg15
V19
p28
sg17
V22
p29
sg19
V50
p30
sbag1
(g2
g3
Ntp31
Rp32
(dp33
g7
V552
p34
sg9
VKrokorok
p35
sg11
VB,W,
p36
sg13
VB2F-B6F
p37
sg15
V34
p38
sg17
V37
p39
sg19
V50
p40
sbag1
(g2
g3
Ntp41
Rp42
(dp43
g7
V563
p44
sg9
VCofagrigus
p45
sg11
VB,W,
p46
sg13
VB2F-B6F
p47
sg15
V34
p48
sg17
V37
p49
sg19
V50
p50
sbag1
(g2
g3
Ntp51
Rp52
(dp53
g7
V028
p54
sg9
VSandslash
p55
sg11
VB,W,
p56
sg13
VLowest floor
p57
sg15
V47
p58
sg17
V50
p59
sg19
V30
p60
sbag1
(g2
g3
Ntp61
Rp62
(dp63
g7
V095
p64
sg9
VOnix
p65
sg11
VB,W,
p66
sg13
VLowest floor
p67
sg15
V48
p68
sg17
V50
p69
sg19
V15
p70
sbag1
(g2
g3
Ntp71
Rp72
(dp73
g7
V552
p74
sg9
VKrokorok
p75
sg11
VB,W,
p76
sg13
VLowest floor
p77
sg15
V47
p78
sg17
V50
p79
sg19
V35
p80
sbag1
(g2
g3
Ntp81
Rp82
(dp83
g7
V563
p84
sg9
VCofagrigus
p85
sg11
VB,W,
p86
sg13
VLowest floor
p87
sg15
V48
p88
sg17
V50
p89
sg19
V20
p90
sbag1
(g2
g3
Ntp91
Rp92
(dp93
g7
V344
p94
sg9
VClaydol
p95
sg11
VB,W,
p96
sg13
VVolcarona's and nearby room
p97
sg15
V47
p98
sg17
V50
p99
sg19
V100
p100
sbag1
(g2
g3
Ntp101
Rp102
(dp103
g7
V637
p104
sg9
VVolcarona
p105
sg11
VB,W,
p106
sg13
VSpecial
p107
sg15
V70
p108
sg17
g108
sg19
V0
p109
sbag1
(g2
g3
Ntp110
Rp111
(dp112
g7
V027
p113
sg9
VSandshrew
p114
sg11
VB2,W2,
p115
sg13
V1F
p116
sg15
V19
p117
sg17
V20
p118
sg19
V20
p119
sbag1
(g2
g3
Ntp120
Rp121
(dp122
g7
V551
p123
sg9
VSandile
p124
sg11
VB2,W2,
p125
sg13
V1F
p126
sg15
V18
p127
sg17
V21
p128
sg19
V40
p129
sbag1
(g2
g3
Ntp130
Rp131
(dp132
g7
V562
p133
sg9
VYamask
p134
sg11
VB2,W2,
p135
sg13
V1F
p136
sg15
V18
p137
sg17
V21
p138
sg19
V40
p139
sbag1
(g2
g3
Ntp140
Rp141
(dp142
g7
V027
p143
sg9
VSandshrew
p144
sg11
VB2,W2,
p145
sg13
VB1F
p146
sg15
V20
p147
sg17
g147
sg19
V20
p148
sbag1
(g2
g3
Ntp149
Rp150
(dp151
g7
V551
p152
sg9
VSandile
p153
sg11
VB2,W2,
p154
sg13
VB1F
p155
sg15
V18
p156
sg17
V20
p157
sg19
V40
p158
sbag1
(g2
g3
Ntp159
Rp160
(dp161
g7
V562
p162
sg9
VYamask
p163
sg11
VB2,W2,
p164
sg13
VB1F
p165
sg15
V18
p166
sg17
V21
p167
sg19
V40
p168
sbag1
(g2
g3
Ntp169
Rp170
(dp171
g7
V028
p172
sg9
VSandslash
p173
sg11
VB2,W2,
p174
sg13
VLowest floor
p175
sg15
V28
p176
sg17
V29
p177
sg19
V20
p178
sbag1
(g2
g3
Ntp179
Rp180
(dp181
g7
V551
p182
sg9
VSandile
p183
sg11
VB2,W2,
p184
sg13
VLowest floor
p185
sg15
V27
p186
sg17
V28
p187
sg19
V30
p188
sbag1
(g2
g3
Ntp189
Rp190
(dp191
g7
V552
p192
sg9
VKrokorok
p193
sg11
VB2,W2,
p194
sg13
VLowest floor
p195
sg15
V29
p196
sg17
V30
p197
sg19
V10
p198
sbag1
(g2
g3
Ntp199
Rp200
(dp201
g7
V562
p202
sg9
VYamask
p203
sg11
VB2,W2,
p204
sg13
VLowest floor
p205
sg15
V27
p206
sg17
V30
p207
sg19
V40
p208
sbag1
(g2
g3
Ntp209
Rp210
(dp211
g7
V343
p212
sg9
VBaltoy
p213
sg11
VB2,W2,
p214
sg13
VVolcarona's room
p215
sg15
V27
p216
sg17
V30
p217
sg19
V100
p218
sbag1
(g2
g3
Ntp219
Rp220
(dp221
g7
V637
p222
sg9
VVolcarona
p223
sg11
VB2,W2,
p224
sg13
VSpecial
p225
sg15
V{{tt|35|First encounter}} / {{tt|65|Other encounters; appears if Volcarona is defeated and the player enters the Hall of Fame}}
p226
sg17
g226
sg19
V0
p227
sba.