(lp0
ccopy_reg
_reconstructor
p1
(c__main__
WildPokemon
p2
c__builtin__
object
p3
Ntp4
Rp5
(dp6
VpDexNo
p7
V042
p8
sVpSpecies
p9
VGolbat
p10
sVpGames
p11
VSu,M,
p12
sVpArea
p13
VCave
p14
sVpMinLevel
p15
V54
p16
sVpMaxLevel
p17
V57
p18
sVpRate
p19
V70
p20
sbag1
(g2
g3
Ntp21
Rp22
(dp23
g7
V051
p24
sg9
VDugtrio
p25
sg11
VSu,M,
p26
sg13
VCave
p27
sg15
V54
p28
sg17
V57
p29
sg19
V30
p30
sbag1
(g2
g3
Ntp31
Rp32
(dp33
g7
V042
p34
sg9
VGolbat
p35
sg11
VSu,M,
p36
sg13
VCave
p37
sg15
V54
p38
sg17
V57
p39
sg19
V70
p40
sbag1
(g2
g3
Ntp41
Rp42
(dp43
g7
V051
p44
sg9
VDugtrio
p45
sg11
VSu,M,
p46
sg13
VCave
p47
sg15
V54
p48
sg17
V57
p49
sg19
V30
p50
sbag1
(g2
g3
Ntp51
Rp52
(dp53
g7
V799
p54
sg9
VGuzzlord
p55
sg11
VSu,M,
p56
sg13
VCave
p57
sg15
V70
p58
sg17
g58
sg19
V0
p59
sbag1
(g2
g3
Ntp60
Rp61
(dp62
g7
V042
p63
sg9
VGolbat
p64
sg11
VUS,UM,
p65
sg13
VCave
p66
sg15
V56
p67
sg17
V59
p68
sg19
V40
p69
sbag1
(g2
g3
Ntp70
Rp71
(dp72
g7
V051
p73
sg9
VDugtrio
p74
sg11
VUS,UM,
p75
sg13
VCave
p76
sg15
V56
p77
sg17
V59
p78
sg19
V30
p79
sbag1
(g2
g3
Ntp80
Rp81
(dp82
g7
V621
p83
sg9
VDruddigon
p84
sg11
VUS,UM,
p85
sg13
VCave
p86
sg15
V56
p87
sg17
V59
p88
sg19
V15
p89
sbag1
(g2
g3
Ntp90
Rp91
(dp92
g7
V621
p93
sg9
VDruddigon
p94
sg11
VUS,UM,
p95
sg13
VCave
p96
sg15
V56
p97
sg17
V59
p98
sg19
V1
p99
sbag1
(g2
g3
Ntp100
Rp101
(dp102
g7
V715
p103
sg9
VNoivern
p104
sg11
VUS,UM,
p105
sg13
VCave
p106
sg15
V56
p107
sg17
V59
p108
sg19
V15
p109
sbag1
(g2
g3
Ntp110
Rp111
(dp112
g7
V042
p113
sg9
VGolbat
p114
sg11
VUS,UM,
p115
sg13
VCave
p116
sg15
V56
p117
sg17
V59
p118
sg19
V10
p119
sbag1
(g2
g3
Ntp120
Rp121
(dp122
g7
V042
p123
sg9
VGolbat
p124
sg11
VUS,UM,
p125
sg13
VCave
p126
sg15
V56
p127
sg17
V59
p128
sg19
V10
p129
sbag1
(g2
g3
Ntp130
Rp131
(dp132
g7
V051
p133
sg9
VDugtrio
p134
sg11
VUS,UM,
p135
sg13
VCave
p136
sg15
V56
p137
sg17
V59
p138
sg19
V20
p139
sbag1
(g2
g3
Ntp140
Rp141
(dp142
g7
V621
p143
sg9
VDruddigon
p144
sg11
VUS,UM,
p145
sg13
VCave
p146
sg15
V56
p147
sg17
V59
p148
sg19
V20
p149
sbag1
(g2
g3
Ntp150
Rp151
(dp152
g7
V715
p153
sg9
VNoivern
p154
sg11
VUS,UM,
p155
sg13
VCave
p156
sg15
V56
p157
sg17
V59
p158
sg19
V40
p159
sbag1
(g2
g3
Ntp160
Rp161
(dp162
g7
V718
p163
sg9
VZygarde
p164
sg11
VUS,UM,
p165
sg13
VCave
p166
sg15
V60
p167
sg17
g167
sg19
V0
p168
sba.