(lp0
ccopy_reg
_reconstructor
p1
(c__main__
WildPokemon
p2
c__builtin__
object
p3
Ntp4
Rp5
(dp6
VpDexNo
p7
V054
p8
sVpSpecies
p9
VPsyduck
p10
sVpGames
p11
VPt,
p12
sVpArea
p13
VSurf
p14
sVpMinLevel
p15
V35
p16
sVpMaxLevel
p17
V45
p18
sVpRate
p19
V10
p20
sbag1
(g2
g3
Ntp21
Rp22
(dp23
g7
V055
p24
sg9
VGolduck
p25
sg11
VD,P,
p26
sg13
VSurf
p27
sg15
V40
p28
sg17
V55
p29
sg19
V100
p30
sbag1
(g2
g3
Ntp31
Rp32
(dp33
g7
V055
p34
sg9
VGolduck
p35
sg11
g12
sg13
VSurf
p36
sg15
V35
p37
sg17
V55
p38
sg19
V90
p39
sbag1
(g2
g3
Ntp40
Rp41
(dp42
g7
V129
p43
sg9
VMagikarp
p44
sg11
VD,P,
p45
sg13
VFish Old
p46
sg15
V3
p47
sg17
V10
p48
sg19
V100
p49
sbag1
(g2
g3
Ntp50
Rp51
(dp52
g7
V129
p53
sg9
VMagikarp
p54
sg11
g12
sg13
VFish Old
p55
sg15
g47
sg17
V15
p56
sg19
V100
p57
sbag1
(g2
g3
Ntp58
Rp59
(dp60
g7
V118
p61
sg9
VGoldeen
p62
sg11
VD,P,
p63
sg13
VFish Good
p64
sg15
V10
p65
sg17
V25
p66
sg19
V35
p67
sbag1
(g2
g3
Ntp68
Rp69
(dp70
g7
V129
p71
sg9
VMagikarp
p72
sg11
VD,P,
p73
sg13
VFish Good
p74
sg15
V10
p75
sg17
V25
p76
sg19
V65
p77
sbag1
(g2
g3
Ntp78
Rp79
(dp80
g7
V129
p81
sg9
VMagikarp
p82
sg11
g12
sg13
VFish Good
p83
sg15
V10
p84
sg17
V35
p85
sg19
V100
p86
sbag1
(g2
g3
Ntp87
Rp88
(dp89
g7
V129
p90
sg9
VMagikarp
p91
sg11
g12
sg13
VFish Super
p92
sg15
V1
p93
sg17
V100
p94
sg19
V100
p95
sbag1
(g2
g3
Ntp96
Rp97
(dp98
g7
V119
p99
sg9
VSeaking
p100
sg11
VD,P,
p101
sg13
VFish Super
p102
sg15
V20
p103
sg17
V50
p104
sg19
V35
p105
sbag1
(g2
g3
Ntp106
Rp107
(dp108
g7
V130
p109
sg9
VGyarados
p110
sg11
VD,P,
p111
sg13
VFish Super
p112
sg15
V30
p113
sg17
V55
p114
sg19
V65
p115
sba.