(lp0
ccopy_reg
_reconstructor
p1
(c__main__
WildPokemon
p2
c__builtin__
object
p3
Ntp4
Rp5
(dp6
VpDexNo
p7
V227
p8
sVpSpecies
p9
VSkarmory
p10
sVpGames
p11
VB2,W2,
p12
sVpArea
p13
VGrass
p14
sVpMinLevel
p15
V34
p16
sVpMaxLevel
p17
g16
sVpRate
p18
V5
p19
sbag1
(g2
g3
Ntp20
Rp21
(dp22
g7
V322
p23
sg9
VNumel
p24
sg11
VW2,
p25
sg13
VGrass
p26
sg15
V31
p27
sg17
g27
sg18
V20
p28
sbag1
(g2
g3
Ntp29
Rp30
(dp31
g7
V323
p32
sg9
VCamerupt
p33
sg11
g25
sg13
VGrass
p34
sg15
V33
p35
sg17
g35
sg18
V10
p36
sbag1
(g2
g3
Ntp37
Rp38
(dp39
g7
V325
p40
sg9
VSpoink
p41
sg11
VB2,
p42
sg13
VGrass
p43
sg15
V31
p44
sg17
g44
sg18
V20
p45
sbag1
(g2
g3
Ntp46
Rp47
(dp48
g7
V326
p49
sg9
VGrumpig
p50
sg11
g42
sg13
VGrass
p51
sg15
V33
p52
sg17
g52
sg18
V10
p53
sbag1
(g2
g3
Ntp54
Rp55
(dp56
g7
V328
p57
sg9
VTrapinch
p58
sg11
VB2,W2,
p59
sg13
VGrass
p60
sg15
V32
p61
sg17
V34
p62
sg18
V15
p63
sbag1
(g2
g3
Ntp64
Rp65
(dp66
g7
V426
p67
sg9
VDrifblim
p68
sg11
VB2,W2,
p69
sg13
VGrass
p70
sg15
V32
p71
sg17
V33
p72
sg18
V20
p73
sbag1
(g2
g3
Ntp74
Rp75
(dp76
g7
V451
p77
sg9
VSkorupi
p78
sg11
VB2,W2,
p79
sg13
VGrass
p80
sg15
V31
p81
sg17
V33
p82
sg18
V30
p83
sbag1
(g2
g3
Ntp84
Rp85
(dp86
g7
V227
p87
sg9
VSkarmory
p88
sg11
VB2,W2,
p89
sg13
VDark
p90
sg15
V36
p91
sg17
V38
p92
sg18
V15
p93
sbag1
(g2
g3
Ntp94
Rp95
(dp96
g7
V323
p97
sg9
VCamerupt
p98
sg11
g25
sg13
VDark
p99
sg15
V35
p100
sg17
V37
p101
sg18
V30
p102
sbag1
(g2
g3
Ntp103
Rp104
(dp105
g7
V326
p106
sg9
VGrumpig
p107
sg11
g42
sg13
VDark
p108
sg15
V35
p109
sg17
V37
p110
sg18
V30
p111
sbag1
(g2
g3
Ntp112
Rp113
(dp114
g7
V329
p115
sg9
VVibrava
p116
sg11
VB2,W2,
p117
sg13
VDark
p118
sg15
V38
p119
sg17
g119
sg18
V5
p120
sbag1
(g2
g3
Ntp121
Rp122
(dp123
g7
V426
p124
sg9
VDrifblim
p125
sg11
VB2,W2,
p126
sg13
VDark
p127
sg15
V36
p128
sg17
V37
p129
sg18
V20
p130
sbag1
(g2
g3
Ntp131
Rp132
(dp133
g7
V451
p134
sg9
VSkorupi
p135
sg11
VB2,W2,
p136
sg13
VDark
p137
sg15
V35
p138
sg17
V37
p139
sg18
V30
p140
sbag1
(g2
g3
Ntp141
Rp142
(dp143
g7
V531
p144
sg9
VAudino
p145
sg11
VB2,W2,
p146
sg13
VRustling
p147
sg15
V31
p148
sg17
V34
p149
sg18
V100
p150
sbag1
(g2
g3
Ntp151
Rp152
(dp153
g7
V332
p154
sg9
VCacturne
p155
sg11
VB2,W2,
p156
sg13
VGrass
p157
sg15
V40
p158
sg17
V55
p159
sg18
V40
p160
sbag1
(g2
g3
Ntp161
Rp162
(dp163
g7
V322
p164
sg9
VNumel
p165
sg11
g25
sg13
VCave
p166
sg15
V31
p167
sg17
g167
sg18
V20
p168
sbag1
(g2
g3
Ntp169
Rp170
(dp171
g7
V323
p172
sg9
VCamerupt
p173
sg11
g25
sg13
VCave
p174
sg15
V35
p175
sg17
g175
sg18
V5
p176
sbag1
(g2
g3
Ntp177
Rp178
(dp179
g7
V325
p180
sg9
VSpoink
p181
sg11
g42
sg13
VCave
p182
sg15
V31
p183
sg17
g183
sg18
V20
p184
sbag1
(g2
g3
Ntp185
Rp186
(dp187
g7
V326
p188
sg9
VGrumpig
p189
sg11
g42
sg13
VCave
p190
sg15
V35
p191
sg17
g191
sg18
V5
p192
sbag1
(g2
g3
Ntp193
Rp194
(dp195
g7
V451
p196
sg9
VSkorupi
p197
sg11
VB2,W2,
p198
sg13
VCave
p199
sg15
V33
p200
sg17
V35
p201
sg18
V15
p202
sbag1
(g2
g3
Ntp203
Rp204
(dp205
g7
V525
p206
sg9
VBoldore
p207
sg11
VB2,W2,
p208
sg13
VCave
p209
sg15
V32
p210
sg17
V35
p211
sg18
V25
p212
sbag1
(g2
g3
Ntp213
Rp214
(dp215
g7
V527
p216
sg9
VWoobat
p217
sg11
VB2,W2,
p218
sg13
VCave
p219
sg15
V32
p220
sg17
V35
p221
sg18
V35
p222
sbag1
(g2
g3
Ntp223
Rp224
(dp225
g7
V322
p226
sg9
VNumel
p227
sg11
g25
sg13
VCave
p228
sg15
V31
p229
sg17
g229
sg18
V5
p230
sbag1
(g2
g3
Ntp231
Rp232
(dp233
g7
V323
p234
sg9
VCamerupt
p235
sg11
g25
sg13
VCave
p236
sg15
V35
p237
sg17
g237
sg18
V20
p238
sbag1
(g2
g3
Ntp239
Rp240
(dp241
g7
V325
p242
sg9
VSpoink
p243
sg11
g42
sg13
VCave
p244
sg15
V31
p245
sg17
g245
sg18
V5
p246
sbag1
(g2
g3
Ntp247
Rp248
(dp249
g7
V326
p250
sg9
VGrumpig
p251
sg11
g42
sg13
VCave
p252
sg15
V35
p253
sg17
g253
sg18
V20
p254
sbag1
(g2
g3
Ntp255
Rp256
(dp257
g7
V451
p258
sg9
VSkorupi
p259
sg11
VB2,W2,
p260
sg13
VCave
p261
sg15
V33
p262
sg17
V35
p263
sg18
V15
p264
sbag1
(g2
g3
Ntp265
Rp266
(dp267
g7
V525
p268
sg9
VBoldore
p269
sg11
VB2,W2,
p270
sg13
VCave
p271
sg15
V32
p272
sg17
V35
p273
sg18
V25
p274
sbag1
(g2
g3
Ntp275
Rp276
(dp277
g7
V527
p278
sg9
VWoobat
p279
sg11
VB2,W2,
p280
sg13
VCave
p281
sg15
V32
p282
sg17
V35
p283
sg18
V35
p284
sbag1
(g2
g3
Ntp285
Rp286
(dp287
g7
V530
p288
sg9
VExcadrill
p289
sg11
VB2,W2,
p290
sg13
VDust
p291
sg15
V32
p292
sg17
V35
p293
sg18
V100
p294
sbag1
(g2
g3
Ntp295
Rp296
(dp297
g7
V485
p298
sg9
VHeatran
p299
sg11
VB2,W2,
p300
sg13
VSpecial
p301
sg15
V68
p302
sg17
g302
sg18
V0
p303
sba.