(lp0
ccopy_reg
_reconstructor
p1
(c__main__
WildPokemon
p2
c__builtin__
object
p3
Ntp4
Rp5
(dp6
VpDexNo
p7
V041
p8
sVpSpecies
p9
VZubat
p10
sVpGames
p11
VSw,Sh,
p12
sVpArea
p13
VGrass
p14
sVpMinLevel
p15
V60
p16
sVpMaxLevel
p17
V65
p18
sVpRate
p19
V40
p20
sbag1
(g2
g3
Ntp21
Rp22
(dp23
g7
V221
p24
sg9
VPiloswine
p25
sg11
VSw,Sh,
p26
sg13
VGrass
p27
sg15
V60
p28
sg17
V65
p29
sg19
V20
p30
sbag1
(g2
g3
Ntp31
Rp32
(dp33
g7
V246
p34
sg9
VLarvitar
p35
sg11
VSh,
p36
sg13
VGrass
p37
sg15
V60
p38
sg17
V65
p39
sg19
V10
p40
sbag1
(g2
g3
Ntp41
Rp42
(dp43
g7
V447
p44
sg9
VRiolu
p45
sg11
VSw,Sh,
p46
sg13
VGrass
p47
sg15
V60
p48
sg17
V65
p49
sg19
V5
p50
sbag1
(g2
g3
Ntp51
Rp52
(dp53
g7
V531
p54
sg9
VAudino
p55
sg11
VSw,Sh,
p56
sg13
VGrass
p57
sg15
V60
p58
sg17
V65
p59
sg19
V1
p60
sbag1
(g2
g3
Ntp61
Rp62
(dp63
g7
V633
p64
sg9
VDeino
p65
sg11
VSw,
p66
sg13
VGrass
p67
sg15
V60
p68
sg17
V65
p69
sg19
V10
p70
sbag1
(g2
g3
Ntp71
Rp72
(dp73
g7
V703
p74
sg9
VCarbink
p75
sg11
VSw,Sh,
p76
sg13
VGrass
p77
sg15
V60
p78
sg17
V65
p79
sg19
V24
p80
sbag1
(g2
g3
Ntp81
Rp82
(dp83
g7
V129
p84
sg9
VMagikarp
p85
sg11
VSw,Sh,
p86
sg13
VGrass
p87
sg15
V60
p88
sg17
V65
p89
sg19
V0
p90
sbag1
(g2
g3
Ntp91
Rp92
(dp93
g7
V138
p94
sg9
VOmanyte
p95
sg11
g66
sg13
VGrass
p96
sg15
V60
p97
sg17
V65
p98
sg19
g90
sbag1
(g2
g3
Ntp99
Rp100
(dp101
g7
V140
p102
sg9
VKabuto
p103
sg11
g36
sg13
VGrass
p104
sg15
V60
p105
sg17
V65
p106
sg19
g90
sbag1
(g2
g3
Ntp107
Rp108
(dp109
g7
V339
p110
sg9
VBarboach
p111
sg11
VSw,Sh,
p112
sg13
VGrass
p113
sg15
V60
p114
sg17
V65
p115
sg19
g90
sbag1
(g2
g3
Ntp116
Rp117
(dp118
g7
V349
p119
sg9
VFeebas
p120
sg11
VSw,Sh,
p121
sg13
VGrass
p122
sg15
V60
p123
sg17
V65
p124
sg19
g90
sbag1
(g2
g3
Ntp125
Rp126
(dp127
g7
V550
p128
sg9
VBasculin
p129
sg11
g66
sg13
VGrass
p130
sg15
V60
p131
sg17
V65
p132
sg19
g90
sbag1
(g2
g3
Ntp133
Rp134
(dp135
g7
V550
p136
sg9
VBasculin
p137
sg11
g36
sg13
VGrass
p138
sg15
V60
p139
sg17
V65
p140
sg19
g90
sbag1
(g2
g3
Ntp141
Rp142
(dp143
g7
V583
p144
sg9
VVanillish
p145
sg11
VSw,Sh,
p146
sg13
VGrass
p147
sg15
V60
p148
sg17
V65
p149
sg19
g90
sbag1
(g2
g3
Ntp150
Rp151
(dp152
g7
V041
p153
sg9
VZubat
p154
sg11
VSw,Sh,
p155
sg13
VWanderer
p156
sg15
V63
p157
sg17
g157
sg19
V0
p158
sbag1
(g2
g3
Ntp159
Rp160
(dp161
g7
V448
p162
sg9
VLucario
p163
sg11
VSw,Sh,
p164
sg13
VWanderer
p165
sg15
V67
p166
sg17
g166
sg19
V0
p167
sbag1
(g2
g3
Ntp168
Rp169
(dp170
g7
V042
p171
sg9
VGolbat
p172
sg11
VSw,Sh,
p173
sg13
VWanderer
p174
sg15
V65
p175
sg17
g175
sg19
V0
p176
sbag1
(g2
g3
Ntp177
Rp178
(dp179
g7
V635
p180
sg9
VHydreigon
p181
sg11
g66
sg13
VWanderer
p182
sg15
V68
p183
sg17
g183
sg19
V0
p184
sbag1
(g2
g3
Ntp185
Rp186
(dp187
g7
V248
p188
sg9
VTyranitar
p189
sg11
g36
sg13
VWanderer
p190
sg15
V68
p191
sg17
g191
sg19
V0
p192
sbag1
(g2
g3
Ntp193
Rp194
(dp195
g7
V041
p196
sg9
VZubat
p197
sg11
VSw,Sh,
p198
sg13
VWanderer
p199
sg15
V63
p200
sg17
g200
sg19
V0
p201
sbag1
(g2
g3
Ntp202
Rp203
(dp204
g7
V139
p205
sg9
VOmastar
p206
sg11
g66
sg13
VWanderer
p207
sg15
V68
p208
sg17
g208
sg19
V0
p209
sbag1
(g2
g3
Ntp210
Rp211
(dp212
g7
V141
p213
sg9
VKabutops
p214
sg11
g36
sg13
VWanderer
p215
sg15
V68
p216
sg17
g216
sg19
V0
p217
sbag1
(g2
g3
Ntp218
Rp219
(dp220
g7
V042
p221
sg9
VGolbat
p222
sg11
VSw,Sh,
p223
sg13
VWanderer
p224
sg15
V65
p225
sg17
g225
sg19
V0
p226
sbag1
(g2
g3
Ntp227
Rp228
(dp229
g7
V635
p230
sg9
VHydreigon
p231
sg11
g66
sg13
VWanderer
p232
sg15
V68
p233
sg17
g233
sg19
V0
p234
sbag1
(g2
g3
Ntp235
Rp236
(dp237
g7
V248
p238
sg9
VTyranitar
p239
sg11
g36
sg13
VWanderer
p240
sg15
V68
p241
sg17
g241
sg19
V0
p242
sba.