(lp0
ccopy_reg
_reconstructor
p1
(c__main__
WildPokemon
p2
c__builtin__
object
p3
Ntp4
Rp5
(dp6
VpDexNo
p7
V041
p8
sVpSpecies
p9
VZubat
p10
sVpGames
p11
VR,B,
p12
sVpArea
p13
VCave
p14
sVpMinLevel
p15
V15
p16
sVpMaxLevel
p17
V18
p18
sVpRate
p19
V55
p20
sbag1
(g2
g3
Ntp21
Rp22
(dp23
g7
V041
p24
sg9
VZubat
p25
sg11
VY,
p26
sg13
VCave
p27
sg15
V15
p28
sg17
V21
p29
sg19
V55
p30
sbag1
(g2
g3
Ntp31
Rp32
(dp33
g7
V074
p34
sg9
VGeodude
p35
sg11
VR,B,
p36
sg13
VCave
p37
sg15
V16
p38
sg17
V17
p39
sg19
V25
p40
sbag1
(g2
g3
Ntp41
Rp42
(dp43
g7
V074
p44
sg9
VGeodude
p45
sg11
g26
sg13
VCave
p46
sg15
V16
p47
sg17
V20
p48
sg19
V35
p49
sbag1
(g2
g3
Ntp50
Rp51
(dp52
g7
V066
p53
sg9
VMachop
p54
sg11
VR,B,
p55
sg13
VCave
p56
sg15
V15
p57
sg17
V17
p58
sg19
V15
p59
sbag1
(g2
g3
Ntp60
Rp61
(dp62
g7
V066
p63
sg9
VMachop
p64
sg11
g26
sg13
VCave
p65
sg15
V17
p66
sg17
V21
p67
sg19
V10
p68
sbag1
(g2
g3
Ntp69
Rp70
(dp71
g7
V095
p72
sg9
VOnix
p73
sg11
VR,B,
p74
sg13
VCave
p75
sg15
V13
p76
sg17
V15
p77
sg19
V5
p78
sbag1
(g2
g3
Ntp79
Rp80
(dp81
g7
V041
p82
sg9
VZubat
p83
sg11
VR,B,
p84
sg13
VCave
p85
sg15
V16
p86
sg17
V18
p87
sg19
V50
p88
sbag1
(g2
g3
Ntp89
Rp90
(dp91
g7
V041
p92
sg9
VZubat
p93
sg11
g26
sg13
VCave
p94
sg15
V20
p95
sg17
V22
p96
sg19
V45
p97
sbag1
(g2
g3
Ntp98
Rp99
(dp100
g7
V066
p101
sg9
VMachop
p102
sg11
VR,B,
p103
sg13
VCave
p104
sg15
V15
p105
sg17
V17
p106
sg19
V15
p107
sbag1
(g2
g3
Ntp108
Rp109
(dp110
g7
V066
p111
sg9
VMachop
p112
sg11
g26
sg13
VCave
p113
sg15
V18
p114
sg17
V20
p115
sg19
V20
p116
sbag1
(g2
g3
Ntp117
Rp118
(dp119
g7
V074
p120
sg9
VGeodude
p121
sg11
VR,B,
p122
sg13
VCave
p123
sg15
V16
p124
sg17
V18
p125
sg19
V26
p126
sbag1
(g2
g3
Ntp127
Rp128
(dp129
g7
V074
p130
sg9
VGeodude
p131
sg11
g26
sg13
VCave
p132
sg15
V17
p133
sg17
V21
p134
sg19
V25
p135
sbag1
(g2
g3
Ntp136
Rp137
(dp138
g7
V095
p139
sg9
VOnix
p140
sg11
VR,B,
p141
sg13
VCave
p142
sg15
V13
p143
sg17
V17
p144
sg19
V9
p145
sbag1
(g2
g3
Ntp146
Rp147
(dp148
g7
V095
p149
sg9
VOnix
p150
sg11
g26
sg13
VCave
p151
sg15
V14
p152
sg17
V22
p153
sg19
V10
p154
sbag1
(g2
g3
Ntp155
Rp156
(dp157
g7
V041
p158
sg9
VZubat
p159
sg11
VG,S,
p160
sg13
VCave
p161
sg15
V8
p162
sg17
g162
sg19
V10
p163
sbag1
(g2
g3
Ntp164
Rp165
(dp166
g7
V041
p167
sg9
VZubat
p168
sg11
VC,
p169
sg13
VCave
p170
sg15
V12
p171
sg17
g171
sg19
V10
p172
sbag1
(g2
g3
Ntp173
Rp174
(dp175
g7
V041
p176
sg9
VZubat
p177
sg11
g169
sg13
VCave
p178
sg15
V12
p179
sg17
V15
p180
sg19
V40
p181
sbag1
(g2
g3
Ntp182
Rp183
(dp184
g7
V066
p185
sg9
VMachop
p186
sg11
VG,S,
p187
sg13
VCave
p188
sg15
V12
p189
sg17
g189
sg19
V20
p190
sbag1
(g2
g3
Ntp191
Rp192
(dp193
g7
V066
p194
sg9
VMachop
p195
sg11
g169
sg13
VCave
p196
sg15
V12
p197
sg17
g197
sg19
V20
p198
sbag1
(g2
g3
Ntp199
Rp200
(dp201
g7
V067
p202
sg9
VMachoke
p203
sg11
VG,S,
p204
sg13
VCave
p205
sg15
V14
p206
sg17
g206
sg19
V5
p207
sbag1
(g2
g3
Ntp208
Rp209
(dp210
g7
V067
p211
sg9
VMachoke
p212
sg11
g169
sg13
VCave
p213
sg15
V15
p214
sg17
g214
sg19
V5
p215
sbag1
(g2
g3
Ntp216
Rp217
(dp218
g7
V074
p219
sg9
VGeodude
p220
sg11
VG,S,
p221
sg13
VCave
p222
sg15
V10
p223
sg17
g223
sg19
V30
p224
sbag1
(g2
g3
Ntp225
Rp226
(dp227
g7
V074
p228
sg9
VGeodude
p229
sg11
g169
sg13
VCave
p230
sg15
V11
p231
sg17
g231
sg19
V30
p232
sbag1
(g2
g3
Ntp233
Rp234
(dp235
g7
V074
p236
sg9
VGeodude
p237
sg11
g169
sg13
VCave
p238
sg15
V11
p239
sg17
V12
p240
sg19
V50
p241
sbag1
(g2
g3
Ntp242
Rp243
(dp244
g7
V093
p245
sg9
VHaunter
p246
sg11
g169
sg13
VCave
p247
sg15
V17
p248
sg17
g248
sg19
V10
p249
sbag1
(g2
g3
Ntp250
Rp251
(dp252
g7
V104
p253
sg9
VCubone
p254
sg11
VG,S,
p255
sg13
VCave
p256
sg15
V10
p257
sg17
V13
p258
sg19
V35
p259
sbag1
(g2
g3
Ntp260
Rp261
(dp262
g7
V104
p263
sg9
VCubone
p264
sg11
g169
sg13
VCave
p265
sg15
V10
p266
sg17
g266
sg19
V30
p267
sbag1
(g2
g3
Ntp268
Rp269
(dp270
g7
V105
p271
sg9
VMarowak
p272
sg11
g169
sg13
VCave
p273
sg15
V12
p274
sg17
g274
sg19
V5
p275
sbag1
(g2
g3
Ntp276
Rp277
(dp278
g7
V074
p279
sg9
VGeodude
p280
sg11
VG,S,
p281
sg13
VCave
p282
sg15
V12
p283
sg17
g283
sg19
V30
p284
sbag1
(g2
g3
Ntp285
Rp286
(dp287
g7
V074
p288
sg9
VGeodude
p289
sg11
g169
sg13
VCave
p290
sg15
V14
p291
sg17
g291
sg19
V30
p292
sbag1
(g2
g3
Ntp293
Rp294
(dp295
g7
V104
p296
sg9
VCubone
p297
sg11
VG,S,
p298
sg13
VCave
p299
sg15
V12
p300
sg17
g300
sg19
V30
p301
sbag1
(g2
g3
Ntp302
Rp303
(dp304
g7
V104
p305
sg9
VCubone
p306
sg11
g169
sg13
VCave
p307
sg15
V12
p308
sg17
g308
sg19
V30
p309
sbag1
(g2
g3
Ntp310
Rp311
(dp312
g7
V095
p313
sg9
VOnix
p314
sg11
VG,S,C,
p315
sg13
VCave
p316
sg15
V16
p317
sg17
g317
sg19
V20
p318
sbag1
(g2
g3
Ntp319
Rp320
(dp321
g7
V041
p322
sg9
VZubat
p323
sg11
VG,S,
p324
sg13
VCave
p325
sg15
V10
p326
sg17
g326
sg19
V10
p327
sbag1
(g2
g3
Ntp328
Rp329
(dp330
g7
V041
p331
sg9
VZubat
p332
sg11
g169
sg13
VCave
p333
sg15
V12
p334
sg17
g334
sg19
V10
p335
sbag1
(g2
g3
Ntp336
Rp337
(dp338
g7
V041
p339
sg9
VZubat
p340
sg11
g169
sg13
VCave
p341
sg15
V12
p342
sg17
V15
p343
sg19
V40
p344
sbag1
(g2
g3
Ntp345
Rp346
(dp347
g7
V042
p348
sg9
VGolbat
p349
sg11
g169
sg13
VCave
p350
sg15
V15
p351
sg17
g351
sg19
V5
p352
sbag1
(g2
g3
Ntp353
Rp354
(dp355
g7
V093
p356
sg9
VHaunter
p357
sg11
g169
sg13
VCave
p358
sg15
V15
p359
sg17
g359
sg19
V5
p360
sbag1
(g2
g3
Ntp361
Rp362
(dp363
g7
V105
p364
sg9
VMarowak
p365
sg11
VG,S,
p366
sg13
VCave
p367
sg15
V14
p368
sg17
g368
sg19
V5
p369
sbag1
(g2
g3
Ntp370
Rp371
(dp372
g7
V105
p373
sg9
VMarowak
p374
sg11
g169
sg13
VCave
p375
sg15
V15
p376
sg17
g376
sg19
V5
p377
sbag1
(g2
g3
Ntp378
Rp379
(dp380
g7
V115
p381
sg9
VKangaskhan
p382
sg11
VG,S,
p383
sg13
VCave
p384
sg15
V14
p385
sg17
g385
sg19
V5
p386
sbag1
(g2
g3
Ntp387
Rp388
(dp389
g7
V115
p390
sg9
VKangaskhan
p391
sg11
g169
sg13
VCave
p392
sg15
V15
p393
sg17
g393
sg19
V5
p394
sbag1
(g2
g3
Ntp395
Rp396
(dp397
g7
V074
p398
sg9
VGeodude
p399
sg11
VFR,LG,
p400
sg13
VCave
p401
sg15
V15
p402
sg17
V17
p403
sg19
V35
p404
sbag1
(g2
g3
Ntp405
Rp406
(dp407
g7
V041
p408
sg9
VZubat
p409
sg11
VFR,LG,
p410
sg13
VCave
p411
sg15
V15
p412
sg17
V16
p413
sg19
V30
p414
sbag1
(g2
g3
Ntp415
Rp416
(dp417
g7
V056
p418
sg9
VMankey
p419
sg11
VFR,LG,
p420
sg13
VCave
p421
sg15
V16
p422
sg17
V17
p423
sg19
V15
p424
sbag1
(g2
g3
Ntp425
Rp426
(dp427
g7
V066
p428
sg9
VMachop
p429
sg11
VFR,LG,
p430
sg13
VCave
p431
sg15
V16
p432
sg17
V17
p433
sg19
V15
p434
sbag1
(g2
g3
Ntp435
Rp436
(dp437
g7
V095
p438
sg9
VOnix
p439
sg11
VFR,LG,
p440
sg13
VCave
p441
sg15
V13
p442
sg17
V15
p443
sg19
V5
p444
sbag1
(g2
g3
Ntp445
Rp446
(dp447
g7
V074
p448
sg9
VGeodude
p449
sg11
VFR,LG,
p450
sg13
VCave
p451
sg15
V15
p452
sg17
V17
p453
sg19
V35
p454
sbag1
(g2
g3
Ntp455
Rp456
(dp457
g7
V041
p458
sg9
VZubat
p459
sg11
VFR,LG,
p460
sg13
VCave
p461
sg15
V15
p462
sg17
V16
p463
sg19
V30
p464
sbag1
(g2
g3
Ntp465
Rp466
(dp467
g7
V056
p468
sg9
VMankey
p469
sg11
VFR,LG,
p470
sg13
VCave
p471
sg15
V16
p472
sg17
V17
p473
sg19
V15
p474
sbag1
(g2
g3
Ntp475
Rp476
(dp477
g7
V066
p478
sg9
VMachop
p479
sg11
VFR,LG,
p480
sg13
VCave
p481
sg15
V17
p482
sg17
g482
sg19
V10
p483
sbag1
(g2
g3
Ntp484
Rp485
(dp486
g7
V095
p487
sg9
VOnix
p488
sg11
VFR,LG,
p489
sg13
VCave
p490
sg15
V13
p491
sg17
V17
p492
sg19
V10
p493
sbag1
(g2
g3
Ntp494
Rp495
(dp496
g7
V074
p497
sg9
VGeodude
p498
sg11
VFR,LG,
p499
sg13
VRock Smash
p500
sg15
V5
p501
sg17
V30
p502
sg19
V90
p503
sbag1
(g2
g3
Ntp504
Rp505
(dp506
g7
V075
p507
sg9
VGraveler
p508
sg11
VFR,LG,
p509
sg13
VRock Smash
p510
sg15
V25
p511
sg17
V40
p512
sg19
V10
p513
sbag1
(g2
g3
Ntp514
Rp515
(dp516
g7
V104
p517
sg9
VCubone
p518
sg11
VHG,SS,
p519
sg13
VCave
p520
sg15
V10
p521
sg17
V13
p522
sg19
V35
p523
sbag1
(g2
g3
Ntp524
Rp525
(dp526
g7
V074
p527
sg9
VGeodude
p528
sg11
VHG,SS,
p529
sg13
VCave
p530
sg15
V10
p531
sg17
g531
sg19
V30
p532
sbag1
(g2
g3
Ntp533
Rp534
(dp535
g7
V066
p536
sg9
VMachop
p537
sg11
VHG,SS,
p538
sg13
VCave
p539
sg15
V12
p540
sg17
g540
sg19
V20
p541
sbag1
(g2
g3
Ntp542
Rp543
(dp544
g7
V041
p545
sg9
VZubat
p546
sg11
VHG,SS,
p547
sg13
VCave
p548
sg15
g162
sg17
g162
sg19
V10
p549
sbag1
(g2
g3
Ntp550
Rp551
(dp552
g7
V067
p553
sg9
VMachoke
p554
sg11
VHG,SS,
p555
sg13
VCave
p556
sg15
V14
p557
sg17
g557
sg19
V5
p558
sbag1
(g2
g3
Ntp559
Rp560
(dp561
g7
V296
p562
sg9
VMakuhita
p563
sg11
VHG,SS,
p564
sg13
VHoenn
p565
sg15
V12
p566
sg17
g566
sg19
V20
p567
sbag1
(g2
g3
Ntp568
Rp569
(dp570
g7
V359
p571
sg9
VAbsol
p572
sg11
VHG,SS,
p573
sg13
VHoenn
p574
sg15
V10
p575
sg17
g575
sg19
V20
p576
sbag1
(g2
g3
Ntp577
Rp578
(dp579
g7
V433
p580
sg9
VChingling
p581
sg11
VHG,SS,
p582
sg13
VSinnoh
p583
sg15
V12
p584
sg17
g584
sg19
V20
p585
sbag1
(g2
g3
Ntp586
Rp587
(dp588
g7
V436
p589
sg9
VBronzor
p590
sg11
VHG,SS,
p591
sg13
VSinnoh
p592
sg15
V10
p593
sg17
g593
sg19
V20
p594
sbag1
(g2
g3
Ntp595
Rp596
(dp597
g7
V074
p598
sg9
VGeodude
p599
sg11
VHG,SS,
p600
sg13
VCave
p601
sg15
V12
p602
sg17
g602
sg19
V30
p603
sbag1
(g2
g3
Ntp604
Rp605
(dp606
g7
V104
p607
sg9
VCubone
p608
sg11
VHG,SS,
p609
sg13
VCave
p610
sg15
V12
p611
sg17
g611
sg19
V30
p612
sbag1
(g2
g3
Ntp613
Rp614
(dp615
g7
V095
p616
sg9
VOnix
p617
sg11
VHG,SS,
p618
sg13
VCave
p619
sg15
V16
p620
sg17
g620
sg19
V20
p621
sbag1
(g2
g3
Ntp622
Rp623
(dp624
g7
V041
p625
sg9
VZubat
p626
sg11
VHG,SS,
p627
sg13
VCave
p628
sg15
V10
p629
sg17
g629
sg19
V10
p630
sbag1
(g2
g3
Ntp631
Rp632
(dp633
g7
V105
p634
sg9
VMarowak
p635
sg11
VHG,SS,
p636
sg13
VCave
p637
sg15
V14
p638
sg17
g638
sg19
V5
p639
sbag1
(g2
g3
Ntp640
Rp641
(dp642
g7
V115
p643
sg9
VKangaskhan
p644
sg11
VHG,SS,
p645
sg13
VCave
p646
sg15
V14
p647
sg17
g647
sg19
V5
p648
sbag1
(g2
g3
Ntp649
Rp650
(dp651
g7
V074
p652
sg9
VGeodude
p653
sg11
VHG,SS,
p654
sg13
VRock Smash
p655
sg15
V12
p656
sg17
V21
p657
sg19
V100
p658
sbag1
(g2
g3
Ntp659
Rp660
(dp661
g7
V296
p662
sg9
VMakuhita
p663
sg11
VHG,SS,
p664
sg13
VHoenn
p665
sg15
V16
p666
sg17
g666
sg19
V20
p667
sbag1
(g2
g3
Ntp668
Rp669
(dp670
g7
V359
p671
sg9
VAbsol
p672
sg11
VHG,SS,
p673
sg13
VHoenn
p674
sg15
V12
p675
sg17
g675
sg19
V20
p676
sbag1
(g2
g3
Ntp677
Rp678
(dp679
g7
V433
p680
sg9
VChingling
p681
sg11
VHG,SS,
p682
sg13
VSinnoh
p683
sg15
V16
p684
sg17
g684
sg19
V20
p685
sbag1
(g2
g3
Ntp686
Rp687
(dp688
g7
V436
p689
sg9
VBronzor
p690
sg11
VHG,SS,
p691
sg13
VSinnoh
p692
sg15
V12
p693
sg17
g693
sg19
V20
p694
sbag1
(g2
g3
Ntp695
Rp696
(dp697
g7
V041
p698
sg9
VZubat
p699
sg11
VPi,Ev,
p700
sg13
VCave
p701
sg15
V18
p702
sg17
V23
p703
sg19
V10
p704
sbag1
(g2
g3
Ntp705
Rp706
(dp707
g7
V042
p708
sg9
VGolbat
p709
sg11
VPi,Ev,
p710
sg13
VCave
p711
sg15
V18
p712
sg17
V23
p713
sg19
V20
p714
sbag1
(g2
g3
Ntp715
Rp716
(dp717
g7
V066
p718
sg9
VMachop
p719
sg11
VPi,Ev,
p720
sg13
VCave
p721
sg15
V18
p722
sg17
V23
p723
sg19
V10
p724
sbag1
(g2
g3
Ntp725
Rp726
(dp727
g7
V074
p728
sg9
VGeodude
p729
sg11
VPi,Ev,
p730
sg13
VCave
p731
sg15
V18
p732
sg17
V23
p733
sg19
V10
p734
sbag1
(g2
g3
Ntp735
Rp736
(dp737
g7
V075
p738
sg9
VGraveler
p739
sg11
VPi,Ev,
p740
sg13
VCave
p741
sg15
V18
p742
sg17
V23
p743
sg19
V20
p744
sbag1
(g2
g3
Ntp745
Rp746
(dp747
g7
V095
p748
sg9
VOnix
p749
sg11
VPi,Ev,
p750
sg13
VCave
p751
sg15
V18
p752
sg17
V23
p753
sg19
V10
p754
sbag1
(g2
g3
Ntp755
Rp756
(dp757
g7
V104
p758
sg9
VCubone
p759
sg11
VPi,Ev,
p760
sg13
VCave
p761
sg15
V18
p762
sg17
V23
p763
sg19
V9
p764
sbag1
(g2
g3
Ntp765
Rp766
(dp767
g7
V111
p768
sg9
VRhyhorn
p769
sg11
VPi,Ev,
p770
sg13
VCave
p771
sg15
V18
p772
sg17
V23
p773
sg19
V10
p774
sbag1
(g2
g3
Ntp775
Rp776
(dp777
g7
V115
p778
sg9
VKangaskhan
p779
sg11
VPi,Ev,
p780
sg13
VCave
p781
sg15
V18
p782
sg17
V23
p783
sg19
V1
p784
sbag1
(g2
g3
Ntp785
Rp786
(dp787
g7
V004
p788
sg9
VCharmander
p789
sg11
VPi,Ev,
p790
sg13
VCave
p791
sg15
V18
p792
sg17
V23
p793
sg19
V0
p794
sbag1
(g2
g3
Ntp795
Rp796
(dp797
g7
V041
p798
sg9
VZubat
p799
sg11
VPi,Ev,
p800
sg13
VCave
p801
sg15
V18
p802
sg17
V23
p803
sg19
V20
p804
sbag1
(g2
g3
Ntp805
Rp806
(dp807
g7
V042
p808
sg9
VGolbat
p809
sg11
VPi,Ev,
p810
sg13
VCave
p811
sg15
V18
p812
sg17
V23
p813
sg19
V10
p814
sbag1
(g2
g3
Ntp815
Rp816
(dp817
g7
V066
p818
sg9
VMachop
p819
sg11
VPi,Ev,
p820
sg13
VCave
p821
sg15
V18
p822
sg17
V23
p823
sg19
V10
p824
sbag1
(g2
g3
Ntp825
Rp826
(dp827
g7
V074
p828
sg9
VGeodude
p829
sg11
VPi,Ev,
p830
sg13
VCave
p831
sg15
V18
p832
sg17
V23
p833
sg19
V20
p834
sbag1
(g2
g3
Ntp835
Rp836
(dp837
g7
V075
p838
sg9
VGraveler
p839
sg11
VPi,Ev,
p840
sg13
VCave
p841
sg15
V18
p842
sg17
V23
p843
sg19
V10
p844
sbag1
(g2
g3
Ntp845
Rp846
(dp847
g7
V095
p848
sg9
VOnix
p849
sg11
VPi,Ev,
p850
sg13
VCave
p851
sg15
V18
p852
sg17
V23
p853
sg19
V10
p854
sbag1
(g2
g3
Ntp855
Rp856
(dp857
g7
V104
p858
sg9
VCubone
p859
sg11
VPi,Ev,
p860
sg13
VCave
p861
sg15
V18
p862
sg17
V23
p863
sg19
V9
p864
sbag1
(g2
g3
Ntp865
Rp866
(dp867
g7
V111
p868
sg9
VRhyhorn
p869
sg11
VPi,Ev,
p870
sg13
VCave
p871
sg15
V18
p872
sg17
V23
p873
sg19
V10
p874
sbag1
(g2
g3
Ntp875
Rp876
(dp877
g7
V115
p878
sg9
VKangaskhan
p879
sg11
VPi,Ev,
p880
sg13
VCave
p881
sg15
V18
p882
sg17
V23
p883
sg19
V1
p884
sbag1
(g2
g3
Ntp885
Rp886
(dp887
g7
V004
p888
sg9
VCharmander
p889
sg11
VPi,Ev,
p890
sg13
VCave
p891
sg15
V18
p892
sg17
V23
p893
sg19
V0
p894
sba.