(lp0
ccopy_reg
_reconstructor
p1
(c__main__
WildPokemon
p2
c__builtin__
object
p3
Ntp4
Rp5
(dp6
VpDexNo
p7
V011
p8
sVpSpecies
p9
VMetapod
p10
sVpGames
p11
VSw,
p12
sVpArea
p13
VGrass
p14
sVpMinLevel
p15
V7
p16
sVpMaxLevel
p17
V9
p18
sVpRate
p19
V0
p20
sbag1
(g2
g3
Ntp21
Rp22
(dp23
g7
V011
p24
sg9
VMetapod
p25
sg11
VSh,
p26
sg13
VGrass
p27
sg15
g16
sg17
V10
p28
sg19
g20
sbag1
(g2
g3
Ntp29
Rp30
(dp31
g7
V037
p32
sg9
VVulpix
p33
sg11
g12
sg13
VGrass
p34
sg15
g16
sg17
g18
sg19
g20
sbag1
(g2
g3
Ntp35
Rp36
(dp37
g7
V043
p38
sg9
VOddish
p39
sg11
g12
sg13
VGrass
p40
sg15
g16
sg17
g18
sg19
g20
sbag1
(g2
g3
Ntp41
Rp42
(dp43
g7
V043
p44
sg9
VOddish
p45
sg11
g26
sg13
VGrass
p46
sg15
g16
sg17
V10
p47
sg19
g20
sbag1
(g2
g3
Ntp48
Rp49
(dp50
g7
V058
p51
sg9
VGrowlithe
p52
sg11
g26
sg13
VGrass
p53
sg15
g16
sg17
V10
p54
sg19
g20
sbag1
(g2
g3
Ntp55
Rp56
(dp57
g7
V177
p58
sg9
VNatu
p59
sg11
g12
sg13
VGrass
p60
sg15
g16
sg17
g18
sg19
g20
sbag1
(g2
g3
Ntp61
Rp62
(dp63
g7
V177
p64
sg9
VNatu
p65
sg11
g26
sg13
VGrass
p66
sg15
g16
sg17
V10
p67
sg19
g20
sbag1
(g2
g3
Ntp68
Rp69
(dp70
g7
V220
p71
sg9
VSwinub
p72
sg11
g12
sg13
VGrass
p73
sg15
g16
sg17
g18
sg19
g20
sbag1
(g2
g3
Ntp74
Rp75
(dp76
g7
V220
p77
sg9
VSwinub
p78
sg11
g26
sg13
VGrass
p79
sg15
g16
sg17
V10
p80
sg19
g20
sbag1
(g2
g3
Ntp81
Rp82
(dp83
g7
V225
p84
sg9
VDelibird
p85
sg11
g12
sg13
VGrass
p86
sg15
g16
sg17
g18
sg19
g20
sbag1
(g2
g3
Ntp87
Rp88
(dp89
g7
V225
p90
sg9
VDelibird
p91
sg11
g26
sg13
VGrass
p92
sg15
g16
sg17
V10
p93
sg19
g20
sbag1
(g2
g3
Ntp94
Rp95
(dp96
g7
V270
p97
sg9
VLotad
p98
sg11
g26
sg13
VGrass
p99
sg15
g16
sg17
V10
p100
sg19
g20
sbag1
(g2
g3
Ntp101
Rp102
(dp103
g7
V274
p104
sg9
VNuzleaf
p105
sg11
g12
sg13
VGrass
p106
sg15
g16
sg17
g18
sg19
g20
sbag1
(g2
g3
Ntp107
Rp108
(dp109
g7
V278
p110
sg9
VWingull
p111
sg11
g12
sg13
VGrass
p112
sg15
g16
sg17
g18
sg19
g20
sbag1
(g2
g3
Ntp113
Rp114
(dp115
g7
V278
p116
sg9
VWingull
p117
sg11
g26
sg13
VGrass
p118
sg15
g16
sg17
V10
p119
sg19
g20
sbag1
(g2
g3
Ntp120
Rp121
(dp122
g7
V309
p123
sg9
VElectrike
p124
sg11
g12
sg13
VGrass
p125
sg15
g16
sg17
g18
sg19
g20
sbag1
(g2
g3
Ntp126
Rp127
(dp128
g7
V309
p129
sg9
VElectrike
p130
sg11
g26
sg13
VGrass
p131
sg15
g16
sg17
V10
p132
sg19
g20
sbag1
(g2
g3
Ntp133
Rp134
(dp135
g7
V343
p136
sg9
VBaltoy
p137
sg11
g12
sg13
VGrass
p138
sg15
g16
sg17
g18
sg19
g20
sbag1
(g2
g3
Ntp139
Rp140
(dp141
g7
V343
p142
sg9
VBaltoy
p143
sg11
g26
sg13
VGrass
p144
sg15
g16
sg17
V10
p145
sg19
g20
sbag1
(g2
g3
Ntp146
Rp147
(dp148
g7
V361
p149
sg9
VSnorunt
p150
sg11
g12
sg13
VGrass
p151
sg15
g16
sg17
g18
sg19
g20
sbag1
(g2
g3
Ntp152
Rp153
(dp154
g7
V361
p155
sg9
VSnorunt
p156
sg11
g26
sg13
VGrass
p157
sg15
g16
sg17
V10
p158
sg19
g20
sbag1
(g2
g3
Ntp159
Rp160
(dp161
g7
V406
p162
sg9
VBudew
p163
sg11
g12
sg13
VGrass
p164
sg15
g16
sg17
g18
sg19
g20
sbag1
(g2
g3
Ntp165
Rp166
(dp167
g7
V406
p168
sg9
VBudew
p169
sg11
g26
sg13
VGrass
p170
sg15
g16
sg17
V10
p171
sg19
g20
sbag1
(g2
g3
Ntp172
Rp173
(dp174
g7
V517
p175
sg9
VMunna
p176
sg11
g12
sg13
VGrass
p177
sg15
g16
sg17
g18
sg19
g20
sbag1
(g2
g3
Ntp178
Rp179
(dp180
g7
V517
p181
sg9
VMunna
p182
sg11
g26
sg13
VGrass
p183
sg15
g16
sg17
V10
p184
sg19
g20
sbag1
(g2
g3
Ntp185
Rp186
(dp187
g7
V557
p188
sg9
VDwebble
p189
sg11
g12
sg13
VGrass
p190
sg15
g16
sg17
g18
sg19
g20
sbag1
(g2
g3
Ntp191
Rp192
(dp193
g7
V557
p194
sg9
VDwebble
p195
sg11
g26
sg13
VGrass
p196
sg15
g16
sg17
V10
p197
sg19
g20
sbag1
(g2
g3
Ntp198
Rp199
(dp200
g7
V572
p201
sg9
VMinccino
p202
sg11
g12
sg13
VGrass
p203
sg15
g16
sg17
g18
sg19
g20
sbag1
(g2
g3
Ntp204
Rp205
(dp206
g7
V572
p207
sg9
VMinccino
p208
sg11
g26
sg13
VGrass
p209
sg15
g16
sg17
V10
p210
sg19
g20
sbag1
(g2
g3
Ntp211
Rp212
(dp213
g7
V582
p214
sg9
VVanillite
p215
sg11
g12
sg13
VGrass
p216
sg15
g16
sg17
g18
sg19
g20
sbag1
(g2
g3
Ntp217
Rp218
(dp219
g7
V582
p220
sg9
VVanillite
p221
sg11
g26
sg13
VGrass
p222
sg15
g16
sg17
V10
p223
sg19
g20
sbag1
(g2
g3
Ntp224
Rp225
(dp226
g7
V595
p227
sg9
VJoltik
p228
sg11
g12
sg13
VGrass
p229
sg15
g16
sg17
g18
sg19
g20
sbag1
(g2
g3
Ntp230
Rp231
(dp232
g7
V595
p233
sg9
VJoltik
p234
sg11
g26
sg13
VGrass
p235
sg15
g16
sg17
V10
p236
sg19
g20
sbag1
(g2
g3
Ntp237
Rp238
(dp239
g7
V622
p240
sg9
VGolett
p241
sg11
g12
sg13
VGrass
p242
sg15
g16
sg17
g18
sg19
g20
sbag1
(g2
g3
Ntp243
Rp244
(dp245
g7
V622
p246
sg9
VGolett
p247
sg11
g26
sg13
VGrass
p248
sg15
g16
sg17
V10
p249
sg19
g20
sbag1
(g2
g3
Ntp250
Rp251
(dp252
g7
V659
p253
sg9
VBunnelby
p254
sg11
g12
sg13
VGrass
p255
sg15
g16
sg17
g18
sg19
g20
sbag1
(g2
g3
Ntp256
Rp257
(dp258
g7
V659
p259
sg9
VBunnelby
p260
sg11
g26
sg13
VGrass
p261
sg15
g16
sg17
V10
p262
sg19
g20
sbag1
(g2
g3
Ntp263
Rp264
(dp265
g7
V749
p266
sg9
VMudbray
p267
sg11
g12
sg13
VGrass
p268
sg15
g16
sg17
g18
sg19
g20
sbag1
(g2
g3
Ntp269
Rp270
(dp271
g7
V749
p272
sg9
VMudbray
p273
sg11
g26
sg13
VGrass
p274
sg15
g16
sg17
V10
p275
sg19
g20
sbag1
(g2
g3
Ntp276
Rp277
(dp278
g7
V761
p279
sg9
VBounsweet
p280
sg11
g12
sg13
VGrass
p281
sg15
g16
sg17
g18
sg19
g20
sbag1
(g2
g3
Ntp282
Rp283
(dp284
g7
V761
p285
sg9
VBounsweet
p286
sg11
g26
sg13
VGrass
p287
sg15
g16
sg17
V10
p288
sg19
g20
sbag1
(g2
g3
Ntp289
Rp290
(dp291
g7
V420
p292
sg9
VCherubi
p293
sg11
VSw,Sh,
p294
sg13
VBerry tree
p295
sg15
g16
sg17
V10
p296
sg19
V20
p297
sbag1
(g2
g3
Ntp298
Rp299
(dp300
g7
V819
p301
sg9
VSkwovet
p302
sg11
VSw,Sh,
p303
sg13
VBerry tree
p304
sg15
g16
sg17
V10
p305
sg19
V80
p306
sbag1
(g2
g3
Ntp307
Rp308
(dp309
g7
V011
p310
sg9
VMetapod
p311
sg11
VSw,Sh,
p312
sg13
VGrass
p313
sg15
g16
sg17
V10
p314
sg19
V10
p315
sbag1
(g2
g3
Ntp316
Rp317
(dp318
g7
V037
p319
sg9
VVulpix
p320
sg11
g12
sg13
VGrass
p321
sg15
g16
sg17
V10
p322
sg19
g20
sbag1
(g2
g3
Ntp323
Rp324
(dp325
g7
V058
p326
sg9
VGrowlithe
p327
sg11
g26
sg13
VGrass
p328
sg15
g16
sg17
V10
p329
sg19
g20
sbag1
(g2
g3
Ntp330
Rp331
(dp332
g7
V225
p333
sg9
VDelibird
p334
sg11
VSw,Sh,
p335
sg13
VGrass
p336
sg15
g16
sg17
V10
p337
sg19
g20
sbag1
(g2
g3
Ntp338
Rp339
(dp340
g7
V236
p341
sg9
VTyrogue
p342
sg11
VSw,Sh,
p343
sg13
VGrass
p344
sg15
g16
sg17
V10
p345
sg19
g20
sbag1
(g2
g3
Ntp346
Rp347
(dp348
g7
V278
p349
sg9
VWingull
p350
sg11
VSw,Sh,
p351
sg13
VGrass
p352
sg15
g16
sg17
V10
p353
sg19
g20
sbag1
(g2
g3
Ntp354
Rp355
(dp356
g7
V280
p357
sg9
VRalts
p358
sg11
VSw,Sh,
p359
sg13
VGrass
p360
sg15
g16
sg17
V10
p361
sg19
g20
sbag1
(g2
g3
Ntp362
Rp363
(dp364
g7
V309
p365
sg9
VElectrike
p366
sg11
VSw,Sh,
p367
sg13
VGrass
p368
sg15
g16
sg17
V10
p369
sg19
g20
sbag1
(g2
g3
Ntp370
Rp371
(dp372
g7
V343
p373
sg9
VBaltoy
p374
sg11
VSw,Sh,
p375
sg13
VGrass
p376
sg15
g16
sg17
V10
p377
sg19
g20
sbag1
(g2
g3
Ntp378
Rp379
(dp380
g7
V415
p381
sg9
VCombee
p382
sg11
VSw,Sh,
p383
sg13
VGrass
p384
sg15
g16
sg17
V10
p385
sg19
g20
sbag1
(g2
g3
Ntp386
Rp387
(dp388
g7
V582
p389
sg9
VVanillite
p390
sg11
VSw,Sh,
p391
sg13
VGrass
p392
sg15
g16
sg17
V10
p393
sg19
g20
sbag1
(g2
g3
Ntp394
Rp395
(dp396
g7
V659
p397
sg9
VBunnelby
p398
sg11
VSw,Sh,
p399
sg13
VGrass
p400
sg15
g16
sg17
V10
p401
sg19
g20
sbag1
(g2
g3
Ntp402
Rp403
(dp404
g7
V011
p405
sg9
VMetapod
p406
sg11
VSw,Sh,
p407
sg13
VGrass
p408
sg15
g16
sg17
V10
p409
sg19
V10
p410
sbag1
(g2
g3
Ntp411
Rp412
(dp413
g7
V037
p414
sg9
VVulpix
p415
sg11
g12
sg13
VGrass
p416
sg15
g16
sg17
V10
p417
sg19
g20
sbag1
(g2
g3
Ntp418
Rp419
(dp420
g7
V058
p421
sg9
VGrowlithe
p422
sg11
g26
sg13
VGrass
p423
sg15
g16
sg17
V10
p424
sg19
g20
sbag1
(g2
g3
Ntp425
Rp426
(dp427
g7
V236
p428
sg9
VTyrogue
p429
sg11
VSw,Sh,
p430
sg13
VGrass
p431
sg15
g16
sg17
V10
p432
sg19
g20
sbag1
(g2
g3
Ntp433
Rp434
(dp435
g7
V278
p436
sg9
VWingull
p437
sg11
VSw,Sh,
p438
sg13
VGrass
p439
sg15
g16
sg17
V10
p440
sg19
g20
sbag1
(g2
g3
Ntp441
Rp442
(dp443
g7
V280
p444
sg9
VRalts
p445
sg11
VSw,Sh,
p446
sg13
VGrass
p447
sg15
g16
sg17
V10
p448
sg19
g20
sbag1
(g2
g3
Ntp449
Rp450
(dp451
g7
V309
p452
sg9
VElectrike
p453
sg11
VSw,Sh,
p454
sg13
VGrass
p455
sg15
g16
sg17
V10
p456
sg19
g20
sbag1
(g2
g3
Ntp457
Rp458
(dp459
g7
V343
p460
sg9
VBaltoy
p461
sg11
VSw,Sh,
p462
sg13
VGrass
p463
sg15
g16
sg17
V10
p464
sg19
g20
sbag1
(g2
g3
Ntp465
Rp466
(dp467
g7
V415
p468
sg9
VCombee
p469
sg11
VSw,Sh,
p470
sg13
VGrass
p471
sg15
g16
sg17
V10
p472
sg19
g20
sbag1
(g2
g3
Ntp473
Rp474
(dp475
g7
V582
p476
sg9
VVanillite
p477
sg11
VSw,Sh,
p478
sg13
VGrass
p479
sg15
g16
sg17
V10
p480
sg19
g20
sbag1
(g2
g3
Ntp481
Rp482
(dp483
g7
V674
p484
sg9
VPancham
p485
sg11
VSw,Sh,
p486
sg13
VGrass
p487
sg15
g16
sg17
V10
p488
sg19
V60
p489
sbag1
(g2
g3
Ntp490
Rp491
(dp492
g7
V050
p493
sg9
VDiglett
p494
sg11
VSw,Sh,
p495
sg13
VDirt
p496
sg15
V8
p497
sg17
V10
p498
sg19
g20
sbag1
(g2
g3
Ntp499
Rp500
(dp501
g7
V524
p502
sg9
VRoggenrola
p503
sg11
VSw,Sh,
p504
sg13
VDirt
p505
sg15
g497
sg17
V10
p506
sg19
g20
sbag1
(g2
g3
Ntp507
Rp508
(dp509
g7
V012
p510
sg9
VButterfree
p511
sg11
VSw,Sh,
p512
sg13
VFlying
p513
sg15
g16
sg17
V10
p514
sg19
g20
sbag1
(g2
g3
Ntp515
Rp516
(dp517
g7
V519
p518
sg9
VPidove
p519
sg11
VSw,Sh,
p520
sg13
VFlying
p521
sg15
g16
sg17
V10
p522
sg19
g20
sbag1
(g2
g3
Ntp523
Rp524
(dp525
g7
V095
p526
sg9
VOnix
p527
sg11
VSw,Sh,
p528
sg13
VWanderer
p529
sg15
V26
p530
sg17
g530
sg19
V0
p531
sbag1
(g2
g3
Ntp532
Rp533
(dp534
g7
V279
p535
sg9
VPelipper
p536
sg11
VSw,Sh,
p537
sg13
VWanderer
p538
sg15
V26
p539
sg17
g539
sg19
g20
sbag1
(g2
g3
Ntp540
Rp541
(dp542
g7
V281
p543
sg9
VKirlia
p544
sg11
VSw,Sh,
p545
sg13
VWanderer
p546
sg15
V26
p547
sg17
g547
sg19
g20
sbag1
(g2
g3
Ntp548
Rp549
(dp550
g7
V310
p551
sg9
VManectric
p552
sg11
VSw,Sh,
p553
sg13
VWanderer
p554
sg15
V26
p555
sg17
g555
sg19
g20
sbag1
(g2
g3
Ntp556
Rp557
(dp558
g7
V416
p559
sg9
VVespiquen
p560
sg11
VSw,Sh,
p561
sg13
VWanderer
p562
sg15
V26
p563
sg17
g563
sg19
g20
sbag1
(g2
g3
Ntp564
Rp565
(dp566
g7
V660
p567
sg9
VDiggersby
p568
sg11
VSw,Sh,
p569
sg13
VWanderer
p570
sg15
V26
p571
sg17
g571
sg19
g20
sbag1
(g2
g3
Ntp572
Rp573
(dp574
g7
V291
p575
sg9
VNinjask
p576
sg11
VSw,Sh,
p577
sg13
VWanderer
p578
sg15
V15
p579
sg17
g579
sg19
V0
p580
sbag1
(g2
g3
Ntp581
Rp582
(dp583
g7
V025
p584
sg9
VPikachu
p585
sg11
VSw,Sh,
p586
sg13
VWanderer
p587
sg15
V15
p588
sg17
g588
sg19
g20
sbag1
(g2
g3
Ntp589
Rp590
(dp591
g7
V315
p592
sg9
VRoselia
p593
sg11
VSw,Sh,
p594
sg13
VWanderer
p595
sg15
V15
p596
sg17
g596
sg19
g20
sbag1
(g2
g3
Ntp597
Rp598
(dp599
g7
V439
p600
sg9
VMime Jr.
p601
sg11
VSw,Sh,
p602
sg13
VWanderer
p603
sg15
V15
p604
sg17
g604
sg19
g20
sbag1
(g2
g3
Ntp605
Rp606
(dp607
g7
V221
p608
sg9
VPiloswine
p609
sg11
VSw,Sh,
p610
sg13
VWanderer
p611
sg15
V33
p612
sg17
g612
sg19
g20
sbag1
(g2
g3
Ntp613
Rp614
(dp615
g7
V282
p616
sg9
VGardevoir
p617
sg11
VSw,Sh,
p618
sg13
VWanderer
p619
sg15
V32
p620
sg17
g620
sg19
g20
sbag1
(g2
g3
Ntp621
Rp622
(dp623
g7
V558
p624
sg9
VCrustle
p625
sg11
VSw,Sh,
p626
sg13
VWanderer
p627
sg15
V34
p628
sg17
g628
sg19
g20
sbag1
(g2
g3
Ntp629
Rp630
(dp631
g7
V675
p632
sg9
VPangoro
p633
sg11
VSw,Sh,
p634
sg13
VWanderer
p635
sg15
V32
p636
sg17
g636
sg19
g20
sbag1
(g2
g3
Ntp637
Rp638
(dp639
g7
V660
p640
sg9
VDiggersby
p641
sg11
VSw,Sh,
p642
sg13
VWanderer
p643
sg15
V15
p644
sg17
g644
sg19
V0
p645
sbag1
(g2
g3
Ntp646
Rp647
(dp648
g7
V832
p649
sg9
VDubwool
p650
sg11
VSw,Sh,
p651
sg13
VWanderer
p652
sg15
V65
p653
sg17
g653
sg19
V0
p654
sbag1
(g2
g3
Ntp655
Rp656
(dp657
g7
V093
p658
sg9
VHaunter
p659
sg11
VSw,Sh,
p660
sg13
VWanderer
p661
sg15
V31
p662
sg17
g662
sg19
g20
sbag1
(g2
g3
Ntp663
Rp664
(dp665
g7
V221
p666
sg9
VPiloswine
p667
sg11
VSw,Sh,
p668
sg13
VWanderer
p669
sg15
V33
p670
sg17
g670
sg19
g20
sbag1
(g2
g3
Ntp671
Rp672
(dp673
g7
V750
p674
sg9
VMudsdale
p675
sg11
VSw,Sh,
p676
sg13
VWanderer
p677
sg15
V31
p678
sg17
g678
sg19
g20
sba.