(lp0
ccopy_reg
_reconstructor
p1
(c__main__
WildPokemon
p2
c__builtin__
object
p3
Ntp4
Rp5
(dp6
VpDexNo
p7
V021
p8
sVpSpecies
p9
VSpearow
p10
sVpGames
p11
VFR,LG,
p12
sVpArea
p13
VGrass
p14
sVpMinLevel
p15
V44
p16
sVpMaxLevel
p17
g16
sVpRate
p18
V20
p19
sbag1
(g2
g3
Ntp20
Rp21
(dp22
g7
V022
p23
sg9
VFearow
p24
sg11
VFR,LG,
p25
sg13
VGrass
p26
sg15
V49
p27
sg17
g27
sg18
V10
p28
sbag1
(g2
g3
Ntp29
Rp30
(dp31
g7
V052
p32
sg9
VMeowth
p33
sg11
VFR,LG,
p34
sg13
VGrass
p35
sg15
V43
p36
sg17
g36
sg18
V10
p37
sbag1
(g2
g3
Ntp38
Rp39
(dp40
g7
V053
p41
sg9
VPersian
p42
sg11
VFR,LG,
p43
sg13
VGrass
p44
sg15
V49
p45
sg17
V52
p46
sg18
V5
p47
sbag1
(g2
g3
Ntp48
Rp49
(dp50
g7
V054
p51
sg9
VPsyduck
p52
sg11
VFR,
p53
sg13
VGrass
p54
sg15
V41
p55
sg17
g55
sg18
V5
p56
sbag1
(g2
g3
Ntp57
Rp58
(dp59
g7
V079
p60
sg9
VSlowpoke
p61
sg11
VLG,
p62
sg13
VGrass
p63
sg15
V41
p64
sg17
g64
sg18
V5
p65
sbag1
(g2
g3
Ntp66
Rp67
(dp68
g7
V177
p69
sg9
VNatu
p70
sg11
VFR,LG,
p71
sg13
VGrass
p72
sg15
V15
p73
sg17
V20
p74
sg18
V25
p75
sbag1
(g2
g3
Ntp76
Rp77
(dp78
g7
V183
p79
sg9
VMarill
p80
sg11
g62
sg13
VGrass
p81
sg15
V15
p82
sg17
g82
sg18
V10
p83
sbag1
(g2
g3
Ntp84
Rp85
(dp86
g7
V193
p87
sg9
VYanma
p88
sg11
VFR,LG,
p89
sg13
VGrass
p90
sg15
V18
p91
sg17
g91
sg18
V10
p92
sbag1
(g2
g3
Ntp93
Rp94
(dp95
g7
V194
p96
sg9
VWooper
p97
sg11
g53
sg13
VGrass
p98
sg15
V15
p99
sg17
g99
sg18
V10
p100
sbag1
(g2
g3
Ntp101
Rp102
(dp103
g7
V202
p104
sg9
VWobbuffet
p105
sg11
VFR,LG,
p106
sg13
VGrass
p107
sg15
V25
p108
sg17
g108
sg18
V5
p109
sbag1
(g2
g3
Ntp110
Rp111
(dp112
g7
V183
p113
sg9
VMarill
p114
sg11
g62
sg13
VSurf
p115
sg15
V5
p116
sg17
V25
p117
sg18
V100
p118
sbag1
(g2
g3
Ntp119
Rp120
(dp121
g7
V194
p122
sg9
VWooper
p123
sg11
g53
sg13
VSurf
p124
sg15
g116
sg17
V25
p125
sg18
V100
p126
sbag1
(g2
g3
Ntp127
Rp128
(dp129
g7
V129
p130
sg9
VMagikarp
p131
sg11
VFR,LG,
p132
sg13
VFish Old
p133
sg15
g116
sg17
g116
sg18
V100
p134
sbag1
(g2
g3
Ntp135
Rp136
(dp137
g7
V060
p138
sg9
VPoliwag
p139
sg11
VFR,LG,
p140
sg13
VFish Good
p141
sg15
g116
sg17
V15
p142
sg18
V60
p143
sbag1
(g2
g3
Ntp144
Rp145
(dp146
g7
V118
p147
sg9
VGoldeen
p148
sg11
VFR,LG,
p149
sg13
VFish Good
p150
sg15
g116
sg17
V15
p151
sg18
V20
p152
sbag1
(g2
g3
Ntp153
Rp154
(dp155
g7
V129
p156
sg9
VMagikarp
p157
sg11
VFR,LG,
p158
sg13
VFish Good
p159
sg15
g116
sg17
V15
p160
sg18
V20
p161
sbag1
(g2
g3
Ntp162
Rp163
(dp164
g7
V054
p165
sg9
VPsyduck
p166
sg11
g53
sg13
VFish Super
p167
sg15
V15
p168
sg17
V35
p169
sg18
V5
p170
sbag1
(g2
g3
Ntp171
Rp172
(dp173
g7
V060
p174
sg9
VPoliwag
p175
sg11
VFR,LG,
p176
sg13
VFish Super
p177
sg15
V15
p178
sg17
V25
p179
sg18
V40
p180
sbag1
(g2
g3
Ntp181
Rp182
(dp183
g7
V061
p184
sg9
VPoliwhirl
p185
sg11
VFR,LG,
p186
sg13
VFish Super
p187
sg15
V20
p188
sg17
V30
p189
sg18
V40
p190
sbag1
(g2
g3
Ntp191
Rp192
(dp193
g7
V079
p194
sg9
VSlowpoke
p195
sg11
g62
sg13
VFish Super
p196
sg15
V15
p197
sg17
V35
p198
sg18
V5
p199
sbag1
(g2
g3
Ntp200
Rp201
(dp202
g7
V130
p203
sg9
VGyarados
p204
sg11
VFR,LG,
p205
sg13
VFish Super
p206
sg15
V15
p207
sg17
V25
p208
sg18
V15
p209
sba.