(lp0
ccopy_reg
_reconstructor
p1
(c__main__
WildPokemon
p2
c__builtin__
object
p3
Ntp4
Rp5
(dp6
VpDexNo
p7
V201
p8
sVpSpecies
p9
VUnown
p10
sVpGames
p11
VG,S,C,
p12
sVpArea
p13
VCave
p14
sVpMinLevel
p15
V5
p16
sVpMaxLevel
p17
g16
sVpRate
p18
V0
p19
sbag1
(g2
g3
Ntp20
Rp21
(dp22
g7
V177
p23
sg9
VNatu
p24
sg11
VG,S,C,
p25
sg13
VGrass
p26
sg15
V18
p27
sg17
V24
p28
sg18
V90
p29
sbag1
(g2
g3
Ntp30
Rp31
(dp32
g7
V194
p33
sg9
VWooper
p34
sg11
VC,
p35
sg13
VGrass
p36
sg15
V22
p37
sg17
g37
sg18
V5
p38
sbag1
(g2
g3
Ntp39
Rp40
(dp41
g7
V195
p42
sg9
VQuagsire
p43
sg11
g35
sg13
VGrass
p44
sg15
V22
p45
sg17
g45
sg18
V5
p46
sbag1
(g2
g3
Ntp47
Rp48
(dp49
g7
V235
p50
sg9
VSmeargle
p51
sg11
VG,S,
p52
sg13
VGrass
p53
sg15
V20
p54
sg17
V22
p55
sg18
V10
p56
sbag1
(g2
g3
Ntp57
Rp58
(dp59
g7
V235
p60
sg9
VSmeargle
p61
sg11
g35
sg13
VGrass
p62
sg15
V20
p63
sg17
V22
p64
sg18
V10
p65
sbag1
(g2
g3
Ntp66
Rp67
(dp68
g7
V194
p69
sg9
VWooper
p70
sg11
VG,S,C,
p71
sg13
VSurf
p72
sg15
V15
p73
sg17
V19
p74
sg18
V60
p75
sbag1
(g2
g3
Ntp76
Rp77
(dp78
g7
V195
p79
sg9
VQuagsire
p80
sg11
VG,S,C,
p81
sg13
VSurf
p82
sg15
V15
p83
sg17
V24
p84
sg18
V40
p85
sbag1
(g2
g3
Ntp86
Rp87
(dp88
g7
V060
p89
sg9
VPoliwag
p90
sg11
VG,S,C,
p91
sg13
VFish Old
p92
sg15
V10
p93
sg17
g93
sg18
V15
p94
sbag1
(g2
g3
Ntp95
Rp96
(dp97
g7
V129
p98
sg9
VMagikarp
p99
sg11
VG,S,C,
p100
sg13
VFish Old
p101
sg15
V10
p102
sg17
g102
sg18
V85
p103
sbag1
(g2
g3
Ntp104
Rp105
(dp106
g7
V060
p107
sg9
VPoliwag
p108
sg11
VG,S,C,
p109
sg13
VFish Good
p110
sg15
V20
p111
sg17
g111
sg18
V65
p112
sbag1
(g2
g3
Ntp113
Rp114
(dp115
g7
V129
p116
sg9
VMagikarp
p117
sg11
VG,S,C,
p118
sg13
VFish Good
p119
sg15
V20
p120
sg17
g120
sg18
V35
p121
sbag1
(g2
g3
Ntp122
Rp123
(dp124
g7
V060
p125
sg9
VPoliwag
p126
sg11
VG,S,C,
p127
sg13
VFish Super
p128
sg15
V40
p129
sg17
g129
sg18
V80
p130
sbag1
(g2
g3
Ntp131
Rp132
(dp133
g7
V129
p134
sg9
VMagikarp
p135
sg11
VG,S,C,
p136
sg13
VFish Super
p137
sg15
V40
p138
sg17
g138
sg18
V20
p139
sbag1
(g2
g3
Ntp140
Rp141
(dp142
g7
V201
p143
sg9
VUnown
p144
sg11
VHG,SS,
p145
sg13
VCave
p146
sg15
g16
sg17
g16
sg18
V0
p147
sbag1
(g2
g3
Ntp148
Rp149
(dp150
g7
V201
p151
sg9
VUnown
p152
sg11
VHG,SS,
p153
sg13
VCave
p154
sg15
g16
sg17
g16
sg18
V50
p155
sbag1
(g2
g3
Ntp156
Rp157
(dp158
g7
V201
p159
sg9
VUnown
p160
sg11
VHG,SS,
p161
sg13
VCave
p162
sg15
g16
sg17
g16
sg18
V50
p163
sbag1
(g2
g3
Ntp164
Rp165
(dp166
g7
V177
p167
sg9
VNatu
p168
sg11
VHG,SS,
p169
sg13
VGrass
p170
sg15
V18
p171
sg17
V24
p172
sg18
V90
p173
sbag1
(g2
g3
Ntp174
Rp175
(dp176
g7
V235
p177
sg9
VSmeargle
p178
sg11
VHG,SS,
p179
sg13
VGrass
p180
sg15
V20
p181
sg17
V22
p182
sg18
V10
p183
sbag1
(g2
g3
Ntp184
Rp185
(dp186
g7
V194
p187
sg9
VWooper
p188
sg11
VHG,SS,
p189
sg13
VSurf
p190
sg15
V10
p191
sg17
V20
p192
sg18
V60
p193
sbag1
(g2
g3
Ntp194
Rp195
(dp196
g7
V195
p197
sg9
VQuagsire
p198
sg11
VHG,SS,
p199
sg13
VSurf
p200
sg15
V10
p201
sg17
V25
p202
sg18
V40
p203
sbag1
(g2
g3
Ntp204
Rp205
(dp206
g7
V060
p207
sg9
VPoliwag
p208
sg11
VHG,SS,
p209
sg13
VFish Old
p210
sg15
V10
p211
sg17
g211
sg18
V15
p212
sbag1
(g2
g3
Ntp213
Rp214
(dp215
g7
V129
p216
sg9
VMagikarp
p217
sg11
VHG,SS,
p218
sg13
VFish Old
p219
sg15
V10
p220
sg17
g220
sg18
V85
p221
sbag1
(g2
g3
Ntp222
Rp223
(dp224
g7
V060
p225
sg9
VPoliwag
p226
sg11
VHG,SS,
p227
sg13
VFish Good
p228
sg15
V20
p229
sg17
g229
sg18
V40
p230
sbag1
(g2
g3
Ntp231
Rp232
(dp233
g7
V129
p234
sg9
VMagikarp
p235
sg11
VHG,SS,
p236
sg13
VFish Good
p237
sg15
V20
p238
sg17
g238
sg18
V60
p239
sbag1
(g2
g3
Ntp240
Rp241
(dp242
g7
V060
p243
sg9
VPoliwag
p244
sg11
VHG,SS,
p245
sg13
VFish Super
p246
sg15
V40
p247
sg17
g247
sg18
V80
p248
sbag1
(g2
g3
Ntp249
Rp250
(dp251
g7
V129
p252
sg9
VMagikarp
p253
sg11
VHG,SS,
p254
sg13
VFish Super
p255
sg15
V40
p256
sg17
g256
sg18
V20
p257
sbag1
(g2
g3
Ntp258
Rp259
(dp260
g7
V074
p261
sg9
VGeodude
p262
sg11
VHG,SS,
p263
sg13
VRock Smash
p264
sg15
V3
p265
sg17
V14
p266
sg18
V100
p267
sbag1
(g2
g3
Ntp268
Rp269
(dp270
g7
V264
p271
sg9
VLinoone
p272
sg11
VHG,SS,
p273
sg13
VHoenn
p274
sg15
V18
p275
sg17
g275
sg18
V20
p276
sbag1
(g2
g3
Ntp277
Rp278
(dp279
g7
V293
p280
sg9
VWhismur
p281
sg11
VHG,SS,
p282
sg13
VHoenn
p283
sg15
V20
p284
sg17
V22
p285
sg18
V20
p286
sbag1
(g2
g3
Ntp287
Rp288
(dp289
g7
V399
p290
sg9
VBidoof
p291
sg11
VHG,SS,
p292
sg13
VSinnoh
p293
sg15
V18
p294
sg17
g294
sg18
V20
p295
sbag1
(g2
g3
Ntp296
Rp297
(dp298
g7
V418
p299
sg9
VBuizel
p300
sg11
VHG,SS,
p301
sg13
VSinnoh
p302
sg15
V20
p303
sg17
V22
p304
sg18
V20
p305
sba.