(lp0
ccopy_reg
_reconstructor
p1
(c__main__
WildPokemon
p2
c__builtin__
object
p3
Ntp4
Rp5
(dp6
VpDexNo
p7
V293
p8
sVpSpecies
p9
VWhismur
p10
sVpGames
p11
VRu,S,E,
p12
sVpArea
p13
VCave
p14
sVpMinLevel
p15
V5
p16
sVpMaxLevel
p17
V8
p18
sVpRate
p19
V100
p20
sbag1
(g2
g3
Ntp21
Rp22
(dp23
g7
V293
p24
sg9
VWhismur
p25
sg11
VOR,AS,
p26
sg13
VCave
p27
sg15
V7
p28
sg17
V10
p29
sg19
V100
p30
sbag1
(g2
g3
Ntp31
Rp32
(dp33
g7
V293
p34
sg9
VWhismur
p35
sg11
VOR,AS,
p36
sg13
VHorde Encounter
p37
sg15
g16
sg17
g16
sg19
V100
p38
sbag1
(g2
g3
Ntp39
Rp40
(dp41
g7
V074
p42
sg9
VGeodude
p43
sg11
VOR,AS,
p44
sg13
VRock Smash
p45
sg15
V14
p46
sg17
V17
p47
sg19
V100
p48
sba.