(lp0
ccopy_reg
_reconstructor
p1
(c__main__
WildPokemon
p2
c__builtin__
object
p3
Ntp4
Rp5
(dp6
VpDexNo
p7
V102
p8
sVpSpecies
p9
VExeggcute
p10
sVpGames
p11
VHG,SS,
p12
sVpArea
p13
VHeadbutt
p14
sVpMinLevel
p15
V15
p16
sVpMaxLevel
p17
V18
p18
sVpRate
p19
V20
p20
sbag1
(g2
g3
Ntp21
Rp22
(dp23
g7
V163
p24
sg9
VHoothoot
p25
sg11
VHG,SS,
p26
sg13
VHeadbutt
p27
sg15
V15
p28
sg17
V18
p29
sg19
V50
p30
sbag1
(g2
g3
Ntp31
Rp32
(dp33
g7
V165
p34
sg9
VLedyba
p35
sg11
VSS,
p36
sg13
VHeadbutt
p37
sg15
V15
p38
sg17
V18
p39
sg19
V30
p40
sbag1
(g2
g3
Ntp41
Rp42
(dp43
g7
V167
p44
sg9
VSpinarak
p45
sg11
VHG,
p46
sg13
VHeadbutt
p47
sg15
V15
p48
sg17
V18
p49
sg19
V30
p50
sbag1
(g2
g3
Ntp51
Rp52
(dp53
g7
V204
p54
sg9
VPineco
p55
sg11
VHG,SS,
p56
sg13
VHeadbutt
p57
sg15
V15
p58
sg17
V16
p59
sg19
V30
p60
sba.