(lp0
ccopy_reg
_reconstructor
p1
(c__main__
WildPokemon
p2
c__builtin__
object
p3
Ntp4
Rp5
(dp6
VpDexNo
p7
V041
p8
sVpSpecies
p9
VZubat
p10
sVpGames
p11
VUS,UM,
p12
sVpArea
p13
VCave
p14
sVpMinLevel
p15
V6
p16
sVpMaxLevel
p17
V9
p18
sVpRate
p19
V70
p20
sbag1
(g2
g3
Ntp21
Rp22
(dp23
g7
V054
p24
sg9
VPsyduck
p25
sg11
VUS,UM,
p26
sg13
VCave
p27
sg15
g16
sg17
g18
sg19
V30
p28
sbag1
(g2
g3
Ntp29
Rp30
(dp31
g7
V041
p32
sg9
VZubat
p33
sg11
VUS,UM,
p34
sg13
VSurf
p35
sg15
g16
sg17
g18
sg19
V70
p36
sbag1
(g2
g3
Ntp37
Rp38
(dp39
g7
V054
p40
sg9
VPsyduck
p41
sg11
VUS,UM,
p42
sg13
VSurf
p43
sg15
g16
sg17
g18
sg19
V30
p44
sba.