(lp0
ccopy_reg
_reconstructor
p1
(c__main__
WildPokemon
p2
c__builtin__
object
p3
Ntp4
Rp5
(dp6
VpDexNo
p7
V010
p8
sVpSpecies
p9
VCaterpie
p10
sVpGames
p11
VY,
p12
sVpArea
p13
VGrass
p14
sVpMinLevel
p15
V2
p16
sVpMaxLevel
p17
V3
p18
sVpRate
p19
V20
p20
sbag1
(g2
g3
Ntp21
Rp22
(dp23
g7
V010
p24
sg9
VCaterpie
p25
sg11
VX,
p26
sg13
VGrass
p27
sg15
g16
sg17
g16
sg19
V10
p28
sbag1
(g2
g3
Ntp29
Rp30
(dp31
g7
V011
p32
sg9
VMetapod
p33
sg11
g12
sg13
VGrass
p34
sg15
V4
p35
sg17
g35
sg19
V4
p36
sbag1
(g2
g3
Ntp37
Rp38
(dp39
g7
V013
p40
sg9
VWeedle
p41
sg11
g26
sg13
VGrass
p42
sg15
g16
sg17
g18
sg19
V20
p43
sbag1
(g2
g3
Ntp44
Rp45
(dp46
g7
V013
p47
sg9
VWeedle
p48
sg11
g12
sg13
VGrass
p49
sg15
g16
sg17
g16
sg19
V10
p50
sbag1
(g2
g3
Ntp51
Rp52
(dp53
g7
V014
p54
sg9
VKakuna
p55
sg11
g26
sg13
VGrass
p56
sg15
g35
sg17
g35
sg19
V4
p57
sbag1
(g2
g3
Ntp58
Rp59
(dp60
g7
V025
p61
sg9
VPikachu
p62
sg11
VX,Y,
p63
sg13
VGrass
p64
sg15
g18
sg17
g35
sg19
V6
p65
sbag1
(g2
g3
Ntp66
Rp67
(dp68
g7
V511
p69
sg9
VPansage
p70
sg11
VX,Y,
p71
sg13
VGrass
p72
sg15
g35
sg17
g35
sg19
V10
p73
sbag1
(g2
g3
Ntp74
Rp75
(dp76
g7
V513
p77
sg9
VPansear
p78
sg11
VX,Y,
p79
sg13
VGrass
p80
sg15
g35
sg17
g35
sg19
V10
p81
sbag1
(g2
g3
Ntp82
Rp83
(dp84
g7
V515
p85
sg9
VPanpour
p86
sg11
VX,Y,
p87
sg13
VGrass
p88
sg15
g35
sg17
g35
sg19
V10
p89
sbag1
(g2
g3
Ntp90
Rp91
(dp92
g7
V661
p93
sg9
VFletchling
p94
sg11
VX,Y,
p95
sg13
VGrass
p96
sg15
g35
sg17
g35
sg19
V10
p97
sbag1
(g2
g3
Ntp98
Rp99
(dp100
g7
V664
p101
sg9
VScatterbug
p102
sg11
VX,Y,
p103
sg13
VGrass
p104
sg15
g16
sg17
g18
sg19
V20
p105
sba.