(lp0
ccopy_reg
_reconstructor
p1
(c__main__
WildPokemon
p2
c__builtin__
object
p3
Ntp4
Rp5
(dp6
VpDexNo
p7
V042
p8
sVpSpecies
p9
VGolbat
p10
sVpGames
p11
VOR,AS,
p12
sVpArea
p13
VCave
p14
sVpMinLevel
p15
V26
p16
sVpMaxLevel
p17
V29
p18
sVpRate
p19
V100
p20
sbag1
(g2
g3
Ntp21
Rp22
(dp23
g7
V041
p24
sg9
VZubat
p25
sg11
VOR,AS,
p26
sg13
VSurf
p27
sg15
V20
p28
sg17
g28
sg19
V50
p29
sbag1
(g2
g3
Ntp30
Rp31
(dp32
g7
V042
p33
sg9
VGolbat
p34
sg11
VOR,AS,
p35
sg13
VSurf
p36
sg15
V25
p37
sg17
V30
p38
sg19
V50
p39
sbag1
(g2
g3
Ntp40
Rp41
(dp42
g7
V118
p43
sg9
VGoldeen
p44
sg11
VOR,AS,
p45
sg13
VFish Old
p46
sg15
V5
p47
sg17
g47
sg19
V35
p48
sbag1
(g2
g3
Ntp49
Rp50
(dp51
g7
V129
p52
sg9
VMagikarp
p53
sg11
VOR,AS,
p54
sg13
VFish Old
p55
sg15
V10
p56
sg17
V15
p57
sg19
V65
p58
sbag1
(g2
g3
Ntp59
Rp60
(dp61
g7
V118
p62
sg9
VGoldeen
p63
sg11
VOR,AS,
p64
sg13
VFish Good
p65
sg15
V25
p66
sg17
g66
sg19
V35
p67
sbag1
(g2
g3
Ntp68
Rp69
(dp70
g7
V129
p71
sg9
VMagikarp
p72
sg11
VOR,AS,
p73
sg13
VFish Good
p74
sg15
V25
p75
sg17
g75
sg19
V60
p76
sbag1
(g2
g3
Ntp77
Rp78
(dp79
g7
V339
p80
sg9
VBarboach
p81
sg11
VOR,AS,
p82
sg13
VFish Good
p83
sg15
V25
p84
sg17
g84
sg19
V5
p85
sbag1
(g2
g3
Ntp86
Rp87
(dp88
g7
V339
p89
sg9
VBarboach
p90
sg11
VOR,AS,
p91
sg13
VFish Super
p92
sg15
V30
p93
sg17
V40
p94
sg19
V100
p95
sbag1
(g2
g3
Ntp96
Rp97
(dp98
g7
V042
p99
sg9
VGolbat
p100
sg11
VOR,AS,
p101
sg13
VCave
p102
sg15
V26
p103
sg17
V29
p104
sg19
V100
p105
sbag1
(g2
g3
Ntp106
Rp107
(dp108
g7
V041
p109
sg9
VZubat
p110
sg11
VOR,AS,
p111
sg13
VHorde Encounter
p112
sg15
V14
p113
sg17
g113
sg19
V100
p114
sbag1
(g2
g3
Ntp115
Rp116
(dp117
g7
V041
p118
sg9
VZubat
p119
sg11
VOR,AS,
p120
sg13
VSurf
p121
sg15
V20
p122
sg17
g122
sg19
V50
p123
sbag1
(g2
g3
Ntp124
Rp125
(dp126
g7
V042
p127
sg9
VGolbat
p128
sg11
VOR,AS,
p129
sg13
VSurf
p130
sg15
V25
p131
sg17
V30
p132
sg19
V50
p133
sbag1
(g2
g3
Ntp134
Rp135
(dp136
g7
V118
p137
sg9
VGoldeen
p138
sg11
VOR,AS,
p139
sg13
VFish Old
p140
sg15
g47
sg17
g47
sg19
V35
p141
sbag1
(g2
g3
Ntp142
Rp143
(dp144
g7
V129
p145
sg9
VMagikarp
p146
sg11
VOR,AS,
p147
sg13
VFish Old
p148
sg15
V10
p149
sg17
g149
sg19
V65
p150
sbag1
(g2
g3
Ntp151
Rp152
(dp153
g7
V118
p154
sg9
VGoldeen
p155
sg11
VOR,AS,
p156
sg13
VFish Good
p157
sg15
V25
p158
sg17
g158
sg19
V35
p159
sbag1
(g2
g3
Ntp160
Rp161
(dp162
g7
V129
p163
sg9
VMagikarp
p164
sg11
VOR,AS,
p165
sg13
VFish Good
p166
sg15
V25
p167
sg17
g167
sg19
V60
p168
sbag1
(g2
g3
Ntp169
Rp170
(dp171
g7
V339
p172
sg9
VBarboach
p173
sg11
VOR,AS,
p174
sg13
VFish Good
p175
sg15
V25
p176
sg17
g176
sg19
V5
p177
sbag1
(g2
g3
Ntp178
Rp179
(dp180
g7
V339
p181
sg9
VBarboach
p182
sg11
VOR,AS,
p183
sg13
VFish Super
p184
sg15
V30
p185
sg17
V40
p186
sg19
V100
p187
sbag1
(g2
g3
Ntp188
Rp189
(dp190
g7
V042
p191
sg9
VGolbat
p192
sg11
VOR,AS,
p193
sg13
VCave
p194
sg15
V26
p195
sg17
V29
p196
sg19
V100
p197
sbag1
(g2
g3
Ntp198
Rp199
(dp200
g7
V041
p201
sg9
VZubat
p202
sg11
VOR,AS,
p203
sg13
VHorde Encounter
p204
sg15
V14
p205
sg17
g205
sg19
V100
p206
sbag1
(g2
g3
Ntp207
Rp208
(dp209
g7
V042
p210
sg9
VGolbat
p211
sg11
VOR,AS,
p212
sg13
VCave
p213
sg15
V26
p214
sg17
V29
p215
sg19
V100
p216
sbag1
(g2
g3
Ntp217
Rp218
(dp219
g7
V041
p220
sg9
VZubat
p221
sg11
VOR,AS,
p222
sg13
VHorde Encounter
p223
sg15
V14
p224
sg17
g224
sg19
V100
p225
sbag1
(g2
g3
Ntp226
Rp227
(dp228
g7
V485
p229
sg9
VHeatran
p230
sg11
VOR,AS,
p231
sg13
VSpecial
p232
sg15
V50
p233
sg17
g233
sg19
V0
p234
sba.