(lp0
ccopy_reg
_reconstructor
p1
(c__main__
WildPokemon
p2
c__builtin__
object
p3
Ntp4
Rp5
(dp6
VpDexNo
p7
V072
p8
sVpSpecies
p9
VTentacool
p10
sVpGames
p11
VOR,AS,
p12
sVpArea
p13
VSurf
p14
sVpMinLevel
p15
V15
p16
sVpMaxLevel
p17
V20
p18
sVpRate
p19
V65
p20
sbag1
(g2
g3
Ntp21
Rp22
(dp23
g7
V278
p24
sg9
VWingull
p25
sg11
VOR,AS,
p26
sg13
VSurf
p27
sg15
V15
p28
sg17
V20
p29
sg19
V34
p30
sbag1
(g2
g3
Ntp31
Rp32
(dp33
g7
V279
p34
sg9
VPelipper
p35
sg11
VOR,AS,
p36
sg13
VSurf
p37
sg15
V25
p38
sg17
g38
sg19
V1
p39
sbag1
(g2
g3
Ntp40
Rp41
(dp42
g7
V072
p43
sg9
VTentacool
p44
sg11
VOR,AS,
p45
sg13
VFish Old
p46
sg15
V5
p47
sg17
g47
sg19
V35
p48
sbag1
(g2
g3
Ntp49
Rp50
(dp51
g7
V129
p52
sg9
VMagikarp
p53
sg11
VOR,AS,
p54
sg13
VFish Old
p55
sg15
V10
p56
sg17
V15
p57
sg19
V65
p58
sbag1
(g2
g3
Ntp59
Rp60
(dp61
g7
V072
p62
sg9
VTentacool
p63
sg11
VOR,AS,
p64
sg13
VFish Good
p65
sg15
V25
p66
sg17
g66
sg19
V35
p67
sbag1
(g2
g3
Ntp68
Rp69
(dp70
g7
V129
p71
sg9
VMagikarp
p72
sg11
VOR,AS,
p73
sg13
VFish Good
p74
sg15
V25
p75
sg17
g75
sg19
V60
p76
sbag1
(g2
g3
Ntp77
Rp78
(dp79
g7
V320
p80
sg9
VWailmer
p81
sg11
VOR,AS,
p82
sg13
VFish Good
p83
sg15
V25
p84
sg17
g84
sg19
V5
p85
sbag1
(g2
g3
Ntp86
Rp87
(dp88
g7
V320
p89
sg9
VWailmer
p90
sg11
VOR,AS,
p91
sg13
VFish Super
p92
sg15
V30
p93
sg17
V40
p94
sg19
V100
p95
sbag1
(g2
g3
Ntp96
Rp97
(dp98
g7
V250
p99
sg9
VHo-Oh
p100
sg11
VOR,
p101
sg13
VSpecial
p102
sg15
V50
p103
sg17
g103
sg19
V0
p104
sbag1
(g2
g3
Ntp105
Rp106
(dp107
g7
V072
p108
sg9
VTentacool
p109
sg11
VOR,AS,
p110
sg13
VSurf
p111
sg15
V15
p112
sg17
V25
p113
sg19
V100
p114
sbag1
(g2
g3
Ntp115
Rp116
(dp117
g7
V072
p118
sg9
VTentacool
p119
sg11
VOR,AS,
p120
sg13
VFish Old
p121
sg15
g47
sg17
g47
sg19
V35
p122
sbag1
(g2
g3
Ntp123
Rp124
(dp125
g7
V129
p126
sg9
VMagikarp
p127
sg11
VOR,AS,
p128
sg13
VFish Old
p129
sg15
V10
p130
sg17
V15
p131
sg19
V65
p132
sbag1
(g2
g3
Ntp133
Rp134
(dp135
g7
V072
p136
sg9
VTentacool
p137
sg11
VOR,AS,
p138
sg13
VFish Good
p139
sg15
V25
p140
sg17
g140
sg19
V35
p141
sbag1
(g2
g3
Ntp142
Rp143
(dp144
g7
V129
p145
sg9
VMagikarp
p146
sg11
VOR,AS,
p147
sg13
VFish Good
p148
sg15
V25
p149
sg17
g149
sg19
V60
p150
sbag1
(g2
g3
Ntp151
Rp152
(dp153
g7
V320
p154
sg9
VWailmer
p155
sg11
VOR,AS,
p156
sg13
VFish Good
p157
sg15
V25
p158
sg17
g158
sg19
V5
p159
sbag1
(g2
g3
Ntp160
Rp161
(dp162
g7
V320
p163
sg9
VWailmer
p164
sg11
VOR,AS,
p165
sg13
VFish Super
p166
sg15
V30
p167
sg17
V40
p168
sg19
V100
p169
sbag1
(g2
g3
Ntp170
Rp171
(dp172
g7
V442
p173
sg9
VSpiritomb
p174
sg11
VOR,AS,
p175
sg13
VSpecial
p176
sg15
V50
p177
sg17
g177
sg19
V0
p178
sbag1
(g2
g3
Ntp179
Rp180
(dp181
g7
V249
p182
sg9
VLugia
p183
sg11
VAS,
p184
sg13
VSpecial
p185
sg15
V50
p186
sg17
g186
sg19
V0
p187
sba.