(lp0
ccopy_reg
_reconstructor
p1
(c__main__
WildPokemon
p2
c__builtin__
object
p3
Ntp4
Rp5
(dp6
VpDexNo
p7
V041
p8
sVpSpecies
p9
VZubat
p10
sVpGames
p11
VRu,S,E,
p12
sVpArea
p13
VCave
p14
sVpMinLevel
p15
V28
p16
sVpMaxLevel
p17
V35
p18
sVpRate
p19
V90
p20
sbag1
(g2
g3
Ntp21
Rp22
(dp23
g7
V042
p24
sg9
VGolbat
p25
sg11
VRu,S,E,
p26
sg13
VCave
p27
sg15
V33
p28
sg17
V36
p29
sg19
V10
p30
sbag1
(g2
g3
Ntp31
Rp32
(dp33
g7
V041
p34
sg9
VZubat
p35
sg11
VRu,S,E,
p36
sg13
VSurf
p37
sg15
V5
p38
sg17
V35
p39
sg19
V35
p40
sbag1
(g2
g3
Ntp41
Rp42
(dp43
g7
V042
p44
sg9
VGolbat
p45
sg11
VRu,S,E,
p46
sg13
VSurf
p47
sg15
V30
p48
sg17
V35
p49
sg19
V5
p50
sbag1
(g2
g3
Ntp51
Rp52
(dp53
g7
V072
p54
sg9
VTentacool
p55
sg11
VRu,S,E,
p56
sg13
VSurf
p57
sg15
g38
sg17
V35
p58
sg19
V60
p59
sbag1
(g2
g3
Ntp60
Rp61
(dp62
g7
V072
p63
sg9
VTentacool
p64
sg11
VRu,S,E,
p65
sg13
VFish Old
p66
sg15
g38
sg17
V10
p67
sg19
V30
p68
sbag1
(g2
g3
Ntp69
Rp70
(dp71
g7
V129
p72
sg9
VMagikarp
p73
sg11
VRu,S,E,
p74
sg13
VFish Old
p75
sg15
g38
sg17
V10
p76
sg19
V70
p77
sbag1
(g2
g3
Ntp78
Rp79
(dp80
g7
V072
p81
sg9
VTentacool
p82
sg11
VRu,S,E,
p83
sg13
VFish Good
p84
sg15
V10
p85
sg17
V30
p86
sg19
V20
p87
sbag1
(g2
g3
Ntp88
Rp89
(dp90
g7
V129
p91
sg9
VMagikarp
p92
sg11
VRu,S,E,
p93
sg13
VFish Good
p94
sg15
V10
p95
sg17
V30
p96
sg19
V60
p97
sbag1
(g2
g3
Ntp98
Rp99
(dp100
g7
V320
p101
sg9
VWailmer
p102
sg11
VRu,S,E,
p103
sg13
VFish Good
p104
sg15
V10
p105
sg17
V30
p106
sg19
V20
p107
sbag1
(g2
g3
Ntp108
Rp109
(dp110
g7
V320
p111
sg9
VWailmer
p112
sg11
VRu,S,E,
p113
sg13
VFish Super
p114
sg15
V20
p115
sg17
V45
p116
sg19
V100
p117
sbag1
(g2
g3
Ntp118
Rp119
(dp120
g7
V042
p121
sg9
VGolbat
p122
sg11
VOR,AS,
p123
sg13
VSurf
p124
sg15
V25
p125
sg17
V35
p126
sg19
V55
p127
sbag1
(g2
g3
Ntp128
Rp129
(dp130
g7
V073
p131
sg9
VTentacruel
p132
sg11
VOR,AS,
p133
sg13
VSurf
p134
sg15
V30
p135
sg17
V35
p136
sg19
V45
p137
sbag1
(g2
g3
Ntp138
Rp139
(dp140
g7
V072
p141
sg9
VTentacool
p142
sg11
VOR,AS,
p143
sg13
VFish Old
p144
sg15
V10
p145
sg17
g145
sg19
V35
p146
sbag1
(g2
g3
Ntp147
Rp148
(dp149
g7
V129
p150
sg9
VMagikarp
p151
sg11
VOR,AS,
p152
sg13
VFish Old
p153
sg15
g38
sg17
V10
p154
sg19
V65
p155
sbag1
(g2
g3
Ntp156
Rp157
(dp158
g7
V072
p159
sg9
VTentacool
p160
sg11
VOR,AS,
p161
sg13
VFish Good
p162
sg15
V30
p163
sg17
g163
sg19
V35
p164
sbag1
(g2
g3
Ntp165
Rp166
(dp167
g7
V129
p168
sg9
VMagikarp
p169
sg11
VOR,AS,
p170
sg13
VFish Good
p171
sg15
V30
p172
sg17
g172
sg19
V60
p173
sbag1
(g2
g3
Ntp174
Rp175
(dp176
g7
V320
p177
sg9
VWailmer
p178
sg11
VOR,AS,
p179
sg13
VFish Good
p180
sg15
V30
p181
sg17
g181
sg19
V5
p182
sbag1
(g2
g3
Ntp183
Rp184
(dp185
g7
V320
p186
sg9
VWailmer
p187
sg11
VOR,AS,
p188
sg13
VFish Super
p189
sg15
V30
p190
sg17
V40
p191
sg19
V100
p192
sbag1
(g2
g3
Ntp193
Rp194
(dp195
g7
V042
p196
sg9
VGolbat
p197
sg11
VOR,AS,
p198
sg13
VCave
p199
sg15
V33
p200
sg17
V36
p201
sg19
V100
p202
sbag1
(g2
g3
Ntp203
Rp204
(dp205
g7
V041
p206
sg9
VZubat
p207
sg11
VOR,AS,
p208
sg13
VHorde Encounter
p209
sg15
V18
p210
sg17
g210
sg19
V100
p211
sbag1
(g2
g3
Ntp212
Rp213
(dp214
g7
V075
p215
sg9
VGraveler
p216
sg11
VOR,AS,
p217
sg13
VRock Smash
p218
sg15
V33
p219
sg17
V36
p220
sg19
V100
p221
sbag1
(g2
g3
Ntp222
Rp223
(dp224
g7
V042
p225
sg9
VGolbat
p226
sg11
VOR,AS,
p227
sg13
VCave
p228
sg15
V33
p229
sg17
V36
p230
sg19
V100
p231
sbag1
(g2
g3
Ntp232
Rp233
(dp234
g7
V041
p235
sg9
VZubat
p236
sg11
VOR,AS,
p237
sg13
VHorde Encounter
p238
sg15
V18
p239
sg17
g239
sg19
V100
p240
sbag1
(g2
g3
Ntp241
Rp242
(dp243
g7
V042
p244
sg9
VGolbat
p245
sg11
VOR,AS,
p246
sg13
VSurf
p247
sg15
V25
p248
sg17
V35
p249
sg19
V35
p250
sbag1
(g2
g3
Ntp251
Rp252
(dp253
g7
V073
p254
sg9
VTentacruel
p255
sg11
VOR,AS,
p256
sg13
VSurf
p257
sg15
V25
p258
sg17
V30
p259
sg19
V65
p260
sbag1
(g2
g3
Ntp261
Rp262
(dp263
g7
V072
p264
sg9
VTentacool
p265
sg11
VOR,AS,
p266
sg13
VFish Old
p267
sg15
g38
sg17
g38
sg19
V35
p268
sbag1
(g2
g3
Ntp269
Rp270
(dp271
g7
V129
p272
sg9
VMagikarp
p273
sg11
VOR,AS,
p274
sg13
VFish Old
p275
sg15
V10
p276
sg17
g276
sg19
V65
p277
sbag1
(g2
g3
Ntp278
Rp279
(dp280
g7
V072
p281
sg9
VTentacool
p282
sg11
VOR,AS,
p283
sg13
VFish Good
p284
sg15
V25
p285
sg17
g285
sg19
V35
p286
sbag1
(g2
g3
Ntp287
Rp288
(dp289
g7
V129
p290
sg9
VMagikarp
p291
sg11
VOR,AS,
p292
sg13
VFish Good
p293
sg15
V25
p294
sg17
g294
sg19
V60
p295
sbag1
(g2
g3
Ntp296
Rp297
(dp298
g7
V320
p299
sg9
VWailmer
p300
sg11
VOR,AS,
p301
sg13
VFish Good
p302
sg15
V25
p303
sg17
g303
sg19
V5
p304
sbag1
(g2
g3
Ntp305
Rp306
(dp307
g7
V320
p308
sg9
VWailmer
p309
sg11
VOR,AS,
p310
sg13
VFish Super
p311
sg15
V30
p312
sg17
V40
p313
sg19
V100
p314
sbag1
(g2
g3
Ntp315
Rp316
(dp317
g7
V042
p318
sg9
VGolbat
p319
sg11
VOR,AS,
p320
sg13
VCave
p321
sg15
V33
p322
sg17
V36
p323
sg19
V100
p324
sbag1
(g2
g3
Ntp325
Rp326
(dp327
g7
V041
p328
sg9
VZubat
p329
sg11
VOR,AS,
p330
sg13
VHorde Encounter
p331
sg15
V18
p332
sg17
g332
sg19
V100
p333
sba.