(lp0
ccopy_reg
_reconstructor
p1
(c__main__
WildPokemon
p2
c__builtin__
object
p3
Ntp4
Rp5
(dp6
VpDexNo
p7
V129
p8
sVpSpecies
p9
VMagikarp
p10
sVpGames
p11
VSu,M,
p12
sVpArea
p13
VFish
p14
sVpMinLevel
p15
V10
p16
sVpMaxLevel
p17
V43
p18
sVpRate
p19
V79
p20
sbag1
(g2
g3
Ntp21
Rp22
(dp23
g7
V320
p24
sg9
VWailmer
p25
sg11
VSu,M,
p26
sg13
VFish
p27
sg15
V10
p28
sg17
V43
p29
sg19
V20
p30
sbag1
(g2
g3
Ntp31
Rp32
(dp33
g7
V781
p34
sg9
VDhelmise
p35
sg11
VSu,M,
p36
sg13
VFish
p37
sg15
V10
p38
sg17
V43
p39
sg19
V1
p40
sbag1
(g2
g3
Ntp41
Rp42
(dp43
g7
V129
p44
sg9
VMagikarp
p45
sg11
VSu,M,
p46
sg13
VFish
p47
sg15
V10
p48
sg17
V43
p49
sg19
V50
p50
sbag1
(g2
g3
Ntp51
Rp52
(dp53
g7
V320
p54
sg9
VWailmer
p55
sg11
VSu,M,
p56
sg13
VFish
p57
sg15
V10
p58
sg17
V43
p59
sg19
V40
p60
sbag1
(g2
g3
Ntp61
Rp62
(dp63
g7
V781
p64
sg9
VDhelmise
p65
sg11
VSu,M,
p66
sg13
VFish
p67
sg15
V10
p68
sg17
V43
p69
sg19
V10
p70
sbag1
(g2
g3
Ntp71
Rp72
(dp73
g7
V142
p74
sg9
VAerodactyl
p75
sg11
VSu,M,
p76
sg13
VGift
p77
sg15
V40
p78
sg17
g78
sg19
V0
p79
sbag1
(g2
g3
Ntp80
Rp81
(dp82
g7
V762
p83
sg9
VSteenee
p84
sg11
VSu,M,
p85
sg13
VTrade
p86
sg15
V43
p87
sg17
g87
sg19
V0
p88
sbag1
(g2
g3
Ntp89
Rp90
(dp91
g7
V129
p92
sg9
VMagikarp
p93
sg11
VUS,UM,
p94
sg13
VFish
p95
sg15
V10
p96
sg17
V44
p97
sg19
V55
p98
sbag1
(g2
g3
Ntp99
Rp100
(dp101
g7
V320
p102
sg9
VWailmer
p103
sg11
VUS,UM,
p104
sg13
VFish
p105
sg15
V10
p106
sg17
V44
p107
sg19
V40
p108
sbag1
(g2
g3
Ntp109
Rp110
(dp111
g7
V781
p112
sg9
VDhelmise
p113
sg11
VUS,UM,
p114
sg13
VFish
p115
sg15
V10
p116
sg17
V44
p117
sg19
V5
p118
sbag1
(g2
g3
Ntp119
Rp120
(dp121
g7
V129
p122
sg9
VMagikarp
p123
sg11
VUS,UM,
p124
sg13
VFish
p125
sg15
V10
p126
sg17
V49
p127
sg19
V40
p128
sbag1
(g2
g3
Ntp129
Rp130
(dp131
g7
V320
p132
sg9
VWailmer
p133
sg11
VUS,UM,
p134
sg13
VFish
p135
sg15
V10
p136
sg17
V49
p137
sg19
V25
p138
sbag1
(g2
g3
Ntp139
Rp140
(dp141
g7
V781
p142
sg9
VDhelmise
p143
sg11
VUS,UM,
p144
sg13
VFish
p145
sg15
V10
p146
sg17
V49
p147
sg19
V35
p148
sbag1
(g2
g3
Ntp149
Rp150
(dp151
g7
V142
p152
sg9
VAerodactyl
p153
sg11
VUS,UM,
p154
sg13
VGift
p155
sg15
V40
p156
sg17
g156
sg19
V0
p157
sbag1
(g2
g3
Ntp158
Rp159
(dp160
g7
V422
p161
sg9
VShellos
p162
sg11
VUS,UM,
p163
sg13
VTrade
p164
sg15
V44
p165
sg17
g165
sg19
V0
p166
sba.