(lp0
ccopy_reg
_reconstructor
p1
(c__main__
WildPokemon
p2
c__builtin__
object
p3
Ntp4
Rp5
(dp6
VpDexNo
p7
V041
p8
sVpSpecies
p9
VZubat
p10
sVpGames
p11
VOR,AS,
p12
sVpArea
p13
VSurf
p14
sVpMinLevel
p15
V20
p16
sVpMaxLevel
p17
g16
sVpRate
p18
V30
p19
sbag1
(g2
g3
Ntp20
Rp21
(dp22
g7
V042
p23
sg9
VGolbat
p24
sg11
VOR,AS,
p25
sg13
VSurf
p26
sg15
V25
p27
sg17
V30
p28
sg18
V5
p29
sbag1
(g2
g3
Ntp30
Rp31
(dp32
g7
V072
p33
sg9
VTentacool
p34
sg11
VOR,AS,
p35
sg13
VSurf
p36
sg15
V20
p37
sg17
V25
p38
sg18
V65
p39
sbag1
(g2
g3
Ntp40
Rp41
(dp42
g7
V072
p43
sg9
VTentacool
p44
sg11
VOR,AS,
p45
sg13
VFish Old
p46
sg15
V5
p47
sg17
g47
sg18
V35
p48
sbag1
(g2
g3
Ntp49
Rp50
(dp51
g7
V129
p52
sg9
VMagikarp
p53
sg11
VOR,AS,
p54
sg13
VFish Old
p55
sg15
V10
p56
sg17
V15
p57
sg18
V65
p58
sbag1
(g2
g3
Ntp59
Rp60
(dp61
g7
V072
p62
sg9
VTentacool
p63
sg11
VOR,AS,
p64
sg13
VFish Good
p65
sg15
V25
p66
sg17
g66
sg18
V35
p67
sbag1
(g2
g3
Ntp68
Rp69
(dp70
g7
V129
p71
sg9
VMagikarp
p72
sg11
VOR,AS,
p73
sg13
VFish Good
p74
sg15
V25
p75
sg17
g75
sg18
V60
p76
sbag1
(g2
g3
Ntp77
Rp78
(dp79
g7
V320
p80
sg9
VWailmer
p81
sg11
VOR,AS,
p82
sg13
VFish Good
p83
sg15
V25
p84
sg17
g84
sg18
V5
p85
sbag1
(g2
g3
Ntp86
Rp87
(dp88
g7
V116
p89
sg9
VHorsea
p90
sg11
VOR,AS,
p91
sg13
VFish Super
p92
sg15
V30
p93
sg17
V40
p94
sg18
V40
p95
sbag1
(g2
g3
Ntp96
Rp97
(dp98
g7
V320
p99
sg9
VWailmer
p100
sg11
VOR,AS,
p101
sg13
VFish Super
p102
sg15
V35
p103
sg17
g103
sg18
V60
p104
sba.