(lp0
ccopy_reg
_reconstructor
p1
(c__main__
WildPokemon
p2
c__builtin__
object
p3
Ntp4
Rp5
(dp6
VpDexNo
p7
V055
p8
sVpSpecies
p9
VGolduck
p10
sVpGames
p11
VB2,W2,
p12
sVpArea
p13
VCave
p14
sVpMinLevel
p15
V34
p16
sVpMaxLevel
p17
V36
p18
sVpRate
p19
V35
p20
sbag1
(g2
g3
Ntp21
Rp22
(dp23
g7
V086
p24
sg9
VSeel
p25
sg11
VB2,W2,
p26
sg13
VCave
p27
sg15
V35
p28
sg17
g28
sg19
V10
p29
sbag1
(g2
g3
Ntp30
Rp31
(dp32
g7
V525
p33
sg9
VBoldore
p34
sg11
VB2,W2,
p35
sg13
VCave
p36
sg15
V35
p37
sg17
V37
p38
sg19
V15
p39
sbag1
(g2
g3
Ntp40
Rp41
(dp42
g7
V527
p43
sg9
VWoobat
p44
sg11
VB2,W2,
p45
sg13
VCave
p46
sg15
V34
p47
sg17
V36
p48
sg19
V35
p49
sbag1
(g2
g3
Ntp50
Rp51
(dp52
g7
V602
p53
sg9
VTynamo
p54
sg11
VB2,W2,
p55
sg13
VCave
p56
sg15
V37
p57
sg17
g57
sg19
V5
p58
sbag1
(g2
g3
Ntp59
Rp60
(dp61
g7
V530
p62
sg9
VExcadrill
p63
sg11
VB2,W2,
p64
sg13
VDust
p65
sg15
V34
p66
sg17
V37
p67
sg19
V100
p68
sbag1
(g2
g3
Ntp69
Rp70
(dp71
g7
V055
p72
sg9
VGolduck
p73
sg11
VB2,W2,
p74
sg13
VCave
p75
sg15
V40
p76
sg17
g76
sg19
V20
p77
sbag1
(g2
g3
Ntp78
Rp79
(dp80
g7
V213
p81
sg9
VShuckle
p82
sg11
VB2,W2,
p83
sg13
VCave
p84
sg15
V41
p85
sg17
g85
sg19
V5
p86
sbag1
(g2
g3
Ntp87
Rp88
(dp89
g7
V525
p90
sg9
VBoldore
p91
sg11
VB2,W2,
p92
sg13
VCave
p93
sg15
V39
p94
sg17
V42
p95
sg19
V35
p96
sbag1
(g2
g3
Ntp97
Rp98
(dp99
g7
V527
p100
sg9
VWoobat
p101
sg11
VB2,W2,
p102
sg13
VCave
p103
sg15
V39
p104
sg17
V41
p105
sg19
V35
p106
sbag1
(g2
g3
Ntp107
Rp108
(dp109
g7
V603
p110
sg9
VEelektrik
p111
sg11
VB2,W2,
p112
sg13
VCave
p113
sg15
V42
p114
sg17
g114
sg19
V5
p115
sbag1
(g2
g3
Ntp116
Rp117
(dp118
g7
V530
p119
sg9
VExcadrill
p120
sg11
VB2,W2,
p121
sg13
VDust
p122
sg15
V39
p123
sg17
V42
p124
sg19
V100
p125
sbag1
(g2
g3
Ntp126
Rp127
(dp128
g7
V086
p129
sg9
VSeel
p130
sg11
VB2,W2,
p131
sg13
VSurf
p132
sg15
V25
p133
sg17
V40
p134
sg19
V30
p135
sbag1
(g2
g3
Ntp136
Rp137
(dp138
g7
V592
p139
sg9
VFrillish
p140
sg11
VB2,W2,
p141
sg13
VSurf
p142
sg15
V25
p143
sg17
V40
p144
sg19
V70
p145
sbag1
(g2
g3
Ntp146
Rp147
(dp148
g7
V086
p149
sg9
VSeel
p150
sg11
VB2,W2,
p151
sg13
VRippling
p152
sg15
V25
p153
sg17
V40
p154
sg19
V60
p155
sbag1
(g2
g3
Ntp156
Rp157
(dp158
g7
V087
p159
sg9
VDewgong
p160
sg11
VB2,W2,
p161
sg13
VRippling
p162
sg15
V30
p163
sg17
V40
p164
sg19
V10
p165
sbag1
(g2
g3
Ntp166
Rp167
(dp168
g7
V593
p169
sg9
VJellicent
p170
sg11
VB2,W2,
p171
sg13
VRippling
p172
sg15
V25
p173
sg17
V40
p174
sg19
V30
p175
sbag1
(g2
g3
Ntp176
Rp177
(dp178
g7
V090
p179
sg9
VShellder
p180
sg11
VB2,W2,
p181
sg13
VFish Super
p182
sg15
V40
p183
sg17
V60
p184
sg19
V30
p185
sbag1
(g2
g3
Ntp186
Rp187
(dp188
g7
V370
p189
sg9
VLuvdisc
p190
sg11
VB2,W2,
p191
sg13
VFish Super
p192
sg15
V40
p193
sg17
V70
p194
sg19
V70
p195
sbag1
(g2
g3
Ntp196
Rp197
(dp198
g7
V090
p199
sg9
VShellder
p200
sg11
VB2,W2,
p201
sg13
VRippling
p202
sg15
V40
p203
sg17
V70
p204
sg19
V65
p205
sbag1
(g2
g3
Ntp206
Rp207
(dp208
g7
V091
p209
sg9
VCloyster
p210
sg11
VB2,W2,
p211
sg13
VRippling
p212
sg15
V50
p213
sg17
V70
p214
sg19
V5
p215
sbag1
(g2
g3
Ntp216
Rp217
(dp218
g7
V370
p219
sg9
VLuvdisc
p220
sg11
VB2,W2,
p221
sg13
VRippling
p222
sg15
V40
p223
sg17
V60
p224
sg19
V30
p225
sbag1
(g2
g3
Ntp226
Rp227
(dp228
g7
V558
p229
sg9
VCrustle
p230
sg11
VB2,W2,
p231
sg13
VSpecial
p232
sg15
V42
p233
sg17
g233
sg19
V0
p234
sba.