(lp0
ccopy_reg
_reconstructor
p1
(c__main__
WildPokemon
p2
c__builtin__
object
p3
Ntp4
Rp5
(dp6
VpDexNo
p7
V041
p8
sVpSpecies
p9
VZubat
p10
sVpGames
p11
VSu,M,
p12
sVpArea
p13
VCave
p14
sVpMinLevel
p15
V9
p16
sVpMaxLevel
p17
V12
p18
sVpRate
p19
V70
p20
sbag1
(g2
g3
Ntp21
Rp22
(dp23
g7
V050
p24
sg9
VDiglett
p25
sg11
VSu,M,
p26
sg13
VCave
p27
sg15
g16
sg17
V12
p28
sg19
V30
p29
sbag1
(g2
g3
Ntp30
Rp31
(dp32
g7
V041
p33
sg9
VZubat
p34
sg11
VSu,M,
p35
sg13
VSurf
p36
sg15
V15
p37
sg17
V18
p38
sg19
V80
p39
sbag1
(g2
g3
Ntp40
Rp41
(dp42
g7
V054
p43
sg9
VPsyduck
p44
sg11
VSu,M,
p45
sg13
VSurf
p46
sg15
V15
p47
sg17
V18
p48
sg19
V20
p49
sbag1
(g2
g3
Ntp50
Rp51
(dp52
g7
V129
p53
sg9
VMagikarp
p54
sg11
VSu,M,
p55
sg13
VFish
p56
sg15
V10
p57
sg17
V15
p58
sg19
V99
p59
sbag1
(g2
g3
Ntp60
Rp61
(dp62
g7
V339
p63
sg9
VBarboach
p64
sg11
VSu,M,
p65
sg13
VFish
p66
sg15
V10
p67
sg17
V15
p68
sg19
V1
p69
sbag1
(g2
g3
Ntp70
Rp71
(dp72
g7
V129
p73
sg9
VMagikarp
p74
sg11
VSu,M,
p75
sg13
VFish
p76
sg15
V10
p77
sg17
V15
p78
sg19
V50
p79
sbag1
(g2
g3
Ntp80
Rp81
(dp82
g7
V339
p83
sg9
VBarboach
p84
sg11
VSu,M,
p85
sg13
VFish
p86
sg15
V10
p87
sg17
V15
p88
sg19
V50
p89
sbag1
(g2
g3
Ntp90
Rp91
(dp92
g7
V158
p93
sg9
VTotodile
p94
sg11
VSu,M,
p95
sg13
VCave
p96
sg15
V12
p97
sg17
g97
sg19
V0
p98
sbag1
(g2
g3
Ntp99
Rp100
(dp101
g7
V041
p102
sg9
VZubat
p103
sg11
VUS,UM,
p104
sg13
VCave
p105
sg15
g16
sg17
V12
p106
sg19
V20
p107
sbag1
(g2
g3
Ntp108
Rp109
(dp110
g7
V054
p111
sg9
VPsyduck
p112
sg11
VUS,UM,
p113
sg13
VCave
p114
sg15
g16
sg17
V12
p115
sg19
V30
p116
sbag1
(g2
g3
Ntp117
Rp118
(dp119
g7
V225
p120
sg9
VDelibird
p121
sg11
VUS,UM,
p122
sg13
VCave
p123
sg15
g16
sg17
V12
p124
sg19
V20
p125
sbag1
(g2
g3
Ntp126
Rp127
(dp128
g7
V238
p129
sg9
VSmoochum
p130
sg11
VUS,UM,
p131
sg13
VCave
p132
sg15
g16
sg17
V12
p133
sg19
V30
p134
sbag1
(g2
g3
Ntp135
Rp136
(dp137
g7
V041
p138
sg9
VZubat
p139
sg11
VUS,UM,
p140
sg13
VSurf
p141
sg15
V15
p142
sg17
V18
p143
sg19
V55
p144
sbag1
(g2
g3
Ntp145
Rp146
(dp147
g7
V054
p148
sg9
VPsyduck
p149
sg11
VUS,UM,
p150
sg13
VSurf
p151
sg15
V15
p152
sg17
V18
p153
sg19
V5
p154
sbag1
(g2
g3
Ntp155
Rp156
(dp157
g7
V086
p158
sg9
VSeel
p159
sg11
VUS,UM,
p160
sg13
VSurf
p161
sg15
V15
p162
sg17
V18
p163
sg19
V30
p164
sbag1
(g2
g3
Ntp165
Rp166
(dp167
g7
V225
p168
sg9
VDelibird
p169
sg11
VUS,UM,
p170
sg13
VSurf
p171
sg15
V15
p172
sg17
V18
p173
sg19
V10
p174
sbag1
(g2
g3
Ntp175
Rp176
(dp177
g7
V129
p178
sg9
VMagikarp
p179
sg11
VUS,UM,
p180
sg13
VFish
p181
sg15
V10
p182
sg17
V17
p183
sg19
V90
p184
sbag1
(g2
g3
Ntp185
Rp186
(dp187
g7
V339
p188
sg9
VBarboach
p189
sg11
VUS,UM,
p190
sg13
VFish
p191
sg15
V10
p192
sg17
V17
p193
sg19
V10
p194
sbag1
(g2
g3
Ntp195
Rp196
(dp197
g7
V129
p198
sg9
VMagikarp
p199
sg11
VUS,UM,
p200
sg13
VFish
p201
sg15
V10
p202
sg17
V22
p203
sg19
V40
p204
sbag1
(g2
g3
Ntp205
Rp206
(dp207
g7
V339
p208
sg9
VBarboach
p209
sg11
VUS,UM,
p210
sg13
VFish
p211
sg15
V10
p212
sg17
V22
p213
sg19
V60
p214
sbag1
(g2
g3
Ntp215
Rp216
(dp217
g7
V007
p218
sg9
VSquirtle
p219
sg11
VUS,UM,
p220
sg13
VCave
p221
sg15
V12
p222
sg17
g222
sg19
V0
p223
sba.