(lp0
ccopy_reg
_reconstructor
p1
(c__main__
WildPokemon
p2
c__builtin__
object
p3
Ntp4
Rp5
(dp6
VpDexNo
p7
V042
p8
sVpSpecies
p9
VGolbat
p10
sVpGames
p11
VPt,
p12
sVpArea
p13
VGrass
p14
sVpMinLevel
p15
V38
p16
sVpMaxLevel
p17
g16
sVpRate
p18
V10
p19
sbag1
(g2
g3
Ntp20
Rp21
(dp22
g7
V055
p23
sg9
VGolduck
p24
sg11
VD,P,
p25
sg13
VGrass
p26
sg15
V53
p27
sg17
V54
p28
sg18
V20
p29
sbag1
(g2
g3
Ntp30
Rp31
(dp32
g7
V075
p33
sg9
VGraveler
p34
sg11
g12
sg13
VGrass
p35
sg15
V37
p36
sg17
V39
p37
sg18
V35
p38
sbag1
(g2
g3
Ntp39
Rp40
(dp41
g7
V164
p42
sg9
VNoctowl
p43
sg11
VD,P,
p44
sg13
VGrass
p45
sg15
V53
p46
sg17
V54
p47
sg18
V20
p48
sbag1
(g2
g3
Ntp49
Rp50
(dp51
g7
V356
p52
sg9
VDusclops
p53
sg11
g12
sg13
VGrass
p54
sg15
V39
p55
sg17
V40
p56
sg18
V15
p57
sbag1
(g2
g3
Ntp58
Rp59
(dp60
g7
V358
p61
sg9
VChimecho
p62
sg11
VD,P,
p63
sg13
VGrass
p64
sg15
V52
p65
sg17
V54
p66
sg18
V10
p67
sbag1
(g2
g3
Ntp68
Rp69
(dp70
g7
V397
p71
sg9
VStaravia
p72
sg11
VD,P,
p73
sg13
VGrass
p74
sg15
V52
p75
sg17
V54
p76
sg18
V25
p77
sbag1
(g2
g3
Ntp78
Rp79
(dp80
g7
V397
p81
sg9
VStaravia
p82
sg11
g12
sg13
VGrass
p83
sg15
V38
p84
sg17
V40
p85
sg18
V20
p86
sbag1
(g2
g3
Ntp87
Rp88
(dp89
g7
V400
p90
sg9
VBibarel
p91
sg11
VD,P,
p92
sg13
VGrass
p93
sg15
V52
p94
sg17
V54
p95
sg18
V45
p96
sbag1
(g2
g3
Ntp97
Rp98
(dp99
g7
V400
p100
sg9
VBibarel
p101
sg11
g12
sg13
VGrass
p102
sg15
V37
p103
sg17
V38
p104
sg18
V30
p105
sbag1
(g2
g3
Ntp106
Rp107
(dp108
g7
V433
p109
sg9
VChingling
p110
sg11
g12
sg13
VGrass
p111
sg15
V37
p112
sg17
V39
p113
sg18
V10
p114
sbag1
(g2
g3
Ntp115
Rp116
(dp117
g7
V055
p118
sg9
VGolduck
p119
sg11
VD,P,
p120
sg13
VSurf
p121
sg15
V40
p122
sg17
V55
p123
sg18
V100
p124
sbag1
(g2
g3
Ntp125
Rp126
(dp127
g7
V055
p128
sg9
VGolduck
p129
sg11
g12
sg13
VSurf
p130
sg15
V20
p131
sg17
V40
p132
sg18
V100
p133
sbag1
(g2
g3
Ntp134
Rp135
(dp136
g7
V129
p137
sg9
VMagikarp
p138
sg11
VD,P,
p139
sg13
VFish Old
p140
sg15
V3
p141
sg17
V10
p142
sg18
V100
p143
sbag1
(g2
g3
Ntp144
Rp145
(dp146
g7
V129
p147
sg9
VMagikarp
p148
sg11
g12
sg13
VFish Old
p149
sg15
g141
sg17
V15
p150
sg18
V100
p151
sbag1
(g2
g3
Ntp152
Rp153
(dp154
g7
V118
p155
sg9
VGoldeen
p156
sg11
VD,P,Pt,
p157
sg13
VFish Good
p158
sg15
V10
p159
sg17
V25
p160
sg18
V45
p161
sbag1
(g2
g3
Ntp162
Rp163
(dp164
g7
V129
p165
sg9
VMagikarp
p166
sg11
VD,P,Pt,
p167
sg13
VFish Good
p168
sg15
V10
p169
sg17
V25
p170
sg18
V55
p171
sbag1
(g2
g3
Ntp172
Rp173
(dp174
g7
V119
p175
sg9
VSeaking
p176
sg11
VD,P,
p177
sg13
VFish Super
p178
sg15
V20
p179
sg17
V50
p180
sg18
V45
p181
sbag1
(g2
g3
Ntp182
Rp183
(dp184
g7
V119
p185
sg9
VSeaking
p186
sg11
g12
sg13
VFish Super
p187
sg15
V30
p188
sg17
V55
p189
sg18
V45
p190
sbag1
(g2
g3
Ntp191
Rp192
(dp193
g7
V130
p194
sg9
VGyarados
p195
sg11
VD,P,Pt,
p196
sg13
VFish Super
p197
sg15
V30
p198
sg17
V55
p199
sg18
V55
p200
sbag1
(g2
g3
Ntp201
Rp202
(dp203
g7
V337
p204
sg9
VLunatone
p205
sg11
VD,P,
p206
sg13
VS
p207
sg15
V52
p208
sg17
g208
sg18
V8
p209
sbag1
(g2
g3
Ntp210
Rp211
(dp212
g7
V337
p213
sg9
VLunatone
p214
sg11
g12
sg13
g207
sg15
V39
p215
sg17
V40
p216
sg18
V8
p217
sbag1
(g2
g3
Ntp218
Rp219
(dp220
g7
V338
p221
sg9
VSolrock
p222
sg11
VD,P,
p223
sg13
VR
p224
sg15
V52
p225
sg17
g225
sg18
V8
p226
sbag1
(g2
g3
Ntp227
Rp228
(dp229
g7
V338
p230
sg9
VSolrock
p231
sg11
g12
sg13
g224
sg15
V39
p232
sg17
V40
p233
sg18
V8
p234
sba.