(lp0
ccopy_reg
_reconstructor
p1
(c__main__
WildPokemon
p2
c__builtin__
object
p3
Ntp4
Rp5
(dp6
VpDexNo
p7
V022
p8
sVpSpecies
p9
VFearow
p10
sVpGames
p11
VFR,
p12
sVpArea
p13
VGrass
p14
sVpMinLevel
p15
V50
p16
sVpMaxLevel
p17
g16
sVpRate
p18
V10
p19
sbag1
(g2
g3
Ntp20
Rp21
(dp22
g7
V022
p23
sg9
VFearow
p24
sg11
VLG,
p25
sg13
VGrass
p26
sg15
V50
p27
sg17
g27
sg18
V15
p28
sbag1
(g2
g3
Ntp29
Rp30
(dp31
g7
V052
p32
sg9
VMeowth
p33
sg11
VFR,LG,
p34
sg13
VGrass
p35
sg15
V43
p36
sg17
g36
sg18
V10
p37
sbag1
(g2
g3
Ntp38
Rp39
(dp40
g7
V053
p41
sg9
VPersian
p42
sg11
VFR,LG,
p43
sg13
VGrass
p44
sg15
V49
p45
sg17
V52
p46
sg18
V5
p47
sbag1
(g2
g3
Ntp48
Rp49
(dp50
g7
V074
p51
sg9
VGeodude
p52
sg11
VFR,LG,
p53
sg13
VGrass
p54
sg15
V46
p55
sg17
g55
sg18
V20
p56
sbag1
(g2
g3
Ntp57
Rp58
(dp59
g7
V095
p60
sg9
VOnix
p61
sg11
VFR,LG,
p62
sg13
VGrass
p63
sg15
V54
p64
sg17
g64
sg18
V5
p65
sbag1
(g2
g3
Ntp66
Rp67
(dp68
g7
V104
p69
sg9
VCubone
p70
sg11
VFR,LG,
p71
sg13
VGrass
p72
sg15
V46
p73
sg17
g73
sg18
V10
p74
sbag1
(g2
g3
Ntp75
Rp76
(dp77
g7
V105
p78
sg9
VMarowak
p79
sg11
VFR,LG,
p80
sg13
VGrass
p81
sg15
V52
p82
sg17
g82
sg18
V10
p83
sbag1
(g2
g3
Ntp84
Rp85
(dp86
g7
V227
p87
sg9
VSkarmory
p88
sg11
g12
sg13
VGrass
p89
sg15
V30
p90
sg17
g90
sg18
V5
p91
sbag1
(g2
g3
Ntp92
Rp93
(dp94
g7
V231
p95
sg9
VPhanpy
p96
sg11
VFR,LG,
p97
sg13
VGrass
p98
sg15
V15
p99
sg17
g99
sg18
V20
p100
sbag1
(g2
g3
Ntp101
Rp102
(dp103
g7
V246
p104
sg9
VLarvitar
p105
sg11
VFR,LG,
p106
sg13
VGrass
p107
sg15
V15
p108
sg17
V20
p109
sg18
V5
p110
sbag1
(g2
g3
Ntp111
Rp112
(dp113
g7
V074
p114
sg9
VGeodude
p115
sg11
VFR,LG,
p116
sg13
VRock Smash
p117
sg15
V25
p118
sg17
V40
p119
sg18
V65
p120
sbag1
(g2
g3
Ntp121
Rp122
(dp123
g7
V075
p124
sg9
VGraveler
p125
sg11
VFR,LG,
p126
sg13
VRock Smash
p127
sg15
V30
p128
sg17
V50
p129
sg18
V35
p130
sba.