(lp0
ccopy_reg
_reconstructor
p1
(c__main__
WildPokemon
p2
c__builtin__
object
p3
Ntp4
Rp5
(dp6
VpDexNo
p7
V041
p8
sVpSpecies
p9
VZubat
p10
sVpGames
p11
VRu,S,E,
p12
sVpArea
p13
VCave
p14
sVpMinLevel
p15
V26
p16
sVpMaxLevel
p17
V32
p18
sVpRate
p19
V45
p20
sbag1
(g2
g3
Ntp21
Rp22
(dp23
g7
V042
p24
sg9
VGolbat
p25
sg11
VRu,S,E,
p26
sg13
VCave
p27
sg15
V32
p28
sg17
g28
sg19
V5
p29
sbag1
(g2
g3
Ntp30
Rp31
(dp32
g7
V363
p33
sg9
VSpheal
p34
sg11
VRu,S,E,
p35
sg13
VCave
p36
sg15
V26
p37
sg17
V32
p38
sg19
V50
p39
sbag1
(g2
g3
Ntp40
Rp41
(dp42
g7
V072
p43
sg9
VTentacool
p44
sg11
VRu,S,E,
p45
sg13
VSurf
p46
sg15
V5
p47
sg17
V35
p48
sg19
V60
p49
sbag1
(g2
g3
Ntp50
Rp51
(dp52
g7
V041
p53
sg9
VZubat
p54
sg11
VRu,S,E,
p55
sg13
VSurf
p56
sg15
g47
sg17
V35
p57
sg19
V30
p58
sbag1
(g2
g3
Ntp59
Rp60
(dp61
g7
V363
p62
sg9
VSpheal
p63
sg11
VRu,S,E,
p64
sg13
VSurf
p65
sg15
V25
p66
sg17
V35
p67
sg19
V10
p68
sbag1
(g2
g3
Ntp69
Rp70
(dp71
g7
V072
p72
sg9
VTentacool
p73
sg11
VRu,S,E,
p74
sg13
VFish Old
p75
sg15
g47
sg17
V10
p76
sg19
V30
p77
sbag1
(g2
g3
Ntp78
Rp79
(dp80
g7
V129
p81
sg9
VMagikarp
p82
sg11
VRu,S,E,
p83
sg13
VFish Old
p84
sg15
g47
sg17
V10
p85
sg19
V70
p86
sbag1
(g2
g3
Ntp87
Rp88
(dp89
g7
V072
p90
sg9
VTentacool
p91
sg11
VRu,S,E,
p92
sg13
VFish Good
p93
sg15
V10
p94
sg17
V30
p95
sg19
V20
p96
sbag1
(g2
g3
Ntp97
Rp98
(dp99
g7
V129
p100
sg9
VMagikarp
p101
sg11
VRu,S,E,
p102
sg13
VFish Good
p103
sg15
V10
p104
sg17
V30
p105
sg19
V60
p106
sbag1
(g2
g3
Ntp107
Rp108
(dp109
g7
V320
p110
sg9
VWailmer
p111
sg11
VRu,S,E,
p112
sg13
VFish Good
p113
sg15
V10
p114
sg17
V30
p115
sg19
V20
p116
sbag1
(g2
g3
Ntp117
Rp118
(dp119
g7
V320
p120
sg9
VWailmer
p121
sg11
VRu,S,E,
p122
sg13
VFish Super
p123
sg15
V20
p124
sg17
V45
p125
sg19
V100
p126
sbag1
(g2
g3
Ntp127
Rp128
(dp129
g7
V041
p130
sg9
VZubat
p131
sg11
VRu,S,E,
p132
sg13
VCave
p133
sg15
V26
p134
sg17
V30
p135
sg19
V40
p136
sbag1
(g2
g3
Ntp137
Rp138
(dp139
g7
V042
p140
sg9
VGolbat
p141
sg11
VRu,S,E,
p142
sg13
VCave
p143
sg15
V30
p144
sg17
V32
p145
sg19
V5
p146
sbag1
(g2
g3
Ntp147
Rp148
(dp149
g7
V361
p150
sg9
VSnorunt
p151
sg11
VRu,S,E,
p152
sg13
VCave
p153
sg15
V26
p154
sg17
V30
p155
sg19
V10
p156
sbag1
(g2
g3
Ntp157
Rp158
(dp159
g7
V363
p160
sg9
VSpheal
p161
sg11
VRu,S,E,
p162
sg13
VCave
p163
sg15
V26
p164
sg17
V32
p165
sg19
V45
p166
sbag1
(g2
g3
Ntp167
Rp168
(dp169
g7
V042
p170
sg9
VGolbat
p171
sg11
VOR,AS,
p172
sg13
VCave
p173
sg15
V31
p174
sg17
V34
p175
sg19
V40
p176
sbag1
(g2
g3
Ntp177
Rp178
(dp179
g7
V363
p180
sg9
VSpheal
p181
sg11
VOR,AS,
p182
sg13
VCave
p183
sg15
V31
p184
sg17
g184
sg19
V20
p185
sbag1
(g2
g3
Ntp186
Rp187
(dp188
g7
V364
p189
sg9
VSealeo
p190
sg11
VOR,AS,
p191
sg13
VCave
p192
sg15
V32
p193
sg17
V34
p194
sg19
V40
p195
sbag1
(g2
g3
Ntp196
Rp197
(dp198
g7
V041
p199
sg9
VZubat
p200
sg11
VOR,AS,
p201
sg13
VHorde Encounter
p202
sg15
V17
p203
sg17
g203
sg19
V40
p204
sbag1
(g2
g3
Ntp205
Rp206
(dp207
g7
V363
p208
sg9
VSpheal
p209
sg11
VOR,AS,
p210
sg13
VHorde Encounter
p211
sg15
V17
p212
sg17
g212
sg19
V60
p213
sbag1
(g2
g3
Ntp214
Rp215
(dp216
g7
V087
p217
sg9
VDewgong
p218
sg11
VOR,AS,
p219
sg13
VCave
p220
sg15
V34
p221
sg17
g221
sg19
V0
p222
sbag1
(g2
g3
Ntp223
Rp224
(dp225
g7
V225
p226
sg9
VDelibird
p227
sg11
VOR,AS,
p228
sg13
VCave
p229
sg15
V34
p230
sg17
g230
sg19
V0
p231
sbag1
(g2
g3
Ntp232
Rp233
(dp234
g7
V613
p235
sg9
VCubchoo
p236
sg11
VOR,AS,
p237
sg13
VCave
p238
sg15
V34
p239
sg17
g239
sg19
V0
p240
sbag1
(g2
g3
Ntp241
Rp242
(dp243
g7
V042
p244
sg9
VGolbat
p245
sg11
VOR,AS,
p246
sg13
VSurf
p247
sg15
V25
p248
sg17
V35
p249
sg19
V35
p250
sbag1
(g2
g3
Ntp251
Rp252
(dp253
g7
V072
p254
sg9
VTentacool
p255
sg11
VOR,AS,
p256
sg13
VSurf
p257
sg15
V25
p258
sg17
g258
sg19
V50
p259
sbag1
(g2
g3
Ntp260
Rp261
(dp262
g7
V073
p263
sg9
VTentacruel
p264
sg11
VOR,AS,
p265
sg13
VSurf
p266
sg15
V30
p267
sg17
g267
sg19
V15
p268
sbag1
(g2
g3
Ntp269
Rp270
(dp271
g7
V072
p272
sg9
VTentacool
p273
sg11
VOR,AS,
p274
sg13
VFish Old
p275
sg15
g47
sg17
g47
sg19
V35
p276
sbag1
(g2
g3
Ntp277
Rp278
(dp279
g7
V129
p280
sg9
VMagikarp
p281
sg11
VOR,AS,
p282
sg13
VFish Old
p283
sg15
V10
p284
sg17
V15
p285
sg19
V65
p286
sbag1
(g2
g3
Ntp287
Rp288
(dp289
g7
V072
p290
sg9
VTentacool
p291
sg11
VOR,AS,
p292
sg13
VFish Good
p293
sg15
V25
p294
sg17
g294
sg19
V35
p295
sbag1
(g2
g3
Ntp296
Rp297
(dp298
g7
V129
p299
sg9
VMagikarp
p300
sg11
VOR,AS,
p301
sg13
VFish Good
p302
sg15
V25
p303
sg17
g303
sg19
V60
p304
sbag1
(g2
g3
Ntp305
Rp306
(dp307
g7
V320
p308
sg9
VWailmer
p309
sg11
VOR,AS,
p310
sg13
VFish Good
p311
sg15
V25
p312
sg17
g312
sg19
V5
p313
sbag1
(g2
g3
Ntp314
Rp315
(dp316
g7
V320
p317
sg9
VWailmer
p318
sg11
VOR,AS,
p319
sg13
VFish Super
p320
sg15
V30
p321
sg17
V40
p322
sg19
V100
p323
sbag1
(g2
g3
Ntp324
Rp325
(dp326
g7
V042
p327
sg9
VGolbat
p328
sg11
VOR,AS,
p329
sg13
VCave
p330
sg15
V31
p331
sg17
V34
p332
sg19
V40
p333
sbag1
(g2
g3
Ntp334
Rp335
(dp336
g7
V361
p337
sg9
VSnorunt
p338
sg11
VOR,AS,
p339
sg13
VCave
p340
sg15
V34
p341
sg17
g341
sg19
V5
p342
sbag1
(g2
g3
Ntp343
Rp344
(dp345
g7
V363
p346
sg9
VSpheal
p347
sg11
VOR,AS,
p348
sg13
VCave
p349
sg15
V31
p350
sg17
g350
sg19
V20
p351
sbag1
(g2
g3
Ntp352
Rp353
(dp354
g7
V364
p355
sg9
VSealeo
p356
sg11
VOR,AS,
p357
sg13
VCave
p358
sg15
V32
p359
sg17
V34
p360
sg19
V35
p361
sbag1
(g2
g3
Ntp362
Rp363
(dp364
g7
V041
p365
sg9
VZubat
p366
sg11
VOR,AS,
p367
sg13
VHorde Encounter
p368
sg15
V17
p369
sg17
g369
sg19
V60
p370
sbag1
(g2
g3
Ntp371
Rp372
(dp373
g7
V363
p374
sg9
VSpheal
p375
sg11
VOR,AS,
p376
sg13
VHorde Encounter
p377
sg15
V17
p378
sg17
g378
sg19
V40
p379
sbag1
(g2
g3
Ntp380
Rp381
(dp382
g7
V087
p383
sg9
VDewgong
p384
sg11
VOR,AS,
p385
sg13
VCave
p386
sg15
V34
p387
sg17
g387
sg19
V0
p388
sbag1
(g2
g3
Ntp389
Rp390
(dp391
g7
V225
p392
sg9
VDelibird
p393
sg11
VOR,AS,
p394
sg13
VCave
p395
sg15
V34
p396
sg17
g396
sg19
V0
p397
sbag1
(g2
g3
Ntp398
Rp399
(dp400
g7
V613
p401
sg9
VCubchoo
p402
sg11
VOR,AS,
p403
sg13
VCave
p404
sg15
V34
p405
sg17
g405
sg19
V0
p406
sbag1
(g2
g3
Ntp407
Rp408
(dp409
g7
V075
p410
sg9
VGraveler
p411
sg11
VOR,AS,
p412
sg13
VRock Smash
p413
sg15
V31
p414
sg17
V34
p415
sg19
V100
p416
sbag1
(g2
g3
Ntp417
Rp418
(dp419
g7
V042
p420
sg9
VGolbat
p421
sg11
VOR,AS,
p422
sg13
VCave
p423
sg15
V31
p424
sg17
V34
p425
sg19
V20
p426
sbag1
(g2
g3
Ntp427
Rp428
(dp429
g7
V361
p430
sg9
VSnorunt
p431
sg11
VOR,AS,
p432
sg13
VCave
p433
sg15
V31
p434
sg17
V34
p435
sg19
V40
p436
sbag1
(g2
g3
Ntp437
Rp438
(dp439
g7
V363
p440
sg9
VSpheal
p441
sg11
VOR,AS,
p442
sg13
VCave
p443
sg15
V31
p444
sg17
g444
sg19
V10
p445
sbag1
(g2
g3
Ntp446
Rp447
(dp448
g7
V364
p449
sg9
VSealeo
p450
sg11
VOR,AS,
p451
sg13
VCave
p452
sg15
V32
p453
sg17
V34
p454
sg19
V30
p455
sbag1
(g2
g3
Ntp456
Rp457
(dp458
g7
V041
p459
sg9
VZubat
p460
sg11
VOR,AS,
p461
sg13
VHorde Encounter
p462
sg15
V17
p463
sg17
g463
sg19
V60
p464
sbag1
(g2
g3
Ntp465
Rp466
(dp467
g7
V361
p468
sg9
VSnorunt
p469
sg11
VOR,AS,
p470
sg13
VHorde Encounter
p471
sg15
V17
p472
sg17
g472
sg19
V5
p473
sbag1
(g2
g3
Ntp474
Rp475
(dp476
g7
V363
p477
sg9
VSpheal
p478
sg11
VOR,AS,
p479
sg13
VHorde Encounter
p480
sg15
V17
p481
sg17
g481
sg19
V35
p482
sba.