(lp0
ccopy_reg
_reconstructor
p1
(c__main__
WildPokemon
p2
c__builtin__
object
p3
Ntp4
Rp5
(dp6
VpDexNo
p7
V073
p8
sVpSpecies
p9
VTentacruel
p10
sVpGames
p11
VD,P,Pt,
p12
sVpArea
p13
VSurf
p14
sVpMinLevel
p15
V30
p16
sVpMaxLevel
p17
V50
p18
sVpRate
p19
V60
p20
sbag1
(g2
g3
Ntp21
Rp22
(dp23
g7
V279
p24
sg9
VPelipper
p25
sg11
VD,P,Pt,
p26
sg13
VSurf
p27
sg15
V30
p28
sg17
V50
p29
sg19
V30
p30
sbag1
(g2
g3
Ntp31
Rp32
(dp33
g7
V458
p34
sg9
VMantyke
p35
sg11
VD,P,Pt,
p36
sg13
VSurf
p37
sg15
V30
p38
sg17
V40
p39
sg19
V10
p40
sbag1
(g2
g3
Ntp41
Rp42
(dp43
g7
V129
p44
sg9
VMagikarp
p45
sg11
VD,P,Pt,
p46
sg13
VFish Old
p47
sg15
V3
p48
sg17
V10
p49
sg19
V100
p50
sbag1
(g2
g3
Ntp51
Rp52
(dp53
g7
V129
p54
sg9
VMagikarp
p55
sg11
VD,P,Pt,
p56
sg13
VFish Good
p57
sg15
V10
p58
sg17
V25
p59
sg19
V65
p60
sbag1
(g2
g3
Ntp61
Rp62
(dp63
g7
V223
p64
sg9
VRemoraid
p65
sg11
VD,P,
p66
sg13
VFish Good
p67
sg15
V10
p68
sg17
V25
p69
sg19
V35
p70
sbag1
(g2
g3
Ntp71
Rp72
(dp73
g7
V223
p74
sg9
VRemoraid
p75
sg11
VPt,
p76
sg13
VFish Good
p77
sg15
V10
p78
sg17
V25
p79
sg19
V30
p80
sbag1
(g2
g3
Ntp81
Rp82
(dp83
g7
V224
p84
sg9
VOctillery
p85
sg11
g76
sg13
VFish Good
p86
sg15
V25
p87
sg17
V35
p88
sg19
V5
p89
sbag1
(g2
g3
Ntp90
Rp91
(dp92
g7
V130
p93
sg9
VGyarados
p94
sg11
VD,P,Pt,
p95
sg13
VFish Super
p96
sg15
V30
p97
sg17
V55
p98
sg19
V60
p99
sbag1
(g2
g3
Ntp100
Rp101
(dp102
g7
V224
p103
sg9
VOctillery
p104
sg11
VD,P,Pt,
p105
sg13
VFish Super
p106
sg15
V40
p107
sg17
V55
p108
sg19
V5
p109
sbag1
(g2
g3
Ntp110
Rp111
(dp112
g7
V320
p113
sg9
VWailmer
p114
sg11
VD,P,Pt,
p115
sg13
VFish Super
p116
sg15
V30
p117
sg17
V40
p118
sg19
V30
p119
sbag1
(g2
g3
Ntp120
Rp121
(dp122
g7
V321
p123
sg9
VWailord
p124
sg11
VD,P,Pt,
p125
sg13
VFish Super
p126
sg15
V35
p127
sg17
V55
p128
sg19
V5
p129
sba.