(lp0
ccopy_reg
_reconstructor
p1
(c__main__
WildPokemon
p2
c__builtin__
object
p3
Ntp4
Rp5
(dp6
VpDexNo
p7
V073
p8
sVpSpecies
p9
VTentacruel
p10
sVpGames
p11
VD,P,
p12
sVpArea
p13
VSurf
p14
sVpMinLevel
p15
V35
p16
sVpMaxLevel
p17
V45
p18
sVpRate
p19
V65
p20
sbag1
(g2
g3
Ntp21
Rp22
(dp23
g7
V073
p24
sg9
VTentacruel
p25
sg11
VPt,
p26
sg13
VSurf
p27
sg15
V30
p28
sg17
V50
p29
sg19
V5
p30
sbag1
(g2
g3
Ntp31
Rp32
(dp33
g7
V278
p34
sg9
VWingull
p35
sg11
g26
sg13
VSurf
p36
sg15
V30
p37
sg17
V40
p38
sg19
V60
p39
sbag1
(g2
g3
Ntp40
Rp41
(dp42
g7
V279
p43
sg9
VPelipper
p44
sg11
VD,P,
p45
sg13
VSurf
p46
sg15
V35
p47
sg17
V55
p48
sg19
V35
p49
sbag1
(g2
g3
Ntp50
Rp51
(dp52
g7
V279
p53
sg9
VPelipper
p54
sg11
g26
sg13
VSurf
p55
sg15
V30
p56
sg17
V50
p57
sg19
V35
p58
sbag1
(g2
g3
Ntp59
Rp60
(dp61
g7
V129
p62
sg9
VMagikarp
p63
sg11
VD,P,
p64
sg13
VFish Old
p65
sg15
V3
p66
sg17
V10
p67
sg19
V100
p68
sbag1
(g2
g3
Ntp69
Rp70
(dp71
g7
V129
p72
sg9
VMagikarp
p73
sg11
g26
sg13
VFish Old
p74
sg15
g66
sg17
V15
p75
sg19
V100
p76
sbag1
(g2
g3
Ntp77
Rp78
(dp79
g7
V129
p80
sg9
VMagikarp
p81
sg11
VD,P,Pt,
p82
sg13
VFish Good
p83
sg15
V10
p84
sg17
V25
p85
sg19
V65
p86
sbag1
(g2
g3
Ntp87
Rp88
(dp89
g7
V223
p90
sg9
VRemoraid
p91
sg11
VD,P,Pt,
p92
sg13
VFish Good
p93
sg15
V10
p94
sg17
V25
p95
sg19
V35
p96
sbag1
(g2
g3
Ntp97
Rp98
(dp99
g7
V130
p100
sg9
VGyarados
p101
sg11
VD,P,
p102
sg13
VFish Super
p103
sg15
V30
p104
sg17
V40
p105
sg19
V60
p106
sbag1
(g2
g3
Ntp107
Rp108
(dp109
g7
V130
p110
sg9
VGyarados
p111
sg11
g26
sg13
VFish Super
p112
sg15
V30
p113
sg17
V55
p114
sg19
V60
p115
sbag1
(g2
g3
Ntp116
Rp117
(dp118
g7
V224
p119
sg9
VOctillery
p120
sg11
VD,P,
p121
sg13
VFish Super
p122
sg15
V20
p123
sg17
V50
p124
sg19
V35
p125
sbag1
(g2
g3
Ntp126
Rp127
(dp128
g7
V224
p129
sg9
VOctillery
p130
sg11
g26
sg13
VFish Super
p131
sg15
V30
p132
sg17
V55
p133
sg19
V35
p134
sbag1
(g2
g3
Ntp135
Rp136
(dp137
g7
V370
p138
sg9
VLuvdisc
p139
sg11
VD,P,Pt,
p140
sg13
VFish Super
p141
sg15
V20
p142
sg17
V30
p143
sg19
V5
p144
sba.