(lp0
ccopy_reg
_reconstructor
p1
(c__main__
WildPokemon
p2
c__builtin__
object
p3
Ntp4
Rp5
(dp6
VpDexNo
p7
V072
p8
sVpSpecies
p9
VTentacool
p10
sVpGames
p11
VD,P,Pt,
p12
sVpArea
p13
VSurf
p14
sVpMinLevel
p15
V20
p16
sVpMaxLevel
p17
V30
p18
sVpRate
p19
V60
p20
sbag1
(g2
g3
Ntp21
Rp22
(dp23
g7
V073
p24
sg9
VTentacruel
p25
sg11
VD,P,
p26
sg13
VSurf
p27
sg15
V20
p28
sg17
V40
p29
sg19
V5
p30
sbag1
(g2
g3
Ntp31
Rp32
(dp33
g7
V073
p34
sg9
VTentacruel
p35
sg11
VPt,
p36
sg13
VSurf
p37
sg15
V20
p38
sg17
V40
p39
sg19
V9
p40
sbag1
(g2
g3
Ntp41
Rp42
(dp43
g7
V278
p44
sg9
VWingull
p45
sg11
VD,P,Pt,
p46
sg13
VSurf
p47
sg15
V20
p48
sg17
V30
p49
sg19
V30
p50
sbag1
(g2
g3
Ntp51
Rp52
(dp53
g7
V279
p54
sg9
VPelipper
p55
sg11
VD,P,
p56
sg13
VSurf
p57
sg15
V20
p58
sg17
V40
p59
sg19
V5
p60
sbag1
(g2
g3
Ntp61
Rp62
(dp63
g7
V279
p64
sg9
VPelipper
p65
sg11
g36
sg13
VSurf
p66
sg15
V20
p67
sg17
V40
p68
sg19
V1
p69
sbag1
(g2
g3
Ntp70
Rp71
(dp72
g7
V129
p73
sg9
VMagikarp
p74
sg11
VD,P,
p75
sg13
VFish Old
p76
sg15
V3
p77
sg17
V10
p78
sg19
V100
p79
sbag1
(g2
g3
Ntp80
Rp81
(dp82
g7
V129
p83
sg9
VMagikarp
p84
sg11
g36
sg13
VFish Old
p85
sg15
g77
sg17
V15
p86
sg19
V100
p87
sbag1
(g2
g3
Ntp88
Rp89
(dp90
g7
V129
p91
sg9
VMagikarp
p92
sg11
VD,P,Pt,
p93
sg13
VFish Good
p94
sg15
V10
p95
sg17
V25
p96
sg19
V55
p97
sbag1
(g2
g3
Ntp98
Rp99
(dp100
g7
V456
p101
sg9
VFinneon
p102
sg11
VD,P,
p103
sg13
VFish Good
p104
sg15
V10
p105
sg17
V25
p106
sg19
V45
p107
sbag1
(g2
g3
Ntp108
Rp109
(dp110
g7
V456
p111
sg9
VFinneon
p112
sg11
g36
sg13
VFish Good
p113
sg15
V15
p114
sg17
V20
p115
sg19
V40
p116
sbag1
(g2
g3
Ntp117
Rp118
(dp119
g7
V457
p120
sg9
VLumineon
p121
sg11
g36
sg13
VFish Good
p122
sg15
V25
p123
sg17
V35
p124
sg19
V5
p125
sbag1
(g2
g3
Ntp126
Rp127
(dp128
g7
V130
p129
sg9
VGyarados
p130
sg11
VD,P,
p131
sg13
VFish Super
p132
sg15
V30
p133
sg17
V40
p134
sg19
V40
p135
sbag1
(g2
g3
Ntp136
Rp137
(dp138
g7
V130
p139
sg9
VGyarados
p140
sg11
g36
sg13
VFish Super
p141
sg15
V30
p142
sg17
V55
p143
sg19
V55
p144
sbag1
(g2
g3
Ntp145
Rp146
(dp147
g7
V366
p148
sg9
VClamperl
p149
sg11
VD,P,
p150
sg13
VFish Super
p151
sg15
V20
p152
sg17
V30
p153
sg19
V15
p154
sbag1
(g2
g3
Ntp155
Rp156
(dp157
g7
V457
p158
sg9
VLumineon
p159
sg11
VD,P,
p160
sg13
VFish Super
p161
sg15
V20
p162
sg17
V50
p163
sg19
V45
p164
sbag1
(g2
g3
Ntp165
Rp166
(dp167
g7
V457
p168
sg9
VLumineon
p169
sg11
g36
sg13
VFish Super
p170
sg15
V30
p171
sg17
V55
p172
sg19
V45
p173
sba.