(lp0
ccopy_reg
_reconstructor
p1
(c__main__
WildPokemon
p2
c__builtin__
object
p3
Ntp4
Rp5
(dp6
VpDexNo
p7
V042
p8
sVpSpecies
p9
VGolbat
p10
sVpGames
p11
VRu,S,
p12
sVpArea
p13
V1F
p14
sVpMinLevel
p15
V48
p16
sVpMaxLevel
p17
V50
p18
sVpRate
p19
V30
p20
sbag1
(g2
g3
Ntp21
Rp22
(dp23
g7
V042
p24
sg9
VGolbat
p25
sg11
VE,
p26
sg13
V1F
p27
sg15
V34
p28
sg17
V35
p29
sg19
V30
p30
sbag1
(g2
g3
Ntp31
Rp32
(dp33
g7
V302
p34
sg9
VSableye
p35
sg11
VS,
p36
sg13
V1F
p37
sg15
V48
p38
sg17
V50
p39
sg19
V30
p40
sbag1
(g2
g3
Ntp41
Rp42
(dp43
g7
V302
p44
sg9
VSableye
p45
sg11
g26
sg13
V1F
p46
sg15
V33
p47
sg17
V34
p48
sg19
V30
p49
sbag1
(g2
g3
Ntp50
Rp51
(dp52
g7
V303
p53
sg9
VMawile
p54
sg11
VRu,
p55
sg13
V1F
p56
sg15
V48
p57
sg17
V50
p58
sg19
V30
p59
sbag1
(g2
g3
Ntp60
Rp61
(dp62
g7
V344
p63
sg9
VClaydol
p64
sg11
VRu,S,
p65
sg13
V1F
p66
sg15
V47
p67
sg17
V50
p68
sg19
V25
p69
sbag1
(g2
g3
Ntp70
Rp71
(dp72
g7
V344
p73
sg9
VClaydol
p74
sg11
g26
sg13
V1F
p75
sg15
V36
p76
sg17
V38
p77
sg19
V25
p78
sbag1
(g2
g3
Ntp79
Rp80
(dp81
g7
V354
p82
sg9
VBanette
p83
sg11
g36
sg13
V1F
p84
sg15
V48
p85
sg17
V50
p86
sg19
V15
p87
sbag1
(g2
g3
Ntp88
Rp89
(dp90
g7
V354
p91
sg9
VBanette
p92
sg11
g26
sg13
V1F
p93
sg15
V37
p94
sg17
V38
p95
sg19
V15
p96
sbag1
(g2
g3
Ntp97
Rp98
(dp99
g7
V356
p100
sg9
VDusclops
p101
sg11
g55
sg13
V1F
p102
sg15
V48
p103
sg17
V50
p104
sg19
V15
p105
sbag1
(g2
g3
Ntp106
Rp107
(dp108
g7
V042
p109
sg9
VGolbat
p110
sg11
VRu,S,
p111
sg13
V3F
p112
sg15
V51
p113
sg17
V53
p114
sg19
V30
p115
sbag1
(g2
g3
Ntp116
Rp117
(dp118
g7
V042
p119
sg9
VGolbat
p120
sg11
g26
sg13
V3F
p121
sg15
V34
p122
sg17
V35
p123
sg19
V30
p124
sbag1
(g2
g3
Ntp125
Rp126
(dp127
g7
V302
p128
sg9
VSableye
p129
sg11
g36
sg13
V3F
p130
sg15
V51
p131
sg17
V53
p132
sg19
V30
p133
sbag1
(g2
g3
Ntp134
Rp135
(dp136
g7
V302
p137
sg9
VSableye
p138
sg11
g26
sg13
V3F
p139
sg15
V33
p140
sg17
V34
p141
sg19
V30
p142
sbag1
(g2
g3
Ntp143
Rp144
(dp145
g7
V303
p146
sg9
VMawile
p147
sg11
g55
sg13
V3F
p148
sg15
V51
p149
sg17
V53
p150
sg19
V30
p151
sbag1
(g2
g3
Ntp152
Rp153
(dp154
g7
V344
p155
sg9
VClaydol
p156
sg11
VRu,S,
p157
sg13
V3F
p158
sg15
V50
p159
sg17
V53
p160
sg19
V25
p161
sbag1
(g2
g3
Ntp162
Rp163
(dp164
g7
V344
p165
sg9
VClaydol
p166
sg11
g26
sg13
V3F
p167
sg15
V36
p168
sg17
V38
p169
sg19
V25
p170
sbag1
(g2
g3
Ntp171
Rp172
(dp173
g7
V354
p174
sg9
VBanette
p175
sg11
g36
sg13
V3F
p176
sg15
V51
p177
sg17
V53
p178
sg19
V15
p179
sbag1
(g2
g3
Ntp180
Rp181
(dp182
g7
V354
p183
sg9
VBanette
p184
sg11
g26
sg13
V3F
p185
sg15
V37
p186
sg17
V38
p187
sg19
V15
p188
sbag1
(g2
g3
Ntp189
Rp190
(dp191
g7
V356
p192
sg9
VDusclops
p193
sg11
g55
sg13
V3F
p194
sg15
V51
p195
sg17
V53
p196
sg19
V15
p197
sbag1
(g2
g3
Ntp198
Rp199
(dp200
g7
V042
p201
sg9
VGolbat
p202
sg11
VRu,S,
p203
sg13
V5F
p204
sg15
V54
p205
sg17
V56
p206
sg19
V30
p207
sbag1
(g2
g3
Ntp208
Rp209
(dp210
g7
V042
p211
sg9
VGolbat
p212
sg11
g26
sg13
V5F
p213
sg15
V34
p214
sg17
V35
p215
sg19
V30
p216
sbag1
(g2
g3
Ntp217
Rp218
(dp219
g7
V302
p220
sg9
VSableye
p221
sg11
g36
sg13
V5F
p222
sg15
V54
p223
sg17
V56
p224
sg19
V30
p225
sbag1
(g2
g3
Ntp226
Rp227
(dp228
g7
V302
p229
sg9
VSableye
p230
sg11
g26
sg13
V5F
p231
sg15
V33
p232
sg17
V34
p233
sg19
V30
p234
sbag1
(g2
g3
Ntp235
Rp236
(dp237
g7
V303
p238
sg9
VMawile
p239
sg11
g55
sg13
V5F
p240
sg15
V54
p241
sg17
V56
p242
sg19
V30
p243
sbag1
(g2
g3
Ntp244
Rp245
(dp246
g7
V334
p247
sg9
VAltaria
p248
sg11
VRu,S,
p249
sg13
V5F
p250
sg15
V54
p251
sg17
V60
p252
sg19
V6
p253
sbag1
(g2
g3
Ntp254
Rp255
(dp256
g7
V334
p257
sg9
VAltaria
p258
sg11
g26
sg13
V5F
p259
sg15
V38
p260
sg17
V39
p261
sg19
V6
p262
sbag1
(g2
g3
Ntp263
Rp264
(dp265
g7
V344
p266
sg9
VClaydol
p267
sg11
VRu,S,
p268
sg13
V5F
p269
sg15
V54
p270
sg17
V56
p271
sg19
V19
p272
sbag1
(g2
g3
Ntp273
Rp274
(dp275
g7
V344
p276
sg9
VClaydol
p277
sg11
g26
sg13
V5F
p278
sg15
V36
p279
sg17
V38
p280
sg19
V19
p281
sbag1
(g2
g3
Ntp282
Rp283
(dp284
g7
V354
p285
sg9
VBanette
p286
sg11
g36
sg13
V5F
p287
sg15
V54
p288
sg17
V56
p289
sg19
V15
p290
sbag1
(g2
g3
Ntp291
Rp292
(dp293
g7
V354
p294
sg9
VBanette
p295
sg11
g26
sg13
V5F
p296
sg15
V37
p297
sg17
V38
p298
sg19
V15
p299
sbag1
(g2
g3
Ntp300
Rp301
(dp302
g7
V356
p303
sg9
VDusclops
p304
sg11
g55
sg13
V5F
p305
sg15
V54
p306
sg17
V56
p307
sg19
V15
p308
sbag1
(g2
g3
Ntp309
Rp310
(dp311
g7
V384
p312
sg9
VRayquaza
p313
sg11
VRu,S,E,
p314
sg13
VSpecial
p315
sg15
V70
p316
sg17
g316
sg19
V0
p317
sbag1
(g2
g3
Ntp318
Rp319
(dp320
g7
V042
p321
sg9
VGolbat
p322
sg11
VOR,AS,
p323
sg13
V1F-5F
p324
sg15
V44
p325
sg17
V46
p326
sg19
V30
p327
sbag1
(g2
g3
Ntp328
Rp329
(dp330
g7
V168
p331
sg9
VAriados
p332
sg11
VOR,AS,
p333
sg13
V1F-5F
p334
sg15
V44
p335
sg17
V46
p336
sg19
V30
p337
sbag1
(g2
g3
Ntp338
Rp339
(dp340
g7
V302
p341
sg9
VSableye
p342
sg11
VAS,
p343
sg13
V1F-5F
p344
sg15
V44
p345
sg17
V46
p346
sg19
V10
p347
sbag1
(g2
g3
Ntp348
Rp349
(dp350
g7
V303
p351
sg9
VMawile
p352
sg11
VOR,
p353
sg13
V1F-5F
p354
sg15
V44
p355
sg17
V46
p356
sg19
V10
p357
sbag1
(g2
g3
Ntp358
Rp359
(dp360
g7
V344
p361
sg9
VClaydol
p362
sg11
VOR,AS,
p363
sg13
V1F-5F
p364
sg15
V44
p365
sg17
V46
p366
sg19
V30
p367
sbag1
(g2
g3
Ntp368
Rp369
(dp370
g7
V042
p371
sg9
VGolbat
p372
sg11
VOR,AS,
p373
sg13
VHorde Encounter
p374
sg15
V23
p375
sg17
g375
sg19
V60
p376
sbag1
(g2
g3
Ntp377
Rp378
(dp379
g7
V168
p380
sg9
VAriados
p381
sg11
VOR,AS,
p382
sg13
VHorde Encounter
p383
sg15
V23
p384
sg17
g384
sg19
V35
p385
sbag1
(g2
g3
Ntp386
Rp387
(dp388
g7
V333
p389
sg9
VSwablu
p390
sg11
VOR,AS,
p391
sg13
VHorde Encounter
p392
sg15
V23
p393
sg17
g393
sg19
V5
p394
sbag1
(g2
g3
Ntp395
Rp396
(dp397
g7
V384
p398
sg9
VRayquaza
p399
sg11
VOR,AS,
p400
sg13
VSpecial
p401
sg15
V70
p402
sg17
g402
sg19
V0
p403
sbag1
(g2
g3
Ntp404
Rp405
(dp406
g7
V386
p407
sg9
VDeoxys
p408
sg11
VOR,AS,
p409
sg13
VSpecial
p410
sg15
V80
p411
sg17
g411
sg19
V0
p412
sbag1
(g2
g3
Ntp413
Rp414
(dp415
g7
V386
p416
sg9
VDeoxys
p417
sg11
VOR,AS,
p418
sg13
VSpecial
p419
sg15
V80
p420
sg17
g420
sg19
V0
p421
sba.