(lp0
ccopy_reg
_reconstructor
p1
(c__main__
WildPokemon
p2
c__builtin__
object
p3
Ntp4
Rp5
(dp6
VpDexNo
p7
V220
p8
sVpSpecies
p9
VSwinub
p10
sVpGames
p11
VSw,Sh,
p12
sVpArea
p13
VGrass
p14
sVpMinLevel
p15
V60
p16
sVpMaxLevel
p17
V65
p18
sVpRate
p19
V0
p20
sbag1
(g2
g3
Ntp21
Rp22
(dp23
g7
V238
p24
sg9
VSmoochum
p25
sg11
VSw,Sh,
p26
sg13
VGrass
p27
sg15
V60
p28
sg17
V65
p29
sg19
g20
sbag1
(g2
g3
Ntp30
Rp31
(dp32
g7
V240
p33
sg9
VMagby
p34
sg11
VSw,Sh,
p35
sg13
VGrass
p36
sg15
V60
p37
sg17
V65
p38
sg19
g20
sbag1
(g2
g3
Ntp39
Rp40
(dp41
g7
V333
p42
sg9
VSwablu
p43
sg11
VSw,Sh,
p44
sg13
VGrass
p45
sg15
V60
p46
sg17
V65
p47
sg19
g20
sbag1
(g2
g3
Ntp48
Rp49
(dp50
g7
V439
p51
sg9
VMime Jr.
p52
sg11
VSw,Sh,
p53
sg13
VGrass
p54
sg15
V60
p55
sg17
V65
p56
sg19
g20
sbag1
(g2
g3
Ntp57
Rp58
(dp59
g7
V574
p60
sg9
VGothita
p61
sg11
VSw,
p62
sg13
VGrass
p63
sg15
V60
p64
sg17
V65
p65
sg19
g20
sbag1
(g2
g3
Ntp66
Rp67
(dp68
g7
V577
p69
sg9
VSolosis
p70
sg11
VSh,
p71
sg13
VGrass
p72
sg15
V60
p73
sg17
V65
p74
sg19
g20
sbag1
(g2
g3
Ntp75
Rp76
(dp77
g7
V831
p78
sg9
VWooloo
p79
sg11
VSw,Sh,
p80
sg13
VGrass
p81
sg15
V60
p82
sg17
V65
p83
sg19
g20
sbag1
(g2
g3
Ntp84
Rp85
(dp86
g7
V856
p87
sg9
VHatenna
p88
sg11
VSw,Sh,
p89
sg13
VGrass
p90
sg15
V60
p91
sg17
V65
p92
sg19
g20
sbag1
(g2
g3
Ntp93
Rp94
(dp95
g7
V872
p96
sg9
VSnom
p97
sg11
VSw,Sh,
p98
sg13
VGrass
p99
sg15
V60
p100
sg17
V65
p101
sg19
g20
sbag1
(g2
g3
Ntp102
Rp103
(dp104
g7
V819
p105
sg9
VSkwovet
p106
sg11
VSw,Sh,
p107
sg13
VBerry tree
p108
sg15
V60
p109
sg17
V65
p110
sg19
V70
p111
sbag1
(g2
g3
Ntp112
Rp113
(dp114
g7
V820
p115
sg9
VGreedent
p116
sg11
VSw,Sh,
p117
sg13
VBerry tree
p118
sg15
V60
p119
sg17
V65
p120
sg19
V30
p121
sbag1
(g2
g3
Ntp122
Rp123
(dp124
g7
V124
p125
sg9
VJynx
p126
sg11
VSw,Sh,
p127
sg13
VGrass
p128
sg15
V60
p129
sg17
V65
p130
sg19
g20
sbag1
(g2
g3
Ntp131
Rp132
(dp133
g7
V126
p134
sg9
VMagmar
p135
sg11
VSw,Sh,
p136
sg13
VGrass
p137
sg15
V60
p138
sg17
V65
p139
sg19
g20
sbag1
(g2
g3
Ntp140
Rp141
(dp142
g7
V215
p143
sg9
VSneasel
p144
sg11
VSw,Sh,
p145
sg13
VGrass
p146
sg15
V60
p147
sg17
V65
p148
sg19
g20
sbag1
(g2
g3
Ntp149
Rp150
(dp151
g7
V221
p152
sg9
VPiloswine
p153
sg11
VSw,Sh,
p154
sg13
VGrass
p155
sg15
V60
p156
sg17
V65
p157
sg19
g20
sbag1
(g2
g3
Ntp158
Rp159
(dp160
g7
V333
p161
sg9
VSwablu
p162
sg11
VSw,Sh,
p163
sg13
VGrass
p164
sg15
V60
p165
sg17
V65
p166
sg19
g20
sbag1
(g2
g3
Ntp167
Rp168
(dp169
g7
V531
p170
sg9
VAudino
p171
sg11
VSw,Sh,
p172
sg13
VGrass
p173
sg15
V60
p174
sg17
V65
p175
sg19
g20
sbag1
(g2
g3
Ntp176
Rp177
(dp178
g7
V575
p179
sg9
VGothorita
p180
sg11
g62
sg13
VGrass
p181
sg15
V60
p182
sg17
V65
p183
sg19
g20
sbag1
(g2
g3
Ntp184
Rp185
(dp186
g7
V578
p187
sg9
VDuosion
p188
sg11
g71
sg13
VGrass
p189
sg15
V60
p190
sg17
V65
p191
sg19
g20
sbag1
(g2
g3
Ntp192
Rp193
(dp194
g7
V615
p195
sg9
VCryogonal
p196
sg11
VSw,Sh,
p197
sg13
VGrass
p198
sg15
V60
p199
sg17
V65
p200
sg19
g20
sbag1
(g2
g3
Ntp201
Rp202
(dp203
g7
V698
p204
sg9
VAmaura
p205
sg11
VSw,Sh,
p206
sg13
VGrass
p207
sg15
V60
p208
sg17
V65
p209
sg19
g20
sbag1
(g2
g3
Ntp210
Rp211
(dp212
g7
V708
p213
sg9
VPhantump
p214
sg11
VSw,Sh,
p215
sg13
VGrass
p216
sg15
V60
p217
sg17
V65
p218
sg19
g20
sbag1
(g2
g3
Ntp219
Rp220
(dp221
g7
V778
p222
sg9
VMimikyu
p223
sg11
VSw,Sh,
p224
sg13
VGrass
p225
sg15
V60
p226
sg17
V65
p227
sg19
g20
sbag1
(g2
g3
Ntp228
Rp229
(dp230
g7
V832
p231
sg9
VDubwool
p232
sg11
VSw,Sh,
p233
sg13
VGrass
p234
sg15
V60
p235
sg17
V65
p236
sg19
g20
sbag1
(g2
g3
Ntp237
Rp238
(dp239
g7
V856
p240
sg9
VHatenna
p241
sg11
VSw,Sh,
p242
sg13
VGrass
p243
sg15
V60
p244
sg17
V65
p245
sg19
g20
sbag1
(g2
g3
Ntp246
Rp247
(dp248
g7
V859
p249
sg9
VImpidimp
p250
sg11
VSw,Sh,
p251
sg13
VGrass
p252
sg15
V60
p253
sg17
V65
p254
sg19
g20
sbag1
(g2
g3
Ntp255
Rp256
(dp257
g7
V872
p258
sg9
VSnom
p259
sg11
VSw,Sh,
p260
sg13
VGrass
p261
sg15
V60
p262
sg17
V65
p263
sg19
g20
sbag1
(g2
g3
Ntp264
Rp265
(dp266
g7
V143
p267
sg9
VSnorlax
p268
sg11
VSw,Sh,
p269
sg13
VWanderer
p270
sg15
V65
p271
sg17
g271
sg19
g20
sbag1
(g2
g3
Ntp272
Rp273
(dp274
g7
V333
p275
sg9
VSwablu
p276
sg11
VSw,Sh,
p277
sg13
VWanderer
p278
sg15
V60
p279
sg17
g279
sg19
g20
sbag1
(g2
g3
Ntp280
Rp281
(dp282
g7
V473
p283
sg9
VMamoswine
p284
sg11
VSw,Sh,
p285
sg13
VWanderer
p286
sg15
V65
p287
sg17
g287
sg19
g20
sbag1
(g2
g3
Ntp288
Rp289
(dp290
g7
V698
p291
sg9
VAmaura
p292
sg11
VSw,Sh,
p293
sg13
VWanderer
p294
sg15
V60
p295
sg17
g295
sg19
g20
sbag1
(g2
g3
Ntp296
Rp297
(dp298
g7
V778
p299
sg9
VMimikyu
p300
sg11
VSw,Sh,
p301
sg13
VWanderer
p302
sg15
V62
p303
sg17
g303
sg19
g20
sbag1
(g2
g3
Ntp304
Rp305
(dp306
g7
V124
p307
sg9
VJynx
p308
sg11
VSw,Sh,
p309
sg13
VWanderer
p310
sg15
V62
p311
sg17
g311
sg19
g20
sbag1
(g2
g3
Ntp312
Rp313
(dp314
g7
V615
p315
sg9
VCryogonal
p316
sg11
VSw,Sh,
p317
sg13
VWanderer
p318
sg15
V62
p319
sg17
g319
sg19
g20
sbag1
(g2
g3
Ntp320
Rp321
(dp322
g7
V709
p323
sg9
VTrevenant
p324
sg11
VSw,Sh,
p325
sg13
VWanderer
p326
sg15
V63
p327
sg17
g327
sg19
g20
sbag1
(g2
g3
Ntp328
Rp329
(dp330
g7
V832
p331
sg9
VDubwool
p332
sg11
VSw,Sh,
p333
sg13
VWanderer
p334
sg15
V63
p335
sg17
g335
sg19
g20
sbag1
(g2
g3
Ntp336
Rp337
(dp338
g7
V857
p339
sg9
VHattrem
p340
sg11
VSw,Sh,
p341
sg13
VWanderer
p342
sg15
V62
p343
sg17
g343
sg19
g20
sbag1
(g2
g3
Ntp344
Rp345
(dp346
g7
V872
p347
sg9
VSnom
p348
sg11
VSw,Sh,
p349
sg13
VWanderer
p350
sg15
V60
p351
sg17
g351
sg19
g20
sbag1
(g2
g3
Ntp352
Rp353
(dp354
g7
V124
p355
sg9
VJynx
p356
sg11
VSw,Sh,
p357
sg13
VWanderer
p358
sg15
V62
p359
sg17
g359
sg19
g20
sbag1
(g2
g3
Ntp360
Rp361
(dp362
g7
V333
p363
sg9
VSwablu
p364
sg11
VSw,Sh,
p365
sg13
VWanderer
p366
sg15
V60
p367
sg17
g367
sg19
g20
sbag1
(g2
g3
Ntp368
Rp369
(dp370
g7
V615
p371
sg9
VCryogonal
p372
sg11
VSw,Sh,
p373
sg13
VWanderer
p374
sg15
V62
p375
sg17
g375
sg19
g20
sbag1
(g2
g3
Ntp376
Rp377
(dp378
g7
V778
p379
sg9
VMimikyu
p380
sg11
VSw,Sh,
p381
sg13
VWanderer
p382
sg15
V62
p383
sg17
g383
sg19
g20
sbag1
(g2
g3
Ntp384
Rp385
(dp386
g7
V832
p387
sg9
VDubwool
p388
sg11
VSw,Sh,
p389
sg13
VWanderer
p390
sg15
V63
p391
sg17
g391
sg19
g20
sbag1
(g2
g3
Ntp392
Rp393
(dp394
g7
V461
p395
sg9
VWeavile
p396
sg11
VSw,Sh,
p397
sg13
VWanderer
p398
sg15
V63
p399
sg17
g399
sg19
g20
sbag1
(g2
g3
Ntp400
Rp401
(dp402
g7
V615
p403
sg9
VCryogonal
p404
sg11
VSw,Sh,
p405
sg13
VWanderer
p406
sg15
V62
p407
sg17
g407
sg19
g20
sbag1
(g2
g3
Ntp408
Rp409
(dp410
g7
V698
p411
sg9
VAmaura
p412
sg11
VSw,Sh,
p413
sg13
VWanderer
p414
sg15
V60
p415
sg17
g415
sg19
g20
sbag1
(g2
g3
Ntp416
Rp417
(dp418
g7
V832
p419
sg9
VDubwool
p420
sg11
VSw,Sh,
p421
sg13
VWanderer
p422
sg15
V63
p423
sg17
g423
sg19
g20
sbag1
(g2
g3
Ntp424
Rp425
(dp426
g7
V857
p427
sg9
VHattrem
p428
sg11
VSw,Sh,
p429
sg13
VWanderer
p430
sg15
V62
p431
sg17
g431
sg19
g20
sbag1
(g2
g3
Ntp432
Rp433
(dp434
g7
V872
p435
sg9
VSnom
p436
sg11
VSw,Sh,
p437
sg13
VWanderer
p438
sg15
V60
p439
sg17
g439
sg19
g20
sbag1
(g2
g3
Ntp440
Rp441
(dp442
g7
V126
p443
sg9
VMagmar
p444
sg11
VSw,Sh,
p445
sg13
VWanderer
p446
sg15
V62
p447
sg17
g447
sg19
g20
sbag1
(g2
g3
Ntp448
Rp449
(dp450
g7
V473
p451
sg9
VMamoswine
p452
sg11
VSw,Sh,
p453
sg13
VWanderer
p454
sg15
V65
p455
sg17
g455
sg19
g20
sbag1
(g2
g3
Ntp456
Rp457
(dp458
g7
V615
p459
sg9
VCryogonal
p460
sg11
VSw,Sh,
p461
sg13
VWanderer
p462
sg15
V62
p463
sg17
g463
sg19
g20
sbag1
(g2
g3
Ntp464
Rp465
(dp466
g7
V832
p467
sg9
VDubwool
p468
sg11
VSw,Sh,
p469
sg13
VWanderer
p470
sg15
V63
p471
sg17
g471
sg19
g20
sbag1
(g2
g3
Ntp472
Rp473
(dp474
g7
V861
p475
sg9
VGrimmsnarl
p476
sg11
VSw,Sh,
p477
sg13
VWanderer
p478
sg15
V65
p479
sg17
g479
sg19
g20
sbag1
(g2
g3
Ntp480
Rp481
(dp482
g7
V124
p483
sg9
VJynx
p484
sg11
VSw,Sh,
p485
sg13
VWanderer
p486
sg15
V62
p487
sg17
g487
sg19
g20
sbag1
(g2
g3
Ntp488
Rp489
(dp490
g7
V143
p491
sg9
VSnorlax
p492
sg11
VSw,Sh,
p493
sg13
VWanderer
p494
sg15
V65
p495
sg17
g495
sg19
g20
sbag1
(g2
g3
Ntp496
Rp497
(dp498
g7
V362
p499
sg9
VGlalie
p500
sg11
VSw,Sh,
p501
sg13
VWanderer
p502
sg15
V63
p503
sg17
g503
sg19
g20
sbag1
(g2
g3
Ntp504
Rp505
(dp506
g7
V460
p507
sg9
VAbomasnow
p508
sg11
VSw,Sh,
p509
sg13
VWanderer
p510
sg15
V65
p511
sg17
g511
sg19
g20
sbag1
(g2
g3
Ntp512
Rp513
(dp514
g7
V461
p515
sg9
VWeavile
p516
sg11
VSw,Sh,
p517
sg13
VWanderer
p518
sg15
V63
p519
sg17
g519
sg19
g20
sbag1
(g2
g3
Ntp520
Rp521
(dp522
g7
V473
p523
sg9
VMamoswine
p524
sg11
VSw,Sh,
p525
sg13
VWanderer
p526
sg15
V65
p527
sg17
g527
sg19
g20
sbag1
(g2
g3
Ntp528
Rp529
(dp530
g7
V615
p531
sg9
VCryogonal
p532
sg11
VSw,Sh,
p533
sg13
VWanderer
p534
sg15
V62
p535
sg17
g535
sg19
g20
sbag1
(g2
g3
Ntp536
Rp537
(dp538
g7
V126
p539
sg9
VMagmar
p540
sg11
VSw,Sh,
p541
sg13
VWanderer
p542
sg15
V62
p543
sg17
g543
sg19
g20
sbag1
(g2
g3
Ntp544
Rp545
(dp546
g7
V460
p547
sg9
VAbomasnow
p548
sg11
VSw,Sh,
p549
sg13
VWanderer
p550
sg15
V65
p551
sg17
g551
sg19
g20
sbag1
(g2
g3
Ntp552
Rp553
(dp554
g7
V473
p555
sg9
VMamoswine
p556
sg11
VSw,Sh,
p557
sg13
VWanderer
p558
sg15
V65
p559
sg17
g559
sg19
g20
sbag1
(g2
g3
Ntp560
Rp561
(dp562
g7
V576
p563
sg9
VGothitelle
p564
sg11
g62
sg13
VWanderer
p565
sg15
V65
p566
sg17
g566
sg19
g20
sbag1
(g2
g3
Ntp567
Rp568
(dp569
g7
V579
p570
sg9
VReuniclus
p571
sg11
g71
sg13
VWanderer
p572
sg15
V65
p573
sg17
g573
sg19
g20
sbag1
(g2
g3
Ntp574
Rp575
(dp576
g7
V698
p577
sg9
VAmaura
p578
sg11
VSw,Sh,
p579
sg13
VWanderer
p580
sg15
V60
p581
sg17
g581
sg19
g20
sbag1
(g2
g3
Ntp582
Rp583
(dp584
g7
V709
p585
sg9
VTrevenant
p586
sg11
VSw,Sh,
p587
sg13
VWanderer
p588
sg15
V65
p589
sg17
g589
sg19
g20
sbag1
(g2
g3
Ntp590
Rp591
(dp592
g7
V333
p593
sg9
VSwablu
p594
sg11
VSw,Sh,
p595
sg13
VWanderer
p596
sg15
V60
p597
sg17
g597
sg19
g20
sbag1
(g2
g3
Ntp598
Rp599
(dp600
g7
V478
p601
sg9
VFroslass
p602
sg11
VSw,Sh,
p603
sg13
VWanderer
p604
sg15
V63
p605
sg17
g605
sg19
g20
sbag1
(g2
g3
Ntp606
Rp607
(dp608
g7
V698
p609
sg9
VAmaura
p610
sg11
VSw,Sh,
p611
sg13
VWanderer
p612
sg15
V60
p613
sg17
g613
sg19
g20
sbag1
(g2
g3
Ntp614
Rp615
(dp616
g7
V778
p617
sg9
VMimikyu
p618
sg11
VSw,Sh,
p619
sg13
VWanderer
p620
sg15
V62
p621
sg17
g621
sg19
g20
sbag1
(g2
g3
Ntp622
Rp623
(dp624
g7
V832
p625
sg9
VDubwool
p626
sg11
VSw,Sh,
p627
sg13
VWanderer
p628
sg15
V63
p629
sg17
g629
sg19
g20
sbag1
(g2
g3
Ntp630
Rp631
(dp632
g7
V467
p633
sg9
VMagmortar
p634
sg11
VSw,Sh,
p635
sg13
VWanderer
p636
sg15
V65
p637
sg17
g637
sg19
g20
sbag1
(g2
g3
Ntp638
Rp639
(dp640
g7
V478
p641
sg9
VFroslass
p642
sg11
VSw,Sh,
p643
sg13
VWanderer
p644
sg15
V63
p645
sg17
g645
sg19
g20
sbag1
(g2
g3
Ntp646
Rp647
(dp648
g7
V698
p649
sg9
VAmaura
p650
sg11
VSw,Sh,
p651
sg13
VWanderer
p652
sg15
V60
p653
sg17
g653
sg19
g20
sbag1
(g2
g3
Ntp654
Rp655
(dp656
g7
V857
p657
sg9
VHattrem
p658
sg11
VSw,Sh,
p659
sg13
VWanderer
p660
sg15
V62
p661
sg17
g661
sg19
g20
sbag1
(g2
g3
Ntp662
Rp663
(dp664
g7
V872
p665
sg9
VSnom
p666
sg11
VSw,Sh,
p667
sg13
VWanderer
p668
sg15
V60
p669
sg17
g669
sg19
g20
sbag1
(g2
g3
Ntp670
Rp671
(dp672
g7
V333
p673
sg9
VSwablu
p674
sg11
VSw,Sh,
p675
sg13
VWanderer
p676
sg15
V60
p677
sg17
g677
sg19
g20
sbag1
(g2
g3
Ntp678
Rp679
(dp680
g7
V362
p681
sg9
VGlalie
p682
sg11
VSw,Sh,
p683
sg13
VWanderer
p684
sg15
V63
p685
sg17
g685
sg19
g20
sbag1
(g2
g3
Ntp686
Rp687
(dp688
g7
V467
p689
sg9
VMagmortar
p690
sg11
VSw,Sh,
p691
sg13
VWanderer
p692
sg15
V65
p693
sg17
g693
sg19
g20
sbag1
(g2
g3
Ntp694
Rp695
(dp696
g7
V473
p697
sg9
VMamoswine
p698
sg11
VSw,Sh,
p699
sg13
VWanderer
p700
sg15
V65
p701
sg17
g701
sg19
g20
sbag1
(g2
g3
Ntp702
Rp703
(dp704
g7
V698
p705
sg9
VAmaura
p706
sg11
VSw,Sh,
p707
sg13
VWanderer
p708
sg15
V60
p709
sg17
g709
sg19
g20
sbag1
(g2
g3
Ntp710
Rp711
(dp712
g7
V872
p713
sg9
VSnom
p714
sg11
VSw,Sh,
p715
sg13
VWanderer
p716
sg15
V60
p717
sg17
g717
sg19
g20
sbag1
(g2
g3
Ntp718
Rp719
(dp720
g7
V531
p721
sg9
VAudino
p722
sg11
VSw,Sh,
p723
sg13
VWanderer
p724
sg15
V62
p725
sg17
g725
sg19
V0
p726
sbag1
(g2
g3
Ntp727
Rp728
(dp729
g7
V124
p730
sg9
VJynx
p731
sg11
VSw,Sh,
p732
sg13
VWanderer
p733
sg15
V62
p734
sg17
g734
sg19
g20
sbag1
(g2
g3
Ntp735
Rp736
(dp737
g7
V126
p738
sg9
VMagmar
p739
sg11
VSw,Sh,
p740
sg13
VWanderer
p741
sg15
V62
p742
sg17
g742
sg19
g20
sbag1
(g2
g3
Ntp743
Rp744
(dp745
g7
V333
p746
sg9
VSwablu
p747
sg11
VSw,Sh,
p748
sg13
VWanderer
p749
sg15
V60
p750
sg17
g750
sg19
g20
sbag1
(g2
g3
Ntp751
Rp752
(dp753
g7
V832
p754
sg9
VDubwool
p755
sg11
VSw,Sh,
p756
sg13
VWanderer
p757
sg15
V63
p758
sg17
g758
sg19
g20
sba.