(lp0
ccopy_reg
_reconstructor
p1
(c__main__
WildPokemon
p2
c__builtin__
object
p3
Ntp4
Rp5
(dp6
VpDexNo
p7
V041
p8
sVpSpecies
p9
VZubat
p10
sVpGames
p11
VG,S,C,
p12
sVpArea
p13
VCave
p14
sVpMinLevel
p15
V5
p16
sVpMaxLevel
p17
V8
p18
sVpRate
p19
V85
p20
sbag1
(g2
g3
Ntp21
Rp22
(dp23
g7
V079
p24
sg9
VSlowpoke
p25
sg11
VG,S,C,
p26
sg13
VCave
p27
sg15
V6
p28
sg17
g18
sg19
V15
p29
sbag1
(g2
g3
Ntp30
Rp31
(dp32
g7
V079
p33
sg9
VSlowpoke
p34
sg11
VG,S,C,
p35
sg13
VSurf
p36
sg15
V10
p37
sg17
V24
p38
sg19
V100
p39
sbag1
(g2
g3
Ntp40
Rp41
(dp42
g7
V118
p43
sg9
VGoldeen
p44
sg11
VG,S,C,
p45
sg13
VFish Old
p46
sg15
V10
p47
sg17
g47
sg19
V15
p48
sbag1
(g2
g3
Ntp49
Rp50
(dp51
g7
V129
p52
sg9
VMagikarp
p53
sg11
VG,S,C,
p54
sg13
VFish Old
p55
sg15
V10
p56
sg17
g56
sg19
V85
p57
sbag1
(g2
g3
Ntp58
Rp59
(dp60
g7
V118
p61
sg9
VGoldeen
p62
sg11
VG,S,C,
p63
sg13
VFish Good
p64
sg15
V20
p65
sg17
g65
sg19
V65
p66
sbag1
(g2
g3
Ntp67
Rp68
(dp69
g7
V129
p70
sg9
VMagikarp
p71
sg11
VG,S,C,
p72
sg13
VFish Good
p73
sg15
V20
p74
sg17
g74
sg19
V35
p75
sbag1
(g2
g3
Ntp76
Rp77
(dp78
g7
V118
p79
sg9
VGoldeen
p80
sg11
VG,S,C,
p81
sg13
VFish Super
p82
sg15
V40
p83
sg17
g83
sg19
V70
p84
sbag1
(g2
g3
Ntp85
Rp86
(dp87
g7
V119
p88
sg9
VSeaking
p89
sg11
VG,S,C,
p90
sg13
VFish Super
p91
sg15
V40
p92
sg17
g92
sg19
V10
p93
sbag1
(g2
g3
Ntp94
Rp95
(dp96
g7
V129
p97
sg9
VMagikarp
p98
sg11
VG,S,C,
p99
sg13
VFish Super
p100
sg15
V40
p101
sg17
g101
sg19
V20
p102
sbag1
(g2
g3
Ntp103
Rp104
(dp105
g7
V041
p106
sg9
VZubat
p107
sg11
VG,S,C,
p108
sg13
VCave
p109
sg15
V19
p110
sg17
V23
p111
sg19
V80
p112
sbag1
(g2
g3
Ntp113
Rp114
(dp115
g7
V042
p116
sg9
VGolbat
p117
sg11
VG,S,C,
p118
sg13
VCave
p119
sg15
V23
p120
sg17
g120
sg19
V5
p121
sbag1
(g2
g3
Ntp122
Rp123
(dp124
g7
V079
p125
sg9
VSlowpoke
p126
sg11
VG,S,C,
p127
sg13
VCave
p128
sg15
V21
p129
sg17
V23
p130
sg19
V15
p131
sbag1
(g2
g3
Ntp132
Rp133
(dp134
g7
V079
p135
sg9
VSlowpoke
p136
sg11
VG,S,C,
p137
sg13
VSurf
p138
sg15
V15
p139
sg17
V24
p140
sg19
V90
p141
sbag1
(g2
g3
Ntp142
Rp143
(dp144
g7
V080
p145
sg9
VSlowbro
p146
sg11
VG,S,C,
p147
sg13
VSurf
p148
sg15
V20
p149
sg17
V25
p150
sg19
V10
p151
sbag1
(g2
g3
Ntp152
Rp153
(dp154
g7
V118
p155
sg9
VGoldeen
p156
sg11
VG,S,C,
p157
sg13
VFish Old
p158
sg15
V10
p159
sg17
g159
sg19
V15
p160
sbag1
(g2
g3
Ntp161
Rp162
(dp163
g7
V129
p164
sg9
VMagikarp
p165
sg11
VG,S,C,
p166
sg13
VFish Old
p167
sg15
V10
p168
sg17
g168
sg19
V85
p169
sbag1
(g2
g3
Ntp170
Rp171
(dp172
g7
V118
p173
sg9
VGoldeen
p174
sg11
VG,S,C,
p175
sg13
VFish Good
p176
sg15
V20
p177
sg17
g177
sg19
V65
p178
sbag1
(g2
g3
Ntp179
Rp180
(dp181
g7
V129
p182
sg9
VMagikarp
p183
sg11
VG,S,C,
p184
sg13
VFish Good
p185
sg15
V20
p186
sg17
g186
sg19
V35
p187
sbag1
(g2
g3
Ntp188
Rp189
(dp190
g7
V118
p191
sg9
VGoldeen
p192
sg11
VG,S,C,
p193
sg13
VFish Super
p194
sg15
V40
p195
sg17
g195
sg19
V70
p196
sbag1
(g2
g3
Ntp197
Rp198
(dp199
g7
V119
p200
sg9
VSeaking
p201
sg11
VG,S,C,
p202
sg13
VFish Super
p203
sg15
V40
p204
sg17
g204
sg19
V10
p205
sbag1
(g2
g3
Ntp206
Rp207
(dp208
g7
V129
p209
sg9
VMagikarp
p210
sg11
VG,S,C,
p211
sg13
VFish Super
p212
sg15
V40
p213
sg17
g213
sg19
V20
p214
sbag1
(g2
g3
Ntp215
Rp216
(dp217
g7
V041
p218
sg9
VZubat
p219
sg11
VHG,SS,
p220
sg13
VCave
p221
sg15
g16
sg17
g18
sg19
V85
p222
sbag1
(g2
g3
Ntp223
Rp224
(dp225
g7
V079
p226
sg9
VSlowpoke
p227
sg11
VHG,SS,
p228
sg13
VCave
p229
sg15
g28
sg17
g18
sg19
V15
p230
sbag1
(g2
g3
Ntp231
Rp232
(dp233
g7
V079
p234
sg9
VSlowpoke
p235
sg11
VHG,SS,
p236
sg13
VSurf
p237
sg15
g16
sg17
V25
p238
sg19
V100
p239
sbag1
(g2
g3
Ntp240
Rp241
(dp242
g7
V118
p243
sg9
VGoldeen
p244
sg11
VHG,SS,
p245
sg13
VFish Old
p246
sg15
V10
p247
sg17
g247
sg19
V15
p248
sbag1
(g2
g3
Ntp249
Rp250
(dp251
g7
V129
p252
sg9
VMagikarp
p253
sg11
VHG,SS,
p254
sg13
VFish Old
p255
sg15
V10
p256
sg17
g256
sg19
V85
p257
sbag1
(g2
g3
Ntp258
Rp259
(dp260
g7
V118
p261
sg9
VGoldeen
p262
sg11
VHG,SS,
p263
sg13
VFish Good
p264
sg15
V20
p265
sg17
g265
sg19
V60
p266
sbag1
(g2
g3
Ntp267
Rp268
(dp269
g7
V129
p270
sg9
VMagikarp
p271
sg11
VHG,SS,
p272
sg13
VFish Good
p273
sg15
V20
p274
sg17
g274
sg19
V40
p275
sbag1
(g2
g3
Ntp276
Rp277
(dp278
g7
V118
p279
sg9
VGoldeen
p280
sg11
VHG,SS,
p281
sg13
VFish Super
p282
sg15
V40
p283
sg17
g283
sg19
V70
p284
sbag1
(g2
g3
Ntp285
Rp286
(dp287
g7
V119
p288
sg9
VSeaking
p289
sg11
VHG,SS,
p290
sg13
VFish Super
p291
sg15
V40
p292
sg17
g292
sg19
V10
p293
sbag1
(g2
g3
Ntp294
Rp295
(dp296
g7
V129
p297
sg9
VMagikarp
p298
sg11
VHG,SS,
p299
sg13
VFish Super
p300
sg15
V40
p301
sg17
g301
sg19
V20
p302
sbag1
(g2
g3
Ntp303
Rp304
(dp305
g7
V296
p306
sg9
VMakuhita
p307
sg11
VHG,SS,
p308
sg13
VHoenn
p309
sg15
V7
p310
sg17
g310
sg19
V20
p311
sbag1
(g2
g3
Ntp312
Rp313
(dp314
g7
V359
p315
sg9
VAbsol
p316
sg11
VHG,SS,
p317
sg13
VHoenn
p318
sg15
g16
sg17
g28
sg19
V20
p319
sbag1
(g2
g3
Ntp320
Rp321
(dp322
g7
V433
p323
sg9
VChingling
p324
sg11
VHG,SS,
p325
sg13
VSinnoh
p326
sg15
g310
sg17
g310
sg19
V20
p327
sbag1
(g2
g3
Ntp328
Rp329
(dp330
g7
V436
p331
sg9
VBronzor
p332
sg11
VHG,SS,
p333
sg13
VSinnoh
p334
sg15
g16
sg17
g16
sg19
V20
p335
sbag1
(g2
g3
Ntp336
Rp337
(dp338
g7
V041
p339
sg9
VZubat
p340
sg11
VHG,SS,
p341
sg13
VCave
p342
sg15
V19
p343
sg17
V23
p344
sg19
V80
p345
sbag1
(g2
g3
Ntp346
Rp347
(dp348
g7
V042
p349
sg9
VGolbat
p350
sg11
VHG,SS,
p351
sg13
VCave
p352
sg15
V23
p353
sg17
g353
sg19
V5
p354
sbag1
(g2
g3
Ntp355
Rp356
(dp357
g7
V079
p358
sg9
VSlowpoke
p359
sg11
VHG,SS,
p360
sg13
VCave
p361
sg15
V21
p362
sg17
V23
p363
sg19
V15
p364
sbag1
(g2
g3
Ntp365
Rp366
(dp367
g7
V079
p368
sg9
VSlowpoke
p369
sg11
VHG,SS,
p370
sg13
VSurf
p371
sg15
V10
p372
sg17
V25
p373
sg19
V90
p374
sbag1
(g2
g3
Ntp375
Rp376
(dp377
g7
V080
p378
sg9
VSlowbro
p379
sg11
VHG,SS,
p380
sg13
VSurf
p381
sg15
V15
p382
sg17
V30
p383
sg19
V10
p384
sbag1
(g2
g3
Ntp385
Rp386
(dp387
g7
V118
p388
sg9
VGoldeen
p389
sg11
VHG,SS,
p390
sg13
VFish Old
p391
sg15
V10
p392
sg17
g392
sg19
V15
p393
sbag1
(g2
g3
Ntp394
Rp395
(dp396
g7
V129
p397
sg9
VMagikarp
p398
sg11
VHG,SS,
p399
sg13
VFish Old
p400
sg15
V10
p401
sg17
g401
sg19
V85
p402
sbag1
(g2
g3
Ntp403
Rp404
(dp405
g7
V118
p406
sg9
VGoldeen
p407
sg11
VHG,SS,
p408
sg13
VFish Good
p409
sg15
V20
p410
sg17
g410
sg19
V60
p411
sbag1
(g2
g3
Ntp412
Rp413
(dp414
g7
V129
p415
sg9
VMagikarp
p416
sg11
VHG,SS,
p417
sg13
VFish Good
p418
sg15
V20
p419
sg17
g419
sg19
V40
p420
sbag1
(g2
g3
Ntp421
Rp422
(dp423
g7
V118
p424
sg9
VGoldeen
p425
sg11
VHG,SS,
p426
sg13
VFish Super
p427
sg15
V40
p428
sg17
g428
sg19
V70
p429
sbag1
(g2
g3
Ntp430
Rp431
(dp432
g7
V119
p433
sg9
VSeaking
p434
sg11
VHG,SS,
p435
sg13
VFish Super
p436
sg15
V40
p437
sg17
g437
sg19
V10
p438
sbag1
(g2
g3
Ntp439
Rp440
(dp441
g7
V129
p442
sg9
VMagikarp
p443
sg11
VHG,SS,
p444
sg13
VFish Super
p445
sg15
V40
p446
sg17
g446
sg19
V20
p447
sbag1
(g2
g3
Ntp448
Rp449
(dp450
g7
V296
p451
sg9
VMakuhita
p452
sg11
VHG,SS,
p453
sg13
VHoenn
p454
sg15
V19
p455
sg17
g455
sg19
V20
p456
sbag1
(g2
g3
Ntp457
Rp458
(dp459
g7
V359
p460
sg9
VAbsol
p461
sg11
VHG,SS,
p462
sg13
VHoenn
p463
sg15
V21
p464
sg17
V23
p465
sg19
V20
p466
sbag1
(g2
g3
Ntp467
Rp468
(dp469
g7
V433
p470
sg9
VChingling
p471
sg11
VHG,SS,
p472
sg13
VSinnoh
p473
sg15
V19
p474
sg17
g474
sg19
V20
p475
sbag1
(g2
g3
Ntp476
Rp477
(dp478
g7
V436
p479
sg9
VBronzor
p480
sg11
VHG,SS,
p481
sg13
VSinnoh
p482
sg15
V21
p483
sg17
V23
p484
sg19
V20
p485
sba.