(lp0
ccopy_reg
_reconstructor
p1
(c__main__
WildPokemon
p2
c__builtin__
object
p3
Ntp4
Rp5
(dp6
VpDexNo
p7
V163
p8
sVpSpecies
p9
VHoothoot
p10
sVpGames
p11
VSw,Sh,
p12
sVpArea
p13
VGrass
p14
sVpMinLevel
p15
V2
p16
sVpMaxLevel
p17
V3
p18
sVpRate
p19
V15
p20
sbag1
(g2
g3
Ntp21
Rp22
(dp23
g7
V736
p24
sg9
VGrubbin
p25
sg11
VSw,Sh,
p26
sg13
VGrass
p27
sg15
g16
sg17
g18
sg19
V5
p28
sbag1
(g2
g3
Ntp29
Rp30
(dp31
g7
V819
p32
sg9
VSkwovet
p33
sg11
VSw,Sh,
p34
sg13
VGrass
p35
sg15
g16
sg17
g18
sg19
V50
p36
sbag1
(g2
g3
Ntp37
Rp38
(dp39
g7
V821
p40
sg9
VRookidee
p41
sg11
VSw,Sh,
p42
sg13
VGrass
p43
sg15
g16
sg17
g18
sg19
V20
p44
sbag1
(g2
g3
Ntp45
Rp46
(dp47
g7
V824
p48
sg9
VBlipbug
p49
sg11
VSw,Sh,
p50
sg13
VGrass
p51
sg15
g16
sg17
g18
sg19
V10
p52
sbag1
(g2
g3
Ntp53
Rp54
(dp55
g7
V012
p56
sg9
VButterfree
p57
sg11
VSw,Sh,
p58
sg13
VGrass
p59
sg15
V45
p60
sg17
V47
p61
sg19
V5
p62
sbag1
(g2
g3
Ntp63
Rp64
(dp65
g7
V110
p66
sg9
VWeezing
p67
sg11
VSw,Sh,
p68
sg13
VGrass
p69
sg15
V45
p70
sg17
V47
p71
sg19
V30
p72
sbag1
(g2
g3
Ntp73
Rp74
(dp75
g7
V517
p76
sg9
VMunna
p77
sg11
VSw,Sh,
p78
sg13
VGrass
p79
sg15
V45
p80
sg17
V47
p81
sg19
V25
p82
sbag1
(g2
g3
Ntp83
Rp84
(dp85
g7
V618
p86
sg9
VStunfisk
p87
sg11
VSw,Sh,
p88
sg13
VGrass
p89
sg15
V45
p90
sg17
V47
p91
sg19
V5
p92
sbag1
(g2
g3
Ntp93
Rp94
(dp95
g7
V823
p96
sg9
VCorviknight
p97
sg11
VSw,Sh,
p98
sg13
VGrass
p99
sg15
V45
p100
sg17
V47
p101
sg19
V20
p102
sbag1
(g2
g3
Ntp103
Rp104
(dp105
g7
V826
p106
sg9
VOrbeetle
p107
sg11
VSw,Sh,
p108
sg13
VGrass
p109
sg15
V45
p110
sg17
V47
p111
sg19
V15
p112
sbag1
(g2
g3
Ntp113
Rp114
(dp115
g7
V129
p116
sg9
VMagikarp
p117
sg11
VSw,Sh,
p118
sg13
VFishing
p119
sg15
V45
p120
sg17
V47
p121
sg19
V20
p122
sbag1
(g2
g3
Ntp123
Rp124
(dp125
g7
V339
p126
sg9
VBarboach
p127
sg11
VSw,Sh,
p128
sg13
VFishing
p129
sg15
V45
p130
sg17
V47
p131
sg19
V20
p132
sbag1
(g2
g3
Ntp133
Rp134
(dp135
g7
V340
p136
sg9
VWhiscash
p137
sg11
VSw,Sh,
p138
sg13
VFishing
p139
sg15
V45
p140
sg17
V47
p141
sg19
V60
p142
sbag1
(g2
g3
Ntp143
Rp144
(dp145
g7
V736
p146
sg9
VGrubbin
p147
sg11
VSw,Sh,
p148
sg13
VGrass
p149
sg15
g16
sg17
g18
sg19
V10
p150
sbag1
(g2
g3
Ntp151
Rp152
(dp153
g7
V819
p154
sg9
VSkwovet
p155
sg11
VSw,Sh,
p156
sg13
VGrass
p157
sg15
g16
sg17
g18
sg19
V40
p158
sbag1
(g2
g3
Ntp159
Rp160
(dp161
g7
V821
p162
sg9
VRookidee
p163
sg11
VSw,Sh,
p164
sg13
VGrass
p165
sg15
g16
sg17
g18
sg19
V30
p166
sbag1
(g2
g3
Ntp167
Rp168
(dp169
g7
V824
p170
sg9
VBlipbug
p171
sg11
VSw,Sh,
p172
sg13
VGrass
p173
sg15
g16
sg17
g18
sg19
V20
p174
sbag1
(g2
g3
Ntp175
Rp176
(dp177
g7
V110
p178
sg9
VWeezing
p179
sg11
VSw,Sh,
p180
sg13
VGrass
p181
sg15
V45
p182
sg17
V47
p183
sg19
V50
p184
sbag1
(g2
g3
Ntp185
Rp186
(dp187
g7
V517
p188
sg9
VMunna
p189
sg11
VSw,Sh,
p190
sg13
VGrass
p191
sg15
V45
p192
sg17
V47
p193
sg19
V30
p194
sbag1
(g2
g3
Ntp195
Rp196
(dp197
g7
V823
p198
sg9
VCorviknight
p199
sg11
VSw,Sh,
p200
sg13
VGrass
p201
sg15
V45
p202
sg17
V47
p203
sg19
V5
p204
sbag1
(g2
g3
Ntp205
Rp206
(dp207
g7
V826
p208
sg9
VOrbeetle
p209
sg11
VSw,Sh,
p210
sg13
VGrass
p211
sg15
V45
p212
sg17
V47
p213
sg19
V15
p214
sbag1
(g2
g3
Ntp215
Rp216
(dp217
g7
V819
p218
sg9
VSkwovet
p219
sg11
VSw,Sh,
p220
sg13
VGrass
p221
sg15
g16
sg17
g16
sg19
V0
p222
sbag1
(g2
g3
Ntp223
Rp224
(dp225
g7
V819
p226
sg9
VSkwovet
p227
sg11
VSw,Sh,
p228
sg13
VGrass
p229
sg15
g18
sg17
g18
sg19
V0
p230
sbag1
(g2
g3
Ntp231
Rp232
(dp233
g7
V821
p234
sg9
VRookidee
p235
sg11
VSw,Sh,
p236
sg13
VGrass
p237
sg15
g16
sg17
g16
sg19
V0
p238
sbag1
(g2
g3
Ntp239
Rp240
(dp241
g7
V888
p242
sg9
VZacian
p243
sg11
VSw,
p244
sg13
VSpecial
p245
sg15
V???<!
p246
sg17
V
p247
sg19
V0
p248
sbag1
(g2
g3
Ntp249
Rp250
(dp251
g7
V889
p252
sg9
VZamazenta
p253
sg11
VSh,
p254
sg13
VSpecial
p255
sg15
V???<!
p256
sg17
g247
sg19
V0
p257
sba.