(lp0
ccopy_reg
_reconstructor
p1
(c__main__
WildPokemon
p2
c__builtin__
object
p3
Ntp4
Rp5
(dp6
VpDexNo
p7
V240
p8
sVpSpecies
p9
VMagby
p10
sVpGames
p11
VSw,Sh,
p12
sVpArea
p13
VGrass
p14
sVpMinLevel
p15
V60
p16
sVpMaxLevel
p17
V65
p18
sVpRate
p19
V0
p20
sbag1
(g2
g3
Ntp21
Rp22
(dp23
g7
V374
p24
sg9
VBeldum
p25
sg11
VSw,Sh,
p26
sg13
VGrass
p27
sg15
V60
p28
sg17
V65
p29
sg19
g20
sbag1
(g2
g3
Ntp30
Rp31
(dp32
g7
V439
p33
sg9
VMime Jr.
p34
sg11
VSw,Sh,
p35
sg13
VGrass
p36
sg15
V60
p37
sg17
V65
p38
sg19
g20
sbag1
(g2
g3
Ntp39
Rp40
(dp41
g7
V582
p42
sg9
VVanillite
p43
sg11
VSw,Sh,
p44
sg13
VGrass
p45
sg15
V60
p46
sg17
V65
p47
sg19
g20
sbag1
(g2
g3
Ntp48
Rp49
(dp50
g7
V708
p51
sg9
VPhantump
p52
sg11
VSw,Sh,
p53
sg13
VGrass
p54
sg15
V60
p55
sg17
V65
p56
sg19
g20
sbag1
(g2
g3
Ntp57
Rp58
(dp59
g7
V831
p60
sg9
VWooloo
p61
sg11
VSw,Sh,
p62
sg13
VGrass
p63
sg15
V60
p64
sg17
V65
p65
sg19
g20
sbag1
(g2
g3
Ntp66
Rp67
(dp68
g7
V872
p69
sg9
VSnom
p70
sg11
VSw,Sh,
p71
sg13
VGrass
p72
sg15
V60
p73
sg17
V65
p74
sg19
g20
sbag1
(g2
g3
Ntp75
Rp76
(dp77
g7
V129
p78
sg9
VMagikarp
p79
sg11
VSw,Sh,
p80
sg13
VFishing
p81
sg15
V60
p82
sg17
V65
p83
sg19
V45
p84
sbag1
(g2
g3
Ntp85
Rp86
(dp87
g7
V130
p88
sg9
VGyarados
p89
sg11
VSw,Sh,
p90
sg13
VFishing
p91
sg15
V60
p92
sg17
V65
p93
sg19
V15
p94
sbag1
(g2
g3
Ntp95
Rp96
(dp97
g7
V550
p98
sg9
VBasculin
p99
sg11
VSw,
p100
sg13
VFishing
p101
sg15
V60
p102
sg17
V65
p103
sg19
V40
p104
sbag1
(g2
g3
Ntp105
Rp106
(dp107
g7
V550
p108
sg9
VBasculin
p109
sg11
VSh,
p110
sg13
VFishing
p111
sg15
V60
p112
sg17
V65
p113
sg19
V40
p114
sbag1
(g2
g3
Ntp115
Rp116
(dp117
g7
V035
p118
sg9
VClefairy
p119
sg11
VSw,Sh,
p120
sg13
VGrass
p121
sg15
V60
p122
sg17
V65
p123
sg19
g20
sbag1
(g2
g3
Ntp124
Rp125
(dp126
g7
V126
p127
sg9
VMagmar
p128
sg11
VSw,Sh,
p129
sg13
VGrass
p130
sg15
V60
p131
sg17
V65
p132
sg19
g20
sbag1
(g2
g3
Ntp133
Rp134
(dp135
g7
V215
p136
sg9
VSneasel
p137
sg11
VSw,Sh,
p138
sg13
VGrass
p139
sg15
V60
p140
sg17
V65
p141
sg19
g20
sbag1
(g2
g3
Ntp142
Rp143
(dp144
g7
V225
p145
sg9
VDelibird
p146
sg11
VSw,Sh,
p147
sg13
VGrass
p148
sg15
V60
p149
sg17
V65
p150
sg19
g20
sbag1
(g2
g3
Ntp151
Rp152
(dp153
g7
V359
p154
sg9
VAbsol
p155
sg11
VSw,Sh,
p156
sg13
VGrass
p157
sg15
V60
p158
sg17
V65
p159
sg19
g20
sbag1
(g2
g3
Ntp160
Rp161
(dp162
g7
V361
p163
sg9
VSnorunt
p164
sg11
VSw,Sh,
p165
sg13
VGrass
p166
sg15
V60
p167
sg17
V65
p168
sg19
g20
sbag1
(g2
g3
Ntp169
Rp170
(dp171
g7
V374
p172
sg9
VBeldum
p173
sg11
g100
sg13
VGrass
p174
sg15
V60
p175
sg17
V65
p176
sg19
g20
sbag1
(g2
g3
Ntp177
Rp178
(dp179
g7
V374
p180
sg9
VBeldum
p181
sg11
g110
sg13
VGrass
p182
sg15
V60
p183
sg17
V65
p184
sg19
g20
sbag1
(g2
g3
Ntp185
Rp186
(dp187
g7
V531
p188
sg9
VAudino
p189
sg11
VSw,Sh,
p190
sg13
VGrass
p191
sg15
V60
p192
sg17
V65
p193
sg19
g20
sbag1
(g2
g3
Ntp194
Rp195
(dp196
g7
V554
p197
sg9
VDarumaka
p198
sg11
g100
sg13
VGrass
p199
sg15
V60
p200
sg17
V65
p201
sg19
g20
sbag1
(g2
g3
Ntp202
Rp203
(dp204
g7
V583
p205
sg9
VVanillish
p206
sg11
VSw,Sh,
p207
sg13
VGrass
p208
sg15
V60
p209
sg17
V65
p210
sg19
g20
sbag1
(g2
g3
Ntp211
Rp212
(dp213
g7
V614
p214
sg9
VBeartic
p215
sg11
VSw,Sh,
p216
sg13
VGrass
p217
sg15
V60
p218
sg17
V65
p219
sg19
g20
sbag1
(g2
g3
Ntp220
Rp221
(dp222
g7
V615
p223
sg9
VCryogonal
p224
sg11
VSw,Sh,
p225
sg13
VGrass
p226
sg15
V60
p227
sg17
V65
p228
sg19
g20
sbag1
(g2
g3
Ntp229
Rp230
(dp231
g7
V621
p232
sg9
VDruddigon
p233
sg11
VSw,Sh,
p234
sg13
VGrass
p235
sg15
V60
p236
sg17
V65
p237
sg19
g20
sbag1
(g2
g3
Ntp238
Rp239
(dp240
g7
V698
p241
sg9
VAmaura
p242
sg11
VSw,Sh,
p243
sg13
VGrass
p244
sg15
V60
p245
sg17
V65
p246
sg19
g20
sbag1
(g2
g3
Ntp247
Rp248
(dp249
g7
V708
p250
sg9
VPhantump
p251
sg11
VSw,Sh,
p252
sg13
VGrass
p253
sg15
V60
p254
sg17
V65
p255
sg19
g20
sbag1
(g2
g3
Ntp256
Rp257
(dp258
g7
V778
p259
sg9
VMimikyu
p260
sg11
VSw,Sh,
p261
sg13
VGrass
p262
sg15
V60
p263
sg17
V65
p264
sg19
g20
sbag1
(g2
g3
Ntp265
Rp266
(dp267
g7
V832
p268
sg9
VDubwool
p269
sg11
VSw,Sh,
p270
sg13
VGrass
p271
sg15
V60
p272
sg17
V65
p273
sg19
g20
sbag1
(g2
g3
Ntp274
Rp275
(dp276
g7
V860
p277
sg9
VMorgrem
p278
sg11
VSw,Sh,
p279
sg13
VGrass
p280
sg15
V60
p281
sg17
V65
p282
sg19
g20
sbag1
(g2
g3
Ntp283
Rp284
(dp285
g7
V872
p286
sg9
VSnom
p287
sg11
g100
sg13
VGrass
p288
sg15
V60
p289
sg17
V65
p290
sg19
g20
sbag1
(g2
g3
Ntp291
Rp292
(dp293
g7
V872
p294
sg9
VSnom
p295
sg11
g110
sg13
VGrass
p296
sg15
V60
p297
sg17
V65
p298
sg19
g20
sbag1
(g2
g3
Ntp299
Rp300
(dp301
g7
V615
p302
sg9
VCryogonal
p303
sg11
VSw,Sh,
p304
sg13
VWanderer
p305
sg15
V65
p306
sg17
g306
sg19
g20
sbag1
(g2
g3
Ntp307
Rp308
(dp309
g7
V698
p310
sg9
VAmaura
p311
sg11
VSw,Sh,
p312
sg13
VWanderer
p313
sg15
V62
p314
sg17
g314
sg19
g20
sbag1
(g2
g3
Ntp315
Rp316
(dp317
g7
V832
p318
sg9
VDubwool
p319
sg11
VSw,Sh,
p320
sg13
VWanderer
p321
sg15
V65
p322
sg17
g322
sg19
g20
sbag1
(g2
g3
Ntp323
Rp324
(dp325
g7
V872
p326
sg9
VSnom
p327
sg11
VSw,Sh,
p328
sg13
VWanderer
p329
sg15
V62
p330
sg17
g330
sg19
g20
sbag1
(g2
g3
Ntp331
Rp332
(dp333
g7
V036
p334
sg9
VClefable
p335
sg11
VSw,Sh,
p336
sg13
VWanderer
p337
sg15
V65
p338
sg17
g338
sg19
g20
sbag1
(g2
g3
Ntp339
Rp340
(dp341
g7
V126
p342
sg9
VMagmar
p343
sg11
VSw,Sh,
p344
sg13
VWanderer
p345
sg15
V65
p346
sg17
g346
sg19
g20
sbag1
(g2
g3
Ntp347
Rp348
(dp349
g7
V362
p350
sg9
VGlalie
p351
sg11
VSw,Sh,
p352
sg13
VWanderer
p353
sg15
V67
p354
sg17
g354
sg19
g20
sbag1
(g2
g3
Ntp355
Rp356
(dp357
g7
V584
p358
sg9
VVanilluxe
p359
sg11
VSw,Sh,
p360
sg13
VWanderer
p361
sg15
V67
p362
sg17
g362
sg19
g20
sbag1
(g2
g3
Ntp363
Rp364
(dp365
g7
V698
p366
sg9
VAmaura
p367
sg11
VSw,Sh,
p368
sg13
VWanderer
p369
sg15
V62
p370
sg17
g370
sg19
g20
sbag1
(g2
g3
Ntp371
Rp372
(dp373
g7
V872
p374
sg9
VSnom
p375
sg11
VSw,Sh,
p376
sg13
VWanderer
p377
sg15
V62
p378
sg17
g378
sg19
g20
sbag1
(g2
g3
Ntp379
Rp380
(dp381
g7
V359
p382
sg9
VAbsol
p383
sg11
VSw,Sh,
p384
sg13
VWanderer
p385
sg15
V67
p386
sg17
g386
sg19
g20
sbag1
(g2
g3
Ntp387
Rp388
(dp389
g7
V461
p390
sg9
VWeavile
p391
sg11
VSw,Sh,
p392
sg13
VWanderer
p393
sg15
V65
p394
sg17
g394
sg19
g20
sbag1
(g2
g3
Ntp395
Rp396
(dp397
g7
V615
p398
sg9
VCryogonal
p399
sg11
VSw,Sh,
p400
sg13
VWanderer
p401
sg15
V65
p402
sg17
g402
sg19
g20
sbag1
(g2
g3
Ntp403
Rp404
(dp405
g7
V621
p406
sg9
VDruddigon
p407
sg11
VSw,Sh,
p408
sg13
VWanderer
p409
sg15
V65
p410
sg17
g410
sg19
g20
sbag1
(g2
g3
Ntp411
Rp412
(dp413
g7
V778
p414
sg9
VMimikyu
p415
sg11
VSw,Sh,
p416
sg13
VWanderer
p417
sg15
V65
p418
sg17
g418
sg19
g20
sbag1
(g2
g3
Ntp419
Rp420
(dp421
g7
V126
p422
sg9
VMagmar
p423
sg11
VSw,Sh,
p424
sg13
VWanderer
p425
sg15
V65
p426
sg17
g426
sg19
g20
sbag1
(g2
g3
Ntp427
Rp428
(dp429
g7
V362
p430
sg9
VGlalie
p431
sg11
VSw,Sh,
p432
sg13
VWanderer
p433
sg15
V67
p434
sg17
g434
sg19
g20
sbag1
(g2
g3
Ntp435
Rp436
(dp437
g7
V375
p438
sg9
VMetang
p439
sg11
VSw,Sh,
p440
sg13
VWanderer
p441
sg15
V63
p442
sg17
g442
sg19
g20
sbag1
(g2
g3
Ntp443
Rp444
(dp445
g7
V614
p446
sg9
VBeartic
p447
sg11
VSw,Sh,
p448
sg13
VWanderer
p449
sg15
V67
p450
sg17
g450
sg19
g20
sbag1
(g2
g3
Ntp451
Rp452
(dp453
g7
V709
p454
sg9
VTrevenant
p455
sg11
VSw,Sh,
p456
sg13
VWanderer
p457
sg15
V65
p458
sg17
g458
sg19
g20
sbag1
(g2
g3
Ntp459
Rp460
(dp461
g7
V872
p462
sg9
VSnom
p463
sg11
VSw,Sh,
p464
sg13
VWanderer
p465
sg15
V62
p466
sg17
g466
sg19
g20
sbag1
(g2
g3
Ntp467
Rp468
(dp469
g7
V375
p470
sg9
VMetang
p471
sg11
VSw,Sh,
p472
sg13
VWanderer
p473
sg15
V63
p474
sg17
g474
sg19
g20
sbag1
(g2
g3
Ntp475
Rp476
(dp477
g7
V832
p478
sg9
VDubwool
p479
sg11
VSw,Sh,
p480
sg13
VWanderer
p481
sg15
V65
p482
sg17
g482
sg19
g20
sbag1
(g2
g3
Ntp483
Rp484
(dp485
g7
V359
p486
sg9
VAbsol
p487
sg11
VSw,Sh,
p488
sg13
VWanderer
p489
sg15
V67
p490
sg17
g490
sg19
g20
sbag1
(g2
g3
Ntp491
Rp492
(dp493
g7
V375
p494
sg9
VMetang
p495
sg11
VSw,Sh,
p496
sg13
VWanderer
p497
sg15
V63
p498
sg17
g498
sg19
g20
sbag1
(g2
g3
Ntp499
Rp500
(dp501
g7
V461
p502
sg9
VWeavile
p503
sg11
VSw,Sh,
p504
sg13
VWanderer
p505
sg15
V65
p506
sg17
g506
sg19
g20
sbag1
(g2
g3
Ntp507
Rp508
(dp509
g7
V584
p510
sg9
VVanilluxe
p511
sg11
VSw,Sh,
p512
sg13
VWanderer
p513
sg15
V67
p514
sg17
g514
sg19
g20
sbag1
(g2
g3
Ntp515
Rp516
(dp517
g7
V861
p518
sg9
VGrimmsnarl
p519
sg11
VSw,Sh,
p520
sg13
VWanderer
p521
sg15
V67
p522
sg17
g522
sg19
g20
sbag1
(g2
g3
Ntp523
Rp524
(dp525
g7
V467
p526
sg9
VMagmortar
p527
sg11
VSw,Sh,
p528
sg13
VWanderer
p529
sg15
V67
p530
sg17
g530
sg19
g20
sbag1
(g2
g3
Ntp531
Rp532
(dp533
g7
V478
p534
sg9
VFroslass
p535
sg11
VSw,Sh,
p536
sg13
VWanderer
p537
sg15
V65
p538
sg17
g538
sg19
g20
sbag1
(g2
g3
Ntp539
Rp540
(dp541
g7
V699
p542
sg9
VAurorus
p543
sg11
VSw,Sh,
p544
sg13
VWanderer
p545
sg15
V65
p546
sg17
g546
sg19
g20
sbag1
(g2
g3
Ntp547
Rp548
(dp549
g7
V778
p550
sg9
VMimikyu
p551
sg11
VSw,Sh,
p552
sg13
VWanderer
p553
sg15
V65
p554
sg17
g554
sg19
g20
sbag1
(g2
g3
Ntp555
Rp556
(dp557
g7
V036
p558
sg9
VClefable
p559
sg11
VSw,Sh,
p560
sg13
VWanderer
p561
sg15
V65
p562
sg17
g562
sg19
g20
sbag1
(g2
g3
Ntp563
Rp564
(dp565
g7
V126
p566
sg9
VMagmar
p567
sg11
VSw,Sh,
p568
sg13
VWanderer
p569
sg15
V65
p570
sg17
g570
sg19
g20
sbag1
(g2
g3
Ntp571
Rp572
(dp573
g7
V614
p574
sg9
VBeartic
p575
sg11
VSw,Sh,
p576
sg13
VWanderer
p577
sg15
V67
p578
sg17
g578
sg19
g20
sbag1
(g2
g3
Ntp579
Rp580
(dp581
g7
V621
p582
sg9
VDruddigon
p583
sg11
VSw,Sh,
p584
sg13
VWanderer
p585
sg15
V65
p586
sg17
g586
sg19
g20
sbag1
(g2
g3
Ntp587
Rp588
(dp589
g7
V709
p590
sg9
VTrevenant
p591
sg11
VSw,Sh,
p592
sg13
VWanderer
p593
sg15
V65
p594
sg17
g594
sg19
g20
sbag1
(g2
g3
Ntp595
Rp596
(dp597
g7
V375
p598
sg9
VMetang
p599
sg11
VSw,Sh,
p600
sg13
VWanderer
p601
sg15
V63
p602
sg17
g602
sg19
g20
sbag1
(g2
g3
Ntp603
Rp604
(dp605
g7
V461
p606
sg9
VWeavile
p607
sg11
VSw,Sh,
p608
sg13
VWanderer
p609
sg15
V65
p610
sg17
g610
sg19
g20
sbag1
(g2
g3
Ntp611
Rp612
(dp613
g7
V478
p614
sg9
VFroslass
p615
sg11
VSw,Sh,
p616
sg13
VWanderer
p617
sg15
V65
p618
sg17
g618
sg19
g20
sbag1
(g2
g3
Ntp619
Rp620
(dp621
g7
V778
p622
sg9
VMimikyu
p623
sg11
VSw,Sh,
p624
sg13
VWanderer
p625
sg15
V65
p626
sg17
g626
sg19
g20
sbag1
(g2
g3
Ntp627
Rp628
(dp629
g7
V375
p630
sg9
VMetang
p631
sg11
VSw,Sh,
p632
sg13
VWanderer
p633
sg15
V63
p634
sg17
g634
sg19
g20
sbag1
(g2
g3
Ntp635
Rp636
(dp637
g7
V832
p638
sg9
VDubwool
p639
sg11
VSw,Sh,
p640
sg13
VWanderer
p641
sg15
V65
p642
sg17
g642
sg19
g20
sbag1
(g2
g3
Ntp643
Rp644
(dp645
g7
V362
p646
sg9
VGlalie
p647
sg11
g100
sg13
VWanderer
p648
sg15
V67
p649
sg17
g649
sg19
g20
sbag1
(g2
g3
Ntp650
Rp651
(dp652
g7
V362
p653
sg9
VGlalie
p654
sg11
g110
sg13
VWanderer
p655
sg15
V67
p656
sg17
g656
sg19
g20
sbag1
(g2
g3
Ntp657
Rp658
(dp659
g7
V376
p660
sg9
VMetagross
p661
sg11
VSw,Sh,
p662
sg13
VWanderer
p663
sg15
V68
p664
sg17
g664
sg19
g20
sbag1
(g2
g3
Ntp665
Rp666
(dp667
g7
V461
p668
sg9
VWeavile
p669
sg11
VSw,Sh,
p670
sg13
VWanderer
p671
sg15
V65
p672
sg17
g672
sg19
g20
sbag1
(g2
g3
Ntp673
Rp674
(dp675
g7
V555
p676
sg9
VDarmanitan
p677
sg11
g100
sg13
VWanderer
p678
sg15
V67
p679
sg17
g679
sg19
g20
sbag1
(g2
g3
Ntp680
Rp681
(dp682
g7
V621
p683
sg9
VDruddigon
p684
sg11
VSw,Sh,
p685
sg13
VWanderer
p686
sg15
V65
p687
sg17
g687
sg19
g20
sbag1
(g2
g3
Ntp688
Rp689
(dp690
g7
V126
p691
sg9
VMagmar
p692
sg11
VSw,Sh,
p693
sg13
VWanderer
p694
sg15
V65
p695
sg17
g695
sg19
g20
sbag1
(g2
g3
Ntp696
Rp697
(dp698
g7
V359
p699
sg9
VAbsol
p700
sg11
VSw,Sh,
p701
sg13
VWanderer
p702
sg15
V67
p703
sg17
g703
sg19
g20
sbag1
(g2
g3
Ntp704
Rp705
(dp706
g7
V375
p707
sg9
VMetang
p708
sg11
VSw,Sh,
p709
sg13
VWanderer
p710
sg15
V63
p711
sg17
g711
sg19
g20
sbag1
(g2
g3
Ntp712
Rp713
(dp714
g7
V584
p715
sg9
VVanilluxe
p716
sg11
VSw,Sh,
p717
sg13
VWanderer
p718
sg15
V67
p719
sg17
g719
sg19
g20
sbag1
(g2
g3
Ntp720
Rp721
(dp722
g7
V872
p723
sg9
VSnom
p724
sg11
VSw,Sh,
p725
sg13
VWanderer
p726
sg15
V62
p727
sg17
g727
sg19
g20
sbag1
(g2
g3
Ntp728
Rp729
(dp730
g7
V375
p731
sg9
VMetang
p732
sg11
VSw,Sh,
p733
sg13
VWanderer
p734
sg15
V63
p735
sg17
g735
sg19
g20
sbag1
(g2
g3
Ntp736
Rp737
(dp738
g7
V461
p739
sg9
VWeavile
p740
sg11
VSw,Sh,
p741
sg13
VWanderer
p742
sg15
V65
p743
sg17
g743
sg19
g20
sbag1
(g2
g3
Ntp744
Rp745
(dp746
g7
V709
p747
sg9
VTrevenant
p748
sg11
VSw,Sh,
p749
sg13
VWanderer
p750
sg15
V65
p751
sg17
g751
sg19
g20
sbag1
(g2
g3
Ntp752
Rp753
(dp754
g7
V778
p755
sg9
VMimikyu
p756
sg11
VSw,Sh,
p757
sg13
VWanderer
p758
sg15
V65
p759
sg17
g759
sg19
g20
sbag1
(g2
g3
Ntp760
Rp761
(dp762
g7
V036
p763
sg9
VClefable
p764
sg11
VSw,Sh,
p765
sg13
VWanderer
p766
sg15
V65
p767
sg17
g767
sg19
g20
sbag1
(g2
g3
Ntp768
Rp769
(dp770
g7
V461
p771
sg9
VWeavile
p772
sg11
VSw,Sh,
p773
sg13
VWanderer
p774
sg15
V65
p775
sg17
g775
sg19
g20
sbag1
(g2
g3
Ntp776
Rp777
(dp778
g7
V614
p779
sg9
VBeartic
p780
sg11
VSw,Sh,
p781
sg13
VWanderer
p782
sg15
V67
p783
sg17
g783
sg19
g20
sbag1
(g2
g3
Ntp784
Rp785
(dp786
g7
V615
p787
sg9
VCryogonal
p788
sg11
VSw,Sh,
p789
sg13
VWanderer
p790
sg15
V65
p791
sg17
g791
sg19
g20
sbag1
(g2
g3
Ntp792
Rp793
(dp794
g7
V709
p795
sg9
VTrevenant
p796
sg11
VSw,Sh,
p797
sg13
VWanderer
p798
sg15
V65
p799
sg17
g799
sg19
g20
sbag1
(g2
g3
Ntp800
Rp801
(dp802
g7
V832
p803
sg9
VDubwool
p804
sg11
VSw,Sh,
p805
sg13
VWanderer
p806
sg15
V65
p807
sg17
g807
sg19
g20
sbag1
(g2
g3
Ntp808
Rp809
(dp810
g7
V375
p811
sg9
VMetang
p812
sg11
VSw,Sh,
p813
sg13
VWanderer
p814
sg15
V63
p815
sg17
g815
sg19
g20
sbag1
(g2
g3
Ntp816
Rp817
(dp818
g7
V467
p819
sg9
VMagmortar
p820
sg11
VSw,Sh,
p821
sg13
VWanderer
p822
sg15
V67
p823
sg17
g823
sg19
g20
sbag1
(g2
g3
Ntp824
Rp825
(dp826
g7
V614
p827
sg9
VBeartic
p828
sg11
VSw,Sh,
p829
sg13
VWanderer
p830
sg15
V67
p831
sg17
g831
sg19
g20
sbag1
(g2
g3
Ntp832
Rp833
(dp834
g7
V699
p835
sg9
VAurorus
p836
sg11
VSw,Sh,
p837
sg13
VWanderer
p838
sg15
V65
p839
sg17
g839
sg19
g20
sbag1
(g2
g3
Ntp840
Rp841
(dp842
g7
V861
p843
sg9
VGrimmsnarl
p844
sg11
VSw,Sh,
p845
sg13
VWanderer
p846
sg15
V67
p847
sg17
g847
sg19
g20
sbag1
(g2
g3
Ntp848
Rp849
(dp850
g7
V376
p851
sg9
VMetagross
p852
sg11
VSw,Sh,
p853
sg13
VWanderer
p854
sg15
V68
p855
sg17
g855
sg19
g20
sbag1
(g2
g3
Ntp856
Rp857
(dp858
g7
V699
p859
sg9
VAurorus
p860
sg11
VSw,Sh,
p861
sg13
VWanderer
p862
sg15
V65
p863
sg17
g863
sg19
g20
sbag1
(g2
g3
Ntp864
Rp865
(dp866
g7
V126
p867
sg9
VMagmar
p868
sg11
VSw,Sh,
p869
sg13
VWanderer
p870
sg15
V65
p871
sg17
g871
sg19
g20
sbag1
(g2
g3
Ntp872
Rp873
(dp874
g7
V362
p875
sg9
VGlalie
p876
sg11
VSw,Sh,
p877
sg13
VWanderer
p878
sg15
V67
p879
sg17
g879
sg19
g20
sbag1
(g2
g3
Ntp880
Rp881
(dp882
g7
V375
p883
sg9
VMetang
p884
sg11
VSw,Sh,
p885
sg13
VWanderer
p886
sg15
V63
p887
sg17
g887
sg19
g20
sbag1
(g2
g3
Ntp888
Rp889
(dp890
g7
V614
p891
sg9
VBeartic
p892
sg11
VSw,Sh,
p893
sg13
VWanderer
p894
sg15
V67
p895
sg17
g895
sg19
g20
sbag1
(g2
g3
Ntp896
Rp897
(dp898
g7
V621
p899
sg9
VDruddigon
p900
sg11
VSw,Sh,
p901
sg13
VWanderer
p902
sg15
V65
p903
sg17
g903
sg19
g20
sbag1
(g2
g3
Ntp904
Rp905
(dp906
g7
V709
p907
sg9
VTrevenant
p908
sg11
VSw,Sh,
p909
sg13
VWanderer
p910
sg15
V65
p911
sg17
g911
sg19
g20
sbag1
(g2
g3
Ntp912
Rp913
(dp914
g7
V036
p915
sg9
VClefable
p916
sg11
VSw,Sh,
p917
sg13
VWanderer
p918
sg15
V65
p919
sg17
g919
sg19
g20
sbag1
(g2
g3
Ntp920
Rp921
(dp922
g7
V375
p923
sg9
VMetang
p924
sg11
VSw,Sh,
p925
sg13
VWanderer
p926
sg15
V63
p927
sg17
g927
sg19
g20
sbag1
(g2
g3
Ntp928
Rp929
(dp930
g7
V615
p931
sg9
VCryogonal
p932
sg11
VSw,Sh,
p933
sg13
VWanderer
p934
sg15
V65
p935
sg17
g935
sg19
g20
sbag1
(g2
g3
Ntp936
Rp937
(dp938
g7
V375
p939
sg9
VMetang
p940
sg11
VSw,Sh,
p941
sg13
VWanderer
p942
sg15
V63
p943
sg17
g943
sg19
g20
sbag1
(g2
g3
Ntp944
Rp945
(dp946
g7
V614
p947
sg9
VBeartic
p948
sg11
VSw,Sh,
p949
sg13
VWanderer
p950
sg15
V67
p951
sg17
g951
sg19
g20
sbag1
(g2
g3
Ntp952
Rp953
(dp954
g7
V709
p955
sg9
VTrevenant
p956
sg11
VSw,Sh,
p957
sg13
VWanderer
p958
sg15
V65
p959
sg17
g959
sg19
g20
sbag1
(g2
g3
Ntp960
Rp961
(dp962
g7
V832
p963
sg9
VDubwool
p964
sg11
VSw,Sh,
p965
sg13
VWanderer
p966
sg15
V65
p967
sg17
g967
sg19
g20
sbag1
(g2
g3
Ntp968
Rp969
(dp970
g7
V376
p971
sg9
VMetagross
p972
sg11
VSw,Sh,
p973
sg13
VWanderer
p974
sg15
V68
p975
sg17
g975
sg19
g20
sbag1
(g2
g3
Ntp976
Rp977
(dp978
g7
V467
p979
sg9
VMagmortar
p980
sg11
VSw,Sh,
p981
sg13
VWanderer
p982
sg15
V67
p983
sg17
g983
sg19
g20
sbag1
(g2
g3
Ntp984
Rp985
(dp986
g7
V615
p987
sg9
VCryogonal
p988
sg11
VSw,Sh,
p989
sg13
VWanderer
p990
sg15
V65
p991
sg17
g991
sg19
g20
sbag1
(g2
g3
Ntp992
Rp993
(dp994
g7
V709
p995
sg9
VTrevenant
p996
sg11
VSw,Sh,
p997
sg13
VWanderer
p998
sg15
V65
p999
sg17
g999
sg19
g20
sbag1
(g2
g3
Ntp1000
Rp1001
(dp1002
g7
V778
p1003
sg9
VMimikyu
p1004
sg11
VSw,Sh,
p1005
sg13
VWanderer
p1006
sg15
V65
p1007
sg17
g1007
sg19
g20
sbag1
(g2
g3
Ntp1008
Rp1009
(dp1010
g7
V832
p1011
sg9
VDubwool
p1012
sg11
VSw,Sh,
p1013
sg13
VWanderer
p1014
sg15
V65
p1015
sg17
g1015
sg19
g20
sbag1
(g2
g3
Ntp1016
Rp1017
(dp1018
g7
V615
p1019
sg9
VCryogonal
p1020
sg11
VSw,Sh,
p1021
sg13
VWanderer
p1022
sg15
V65
p1023
sg17
g1023
sg19
g20
sbag1
(g2
g3
Ntp1024
Rp1025
(dp1026
g7
V621
p1027
sg9
VDruddigon
p1028
sg11
VSw,Sh,
p1029
sg13
VWanderer
p1030
sg15
V65
p1031
sg17
g1031
sg19
g20
sbag1
(g2
g3
Ntp1032
Rp1033
(dp1034
g7
V709
p1035
sg9
VTrevenant
p1036
sg11
VSw,Sh,
p1037
sg13
VWanderer
p1038
sg15
V65
p1039
sg17
g1039
sg19
g20
sbag1
(g2
g3
Ntp1040
Rp1041
(dp1042
g7
V778
p1043
sg9
VMimikyu
p1044
sg11
VSw,Sh,
p1045
sg13
VWanderer
p1046
sg15
V65
p1047
sg17
g1047
sg19
g20
sbag1
(g2
g3
Ntp1048
Rp1049
(dp1050
g7
V832
p1051
sg9
VDubwool
p1052
sg11
VSw,Sh,
p1053
sg13
VWanderer
p1054
sg15
V65
p1055
sg17
g1055
sg19
g20
sba.