(lp0
ccopy_reg
_reconstructor
p1
(c__main__
WildPokemon
p2
c__builtin__
object
p3
Ntp4
Rp5
(dp6
VpDexNo
p7
V042
p8
sVpSpecies
p9
VGolbat
p10
sVpGames
p11
VD,P,
p12
sVpArea
p13
VCave
p14
sVpMinLevel
p15
V50
p16
sVpMaxLevel
p17
V52
p18
sVpRate
p19
V35
p20
sbag1
(g2
g3
Ntp21
Rp22
(dp23
g7
V042
p24
sg9
VGolbat
p25
sg11
VPt,
p26
sg13
VCave
p27
sg15
V47
p28
sg17
V50
p29
sg19
V80
p30
sbag1
(g2
g3
Ntp31
Rp32
(dp33
g7
V075
p34
sg9
VGraveler
p35
sg11
VD,P,
p36
sg13
VCave
p37
sg15
V52
p38
sg17
g38
sg19
V10
p39
sbag1
(g2
g3
Ntp40
Rp41
(dp42
g7
V095
p43
sg9
VOnix
p44
sg11
VD,P,
p45
sg13
VCave
p46
sg15
V50
p47
sg17
V52
p48
sg19
V15
p49
sbag1
(g2
g3
Ntp50
Rp51
(dp52
g7
V208
p53
sg9
VSteelix
p54
sg11
VD,P,
p55
sg13
VCave
p56
sg15
V52
p57
sg17
g57
sg19
V5
p58
sbag1
(g2
g3
Ntp59
Rp60
(dp61
g7
V215
p62
sg9
VSneasel
p63
sg11
VD,P,
p64
sg13
VCave
p65
sg15
V50
p66
sg17
V52
p67
sg19
V35
p68
sbag1
(g2
g3
Ntp69
Rp70
(dp71
g7
V215
p72
sg9
VSneasel
p73
sg11
g26
sg13
VCave
p74
sg15
V49
p75
sg17
g75
sg19
V10
p76
sbag1
(g2
g3
Ntp77
Rp78
(dp79
g7
V238
p80
sg9
VSmoochum
p81
sg11
g26
sg13
VCave
p82
sg15
V47
p83
sg17
V49
p84
sg19
V10
p85
sbag1
(g2
g3
Ntp86
Rp87
(dp88
g7
V042
p89
sg9
VGolbat
p90
sg11
VD,P,
p91
sg13
VCave
p92
sg15
V52
p93
sg17
V54
p94
sg19
V35
p95
sbag1
(g2
g3
Ntp96
Rp97
(dp98
g7
V042
p99
sg9
VGolbat
p100
sg11
g26
sg13
VCave
p101
sg15
V47
p102
sg17
V50
p103
sg19
V80
p104
sbag1
(g2
g3
Ntp105
Rp106
(dp107
g7
V075
p108
sg9
VGraveler
p109
sg11
VD,P,
p110
sg13
VCave
p111
sg15
V54
p112
sg17
g112
sg19
V10
p113
sbag1
(g2
g3
Ntp114
Rp115
(dp116
g7
V095
p117
sg9
VOnix
p118
sg11
VD,P,
p119
sg13
VCave
p120
sg15
V52
p121
sg17
V53
p122
sg19
V5
p123
sbag1
(g2
g3
Ntp124
Rp125
(dp126
g7
V124
p127
sg9
VJynx
p128
sg11
g26
sg13
VCave
p129
sg15
V47
p130
sg17
V49
p131
sg19
V10
p132
sbag1
(g2
g3
Ntp133
Rp134
(dp135
g7
V208
p136
sg9
VSteelix
p137
sg11
VD,P,
p138
sg13
VCave
p139
sg15
V53
p140
sg17
V54
p141
sg19
V15
p142
sbag1
(g2
g3
Ntp143
Rp144
(dp145
g7
V215
p146
sg9
VSneasel
p147
sg11
VD,P,
p148
sg13
VCave
p149
sg15
V52
p150
sg17
V54
p151
sg19
V35
p152
sbag1
(g2
g3
Ntp153
Rp154
(dp155
g7
V215
p156
sg9
VSneasel
p157
sg11
g26
sg13
VCave
p158
sg15
V49
p159
sg17
g159
sg19
V10
p160
sbag1
(g2
g3
Ntp161
Rp162
(dp163
g7
V042
p164
sg9
VGolbat
p165
sg11
VD,P,
p166
sg13
VCave
p167
sg15
V52
p168
sg17
V54
p169
sg19
V35
p170
sbag1
(g2
g3
Ntp171
Rp172
(dp173
g7
V042
p174
sg9
VGolbat
p175
sg11
g26
sg13
VCave
p176
sg15
V47
p177
sg17
V50
p178
sg19
V80
p179
sbag1
(g2
g3
Ntp180
Rp181
(dp182
g7
V075
p183
sg9
VGraveler
p184
sg11
VD,P,
p185
sg13
VCave
p186
sg15
V54
p187
sg17
g187
sg19
V10
p188
sbag1
(g2
g3
Ntp189
Rp190
(dp191
g7
V095
p192
sg9
VOnix
p193
sg11
VD,P,
p194
sg13
VCave
p195
sg15
V52
p196
sg17
V53
p197
sg19
V5
p198
sbag1
(g2
g3
Ntp199
Rp200
(dp201
g7
V124
p202
sg9
VJynx
p203
sg11
g26
sg13
VCave
p204
sg15
V48
p205
sg17
V50
p206
sg19
V10
p207
sbag1
(g2
g3
Ntp208
Rp209
(dp210
g7
V208
p211
sg9
VSteelix
p212
sg11
VD,P,
p213
sg13
VCave
p214
sg15
V53
p215
sg17
V54
p216
sg19
V15
p217
sbag1
(g2
g3
Ntp218
Rp219
(dp220
g7
V215
p221
sg9
VSneasel
p222
sg11
VD,P,
p223
sg13
VCave
p224
sg15
V52
p225
sg17
V54
p226
sg19
V35
p227
sbag1
(g2
g3
Ntp228
Rp229
(dp230
g7
V215
p231
sg9
VSneasel
p232
sg11
g26
sg13
VCave
p233
sg15
V50
p234
sg17
g234
sg19
V10
p235
sbag1
(g2
g3
Ntp236
Rp237
(dp238
g7
V042
p239
sg9
VGolbat
p240
sg11
VD,P,
p241
sg13
VCave
p242
sg15
V54
p243
sg17
V56
p244
sg19
V35
p245
sbag1
(g2
g3
Ntp246
Rp247
(dp248
g7
V042
p249
sg9
VGolbat
p250
sg11
g26
sg13
VCave
p251
sg15
V47
p252
sg17
V50
p253
sg19
V80
p254
sbag1
(g2
g3
Ntp255
Rp256
(dp257
g7
V075
p258
sg9
VGraveler
p259
sg11
VD,P,
p260
sg13
VCave
p261
sg15
V56
p262
sg17
g262
sg19
V10
p263
sbag1
(g2
g3
Ntp264
Rp265
(dp266
g7
V124
p267
sg9
VJynx
p268
sg11
g26
sg13
VCave
p269
sg15
V49
p270
sg17
V51
p271
sg19
V10
p272
sbag1
(g2
g3
Ntp273
Rp274
(dp275
g7
V208
p276
sg9
VSteelix
p277
sg11
VD,P,
p278
sg13
VCave
p279
sg15
V54
p280
sg17
V56
p281
sg19
V20
p282
sbag1
(g2
g3
Ntp283
Rp284
(dp285
g7
V215
p286
sg9
VSneasel
p287
sg11
VD,P,
p288
sg13
VCave
p289
sg15
V54
p290
sg17
V56
p291
sg19
V35
p292
sbag1
(g2
g3
Ntp293
Rp294
(dp295
g7
V215
p296
sg9
VSneasel
p297
sg11
g26
sg13
VCave
p298
sg15
V51
p299
sg17
g299
sg19
V10
p300
sbag1
(g2
g3
Ntp301
Rp302
(dp303
g7
V486
p304
sg9
VRegigigas
p305
sg11
VD,P,
p306
sg13
VSpecial
p307
sg15
V70
p308
sg17
g308
sg19
V0
p309
sbag1
(g2
g3
Ntp310
Rp311
(dp312
g7
V486
p313
sg9
VRegigigas
p314
sg11
g26
sg13
VSpecial
p315
sg15
V1
p316
sg17
g316
sg19
V0
p317
sba.