(lp0
ccopy_reg
_reconstructor
p1
(c__main__
WildPokemon
p2
c__builtin__
object
p3
Ntp4
Rp5
(dp6
VpDexNo
p7
V198
p8
sVpSpecies
p9
VMurkrow
p10
sVpGames
p11
VOR,AS,
p12
sVpArea
p13
VFlocks
p14
sVpMinLevel
p15
V45
p16
sVpMaxLevel
p17
g16
sVpRate
p18
V0
p19
sbag1
(g2
g3
Ntp20
Rp21
(dp22
g7
V276
p23
sg9
VTaillow
p24
sg11
VOR,AS,
p25
sg13
VFlocks
p26
sg15
V40
p27
sg17
g27
sg18
V0
p28
sbag1
(g2
g3
Ntp29
Rp30
(dp31
g7
V278
p32
sg9
VWingull
p33
sg11
VOR,AS,
p34
sg13
VFlocks
p35
sg15
V40
p36
sg17
g36
sg18
V0
p37
sbag1
(g2
g3
Ntp38
Rp39
(dp40
g7
V279
p41
sg9
VPelipper
p42
sg11
VOR,AS,
p43
sg13
VFlocks
p44
sg15
V40
p45
sg17
g45
sg18
V0
p46
sbag1
(g2
g3
Ntp47
Rp48
(dp49
g7
V333
p50
sg9
VSwablu
p51
sg11
VOR,AS,
p52
sg13
VFlocks
p53
sg15
V40
p54
sg17
g54
sg18
V0
p55
sbag1
(g2
g3
Ntp56
Rp57
(dp58
g7
V425
p59
sg9
VDrifloon
p60
sg11
VOR,AS,
p61
sg13
VFlocks
p62
sg15
V45
p63
sg17
g63
sg18
V0
p64
sbag1
(g2
g3
Ntp65
Rp66
(dp67
g7
V628
p68
sg9
VBraviary
p69
sg11
VOR,AS,
p70
sg13
VFlocks
p71
sg15
V45
p72
sg17
g72
sg18
V0
p73
sbag1
(g2
g3
Ntp74
Rp75
(dp76
g7
V483
p77
sg9
VDialga
p78
sg11
VAS,
p79
sg13
VSpecial
p80
sg15
V50
p81
sg17
g81
sg18
V0
p82
sbag1
(g2
g3
Ntp83
Rp84
(dp85
g7
V484
p86
sg9
VPalkia
p87
sg11
VOR,
p88
sg13
VSpecial
p89
sg15
V50
p90
sg17
g90
sg18
V0
p91
sbag1
(g2
g3
Ntp92
Rp93
(dp94
g7
V487
p95
sg9
VGiratina
p96
sg11
VOR,AS,
p97
sg13
VSpecial
p98
sg15
V50
p99
sg17
g99
sg18
V0
p100
sbag1
(g2
g3
Ntp101
Rp102
(dp103
g7
V641
p104
sg9
VTornadus
p105
sg11
g88
sg13
VSpecial
p106
sg15
V50
p107
sg17
g107
sg18
V0
p108
sbag1
(g2
g3
Ntp109
Rp110
(dp111
g7
V642
p112
sg9
VThundurus
p113
sg11
g79
sg13
VSpecial
p114
sg15
V50
p115
sg17
g115
sg18
V0
p116
sbag1
(g2
g3
Ntp117
Rp118
(dp119
g7
V645
p120
sg9
VLandorus
p121
sg11
VOR,AS,
p122
sg13
VSpecial
p123
sg15
V50
p124
sg17
g124
sg18
V0
p125
sba.