(lp0
ccopy_reg
_reconstructor
p1
(c__main__
WildPokemon
p2
c__builtin__
object
p3
Ntp4
Rp5
(dp6
VpDexNo
p7
V201
p8
sVpSpecies
p9
VUnown
p10
sVpGames
p11
VD,P,Pt,
p12
sVpArea
p13
VCave
p14
sVpMinLevel
p15
V14
p16
sVpMaxLevel
p17
V30
p18
sVpRate
p19
V100
p20
sbag1
(g2
g3
Ntp21
Rp22
(dp23
g7
V201
p24
sg9
VUnown
p25
sg11
VD,P,Pt,
p26
sg13
VCave
p27
sg15
V14
p28
sg17
V30
p29
sg19
V100
p30
sbag1
(g2
g3
Ntp31
Rp32
(dp33
g7
V201
p34
sg9
VUnown
p35
sg11
VD,P,Pt,
p36
sg13
VCave
p37
sg15
V14
p38
sg17
V30
p39
sg19
V100
p40
sbag1
(g2
g3
Ntp41
Rp42
(dp43
g7
V201
p44
sg9
VUnown
p45
sg11
VD,P,Pt,
p46
sg13
VCave
p47
sg15
V14
p48
sg17
V30
p49
sg19
V100
p50
sbag1
(g2
g3
Ntp51
Rp52
(dp53
g7
V201
p54
sg9
VUnown
p55
sg11
VD,P,Pt,
p56
sg13
VCave
p57
sg15
V14
p58
sg17
V30
p59
sg19
V100
p60
sbag1
(g2
g3
Ntp61
Rp62
(dp63
g7
V201
p64
sg9
VUnown
p65
sg11
VD,P,Pt,
p66
sg13
VCave
p67
sg15
V14
p68
sg17
V30
p69
sg19
V100
p70
sbag1
(g2
g3
Ntp71
Rp72
(dp73
g7
V201
p74
sg9
VUnown
p75
sg11
VD,P,Pt,
p76
sg13
VCave
p77
sg15
V14
p78
sg17
V30
p79
sg19
V5
p80
sbag1
(g2
g3
Ntp81
Rp82
(dp83
g7
V201
p84
sg9
VUnown
p85
sg11
VD,P,Pt,
p86
sg13
VCave
p87
sg15
V14
p88
sg17
V30
p89
sg19
V5
p90
sbag1
(g2
g3
Ntp91
Rp92
(dp93
g7
V201
p94
sg9
VUnown
p95
sg11
VD,P,Pt,
p96
sg13
VCave
p97
sg15
V14
p98
sg17
V30
p99
sg19
V5
p100
sbag1
(g2
g3
Ntp101
Rp102
(dp103
g7
V201
p104
sg9
VUnown
p105
sg11
VD,P,Pt,
p106
sg13
VCave
p107
sg15
V14
p108
sg17
V30
p109
sg19
V5
p110
sbag1
(g2
g3
Ntp111
Rp112
(dp113
g7
V201
p114
sg9
VUnown
p115
sg11
VD,P,Pt,
p116
sg13
VCave
p117
sg15
V14
p118
sg17
V30
p119
sg19
V5
p120
sbag1
(g2
g3
Ntp121
Rp122
(dp123
g7
V201
p124
sg9
VUnown
p125
sg11
VD,P,Pt,
p126
sg13
VCave
p127
sg15
V14
p128
sg17
V30
p129
sg19
V5
p130
sbag1
(g2
g3
Ntp131
Rp132
(dp133
g7
V201
p134
sg9
VUnown
p135
sg11
VD,P,Pt,
p136
sg13
VCave
p137
sg15
V14
p138
sg17
V30
p139
sg19
V5
p140
sbag1
(g2
g3
Ntp141
Rp142
(dp143
g7
V201
p144
sg9
VUnown
p145
sg11
VD,P,Pt,
p146
sg13
VCave
p147
sg15
V14
p148
sg17
V30
p149
sg19
V5
p150
sbag1
(g2
g3
Ntp151
Rp152
(dp153
g7
V201
p154
sg9
VUnown
p155
sg11
VD,P,Pt,
p156
sg13
VCave
p157
sg15
V14
p158
sg17
V30
p159
sg19
V5
p160
sbag1
(g2
g3
Ntp161
Rp162
(dp163
g7
V201
p164
sg9
VUnown
p165
sg11
VD,P,Pt,
p166
sg13
VCave
p167
sg15
V14
p168
sg17
V30
p169
sg19
V5
p170
sbag1
(g2
g3
Ntp171
Rp172
(dp173
g7
V201
p174
sg9
VUnown
p175
sg11
VD,P,Pt,
p176
sg13
VCave
p177
sg15
V14
p178
sg17
V30
p179
sg19
V5
p180
sbag1
(g2
g3
Ntp181
Rp182
(dp183
g7
V201
p184
sg9
VUnown
p185
sg11
VD,P,Pt,
p186
sg13
VCave
p187
sg15
V14
p188
sg17
V30
p189
sg19
V5
p190
sbag1
(g2
g3
Ntp191
Rp192
(dp193
g7
V201
p194
sg9
VUnown
p195
sg11
VD,P,Pt,
p196
sg13
VCave
p197
sg15
V14
p198
sg17
V30
p199
sg19
V5
p200
sbag1
(g2
g3
Ntp201
Rp202
(dp203
g7
V201
p204
sg9
VUnown
p205
sg11
VD,P,Pt,
p206
sg13
VCave
p207
sg15
V14
p208
sg17
V30
p209
sg19
V5
p210
sbag1
(g2
g3
Ntp211
Rp212
(dp213
g7
V201
p214
sg9
VUnown
p215
sg11
VD,P,Pt,
p216
sg13
VCave
p217
sg15
V14
p218
sg17
V30
p219
sg19
V5
p220
sbag1
(g2
g3
Ntp221
Rp222
(dp223
g7
V201
p224
sg9
VUnown
p225
sg11
VD,P,Pt,
p226
sg13
VCave
p227
sg15
V14
p228
sg17
V30
p229
sg19
V5
p230
sbag1
(g2
g3
Ntp231
Rp232
(dp233
g7
V201
p234
sg9
VUnown
p235
sg11
VD,P,Pt,
p236
sg13
VCave
p237
sg15
V14
p238
sg17
V30
p239
sg19
V5
p240
sbag1
(g2
g3
Ntp241
Rp242
(dp243
g7
V201
p244
sg9
VUnown
p245
sg11
VD,P,Pt,
p246
sg13
VCave
p247
sg15
V14
p248
sg17
V30
p249
sg19
V5
p250
sbag1
(g2
g3
Ntp251
Rp252
(dp253
g7
V201
p254
sg9
VUnown
p255
sg11
VD,P,Pt,
p256
sg13
VCave
p257
sg15
V14
p258
sg17
V30
p259
sg19
V5
p260
sbag1
(g2
g3
Ntp261
Rp262
(dp263
g7
V201
p264
sg9
VUnown
p265
sg11
VD,P,Pt,
p266
sg13
VCave
p267
sg15
V14
p268
sg17
V30
p269
sg19
V5
p270
sbag1
(g2
g3
Ntp271
Rp272
(dp273
g7
V201
p274
sg9
VUnown
p275
sg11
VD,P,Pt,
p276
sg13
VCave
p277
sg15
V14
p278
sg17
V30
p279
sg19
V50
p280
sbag1
(g2
g3
Ntp281
Rp282
(dp283
g7
V201
p284
sg9
VUnown
p285
sg11
VD,P,Pt,
p286
sg13
VCave
p287
sg15
V14
p288
sg17
V30
p289
sg19
V50
p290
sba.