(lp0
ccopy_reg
_reconstructor
p1
(c__main__
WildPokemon
p2
c__builtin__
object
p3
Ntp4
Rp5
(dp6
VpDexNo
p7
V129
p8
sVpSpecies
p9
VMagikarp
p10
sVpGames
p11
VRu,S,E,
p12
sVpArea
p13
VSurf
p14
sVpMinLevel
p15
V5
p16
sVpMaxLevel
p17
V35
p18
sVpRate
p19
V100
p20
sbag1
(g2
g3
Ntp21
Rp22
(dp23
g7
V072
p24
sg9
VTentacool
p25
sg11
VRu,S,E,
p26
sg13
VFish Old
p27
sg15
g16
sg17
V10
p28
sg19
V30
p29
sbag1
(g2
g3
Ntp30
Rp31
(dp32
g7
V129
p33
sg9
VMagikarp
p34
sg11
VRu,S,E,
p35
sg13
VFish Old
p36
sg15
g16
sg17
V10
p37
sg19
V70
p38
sbag1
(g2
g3
Ntp39
Rp40
(dp41
g7
V129
p42
sg9
VMagikarp
p43
sg11
VRu,S,E,
p44
sg13
VFish Good
p45
sg15
V10
p46
sg17
V30
p47
sg19
V100
p48
sbag1
(g2
g3
Ntp49
Rp50
(dp51
g7
V129
p52
sg9
VMagikarp
p53
sg11
VRu,S,E,
p54
sg13
VFish Super
p55
sg15
V30
p56
sg17
V35
p57
sg19
V80
p58
sbag1
(g2
g3
Ntp59
Rp60
(dp61
g7
V130
p62
sg9
VGyarados
p63
sg11
VRu,S,E,
p64
sg13
VFish Super
p65
sg15
g16
sg17
V45
p66
sg19
V20
p67
sbag1
(g2
g3
Ntp68
Rp69
(dp70
g7
V129
p71
sg9
VMagikarp
p72
sg11
VOR,AS,
p73
sg13
VSurf
p74
sg15
V25
p75
sg17
V35
p76
sg19
V100
p77
sbag1
(g2
g3
Ntp78
Rp79
(dp80
g7
V129
p81
sg9
VMagikarp
p82
sg11
VOR,AS,
p83
sg13
VFish Old
p84
sg15
g16
sg17
V15
p85
sg19
V100
p86
sbag1
(g2
g3
Ntp87
Rp88
(dp89
g7
V129
p90
sg9
VMagikarp
p91
sg11
VOR,AS,
p92
sg13
VFish Good
p93
sg15
V25
p94
sg17
g94
sg19
V100
p95
sbag1
(g2
g3
Ntp96
Rp97
(dp98
g7
V129
p99
sg9
VMagikarp
p100
sg11
VOR,AS,
p101
sg13
VFish Super
p102
sg15
V30
p103
sg17
V35
p104
sg19
V95
p105
sbag1
(g2
g3
Ntp106
Rp107
(dp108
g7
V130
p109
sg9
VGyarados
p110
sg11
VOR,AS,
p111
sg13
VFish Super
p112
sg15
V40
p113
sg17
g113
sg19
V5
p114
sba.