(lp0
ccopy_reg
_reconstructor
p1
(c__main__
WildPokemon
p2
c__builtin__
object
p3
Ntp4
Rp5
(dp6
VpDexNo
p7
V037
p8
sVpSpecies
p9
VVulpix
p10
sVpGames
p11
VSw,
p12
sVpArea
p13
VGrass
p14
sVpMinLevel
p15
V11
p16
sVpMaxLevel
p17
V13
p18
sVpRate
p19
V0
p20
sbag1
(g2
g3
Ntp21
Rp22
(dp23
g7
V058
p24
sg9
VGrowlithe
p25
sg11
VSh,
p26
sg13
VGrass
p27
sg15
V11
p28
sg17
V13
p29
sg19
g20
sbag1
(g2
g3
Ntp30
Rp31
(dp32
g7
V066
p33
sg9
VMachop
p34
sg11
VSw,Sh,
p35
sg13
VGrass
p36
sg15
V11
p37
sg17
V13
p38
sg19
g20
sbag1
(g2
g3
Ntp39
Rp40
(dp41
g7
V177
p42
sg9
VNatu
p43
sg11
VSw,Sh,
p44
sg13
VGrass
p45
sg15
V11
p46
sg17
V13
p47
sg19
g20
sbag1
(g2
g3
Ntp48
Rp49
(dp50
g7
V194
p51
sg9
VWooper
p52
sg11
VSw,Sh,
p53
sg13
VGrass
p54
sg15
V11
p55
sg17
V13
p56
sg19
g20
sbag1
(g2
g3
Ntp57
Rp58
(dp59
g7
V236
p60
sg9
VTyrogue
p61
sg11
VSw,Sh,
p62
sg13
VGrass
p63
sg15
V11
p64
sg17
V13
p65
sg19
g20
sbag1
(g2
g3
Ntp66
Rp67
(dp68
g7
V278
p69
sg9
VWingull
p70
sg11
VSw,Sh,
p71
sg13
VGrass
p72
sg15
V11
p73
sg17
V13
p74
sg19
g20
sbag1
(g2
g3
Ntp75
Rp76
(dp77
g7
V280
p78
sg9
VRalts
p79
sg11
VSw,Sh,
p80
sg13
VGrass
p81
sg15
V11
p82
sg17
V13
p83
sg19
g20
sbag1
(g2
g3
Ntp84
Rp85
(dp86
g7
V290
p87
sg9
VNincada
p88
sg11
VSw,Sh,
p89
sg13
VGrass
p90
sg15
V11
p91
sg17
V13
p92
sg19
g20
sbag1
(g2
g3
Ntp93
Rp94
(dp95
g7
V309
p96
sg9
VElectrike
p97
sg11
VSw,Sh,
p98
sg13
VGrass
p99
sg15
V11
p100
sg17
V13
p101
sg19
g20
sbag1
(g2
g3
Ntp102
Rp103
(dp104
g7
V315
p105
sg9
VRoselia
p106
sg11
VSw,Sh,
p107
sg13
VGrass
p108
sg15
V11
p109
sg17
V13
p110
sg19
g20
sbag1
(g2
g3
Ntp111
Rp112
(dp113
g7
V341
p114
sg9
VCorphish
p115
sg11
VSw,Sh,
p116
sg13
VGrass
p117
sg15
V11
p118
sg17
V13
p119
sg19
g20
sbag1
(g2
g3
Ntp120
Rp121
(dp122
g7
V343
p123
sg9
VBaltoy
p124
sg11
VSw,Sh,
p125
sg13
VGrass
p126
sg15
V11
p127
sg17
V13
p128
sg19
g20
sbag1
(g2
g3
Ntp129
Rp130
(dp131
g7
V361
p132
sg9
VSnorunt
p133
sg11
VSw,Sh,
p134
sg13
VGrass
p135
sg15
V11
p136
sg17
V13
p137
sg19
g20
sbag1
(g2
g3
Ntp138
Rp139
(dp140
g7
V459
p141
sg9
VSnover
p142
sg11
VSw,Sh,
p143
sg13
VGrass
p144
sg15
V11
p145
sg17
V13
p146
sg19
g20
sbag1
(g2
g3
Ntp147
Rp148
(dp149
g7
V535
p150
sg9
VTympole
p151
sg11
VSw,Sh,
p152
sg13
VGrass
p153
sg15
V11
p154
sg17
V13
p155
sg19
g20
sbag1
(g2
g3
Ntp156
Rp157
(dp158
g7
V582
p159
sg9
VVanillite
p160
sg11
VSw,Sh,
p161
sg13
VGrass
p162
sg15
V11
p163
sg17
V13
p164
sg19
g20
sbag1
(g2
g3
Ntp165
Rp166
(dp167
g7
V595
p168
sg9
VJoltik
p169
sg11
VSw,Sh,
p170
sg13
VGrass
p171
sg15
V11
p172
sg17
V13
p173
sg19
g20
sbag1
(g2
g3
Ntp174
Rp175
(dp176
g7
V599
p177
sg9
VKlink
p178
sg11
VSw,Sh,
p179
sg13
VGrass
p180
sg15
V11
p181
sg17
V13
p182
sg19
g20
sbag1
(g2
g3
Ntp183
Rp184
(dp185
g7
V129
p186
sg9
VMagikarp
p187
sg11
VSw,Sh,
p188
sg13
VFishing
p189
sg15
V11
p190
sg17
V13
p191
sg19
V50
p192
sbag1
(g2
g3
Ntp193
Rp194
(dp195
g7
V223
p196
sg9
VRemoraid
p197
sg11
VSw,Sh,
p198
sg13
VFishing
p199
sg15
V11
p200
sg17
V13
p201
sg19
V40
p202
sbag1
(g2
g3
Ntp203
Rp204
(dp205
g7
V339
p206
sg9
VBarboach
p207
sg11
VSw,Sh,
p208
sg13
VFishing
p209
sg15
V11
p210
sg17
V13
p211
sg19
V9
p212
sbag1
(g2
g3
Ntp213
Rp214
(dp215
g7
V771
p216
sg9
VPyukumuku
p217
sg11
VSw,Sh,
p218
sg13
VFishing
p219
sg15
V11
p220
sg17
V13
p221
sg19
V1
p222
sbag1
(g2
g3
Ntp223
Rp224
(dp225
g7
V037
p226
sg9
VVulpix
p227
sg11
g12
sg13
VGrass
p228
sg15
V14
p229
sg17
V16
p230
sg19
g20
sbag1
(g2
g3
Ntp231
Rp232
(dp233
g7
V058
p234
sg9
VGrowlithe
p235
sg11
g26
sg13
VGrass
p236
sg15
V14
p237
sg17
V16
p238
sg19
g20
sbag1
(g2
g3
Ntp239
Rp240
(dp241
g7
V066
p242
sg9
VMachop
p243
sg11
VSw,Sh,
p244
sg13
VGrass
p245
sg15
V14
p246
sg17
V16
p247
sg19
g20
sbag1
(g2
g3
Ntp248
Rp249
(dp250
g7
V236
p251
sg9
VTyrogue
p252
sg11
VSw,Sh,
p253
sg13
VGrass
p254
sg15
V14
p255
sg17
V16
p256
sg19
V5
p257
sbag1
(g2
g3
Ntp258
Rp259
(dp260
g7
V434
p261
sg9
VStunky
p262
sg11
VSw,Sh,
p263
sg13
VGrass
p264
sg15
V14
p265
sg17
V16
p266
sg19
g20
sbag1
(g2
g3
Ntp267
Rp268
(dp269
g7
V436
p270
sg9
VBronzor
p271
sg11
VSw,Sh,
p272
sg13
VGrass
p273
sg15
V14
p274
sg17
V16
p275
sg19
g20
sbag1
(g2
g3
Ntp276
Rp277
(dp278
g7
V459
p279
sg9
VSnover
p280
sg11
VSw,Sh,
p281
sg13
VGrass
p282
sg15
V14
p283
sg17
V16
p284
sg19
g20
sbag1
(g2
g3
Ntp285
Rp286
(dp287
g7
V557
p288
sg9
VDwebble
p289
sg11
VSw,Sh,
p290
sg13
VGrass
p291
sg15
V14
p292
sg17
V16
p293
sg19
g20
sbag1
(g2
g3
Ntp294
Rp295
(dp296
g7
V037
p297
sg9
VVulpix
p298
sg11
g12
sg13
VGrass
p299
sg15
V14
p300
sg17
V16
p301
sg19
g20
sbag1
(g2
g3
Ntp302
Rp303
(dp304
g7
V058
p305
sg9
VGrowlithe
p306
sg11
g26
sg13
VGrass
p307
sg15
V14
p308
sg17
V16
p309
sg19
g20
sbag1
(g2
g3
Ntp310
Rp311
(dp312
g7
V066
p313
sg9
VMachop
p314
sg11
g26
sg13
VGrass
p315
sg15
V14
p316
sg17
V15
p317
sg19
g20
sbag1
(g2
g3
Ntp318
Rp319
(dp320
g7
V066
p321
sg9
VMachop
p322
sg11
g12
sg13
VGrass
p323
sg15
V14
p324
sg17
V16
p325
sg19
g20
sbag1
(g2
g3
Ntp326
Rp327
(dp328
g7
V066
p329
sg9
VMachop
p330
sg11
g26
sg13
VGrass
p331
sg15
V14
p332
sg17
V16
p333
sg19
g20
sbag1
(g2
g3
Ntp334
Rp335
(dp336
g7
V098
p337
sg9
VKrabby
p338
sg11
g26
sg13
VGrass
p339
sg15
V14
p340
sg17
V15
p341
sg19
g20
sbag1
(g2
g3
Ntp342
Rp343
(dp344
g7
V098
p345
sg9
VKrabby
p346
sg11
g12
sg13
VGrass
p347
sg15
V14
p348
sg17
V16
p349
sg19
g20
sbag1
(g2
g3
Ntp350
Rp351
(dp352
g7
V098
p353
sg9
VKrabby
p354
sg11
g26
sg13
VGrass
p355
sg15
V14
p356
sg17
V16
p357
sg19
g20
sbag1
(g2
g3
Ntp358
Rp359
(dp360
g7
V129
p361
sg9
VMagikarp
p362
sg11
VSw,Sh,
p363
sg13
VGrass
p364
sg15
V14
p365
sg17
V16
p366
sg19
g20
sbag1
(g2
g3
Ntp367
Rp368
(dp369
g7
V225
p370
sg9
VDelibird
p371
sg11
VSw,Sh,
p372
sg13
VGrass
p373
sg15
V14
p374
sg17
V16
p375
sg19
g20
sbag1
(g2
g3
Ntp376
Rp377
(dp378
g7
V271
p379
sg9
VLombre
p380
sg11
g26
sg13
VGrass
p381
sg15
V14
p382
sg17
V15
p383
sg19
g20
sbag1
(g2
g3
Ntp384
Rp385
(dp386
g7
V271
p387
sg9
VLombre
p388
sg11
g26
sg13
VGrass
p389
sg15
V14
p390
sg17
V16
p391
sg19
g20
sbag1
(g2
g3
Ntp392
Rp393
(dp394
g7
V274
p395
sg9
VNuzleaf
p396
sg11
g12
sg13
VGrass
p397
sg15
V14
p398
sg17
V16
p399
sg19
g20
sbag1
(g2
g3
Ntp400
Rp401
(dp402
g7
V280
p403
sg9
VRalts
p404
sg11
VSw,Sh,
p405
sg13
VGrass
p406
sg15
V14
p407
sg17
V16
p408
sg19
g20
sbag1
(g2
g3
Ntp409
Rp410
(dp411
g7
V341
p412
sg9
VCorphish
p413
sg11
g26
sg13
VGrass
p414
sg15
V14
p415
sg17
V15
p416
sg19
g20
sbag1
(g2
g3
Ntp417
Rp418
(dp419
g7
V341
p420
sg9
VCorphish
p421
sg11
g12
sg13
VGrass
p422
sg15
V14
p423
sg17
V16
p424
sg19
g20
sbag1
(g2
g3
Ntp425
Rp426
(dp427
g7
V341
p428
sg9
VCorphish
p429
sg11
g26
sg13
VGrass
p430
sg15
V14
p431
sg17
V16
p432
sg19
g20
sbag1
(g2
g3
Ntp433
Rp434
(dp435
g7
V425
p436
sg9
VDrifloon
p437
sg11
VSw,Sh,
p438
sg13
VGrass
p439
sg15
V14
p440
sg17
V16
p441
sg19
g20
sbag1
(g2
g3
Ntp442
Rp443
(dp444
g7
V434
p445
sg9
VStunky
p446
sg11
g26
sg13
VGrass
p447
sg15
V14
p448
sg17
V15
p449
sg19
g20
sbag1
(g2
g3
Ntp450
Rp451
(dp452
g7
V434
p453
sg9
VStunky
p454
sg11
g12
sg13
VGrass
p455
sg15
V14
p456
sg17
V16
p457
sg19
g20
sbag1
(g2
g3
Ntp458
Rp459
(dp460
g7
V434
p461
sg9
VStunky
p462
sg11
g26
sg13
VGrass
p463
sg15
V14
p464
sg17
V16
p465
sg19
g20
sbag1
(g2
g3
Ntp466
Rp467
(dp468
g7
V436
p469
sg9
VBronzor
p470
sg11
VSw,Sh,
p471
sg13
VGrass
p472
sg15
V14
p473
sg17
V16
p474
sg19
g20
sbag1
(g2
g3
Ntp475
Rp476
(dp477
g7
V459
p478
sg9
VSnover
p479
sg11
VSw,Sh,
p480
sg13
VGrass
p481
sg15
V14
p482
sg17
V16
p483
sg19
g20
sbag1
(g2
g3
Ntp484
Rp485
(dp486
g7
V535
p487
sg9
VTympole
p488
sg11
VSw,Sh,
p489
sg13
VGrass
p490
sg15
V14
p491
sg17
V16
p492
sg19
g20
sbag1
(g2
g3
Ntp493
Rp494
(dp495
g7
V557
p496
sg9
VDwebble
p497
sg11
VSw,Sh,
p498
sg13
VGrass
p499
sg15
V14
p500
sg17
V16
p501
sg19
g20
sbag1
(g2
g3
Ntp502
Rp503
(dp504
g7
V582
p505
sg9
VVanillite
p506
sg11
VSw,Sh,
p507
sg13
VGrass
p508
sg15
V14
p509
sg17
V16
p510
sg19
g20
sbag1
(g2
g3
Ntp511
Rp512
(dp513
g7
V595
p514
sg9
VJoltik
p515
sg11
VSw,Sh,
p516
sg13
VGrass
p517
sg15
V14
p518
sg17
V16
p519
sg19
g20
sbag1
(g2
g3
Ntp520
Rp521
(dp522
g7
V599
p523
sg9
VKlink
p524
sg11
VSw,Sh,
p525
sg13
VGrass
p526
sg15
V14
p527
sg17
V16
p528
sg19
g20
sbag1
(g2
g3
Ntp529
Rp530
(dp531
g7
V749
p532
sg9
VMudbray
p533
sg11
VSw,Sh,
p534
sg13
VGrass
p535
sg15
V14
p536
sg17
V16
p537
sg19
g20
sbag1
(g2
g3
Ntp538
Rp539
(dp540
g7
V771
p541
sg9
VPyukumuku
p542
sg11
VSw,Sh,
p543
sg13
VGrass
p544
sg15
V14
p545
sg17
V16
p546
sg19
g20
sbag1
(g2
g3
Ntp547
Rp548
(dp549
g7
V278
p550
sg9
VWingull
p551
sg11
VSw,Sh,
p552
sg13
VFlying
p553
sg15
V14
p554
sg17
V16
p555
sg19
V85
p556
sbag1
(g2
g3
Ntp557
Rp558
(dp559
g7
V425
p560
sg9
VDrifloon
p561
sg11
VSw,Sh,
p562
sg13
VFlying
p563
sg15
V14
p564
sg17
V16
p565
sg19
V15
p566
sbag1
(g2
g3
Ntp567
Rp568
(dp569
g7
V118
p570
sg9
VGoldeen
p571
sg11
VSw,Sh,
p572
sg13
VSurf
p573
sg15
V41
p574
sg17
V44
p575
sg19
g20
sbag1
(g2
g3
Ntp576
Rp577
(dp578
g7
V278
p579
sg9
VWingull
p580
sg11
VSw,Sh,
p581
sg13
VSurf
p582
sg15
V41
p583
sg17
V44
p584
sg19
g20
sbag1
(g2
g3
Ntp585
Rp586
(dp587
g7
V339
p588
sg9
VBarboach
p589
sg11
VSw,Sh,
p590
sg13
VSurf
p591
sg15
V41
p592
sg17
V44
p593
sg19
g20
sbag1
(g2
g3
Ntp594
Rp595
(dp596
g7
V425
p597
sg9
VDrifloon
p598
sg11
VSw,Sh,
p599
sg13
VSurf
p600
sg15
V41
p601
sg17
V44
p602
sg19
g20
sbag1
(g2
g3
Ntp603
Rp604
(dp605
g7
V582
p606
sg9
VVanillite
p607
sg11
VSw,Sh,
p608
sg13
VSurf
p609
sg15
V41
p610
sg17
V44
p611
sg19
g20
sbag1
(g2
g3
Ntp612
Rp613
(dp614
g7
V596
p615
sg9
VGalvantula
p616
sg11
VSw,Sh,
p617
sg13
VWanderer
p618
sg15
V46
p619
sg17
g619
sg19
V0
p620
sbag1
(g2
g3
Ntp621
Rp622
(dp623
g7
V067
p624
sg9
VMachoke
p625
sg11
VSw,Sh,
p626
sg13
VWanderer
p627
sg15
V26
p628
sg17
g628
sg19
V0
p629
sbag1
(g2
g3
Ntp630
Rp631
(dp632
g7
V828
p633
sg9
VThievul
p634
sg11
VSw,Sh,
p635
sg13
VWanderer
p636
sg15
V65
p637
sg17
g637
sg19
V0
p638
sbag1
(g2
g3
Ntp639
Rp640
(dp641
g7
V435
p642
sg9
VSkuntank
p643
sg11
VSw,Sh,
p644
sg13
VWanderer
p645
sg15
V34
p646
sg17
g646
sg19
g20
sbag1
(g2
g3
Ntp647
Rp648
(dp649
g7
V536
p650
sg9
VPalpitoad
p651
sg11
VSw,Sh,
p652
sg13
VWanderer
p653
sg15
V34
p654
sg17
g654
sg19
g20
sbag1
(g2
g3
Ntp655
Rp656
(dp657
g7
V558
p658
sg9
VCrustle
p659
sg11
VSw,Sh,
p660
sg13
VWanderer
p661
sg15
V34
p662
sg17
g662
sg19
g20
sbag1
(g2
g3
Ntp663
Rp664
(dp665
g7
V067
p666
sg9
VMachoke
p667
sg11
VSw,Sh,
p668
sg13
VWanderer
p669
sg15
V31
p670
sg17
g670
sg19
g20
sbag1
(g2
g3
Ntp671
Rp672
(dp673
g7
V099
p674
sg9
VKingler
p675
sg11
VSw,Sh,
p676
sg13
VWanderer
p677
sg15
V31
p678
sg17
g678
sg19
g20
sbag1
(g2
g3
Ntp679
Rp680
(dp681
g7
V426
p682
sg9
VDrifblim
p683
sg11
VSw,Sh,
p684
sg13
VWanderer
p685
sg15
V31
p686
sg17
g686
sg19
g20
sbag1
(g2
g3
Ntp687
Rp688
(dp689
g7
V536
p690
sg9
VPalpitoad
p691
sg11
VSw,Sh,
p692
sg13
VWanderer
p693
sg15
V34
p694
sg17
g694
sg19
g20
sbag1
(g2
g3
Ntp695
Rp696
(dp697
g7
V067
p698
sg9
VMachoke
p699
sg11
VSw,Sh,
p700
sg13
VWanderer
p701
sg15
V31
p702
sg17
g702
sg19
g20
sbag1
(g2
g3
Ntp703
Rp704
(dp705
g7
V342
p706
sg9
VCrawdaunt
p707
sg11
VSw,Sh,
p708
sg13
VWanderer
p709
sg15
V31
p710
sg17
g710
sg19
g20
sbag1
(g2
g3
Ntp711
Rp712
(dp713
g7
V426
p714
sg9
VDrifblim
p715
sg11
VSw,Sh,
p716
sg13
VWanderer
p717
sg15
V31
p718
sg17
g718
sg19
g20
sbag1
(g2
g3
Ntp719
Rp720
(dp721
g7
V536
p722
sg9
VPalpitoad
p723
sg11
VSw,Sh,
p724
sg13
VWanderer
p725
sg15
V34
p726
sg17
g726
sg19
g20
sbag1
(g2
g3
Ntp727
Rp728
(dp729
g7
V279
p730
sg9
VPelipper
p731
sg11
VSw,Sh,
p732
sg13
VWanderer
p733
sg15
V46
p734
sg17
g734
sg19
g20
sbag1
(g2
g3
Ntp735
Rp736
(dp737
g7
V340
p738
sg9
VWhiscash
p739
sg11
VSw,Sh,
p740
sg13
VWanderer
p741
sg15
V46
p742
sg17
g742
sg19
g20
sbag1
(g2
g3
Ntp743
Rp744
(dp745
g7
V426
p746
sg9
VDrifblim
p747
sg11
VSw,Sh,
p748
sg13
VWanderer
p749
sg15
V46
p750
sg17
g750
sg19
g20
sbag1
(g2
g3
Ntp751
Rp752
(dp753
g7
V584
p754
sg9
VVanilluxe
p755
sg11
VSw,Sh,
p756
sg13
VWanderer
p757
sg15
V47
p758
sg17
g758
sg19
g20
sbag1
(g2
g3
Ntp759
Rp760
(dp761
g7
V119
p762
sg9
VSeaking
p763
sg11
VSw,Sh,
p764
sg13
VWanderer
p765
sg15
V46
p766
sg17
g766
sg19
g20
sbag1
(g2
g3
Ntp767
Rp768
(dp769
g7
V340
p770
sg9
VWhiscash
p771
sg11
VSw,Sh,
p772
sg13
VWanderer
p773
sg15
V46
p774
sg17
g774
sg19
g20
sbag1
(g2
g3
Ntp775
Rp776
(dp777
g7
V426
p778
sg9
VDrifblim
p779
sg11
VSw,Sh,
p780
sg13
VWanderer
p781
sg15
V46
p782
sg17
g782
sg19
g20
sbag1
(g2
g3
Ntp783
Rp784
(dp785
g7
V584
p786
sg9
VVanilluxe
p787
sg11
VSw,Sh,
p788
sg13
VWanderer
p789
sg15
V47
p790
sg17
g790
sg19
g20
sbag1
(g2
g3
Ntp791
Rp792
(dp793
g7
V119
p794
sg9
VSeaking
p795
sg11
VSw,Sh,
p796
sg13
VWanderer
p797
sg15
V46
p798
sg17
g798
sg19
g20
sbag1
(g2
g3
Ntp799
Rp800
(dp801
g7
V171
p802
sg9
VLanturn
p803
sg11
VSw,Sh,
p804
sg13
VWanderer
p805
sg15
V46
p806
sg17
g806
sg19
g20
sbag1
(g2
g3
Ntp807
Rp808
(dp809
g7
V279
p810
sg9
VPelipper
p811
sg11
VSw,Sh,
p812
sg13
VWanderer
p813
sg15
V46
p814
sg17
g814
sg19
g20
sbag1
(g2
g3
Ntp815
Rp816
(dp817
g7
V584
p818
sg9
VVanilluxe
p819
sg11
VSw,Sh,
p820
sg13
VWanderer
p821
sg15
V47
p822
sg17
g822
sg19
g20
sbag1
(g2
g3
Ntp823
Rp824
(dp825
g7
V593
p826
sg9
VJellicent
p827
sg11
VSw,Sh,
p828
sg13
VWanderer
p829
sg15
V46
p830
sg17
g830
sg19
g20
sbag1
(g2
g3
Ntp831
Rp832
(dp833
g7
V130
p834
sg9
VGyarados
p835
sg11
VSw,Sh,
p836
sg13
VWanderer
p837
sg15
V60
p838
sg17
g838
sg19
g20
sbag1
(g2
g3
Ntp839
Rp840
(dp841
g7
V350
p842
sg9
VMilotic
p843
sg11
VSw,Sh,
p844
sg13
VWanderer
p845
sg15
V60
p846
sg17
g846
sg19
g20
sbag1
(g2
g3
Ntp847
Rp848
(dp849
g7
V224
p850
sg9
VOctillery
p851
sg11
VSw,Sh,
p852
sg13
VWanderer
p853
sg15
V46
p854
sg17
g854
sg19
g20
sbag1
(g2
g3
Ntp855
Rp856
(dp857
g7
V279
p858
sg9
VPelipper
p859
sg11
VSw,Sh,
p860
sg13
VWanderer
p861
sg15
V46
p862
sg17
g862
sg19
g20
sbag1
(g2
g3
Ntp863
Rp864
(dp865
g7
V426
p866
sg9
VDrifblim
p867
sg11
VSw,Sh,
p868
sg13
VWanderer
p869
sg15
V46
p870
sg17
g870
sg19
g20
sbag1
(g2
g3
Ntp871
Rp872
(dp873
g7
V584
p874
sg9
VVanilluxe
p875
sg11
VSw,Sh,
p876
sg13
VWanderer
p877
sg15
V47
p878
sg17
g878
sg19
g20
sbag1
(g2
g3
Ntp879
Rp880
(dp881
g7
V119
p882
sg9
VSeaking
p883
sg11
VSw,Sh,
p884
sg13
VWanderer
p885
sg15
V46
p886
sg17
g886
sg19
g20
sbag1
(g2
g3
Ntp887
Rp888
(dp889
g7
V340
p890
sg9
VWhiscash
p891
sg11
VSw,Sh,
p892
sg13
VWanderer
p893
sg15
V46
p894
sg17
g894
sg19
g20
sbag1
(g2
g3
Ntp895
Rp896
(dp897
g7
V426
p898
sg9
VDrifblim
p899
sg11
VSw,Sh,
p900
sg13
VWanderer
p901
sg15
V46
p902
sg17
g902
sg19
g20
sbag1
(g2
g3
Ntp903
Rp904
(dp905
g7
V584
p906
sg9
VVanilluxe
p907
sg11
VSw,Sh,
p908
sg13
VWanderer
p909
sg15
V47
p910
sg17
g910
sg19
g20
sba.