(lp0
ccopy_reg
_reconstructor
p1
(c__main__
WildPokemon
p2
c__builtin__
object
p3
Ntp4
Rp5
(dp6
VpDexNo
p7
V380
p8
sVpSpecies
p9
VLatias
p10
sVpGames
p11
VRu,E,
p12
sVpArea
p13
VEon
p14
sVpMinLevel
p15
V50
p16
sVpMaxLevel
p17
g16
sVpRate
p18
V0
p19
sbag1
(g2
g3
Ntp20
Rp21
(dp22
g7
V381
p23
sg9
VLatios
p24
sg11
VS,E,
p25
sg13
VEon
p26
sg15
V50
p27
sg17
g27
sg18
V0
p28
sbag1
(g2
g3
Ntp29
Rp30
(dp31
g7
V380
p32
sg9
VLatias
p33
sg11
VAS,
p34
sg13
VGift
p35
sg15
V30
p36
sg17
g36
sg18
V0
p37
sbag1
(g2
g3
Ntp38
Rp39
(dp40
g7
V381
p41
sg9
VLatios
p42
sg11
VOR,
p43
sg13
VGift
p44
sg15
V30
p45
sg17
g45
sg18
V0
p46
sbag1
(g2
g3
Ntp47
Rp48
(dp49
g7
V380
p50
sg9
VLatias
p51
sg11
g43
sg13
VSpecial
p52
sg15
V30
p53
sg17
g53
sg18
V0
p54
sbag1
(g2
g3
Ntp55
Rp56
(dp57
g7
V381
p58
sg9
VLatios
p59
sg11
g34
sg13
VSpecial
p60
sg15
V30
p61
sg17
g61
sg18
V0
p62
sba.