(lp0
ccopy_reg
_reconstructor
p1
(c__main__
WildPokemon
p2
c__builtin__
object
p3
Ntp4
Rp5
(dp6
VpDexNo
p7
V894
p8
sVpSpecies
p9
VRegieleki
p10
sVpGames
p11
VSw,Sh,
p12
sVpArea
p13
VSpecial
p14
sVpMinLevel
p15
V70
p16
sVpMaxLevel
p17
g16
sVpRate
p18
V0
p19
sbag1
(g2
g3
Ntp20
Rp21
(dp22
g7
V895
p23
sg9
VRegidrago
p24
sg11
VSw,Sh,
p25
sg13
VSpecial
p26
sg15
V70
p27
sg17
g27
sg18
V0
p28
sba.