(lp0
ccopy_reg
_reconstructor
p1
(c__main__
WildPokemon
p2
c__builtin__
object
p3
Ntp4
Rp5
(dp6
VpDexNo
p7
V019
p8
sVpSpecies
p9
VRattata
p10
sVpGames
p11
VG,S,C,
p12
sVpArea
p13
V1F-3F
p14
sVpMinLevel
p15
V3
p16
sVpMaxLevel
p17
V6
p18
sVpRate
p19
V100
p20
sbag1
(g2
g3
Ntp21
Rp22
(dp23
g7
V019
p24
sg9
VRattata
p25
sg11
VG,S,C,
p26
sg13
V1F-3F
p27
sg15
g16
sg17
V5
p28
sg19
V15
p29
sbag1
(g2
g3
Ntp30
Rp31
(dp32
g7
V092
p33
sg9
VGastly
p34
sg11
VG,S,C,
p35
sg13
V1F-3F
p36
sg15
g16
sg17
g18
sg19
V85
p37
sbag1
(g2
g3
Ntp38
Rp39
(dp40
g7
V019
p41
sg9
VRattata
p42
sg11
VHG,SS,
p43
sg13
V1F-3F
p44
sg15
g16
sg17
g18
sg19
V100
p45
sbag1
(g2
g3
Ntp46
Rp47
(dp48
g7
V019
p49
sg9
VRattata
p50
sg11
VHG,SS,
p51
sg13
V1F-3F
p52
sg15
g16
sg17
g28
sg19
V15
p53
sbag1
(g2
g3
Ntp54
Rp55
(dp56
g7
V092
p57
sg9
VGastly
p58
sg11
VHG,SS,
p59
sg13
V1F-3F
p60
sg15
g16
sg17
g18
sg19
V85
p61
sbag1
(g2
g3
Ntp62
Rp63
(dp64
g7
V263
p65
sg9
VZigzagoon
p66
sg11
VHG,SS,
p67
sg13
VHoenn
p68
sg15
g16
sg17
V4
p69
sg19
V20
p70
sbag1
(g2
g3
Ntp71
Rp72
(dp73
g7
V307
p74
sg9
VMeditite
p75
sg11
VHG,SS,
p76
sg13
VSinnoh
p77
sg15
g28
sg17
g28
sg19
V20
p78
sbag1
(g2
g3
Ntp79
Rp80
(dp81
g7
V327
p82
sg9
VSpinda
p83
sg11
VHG,SS,
p84
sg13
VHoenn
p85
sg15
g28
sg17
g28
sg19
V20
p86
sbag1
(g2
g3
Ntp87
Rp88
(dp89
g7
V441
p90
sg9
VChatot
p91
sg11
VHG,SS,
p92
sg13
VSinnoh
p93
sg15
g16
sg17
g69
sg19
V20
p94
sba.