(lp0
ccopy_reg
_reconstructor
p1
(c__main__
WildPokemon
p2
c__builtin__
object
p3
Ntp4
Rp5
(dp6
VpDexNo
p7
V102
p8
sVpSpecies
p9
VExeggcute
p10
sVpGames
p11
VSw,Sh,
p12
sVpArea
p13
VGrass
p14
sVpMinLevel
p15
V43
p16
sVpMaxLevel
p17
V48
p18
sVpRate
p19
V30
p20
sbag1
(g2
g3
Ntp21
Rp22
(dp23
g7
V440
p24
sg9
VHappiny
p25
sg11
VSw,Sh,
p26
sg13
VGrass
p27
sg15
V43
p28
sg17
V48
p29
sg19
V10
p30
sbag1
(g2
g3
Ntp31
Rp32
(dp33
g7
V819
p34
sg9
VSkwovet
p35
sg11
VSw,Sh,
p36
sg13
VGrass
p37
sg15
V43
p38
sg17
V48
p39
sg19
V30
p40
sbag1
(g2
g3
Ntp41
Rp42
(dp43
g7
V824
p44
sg9
VBlipbug
p45
sg11
VSw,Sh,
p46
sg13
VGrass
p47
sg15
V43
p48
sg17
V48
p49
sg19
V30
p50
sbag1
(g2
g3
Ntp51
Rp52
(dp53
g7
V819
p54
sg9
VSkwovet
p55
sg11
VSw,Sh,
p56
sg13
VBerry tree
p57
sg15
V43
p58
sg17
V48
p59
sg19
V60
p60
sbag1
(g2
g3
Ntp61
Rp62
(dp63
g7
V840
p64
sg9
VApplin
p65
sg11
VSw,Sh,
p66
sg13
VBerry tree
p67
sg15
V43
p68
sg17
V48
p69
sg19
V30
p70
sbag1
(g2
g3
Ntp71
Rp72
(dp73
g7
V841
p74
sg9
VFlapple
p75
sg11
VSw,
p76
sg13
VBerry tree
p77
sg15
V43
p78
sg17
V48
p79
sg19
V10
p80
sbag1
(g2
g3
Ntp81
Rp82
(dp83
g7
V842
p84
sg9
VAppletun
p85
sg11
VSh,
p86
sg13
VBerry tree
p87
sg15
V43
p88
sg17
V48
p89
sg19
V10
p90
sbag1
(g2
g3
Ntp91
Rp92
(dp93
g7
V129
p94
sg9
VMagikarp
p95
sg11
VSw,Sh,
p96
sg13
VFishing
p97
sg15
V43
p98
sg17
V48
p99
sg19
V60
p100
sbag1
(g2
g3
Ntp101
Rp102
(dp103
g7
V746
p104
sg9
VWishiwashi
p105
sg11
VSw,Sh,
p106
sg13
VFishing
p107
sg15
V43
p108
sg17
V48
p109
sg19
V40
p110
sbag1
(g2
g3
Ntp111
Rp112
(dp113
g7
V102
p114
sg9
VExeggcute
p115
sg11
VSw,Sh,
p116
sg13
VGrass
p117
sg15
V40
p118
sg17
V45
p119
sg19
V16
p120
sbag1
(g2
g3
Ntp121
Rp122
(dp123
g7
V113
p124
sg9
VChansey
p125
sg11
VSw,Sh,
p126
sg13
VGrass
p127
sg15
V40
p128
sg17
V45
p129
sg19
V0
p130
sbag1
(g2
g3
Ntp131
Rp132
(dp133
g7
V242
p134
sg9
VBlissey
p135
sg11
VSw,Sh,
p136
sg13
VGrass
p137
sg15
V40
p138
sg17
V45
p139
sg19
g130
sbag1
(g2
g3
Ntp140
Rp141
(dp142
g7
V819
p143
sg9
VSkwovet
p144
sg11
VSw,Sh,
p145
sg13
VGrass
p146
sg15
V40
p147
sg17
V45
p148
sg19
V82
p149
sbag1
(g2
g3
Ntp150
Rp151
(dp152
g7
V072
p153
sg9
VTentacool
p154
sg11
VSw,Sh,
p155
sg13
VSurf
p156
sg15
V40
p157
sg17
V45
p158
sg19
g130
sbag1
(g2
g3
Ntp159
Rp160
(dp161
g7
V073
p162
sg9
VTentacruel
p163
sg11
VSw,Sh,
p164
sg13
VSurf
p165
sg15
V40
p166
sg17
V45
p167
sg19
g130
sbag1
(g2
g3
Ntp168
Rp169
(dp170
g7
V130
p171
sg9
VGyarados
p172
sg11
VSw,Sh,
p173
sg13
VSurf
p174
sg15
V40
p175
sg17
V45
p176
sg19
V1
p177
sbag1
(g2
g3
Ntp178
Rp179
(dp180
g7
V170
p181
sg9
VChinchou
p182
sg11
VSw,Sh,
p183
sg13
VSurf
p184
sg15
V40
p185
sg17
V45
p186
sg19
g130
sbag1
(g2
g3
Ntp187
Rp188
(dp189
g7
V171
p190
sg9
VLanturn
p191
sg11
VSw,Sh,
p192
sg13
VSurf
p193
sg15
V40
p194
sg17
V45
p195
sg19
g130
sbag1
(g2
g3
Ntp196
Rp197
(dp198
g7
V278
p199
sg9
VWingull
p200
sg11
VSw,Sh,
p201
sg13
VSurf
p202
sg15
V40
p203
sg17
V45
p204
sg19
V30
p205
sbag1
(g2
g3
Ntp206
Rp207
(dp208
g7
V279
p209
sg9
VPelipper
p210
sg11
VSw,Sh,
p211
sg13
VSurf
p212
sg15
V40
p213
sg17
V45
p214
sg19
g130
sbag1
(g2
g3
Ntp215
Rp216
(dp217
g7
V425
p218
sg9
VDrifloon
p219
sg11
VSw,Sh,
p220
sg13
VSurf
p221
sg15
V40
p222
sg17
V45
p223
sg19
g130
sbag1
(g2
g3
Ntp224
Rp225
(dp226
g7
V458
p227
sg9
VMantyke
p228
sg11
VSw,Sh,
p229
sg13
VSurf
p230
sg15
V40
p231
sg17
V45
p232
sg19
g130
sbag1
(g2
g3
Ntp233
Rp234
(dp235
g7
V592
p236
sg9
VFrillish
p237
sg11
VSw,Sh,
p238
sg13
VSurf
p239
sg15
V40
p240
sg17
V45
p241
sg19
g130
sbag1
(g2
g3
Ntp242
Rp243
(dp244
g7
V593
p245
sg9
VJellicent
p246
sg11
VSw,Sh,
p247
sg13
VSurf
p248
sg15
V40
p249
sg17
V45
p250
sg19
g130
sbag1
(g2
g3
Ntp251
Rp252
(dp253
g7
V662
p254
sg9
VFletchinder
p255
sg11
VSw,Sh,
p256
sg13
VSurf
p257
sg15
V40
p258
sg17
V45
p259
sg19
g130
sbag1
(g2
g3
Ntp260
Rp261
(dp262
g7
V690
p263
sg9
VSkrelp
p264
sg11
g86
sg13
VSurf
p265
sg15
V40
p266
sg17
V45
p267
sg19
V5
p268
sbag1
(g2
g3
Ntp269
Rp270
(dp271
g7
V691
p272
sg9
VDragalge
p273
sg11
g86
sg13
VSurf
p274
sg15
V40
p275
sg17
V45
p276
sg19
V1
p277
sbag1
(g2
g3
Ntp278
Rp279
(dp280
g7
V692
p281
sg9
VClauncher
p282
sg11
g76
sg13
VSurf
p283
sg15
V40
p284
sg17
V45
p285
sg19
V5
p286
sbag1
(g2
g3
Ntp287
Rp288
(dp289
g7
V693
p290
sg9
VClawitzer
p291
sg11
g76
sg13
VSurf
p292
sg15
V40
p293
sg17
V45
p294
sg19
V1
p295
sbag1
(g2
g3
Ntp296
Rp297
(dp298
g7
V319
p299
sg9
VSharpedo
p300
sg11
VSw,Sh,
p301
sg13
VSurf
p302
sg15
V40
p303
sg17
V45
p304
sg19
V100
p305
sbag1
(g2
g3
Ntp306
Rp307
(dp308
g7
V052
p309
sg9
VMeowth
p310
sg11
VSw,Sh,
p311
sg13
VTrade
p312
sg15
V15
p313
sg17
g313
sg19
V0
p314
sbag1
(g2
g3
Ntp315
Rp316
(dp317
g7
V077
p318
sg9
VPonyta
p319
sg11
g86
sg13
VTrade
p320
sg15
V15
p321
sg17
g321
sg19
V0
p322
sbag1
(g2
g3
Ntp323
Rp324
(dp325
g7
V083
p326
sg9
VFarfetch'd
p327
sg11
g76
sg13
VTrade
p328
sg15
V15
p329
sg17
g329
sg19
V0
p330
sbag1
(g2
g3
Ntp331
Rp332
(dp333
g7
V103
p334
sg9
VExeggutor
p335
sg11
VSw,Sh,
p336
sg13
VTrade
p337
sg15
V15
p338
sg17
g338
sg19
V0
p339
sbag1
(g2
g3
Ntp340
Rp341
(dp342
g7
V105
p343
sg9
VMarowak
p344
sg11
VSw,Sh,
p345
sg13
VTrade
p346
sg15
V15
p347
sg17
g347
sg19
V0
p348
sbag1
(g2
g3
Ntp349
Rp350
(dp351
g7
V110
p352
sg9
VWeezing
p353
sg11
VSw,Sh,
p354
sg13
VTrade
p355
sg15
V15
p356
sg17
g356
sg19
V0
p357
sbag1
(g2
g3
Ntp358
Rp359
(dp360
g7
V122
p361
sg9
VMr. Mime
p362
sg11
VSw,Sh,
p363
sg13
VTrade
p364
sg15
V15
p365
sg17
g365
sg19
V0
p366
sbag1
(g2
g3
Ntp367
Rp368
(dp369
g7
V222
p370
sg9
VCorsola
p371
sg11
g86
sg13
VTrade
p372
sg15
V15
p373
sg17
g373
sg19
V0
p374
sbag1
(g2
g3
Ntp375
Rp376
(dp377
g7
V263
p378
sg9
VZigzagoon
p379
sg11
VSw,Sh,
p380
sg13
VTrade
p381
sg15
V15
p382
sg17
g382
sg19
V0
p383
sbag1
(g2
g3
Ntp384
Rp385
(dp386
g7
V554
p387
sg9
VDarumaka
p388
sg11
g76
sg13
VTrade
p389
sg15
V15
p390
sg17
g390
sg19
V0
p391
sbag1
(g2
g3
Ntp392
Rp393
(dp394
g7
V618
p395
sg9
VStunfisk
p396
sg11
VSw,Sh,
p397
sg13
VTrade
p398
sg15
V15
p399
sg17
g399
sg19
V0
p400
sba.