(lp0
ccopy_reg
_reconstructor
p1
(c__main__
WildPokemon
p2
c__builtin__
object
p3
Ntp4
Rp5
(dp6
VpDexNo
p7
V025
p8
sVpSpecies
p9
VPikachu
p10
sVpGames
p11
VSw,Sh,
p12
sVpArea
p13
VGrass
p14
sVpMinLevel
p15
V26
p16
sVpMaxLevel
p17
V28
p18
sVpRate
p19
V0
p20
sbag1
(g2
g3
Ntp21
Rp22
(dp23
g7
V111
p24
sg9
VRhyhorn
p25
sg11
VSw,
p26
sg13
VGrass
p27
sg15
V26
p28
sg17
V28
p29
sg19
g20
sbag1
(g2
g3
Ntp30
Rp31
(dp32
g7
V111
p33
sg9
VRhyhorn
p34
sg11
VSh,
p35
sg13
VGrass
p36
sg15
V26
p37
sg17
V28
p38
sg19
g20
sbag1
(g2
g3
Ntp39
Rp40
(dp41
g7
V176
p42
sg9
VTogetic
p43
sg11
VSw,Sh,
p44
sg13
VGrass
p45
sg15
V26
p46
sg17
V28
p47
sg19
g20
sbag1
(g2
g3
Ntp48
Rp49
(dp50
g7
V213
p51
sg9
VShuckle
p52
sg11
VSw,Sh,
p53
sg13
VGrass
p54
sg15
V26
p55
sg17
V28
p56
sg19
g20
sbag1
(g2
g3
Ntp57
Rp58
(dp59
g7
V215
p60
sg9
VSneasel
p61
sg11
VSw,Sh,
p62
sg13
VGrass
p63
sg15
V26
p64
sg17
V28
p65
sg19
g20
sbag1
(g2
g3
Ntp66
Rp67
(dp68
g7
V339
p69
sg9
VBarboach
p70
sg11
VSw,Sh,
p71
sg13
VGrass
p72
sg15
V26
p73
sg17
V28
p74
sg19
g20
sbag1
(g2
g3
Ntp75
Rp76
(dp77
g7
V422
p78
sg9
VShellos
p79
sg11
VSw,Sh,
p80
sg13
VGrass
p81
sg15
V26
p82
sg17
V28
p83
sg19
g20
sbag1
(g2
g3
Ntp84
Rp85
(dp86
g7
V525
p87
sg9
VBoldore
p88
sg11
g26
sg13
VGrass
p89
sg15
V26
p90
sg17
V28
p91
sg19
g20
sbag1
(g2
g3
Ntp92
Rp93
(dp94
g7
V525
p95
sg9
VBoldore
p96
sg11
g35
sg13
VGrass
p97
sg15
V26
p98
sg17
V28
p99
sg19
g20
sbag1
(g2
g3
Ntp100
Rp101
(dp102
g7
V525
p103
sg9
VBoldore
p104
sg11
g35
sg13
VGrass
p105
sg15
V27
p106
sg17
V29
p107
sg19
g20
sbag1
(g2
g3
Ntp108
Rp109
(dp110
g7
V529
p111
sg9
VDrilbur
p112
sg11
VSw,Sh,
p113
sg13
VGrass
p114
sg15
V26
p115
sg17
V28
p116
sg19
g20
sbag1
(g2
g3
Ntp117
Rp118
(dp119
g7
V533
p120
sg9
VGurdurr
p121
sg11
g26
sg13
VGrass
p122
sg15
V26
p123
sg17
V28
p124
sg19
g20
sbag1
(g2
g3
Ntp125
Rp126
(dp127
g7
V533
p128
sg9
VGurdurr
p129
sg11
g26
sg13
VGrass
p130
sg15
V27
p131
sg17
V29
p132
sg19
g20
sbag1
(g2
g3
Ntp133
Rp134
(dp135
g7
V546
p136
sg9
VCottonee
p137
sg11
VSw,Sh,
p138
sg13
VGrass
p139
sg15
V27
p140
sg17
V29
p141
sg19
g20
sbag1
(g2
g3
Ntp142
Rp143
(dp144
g7
V613
p145
sg9
VCubchoo
p146
sg11
VSw,Sh,
p147
sg13
VGrass
p148
sg15
V26
p149
sg17
V28
p150
sg19
g20
sbag1
(g2
g3
Ntp151
Rp152
(dp153
g7
V624
p154
sg9
VPawniard
p155
sg11
VSw,Sh,
p156
sg13
VGrass
p157
sg15
V26
p158
sg17
V28
p159
sg19
g20
sbag1
(g2
g3
Ntp160
Rp161
(dp162
g7
V682
p163
sg9
VSpritzee
p164
sg11
g35
sg13
VGrass
p165
sg15
V27
p166
sg17
V29
p167
sg19
g20
sbag1
(g2
g3
Ntp168
Rp169
(dp170
g7
V684
p171
sg9
VSwirlix
p172
sg11
g26
sg13
VGrass
p173
sg15
V27
p174
sg17
V29
p175
sg19
g20
sbag1
(g2
g3
Ntp176
Rp177
(dp178
g7
V743
p179
sg9
VRibombee
p180
sg11
VSw,Sh,
p181
sg13
VGrass
p182
sg15
V27
p183
sg17
V29
p184
sg19
g20
sbag1
(g2
g3
Ntp185
Rp186
(dp187
g7
V825
p188
sg9
VDottler
p189
sg11
VSw,Sh,
p190
sg13
VGrass
p191
sg15
V26
p192
sg17
V28
p193
sg19
g20
sbag1
(g2
g3
Ntp194
Rp195
(dp196
g7
V828
p197
sg9
VThievul
p198
sg11
VSw,Sh,
p199
sg13
VGrass
p200
sg15
V26
p201
sg17
V28
p202
sg19
g20
sbag1
(g2
g3
Ntp203
Rp204
(dp205
g7
V830
p206
sg9
VEldegoss
p207
sg11
VSw,Sh,
p208
sg13
VGrass
p209
sg15
V27
p210
sg17
V29
p211
sg19
g20
sbag1
(g2
g3
Ntp212
Rp213
(dp214
g7
V838
p215
sg9
VCarkol
p216
sg11
VSw,Sh,
p217
sg13
VGrass
p218
sg15
V26
p219
sg17
V28
p220
sg19
g20
sbag1
(g2
g3
Ntp221
Rp222
(dp223
g7
V840
p224
sg9
VApplin
p225
sg11
VSw,Sh,
p226
sg13
VGrass
p227
sg15
V26
p228
sg17
V28
p229
sg19
g20
sbag1
(g2
g3
Ntp230
Rp231
(dp232
g7
V848
p233
sg9
VToxel
p234
sg11
VSw,Sh,
p235
sg13
VGrass
p236
sg15
V26
p237
sg17
V28
p238
sg19
g20
sbag1
(g2
g3
Ntp239
Rp240
(dp241
g7
V859
p242
sg9
VImpidimp
p243
sg11
VSw,Sh,
p244
sg13
VGrass
p245
sg15
V26
p246
sg17
V28
p247
sg19
g20
sbag1
(g2
g3
Ntp248
Rp249
(dp250
g7
V859
p251
sg9
VImpidimp
p252
sg11
VSw,Sh,
p253
sg13
VGrass
p254
sg15
V27
p255
sg17
V29
p256
sg19
g20
sbag1
(g2
g3
Ntp257
Rp258
(dp259
g7
V025
p260
sg9
VPikachu
p261
sg11
g26
sg13
VGrass
p262
sg15
V28
p263
sg17
V30
p264
sg19
g20
sbag1
(g2
g3
Ntp265
Rp266
(dp267
g7
V025
p268
sg9
VPikachu
p269
sg11
g35
sg13
VGrass
p270
sg15
V28
p271
sg17
V30
p272
sg19
g20
sbag1
(g2
g3
Ntp273
Rp274
(dp275
g7
V066
p276
sg9
VMachop
p277
sg11
VSw,Sh,
p278
sg13
VGrass
p279
sg15
V28
p280
sg17
V30
p281
sg19
g20
sbag1
(g2
g3
Ntp282
Rp283
(dp284
g7
V215
p285
sg9
VSneasel
p286
sg11
VSw,Sh,
p287
sg13
VGrass
p288
sg15
V28
p289
sg17
V30
p290
sg19
g20
sbag1
(g2
g3
Ntp291
Rp292
(dp293
g7
V236
p294
sg9
VTyrogue
p295
sg11
VSw,Sh,
p296
sg13
VGrass
p297
sg15
V28
p298
sg17
V30
p299
sg19
g20
sbag1
(g2
g3
Ntp300
Rp301
(dp302
g7
V438
p303
sg9
VBonsly
p304
sg11
VSw,Sh,
p305
sg13
VGrass
p306
sg15
V28
p307
sg17
V30
p308
sg19
g20
sbag1
(g2
g3
Ntp309
Rp310
(dp311
g7
V453
p312
sg9
VCroagunk
p313
sg11
g35
sg13
VGrass
p314
sg15
V28
p315
sg17
V30
p316
sg19
g20
sbag1
(g2
g3
Ntp317
Rp318
(dp319
g7
V517
p320
sg9
VMunna
p321
sg11
VSw,Sh,
p322
sg13
VGrass
p323
sg15
V28
p324
sg17
V30
p325
sg19
g20
sbag1
(g2
g3
Ntp326
Rp327
(dp328
g7
V556
p329
sg9
VMaractus
p330
sg11
VSw,Sh,
p331
sg13
VGrass
p332
sg15
V28
p333
sg17
V30
p334
sg19
g20
sbag1
(g2
g3
Ntp335
Rp336
(dp337
g7
V557
p338
sg9
VDwebble
p339
sg11
VSw,Sh,
p340
sg13
VGrass
p341
sg15
V28
p342
sg17
V30
p343
sg19
g20
sbag1
(g2
g3
Ntp344
Rp345
(dp346
g7
V559
p347
sg9
VScraggy
p348
sg11
g26
sg13
VGrass
p349
sg15
V28
p350
sg17
V30
p351
sg19
g20
sbag1
(g2
g3
Ntp352
Rp353
(dp354
g7
V597
p355
sg9
VFerroseed
p356
sg11
VSw,Sh,
p357
sg13
VGrass
p358
sg15
V28
p359
sg17
V30
p360
sg19
g20
sbag1
(g2
g3
Ntp361
Rp362
(dp363
g7
V613
p364
sg9
VCubchoo
p365
sg11
VSw,Sh,
p366
sg13
VGrass
p367
sg15
V28
p368
sg17
V30
p369
sg19
g20
sbag1
(g2
g3
Ntp370
Rp371
(dp372
g7
V751
p373
sg9
VDewpider
p374
sg11
g26
sg13
VGrass
p375
sg15
V28
p376
sg17
V30
p377
sg19
g20
sbag1
(g2
g3
Ntp378
Rp379
(dp380
g7
V751
p381
sg9
VDewpider
p382
sg11
g35
sg13
VGrass
p383
sg15
V28
p384
sg17
V30
p385
sg19
g20
sbag1
(g2
g3
Ntp386
Rp387
(dp388
g7
V757
p389
sg9
VSalandit
p390
sg11
g26
sg13
VGrass
p391
sg15
V28
p392
sg17
V30
p393
sg19
g20
sbag1
(g2
g3
Ntp394
Rp395
(dp396
g7
V757
p397
sg9
VSalandit
p398
sg11
g35
sg13
VGrass
p399
sg15
V28
p400
sg17
V30
p401
sg19
g20
sbag1
(g2
g3
Ntp402
Rp403
(dp404
g7
V761
p405
sg9
VBounsweet
p406
sg11
g26
sg13
VGrass
p407
sg15
V28
p408
sg17
V30
p409
sg19
g20
sbag1
(g2
g3
Ntp410
Rp411
(dp412
g7
V761
p413
sg9
VBounsweet
p414
sg11
g35
sg13
VGrass
p415
sg15
V28
p416
sg17
V30
p417
sg19
g20
sbag1
(g2
g3
Ntp418
Rp419
(dp420
g7
V827
p421
sg9
VNickit
p422
sg11
VSw,Sh,
p423
sg13
VGrass
p424
sg15
V28
p425
sg17
V30
p426
sg19
g20
sbag1
(g2
g3
Ntp427
Rp428
(dp429
g7
V845
p430
sg9
VCramorant
p431
sg11
VSw,Sh,
p432
sg13
VGrass
p433
sg15
V28
p434
sg17
V30
p435
sg19
g20
sbag1
(g2
g3
Ntp436
Rp437
(dp438
g7
V848
p439
sg9
VToxel
p440
sg11
VSw,Sh,
p441
sg13
VGrass
p442
sg15
V28
p443
sg17
V30
p444
sg19
g20
sbag1
(g2
g3
Ntp445
Rp446
(dp447
g7
V856
p448
sg9
VHatenna
p449
sg11
VSw,Sh,
p450
sg13
VGrass
p451
sg15
V28
p452
sg17
V30
p453
sg19
g20
sbag1
(g2
g3
Ntp454
Rp455
(dp456
g7
V025
p457
sg9
VPikachu
p458
sg11
VSw,Sh,
p459
sg13
VGrass
p460
sg15
V28
p461
sg17
V30
p462
sg19
g20
sbag1
(g2
g3
Ntp463
Rp464
(dp465
g7
V067
p466
sg9
VMachoke
p467
sg11
VSw,Sh,
p468
sg13
VGrass
p469
sg15
V28
p470
sg17
V30
p471
sg19
g20
sbag1
(g2
g3
Ntp472
Rp473
(dp474
g7
V215
p475
sg9
VSneasel
p476
sg11
VSw,Sh,
p477
sg13
VGrass
p478
sg15
V28
p479
sg17
V30
p480
sg19
g20
sbag1
(g2
g3
Ntp481
Rp482
(dp483
g7
V236
p484
sg9
VTyrogue
p485
sg11
VSw,Sh,
p486
sg13
VGrass
p487
sg15
V28
p488
sg17
V30
p489
sg19
g20
sbag1
(g2
g3
Ntp490
Rp491
(dp492
g7
V263
p493
sg9
VZigzagoon
p494
sg11
VSw,Sh,
p495
sg13
VGrass
p496
sg15
V28
p497
sg17
V30
p498
sg19
g20
sbag1
(g2
g3
Ntp499
Rp500
(dp501
g7
V291
p502
sg9
VNinjask
p503
sg11
VSw,Sh,
p504
sg13
VGrass
p505
sg15
V28
p506
sg17
V30
p507
sg19
g20
sbag1
(g2
g3
Ntp508
Rp509
(dp510
g7
V343
p511
sg9
VBaltoy
p512
sg11
g26
sg13
VGrass
p513
sg15
V28
p514
sg17
V30
p515
sg19
V10
p516
sbag1
(g2
g3
Ntp517
Rp518
(dp519
g7
V343
p520
sg9
VBaltoy
p521
sg11
g35
sg13
VGrass
p522
sg15
V28
p523
sg17
V30
p524
sg19
g20
sbag1
(g2
g3
Ntp525
Rp526
(dp527
g7
V436
p528
sg9
VBronzor
p529
sg11
g35
sg13
VGrass
p530
sg15
V28
p531
sg17
V30
p532
sg19
g20
sbag1
(g2
g3
Ntp533
Rp534
(dp535
g7
V438
p536
sg9
VBonsly
p537
sg11
VSw,Sh,
p538
sg13
VGrass
p539
sg15
V28
p540
sg17
V30
p541
sg19
g20
sbag1
(g2
g3
Ntp542
Rp543
(dp544
g7
V453
p545
sg9
VCroagunk
p546
sg11
g35
sg13
VGrass
p547
sg15
V28
p548
sg17
V30
p549
sg19
g20
sbag1
(g2
g3
Ntp550
Rp551
(dp552
g7
V517
p553
sg9
VMunna
p554
sg11
VSw,Sh,
p555
sg13
VGrass
p556
sg15
V28
p557
sg17
V30
p558
sg19
g20
sbag1
(g2
g3
Ntp559
Rp560
(dp561
g7
V556
p562
sg9
VMaractus
p563
sg11
VSw,Sh,
p564
sg13
VGrass
p565
sg15
V28
p566
sg17
V30
p567
sg19
g20
sbag1
(g2
g3
Ntp568
Rp569
(dp570
g7
V557
p571
sg9
VDwebble
p572
sg11
VSw,Sh,
p573
sg13
VGrass
p574
sg15
V28
p575
sg17
V30
p576
sg19
g20
sbag1
(g2
g3
Ntp577
Rp578
(dp579
g7
V559
p580
sg9
VScraggy
p581
sg11
g26
sg13
VGrass
p582
sg15
V28
p583
sg17
V30
p584
sg19
g20
sbag1
(g2
g3
Ntp585
Rp586
(dp587
g7
V597
p588
sg9
VFerroseed
p589
sg11
VSw,Sh,
p590
sg13
VGrass
p591
sg15
V28
p592
sg17
V30
p593
sg19
g20
sbag1
(g2
g3
Ntp594
Rp595
(dp596
g7
V613
p597
sg9
VCubchoo
p598
sg11
VSw,Sh,
p599
sg13
VGrass
p600
sg15
V28
p601
sg17
V30
p602
sg19
g20
sbag1
(g2
g3
Ntp603
Rp604
(dp605
g7
V622
p606
sg9
VGolett
p607
sg11
VSw,Sh,
p608
sg13
VGrass
p609
sg15
V28
p610
sg17
V30
p611
sg19
V10
p612
sbag1
(g2
g3
Ntp613
Rp614
(dp615
g7
V751
p616
sg9
VDewpider
p617
sg11
VSw,Sh,
p618
sg13
VGrass
p619
sg15
V28
p620
sg17
V30
p621
sg19
g20
sbag1
(g2
g3
Ntp622
Rp623
(dp624
g7
V757
p625
sg9
VSalandit
p626
sg11
VSw,Sh,
p627
sg13
VGrass
p628
sg15
V28
p629
sg17
V30
p630
sg19
g20
sbag1
(g2
g3
Ntp631
Rp632
(dp633
g7
V827
p634
sg9
VNickit
p635
sg11
VSw,Sh,
p636
sg13
VGrass
p637
sg15
V28
p638
sg17
V30
p639
sg19
g20
sbag1
(g2
g3
Ntp640
Rp641
(dp642
g7
V835
p643
sg9
VYamper
p644
sg11
VSw,Sh,
p645
sg13
VGrass
p646
sg15
V28
p647
sg17
V30
p648
sg19
g20
sbag1
(g2
g3
Ntp649
Rp650
(dp651
g7
V845
p652
sg9
VCramorant
p653
sg11
VSw,Sh,
p654
sg13
VGrass
p655
sg15
V28
p656
sg17
V30
p657
sg19
g20
sbag1
(g2
g3
Ntp658
Rp659
(dp660
g7
V848
p661
sg9
VToxel
p662
sg11
VSw,Sh,
p663
sg13
VGrass
p664
sg15
V28
p665
sg17
V30
p666
sg19
g20
sbag1
(g2
g3
Ntp667
Rp668
(dp669
g7
V856
p670
sg9
VHatenna
p671
sg11
VSw,Sh,
p672
sg13
VGrass
p673
sg15
V28
p674
sg17
V30
p675
sg19
g20
sbag1
(g2
g3
Ntp676
Rp677
(dp678
g7
V025
p679
sg9
VPikachu
p680
sg11
VSw,Sh,
p681
sg13
VBrown grass
p682
sg15
V28
p683
sg17
V30
p684
sg19
g20
sbag1
(g2
g3
Ntp685
Rp686
(dp687
g7
V067
p688
sg9
VMachoke
p689
sg11
VSw,Sh,
p690
sg13
VBrown grass
p691
sg15
V28
p692
sg17
V30
p693
sg19
g20
sbag1
(g2
g3
Ntp694
Rp695
(dp696
g7
V215
p697
sg9
VSneasel
p698
sg11
VSw,Sh,
p699
sg13
VBrown grass
p700
sg15
V28
p701
sg17
V30
p702
sg19
g20
sbag1
(g2
g3
Ntp703
Rp704
(dp705
g7
V236
p706
sg9
VTyrogue
p707
sg11
VSw,Sh,
p708
sg13
VBrown grass
p709
sg15
V28
p710
sg17
V30
p711
sg19
g20
sbag1
(g2
g3
Ntp712
Rp713
(dp714
g7
V291
p715
sg9
VNinjask
p716
sg11
VSw,Sh,
p717
sg13
VBrown grass
p718
sg15
V28
p719
sg17
V30
p720
sg19
g20
sbag1
(g2
g3
Ntp721
Rp722
(dp723
g7
V438
p724
sg9
VBonsly
p725
sg11
VSw,Sh,
p726
sg13
VBrown grass
p727
sg15
V28
p728
sg17
V30
p729
sg19
g20
sbag1
(g2
g3
Ntp730
Rp731
(dp732
g7
V454
p733
sg9
VToxicroak
p734
sg11
g35
sg13
VBrown grass
p735
sg15
V28
p736
sg17
V30
p737
sg19
g20
sbag1
(g2
g3
Ntp738
Rp739
(dp740
g7
V517
p741
sg9
VMunna
p742
sg11
VSw,Sh,
p743
sg13
VBrown grass
p744
sg15
V28
p745
sg17
V30
p746
sg19
g20
sbag1
(g2
g3
Ntp747
Rp748
(dp749
g7
V524
p750
sg9
VRoggenrola
p751
sg11
g26
sg13
VBrown grass
p752
sg15
V28
p753
sg17
V30
p754
sg19
g20
sbag1
(g2
g3
Ntp755
Rp756
(dp757
g7
V524
p758
sg9
VRoggenrola
p759
sg11
g35
sg13
VBrown grass
p760
sg15
V28
p761
sg17
V30
p762
sg19
g20
sbag1
(g2
g3
Ntp763
Rp764
(dp765
g7
V556
p766
sg9
VMaractus
p767
sg11
VSw,Sh,
p768
sg13
VBrown grass
p769
sg15
V28
p770
sg17
V30
p771
sg19
g20
sbag1
(g2
g3
Ntp772
Rp773
(dp774
g7
V557
p775
sg9
VDwebble
p776
sg11
VSw,Sh,
p777
sg13
VBrown grass
p778
sg15
V28
p779
sg17
V30
p780
sg19
g20
sbag1
(g2
g3
Ntp781
Rp782
(dp783
g7
V559
p784
sg9
VScraggy
p785
sg11
g26
sg13
VBrown grass
p786
sg15
V28
p787
sg17
V30
p788
sg19
g20
sbag1
(g2
g3
Ntp789
Rp790
(dp791
g7
V597
p792
sg9
VFerroseed
p793
sg11
VSw,Sh,
p794
sg13
VBrown grass
p795
sg15
V28
p796
sg17
V30
p797
sg19
g20
sbag1
(g2
g3
Ntp798
Rp799
(dp800
g7
V613
p801
sg9
VCubchoo
p802
sg11
VSw,Sh,
p803
sg13
VBrown grass
p804
sg15
V28
p805
sg17
V30
p806
sg19
g20
sbag1
(g2
g3
Ntp807
Rp808
(dp809
g7
V627
p810
sg9
VRufflet
p811
sg11
g26
sg13
VBrown grass
p812
sg15
V28
p813
sg17
V30
p814
sg19
V5
p815
sbag1
(g2
g3
Ntp816
Rp817
(dp818
g7
V629
p819
sg9
VVullaby
p820
sg11
g35
sg13
VBrown grass
p821
sg15
V28
p822
sg17
V30
p823
sg19
V5
p824
sbag1
(g2
g3
Ntp825
Rp826
(dp827
g7
V751
p828
sg9
VDewpider
p829
sg11
VSw,Sh,
p830
sg13
VBrown grass
p831
sg15
V28
p832
sg17
V30
p833
sg19
g20
sbag1
(g2
g3
Ntp834
Rp835
(dp836
g7
V757
p837
sg9
VSalandit
p838
sg11
g35
sg13
VBrown grass
p839
sg15
V28
p840
sg17
V30
p841
sg19
g20
sbag1
(g2
g3
Ntp842
Rp843
(dp844
g7
V827
p845
sg9
VNickit
p846
sg11
VSw,Sh,
p847
sg13
VBrown grass
p848
sg15
V28
p849
sg17
V30
p850
sg19
g20
sbag1
(g2
g3
Ntp851
Rp852
(dp853
g7
V835
p854
sg9
VYamper
p855
sg11
VSw,Sh,
p856
sg13
VBrown grass
p857
sg15
V28
p858
sg17
V30
p859
sg19
g20
sbag1
(g2
g3
Ntp860
Rp861
(dp862
g7
V848
p863
sg9
VToxel
p864
sg11
VSw,Sh,
p865
sg13
VBrown grass
p866
sg15
V28
p867
sg17
V30
p868
sg19
g20
sbag1
(g2
g3
Ntp869
Rp870
(dp871
g7
V856
p872
sg9
VHatenna
p873
sg11
VSw,Sh,
p874
sg13
VBrown grass
p875
sg15
V28
p876
sg17
V30
p877
sg19
g20
sbag1
(g2
g3
Ntp878
Rp879
(dp880
g7
V520
p881
sg9
VTranquill
p882
sg11
VSw,Sh,
p883
sg13
VFlying
p884
sg15
V28
p885
sg17
V30
p886
sg19
g20
sbag1
(g2
g3
Ntp887
Rp888
(dp889
g7
V561
p890
sg9
VSigilyph
p891
sg11
VSw,Sh,
p892
sg13
VFlying
p893
sg15
V28
p894
sg17
V30
p895
sg19
g20
sbag1
(g2
g3
Ntp896
Rp897
(dp898
g7
V623
p899
sg9
VGolurk
p900
sg11
VSw,Sh,
p901
sg13
VWanderer
p902
sg15
V43
p903
sg17
g903
sg19
V0
p904
sbag1
(g2
g3
Ntp905
Rp906
(dp907
g7
V861
p908
sg9
VGrimmsnarl
p909
sg11
VSw,Sh,
p910
sg13
VWanderer
p911
sg15
V65
p912
sg17
g912
sg19
V0
p913
sbag1
(g2
g3
Ntp914
Rp915
(dp916
g7
V477
p917
sg9
VDusknoir
p918
sg11
VSw,Sh,
p919
sg13
VWanderer
p920
sg15
V60
p921
sg17
g921
sg19
V0
p922
sbag1
(g2
g3
Ntp923
Rp924
(dp925
g7
V344
p926
sg9
VClaydol
p927
sg11
VSw,Sh,
p928
sg13
VWanderer
p929
sg15
V42
p930
sg17
g930
sg19
g20
sbag1
(g2
g3
Ntp931
Rp932
(dp933
g7
V437
p934
sg9
VBronzong
p935
sg11
VSw,Sh,
p936
sg13
VWanderer
p937
sg15
V42
p938
sg17
g938
sg19
g20
sbag1
(g2
g3
Ntp939
Rp940
(dp941
g7
V752
p942
sg9
VAraquanid
p943
sg11
VSw,Sh,
p944
sg13
VWanderer
p945
sg15
V34
p946
sg17
g946
sg19
g20
sbag1
(g2
g3
Ntp947
Rp948
(dp949
g7
V763
p950
sg9
VTsareena
p951
sg11
VSw,Sh,
p952
sg13
VWanderer
p953
sg15
V36
p954
sg17
g954
sg19
g20
sbag1
(g2
g3
Ntp955
Rp956
(dp957
g7
V112
p958
sg9
VRhydon
p959
sg11
VSw,Sh,
p960
sg13
VWanderer
p961
sg15
V41
p962
sg17
g962
sg19
V0
p963
sbag1
(g2
g3
Ntp964
Rp965
(dp966
g7
V521
p967
sg9
VUnfezant
p968
sg11
VSw,Sh,
p969
sg13
VWanderer
p970
sg15
V40
p971
sg17
g971
sg19
g20
sbag1
(g2
g3
Ntp972
Rp973
(dp974
g7
V561
p975
sg9
VSigilyph
p976
sg11
VSw,Sh,
p977
sg13
VWanderer
p978
sg15
V40
p979
sg17
g979
sg19
g20
sbag1
(g2
g3
Ntp980
Rp981
(dp982
g7
V558
p983
sg9
VCrustle
p984
sg11
VSw,Sh,
p985
sg13
VWanderer
p986
sg15
V34
p987
sg17
g987
sg19
g20
sbag1
(g2
g3
Ntp988
Rp989
(dp990
g7
V752
p991
sg9
VAraquanid
p992
sg11
VSw,Sh,
p993
sg13
VWanderer
p994
sg15
V34
p995
sg17
g995
sg19
g20
sba.