(lp0
ccopy_reg
_reconstructor
p1
(c__main__
WildPokemon
p2
c__builtin__
object
p3
Ntp4
Rp5
(dp6
VpDexNo
p7
V020
p8
sVpSpecies
p9
VRaticate
p10
sVpGames
p11
VB2,W2,
p12
sVpArea
p13
VInside
p14
sVpMinLevel
p15
V32
p16
sVpMaxLevel
p17
V34
p18
sVpRate
p19
V15
p20
sbag1
(g2
g3
Ntp21
Rp22
(dp23
g7
V042
p24
sg9
VGolbat
p25
sg11
VB2,W2,
p26
sg13
VInside
p27
sg15
V32
p28
sg17
V33
p29
sg19
V15
p30
sbag1
(g2
g3
Ntp31
Rp32
(dp33
g7
V354
p34
sg9
VBanette
p35
sg11
VB2,W2,
p36
sg13
VInside
p37
sg15
V32
p38
sg17
V34
p39
sg19
V15
p40
sbag1
(g2
g3
Ntp41
Rp42
(dp43
g7
V574
p44
sg9
VGothita
p45
sg11
VB2,
p46
sg13
VInside
p47
sg15
V31
p48
sg17
g48
sg19
V20
p49
sbag1
(g2
g3
Ntp50
Rp51
(dp52
g7
V575
p53
sg9
VGothorita
p54
sg11
g46
sg13
VInside
p55
sg15
V33
p56
sg17
V34
p57
sg19
V5
p58
sbag1
(g2
g3
Ntp59
Rp60
(dp61
g7
V577
p62
sg9
VSolosis
p63
sg11
VW2,
p64
sg13
VInside
p65
sg15
V31
p66
sg17
g66
sg19
V20
p67
sbag1
(g2
g3
Ntp68
Rp69
(dp70
g7
V578
p71
sg9
VDuosion
p72
sg11
g64
sg13
VInside
p73
sg15
V34
p74
sg17
g74
sg19
V5
p75
sbag1
(g2
g3
Ntp76
Rp77
(dp78
g7
V607
p79
sg9
VLitwick
p80
sg11
VB2,W2,
p81
sg13
VInside
p82
sg15
V31
p83
sg17
V33
p84
sg19
V30
p85
sba.