(lp0
ccopy_reg
_reconstructor
p1
(c__main__
WildPokemon
p2
c__builtin__
object
p3
Ntp4
Rp5
(dp6
VpDexNo
p7
V550
p8
sVpSpecies
p9
VBasculin
p10
sVpGames
p11
VB,
p12
sVpArea
p13
VSurf
p14
sVpMinLevel
p15
V5
p16
sVpMaxLevel
p17
V15
p18
sVpRate
p19
V100
p20
sbag1
(g2
g3
Ntp21
Rp22
(dp23
g7
V550
p24
sg9
VBasculin
p25
sg11
VW,
p26
sg13
VSurf
p27
sg15
g16
sg17
V15
p28
sg19
V100
p29
sbag1
(g2
g3
Ntp30
Rp31
(dp32
g7
V550
p33
sg9
VBasculin
p34
sg11
g26
sg13
VRippling
p35
sg15
g16
sg17
V20
p36
sg19
V100
p37
sbag1
(g2
g3
Ntp38
Rp39
(dp40
g7
V550
p41
sg9
VBasculin
p42
sg11
g12
sg13
VRippling
p43
sg15
g16
sg17
V20
p44
sg19
V100
p45
sbag1
(g2
g3
Ntp46
Rp47
(dp48
g7
V118
p49
sg9
VGoldeen
p50
sg11
VB,W,
p51
sg13
VFishing
p52
sg15
V35
p53
sg17
V55
p54
sg19
V70
p55
sbag1
(g2
g3
Ntp56
Rp57
(dp58
g7
V550
p59
sg9
VBasculin
p60
sg11
g12
sg13
VFishing
p61
sg15
V35
p62
sg17
V55
p63
sg19
V30
p64
sbag1
(g2
g3
Ntp65
Rp66
(dp67
g7
V550
p68
sg9
VBasculin
p69
sg11
g26
sg13
VFishing
p70
sg15
V35
p71
sg17
V55
p72
sg19
V30
p73
sbag1
(g2
g3
Ntp74
Rp75
(dp76
g7
V118
p77
sg9
VGoldeen
p78
sg11
VB,W,
p79
sg13
VRippling
p80
sg15
V35
p81
sg17
V60
p82
sg19
V60
p83
sbag1
(g2
g3
Ntp84
Rp85
(dp86
g7
V119
p87
sg9
VSeaking
p88
sg11
VB,W,
p89
sg13
VRippling
p90
sg15
V45
p91
sg17
V70
p92
sg19
V10
p93
sbag1
(g2
g3
Ntp94
Rp95
(dp96
g7
V550
p97
sg9
VBasculin
p98
sg11
g26
sg13
VRippling
p99
sg15
V35
p100
sg17
V60
p101
sg19
V30
p102
sbag1
(g2
g3
Ntp103
Rp104
(dp105
g7
V550
p106
sg9
VBasculin
p107
sg11
g12
sg13
VRippling
p108
sg15
V35
p109
sg17
V60
p110
sg19
V30
p111
sbag1
(g2
g3
Ntp112
Rp113
(dp114
g7
V341
p115
sg9
VCorphish
p116
sg11
VB2,W2,
p117
sg13
VSurf
p118
sg15
V45
p119
sg17
V60
p120
sg19
V30
p121
sbag1
(g2
g3
Ntp122
Rp123
(dp124
g7
V550
p125
sg9
VBasculin
p126
sg11
VB2,
p127
sg13
VSurf
p128
sg15
V45
p129
sg17
V60
p130
sg19
V70
p131
sbag1
(g2
g3
Ntp132
Rp133
(dp134
g7
V550
p135
sg9
VBasculin
p136
sg11
VW2,
p137
sg13
VSurf
p138
sg15
V45
p139
sg17
V60
p140
sg19
V70
p141
sbag1
(g2
g3
Ntp142
Rp143
(dp144
g7
V342
p145
sg9
VCrawdaunt
p146
sg11
VB2,W2,
p147
sg13
VRippling
p148
sg15
V50
p149
sg17
V60
p150
sg19
V10
p151
sbag1
(g2
g3
Ntp152
Rp153
(dp154
g7
V550
p155
sg9
VBasculin
p156
sg11
g127
sg13
VRippling
p157
sg15
V45
p158
sg17
V60
p159
sg19
V90
p160
sbag1
(g2
g3
Ntp161
Rp162
(dp163
g7
V550
p164
sg9
VBasculin
p165
sg11
g137
sg13
VRippling
p166
sg15
V45
p167
sg17
V60
p168
sg19
V90
p169
sbag1
(g2
g3
Ntp170
Rp171
(dp172
g7
V118
p173
sg9
VGoldeen
p174
sg11
VB2,W2,
p175
sg13
VFish Super
p176
sg15
V40
p177
sg17
V70
p178
sg19
V70
p179
sbag1
(g2
g3
Ntp180
Rp181
(dp182
g7
V550
p183
sg9
VBasculin
p184
sg11
g127
sg13
VFish Super
p185
sg15
V40
p186
sg17
V60
p187
sg19
V30
p188
sbag1
(g2
g3
Ntp189
Rp190
(dp191
g7
V550
p192
sg9
VBasculin
p193
sg11
g137
sg13
VFish Super
p194
sg15
V40
p195
sg17
V60
p196
sg19
V30
p197
sbag1
(g2
g3
Ntp198
Rp199
(dp200
g7
V118
p201
sg9
VGoldeen
p202
sg11
VB2,W2,
p203
sg13
VRippling
p204
sg15
V40
p205
sg17
V60
p206
sg19
V60
p207
sbag1
(g2
g3
Ntp208
Rp209
(dp210
g7
V119
p211
sg9
VSeaking
p212
sg11
VB2,W2,
p213
sg13
VRippling
p214
sg15
V50
p215
sg17
V70
p216
sg19
V10
p217
sbag1
(g2
g3
Ntp218
Rp219
(dp220
g7
V550
p221
sg9
VBasculin
p222
sg11
g127
sg13
VRippling
p223
sg15
V40
p224
sg17
V60
p225
sg19
V30
p226
sbag1
(g2
g3
Ntp227
Rp228
(dp229
g7
V550
p230
sg9
VBasculin
p231
sg11
g137
sg13
VRippling
p232
sg15
V40
p233
sg17
V60
p234
sg19
V30
p235
sba.