(lp0
ccopy_reg
_reconstructor
p1
(c__main__
WildPokemon
p2
c__builtin__
object
p3
Ntp4
Rp5
(dp6
VpDexNo
p7
V072
p8
sVpSpecies
p9
VTentacool
p10
sVpGames
p11
VPt,
p12
sVpArea
p13
VSurf
p14
sVpMinLevel
p15
V30
p16
sVpMaxLevel
p17
V40
p18
sVpRate
p19
V60
p20
sbag1
(g2
g3
Ntp21
Rp22
(dp23
g7
V073
p24
sg9
VTentacruel
p25
sg11
VD,P,
p26
sg13
VSurf
p27
sg15
V35
p28
sg17
V45
p29
sg19
V60
p30
sbag1
(g2
g3
Ntp31
Rp32
(dp33
g7
V073
p34
sg9
VTentacruel
p35
sg11
g12
sg13
VSurf
p36
sg15
V30
p37
sg17
V50
p38
sg19
V9
p39
sbag1
(g2
g3
Ntp40
Rp41
(dp42
g7
V278
p43
sg9
VWingull
p44
sg11
g12
sg13
VSurf
p45
sg15
V30
p46
sg17
V40
p47
sg19
V30
p48
sbag1
(g2
g3
Ntp49
Rp50
(dp51
g7
V279
p52
sg9
VPelipper
p53
sg11
VD,P,
p54
sg13
VSurf
p55
sg15
V35
p56
sg17
V43
p57
sg19
V30
p58
sbag1
(g2
g3
Ntp59
Rp60
(dp61
g7
V279
p62
sg9
VPelipper
p63
sg11
g12
sg13
VSurf
p64
sg15
V30
p65
sg17
V50
p66
sg19
V1
p67
sbag1
(g2
g3
Ntp68
Rp69
(dp70
g7
V458
p71
sg9
VMantyke
p72
sg11
VD,P,
p73
sg13
VSurf
p74
sg15
V30
p75
sg17
V45
p76
sg19
V10
p77
sbag1
(g2
g3
Ntp78
Rp79
(dp80
g7
V129
p81
sg9
VMagikarp
p82
sg11
VD,P,
p83
sg13
VFish Old
p84
sg15
V3
p85
sg17
V10
p86
sg19
V100
p87
sbag1
(g2
g3
Ntp88
Rp89
(dp90
g7
V129
p91
sg9
VMagikarp
p92
sg11
g12
sg13
VFish Old
p93
sg15
g85
sg17
V15
p94
sg19
V100
p95
sbag1
(g2
g3
Ntp96
Rp97
(dp98
g7
V129
p99
sg9
VMagikarp
p100
sg11
VD,P,Pt,
p101
sg13
VFish Good
p102
sg15
V10
p103
sg17
V25
p104
sg19
V65
p105
sbag1
(g2
g3
Ntp106
Rp107
(dp108
g7
V223
p109
sg9
VRemoraid
p110
sg11
VD,P,Pt,
p111
sg13
VFish Good
p112
sg15
V10
p113
sg17
V25
p114
sg19
V35
p115
sbag1
(g2
g3
Ntp116
Rp117
(dp118
g7
V120
p119
sg9
VStaryu
p120
sg11
VD,P,
p121
sg13
VFish Super
p122
sg15
V20
p123
sg17
V40
p124
sg19
V15
p125
sbag1
(g2
g3
Ntp126
Rp127
(dp128
g7
V120
p129
sg9
VStaryu
p130
sg11
g12
sg13
VFish Super
p131
sg15
V20
p132
sg17
V50
p133
sg19
V15
p134
sbag1
(g2
g3
Ntp135
Rp136
(dp137
g7
V130
p138
sg9
VGyarados
p139
sg11
VD,P,
p140
sg13
VFish Super
p141
sg15
V30
p142
sg17
V40
p143
sg19
V40
p144
sbag1
(g2
g3
Ntp145
Rp146
(dp147
g7
V130
p148
sg9
VGyarados
p149
sg11
g12
sg13
VFish Super
p150
sg15
V30
p151
sg17
V55
p152
sg19
V40
p153
sbag1
(g2
g3
Ntp154
Rp155
(dp156
g7
V224
p157
sg9
VOctillery
p158
sg11
VD,P,
p159
sg13
VFish Super
p160
sg15
V20
p161
sg17
V50
p162
sg19
V45
p163
sbag1
(g2
g3
Ntp164
Rp165
(dp166
g7
V224
p167
sg9
VOctillery
p168
sg11
g12
sg13
VFish Super
p169
sg15
V30
p170
sg17
V55
p171
sg19
V45
p172
sba.