(lp0
ccopy_reg
_reconstructor
p1
(c__main__
WildPokemon
p2
c__builtin__
object
p3
Ntp4
Rp5
(dp6
VpDexNo
p7
V201
p8
sVpSpecies
p9
VUnown
p10
sVpGames
p11
VFR,LG,
p12
sVpArea
p13
VCave
p14
sVpMinLevel
p15
V25
p16
sVpMaxLevel
p17
g16
sVpRate
p18
V99
p19
sbag1
(g2
g3
Ntp20
Rp21
(dp22
g7
V201
p23
sg9
VUnown
p24
sg11
VFR,LG,
p25
sg13
VCave
p26
sg15
V25
p27
sg17
g27
sg18
V1
p28
sbag1
(g2
g3
Ntp29
Rp30
(dp31
g7
V201
p32
sg9
VUnown
p33
sg11
VFR,LG,
p34
sg13
VCave
p35
sg15
V25
p36
sg17
g36
sg18
V50
p37
sbag1
(g2
g3
Ntp38
Rp39
(dp40
g7
V201
p41
sg9
VUnown
p42
sg11
VFR,LG,
p43
sg13
VCave
p44
sg15
V25
p45
sg17
g45
sg18
V30
p46
sbag1
(g2
g3
Ntp47
Rp48
(dp49
g7
V201
p50
sg9
VUnown
p51
sg11
VFR,LG,
p52
sg13
VCave
p53
sg15
V25
p54
sg17
g54
sg18
V14
p55
sbag1
(g2
g3
Ntp56
Rp57
(dp58
g7
V201
p59
sg9
VUnown
p60
sg11
VFR,LG,
p61
sg13
VCave
p62
sg15
V25
p63
sg17
g63
sg18
V5
p64
sbag1
(g2
g3
Ntp65
Rp66
(dp67
g7
V201
p68
sg9
VUnown
p69
sg11
VFR,LG,
p70
sg13
VCave
p71
sg15
V25
p72
sg17
g72
sg18
V1
p73
sbag1
(g2
g3
Ntp74
Rp75
(dp76
g7
V201
p77
sg9
VUnown
p78
sg11
VFR,LG,
p79
sg13
VCave
p80
sg15
V25
p81
sg17
g81
sg18
V60
p82
sbag1
(g2
g3
Ntp83
Rp84
(dp85
g7
V201
p86
sg9
VUnown
p87
sg11
VFR,LG,
p88
sg13
VCave
p89
sg15
V25
p90
sg17
g90
sg18
V30
p91
sbag1
(g2
g3
Ntp92
Rp93
(dp94
g7
V201
p95
sg9
VUnown
p96
sg11
VFR,LG,
p97
sg13
VCave
p98
sg15
V25
p99
sg17
g99
sg18
V8
p100
sbag1
(g2
g3
Ntp101
Rp102
(dp103
g7
V201
p104
sg9
VUnown
p105
sg11
VFR,LG,
p106
sg13
VCave
p107
sg15
V25
p108
sg17
g108
sg18
V2
p109
sbag1
(g2
g3
Ntp110
Rp111
(dp112
g7
V201
p113
sg9
VUnown
p114
sg11
VFR,LG,
p115
sg13
VCave
p116
sg15
V25
p117
sg17
g117
sg18
V40
p118
sbag1
(g2
g3
Ntp119
Rp120
(dp121
g7
V201
p122
sg9
VUnown
p123
sg11
VFR,LG,
p124
sg13
VCave
p125
sg15
V25
p126
sg17
g126
sg18
V20
p127
sbag1
(g2
g3
Ntp128
Rp129
(dp130
g7
V201
p131
sg9
VUnown
p132
sg11
VFR,LG,
p133
sg13
VCave
p134
sg15
V25
p135
sg17
g135
sg18
V20
p136
sbag1
(g2
g3
Ntp137
Rp138
(dp139
g7
V201
p140
sg9
VUnown
p141
sg11
VFR,LG,
p142
sg13
VCave
p143
sg15
V25
p144
sg17
g144
sg18
V14
p145
sbag1
(g2
g3
Ntp146
Rp147
(dp148
g7
V201
p149
sg9
VUnown
p150
sg11
VFR,LG,
p151
sg13
VCave
p152
sg15
V25
p153
sg17
g153
sg18
V6
p154
sbag1
(g2
g3
Ntp155
Rp156
(dp157
g7
V201
p158
sg9
VUnown
p159
sg11
VFR,LG,
p160
sg13
VCave
p161
sg15
V25
p162
sg17
g162
sg18
V40
p163
sbag1
(g2
g3
Ntp164
Rp165
(dp166
g7
V201
p167
sg9
VUnown
p168
sg11
VFR,LG,
p169
sg13
VCave
p170
sg15
V25
p171
sg17
g171
sg18
V25
p172
sbag1
(g2
g3
Ntp173
Rp174
(dp175
g7
V201
p176
sg9
VUnown
p177
sg11
VFR,LG,
p178
sg13
VCave
p179
sg15
V25
p180
sg17
g180
sg18
V20
p181
sbag1
(g2
g3
Ntp182
Rp183
(dp184
g7
V201
p185
sg9
VUnown
p186
sg11
VFR,LG,
p187
sg13
VCave
p188
sg15
V25
p189
sg17
g189
sg18
V13
p190
sbag1
(g2
g3
Ntp191
Rp192
(dp193
g7
V201
p194
sg9
VUnown
p195
sg11
VFR,LG,
p196
sg13
VCave
p197
sg15
V25
p198
sg17
g198
sg18
V2
p199
sbag1
(g2
g3
Ntp200
Rp201
(dp202
g7
V201
p203
sg9
VUnown
p204
sg11
VFR,LG,
p205
sg13
VCave
p206
sg15
V25
p207
sg17
g207
sg18
V50
p208
sbag1
(g2
g3
Ntp209
Rp210
(dp211
g7
V201
p212
sg9
VUnown
p213
sg11
VFR,LG,
p214
sg13
VCave
p215
sg15
V25
p216
sg17
g216
sg18
V30
p217
sbag1
(g2
g3
Ntp218
Rp219
(dp220
g7
V201
p221
sg9
VUnown
p222
sg11
VFR,LG,
p223
sg13
VCave
p224
sg15
V25
p225
sg17
g225
sg18
V10
p226
sbag1
(g2
g3
Ntp227
Rp228
(dp229
g7
V201
p230
sg9
VUnown
p231
sg11
VFR,LG,
p232
sg13
VCave
p233
sg15
V25
p234
sg17
g234
sg18
V8
p235
sbag1
(g2
g3
Ntp236
Rp237
(dp238
g7
V201
p239
sg9
VUnown
p240
sg11
VFR,LG,
p241
sg13
VCave
p242
sg15
V25
p243
sg17
g243
sg18
V2
p244
sbag1
(g2
g3
Ntp245
Rp246
(dp247
g7
V201
p248
sg9
VUnown
p249
sg11
VFR,LG,
p250
sg13
VCave
p251
sg15
V25
p252
sg17
g252
sg18
V99
p253
sbag1
(g2
g3
Ntp254
Rp255
(dp256
g7
V201
p257
sg9
VUnown
p258
sg11
VFR,LG,
p259
sg13
VCave
p260
sg15
V25
p261
sg17
g261
sg18
V1
p262
sba.