(lp0
ccopy_reg
_reconstructor
p1
(c__main__
WildPokemon
p2
c__builtin__
object
p3
Ntp4
Rp5
(dp6
VpDexNo
p7
V020
p8
sVpSpecies
p9
VRaticate
p10
sVpGames
p11
VSu,M,
p12
sVpArea
p13
VGrass
p14
sVpMinLevel
p15
V28
p16
sVpMaxLevel
p17
V31
p18
sVpRate
p19
V30
p20
sbag1
(g2
g3
Ntp21
Rp22
(dp23
g7
V027
p24
sg9
VSandshrew
p25
sg11
VM,
p26
sg13
VGrass
p27
sg15
V28
p28
sg17
V31
p29
sg19
V10
p30
sbag1
(g2
g3
Ntp31
Rp32
(dp33
g7
V037
p34
sg9
VVulpix
p35
sg11
VSu,
p36
sg13
VGrass
p37
sg15
V28
p38
sg17
V31
p39
sg19
V10
p40
sbag1
(g2
g3
Ntp41
Rp42
(dp43
g7
V279
p44
sg9
VPelipper
p45
sg11
VSu,M,
p46
sg13
VGrass
p47
sg15
V28
p48
sg17
V31
p49
sg19
V30
p50
sbag1
(g2
g3
Ntp51
Rp52
(dp53
g7
V359
p54
sg9
VAbsol
p55
sg11
VSu,M,
p56
sg13
VGrass
p57
sg15
V28
p58
sg17
V31
p59
sg19
V10
p60
sbag1
(g2
g3
Ntp61
Rp62
(dp63
g7
V361
p64
sg9
VSnorunt
p65
sg11
VSu,M,
p66
sg13
VGrass
p67
sg15
V28
p68
sg17
V31
p69
sg19
V20
p70
sbag1
(g2
g3
Ntp71
Rp72
(dp73
g7
V735
p74
sg9
VGumshoos
p75
sg11
VSu,M,
p76
sg13
VGrass
p77
sg15
V28
p78
sg17
V31
p79
sg19
V30
p80
sbag1
(g2
g3
Ntp81
Rp82
(dp83
g7
V000
p84
sg9
VAny
p85
sg11
VSu,M,
p86
sg13
VGrass
p87
sg15
V28
p88
sg17
V31
p89
sg19
V10
p90
sbag1
(g2
g3
Ntp91
Rp92
(dp93
g7
V000
p94
sg9
VAny
p95
sg11
VSu,M,
p96
sg13
VGrass
p97
sg15
V28
p98
sg17
V31
p99
sg19
V1
p100
sbag1
(g2
g3
Ntp101
Rp102
(dp103
g7
V000
p104
sg9
VAny
p105
sg11
VSu,M,
p106
sg13
VGrass
p107
sg15
V28
p108
sg17
V31
p109
sg19
V11
p110
sbag1
(g2
g3
Ntp111
Rp112
(dp113
g7
V075
p114
sg9
VGraveler
p115
sg11
VSu,M,
p116
sg13
VTrade
p117
sg15
V32
p118
sg17
g118
sg19
V0
p119
sbag1
(g2
g3
Ntp120
Rp121
(dp122
g7
V220
p123
sg9
VSwinub
p124
sg11
VSu,M,
p125
sg13
VGrass
p126
sg15
V31
p127
sg17
g127
sg19
V0
p128
sbag1
(g2
g3
Ntp129
Rp130
(dp131
g7
V020
p132
sg9
VRaticate
p133
sg11
VUS,UM,
p134
sg13
VGrass
p135
sg15
V30
p136
sg17
V33
p137
sg19
V30
p138
sbag1
(g2
g3
Ntp139
Rp140
(dp141
g7
V027
p142
sg9
VSandshrew
p143
sg11
VUM,
p144
sg13
VGrass
p145
sg15
V30
p146
sg17
V33
p147
sg19
V10
p148
sbag1
(g2
g3
Ntp149
Rp150
(dp151
g7
V037
p152
sg9
VVulpix
p153
sg11
VUS,
p154
sg13
VGrass
p155
sg15
V30
p156
sg17
V33
p157
sg19
V10
p158
sbag1
(g2
g3
Ntp159
Rp160
(dp161
g7
V279
p162
sg9
VPelipper
p163
sg11
VUS,UM,
p164
sg13
VGrass
p165
sg15
V30
p166
sg17
V33
p167
sg19
V30
p168
sbag1
(g2
g3
Ntp169
Rp170
(dp171
g7
V359
p172
sg9
VAbsol
p173
sg11
VUS,UM,
p174
sg13
VGrass
p175
sg15
V30
p176
sg17
V33
p177
sg19
V10
p178
sbag1
(g2
g3
Ntp179
Rp180
(dp181
g7
V361
p182
sg9
VSnorunt
p183
sg11
VUS,UM,
p184
sg13
VGrass
p185
sg15
V30
p186
sg17
V33
p187
sg19
V20
p188
sbag1
(g2
g3
Ntp189
Rp190
(dp191
g7
V735
p192
sg9
VGumshoos
p193
sg11
VUS,UM,
p194
sg13
VGrass
p195
sg15
V30
p196
sg17
V33
p197
sg19
V30
p198
sbag1
(g2
g3
Ntp199
Rp200
(dp201
g7
V000
p202
sg9
VAny
p203
sg11
VUS,UM,
p204
sg13
VGrass
p205
sg15
V30
p206
sg17
V33
p207
sg19
V10
p208
sbag1
(g2
g3
Ntp209
Rp210
(dp211
g7
V000
p212
sg9
VAny
p213
sg11
VUS,UM,
p214
sg13
VGrass
p215
sg15
V30
p216
sg17
V33
p217
sg19
V1
p218
sbag1
(g2
g3
Ntp219
Rp220
(dp221
g7
V000
p222
sg9
VAny
p223
sg11
VUS,UM,
p224
sg13
VGrass
p225
sg15
V30
p226
sg17
V33
p227
sg19
V11
p228
sbag1
(g2
g3
Ntp229
Rp230
(dp231
g7
V708
p232
sg9
VPhantump
p233
sg11
VUS,UM,
p234
sg13
VTrade
p235
sg15
V33
p236
sg17
g236
sg19
V0
p237
sbag1
(g2
g3
Ntp238
Rp239
(dp240
g7
V220
p241
sg9
VSwinub
p242
sg11
VUS,UM,
p243
sg13
VGrass
p244
sg15
V33
p245
sg17
g245
sg19
V0
p246
sba.