(lp0
ccopy_reg
_reconstructor
p1
(c__main__
WildPokemon
p2
c__builtin__
object
p3
Ntp4
Rp5
(dp6
VpDexNo
p7
V101
p8
sVpSpecies
p9
VElectrode
p10
sVpGames
p11
VS,E,
p12
sVpArea
p13
VFake
p14
sVpMinLevel
p15
V30
p16
sVpMaxLevel
p17
g16
sVpRate
p18
V0
p19
sbag1
(g2
g3
Ntp20
Rp21
(dp22
g7
V072
p23
sg9
VTentacool
p24
sg11
VAS,
p25
sg13
VSurf
p26
sg15
V20
p27
sg17
V30
p28
sg18
V100
p29
sbag1
(g2
g3
Ntp30
Rp31
(dp32
g7
V072
p33
sg9
VTentacool
p34
sg11
g25
sg13
VFish Old
p35
sg15
V5
p36
sg17
g36
sg18
V35
p37
sbag1
(g2
g3
Ntp38
Rp39
(dp40
g7
V129
p41
sg9
VMagikarp
p42
sg11
g25
sg13
VFish Old
p43
sg15
V10
p44
sg17
V15
p45
sg18
V65
p46
sbag1
(g2
g3
Ntp47
Rp48
(dp49
g7
V072
p50
sg9
VTentacool
p51
sg11
g25
sg13
VFish Good
p52
sg15
V25
p53
sg17
g53
sg18
V35
p54
sbag1
(g2
g3
Ntp55
Rp56
(dp57
g7
V129
p58
sg9
VMagikarp
p59
sg11
g25
sg13
VFish Good
p60
sg15
V25
p61
sg17
g61
sg18
V60
p62
sbag1
(g2
g3
Ntp63
Rp64
(dp65
g7
V320
p66
sg9
VWailmer
p67
sg11
g25
sg13
VFish Good
p68
sg15
V25
p69
sg17
g69
sg18
V5
p70
sbag1
(g2
g3
Ntp71
Rp72
(dp73
g7
V120
p74
sg9
VStaryu
p75
sg11
g25
sg13
VFish Super
p76
sg15
V40
p77
sg17
g77
sg18
V5
p78
sbag1
(g2
g3
Ntp79
Rp80
(dp81
g7
V320
p82
sg9
VWailmer
p83
sg11
g25
sg13
VFish Super
p84
sg15
V30
p85
sg17
V35
p86
sg18
V95
p87
sbag1
(g2
g3
Ntp88
Rp89
(dp90
g7
V101
p91
sg9
VElectrode
p92
sg11
g25
sg13
VFake
p93
sg15
V40
p94
sg17
g94
sg18
V0
p95
sba.