(lp0
ccopy_reg
_reconstructor
p1
(c__main__
WildPokemon
p2
c__builtin__
object
p3
Ntp4
Rp5
(dp6
VpDexNo
p7
V074
p8
sVpSpecies
p9
VGeodude
p10
sVpGames
p11
VG,S,C,
p12
sVpArea
p13
VTrap floor
p14
sVpMinLevel
p15
V21
p16
sVpMaxLevel
p17
g16
sVpRate
p18
V0
p19
sbag1
(g2
g3
Ntp20
Rp21
(dp22
g7
V100
p23
sg9
VVoltorb
p24
sg11
VG,S,C,
p25
sg13
VTrap floor
p26
sg15
V23
p27
sg17
g27
sg18
V0
p28
sbag1
(g2
g3
Ntp29
Rp30
(dp31
g7
V101
p32
sg9
VElectrode
p33
sg11
VG,S,C,
p34
sg13
VTransmitter room
p35
sg15
V23
p36
sg17
g36
sg18
V0
p37
sbag1
(g2
g3
Ntp38
Rp39
(dp40
g7
V109
p41
sg9
VKoffing
p42
sg11
VG,S,C,
p43
sg13
VTrap floor
p44
sg15
V21
p45
sg17
g45
sg18
V0
p46
sbag1
(g2
g3
Ntp47
Rp48
(dp49
g7
V074
p50
sg9
VGeodude
p51
sg11
VHG,SS,
p52
sg13
VTrap floor
p53
sg15
V21
p54
sg17
g54
sg18
V0
p55
sbag1
(g2
g3
Ntp56
Rp57
(dp58
g7
V100
p59
sg9
VVoltorb
p60
sg11
VHG,SS,
p61
sg13
VTrap floor
p62
sg15
V23
p63
sg17
g63
sg18
V0
p64
sbag1
(g2
g3
Ntp65
Rp66
(dp67
g7
V101
p68
sg9
VElectrode
p69
sg11
VHG,SS,
p70
sg13
VTransmitter room
p71
sg15
V23
p72
sg17
g72
sg18
V0
p73
sbag1
(g2
g3
Ntp74
Rp75
(dp76
g7
V109
p77
sg9
VKoffing
p78
sg11
VHG,SS,
p79
sg13
VTrap floor
p80
sg15
V21
p81
sg17
g81
sg18
V0
p82
sba.