(lp0
ccopy_reg
_reconstructor
p1
(c__main__
WildPokemon
p2
c__builtin__
object
p3
Ntp4
Rp5
(dp6
VpDexNo
p7
V041
p8
sVpSpecies
p9
VZubat
p10
sVpGames
p11
VSu,M,
p12
sVpArea
p13
VCave
p14
sVpMinLevel
p15
V10
p16
sVpMaxLevel
p17
V13
p18
sVpRate
p19
V30
p20
sbag1
(g2
g3
Ntp21
Rp22
(dp23
g7
V050
p24
sg9
VDiglett
p25
sg11
VSu,M,
p26
sg13
VCave
p27
sg15
V10
p28
sg17
V13
p29
sg19
V20
p30
sbag1
(g2
g3
Ntp31
Rp32
(dp33
g7
V524
p34
sg9
VRoggenrola
p35
sg11
VSu,M,
p36
sg13
VCave
p37
sg15
V10
p38
sg17
V13
p39
sg19
V30
p40
sbag1
(g2
g3
Ntp41
Rp42
(dp43
g7
V703
p44
sg9
VCarbink
p45
sg11
VSu,M,
p46
sg13
VCave
p47
sg15
V10
p48
sg17
V13
p49
sg19
V20
p50
sbag1
(g2
g3
Ntp51
Rp52
(dp53
g7
V041
p54
sg9
VZubat
p55
sg11
VSu,M,
p56
sg13
VSurf
p57
sg15
V15
p58
sg17
V18
p59
sg19
V80
p60
sbag1
(g2
g3
Ntp61
Rp62
(dp63
g7
V054
p64
sg9
VPsyduck
p65
sg11
VSu,M,
p66
sg13
VSurf
p67
sg15
V15
p68
sg17
V18
p69
sg19
V20
p70
sbag1
(g2
g3
Ntp71
Rp72
(dp73
g7
V633
p74
sg9
VDeino
p75
sg11
VSu,M,
p76
sg13
VCave
p77
sg15
V13
p78
sg17
g78
sg19
V0
p79
sbag1
(g2
g3
Ntp80
Rp81
(dp82
g7
V066
p83
sg9
VMachop
p84
sg11
VSu,M,
p85
sg13
VGrass
p86
sg15
V10
p87
sg17
V13
p88
sg19
V30
p89
sbag1
(g2
g3
Ntp90
Rp91
(dp92
g7
V327
p93
sg9
VSpinda
p94
sg11
VSu,M,
p95
sg13
VGrass
p96
sg15
V10
p97
sg17
V13
p98
sg19
V10
p99
sbag1
(g2
g3
Ntp100
Rp101
(dp102
g7
V524
p103
sg9
VRoggenrola
p104
sg11
VSu,M,
p105
sg13
VGrass
p106
sg15
V10
p107
sg17
V13
p108
sg19
V20
p109
sbag1
(g2
g3
Ntp110
Rp111
(dp112
g7
V703
p113
sg9
VCarbink
p114
sg11
VSu,M,
p115
sg13
VGrass
p116
sg15
V10
p117
sg17
V13
p118
sg19
V20
p119
sbag1
(g2
g3
Ntp120
Rp121
(dp122
g7
V744
p123
sg9
VRockruff
p124
sg11
VSu,M,
p125
sg13
VGrass
p126
sg15
V10
p127
sg17
V13
p128
sg19
V20
p129
sbag1
(g2
g3
Ntp130
Rp131
(dp132
g7
V800
p133
sg9
VNecrozma
p134
sg11
VSu,M,
p135
sg13
VGrass
p136
sg15
V75
p137
sg17
g137
sg19
V0
p138
sbag1
(g2
g3
Ntp139
Rp140
(dp141
g7
V041
p142
sg9
VZubat
p143
sg11
VUS,UM,
p144
sg13
VCave
p145
sg15
V11
p146
sg17
V14
p147
sg19
V20
p148
sbag1
(g2
g3
Ntp149
Rp150
(dp151
g7
V054
p152
sg9
VPsyduck
p153
sg11
VUS,UM,
p154
sg13
VCave
p155
sg15
V11
p156
sg17
V14
p157
sg19
V10
p158
sbag1
(g2
g3
Ntp159
Rp160
(dp161
g7
V303
p162
sg9
VMawile
p163
sg11
VUS,UM,
p164
sg13
VCave
p165
sg15
V11
p166
sg17
V14
p167
sg19
V30
p168
sbag1
(g2
g3
Ntp169
Rp170
(dp171
g7
V524
p172
sg9
VRoggenrola
p173
sg11
VUS,UM,
p174
sg13
VCave
p175
sg15
V11
p176
sg17
V14
p177
sg19
V20
p178
sbag1
(g2
g3
Ntp179
Rp180
(dp181
g7
V703
p182
sg9
VCarbink
p183
sg11
VUS,UM,
p184
sg13
VCave
p185
sg15
V11
p186
sg17
V14
p187
sg19
V20
p188
sbag1
(g2
g3
Ntp189
Rp190
(dp191
g7
V041
p192
sg9
VZubat
p193
sg11
VUS,UM,
p194
sg13
VSurf
p195
sg15
V15
p196
sg17
V18
p197
sg19
V95
p198
sbag1
(g2
g3
Ntp199
Rp200
(dp201
g7
V054
p202
sg9
VPsyduck
p203
sg11
VUS,UM,
p204
sg13
VSurf
p205
sg15
V15
p206
sg17
V18
p207
sg19
V5
p208
sbag1
(g2
g3
Ntp209
Rp210
(dp211
g7
V095
p212
sg9
VOnix
p213
sg11
VUS,UM,
p214
sg13
VCave
p215
sg15
V14
p216
sg17
g216
sg19
V0
p217
sbag1
(g2
g3
Ntp218
Rp219
(dp220
g7
V066
p221
sg9
VMachop
p222
sg11
VUS,UM,
p223
sg13
VGrass
p224
sg15
V11
p225
sg17
V14
p226
sg19
V30
p227
sbag1
(g2
g3
Ntp228
Rp229
(dp230
g7
V327
p231
sg9
VSpinda
p232
sg11
VUS,UM,
p233
sg13
VGrass
p234
sg15
V11
p235
sg17
V14
p236
sg19
V30
p237
sbag1
(g2
g3
Ntp238
Rp239
(dp240
g7
V524
p241
sg9
VRoggenrola
p242
sg11
VUS,UM,
p243
sg13
VGrass
p244
sg15
V11
p245
sg17
V14
p246
sg19
V10
p247
sbag1
(g2
g3
Ntp248
Rp249
(dp250
g7
V703
p251
sg9
VCarbink
p252
sg11
VUS,UM,
p253
sg13
VGrass
p254
sg15
V11
p255
sg17
V14
p256
sg19
V10
p257
sbag1
(g2
g3
Ntp258
Rp259
(dp260
g7
V744
p261
sg9
VRockruff
p262
sg11
VUS,UM,
p263
sg13
VGrass
p264
sg15
V11
p265
sg17
V14
p266
sg19
V20
p267
sbag1
(g2
g3
Ntp268
Rp269
(dp270
g7
V025
p271
sg9
VPikachu
p272
sg11
VSu,M,
p273
sg13
VGrass
p274
sg15
V20
p275
sg17
V23
p276
sg19
V5
p277
sbag1
(g2
g3
Ntp278
Rp279
(dp280
g7
V731
p281
sg9
VPikipek
p282
sg11
VSu,M,
p283
sg13
VGrass
p284
sg15
V20
p285
sg17
V23
p286
sg19
V50
p287
sbag1
(g2
g3
Ntp288
Rp289
(dp290
g7
V734
p291
sg9
VYungoos
p292
sg11
VSu,M,
p293
sg13
VGrass
p294
sg15
V20
p295
sg17
V23
p296
sg19
V30
p297
sbag1
(g2
g3
Ntp298
Rp299
(dp300
g7
V744
p301
sg9
VRockruff
p302
sg11
VSu,M,
p303
sg13
VGrass
p304
sg15
V20
p305
sg17
V23
p306
sg19
V15
p307
sbag1
(g2
g3
Ntp308
Rp309
(dp310
g7
V025
p311
sg9
VPikachu
p312
sg11
VSu,M,
p313
sg13
VGrass
p314
sg15
V30
p315
sg17
V34
p316
sg19
V5
p317
sbag1
(g2
g3
Ntp318
Rp319
(dp320
g7
V731
p321
sg9
VPikipek
p322
sg11
VSu,M,
p323
sg13
VGrass
p324
sg15
V30
p325
sg17
V34
p326
sg19
V50
p327
sbag1
(g2
g3
Ntp328
Rp329
(dp330
g7
V734
p331
sg9
VYungoos
p332
sg11
VSu,M,
p333
sg13
VGrass
p334
sg15
V30
p335
sg17
V34
p336
sg19
V30
p337
sbag1
(g2
g3
Ntp338
Rp339
(dp340
g7
V744
p341
sg9
VRockruff
p342
sg11
VSu,M,
p343
sg13
VGrass
p344
sg15
V30
p345
sg17
V34
p346
sg19
V15
p347
sbag1
(g2
g3
Ntp348
Rp349
(dp350
g7
V782
p351
sg9
VJangmo-o
p352
sg11
VSu,M,
p353
sg13
VSpecial
p354
sg15
V26
p355
sg17
g355
sg19
V0
p356
sbag1
(g2
g3
Ntp357
Rp358
(dp359
g7
V782
p360
sg9
VJangmo-o
p361
sg11
VSu,M,
p362
sg13
VSpecial
p363
sg15
V27
p364
sg17
g364
sg19
V0
p365
sbag1
(g2
g3
Ntp366
Rp367
(dp368
g7
V783
p369
sg9
VHakamo-o
p370
sg11
VSu,M,
p371
sg13
VSpecial
p372
sg15
V30
p373
sg17
g373
sg19
V0
p374
sba.