(lp0
ccopy_reg
_reconstructor
p1
(c__main__
WildPokemon
p2
c__builtin__
object
p3
Ntp4
Rp5
(dp6
VpDexNo
p7
V028
p8
sVpSpecies
p9
VSandslash
p10
sVpGames
p11
VX,Y,
p12
sVpArea
p13
VCave
p14
sVpMinLevel
p15
V45
p16
sVpMaxLevel
p17
V46
p18
sVpRate
p19
V20
p20
sbag1
(g2
g3
Ntp21
Rp22
(dp23
g7
V075
p24
sg9
VGraveler
p25
sg11
VX,Y,
p26
sg13
VCave
p27
sg15
V44
p28
sg17
V46
p29
sg19
V20
p30
sbag1
(g2
g3
Ntp31
Rp32
(dp33
g7
V247
p34
sg9
VPupitar
p35
sg11
VY,
p36
sg13
VCave
p37
sg15
V45
p38
sg17
V46
p39
sg19
V20
p40
sbag1
(g2
g3
Ntp41
Rp42
(dp43
g7
V305
p44
sg9
VLairon
p45
sg11
VX,
p46
sg13
VCave
p47
sg15
V45
p48
sg17
V46
p49
sg19
V20
p50
sbag1
(g2
g3
Ntp51
Rp52
(dp53
g7
V632
p54
sg9
VDurant
p55
sg11
VX,Y,
p56
sg13
VCave
p57
sg15
V44
p58
sg17
V46
p59
sg19
V40
p60
sbag1
(g2
g3
Ntp61
Rp62
(dp63
g7
V074
p64
sg9
VGeodude
p65
sg11
VX,Y,
p66
sg13
VHorde Encounter
p67
sg15
V23
p68
sg17
g68
sg19
V35
p69
sbag1
(g2
g3
Ntp70
Rp71
(dp72
g7
V246
p73
sg9
VLarvitar
p74
sg11
g36
sg13
VHorde Encounter
p75
sg15
V24
p76
sg17
g76
sg19
V5
p77
sbag1
(g2
g3
Ntp78
Rp79
(dp80
g7
V304
p81
sg9
VAron
p82
sg11
g46
sg13
VHorde Encounter
p83
sg15
V24
p84
sg17
g84
sg19
V5
p85
sbag1
(g2
g3
Ntp86
Rp87
(dp88
g7
V632
p89
sg9
VDurant
p90
sg11
VX,Y,
p91
sg13
VHorde Encounter
p92
sg15
V23
p93
sg17
g93
sg19
V60
p94
sbag1
(g2
g3
Ntp95
Rp96
(dp97
g7
V075
p98
sg9
VGraveler
p99
sg11
VX,Y,
p100
sg13
VRock Smash
p101
sg15
V44
p102
sg17
V46
p103
sg19
V95
p104
sbag1
(g2
g3
Ntp105
Rp106
(dp107
g7
V213
p108
sg9
VShuckle
p109
sg11
VX,Y,
p110
sg13
VRock Smash
p111
sg15
V44
p112
sg17
V46
p113
sg19
V5
p114
sbag1
(g2
g3
Ntp115
Rp116
(dp117
g7
V168
p118
sg9
VAriados
p119
sg11
VX,Y,
p120
sg13
VCeiling
p121
sg15
V44
p122
sg17
V46
p123
sg19
V0
p124
sbag1
(g2
g3
Ntp125
Rp126
(dp127
g7
V714
p128
sg9
VNoibat
p129
sg11
VX,Y,
p130
sg13
VCeiling
p131
sg15
V44
p132
sg17
V46
p133
sg19
V0
p134
sbag1
(g2
g3
Ntp135
Rp136
(dp137
g7
V718
p138
sg9
VZygarde
p139
sg11
VX,Y,
p140
sg13
VSpecial
p141
sg15
V70
p142
sg17
g142
sg19
V0
p143
sba.