(lp0
ccopy_reg
_reconstructor
p1
(c__main__
WildPokemon
p2
c__builtin__
object
p3
Ntp4
Rp5
(dp6
VpDexNo
p7
V239
p8
sVpSpecies
p9
VElekid
p10
sVpGames
p11
VSw,Sh,
p12
sVpArea
p13
VGrass
p14
sVpMinLevel
p15
V60
p16
sVpMaxLevel
p17
V65
p18
sVpRate
p19
V0
p20
sbag1
(g2
g3
Ntp21
Rp22
(dp23
g7
V240
p24
sg9
VMagby
p25
sg11
VSw,Sh,
p26
sg13
VGrass
p27
sg15
V60
p28
sg17
V65
p29
sg19
g20
sbag1
(g2
g3
Ntp30
Rp31
(dp32
g7
V436
p33
sg9
VBronzor
p34
sg11
VSw,Sh,
p35
sg13
VGrass
p36
sg15
V60
p37
sg17
V65
p38
sg19
g20
sbag1
(g2
g3
Ntp39
Rp40
(dp41
g7
V439
p42
sg9
VMime Jr.
p43
sg11
VSw,Sh,
p44
sg13
VGrass
p45
sg15
V60
p46
sg17
V65
p47
sg19
g20
sbag1
(g2
g3
Ntp48
Rp49
(dp50
g7
V582
p51
sg9
VVanillite
p52
sg11
VSw,Sh,
p53
sg13
VGrass
p54
sg15
V60
p55
sg17
V65
p56
sg19
g20
sbag1
(g2
g3
Ntp57
Rp58
(dp59
g7
V708
p60
sg9
VPhantump
p61
sg11
VSw,Sh,
p62
sg13
VGrass
p63
sg15
V60
p64
sg17
V65
p65
sg19
g20
sbag1
(g2
g3
Ntp66
Rp67
(dp68
g7
V712
p69
sg9
VBergmite
p70
sg11
VSw,Sh,
p71
sg13
VGrass
p72
sg15
V60
p73
sg17
V65
p74
sg19
g20
sbag1
(g2
g3
Ntp75
Rp76
(dp77
g7
V751
p78
sg9
VDewpider
p79
sg11
VSw,Sh,
p80
sg13
VGrass
p81
sg15
V60
p82
sg17
V65
p83
sg19
g20
sbag1
(g2
g3
Ntp84
Rp85
(dp86
g7
V831
p87
sg9
VWooloo
p88
sg11
VSw,Sh,
p89
sg13
VGrass
p90
sg15
V60
p91
sg17
V65
p92
sg19
g20
sbag1
(g2
g3
Ntp93
Rp94
(dp95
g7
V856
p96
sg9
VHatenna
p97
sg11
VSw,Sh,
p98
sg13
VGrass
p99
sg15
V60
p100
sg17
V65
p101
sg19
g20
sbag1
(g2
g3
Ntp102
Rp103
(dp104
g7
V125
p105
sg9
VElectabuzz
p106
sg11
VSw,Sh,
p107
sg13
VGrass
p108
sg15
V60
p109
sg17
V65
p110
sg19
g20
sbag1
(g2
g3
Ntp111
Rp112
(dp113
g7
V126
p114
sg9
VMagmar
p115
sg11
VSw,Sh,
p116
sg13
VGrass
p117
sg15
V60
p118
sg17
V65
p119
sg19
g20
sbag1
(g2
g3
Ntp120
Rp121
(dp122
g7
V333
p123
sg9
VSwablu
p124
sg11
VSw,Sh,
p125
sg13
VGrass
p126
sg15
V60
p127
sg17
V65
p128
sg19
g20
sbag1
(g2
g3
Ntp129
Rp130
(dp131
g7
V344
p132
sg9
VClaydol
p133
sg11
VSw,Sh,
p134
sg13
VGrass
p135
sg15
V60
p136
sg17
V65
p137
sg19
g20
sbag1
(g2
g3
Ntp138
Rp139
(dp140
g7
V359
p141
sg9
VAbsol
p142
sg11
VSw,Sh,
p143
sg13
VGrass
p144
sg15
V60
p145
sg17
V65
p146
sg19
g20
sbag1
(g2
g3
Ntp147
Rp148
(dp149
g7
V437
p150
sg9
VBronzong
p151
sg11
VSw,Sh,
p152
sg13
VGrass
p153
sg15
V60
p154
sg17
V65
p155
sg19
g20
sbag1
(g2
g3
Ntp156
Rp157
(dp158
g7
V531
p159
sg9
VAudino
p160
sg11
VSw,Sh,
p161
sg13
VGrass
p162
sg15
V60
p163
sg17
V65
p164
sg19
g20
sbag1
(g2
g3
Ntp165
Rp166
(dp167
g7
V583
p168
sg9
VVanillish
p169
sg11
VSw,Sh,
p170
sg13
VGrass
p171
sg15
V60
p172
sg17
V65
p173
sg19
g20
sbag1
(g2
g3
Ntp174
Rp175
(dp176
g7
V596
p177
sg9
VGalvantula
p178
sg11
VSw,Sh,
p179
sg13
VGrass
p180
sg15
V60
p181
sg17
V65
p182
sg19
g20
sbag1
(g2
g3
Ntp183
Rp184
(dp185
g7
V615
p186
sg9
VCryogonal
p187
sg11
VSw,Sh,
p188
sg13
VGrass
p189
sg15
V60
p190
sg17
V65
p191
sg19
g20
sbag1
(g2
g3
Ntp192
Rp193
(dp194
g7
V621
p195
sg9
VDruddigon
p196
sg11
VSw,Sh,
p197
sg13
VGrass
p198
sg15
V60
p199
sg17
V65
p200
sg19
g20
sbag1
(g2
g3
Ntp201
Rp202
(dp203
g7
V623
p204
sg9
VGolurk
p205
sg11
VSw,Sh,
p206
sg13
VGrass
p207
sg15
V60
p208
sg17
V65
p209
sg19
g20
sbag1
(g2
g3
Ntp210
Rp211
(dp212
g7
V631
p213
sg9
VHeatmor
p214
sg11
VSw,Sh,
p215
sg13
VGrass
p216
sg15
V60
p217
sg17
V65
p218
sg19
g20
sbag1
(g2
g3
Ntp219
Rp220
(dp221
g7
V632
p222
sg9
VDurant
p223
sg11
VSw,Sh,
p224
sg13
VGrass
p225
sg15
V60
p226
sg17
V65
p227
sg19
g20
sbag1
(g2
g3
Ntp228
Rp229
(dp230
g7
V708
p231
sg9
VPhantump
p232
sg11
VSw,Sh,
p233
sg13
VGrass
p234
sg15
V60
p235
sg17
V65
p236
sg19
g20
sbag1
(g2
g3
Ntp237
Rp238
(dp239
g7
V713
p240
sg9
VAvalugg
p241
sg11
VSw,Sh,
p242
sg13
VGrass
p243
sg15
V60
p244
sg17
V65
p245
sg19
g20
sbag1
(g2
g3
Ntp246
Rp247
(dp248
g7
V752
p249
sg9
VAraquanid
p250
sg11
VSw,Sh,
p251
sg13
VGrass
p252
sg15
V60
p253
sg17
V65
p254
sg19
g20
sbag1
(g2
g3
Ntp255
Rp256
(dp257
g7
V778
p258
sg9
VMimikyu
p259
sg11
VSw,Sh,
p260
sg13
VGrass
p261
sg15
V60
p262
sg17
V65
p263
sg19
g20
sbag1
(g2
g3
Ntp264
Rp265
(dp266
g7
V832
p267
sg9
VDubwool
p268
sg11
VSw,Sh,
p269
sg13
VGrass
p270
sg15
V60
p271
sg17
V65
p272
sg19
g20
sbag1
(g2
g3
Ntp273
Rp274
(dp275
g7
V857
p276
sg9
VHattrem
p277
sg11
VSw,Sh,
p278
sg13
VGrass
p279
sg15
V60
p280
sg17
V65
p281
sg19
g20
sbag1
(g2
g3
Ntp282
Rp283
(dp284
g7
V623
p285
sg9
VGolurk
p286
sg11
VSw,Sh,
p287
sg13
VWanderer
p288
sg15
V65
p289
sg17
g289
sg19
V0
p290
sbag1
(g2
g3
Ntp291
Rp292
(dp293
g7
V466
p294
sg9
VElectivire
p295
sg11
VSw,Sh,
p296
sg13
VWanderer
p297
sg15
V68
p298
sg17
g298
sg19
g20
sbag1
(g2
g3
Ntp299
Rp300
(dp301
g7
V887
p302
sg9
VDragapult
p303
sg11
VSw,Sh,
p304
sg13
VWanderer
p305
sg15
V68
p306
sg17
g306
sg19
g20
sba.