(lp0
ccopy_reg
_reconstructor
p1
(c__main__
WildPokemon
p2
c__builtin__
object
p3
Ntp4
Rp5
(dp6
VpDexNo
p7
V206
p8
sVpSpecies
p9
VDunsparce
p10
sVpGames
p11
VFR,LG,
p12
sVpArea
p13
VGrass
p14
sVpMinLevel
p15
V5
p16
sVpMaxLevel
p17
V35
p18
sVpRate
p19
V100
p20
sba.