(lp0
ccopy_reg
_reconstructor
p1
(c__main__
WildPokemon
p2
c__builtin__
object
p3
Ntp4
Rp5
(dp6
VpDexNo
p7
V042
p8
sVpSpecies
p9
VGolbat
p10
sVpGames
p11
VSu,M,
p12
sVpArea
p13
VWalking
p14
sVpMinLevel
p15
V29
p16
sVpMaxLevel
p17
V32
p18
sVpRate
p19
V40
p20
sbag1
(g2
g3
Ntp21
Rp22
(dp23
g7
V093
p24
sg9
VHaunter
p25
sg11
VSu,M,
p26
sg13
VWalking
p27
sg15
V29
p28
sg17
V32
p29
sg19
V40
p30
sbag1
(g2
g3
Ntp31
Rp32
(dp33
g7
V707
p34
sg9
VKlefki
p35
sg11
VSu,M,
p36
sg13
VWalking
p37
sg15
V29
p38
sg17
V32
p39
sg19
V15
p40
sbag1
(g2
g3
Ntp41
Rp42
(dp43
g7
V778
p44
sg9
VMimikyu
p45
sg11
VSu,M,
p46
sg13
VWalking
p47
sg15
V29
p48
sg17
V32
p49
sg19
V5
p50
sbag1
(g2
g3
Ntp51
Rp52
(dp53
g7
V042
p54
sg9
VGolbat
p55
sg11
VUS,UM,
p56
sg13
VWalking
p57
sg15
V31
p58
sg17
V34
p59
sg19
V20
p60
sbag1
(g2
g3
Ntp61
Rp62
(dp63
g7
V093
p64
sg9
VHaunter
p65
sg11
VUS,UM,
p66
sg13
VWalking
p67
sg15
V31
p68
sg17
V34
p69
sg19
V30
p70
sbag1
(g2
g3
Ntp71
Rp72
(dp73
g7
V353
p74
sg9
VShuppet
p75
sg11
VUS,UM,
p76
sg13
VWalking
p77
sg15
V31
p78
sg17
V34
p79
sg19
V30
p80
sbag1
(g2
g3
Ntp81
Rp82
(dp83
g7
V707
p84
sg9
VKlefki
p85
sg11
VUS,UM,
p86
sg13
VWalking
p87
sg15
V31
p88
sg17
V34
p89
sg19
V15
p90
sbag1
(g2
g3
Ntp91
Rp92
(dp93
g7
V778
p94
sg9
VMimikyu
p95
sg11
VUS,UM,
p96
sg13
VWalking
p97
sg15
V31
p98
sg17
V34
p99
sg19
V5
p100
sba.