(lp0
ccopy_reg
_reconstructor
p1
(c__main__
WildPokemon
p2
c__builtin__
object
p3
Ntp4
Rp5
(dp6
VpDexNo
p7
V020
p8
sVpSpecies
p9
VRaticate
p10
sVpGames
p11
VG,S,C,
p12
sVpArea
p13
VCave
p14
sVpMinLevel
p15
V22
p16
sVpMaxLevel
p17
g16
sVpRate
p18
V30
p19
sbag1
(g2
g3
Ntp20
Rp21
(dp22
g7
V041
p23
sg9
VZubat
p24
sg11
VG,S,C,
p25
sg13
VCave
p26
sg15
V22
p27
sg17
g27
sg18
V30
p28
sbag1
(g2
g3
Ntp29
Rp30
(dp31
g7
V042
p32
sg9
VGolbat
p33
sg11
VG,S,C,
p34
sg13
VCave
p35
sg15
V24
p36
sg17
g36
sg18
V20
p37
sbag1
(g2
g3
Ntp38
Rp39
(dp40
g7
V079
p41
sg9
VSlowpoke
p42
sg11
VG,S,C,
p43
sg13
VCave
p44
sg15
V21
p45
sg17
V23
p46
sg18
V15
p47
sbag1
(g2
g3
Ntp48
Rp49
(dp50
g7
V019
p51
sg9
VRattata
p52
sg11
VG,S,C,
p53
sg13
VCave
p54
sg15
V20
p55
sg17
g55
sg18
V5
p56
sbag1
(g2
g3
Ntp57
Rp58
(dp59
g7
V118
p60
sg9
VGoldeen
p61
sg11
VG,S,C,
p62
sg13
VSurf
p63
sg15
V20
p64
sg17
V24
p65
sg18
V60
p66
sbag1
(g2
g3
Ntp67
Rp68
(dp69
g7
V079
p70
sg9
VSlowpoke
p71
sg11
VG,S,C,
p72
sg13
VSurf
p73
sg15
V20
p74
sg17
V24
p75
sg18
V30
p76
sbag1
(g2
g3
Ntp77
Rp78
(dp79
g7
V119
p80
sg9
VSeaking
p81
sg11
VG,S,C,
p82
sg13
VSurf
p83
sg15
V20
p84
sg17
V24
p85
sg18
V10
p86
sbag1
(g2
g3
Ntp87
Rp88
(dp89
g7
V118
p90
sg9
VGoldeen
p91
sg11
VG,S,C,
p92
sg13
VFish Old
p93
sg15
V10
p94
sg17
g94
sg18
V15
p95
sbag1
(g2
g3
Ntp96
Rp97
(dp98
g7
V129
p99
sg9
VMagikarp
p100
sg11
VG,S,C,
p101
sg13
VFish Old
p102
sg15
V10
p103
sg17
g103
sg18
V85
p104
sbag1
(g2
g3
Ntp105
Rp106
(dp107
g7
V118
p108
sg9
VGoldeen
p109
sg11
VG,S,C,
p110
sg13
VFish Good
p111
sg15
V20
p112
sg17
g112
sg18
V65
p113
sbag1
(g2
g3
Ntp114
Rp115
(dp116
g7
V129
p117
sg9
VMagikarp
p118
sg11
VG,S,C,
p119
sg13
VFish Good
p120
sg15
V20
p121
sg17
g121
sg18
V35
p122
sbag1
(g2
g3
Ntp123
Rp124
(dp125
g7
V118
p126
sg9
VGoldeen
p127
sg11
VG,S,C,
p128
sg13
VFish Super
p129
sg15
V40
p130
sg17
g130
sg18
V70
p131
sbag1
(g2
g3
Ntp132
Rp133
(dp134
g7
V119
p135
sg9
VSeaking
p136
sg11
VG,S,C,
p137
sg13
VFish Super
p138
sg15
V40
p139
sg17
g139
sg18
V10
p140
sbag1
(g2
g3
Ntp141
Rp142
(dp143
g7
V129
p144
sg9
VMagikarp
p145
sg11
VG,S,C,
p146
sg13
VFish Super
p147
sg15
V40
p148
sg17
g148
sg18
V20
p149
sbag1
(g2
g3
Ntp150
Rp151
(dp152
g7
V020
p153
sg9
VRaticate
p154
sg11
VHG,SS,
p155
sg13
VCave
p156
sg15
V22
p157
sg17
g157
sg18
V30
p158
sbag1
(g2
g3
Ntp159
Rp160
(dp161
g7
V041
p162
sg9
VZubat
p163
sg11
VHG,SS,
p164
sg13
VCave
p165
sg15
V22
p166
sg17
g166
sg18
V30
p167
sbag1
(g2
g3
Ntp168
Rp169
(dp170
g7
V042
p171
sg9
VGolbat
p172
sg11
VHG,SS,
p173
sg13
VCave
p174
sg15
V22
p175
sg17
g175
sg18
V20
p176
sbag1
(g2
g3
Ntp177
Rp178
(dp179
g7
V079
p180
sg9
VSlowpoke
p181
sg11
VHG,SS,
p182
sg13
VCave
p183
sg15
V20
p184
sg17
V23
p185
sg18
V15
p186
sbag1
(g2
g3
Ntp187
Rp188
(dp189
g7
V019
p190
sg9
VRattata
p191
sg11
VHG,SS,
p192
sg13
VCave
p193
sg15
V20
p194
sg17
g194
sg18
V5
p195
sbag1
(g2
g3
Ntp196
Rp197
(dp198
g7
V118
p199
sg9
VGoldeen
p200
sg11
VHG,SS,
p201
sg13
VSurf
p202
sg15
V20
p203
sg17
g203
sg18
V60
p204
sbag1
(g2
g3
Ntp205
Rp206
(dp207
g7
V079
p208
sg9
VSlowpoke
p209
sg11
VHG,SS,
p210
sg13
VSurf
p211
sg15
V20
p212
sg17
g212
sg18
V30
p213
sbag1
(g2
g3
Ntp214
Rp215
(dp216
g7
V119
p217
sg9
VSeaking
p218
sg11
VHG,SS,
p219
sg13
VSurf
p220
sg15
V20
p221
sg17
g221
sg18
V10
p222
sbag1
(g2
g3
Ntp223
Rp224
(dp225
g7
V129
p226
sg9
VMagikarp
p227
sg11
VHG,SS,
p228
sg13
VFish Old
p229
sg15
V10
p230
sg17
g230
sg18
V95
p231
sbag1
(g2
g3
Ntp232
Rp233
(dp234
g7
V118
p235
sg9
VGoldeen
p236
sg11
VHG,SS,
p237
sg13
VFish Old
p238
sg15
V10
p239
sg17
g239
sg18
V5
p240
sbag1
(g2
g3
Ntp241
Rp242
(dp243
g7
V129
p244
sg9
VMagikarp
p245
sg11
VHG,SS,
p246
sg13
VFish Good
p247
sg15
V20
p248
sg17
g248
sg18
V60
p249
sbag1
(g2
g3
Ntp250
Rp251
(dp252
g7
V118
p253
sg9
VGoldeen
p254
sg11
VHG,SS,
p255
sg13
VFish Good
p256
sg15
V20
p257
sg17
g257
sg18
V40
p258
sbag1
(g2
g3
Ntp259
Rp260
(dp261
g7
V118
p262
sg9
VGoldeen
p263
sg11
VHG,SS,
p264
sg13
VFish Super
p265
sg15
V40
p266
sg17
g266
sg18
V90
p267
sbag1
(g2
g3
Ntp268
Rp269
(dp270
g7
V129
p271
sg9
VMagikarp
p272
sg11
VHG,SS,
p273
sg13
VFish Super
p274
sg15
V40
p275
sg17
g275
sg18
V7
p276
sbag1
(g2
g3
Ntp277
Rp278
(dp279
g7
V119
p280
sg9
VSeaking
p281
sg11
VHG,SS,
p282
sg13
VFish Super
p283
sg15
V40
p284
sg17
g284
sg18
V3
p285
sbag1
(g2
g3
Ntp286
Rp287
(dp288
g7
V296
p289
sg9
VMakuhita
p290
sg11
VHG,SS,
p291
sg13
VHoenn
p292
sg15
V22
p293
sg17
g293
sg18
V20
p294
sbag1
(g2
g3
Ntp295
Rp296
(dp297
g7
V359
p298
sg9
VAbsol
p299
sg11
VHG,SS,
p300
sg13
VHoenn
p301
sg15
V22
p302
sg17
g302
sg18
V20
p303
sbag1
(g2
g3
Ntp304
Rp305
(dp306
g7
V433
p307
sg9
VChingling
p308
sg11
VHG,SS,
p309
sg13
VSinnoh
p310
sg15
V22
p311
sg17
g311
sg18
V20
p312
sbag1
(g2
g3
Ntp313
Rp314
(dp315
g7
V436
p316
sg9
VBronzor
p317
sg11
VHG,SS,
p318
sg13
VSinnoh
p319
sg15
V22
p320
sg17
g320
sg18
V20
p321
sba.