(lp0
ccopy_reg
_reconstructor
p1
(c__main__
WildPokemon
p2
c__builtin__
object
p3
Ntp4
Rp5
(dp6
VpDexNo
p7
V072
p8
sVpSpecies
p9
VTentacool
p10
sVpGames
p11
VFR,
p12
sVpArea
p13
VSurf
p14
sVpMinLevel
p15
V5
p16
sVpMaxLevel
p17
V40
p18
sVpRate
p19
V95
p20
sbag1
(g2
g3
Ntp21
Rp22
(dp23
g7
V072
p24
sg9
VTentacool
p25
sg11
VLG,
p26
sg13
VSurf
p27
sg15
g16
sg17
V35
p28
sg19
V90
p29
sbag1
(g2
g3
Ntp30
Rp31
(dp32
g7
V073
p33
sg9
VTentacruel
p34
sg11
VFR,LG,
p35
sg13
VSurf
p36
sg15
V35
p37
sg17
V40
p38
sg19
V5
p39
sbag1
(g2
g3
Ntp40
Rp41
(dp42
g7
V226
p43
sg9
VMantine
p44
sg11
g26
sg13
VSurf
p45
sg15
V35
p46
sg17
V40
p47
sg19
V5
p48
sbag1
(g2
g3
Ntp49
Rp50
(dp51
g7
V129
p52
sg9
VMagikarp
p53
sg11
VFR,LG,
p54
sg13
VFish Old
p55
sg15
g16
sg17
g16
sg19
V100
p56
sbag1
(g2
g3
Ntp57
Rp58
(dp59
g7
V116
p60
sg9
VHorsea
p61
sg11
g12
sg13
VFish Good
p62
sg15
g16
sg17
V15
p63
sg19
V80
p64
sbag1
(g2
g3
Ntp65
Rp66
(dp67
g7
V098
p68
sg9
VKrabby
p69
sg11
g26
sg13
VFish Good
p70
sg15
g16
sg17
V15
p71
sg19
V80
p72
sbag1
(g2
g3
Ntp73
Rp74
(dp75
g7
V129
p76
sg9
VMagikarp
p77
sg11
VFR,LG,
p78
sg13
VFish Good
p79
sg15
g16
sg17
V15
p80
sg19
V20
p81
sbag1
(g2
g3
Ntp82
Rp83
(dp84
g7
V116
p85
sg9
VHorsea
p86
sg11
g12
sg13
VFish Super
p87
sg15
V15
p88
sg17
V25
p89
sg19
V40
p90
sbag1
(g2
g3
Ntp91
Rp92
(dp93
g7
V211
p94
sg9
VQwilfish
p95
sg11
g12
sg13
VFish Super
p96
sg15
V15
p97
sg17
V25
p98
sg19
V40
p99
sbag1
(g2
g3
Ntp100
Rp101
(dp102
g7
V098
p103
sg9
VKrabby
p104
sg11
g26
sg13
VFish Super
p105
sg15
V15
p106
sg17
V25
p107
sg19
V40
p108
sbag1
(g2
g3
Ntp109
Rp110
(dp111
g7
V223
p112
sg9
VRemoraid
p113
sg11
g26
sg13
VFish Super
p114
sg15
V15
p115
sg17
V25
p116
sg19
V40
p117
sbag1
(g2
g3
Ntp118
Rp119
(dp120
g7
V130
p121
sg9
VGyarados
p122
sg11
VFR,LG,
p123
sg13
VFish Super
p124
sg15
V15
p125
sg17
V25
p126
sg19
V15
p127
sbag1
(g2
g3
Ntp128
Rp129
(dp130
g7
V117
p131
sg9
VSeadra
p132
sg11
g12
sg13
VFish Super
p133
sg15
V25
p134
sg17
V35
p135
sg19
V4
p136
sbag1
(g2
g3
Ntp137
Rp138
(dp139
g7
V099
p140
sg9
VKingler
p141
sg11
g26
sg13
VFish Super
p142
sg15
V25
p143
sg17
V35
p144
sg19
V4
p145
sbag1
(g2
g3
Ntp146
Rp147
(dp148
g7
V054
p149
sg9
VPsyduck
p150
sg11
g12
sg13
VFish Super
p151
sg15
V25
p152
sg17
V35
p153
sg19
V1
p154
sbag1
(g2
g3
Ntp155
Rp156
(dp157
g7
V079
p158
sg9
VSlowpoke
p159
sg11
g26
sg13
VFish Super
p160
sg15
V25
p161
sg17
V35
p162
sg19
V1
p163
sba.