(lp0
ccopy_reg
_reconstructor
p1
(c__main__
WildPokemon
p2
c__builtin__
object
p3
Ntp4
Rp5
(dp6
VpDexNo
p7
V403
p8
sVpSpecies
p9
VShinx
p10
sVpGames
p11
VSw,Sh,
p12
sVpArea
p13
VGrass
p14
sVpMinLevel
p15
V16
p16
sVpMaxLevel
p17
V21
p18
sVpRate
p19
V0
p20
sbag1
(g2
g3
Ntp21
Rp22
(dp23
g7
V440
p24
sg9
VHappiny
p25
sg11
VSw,Sh,
p26
sg13
VGrass
p27
sg15
V16
p28
sg17
V21
p29
sg19
V10
p30
sbag1
(g2
g3
Ntp31
Rp32
(dp33
g7
V506
p34
sg9
VLillipup
p35
sg11
VSw,Sh,
p36
sg13
VGrass
p37
sg15
V16
p38
sg17
V21
p39
sg19
g20
sbag1
(g2
g3
Ntp40
Rp41
(dp42
g7
V686
p43
sg9
VInkay
p44
sg11
VSw,Sh,
p45
sg13
VGrass
p46
sg15
V16
p47
sg17
V21
p48
sg19
g20
sbag1
(g2
g3
Ntp49
Rp50
(dp51
g7
V753
p52
sg9
VFomantis
p53
sg11
VSw,Sh,
p54
sg13
VGrass
p55
sg15
V16
p56
sg17
V21
p57
sg19
g20
sbag1
(g2
g3
Ntp58
Rp59
(dp60
g7
V824
p61
sg9
VBlipbug
p62
sg11
VSw,Sh,
p63
sg13
VGrass
p64
sg15
V16
p65
sg17
V21
p66
sg19
V30
p67
sbag1
(g2
g3
Ntp68
Rp69
(dp70
g7
V843
p71
sg9
VSilicobra
p72
sg11
VSw,Sh,
p73
sg13
VGrass
p74
sg15
V16
p75
sg17
V21
p76
sg19
g20
sbag1
(g2
g3
Ntp77
Rp78
(dp79
g7
V819
p80
sg9
VSkwovet
p81
sg11
VSw,Sh,
p82
sg13
VBerry tree
p83
sg15
V16
p84
sg17
V21
p85
sg19
V70
p86
sbag1
(g2
g3
Ntp87
Rp88
(dp89
g7
V840
p90
sg9
VApplin
p91
sg11
VSw,Sh,
p92
sg13
VBerry tree
p93
sg15
V16
p94
sg17
V21
p95
sg19
V30
p96
sbag1
(g2
g3
Ntp97
Rp98
(dp99
g7
V129
p100
sg9
VMagikarp
p101
sg11
VSw,Sh,
p102
sg13
VFishing
p103
sg15
V16
p104
sg17
V21
p105
sg19
V50
p106
sbag1
(g2
g3
Ntp107
Rp108
(dp109
g7
V318
p110
sg9
VCarvanha
p111
sg11
VSw,Sh,
p112
sg13
VFishing
p113
sg15
V16
p114
sg17
V21
p115
sg19
V40
p116
sbag1
(g2
g3
Ntp117
Rp118
(dp119
g7
V319
p120
sg9
VSharpedo
p121
sg11
VSw,Sh,
p122
sg13
VFishing
p123
sg15
V16
p124
sg17
V21
p125
sg19
V10
p126
sbag1
(g2
g3
Ntp127
Rp128
(dp129
g7
V113
p130
sg9
VChansey
p131
sg11
VSh,
p132
sg13
VGrass
p133
sg15
V10
p134
sg17
V15
p135
sg19
g20
sbag1
(g2
g3
Ntp136
Rp137
(dp138
g7
V113
p139
sg9
VChansey
p140
sg11
VSw,
p141
sg13
VGrass
p142
sg15
V13
p143
sg17
V18
p144
sg19
g20
sbag1
(g2
g3
Ntp145
Rp146
(dp147
g7
V123
p148
sg9
VScyther
p149
sg11
g132
sg13
VGrass
p150
sg15
V10
p151
sg17
V15
p152
sg19
V5
p153
sbag1
(g2
g3
Ntp154
Rp155
(dp156
g7
V123
p157
sg9
VScyther
p158
sg11
g141
sg13
VGrass
p159
sg15
V13
p160
sg17
V18
p161
sg19
V5
p162
sbag1
(g2
g3
Ntp163
Rp164
(dp165
g7
V127
p166
sg9
VPinsir
p167
sg11
g141
sg13
VGrass
p168
sg15
V13
p169
sg17
V18
p170
sg19
V5
p171
sbag1
(g2
g3
Ntp172
Rp173
(dp174
g7
V128
p175
sg9
VTauros
p176
sg11
g132
sg13
VGrass
p177
sg15
V10
p178
sg17
V15
p179
sg19
V16
p180
sbag1
(g2
g3
Ntp181
Rp182
(dp183
g7
V128
p184
sg9
VTauros
p185
sg11
g141
sg13
VGrass
p186
sg15
V13
p187
sg17
V18
p188
sg19
V16
p189
sbag1
(g2
g3
Ntp190
Rp191
(dp192
g7
V214
p193
sg9
VHeracross
p194
sg11
g132
sg13
VGrass
p195
sg15
V10
p196
sg17
V15
p197
sg19
V5
p198
sbag1
(g2
g3
Ntp199
Rp200
(dp201
g7
V241
p202
sg9
VMiltank
p203
sg11
g132
sg13
VGrass
p204
sg15
V10
p205
sg17
V15
p206
sg19
V16
p207
sbag1
(g2
g3
Ntp208
Rp209
(dp210
g7
V241
p211
sg9
VMiltank
p212
sg11
g141
sg13
VGrass
p213
sg15
V13
p214
sg17
V18
p215
sg19
V16
p216
sbag1
(g2
g3
Ntp217
Rp218
(dp219
g7
V242
p220
sg9
VBlissey
p221
sg11
g132
sg13
VGrass
p222
sg15
V10
p223
sg17
V15
p224
sg19
g20
sbag1
(g2
g3
Ntp225
Rp226
(dp227
g7
V242
p228
sg9
VBlissey
p229
sg11
g141
sg13
VGrass
p230
sg15
V13
p231
sg17
V18
p232
sg19
g20
sbag1
(g2
g3
Ntp233
Rp234
(dp235
g7
V403
p236
sg9
VShinx
p237
sg11
g132
sg13
VGrass
p238
sg15
V10
p239
sg17
V15
p240
sg19
g20
sbag1
(g2
g3
Ntp241
Rp242
(dp243
g7
V403
p244
sg9
VShinx
p245
sg11
g141
sg13
VGrass
p246
sg15
V13
p247
sg17
V18
p248
sg19
g20
sbag1
(g2
g3
Ntp249
Rp250
(dp251
g7
V506
p252
sg9
VLillipup
p253
sg11
g132
sg13
VGrass
p254
sg15
V10
p255
sg17
V15
p256
sg19
g20
sbag1
(g2
g3
Ntp257
Rp258
(dp259
g7
V506
p260
sg9
VLillipup
p261
sg11
g141
sg13
VGrass
p262
sg15
V13
p263
sg17
V18
p264
sg19
g20
sbag1
(g2
g3
Ntp265
Rp266
(dp267
g7
V686
p268
sg9
VInkay
p269
sg11
g132
sg13
VGrass
p270
sg15
V10
p271
sg17
V15
p272
sg19
g20
sbag1
(g2
g3
Ntp273
Rp274
(dp275
g7
V686
p276
sg9
VInkay
p277
sg11
g141
sg13
VGrass
p278
sg15
V13
p279
sg17
V18
p280
sg19
g20
sbag1
(g2
g3
Ntp281
Rp282
(dp283
g7
V753
p284
sg9
VFomantis
p285
sg11
g132
sg13
VGrass
p286
sg15
V10
p287
sg17
V15
p288
sg19
g20
sbag1
(g2
g3
Ntp289
Rp290
(dp291
g7
V753
p292
sg9
VFomantis
p293
sg11
g141
sg13
VGrass
p294
sg15
V13
p295
sg17
V18
p296
sg19
g20
sbag1
(g2
g3
Ntp297
Rp298
(dp299
g7
V843
p300
sg9
VSilicobra
p301
sg11
g132
sg13
VGrass
p302
sg15
V10
p303
sg17
V15
p304
sg19
g20
sbag1
(g2
g3
Ntp305
Rp306
(dp307
g7
V843
p308
sg9
VSilicobra
p309
sg11
g141
sg13
VGrass
p310
sg15
V13
p311
sg17
V18
p312
sg19
g20
sbag1
(g2
g3
Ntp313
Rp314
(dp315
g7
V120
p316
sg9
VStaryu
p317
sg11
VSw,Sh,
p318
sg13
VGrass
p319
sg15
V13
p320
sg17
V18
p321
sg19
V100
p322
sbag1
(g2
g3
Ntp323
Rp324
(dp325
g7
V341
p326
sg9
VCorphish
p327
sg11
VSw,Sh,
p328
sg13
VSurf
p329
sg15
V40
p330
sg17
V45
p331
sg19
V45
p332
sbag1
(g2
g3
Ntp333
Rp334
(dp335
g7
V845
p336
sg9
VCramorant
p337
sg11
VSw,Sh,
p338
sg13
VSurf
p339
sg15
V40
p340
sg17
V45
p341
sg19
V10
p342
sbag1
(g2
g3
Ntp343
Rp344
(dp345
g7
V846
p346
sg9
VArrokuda
p347
sg11
VSw,Sh,
p348
sg13
VSurf
p349
sg15
V40
p350
sg17
V45
p351
sg19
V45
p352
sbag1
(g2
g3
Ntp353
Rp354
(dp355
g7
V099
p356
sg9
VKingler
p357
sg11
VSw,Sh,
p358
sg13
VWanderer
p359
sg15
V28
p360
sg17
g360
sg19
g20
sbag1
(g2
g3
Ntp361
Rp362
(dp363
g7
V184
p364
sg9
VAzumarill
p365
sg11
VSw,Sh,
p366
sg13
VWanderer
p367
sg15
V26
p368
sg17
g368
sg19
g20
sbag1
(g2
g3
Ntp369
Rp370
(dp371
g7
V099
p372
sg9
VKingler
p373
sg11
VSw,Sh,
p374
sg13
VWanderer
p375
sg15
V28
p376
sg17
g376
sg19
g20
sbag1
(g2
g3
Ntp377
Rp378
(dp379
g7
V128
p380
sg9
VTauros
p381
sg11
VSw,Sh,
p382
sg13
VWanderer
p383
sg15
V28
p384
sg17
g384
sg19
g20
sbag1
(g2
g3
Ntp385
Rp386
(dp387
g7
V123
p388
sg9
VScyther
p389
sg11
VSw,Sh,
p390
sg13
VWanderer
p391
sg15
V28
p392
sg17
g392
sg19
g20
sbag1
(g2
g3
Ntp393
Rp394
(dp395
g7
V687
p396
sg9
VMalamar
p397
sg11
VSw,Sh,
p398
sg13
VWanderer
p399
sg15
V28
p400
sg17
g400
sg19
g20
sbag1
(g2
g3
Ntp401
Rp402
(dp403
g7
V528
p404
sg9
VSwoobat
p405
sg11
VSw,Sh,
p406
sg13
VWanderer
p407
sg15
V28
p408
sg17
g408
sg19
g20
sbag1
(g2
g3
Ntp409
Rp410
(dp411
g7
V279
p412
sg9
VPelipper
p413
sg11
VSw,Sh,
p414
sg13
VWanderer
p415
sg15
V28
p416
sg17
g416
sg19
g20
sbag1
(g2
g3
Ntp417
Rp418
(dp419
g7
V082
p420
sg9
VMagneton
p421
sg11
VSw,Sh,
p422
sg13
VWanderer
p423
sg15
V28
p424
sg17
g424
sg19
g20
sbag1
(g2
g3
Ntp425
Rp426
(dp427
g7
V404
p428
sg9
VLuxio
p429
sg11
VSw,Sh,
p430
sg13
VWanderer
p431
sg15
V28
p432
sg17
g432
sg19
g20
sbag1
(g2
g3
Ntp433
Rp434
(dp435
g7
V405
p436
sg9
VLuxray
p437
sg11
VSw,Sh,
p438
sg13
VWanderer
p439
sg15
V36
p440
sg17
g440
sg19
g20
sbag1
(g2
g3
Ntp441
Rp442
(dp443
g7
V662
p444
sg9
VFletchinder
p445
sg11
VSw,Sh,
p446
sg13
VWanderer
p447
sg15
V28
p448
sg17
g448
sg19
g20
sbag1
(g2
g3
Ntp449
Rp450
(dp451
g7
V663
p452
sg9
VTalonflame
p453
sg11
VSw,Sh,
p454
sg13
VWanderer
p455
sg15
V36
p456
sg17
g456
sg19
g20
sbag1
(g2
g3
Ntp457
Rp458
(dp459
g7
V099
p460
sg9
VKingler
p461
sg11
VSw,Sh,
p462
sg13
VWanderer
p463
sg15
V28
p464
sg17
g464
sg19
g20
sbag1
(g2
g3
Ntp465
Rp466
(dp467
g7
V127
p468
sg9
VPinsir
p469
sg11
g141
sg13
VWanderer
p470
sg15
V28
p471
sg17
g471
sg19
g20
sbag1
(g2
g3
Ntp472
Rp473
(dp474
g7
V214
p475
sg9
VHeracross
p476
sg11
g132
sg13
VWanderer
p477
sg15
V28
p478
sg17
g478
sg19
g20
sbag1
(g2
g3
Ntp479
Rp480
(dp481
g7
V227
p482
sg9
VSkarmory
p483
sg11
VSw,Sh,
p484
sg13
VWanderer
p485
sg15
V26
p486
sg17
g486
sg19
g20
sbag1
(g2
g3
Ntp487
Rp488
(dp489
g7
V558
p490
sg9
VCrustle
p491
sg11
VSw,Sh,
p492
sg13
VWanderer
p493
sg15
V26
p494
sg17
g494
sg19
g20
sbag1
(g2
g3
Ntp495
Rp496
(dp497
g7
V184
p498
sg9
VAzumarill
p499
sg11
VSw,Sh,
p500
sg13
VWanderer
p501
sg15
V26
p502
sg17
g502
sg19
g20
sbag1
(g2
g3
Ntp503
Rp504
(dp505
g7
V426
p506
sg9
VDrifblim
p507
sg11
VSw,Sh,
p508
sg13
VWanderer
p509
sg15
V28
p510
sg17
g510
sg19
g20
sbag1
(g2
g3
Ntp511
Rp512
(dp513
g7
V040
p514
sg9
VWigglytuff
p515
sg11
VSw,Sh,
p516
sg13
VWanderer
p517
sg15
V30
p518
sg17
g518
sg19
g20
sbag1
(g2
g3
Ntp519
Rp520
(dp521
g7
V282
p522
sg9
VGardevoir
p523
sg11
VSw,Sh,
p524
sg13
VWanderer
p525
sg15
V36
p526
sg17
g526
sg19
g20
sbag1
(g2
g3
Ntp527
Rp528
(dp529
g7
V847
p530
sg9
VBarraskewda
p531
sg11
VSw,Sh,
p532
sg13
VWanderer
p533
sg15
V42
p534
sg17
g534
sg19
g20
sbag1
(g2
g3
Ntp535
Rp536
(dp537
g7
V342
p538
sg9
VCrawdaunt
p539
sg11
VSw,Sh,
p540
sg13
VWanderer
p541
sg15
V42
p542
sg17
g542
sg19
g20
sbag1
(g2
g3
Ntp543
Rp544
(dp545
g7
V127
p546
sg9
VPinsir
p547
sg11
g141
sg13
VWanderer
p548
sg15
V28
p549
sg17
g549
sg19
g20
sbag1
(g2
g3
Ntp550
Rp551
(dp552
g7
V214
p553
sg9
VHeracross
p554
sg11
g132
sg13
VWanderer
p555
sg15
V28
p556
sg17
g556
sg19
g20
sbag1
(g2
g3
Ntp557
Rp558
(dp559
g7
V123
p560
sg9
VScyther
p561
sg11
VSw,Sh,
p562
sg13
VWanderer
p563
sg15
V28
p564
sg17
g564
sg19
g20
sbag1
(g2
g3
Ntp565
Rp566
(dp567
g7
V115
p568
sg9
VKangaskhan
p569
sg11
VSw,Sh,
p570
sg13
VWanderer
p571
sg15
V32
p572
sg17
g572
sg19
g20
sbag1
(g2
g3
Ntp573
Rp574
(dp575
g7
V588
p576
sg9
VKarrablast
p577
sg11
VSw,Sh,
p578
sg13
VWanderer
p579
sg15
V26
p580
sg17
g580
sg19
g20
sbag1
(g2
g3
Ntp581
Rp582
(dp583
g7
V528
p584
sg9
VSwoobat
p585
sg11
VSw,Sh,
p586
sg13
VWanderer
p587
sg15
V28
p588
sg17
g588
sg19
g20
sbag1
(g2
g3
Ntp589
Rp590
(dp591
g7
V279
p592
sg9
VPelipper
p593
sg11
VSw,Sh,
p594
sg13
VWanderer
p595
sg15
V28
p596
sg17
g596
sg19
g20
sbag1
(g2
g3
Ntp597
Rp598
(dp599
g7
V616
p600
sg9
VShelmet
p601
sg11
VSw,Sh,
p602
sg13
VWanderer
p603
sg15
V26
p604
sg17
g604
sg19
g20
sbag1
(g2
g3
Ntp605
Rp606
(dp607
g7
V687
p608
sg9
VMalamar
p609
sg11
VSw,Sh,
p610
sg13
VWanderer
p611
sg15
V28
p612
sg17
g612
sg19
g20
sbag1
(g2
g3
Ntp613
Rp614
(dp615
g7
V617
p616
sg9
VAccelgor
p617
sg11
VSw,Sh,
p618
sg13
VWanderer
p619
sg15
V36
p620
sg17
g620
sg19
g20
sbag1
(g2
g3
Ntp621
Rp622
(dp623
g7
V082
p624
sg9
VMagneton
p625
sg11
VSw,Sh,
p626
sg13
VWanderer
p627
sg15
V28
p628
sg17
g628
sg19
g20
sbag1
(g2
g3
Ntp629
Rp630
(dp631
g7
V404
p632
sg9
VLuxio
p633
sg11
VSw,Sh,
p634
sg13
VWanderer
p635
sg15
V28
p636
sg17
g636
sg19
g20
sbag1
(g2
g3
Ntp637
Rp638
(dp639
g7
V663
p640
sg9
VTalonflame
p641
sg11
VSw,Sh,
p642
sg13
VWanderer
p643
sg15
V36
p644
sg17
g644
sg19
g20
sbag1
(g2
g3
Ntp645
Rp646
(dp647
g7
V589
p648
sg9
VEscavalier
p649
sg11
VSw,Sh,
p650
sg13
VWanderer
p651
sg15
V36
p652
sg17
g652
sg19
g20
sbag1
(g2
g3
Ntp653
Rp654
(dp655
g7
V227
p656
sg9
VSkarmory
p657
sg11
VSw,Sh,
p658
sg13
VWanderer
p659
sg15
V26
p660
sg17
g660
sg19
g20
sbag1
(g2
g3
Ntp661
Rp662
(dp663
g7
V558
p664
sg9
VCrustle
p665
sg11
VSw,Sh,
p666
sg13
VWanderer
p667
sg15
V26
p668
sg17
g668
sg19
g20
sbag1
(g2
g3
Ntp669
Rp670
(dp671
g7
V426
p672
sg9
VDrifblim
p673
sg11
VSw,Sh,
p674
sg13
VWanderer
p675
sg15
V28
p676
sg17
g676
sg19
g20
sbag1
(g2
g3
Ntp677
Rp678
(dp679
g7
V507
p680
sg9
VHerdier
p681
sg11
VSw,Sh,
p682
sg13
VWanderer
p683
sg15
V28
p684
sg17
g684
sg19
g20
sbag1
(g2
g3
Ntp685
Rp686
(dp687
g7
V040
p688
sg9
VWigglytuff
p689
sg11
VSw,Sh,
p690
sg13
VWanderer
p691
sg15
V30
p692
sg17
g692
sg19
g20
sbag1
(g2
g3
Ntp693
Rp694
(dp695
g7
V115
p696
sg9
VKangaskhan
p697
sg11
VSw,Sh,
p698
sg13
VWanderer
p699
sg15
V32
p700
sg17
g700
sg19
g20
sbag1
(g2
g3
Ntp701
Rp702
(dp703
g7
V123
p704
sg9
VScyther
p705
sg11
VSw,Sh,
p706
sg13
VWanderer
p707
sg15
V28
p708
sg17
g708
sg19
g20
sbag1
(g2
g3
Ntp709
Rp710
(dp711
g7
V508
p712
sg9
VStoutland
p713
sg11
VSw,Sh,
p714
sg13
VWanderer
p715
sg15
V42
p716
sg17
g716
sg19
g20
sbag1
(g2
g3
Ntp717
Rp718
(dp719
g7
V528
p720
sg9
VSwoobat
p721
sg11
VSw,Sh,
p722
sg13
VWanderer
p723
sg15
V28
p724
sg17
g724
sg19
g20
sbag1
(g2
g3
Ntp725
Rp726
(dp727
g7
V452
p728
sg9
VDrapion
p729
sg11
VSw,Sh,
p730
sg13
VWanderer
p731
sg15
V28
p732
sg17
g732
sg19
g20
sbag1
(g2
g3
Ntp733
Rp734
(dp735
g7
V625
p736
sg9
VBisharp
p737
sg11
VSw,Sh,
p738
sg13
VWanderer
p739
sg15
V36
p740
sg17
g740
sg19
g20
sbag1
(g2
g3
Ntp741
Rp742
(dp743
g7
V279
p744
sg9
VPelipper
p745
sg11
VSw,Sh,
p746
sg13
VWanderer
p747
sg15
V28
p748
sg17
g748
sg19
g20
sbag1
(g2
g3
Ntp749
Rp750
(dp751
g7
V099
p752
sg9
VKingler
p753
sg11
VSw,Sh,
p754
sg13
VWanderer
p755
sg15
V28
p756
sg17
g756
sg19
g20
sbag1
(g2
g3
Ntp757
Rp758
(dp759
g7
V404
p760
sg9
VLuxio
p761
sg11
VSw,Sh,
p762
sg13
VWanderer
p763
sg15
V28
p764
sg17
g764
sg19
g20
sbag1
(g2
g3
Ntp765
Rp766
(dp767
g7
V082
p768
sg9
VMagneton
p769
sg11
VSw,Sh,
p770
sg13
VWanderer
p771
sg15
V28
p772
sg17
g772
sg19
g20
sbag1
(g2
g3
Ntp773
Rp774
(dp775
g7
V405
p776
sg9
VLuxray
p777
sg11
VSw,Sh,
p778
sg13
VWanderer
p779
sg15
V36
p780
sg17
g780
sg19
g20
sbag1
(g2
g3
Ntp781
Rp782
(dp783
g7
V662
p784
sg9
VFletchinder
p785
sg11
VSw,Sh,
p786
sg13
VWanderer
p787
sg15
V28
p788
sg17
g788
sg19
g20
sbag1
(g2
g3
Ntp789
Rp790
(dp791
g7
V549
p792
sg9
VLilligant
p793
sg11
VSw,Sh,
p794
sg13
VWanderer
p795
sg15
V28
p796
sg17
g796
sg19
g20
sbag1
(g2
g3
Ntp797
Rp798
(dp799
g7
V212
p800
sg9
VScizor
p801
sg11
VSw,Sh,
p802
sg13
VWanderer
p803
sg15
V42
p804
sg17
g804
sg19
g20
sbag1
(g2
g3
Ntp805
Rp806
(dp807
g7
V227
p808
sg9
VSkarmory
p809
sg11
VSw,Sh,
p810
sg13
VWanderer
p811
sg15
V26
p812
sg17
g812
sg19
g20
sbag1
(g2
g3
Ntp813
Rp814
(dp815
g7
V558
p816
sg9
VCrustle
p817
sg11
VSw,Sh,
p818
sg13
VWanderer
p819
sg15
V26
p820
sg17
g820
sg19
g20
sbag1
(g2
g3
Ntp821
Rp822
(dp823
g7
V040
p824
sg9
VWigglytuff
p825
sg11
VSw,Sh,
p826
sg13
VWanderer
p827
sg15
V30
p828
sg17
g828
sg19
g20
sbag1
(g2
g3
Ntp829
Rp830
(dp831
g7
V764
p832
sg9
VComfey
p833
sg11
VSw,Sh,
p834
sg13
VWanderer
p835
sg15
V28
p836
sg17
g836
sg19
g20
sbag1
(g2
g3
Ntp837
Rp838
(dp839
g7
V426
p840
sg9
VDrifblim
p841
sg11
VSw,Sh,
p842
sg13
VWanderer
p843
sg15
V28
p844
sg17
g844
sg19
g20
sbag1
(g2
g3
Ntp845
Rp846
(dp847
g7
V241
p848
sg9
VMiltank
p849
sg11
VSw,Sh,
p850
sg13
VWanderer
p851
sg15
V28
p852
sg17
g852
sg19
g20
sbag1
(g2
g3
Ntp853
Rp854
(dp855
g7
V123
p856
sg9
VScyther
p857
sg11
VSw,Sh,
p858
sg13
VWanderer
p859
sg15
V28
p860
sg17
g860
sg19
g20
sbag1
(g2
g3
Ntp861
Rp862
(dp863
g7
V128
p864
sg9
VTauros
p865
sg11
VSw,Sh,
p866
sg13
VWanderer
p867
sg15
V28
p868
sg17
g868
sg19
g20
sbag1
(g2
g3
Ntp869
Rp870
(dp871
g7
V507
p872
sg9
VHerdier
p873
sg11
VSw,Sh,
p874
sg13
VWanderer
p875
sg15
V28
p876
sg17
g876
sg19
g20
sbag1
(g2
g3
Ntp877
Rp878
(dp879
g7
V528
p880
sg9
VSwoobat
p881
sg11
VSw,Sh,
p882
sg13
VWanderer
p883
sg15
V28
p884
sg17
g884
sg19
g20
sbag1
(g2
g3
Ntp885
Rp886
(dp887
g7
V625
p888
sg9
VBisharp
p889
sg11
VSw,Sh,
p890
sg13
VWanderer
p891
sg15
V36
p892
sg17
g892
sg19
g20
sbag1
(g2
g3
Ntp893
Rp894
(dp895
g7
V687
p896
sg9
VMalamar
p897
sg11
VSw,Sh,
p898
sg13
VWanderer
p899
sg15
V28
p900
sg17
g900
sg19
g20
sbag1
(g2
g3
Ntp901
Rp902
(dp903
g7
V279
p904
sg9
VPelipper
p905
sg11
VSw,Sh,
p906
sg13
VWanderer
p907
sg15
V28
p908
sg17
g908
sg19
g20
sbag1
(g2
g3
Ntp909
Rp910
(dp911
g7
V560
p912
sg9
VScrafty
p913
sg11
g141
sg13
VWanderer
p914
sg15
V26
p915
sg17
g915
sg19
g20
sbag1
(g2
g3
Ntp916
Rp917
(dp918
g7
V454
p919
sg9
VToxicroak
p920
sg11
g132
sg13
VWanderer
p921
sg15
V26
p922
sg17
g922
sg19
g20
sbag1
(g2
g3
Ntp923
Rp924
(dp925
g7
V405
p926
sg9
VLuxray
p927
sg11
VSw,Sh,
p928
sg13
VWanderer
p929
sg15
V36
p930
sg17
g930
sg19
g20
sbag1
(g2
g3
Ntp931
Rp932
(dp933
g7
V082
p934
sg9
VMagneton
p935
sg11
VSw,Sh,
p936
sg13
VWanderer
p937
sg15
V28
p938
sg17
g938
sg19
g20
sbag1
(g2
g3
Ntp939
Rp940
(dp941
g7
V662
p942
sg9
VFletchinder
p943
sg11
VSw,Sh,
p944
sg13
VWanderer
p945
sg15
V28
p946
sg17
g946
sg19
g20
sbag1
(g2
g3
Ntp947
Rp948
(dp949
g7
V452
p950
sg9
VDrapion
p951
sg11
VSw,Sh,
p952
sg13
VWanderer
p953
sg15
V28
p954
sg17
g954
sg19
g20
sbag1
(g2
g3
Ntp955
Rp956
(dp957
g7
V227
p958
sg9
VSkarmory
p959
sg11
VSw,Sh,
p960
sg13
VWanderer
p961
sg15
V26
p962
sg17
g962
sg19
g20
sbag1
(g2
g3
Ntp963
Rp964
(dp965
g7
V782
p966
sg9
VJangmo-o
p967
sg11
g141
sg13
VWanderer
p968
sg15
V22
p969
sg17
g969
sg19
g20
sbag1
(g2
g3
Ntp970
Rp971
(dp972
g7
V040
p973
sg9
VWigglytuff
p974
sg11
VSw,Sh,
p975
sg13
VWanderer
p976
sg15
V30
p977
sg17
g977
sg19
g20
sbag1
(g2
g3
Ntp978
Rp979
(dp980
g7
V426
p981
sg9
VDrifblim
p982
sg11
VSw,Sh,
p983
sg13
VWanderer
p984
sg15
V28
p985
sg17
g985
sg19
g20
sbag1
(g2
g3
Ntp986
Rp987
(dp988
g7
V764
p989
sg9
VComfey
p990
sg11
VSw,Sh,
p991
sg13
VWanderer
p992
sg15
V28
p993
sg17
g993
sg19
g20
sbag1
(g2
g3
Ntp994
Rp995
(dp996
g7
V052
p997
sg9
VMeowth
p998
sg11
VSw,Sh,
p999
sg13
VTrade
p1000
sg15
V15
p1001
sg17
g1001
sg19
V0
p1002
sbag1
(g2
g3
Ntp1003
Rp1004
(dp1005
g7
V077
p1006
sg9
VPonyta
p1007
sg11
g132
sg13
VTrade
p1008
sg15
V15
p1009
sg17
g1009
sg19
V0
p1010
sbag1
(g2
g3
Ntp1011
Rp1012
(dp1013
g7
V083
p1014
sg9
VFarfetch'd
p1015
sg11
g141
sg13
VTrade
p1016
sg15
V15
p1017
sg17
g1017
sg19
V0
p1018
sbag1
(g2
g3
Ntp1019
Rp1020
(dp1021
g7
V103
p1022
sg9
VExeggutor
p1023
sg11
VSw,Sh,
p1024
sg13
VTrade
p1025
sg15
V15
p1026
sg17
g1026
sg19
V0
p1027
sbag1
(g2
g3
Ntp1028
Rp1029
(dp1030
g7
V105
p1031
sg9
VMarowak
p1032
sg11
VSw,Sh,
p1033
sg13
VTrade
p1034
sg15
V15
p1035
sg17
g1035
sg19
V0
p1036
sbag1
(g2
g3
Ntp1037
Rp1038
(dp1039
g7
V110
p1040
sg9
VWeezing
p1041
sg11
VSw,Sh,
p1042
sg13
VTrade
p1043
sg15
V15
p1044
sg17
g1044
sg19
V0
p1045
sbag1
(g2
g3
Ntp1046
Rp1047
(dp1048
g7
V122
p1049
sg9
VMr. Mime
p1050
sg11
VSw,Sh,
p1051
sg13
VTrade
p1052
sg15
V15
p1053
sg17
g1053
sg19
V0
p1054
sbag1
(g2
g3
Ntp1055
Rp1056
(dp1057
g7
V222
p1058
sg9
VCorsola
p1059
sg11
g132
sg13
VTrade
p1060
sg15
V15
p1061
sg17
g1061
sg19
V0
p1062
sbag1
(g2
g3
Ntp1063
Rp1064
(dp1065
g7
V263
p1066
sg9
VZigzagoon
p1067
sg11
VSw,Sh,
p1068
sg13
VTrade
p1069
sg15
V15
p1070
sg17
g1070
sg19
V0
p1071
sbag1
(g2
g3
Ntp1072
Rp1073
(dp1074
g7
V554
p1075
sg9
VDarumaka
p1076
sg11
g141
sg13
VTrade
p1077
sg15
V15
p1078
sg17
g1078
sg19
V0
p1079
sbag1
(g2
g3
Ntp1080
Rp1081
(dp1082
g7
V618
p1083
sg9
VStunfisk
p1084
sg11
VSw,Sh,
p1085
sg13
VTrade
p1086
sg15
V15
p1087
sg17
g1087
sg19
V0
p1088
sba.