(lp0
ccopy_reg
_reconstructor
p1
(c__main__
WildPokemon
p2
c__builtin__
object
p3
Ntp4
Rp5
(dp6
VpDexNo
p7
V021
p8
sVpSpecies
p9
VSpearow
p10
sVpGames
p11
VFR,LG,
p12
sVpArea
p13
VGrass
p14
sVpMinLevel
p15
V31
p16
sVpMaxLevel
p17
V32
p18
sVpRate
p19
V30
p20
sbag1
(g2
g3
Ntp21
Rp22
(dp23
g7
V022
p24
sg9
VFearow
p25
sg11
VFR,LG,
p26
sg13
VGrass
p27
sg15
V36
p28
sg17
V40
p29
sg19
V20
p30
sbag1
(g2
g3
Ntp31
Rp32
(dp33
g7
V052
p34
sg9
VMeowth
p35
sg11
VFR,LG,
p36
sg13
VGrass
p37
sg15
V31
p38
sg17
g38
sg19
V10
p39
sbag1
(g2
g3
Ntp40
Rp41
(dp42
g7
V053
p43
sg9
VPersian
p44
sg11
VFR,LG,
p45
sg13
VGrass
p46
sg15
V37
p47
sg17
V40
p48
sg19
V5
p49
sbag1
(g2
g3
Ntp50
Rp51
(dp52
g7
V054
p53
sg9
VPsyduck
p54
sg11
VFR,
p55
sg13
VGrass
p56
sg15
V31
p57
sg17
g57
sg19
V5
p58
sbag1
(g2
g3
Ntp59
Rp60
(dp61
g7
V079
p62
sg9
VSlowpoke
p63
sg11
VLG,
p64
sg13
VGrass
p65
sg15
V31
p66
sg17
g66
sg19
V5
p67
sbag1
(g2
g3
Ntp68
Rp69
(dp70
g7
V114
p71
sg9
VTangela
p72
sg11
VFR,LG,
p73
sg13
VGrass
p74
sg15
V33
p75
sg17
V35
p76
sg19
V30
p77
sbag1
(g2
g3
Ntp78
Rp79
(dp80
g7
V072
p81
sg9
VTentacool
p82
sg11
VFR,LG,
p83
sg13
VSurf
p84
sg15
V5
p85
sg17
V40
p86
sg19
V95
p87
sbag1
(g2
g3
Ntp88
Rp89
(dp90
g7
V073
p91
sg9
VTentacruel
p92
sg11
VFR,LG,
p93
sg13
VSurf
p94
sg15
V35
p95
sg17
V40
p96
sg19
V5
p97
sbag1
(g2
g3
Ntp98
Rp99
(dp100
g7
V129
p101
sg9
VMagikarp
p102
sg11
VFR,LG,
p103
sg13
VFish Old
p104
sg15
g85
sg17
g85
sg19
V100
p105
sbag1
(g2
g3
Ntp106
Rp107
(dp108
g7
V098
p109
sg9
VKrabby
p110
sg11
g64
sg13
VFish Good
p111
sg15
g85
sg17
V15
p112
sg19
V80
p113
sbag1
(g2
g3
Ntp114
Rp115
(dp116
g7
V116
p117
sg9
VHorsea
p118
sg11
g55
sg13
VFish Good
p119
sg15
g85
sg17
V15
p120
sg19
V80
p121
sbag1
(g2
g3
Ntp122
Rp123
(dp124
g7
V129
p125
sg9
VMagikarp
p126
sg11
VFR,LG,
p127
sg13
VFish Good
p128
sg15
g85
sg17
V15
p129
sg19
V20
p130
sbag1
(g2
g3
Ntp131
Rp132
(dp133
g7
V054
p134
sg9
VPsyduck
p135
sg11
g55
sg13
VFish Super
p136
sg15
V25
p137
sg17
V35
p138
sg19
V1
p139
sbag1
(g2
g3
Ntp140
Rp141
(dp142
g7
V079
p143
sg9
VSlowpoke
p144
sg11
g64
sg13
VFish Super
p145
sg15
V25
p146
sg17
V35
p147
sg19
V1
p148
sbag1
(g2
g3
Ntp149
Rp150
(dp151
g7
V098
p152
sg9
VKrabby
p153
sg11
g64
sg13
VFish Super
p154
sg15
V15
p155
sg17
V25
p156
sg19
V80
p157
sbag1
(g2
g3
Ntp158
Rp159
(dp160
g7
V099
p161
sg9
VKingler
p162
sg11
g64
sg13
VFish Super
p163
sg15
V25
p164
sg17
V35
p165
sg19
V4
p166
sbag1
(g2
g3
Ntp167
Rp168
(dp169
g7
V116
p170
sg9
VHorsea
p171
sg11
g55
sg13
VFish Super
p172
sg15
V15
p173
sg17
V25
p174
sg19
V80
p175
sbag1
(g2
g3
Ntp176
Rp177
(dp178
g7
V117
p179
sg9
VSeadra
p180
sg11
g55
sg13
VFish Super
p181
sg15
V25
p182
sg17
V35
p183
sg19
V4
p184
sbag1
(g2
g3
Ntp185
Rp186
(dp187
g7
V130
p188
sg9
VGyarados
p189
sg11
VFR,LG,
p190
sg13
VFish Super
p191
sg15
V15
p192
sg17
V25
p193
sg19
V15
p194
sba.