(lp0
ccopy_reg
_reconstructor
p1
(c__main__
WildPokemon
p2
c__builtin__
object
p3
Ntp4
Rp5
(dp6
VpDexNo
p7
V025
p8
sVpSpecies
p9
VPikachu
p10
sVpGames
p11
VD,P,
p12
sVpArea
p13
VGrass
p14
sVpMinLevel
p15
V18
p16
sVpMaxLevel
p17
g16
sVpRate
p18
V10
p19
sbag1
(g2
g3
Ntp20
Rp21
(dp22
g7
V025
p23
sg9
VPikachu
p24
sg11
VPt,
p25
sg13
VGrass
p26
sg15
V22
p27
sg17
V24
p28
sg18
V10
p29
sbag1
(g2
g3
Ntp30
Rp31
(dp32
g7
V172
p33
sg9
VPichu
p34
sg11
VD,P,
p35
sg13
VGrass
p36
sg15
V16
p37
sg17
g37
sg18
V30
p38
sbag1
(g2
g3
Ntp39
Rp40
(dp41
g7
V172
p42
sg9
VPichu
p43
sg11
g25
sg13
VGrass
p44
sg15
V21
p45
sg17
V22
p46
sg18
V30
p47
sbag1
(g2
g3
Ntp48
Rp49
(dp50
g7
V315
p51
sg9
VRoselia
p52
sg11
VD,P,
p53
sg13
VGrass
p54
sg15
V16
p55
sg17
V17
p56
sg18
V30
p57
sbag1
(g2
g3
Ntp58
Rp59
(dp60
g7
V315
p61
sg9
VRoselia
p62
sg11
g25
sg13
VGrass
p63
sg15
V22
p64
sg17
V23
p65
sg18
V30
p66
sbag1
(g2
g3
Ntp67
Rp68
(dp69
g7
V397
p70
sg9
VStaravia
p71
sg11
VD,P,
p72
sg13
VGrass
p73
sg15
V16
p74
sg17
V17
p75
sg18
V40
p76
sbag1
(g2
g3
Ntp77
Rp78
(dp79
g7
V397
p80
sg9
VStaravia
p81
sg11
g25
sg13
VGrass
p82
sg15
V22
p83
sg17
V24
p84
sg18
V30
p85
sbag1
(g2
g3
Ntp86
Rp87
(dp88
g7
V402
p89
sg9
VKricketune
p90
sg11
VD,P,
p91
sg13
VGrass
p92
sg15
V16
p93
sg17
V17
p94
sg18
V30
p95
sbag1
(g2
g3
Ntp96
Rp97
(dp98
g7
V402
p99
sg9
VKricketune
p100
sg11
g25
sg13
VGrass
p101
sg15
V22
p102
sg17
V23
p103
sg18
V20
p104
sbag1
(g2
g3
Ntp105
Rp106
(dp107
g7
V035
p108
sg9
VClefairy
p109
sg11
VD,P,Pt,
p110
sg13
VBacklot
p111
sg15
V16
p112
sg17
V18
p113
sg18
V5
p114
sbag1
(g2
g3
Ntp115
Rp116
(dp117
g7
V039
p118
sg9
VJigglypuff
p119
sg11
VD,P,
p120
sg13
VBacklot
p121
sg15
V16
p122
sg17
V18
p123
sg18
V5
p124
sbag1
(g2
g3
Ntp125
Rp126
(dp127
g7
V039
p128
sg9
VJigglypuff
p129
sg11
g25
sg13
VBacklot
p130
sg15
V22
p131
sg17
g131
sg18
V5
p132
sbag1
(g2
g3
Ntp133
Rp134
(dp135
g7
V052
p136
sg9
VMeowth
p137
sg11
VD,P,
p138
sg13
VBacklot
p139
sg15
V16
p140
sg17
V18
p141
sg18
V5
p142
sbag1
(g2
g3
Ntp143
Rp144
(dp145
g7
V052
p146
sg9
VMeowth
p147
sg11
g25
sg13
VBacklot
p148
sg15
V22
p149
sg17
g149
sg18
V5
p150
sbag1
(g2
g3
Ntp151
Rp152
(dp153
g7
V113
p154
sg9
VChansey
p155
sg11
VD,P,
p156
sg13
VBacklot
p157
sg15
V16
p158
sg17
V18
p159
sg18
V5
p160
sbag1
(g2
g3
Ntp161
Rp162
(dp163
g7
V113
p164
sg9
VChansey
p165
sg11
g25
sg13
VBacklot
p166
sg15
V22
p167
sg17
g167
sg18
V5
p168
sbag1
(g2
g3
Ntp169
Rp170
(dp171
g7
V132
p172
sg9
VDitto
p173
sg11
g25
sg13
VBacklot
p174
sg15
V22
p175
sg17
g175
sg18
V5
p176
sbag1
(g2
g3
Ntp177
Rp178
(dp179
g7
V133
p180
sg9
VEevee
p181
sg11
VD,P,
p182
sg13
VBacklot
p183
sg15
V16
p184
sg17
V18
p185
sg18
V5
p186
sbag1
(g2
g3
Ntp187
Rp188
(dp189
g7
V133
p190
sg9
VEevee
p191
sg11
g25
sg13
VBacklot
p192
sg15
V22
p193
sg17
g193
sg18
V5
p194
sbag1
(g2
g3
Ntp195
Rp196
(dp197
g7
V137
p198
sg9
VPorygon
p199
sg11
VD,P,
p200
sg13
VBacklot
p201
sg15
V16
p202
sg17
V18
p203
sg18
V5
p204
sbag1
(g2
g3
Ntp205
Rp206
(dp207
g7
V173
p208
sg9
VCleffa
p209
sg11
VD,P,Pt,
p210
sg13
VBacklot
p211
sg15
V16
p212
sg17
V18
p213
sg18
V5
p214
sbag1
(g2
g3
Ntp215
Rp216
(dp217
g7
V174
p218
sg9
VIgglybuff
p219
sg11
VD,P,
p220
sg13
VBacklot
p221
sg15
V16
p222
sg17
V18
p223
sg18
V5
p224
sbag1
(g2
g3
Ntp225
Rp226
(dp227
g7
V174
p228
sg9
VIgglybuff
p229
sg11
g25
sg13
VBacklot
p230
sg15
V22
p231
sg17
g231
sg18
V5
p232
sbag1
(g2
g3
Ntp233
Rp234
(dp235
g7
V183
p236
sg9
VMarill
p237
sg11
VD,P,Pt,
p238
sg13
VBacklot
p239
sg15
V16
p240
sg17
V18
p241
sg18
V5
p242
sbag1
(g2
g3
Ntp243
Rp244
(dp245
g7
V298
p246
sg9
VAzurill
p247
sg11
VD,P,Pt,
p248
sg13
VBacklot
p249
sg15
V16
p250
sg17
V18
p251
sg18
V5
p252
sbag1
(g2
g3
Ntp253
Rp254
(dp255
g7
V311
p256
sg9
VPlusle
p257
sg11
VD,P,Pt,
p258
sg13
VBacklot
p259
sg15
V16
p260
sg17
V18
p261
sg18
V5
p262
sbag1
(g2
g3
Ntp263
Rp264
(dp265
g7
V312
p266
sg9
VMinun
p267
sg11
VD,P,Pt,
p268
sg13
VBacklot
p269
sg15
V16
p270
sg17
V18
p271
sg18
V5
p272
sbag1
(g2
g3
Ntp273
Rp274
(dp275
g7
V351
p276
sg9
VCastform
p277
sg11
VD,P,Pt,
p278
sg13
VBacklot
p279
sg15
V16
p280
sg17
V18
p281
sg18
V5
p282
sbag1
(g2
g3
Ntp283
Rp284
(dp285
g7
V438
p286
sg9
VBonsly
p287
sg11
VD,P,Pt,
p288
sg13
VBacklot
p289
sg15
V16
p290
sg17
V22
p291
sg18
V5
p292
sbag1
(g2
g3
Ntp293
Rp294
(dp295
g7
V439
p296
sg9
VMime Jr.
p297
sg11
VD,P,Pt,
p298
sg13
VBacklot
p299
sg15
V16
p300
sg17
V18
p301
sg18
V5
p302
sbag1
(g2
g3
Ntp303
Rp304
(dp305
g7
V440
p306
sg9
VHappiny
p307
sg11
VD,P,Pt,
p308
sg13
VBacklot
p309
sg15
V16
p310
sg17
V22
p311
sg18
V5
p312
sba.