(lp0
ccopy_reg
_reconstructor
p1
(c__main__
WildPokemon
p2
c__builtin__
object
p3
Ntp4
Rp5
(dp6
VpDexNo
p7
V035
p8
sVpSpecies
p9
VClefairy
p10
sVpGames
p11
VSw,Sh,
p12
sVpArea
p13
VGrass
p14
sVpMinLevel
p15
V60
p16
sVpMaxLevel
p17
V65
p18
sVpRate
p19
V5
p20
sbag1
(g2
g3
Ntp21
Rp22
(dp23
g7
V041
p24
sg9
VZubat
p25
sg11
VSw,Sh,
p26
sg13
VGrass
p27
sg15
V60
p28
sg17
V65
p29
sg19
V40
p30
sbag1
(g2
g3
Ntp31
Rp32
(dp33
g7
V361
p34
sg9
VSnorunt
p35
sg11
VSw,Sh,
p36
sg13
VGrass
p37
sg15
V60
p38
sg17
V65
p39
sg19
V20
p40
sbag1
(g2
g3
Ntp41
Rp42
(dp43
g7
V371
p44
sg9
VBagon
p45
sg11
VSw,
p46
sg13
VGrass
p47
sg15
V60
p48
sg17
V65
p49
sg19
V10
p50
sbag1
(g2
g3
Ntp51
Rp52
(dp53
g7
V443
p54
sg9
VGible
p55
sg11
VSh,
p56
sg13
VGrass
p57
sg15
V60
p58
sg17
V65
p59
sg19
V10
p60
sbag1
(g2
g3
Ntp61
Rp62
(dp63
g7
V531
p64
sg9
VAudino
p65
sg11
VSw,Sh,
p66
sg13
VGrass
p67
sg15
V60
p68
sg17
V65
p69
sg19
V1
p70
sbag1
(g2
g3
Ntp71
Rp72
(dp73
g7
V703
p74
sg9
VCarbink
p75
sg11
VSw,Sh,
p76
sg13
VGrass
p77
sg15
V60
p78
sg17
V65
p79
sg19
V24
p80
sbag1
(g2
g3
Ntp81
Rp82
(dp83
g7
V041
p84
sg9
VZubat
p85
sg11
VSw,Sh,
p86
sg13
VWanderer
p87
sg15
V63
p88
sg17
g88
sg19
V0
p89
sbag1
(g2
g3
Ntp90
Rp91
(dp92
g7
V041
p93
sg9
VZubat
p94
sg11
VSw,Sh,
p95
sg13
VWanderer
p96
sg15
V63
p97
sg17
g97
sg19
V0
p98
sbag1
(g2
g3
Ntp99
Rp100
(dp101
g7
V041
p102
sg9
VZubat
p103
sg11
VSw,Sh,
p104
sg13
VWanderer
p105
sg15
V63
p106
sg17
g106
sg19
V0
p107
sbag1
(g2
g3
Ntp108
Rp109
(dp110
g7
V041
p111
sg9
VZubat
p112
sg11
VSw,Sh,
p113
sg13
VWanderer
p114
sg15
V63
p115
sg17
g115
sg19
V0
p116
sbag1
(g2
g3
Ntp117
Rp118
(dp119
g7
V371
p120
sg9
VBagon
p121
sg11
g46
sg13
VWanderer
p122
sg15
V65
p123
sg17
g123
sg19
V0
p124
sbag1
(g2
g3
Ntp125
Rp126
(dp127
g7
V443
p128
sg9
VGible
p129
sg11
g56
sg13
VWanderer
p130
sg15
V65
p131
sg17
g131
sg19
V0
p132
sbag1
(g2
g3
Ntp133
Rp134
(dp135
g7
V478
p136
sg9
VFroslass
p137
sg11
VSw,Sh,
p138
sg13
VWanderer
p139
sg15
V65
p140
sg17
g140
sg19
V0
p141
sbag1
(g2
g3
Ntp142
Rp143
(dp144
g7
V373
p145
sg9
VSalamence
p146
sg11
g46
sg13
VWanderer
p147
sg15
V68
p148
sg17
g148
sg19
V0
p149
sbag1
(g2
g3
Ntp150
Rp151
(dp152
g7
V445
p153
sg9
VGarchomp
p154
sg11
g56
sg13
VWanderer
p155
sg15
V68
p156
sg17
g156
sg19
V0
p157
sbag1
(g2
g3
Ntp158
Rp159
(dp160
g7
V703
p161
sg9
VCarbink
p162
sg11
VSw,Sh,
p163
sg13
VWanderer
p164
sg15
V65
p165
sg17
g165
sg19
V0
p166
sbag1
(g2
g3
Ntp167
Rp168
(dp169
g7
V703
p170
sg9
VCarbink
p171
sg11
VSw,Sh,
p172
sg13
VWanderer
p173
sg15
V65
p174
sg17
g174
sg19
V0
p175
sbag1
(g2
g3
Ntp176
Rp177
(dp178
g7
V042
p179
sg9
VGolbat
p180
sg11
VSw,Sh,
p181
sg13
VWanderer
p182
sg15
V65
p183
sg17
g183
sg19
V0
p184
sbag1
(g2
g3
Ntp185
Rp186
(dp187
g7
V041
p188
sg9
VZubat
p189
sg11
VSw,Sh,
p190
sg13
VWanderer
p191
sg15
V63
p192
sg17
g192
sg19
V0
p193
sbag1
(g2
g3
Ntp194
Rp195
(dp196
g7
V041
p197
sg9
VZubat
p198
sg11
VSw,Sh,
p199
sg13
VWanderer
p200
sg15
V63
p201
sg17
g201
sg19
V0
p202
sbag1
(g2
g3
Ntp203
Rp204
(dp205
g7
V042
p206
sg9
VGolbat
p207
sg11
VSw,Sh,
p208
sg13
VWanderer
p209
sg15
V65
p210
sg17
g210
sg19
V0
p211
sbag1
(g2
g3
Ntp212
Rp213
(dp214
g7
V042
p215
sg9
VGolbat
p216
sg11
VSw,Sh,
p217
sg13
VWanderer
p218
sg15
V65
p219
sg17
g219
sg19
V0
p220
sbag1
(g2
g3
Ntp221
Rp222
(dp223
g7
V703
p224
sg9
VCarbink
p225
sg11
VSw,Sh,
p226
sg13
VWanderer
p227
sg15
V65
p228
sg17
g228
sg19
V0
p229
sbag1
(g2
g3
Ntp230
Rp231
(dp232
g7
V036
p233
sg9
VClefable
p234
sg11
VSw,Sh,
p235
sg13
VWanderer
p236
sg15
V65
p237
sg17
g237
sg19
V0
p238
sbag1
(g2
g3
Ntp239
Rp240
(dp241
g7
V621
p242
sg9
VDruddigon
p243
sg11
VSw,Sh,
p244
sg13
VWanderer
p245
sg15
V65
p246
sg17
g246
sg19
V0
p247
sbag1
(g2
g3
Ntp248
Rp249
(dp250
g7
V042
p251
sg9
VGolbat
p252
sg11
VSw,Sh,
p253
sg13
VWanderer
p254
sg15
V65
p255
sg17
g255
sg19
V0
p256
sba.