(lp0
ccopy_reg
_reconstructor
p1
(c__main__
WildPokemon
p2
c__builtin__
object
p3
Ntp4
Rp5
(dp6
VpDexNo
p7
V042
p8
sVpSpecies
p9
VGolbat
p10
sVpGames
p11
VD,P,
p12
sVpArea
p13
VCave
p14
sVpMinLevel
p15
V45
p16
sVpMaxLevel
p17
V46
p18
sVpRate
p19
V30
p20
sbag1
(g2
g3
Ntp21
Rp22
(dp23
g7
V042
p24
sg9
VGolbat
p25
sg11
VPt,
p26
sg13
VCave
p27
sg15
V17
p28
sg17
V18
p29
sg19
V25
p30
sbag1
(g2
g3
Ntp31
Rp32
(dp33
g7
V092
p34
sg9
VGastly
p35
sg11
g26
sg13
VCave
p36
sg15
V15
p37
sg17
V17
p38
sg19
V30
p39
sbag1
(g2
g3
Ntp40
Rp41
(dp42
g7
V092
p43
sg9
VGastly
p44
sg11
g26
sg13
VCave
p45
sg15
V16
p46
sg17
g46
sg19
V10
p47
sbag1
(g2
g3
Ntp48
Rp49
(dp50
g7
V093
p51
sg9
VHaunter
p52
sg11
VD,P,
p53
sg13
VCave
p54
sg15
V44
p55
sg17
V46
p56
sg19
V30
p57
sbag1
(g2
g3
Ntp58
Rp59
(dp60
g7
V355
p61
sg9
VDuskull
p62
sg11
g26
sg13
VCave
p63
sg15
V18
p64
sg17
g64
sg19
V5
p65
sbag1
(g2
g3
Ntp66
Rp67
(dp68
g7
V356
p69
sg9
VDusclops
p70
sg11
g26
sg13
VCave
p71
sg15
V16
p72
sg17
g72
sg19
V10
p73
sbag1
(g2
g3
Ntp74
Rp75
(dp76
g7
V433
p77
sg9
VChingling
p78
sg11
g26
sg13
VCave
p79
sg15
V16
p80
sg17
V18
p81
sg19
V10
p82
sbag1
(g2
g3
Ntp83
Rp84
(dp85
g7
V436
p86
sg9
VBronzor
p87
sg11
VD,P,
p88
sg13
VCave
p89
sg15
V44
p90
sg17
g90
sg19
V5
p91
sbag1
(g2
g3
Ntp92
Rp93
(dp94
g7
V436
p95
sg9
VBronzor
p96
sg11
g26
sg13
VCave
p97
sg15
V15
p98
sg17
g98
sg19
V20
p99
sbag1
(g2
g3
Ntp100
Rp101
(dp102
g7
V437
p103
sg9
VBronzong
p104
sg11
VD,P,
p105
sg13
VCave
p106
sg15
V45
p107
sg17
V46
p108
sg19
V35
p109
sbag1
(g2
g3
Ntp110
Rp111
(dp112
g7
V337
p113
sg9
VLunatone
p114
sg11
VD,P,
p115
sg13
VS
p116
sg15
V44
p117
sg17
V46
p118
sg19
V8
p119
sbag1
(g2
g3
Ntp120
Rp121
(dp122
g7
V337
p123
sg9
VLunatone
p124
sg11
g26
sg13
g116
sg15
V18
p125
sg17
g125
sg19
V8
p126
sbag1
(g2
g3
Ntp127
Rp128
(dp129
g7
V338
p130
sg9
VSolrock
p131
sg11
VD,P,
p132
sg13
VR
p133
sg15
V44
p134
sg17
V46
p135
sg19
V8
p136
sbag1
(g2
g3
Ntp137
Rp138
(dp139
g7
V338
p140
sg9
VSolrock
p141
sg11
g26
sg13
g133
sg15
V18
p142
sg17
g142
sg19
V8
p143
sbag1
(g2
g3
Ntp144
Rp145
(dp146
g7
V356
p147
sg9
VDusclops
p148
sg11
g26
sg13
VFRLGE
p149
sg15
V18
p150
sg17
g150
sg19
V4
p151
sbag1
(g2
g3
Ntp152
Rp153
(dp154
g7
V042
p155
sg9
VGolbat
p156
sg11
VD,P,
p157
sg13
VCave
p158
sg15
V55
p159
sg17
V56
p160
sg19
V30
p161
sbag1
(g2
g3
Ntp162
Rp163
(dp164
g7
V042
p165
sg9
VGolbat
p166
sg11
g26
sg13
VCave
p167
sg15
V17
p168
sg17
V18
p169
sg19
V25
p170
sbag1
(g2
g3
Ntp171
Rp172
(dp173
g7
V092
p174
sg9
VGastly
p175
sg11
g26
sg13
VCave
p176
sg15
V15
p177
sg17
V17
p178
sg19
V30
p179
sbag1
(g2
g3
Ntp180
Rp181
(dp182
g7
V092
p183
sg9
VGastly
p184
sg11
g26
sg13
VCave
p185
sg15
V16
p186
sg17
g186
sg19
V10
p187
sbag1
(g2
g3
Ntp188
Rp189
(dp190
g7
V093
p191
sg9
VHaunter
p192
sg11
VD,P,
p193
sg13
VCave
p194
sg15
V54
p195
sg17
V56
p196
sg19
V30
p197
sbag1
(g2
g3
Ntp198
Rp199
(dp200
g7
V355
p201
sg9
VDuskull
p202
sg11
g26
sg13
VCave
p203
sg15
V18
p204
sg17
g204
sg19
V5
p205
sbag1
(g2
g3
Ntp206
Rp207
(dp208
g7
V356
p209
sg9
VDusclops
p210
sg11
g26
sg13
VCave
p211
sg15
V16
p212
sg17
g212
sg19
V10
p213
sbag1
(g2
g3
Ntp214
Rp215
(dp216
g7
V433
p217
sg9
VChingling
p218
sg11
g26
sg13
VCave
p219
sg15
V16
p220
sg17
V18
p221
sg19
V10
p222
sbag1
(g2
g3
Ntp223
Rp224
(dp225
g7
V436
p226
sg9
VBronzor
p227
sg11
VD,P,
p228
sg13
VCave
p229
sg15
V54
p230
sg17
g230
sg19
V5
p231
sbag1
(g2
g3
Ntp232
Rp233
(dp234
g7
V436
p235
sg9
VBronzor
p236
sg11
g26
sg13
VCave
p237
sg15
V15
p238
sg17
g238
sg19
V20
p239
sbag1
(g2
g3
Ntp240
Rp241
(dp242
g7
V437
p243
sg9
VBronzong
p244
sg11
VD,P,
p245
sg13
VCave
p246
sg15
V55
p247
sg17
V56
p248
sg19
V35
p249
sbag1
(g2
g3
Ntp250
Rp251
(dp252
g7
V337
p253
sg9
VLunatone
p254
sg11
VD,P,
p255
sg13
g116
sg15
V54
p256
sg17
V56
p257
sg19
V8
p258
sbag1
(g2
g3
Ntp259
Rp260
(dp261
g7
V337
p262
sg9
VLunatone
p263
sg11
g26
sg13
g116
sg15
V18
p264
sg17
g264
sg19
V8
p265
sbag1
(g2
g3
Ntp266
Rp267
(dp268
g7
V338
p269
sg9
VSolrock
p270
sg11
VD,P,
p271
sg13
g133
sg15
V54
p272
sg17
V56
p273
sg19
V8
p274
sbag1
(g2
g3
Ntp275
Rp276
(dp277
g7
V338
p278
sg9
VSolrock
p279
sg11
g26
sg13
g133
sg15
V18
p280
sg17
g280
sg19
V8
p281
sbag1
(g2
g3
Ntp282
Rp283
(dp284
g7
V356
p285
sg9
VDusclops
p286
sg11
g26
sg13
VFRLGE
p287
sg15
V18
p288
sg17
g288
sg19
V4
p289
sbag1
(g2
g3
Ntp290
Rp291
(dp292
g7
V042
p293
sg9
VGolbat
p294
sg11
VD,P,
p295
sg13
VCave
p296
sg15
V55
p297
sg17
V56
p298
sg19
V30
p299
sbag1
(g2
g3
Ntp300
Rp301
(dp302
g7
V042
p303
sg9
VGolbat
p304
sg11
g26
sg13
VCave
p305
sg15
V25
p306
sg17
V27
p307
sg19
V25
p308
sbag1
(g2
g3
Ntp309
Rp310
(dp311
g7
V093
p312
sg9
VHaunter
p313
sg11
VD,P,
p314
sg13
VCave
p315
sg15
V54
p316
sg17
V56
p317
sg19
V30
p318
sbag1
(g2
g3
Ntp319
Rp320
(dp321
g7
V093
p322
sg9
VHaunter
p323
sg11
g26
sg13
VCave
p324
sg15
V25
p325
sg17
V27
p326
sg19
V30
p327
sbag1
(g2
g3
Ntp328
Rp329
(dp330
g7
V093
p331
sg9
VHaunter
p332
sg11
g26
sg13
VCave
p333
sg15
V26
p334
sg17
g334
sg19
V10
p335
sbag1
(g2
g3
Ntp336
Rp337
(dp338
g7
V358
p339
sg9
VChimecho
p340
sg11
g26
sg13
VCave
p341
sg15
V28
p342
sg17
g342
sg19
V1
p343
sbag1
(g2
g3
Ntp344
Rp345
(dp346
g7
V355
p347
sg9
VDuskull
p348
sg11
g26
sg13
VCave
p349
sg15
V28
p350
sg17
g350
sg19
V4
p351
sbag1
(g2
g3
Ntp352
Rp353
(dp354
g7
V356
p355
sg9
VDusclops
p356
sg11
g26
sg13
VCave
p357
sg15
V26
p358
sg17
g358
sg19
V10
p359
sbag1
(g2
g3
Ntp360
Rp361
(dp362
g7
V356
p363
sg9
VDusclops
p364
sg11
g26
sg13
VCave
p365
sg15
V28
p366
sg17
g366
sg19
V1
p367
sbag1
(g2
g3
Ntp368
Rp369
(dp370
g7
V433
p371
sg9
VChingling
p372
sg11
g26
sg13
VCave
p373
sg15
V26
p374
sg17
V28
p375
sg19
V9
p376
sbag1
(g2
g3
Ntp377
Rp378
(dp379
g7
V436
p380
sg9
VBronzor
p381
sg11
VD,P,
p382
sg13
VCave
p383
sg15
V54
p384
sg17
g384
sg19
V5
p385
sbag1
(g2
g3
Ntp386
Rp387
(dp388
g7
V436
p389
sg9
VBronzor
p390
sg11
g26
sg13
VCave
p391
sg15
V25
p392
sg17
g392
sg19
V20
p393
sbag1
(g2
g3
Ntp394
Rp395
(dp396
g7
V437
p397
sg9
VBronzong
p398
sg11
VD,P,
p399
sg13
VCave
p400
sg15
V55
p401
sg17
V56
p402
sg19
V35
p403
sbag1
(g2
g3
Ntp404
Rp405
(dp406
g7
V337
p407
sg9
VLunatone
p408
sg11
VD,P,
p409
sg13
g116
sg15
V54
p410
sg17
V56
p411
sg19
V8
p412
sbag1
(g2
g3
Ntp413
Rp414
(dp415
g7
V337
p416
sg9
VLunatone
p417
sg11
g26
sg13
g116
sg15
V28
p418
sg17
g418
sg19
V8
p419
sbag1
(g2
g3
Ntp420
Rp421
(dp422
g7
V338
p423
sg9
VSolrock
p424
sg11
VD,P,
p425
sg13
g133
sg15
V54
p426
sg17
V56
p427
sg19
V8
p428
sbag1
(g2
g3
Ntp429
Rp430
(dp431
g7
V338
p432
sg9
VSolrock
p433
sg11
g26
sg13
g133
sg15
V28
p434
sg17
g434
sg19
V8
p435
sbag1
(g2
g3
Ntp436
Rp437
(dp438
g7
V356
p439
sg9
VDusclops
p440
sg11
g26
sg13
VFRLGE
p441
sg15
V28
p442
sg17
g442
sg19
V4
p443
sbag1
(g2
g3
Ntp444
Rp445
(dp446
g7
V042
p447
sg9
VGolbat
p448
sg11
VD,P,
p449
sg13
VCave
p450
sg15
V55
p451
sg17
V56
p452
sg19
V30
p453
sbag1
(g2
g3
Ntp454
Rp455
(dp456
g7
V042
p457
sg9
VGolbat
p458
sg11
g26
sg13
VCave
p459
sg15
V37
p460
sg17
V38
p461
sg19
V25
p462
sbag1
(g2
g3
Ntp463
Rp464
(dp465
g7
V093
p466
sg9
VHaunter
p467
sg11
VD,P,
p468
sg13
VCave
p469
sg15
V54
p470
sg17
V56
p471
sg19
V30
p472
sbag1
(g2
g3
Ntp473
Rp474
(dp475
g7
V093
p476
sg9
VHaunter
p477
sg11
g26
sg13
VCave
p478
sg15
V35
p479
sg17
V37
p480
sg19
V30
p481
sbag1
(g2
g3
Ntp482
Rp483
(dp484
g7
V093
p485
sg9
VHaunter
p486
sg11
g26
sg13
VCave
p487
sg15
V36
p488
sg17
g488
sg19
V10
p489
sbag1
(g2
g3
Ntp490
Rp491
(dp492
g7
V356
p493
sg9
VDusclops
p494
sg11
g26
sg13
VCave
p495
sg15
V36
p496
sg17
g496
sg19
V10
p497
sbag1
(g2
g3
Ntp498
Rp499
(dp500
g7
V356
p501
sg9
VDusclops
p502
sg11
g26
sg13
VCave
p503
sg15
V38
p504
sg17
g504
sg19
V5
p505
sbag1
(g2
g3
Ntp506
Rp507
(dp508
g7
V358
p509
sg9
VChimecho
p510
sg11
g26
sg13
VCave
p511
sg15
V36
p512
sg17
V38
p513
sg19
V10
p514
sbag1
(g2
g3
Ntp515
Rp516
(dp517
g7
V436
p518
sg9
VBronzor
p519
sg11
VD,P,
p520
sg13
VCave
p521
sg15
V54
p522
sg17
g522
sg19
V5
p523
sbag1
(g2
g3
Ntp524
Rp525
(dp526
g7
V437
p527
sg9
VBronzong
p528
sg11
VD,P,
p529
sg13
VCave
p530
sg15
V55
p531
sg17
V56
p532
sg19
V35
p533
sbag1
(g2
g3
Ntp534
Rp535
(dp536
g7
V437
p537
sg9
VBronzong
p538
sg11
g26
sg13
VCave
p539
sg15
V35
p540
sg17
g540
sg19
V20
p541
sbag1
(g2
g3
Ntp542
Rp543
(dp544
g7
V337
p545
sg9
VLunatone
p546
sg11
VD,P,
p547
sg13
g116
sg15
V54
p548
sg17
V56
p549
sg19
V8
p550
sbag1
(g2
g3
Ntp551
Rp552
(dp553
g7
V337
p554
sg9
VLunatone
p555
sg11
g26
sg13
g116
sg15
V38
p556
sg17
g556
sg19
V8
p557
sbag1
(g2
g3
Ntp558
Rp559
(dp560
g7
V338
p561
sg9
VSolrock
p562
sg11
VD,P,
p563
sg13
g133
sg15
V54
p564
sg17
V56
p565
sg19
V8
p566
sbag1
(g2
g3
Ntp567
Rp568
(dp569
g7
V338
p570
sg9
VSolrock
p571
sg11
g26
sg13
g133
sg15
V38
p572
sg17
g572
sg19
V8
p573
sbag1
(g2
g3
Ntp574
Rp575
(dp576
g7
V042
p577
sg9
VGolbat
p578
sg11
VD,P,
p579
sg13
VCave
p580
sg15
V65
p581
sg17
V66
p582
sg19
V30
p583
sbag1
(g2
g3
Ntp584
Rp585
(dp586
g7
V042
p587
sg9
VGolbat
p588
sg11
g26
sg13
VCave
p589
sg15
V37
p590
sg17
V38
p591
sg19
V25
p592
sbag1
(g2
g3
Ntp593
Rp594
(dp595
g7
V093
p596
sg9
VHaunter
p597
sg11
VD,P,
p598
sg13
VCave
p599
sg15
V64
p600
sg17
V66
p601
sg19
V30
p602
sbag1
(g2
g3
Ntp603
Rp604
(dp605
g7
V093
p606
sg9
VHaunter
p607
sg11
g26
sg13
VCave
p608
sg15
V35
p609
sg17
V37
p610
sg19
V30
p611
sbag1
(g2
g3
Ntp612
Rp613
(dp614
g7
V093
p615
sg9
VHaunter
p616
sg11
g26
sg13
VCave
p617
sg15
V36
p618
sg17
g618
sg19
V10
p619
sbag1
(g2
g3
Ntp620
Rp621
(dp622
g7
V356
p623
sg9
VDusclops
p624
sg11
g26
sg13
VCave
p625
sg15
V36
p626
sg17
g626
sg19
V10
p627
sbag1
(g2
g3
Ntp628
Rp629
(dp630
g7
V356
p631
sg9
VDusclops
p632
sg11
g26
sg13
VCave
p633
sg15
V38
p634
sg17
g634
sg19
V5
p635
sbag1
(g2
g3
Ntp636
Rp637
(dp638
g7
V358
p639
sg9
VChimecho
p640
sg11
g26
sg13
VCave
p641
sg15
V36
p642
sg17
V38
p643
sg19
V10
p644
sbag1
(g2
g3
Ntp645
Rp646
(dp647
g7
V436
p648
sg9
VBronzor
p649
sg11
VD,P,
p650
sg13
VCave
p651
sg15
V64
p652
sg17
g652
sg19
V5
p653
sbag1
(g2
g3
Ntp654
Rp655
(dp656
g7
V437
p657
sg9
VBronzong
p658
sg11
VD,P,
p659
sg13
VCave
p660
sg15
V65
p661
sg17
V66
p662
sg19
V35
p663
sbag1
(g2
g3
Ntp664
Rp665
(dp666
g7
V437
p667
sg9
VBronzong
p668
sg11
g26
sg13
VCave
p669
sg15
V35
p670
sg17
g670
sg19
V20
p671
sbag1
(g2
g3
Ntp672
Rp673
(dp674
g7
V337
p675
sg9
VLunatone
p676
sg11
VD,P,
p677
sg13
g116
sg15
V64
p678
sg17
V66
p679
sg19
V8
p680
sbag1
(g2
g3
Ntp681
Rp682
(dp683
g7
V337
p684
sg9
VLunatone
p685
sg11
g26
sg13
g116
sg15
V38
p686
sg17
g686
sg19
V8
p687
sbag1
(g2
g3
Ntp688
Rp689
(dp690
g7
V338
p691
sg9
VSolrock
p692
sg11
VD,P,
p693
sg13
g133
sg15
V64
p694
sg17
V66
p695
sg19
V8
p696
sbag1
(g2
g3
Ntp697
Rp698
(dp699
g7
V338
p700
sg9
VSolrock
p701
sg11
g26
sg13
g133
sg15
V38
p702
sg17
g702
sg19
V8
p703
sbag1
(g2
g3
Ntp704
Rp705
(dp706
g7
V042
p707
sg9
VGolbat
p708
sg11
VD,P,
p709
sg13
VCave
p710
sg15
V55
p711
sg17
V56
p712
sg19
V30
p713
sbag1
(g2
g3
Ntp714
Rp715
(dp716
g7
V042
p717
sg9
VGolbat
p718
sg11
g26
sg13
VCave
p719
sg15
V37
p720
sg17
V38
p721
sg19
V25
p722
sbag1
(g2
g3
Ntp723
Rp724
(dp725
g7
V093
p726
sg9
VHaunter
p727
sg11
VD,P,
p728
sg13
VCave
p729
sg15
V54
p730
sg17
V56
p731
sg19
V30
p732
sbag1
(g2
g3
Ntp733
Rp734
(dp735
g7
V093
p736
sg9
VHaunter
p737
sg11
g26
sg13
VCave
p738
sg15
V35
p739
sg17
V37
p740
sg19
V30
p741
sbag1
(g2
g3
Ntp742
Rp743
(dp744
g7
V093
p745
sg9
VHaunter
p746
sg11
g26
sg13
VCave
p747
sg15
V36
p748
sg17
g748
sg19
V10
p749
sbag1
(g2
g3
Ntp750
Rp751
(dp752
g7
V356
p753
sg9
VDusclops
p754
sg11
g26
sg13
VCave
p755
sg15
V36
p756
sg17
g756
sg19
V10
p757
sbag1
(g2
g3
Ntp758
Rp759
(dp760
g7
V356
p761
sg9
VDusclops
p762
sg11
g26
sg13
VCave
p763
sg15
V37
p764
sg17
g764
sg19
V5
p765
sbag1
(g2
g3
Ntp766
Rp767
(dp768
g7
V358
p769
sg9
VChimecho
p770
sg11
g26
sg13
VCave
p771
sg15
V36
p772
sg17
V37
p773
sg19
V10
p774
sbag1
(g2
g3
Ntp775
Rp776
(dp777
g7
V436
p778
sg9
VBronzor
p779
sg11
VD,P,
p780
sg13
VCave
p781
sg15
V54
p782
sg17
g782
sg19
V5
p783
sbag1
(g2
g3
Ntp784
Rp785
(dp786
g7
V437
p787
sg9
VBronzong
p788
sg11
VD,P,
p789
sg13
VCave
p790
sg15
V55
p791
sg17
V56
p792
sg19
V35
p793
sbag1
(g2
g3
Ntp794
Rp795
(dp796
g7
V437
p797
sg9
VBronzong
p798
sg11
g26
sg13
VCave
p799
sg15
V35
p800
sg17
g800
sg19
V20
p801
sbag1
(g2
g3
Ntp802
Rp803
(dp804
g7
V337
p805
sg9
VLunatone
p806
sg11
VD,P,
p807
sg13
g116
sg15
V54
p808
sg17
V56
p809
sg19
V8
p810
sbag1
(g2
g3
Ntp811
Rp812
(dp813
g7
V337
p814
sg9
VLunatone
p815
sg11
g26
sg13
g116
sg15
V37
p816
sg17
g816
sg19
V8
p817
sbag1
(g2
g3
Ntp818
Rp819
(dp820
g7
V338
p821
sg9
VSolrock
p822
sg11
VD,P,
p823
sg13
g133
sg15
V54
p824
sg17
V56
p825
sg19
V8
p826
sbag1
(g2
g3
Ntp827
Rp828
(dp829
g7
V338
p830
sg9
VSolrock
p831
sg11
g26
sg13
g133
sg15
V37
p832
sg17
g832
sg19
V8
p833
sbag1
(g2
g3
Ntp834
Rp835
(dp836
g7
V042
p837
sg9
VGolbat
p838
sg11
VD,P,
p839
sg13
VCave
p840
sg15
V55
p841
sg17
V56
p842
sg19
V30
p843
sbag1
(g2
g3
Ntp844
Rp845
(dp846
g7
V042
p847
sg9
VGolbat
p848
sg11
g26
sg13
VCave
p849
sg15
V45
p850
sg17
V47
p851
sg19
V25
p852
sbag1
(g2
g3
Ntp853
Rp854
(dp855
g7
V093
p856
sg9
VHaunter
p857
sg11
VD,P,
p858
sg13
VCave
p859
sg15
V54
p860
sg17
V56
p861
sg19
V30
p862
sbag1
(g2
g3
Ntp863
Rp864
(dp865
g7
V093
p866
sg9
VHaunter
p867
sg11
g26
sg13
VCave
p868
sg15
V45
p869
sg17
V47
p870
sg19
V30
p871
sbag1
(g2
g3
Ntp872
Rp873
(dp874
g7
V093
p875
sg9
VHaunter
p876
sg11
g26
sg13
VCave
p877
sg15
V46
p878
sg17
g878
sg19
V10
p879
sbag1
(g2
g3
Ntp880
Rp881
(dp882
g7
V356
p883
sg9
VDusclops
p884
sg11
g26
sg13
VCave
p885
sg15
V46
p886
sg17
g886
sg19
V10
p887
sbag1
(g2
g3
Ntp888
Rp889
(dp890
g7
V356
p891
sg9
VDusclops
p892
sg11
g26
sg13
VCave
p893
sg15
V47
p894
sg17
V48
p895
sg19
V5
p896
sbag1
(g2
g3
Ntp897
Rp898
(dp899
g7
V358
p900
sg9
VChimecho
p901
sg11
g26
sg13
VCave
p902
sg15
V45
p903
sg17
V47
p904
sg19
V10
p905
sbag1
(g2
g3
Ntp906
Rp907
(dp908
g7
V436
p909
sg9
VBronzor
p910
sg11
VD,P,
p911
sg13
VCave
p912
sg15
V54
p913
sg17
g913
sg19
V5
p914
sbag1
(g2
g3
Ntp915
Rp916
(dp917
g7
V437
p918
sg9
VBronzong
p919
sg11
VD,P,
p920
sg13
VCave
p921
sg15
V55
p922
sg17
V56
p923
sg19
V35
p924
sbag1
(g2
g3
Ntp925
Rp926
(dp927
g7
V437
p928
sg9
VBronzong
p929
sg11
g26
sg13
VCave
p930
sg15
V45
p931
sg17
g931
sg19
V20
p932
sbag1
(g2
g3
Ntp933
Rp934
(dp935
g7
V337
p936
sg9
VLunatone
p937
sg11
VD,P,
p938
sg13
g116
sg15
V54
p939
sg17
V56
p940
sg19
V8
p941
sbag1
(g2
g3
Ntp942
Rp943
(dp944
g7
V337
p945
sg9
VLunatone
p946
sg11
g26
sg13
g116
sg15
V45
p947
sg17
V47
p948
sg19
V8
p949
sbag1
(g2
g3
Ntp950
Rp951
(dp952
g7
V338
p953
sg9
VSolrock
p954
sg11
VD,P,
p955
sg13
g133
sg15
V54
p956
sg17
V56
p957
sg19
V8
p958
sbag1
(g2
g3
Ntp959
Rp960
(dp961
g7
V338
p962
sg9
VSolrock
p963
sg11
g26
sg13
g133
sg15
V45
p964
sg17
V47
p965
sg19
V8
p966
sbag1
(g2
g3
Ntp967
Rp968
(dp969
g7
V487
p970
sg9
VGiratina
p971
sg11
VD,P,
p972
sg13
VSpecial
p973
sg15
V70
p974
sg17
g974
sg19
V0
p975
sbag1
(g2
g3
Ntp976
Rp977
(dp978
g7
V487
p979
sg9
VGiratina
p980
sg11
g26
sg13
VSpecial
p981
sg15
V47
p982
sg17
g982
sg19
V0
p983
sba.