(lp0
ccopy_reg
_reconstructor
p1
(c__main__
WildPokemon
p2
c__builtin__
object
p3
Ntp4
Rp5
(dp6
VpDexNo
p7
V054
p8
sVpSpecies
p9
VPsyduck
p10
sVpGames
p11
VD,P,
p12
sVpArea
p13
VSurf
p14
sVpMinLevel
p15
V20
p16
sVpMaxLevel
p17
V40
p18
sVpRate
p19
V90
p20
sbag1
(g2
g3
Ntp21
Rp22
(dp23
g7
V054
p24
sg9
VPsyduck
p25
sg11
VPt,
p26
sg13
VSurf
p27
sg15
V20
p28
sg17
V30
p29
sg19
V90
p30
sbag1
(g2
g3
Ntp31
Rp32
(dp33
g7
V055
p34
sg9
VGolduck
p35
sg11
VD,P,Pt,
p36
sg13
VSurf
p37
sg15
V20
p38
sg17
V40
p39
sg19
V10
p40
sbag1
(g2
g3
Ntp41
Rp42
(dp43
g7
V129
p44
sg9
VMagikarp
p45
sg11
VD,P,
p46
sg13
VFish Old
p47
sg15
V3
p48
sg17
V10
p49
sg19
V100
p50
sbag1
(g2
g3
Ntp51
Rp52
(dp53
g7
V129
p54
sg9
VMagikarp
p55
sg11
g26
sg13
VFish Old
p56
sg15
g48
sg17
V15
p57
sg19
V100
p58
sbag1
(g2
g3
Ntp59
Rp60
(dp61
g7
V118
p62
sg9
VGoldeen
p63
sg11
VD,P,
p64
sg13
VFish Good
p65
sg15
V10
p66
sg17
V25
p67
sg19
V35
p68
sbag1
(g2
g3
Ntp69
Rp70
(dp71
g7
V118
p72
sg9
VGoldeen
p73
sg11
g26
sg13
VFish Good
p74
sg15
V15
p75
sg17
V35
p76
sg19
V35
p77
sbag1
(g2
g3
Ntp78
Rp79
(dp80
g7
V129
p81
sg9
VMagikarp
p82
sg11
VD,P,Pt,
p83
sg13
VFish Good
p84
sg15
V10
p85
sg17
V25
p86
sg19
V65
p87
sbag1
(g2
g3
Ntp88
Rp89
(dp90
g7
V130
p91
sg9
VGyarados
p92
sg11
VD,P,Pt,
p93
sg13
VFish Super
p94
sg15
V30
p95
sg17
V55
p96
sg19
V65
p97
sbag1
(g2
g3
Ntp98
Rp99
(dp100
g7
V119
p101
sg9
VSeaking
p102
sg11
VD,P,
p103
sg13
VFish Super
p104
sg15
V20
p105
sg17
V50
p106
sg19
V35
p107
sbag1
(g2
g3
Ntp108
Rp109
(dp110
g7
V119
p111
sg9
VSeaking
p112
sg11
g26
sg13
VFish Super
p113
sg15
V30
p114
sg17
V55
p115
sg19
V35
p116
sba.