(lp0
ccopy_reg
_reconstructor
p1
(c__main__
WildPokemon
p2
c__builtin__
object
p3
Ntp4
Rp5
(dp6
VpDexNo
p7
V525
p8
sVpSpecies
p9
VBoldore
p10
sVpGames
p11
VB,W,
p12
sVpArea
p13
VCave
p14
sVpMinLevel
p15
V28
p16
sVpMaxLevel
p17
V31
p18
sVpRate
p19
V49
p20
sbag1
(g2
g3
Ntp21
Rp22
(dp23
g7
V525
p24
sg9
VBoldore
p25
sg11
VB,W,
p26
sg13
VCave
p27
sg15
V29
p28
sg17
V30
p29
sg19
V30
p30
sbag1
(g2
g3
Ntp31
Rp32
(dp33
g7
V527
p34
sg9
VWoobat
p35
sg11
VB,W,
p36
sg13
VCave
p37
sg15
V29
p38
sg17
V31
p39
sg19
V10
p40
sbag1
(g2
g3
Ntp41
Rp42
(dp43
g7
V527
p44
sg9
VWoobat
p45
sg11
VB,W,
p46
sg13
VCave
p47
sg15
V28
p48
sg17
V31
p49
sg19
V20
p50
sbag1
(g2
g3
Ntp51
Rp52
(dp53
g7
V527
p54
sg9
VWoobat
p55
sg11
VB,W,
p56
sg13
VCave
p57
sg15
V28
p58
sg17
V30
p59
sg19
V10
p60
sbag1
(g2
g3
Ntp61
Rp62
(dp63
g7
V533
p64
sg9
VGurdurr
p65
sg11
VB,W,
p66
sg13
VCave
p67
sg15
V28
p68
sg17
V30
p69
sg19
V30
p70
sbag1
(g2
g3
Ntp71
Rp72
(dp73
g7
V533
p74
sg9
VGurdurr
p75
sg11
VB,W,
p76
sg13
VCave
p77
sg15
V29
p78
sg17
g78
sg19
V10
p79
sbag1
(g2
g3
Ntp80
Rp81
(dp82
g7
V613
p83
sg9
VCubchoo
p84
sg11
VB,W,
p85
sg13
VCave
p86
sg15
V28
p87
sg17
g87
sg19
V10
p88
sbag1
(g2
g3
Ntp89
Rp90
(dp91
g7
V613
p92
sg9
VCubchoo
p93
sg11
VB,W,
p94
sg13
VCave
p95
sg15
V28
p96
sg17
V31
p97
sg19
V45
p98
sbag1
(g2
g3
Ntp99
Rp100
(dp101
g7
V615
p102
sg9
VCryogonal
p103
sg11
VB,W,
p104
sg13
VCave
p105
sg15
V31
p106
sg17
g106
sg19
V5
p107
sbag1
(g2
g3
Ntp108
Rp109
(dp110
g7
V615
p111
sg9
VCryogonal
p112
sg11
VB,W,
p113
sg13
VCave
p114
sg15
V28
p115
sg17
g115
sg19
V1
p116
sbag1
(g2
g3
Ntp117
Rp118
(dp119
g7
V529
p120
sg9
VDrilbur
p121
sg11
VB,W,
p122
sg13
VDust
p123
sg15
V28
p124
sg17
V31
p125
sg19
V100
p126
sbag1
(g2
g3
Ntp127
Rp128
(dp129
g7
V095
p130
sg9
VOnix
p131
sg11
VB2,W2,
p132
sg13
VCave
p133
sg15
V57
p134
sg17
g134
sg19
V5
p135
sbag1
(g2
g3
Ntp136
Rp137
(dp138
g7
V525
p139
sg9
VBoldore
p140
sg11
VB2,W2,
p141
sg13
VCave
p142
sg15
V54
p143
sg17
V55
p144
sg19
V40
p145
sbag1
(g2
g3
Ntp146
Rp147
(dp148
g7
V525
p149
sg9
VBoldore
p150
sg11
VB2,W2,
p151
sg13
VCave
p152
sg15
V54
p153
sg17
g153
sg19
V20
p154
sbag1
(g2
g3
Ntp155
Rp156
(dp157
g7
V525
p158
sg9
VBoldore
p159
sg11
VB2,W2,
p160
sg13
VCave
p161
sg15
V55
p162
sg17
g162
sg19
V20
p163
sbag1
(g2
g3
Ntp164
Rp165
(dp166
g7
V527
p167
sg9
VWoobat
p168
sg11
VB2,W2,
p169
sg13
VCave
p170
sg15
V54
p171
sg17
g171
sg19
V10
p172
sbag1
(g2
g3
Ntp173
Rp174
(dp175
g7
V533
p176
sg9
VGurdurr
p177
sg11
VB2,W2,
p178
sg13
VCave
p179
sg15
V55
p180
sg17
g180
sg19
V20
p181
sbag1
(g2
g3
Ntp182
Rp183
(dp184
g7
V614
p185
sg9
VBeartic
p186
sg11
VB2,W2,
p187
sg13
VCave
p188
sg15
V56
p189
sg17
g189
sg19
V10
p190
sbag1
(g2
g3
Ntp191
Rp192
(dp193
g7
V614
p194
sg9
VBeartic
p195
sg11
VB2,W2,
p196
sg13
VCave
p197
sg15
V54
p198
sg17
g198
sg19
V20
p199
sbag1
(g2
g3
Ntp200
Rp201
(dp202
g7
V615
p203
sg9
VCryogonal
p204
sg11
VB2,W2,
p205
sg13
VCave
p206
sg15
V57
p207
sg17
g207
sg19
V5
p208
sbag1
(g2
g3
Ntp209
Rp210
(dp211
g7
V615
p212
sg9
VCryogonal
p213
sg11
VB2,W2,
p214
sg13
VCave
p215
sg15
V56
p216
sg17
V57
p217
sg19
V15
p218
sbag1
(g2
g3
Ntp219
Rp220
(dp221
g7
V631
p222
sg9
VHeatmor
p223
sg11
VB2,W2,
p224
sg13
VCave
p225
sg15
V56
p226
sg17
g226
sg19
V5
p227
sbag1
(g2
g3
Ntp228
Rp229
(dp230
g7
V631
p231
sg9
VHeatmor
p232
sg11
VB2,W2,
p233
sg13
VCave
p234
sg15
V55
p235
sg17
V56
p236
sg19
V20
p237
sbag1
(g2
g3
Ntp238
Rp239
(dp240
g7
V632
p241
sg9
VDurant
p242
sg11
VB2,W2,
p243
sg13
VCave
p244
sg15
V56
p245
sg17
V57
p246
sg19
V15
p247
sbag1
(g2
g3
Ntp248
Rp249
(dp250
g7
V095
p251
sg9
VOnix
p252
sg11
VB2,W2,
p253
sg13
VDust
p254
sg15
V54
p255
sg17
g255
sg19
V20
p256
sbag1
(g2
g3
Ntp257
Rp258
(dp259
g7
V208
p260
sg9
VSteelix
p261
sg11
VB2,W2,
p262
sg13
VDust
p263
sg15
V57
p264
sg17
g264
sg19
V5
p265
sbag1
(g2
g3
Ntp266
Rp267
(dp268
g7
V530
p269
sg9
VExcadrill
p270
sg11
VB2,W2,
p271
sg13
VDust
p272
sg15
V54
p273
sg17
V57
p274
sg19
V75
p275
sbag1
(g2
g3
Ntp276
Rp277
(dp278
g7
V486
p279
sg9
VRegigigas
p280
sg11
VB2,W2,
p281
sg13
VSpecial
p282
sg15
V68
p283
sg17
g283
sg19
V0
p284
sba.