(lp0
ccopy_reg
_reconstructor
p1
(c__main__
WildPokemon
p2
c__builtin__
object
p3
Ntp4
Rp5
(dp6
VpDexNo
p7
V739
p8
sVpSpecies
p9
VCrabrawler
p10
sVpGames
p11
VSu,M,
p12
sVpArea
p13
VBerry pile
p14
sVpMinLevel
p15
V27
p16
sVpMaxLevel
p17
V30
p18
sVpRate
p19
V100
p20
sbag1
(g2
g3
Ntp21
Rp22
(dp23
g7
V072
p24
sg9
VTentacool
p25
sg11
VSu,M,
p26
sg13
VSurf
p27
sg15
V27
p28
sg17
V30
p29
sg19
V40
p30
sbag1
(g2
g3
Ntp31
Rp32
(dp33
g7
V279
p34
sg9
VPelipper
p35
sg11
VSu,M,
p36
sg13
VSurf
p37
sg15
V27
p38
sg17
V30
p39
sg19
V20
p40
sbag1
(g2
g3
Ntp41
Rp42
(dp43
g7
V456
p44
sg9
VFinneon
p45
sg11
VSu,M,
p46
sg13
VSurf
p47
sg15
V27
p48
sg17
V30
p49
sg19
V40
p50
sbag1
(g2
g3
Ntp51
Rp52
(dp53
g7
V129
p54
sg9
VMagikarp
p55
sg11
VSu,M,
p56
sg13
VFish
p57
sg15
V10
p58
sg17
V30
p59
sg19
V79
p60
sbag1
(g2
g3
Ntp61
Rp62
(dp63
g7
V746
p64
sg9
VWishiwashi
p65
sg11
VSu,M,
p66
sg13
VFish
p67
sg15
V10
p68
sg17
V30
p69
sg19
V20
p70
sbag1
(g2
g3
Ntp71
Rp72
(dp73
g7
V779
p74
sg9
VBruxish
p75
sg11
VSu,M,
p76
sg13
VFish
p77
sg15
V10
p78
sg17
V30
p79
sg19
V1
p80
sbag1
(g2
g3
Ntp81
Rp82
(dp83
g7
V129
p84
sg9
VMagikarp
p85
sg11
VSu,M,
p86
sg13
VFish
p87
sg15
V10
p88
sg17
V30
p89
sg19
V50
p90
sbag1
(g2
g3
Ntp91
Rp92
(dp93
g7
V746
p94
sg9
VWishiwashi
p95
sg11
VSu,M,
p96
sg13
VFish
p97
sg15
V10
p98
sg17
V30
p99
sg19
V30
p100
sbag1
(g2
g3
Ntp101
Rp102
(dp103
g7
V779
p104
sg9
VBruxish
p105
sg11
VSu,M,
p106
sg13
VFish
p107
sg15
V10
p108
sg17
V30
p109
sg19
V20
p110
sbag1
(g2
g3
Ntp111
Rp112
(dp113
g7
V739
p114
sg9
VCrabrawler
p115
sg11
VUS,UM,
p116
sg13
VBerry pile
p117
sg15
V29
p118
sg17
V32
p119
sg19
V100
p120
sba.