(lp0
ccopy_reg
_reconstructor
p1
(c__main__
WildPokemon
p2
c__builtin__
object
p3
Ntp4
Rp5
(dp6
VpDexNo
p7
V095
p8
sVpSpecies
p9
VOnix
p10
sVpGames
p11
VB2,W2,
p12
sVpArea
p13
VCave
p14
sVpMinLevel
p15
V57
p16
sVpMaxLevel
p17
g16
sVpRate
p18
V5
p19
sbag1
(g2
g3
Ntp20
Rp21
(dp22
g7
V299
p23
sg9
VNosepass
p24
sg11
VB2,W2,
p25
sg13
VCave
p26
sg15
V55
p27
sg17
V57
p28
sg18
V15
p29
sbag1
(g2
g3
Ntp30
Rp31
(dp32
g7
V305
p33
sg9
VLairon
p34
sg11
VB2,W2,
p35
sg13
VCave
p36
sg15
V55
p37
sg17
V57
p38
sg18
V15
p39
sbag1
(g2
g3
Ntp40
Rp41
(dp42
g7
V525
p43
sg9
VBoldore
p44
sg11
VB2,W2,
p45
sg13
VCave
p46
sg15
V54
p47
sg17
V55
p48
sg18
V35
p49
sbag1
(g2
g3
Ntp50
Rp51
(dp52
g7
V527
p53
sg9
VWoobat
p54
sg11
VB2,W2,
p55
sg13
VCave
p56
sg15
V54
p57
sg17
g57
sg18
V10
p58
sbag1
(g2
g3
Ntp59
Rp60
(dp61
g7
V632
p62
sg9
VDurant
p63
sg11
VB2,W2,
p64
sg13
VCave
p65
sg15
V54
p66
sg17
g66
sg18
V20
p67
sbag1
(g2
g3
Ntp68
Rp69
(dp70
g7
V095
p71
sg9
VOnix
p72
sg11
VB2,W2,
p73
sg13
VDust
p74
sg15
V54
p75
sg17
g75
sg18
V20
p76
sbag1
(g2
g3
Ntp77
Rp78
(dp79
g7
V530
p80
sg9
VExcadrill
p81
sg11
VB2,W2,
p82
sg13
VDust
p83
sg15
V54
p84
sg17
V57
p85
sg18
V75
p86
sbag1
(g2
g3
Ntp87
Rp88
(dp89
g7
V208
p90
sg9
VSteelix
p91
sg11
VB2,W2,
p92
sg13
VDust
p93
sg15
V57
p94
sg17
g94
sg18
V5
p95
sbag1
(g2
g3
Ntp96
Rp97
(dp98
g7
V377
p99
sg9
VRegirock
p100
sg11
VB2,W2,
p101
sg13
VSpecial
p102
sg15
V65
p103
sg17
g103
sg18
V0
p104
sbag1
(g2
g3
Ntp105
Rp106
(dp107
g7
V378
p108
sg9
VRegice
p109
sg11
VB2,W2,
p110
sg13
VSpecial
p111
sg15
V65
p112
sg17
g112
sg18
V0
p113
sbag1
(g2
g3
Ntp114
Rp115
(dp116
g7
V379
p117
sg9
VRegisteel
p118
sg11
VB2,W2,
p119
sg13
VSpecial
p120
sg15
V65
p121
sg17
g121
sg18
V0
p122
sba.