(lp0
ccopy_reg
_reconstructor
p1
(c__main__
WildPokemon
p2
c__builtin__
object
p3
Ntp4
Rp5
(dp6
VpDexNo
p7
V170
p8
sVpSpecies
p9
VChinchou
p10
sVpGames
p11
VRu,S,E,
p12
sVpArea
p13
VDive
p14
sVpMinLevel
p15
V20
p16
sVpMaxLevel
p17
V30
p18
sVpRate
p19
V30
p20
sbag1
(g2
g3
Ntp21
Rp22
(dp23
g7
V366
p24
sg9
VClamperl
p25
sg11
VRu,S,E,
p26
sg13
VDive
p27
sg15
V20
p28
sg17
V35
p29
sg19
V65
p30
sbag1
(g2
g3
Ntp31
Rp32
(dp33
g7
V369
p34
sg9
VRelicanth
p35
sg11
VRu,S,E,
p36
sg13
VDive
p37
sg15
V30
p38
sg17
V35
p39
sg19
V5
p40
sbag1
(g2
g3
Ntp41
Rp42
(dp43
g7
V170
p44
sg9
VChinchou
p45
sg11
VOR,AS,
p46
sg13
VDive
p47
sg15
V25
p48
sg17
g48
sg19
V50
p49
sbag1
(g2
g3
Ntp50
Rp51
(dp52
g7
V171
p53
sg9
VLanturn
p54
sg11
VOR,AS,
p55
sg13
VDive
p56
sg15
V30
p57
sg17
g57
sg19
V15
p58
sbag1
(g2
g3
Ntp59
Rp60
(dp61
g7
V366
p62
sg9
VClamperl
p63
sg11
VOR,AS,
p64
sg13
VDive
p65
sg15
V30
p66
sg17
g66
sg19
V30
p67
sbag1
(g2
g3
Ntp68
Rp69
(dp70
g7
V369
p71
sg9
VRelicanth
p72
sg11
VOR,AS,
p73
sg13
VDive
p74
sg15
V30
p75
sg17
V35
p76
sg19
V5
p77
sbag1
(g2
g3
Ntp78
Rp79
(dp80
g7
V170
p81
sg9
VChinchou
p82
sg11
VOR,AS,
p83
sg13
VDive
p84
sg15
V25
p85
sg17
g85
sg19
V50
p86
sbag1
(g2
g3
Ntp87
Rp88
(dp89
g7
V171
p90
sg9
VLanturn
p91
sg11
VOR,AS,
p92
sg13
VDive
p93
sg15
V30
p94
sg17
g94
sg19
V15
p95
sbag1
(g2
g3
Ntp96
Rp97
(dp98
g7
V222
p99
sg9
VCorsola
p100
sg11
VOR,AS,
p101
sg13
VDive
p102
sg15
V30
p103
sg17
g103
sg19
V4
p104
sbag1
(g2
g3
Ntp105
Rp106
(dp107
g7
V366
p108
sg9
VClamperl
p109
sg11
VOR,AS,
p110
sg13
VDive
p111
sg15
V30
p112
sg17
g112
sg19
V30
p113
sbag1
(g2
g3
Ntp114
Rp115
(dp116
g7
V369
p117
sg9
VRelicanth
p118
sg11
VOR,AS,
p119
sg13
VDive
p120
sg15
V35
p121
sg17
g121
sg19
V1
p122
sba.