(lp0
ccopy_reg
_reconstructor
p1
(c__main__
WildPokemon
p2
c__builtin__
object
p3
Ntp4
Rp5
(dp6
VpDexNo
p7
V278
p8
sVpSpecies
p9
VWingull
p10
sVpGames
p11
VB,W,
p12
sVpArea
p13
VSurf
p14
sVpMinLevel
p15
V25
p16
sVpMaxLevel
p17
V55
p18
sVpRate
p19
V60
p20
sbag1
(g2
g3
Ntp21
Rp22
(dp23
g7
V279
p24
sg9
VPelipper
p25
sg11
VB,W,
p26
sg13
VSurf
p27
sg15
V25
p28
sg17
V55
p29
sg19
V10
p30
sbag1
(g2
g3
Ntp31
Rp32
(dp33
g7
V458
p34
sg9
VMantyke
p35
sg11
VB,W,
p36
sg13
VSurf
p37
sg15
V25
p38
sg17
V55
p39
sg19
V30
p40
sbag1
(g2
g3
Ntp41
Rp42
(dp43
g7
V363
p44
sg9
VSpheal
p45
sg11
VB,W,
p46
sg13
VSurf
p47
sg15
V25
p48
sg17
V55
p49
sg19
V30
p50
sbag1
(g2
g3
Ntp51
Rp52
(dp53
g7
V320
p54
sg9
VWailmer
p55
sg11
VB,W,
p56
sg13
VRippling
p57
sg15
V25
p58
sg17
V60
p59
sg19
V90
p60
sbag1
(g2
g3
Ntp61
Rp62
(dp63
g7
V364
p64
sg9
VSealeo
p65
sg11
VB,W,
p66
sg13
VRippling
p67
sg15
V25
p68
sg17
V60
p69
sg19
V30
p70
sbag1
(g2
g3
Ntp71
Rp72
(dp73
g7
V226
p74
sg9
VMantine
p75
sg11
VB,W,
p76
sg13
VRippling
p77
sg15
V25
p78
sg17
V60
p79
sg19
V5
p80
sbag1
(g2
g3
Ntp81
Rp82
(dp83
g7
V365
p84
sg9
VWalrein
p85
sg11
VB,W,
p86
sg13
VRippling
p87
sg15
V25
p88
sg17
V70
p89
sg19
V5
p90
sbag1
(g2
g3
Ntp91
Rp92
(dp93
g7
V321
p94
sg9
VWailord
p95
sg11
VB,W,
p96
sg13
VRippling
p97
sg15
V25
p98
sg17
V70
p99
sg19
V5
p100
sbag1
(g2
g3
Ntp101
Rp102
(dp103
g7
V223
p104
sg9
VRemoraid
p105
sg11
VB,W,
p106
sg13
VFishing
p107
sg15
V35
p108
sg17
V55
p109
sg19
V65
p110
sbag1
(g2
g3
Ntp111
Rp112
(dp113
g7
V090
p114
sg9
VShellder
p115
sg11
VB,W,
p116
sg13
VFishing
p117
sg15
V35
p118
sg17
V55
p119
sg19
V30
p120
sbag1
(g2
g3
Ntp121
Rp122
(dp123
g7
V370
p124
sg9
VLuvdisc
p125
sg11
VB,W,
p126
sg13
VFishing
p127
sg15
V35
p128
sg17
V55
p129
sg19
V5
p130
sbag1
(g2
g3
Ntp131
Rp132
(dp133
g7
V090
p134
sg9
VShellder
p135
sg11
VB,W,
p136
sg13
VRippling
p137
sg15
V35
p138
sg17
V60
p139
sg19
V60
p140
sbag1
(g2
g3
Ntp141
Rp142
(dp143
g7
V370
p144
sg9
VLuvdisc
p145
sg11
VB,W,
p146
sg13
VRippling
p147
sg15
V35
p148
sg17
V60
p149
sg19
V30
p150
sbag1
(g2
g3
Ntp151
Rp152
(dp153
g7
V224
p154
sg9
VOctillery
p155
sg11
VB,W,
p156
sg13
VRippling
p157
sg15
V35
p158
sg17
V70
p159
sg19
V5
p160
sbag1
(g2
g3
Ntp161
Rp162
(dp163
g7
V091
p164
sg9
VCloyster
p165
sg11
VB,W,
p166
sg13
VRippling
p167
sg15
V35
p168
sg17
V70
p169
sg19
V5
p170
sbag1
(g2
g3
Ntp171
Rp172
(dp173
g7
V223
p174
sg9
VRemoraid
p175
sg11
VB2,W2,
p176
sg13
VSurf
p177
sg15
V30
p178
sg17
V40
p179
sg19
V5
p180
sbag1
(g2
g3
Ntp181
Rp182
(dp183
g7
V363
p184
sg9
VSpheal
p185
sg11
VB2,W2,
p186
sg13
VSurf
p187
sg15
V25
p188
sg17
V40
p189
sg19
V30
p190
sbag1
(g2
g3
Ntp191
Rp192
(dp193
g7
V458
p194
sg9
VMantyke
p195
sg11
VB2,W2,
p196
sg13
VSurf
p197
sg15
V25
p198
sg17
V40
p199
sg19
V30
p200
sbag1
(g2
g3
Ntp201
Rp202
(dp203
g7
V592
p204
sg9
VFrillish
p205
sg11
VB2,W2,
p206
sg13
VSurf
p207
sg15
V25
p208
sg17
V40
p209
sg19
V65
p210
sbag1
(g2
g3
Ntp211
Rp212
(dp213
g7
V226
p214
sg9
VMantine
p215
sg11
VB2,W2,
p216
sg13
VRippling
p217
sg15
V30
p218
sg17
V40
p219
sg19
V5
p220
sbag1
(g2
g3
Ntp221
Rp222
(dp223
g7
V320
p224
sg9
VWailmer
p225
sg11
VB2,W2,
p226
sg13
VRippling
p227
sg15
V25
p228
sg17
V40
p229
sg19
V60
p230
sbag1
(g2
g3
Ntp231
Rp232
(dp233
g7
V321
p234
sg9
VWailord
p235
sg11
VB2,W2,
p236
sg13
VRippling
p237
sg15
V30
p238
sg17
V40
p239
sg19
V5
p240
sbag1
(g2
g3
Ntp241
Rp242
(dp243
g7
V364
p244
sg9
VSealeo
p245
sg11
VB2,W2,
p246
sg13
VRippling
p247
sg15
V25
p248
sg17
V40
p249
sg19
V30
p250
sbag1
(g2
g3
Ntp251
Rp252
(dp253
g7
V365
p254
sg9
VWalrein
p255
sg11
VB2,W2,
p256
sg13
VRippling
p257
sg15
V30
p258
sg17
V40
p259
sg19
V5
p260
sbag1
(g2
g3
Ntp261
Rp262
(dp263
g7
V593
p264
sg9
VJellicent
p265
sg11
VB2,W2,
p266
sg13
VRippling
p267
sg15
V25
p268
sg17
V40
p269
sg19
V60
p270
sbag1
(g2
g3
Ntp271
Rp272
(dp273
g7
V170
p274
sg9
VChinchou
p275
sg11
VB2,W2,
p276
sg13
VFish Super
p277
sg15
V40
p278
sg17
V70
p279
sg19
V70
p280
sbag1
(g2
g3
Ntp281
Rp282
(dp283
g7
V223
p284
sg9
VRemoraid
p285
sg11
VB2,W2,
p286
sg13
VFish Super
p287
sg15
V40
p288
sg17
V60
p289
sg19
V30
p290
sbag1
(g2
g3
Ntp291
Rp292
(dp293
g7
V170
p294
sg9
VChinchou
p295
sg11
VB2,W2,
p296
sg13
VRippling
p297
sg15
V40
p298
sg17
V60
p299
sg19
V30
p300
sbag1
(g2
g3
Ntp301
Rp302
(dp303
g7
V171
p304
sg9
VLanturn
p305
sg11
VB2,W2,
p306
sg13
VRippling
p307
sg15
V50
p308
sg17
V70
p309
sg19
V5
p310
sbag1
(g2
g3
Ntp311
Rp312
(dp313
g7
V223
p314
sg9
VRemoraid
p315
sg11
VB2,W2,
p316
sg13
VRippling
p317
sg15
V40
p318
sg17
V60
p319
sg19
V60
p320
sbag1
(g2
g3
Ntp321
Rp322
(dp323
g7
V224
p324
sg9
VOctillery
p325
sg11
VB2,W2,
p326
sg13
VRippling
p327
sg15
V50
p328
sg17
V70
p329
sg19
V5
p330
sbag1
(g2
g3
Ntp331
Rp332
(dp333
g7
V593
p334
sg9
VJellicent
p335
sg11
VB2,
p336
sg13
VSpecial
p337
sg15
V40
p338
sg17
g338
sg19
V0
p339
sbag1
(g2
g3
Ntp340
Rp341
(dp342
g7
V593
p343
sg9
VJellicent
p344
sg11
VW2,
p345
sg13
VSpecial
p346
sg15
V40
p347
sg17
g347
sg19
V0
p348
sba.