(lp0
ccopy_reg
_reconstructor
p1
(c__main__
WildPokemon
p2
c__builtin__
object
p3
Ntp4
Rp5
(dp6
VpDexNo
p7
V019
p8
sVpSpecies
p9
VRattata
p10
sVpGames
p11
VG,
p12
sVpArea
p13
VCave
p14
sVpMinLevel
p15
V4
p16
sVpMaxLevel
p17
g16
sVpRate
p18
V10
p19
sbag1
(g2
g3
Ntp20
Rp21
(dp22
g7
V019
p23
sg9
VRattata
p24
sg11
VS,
p25
sg13
VCave
p26
sg15
g16
sg17
V6
p27
sg18
V40
p28
sbag1
(g2
g3
Ntp29
Rp30
(dp31
g7
V019
p32
sg9
VRattata
p33
sg11
VC,
p34
sg13
VCave
p35
sg15
g16
sg17
g16
sg18
V10
p36
sbag1
(g2
g3
Ntp37
Rp38
(dp39
g7
V019
p40
sg9
VRattata
p41
sg11
g34
sg13
VCave
p42
sg15
g16
sg17
g27
sg18
V40
p43
sbag1
(g2
g3
Ntp44
Rp45
(dp46
g7
V027
p47
sg9
VSandshrew
p48
sg11
g12
sg13
VCave
p49
sg15
g27
sg17
g27
sg18
V30
p50
sbag1
(g2
g3
Ntp51
Rp52
(dp53
g7
V027
p54
sg9
VSandshrew
p55
sg11
g34
sg13
VCave
p56
sg15
g27
sg17
g27
sg18
V30
p57
sbag1
(g2
g3
Ntp58
Rp59
(dp60
g7
V041
p61
sg9
VZubat
p62
sg11
VG,S,
p63
sg13
VCave
p64
sg15
V5
p65
sg17
V7
p66
sg18
V25
p67
sbag1
(g2
g3
Ntp68
Rp69
(dp70
g7
V041
p71
sg9
VZubat
p72
sg11
g34
sg13
VCave
p73
sg15
g65
sg17
g66
sg18
V25
p74
sbag1
(g2
g3
Ntp75
Rp76
(dp77
g7
V041
p78
sg9
VZubat
p79
sg11
g34
sg13
VCave
p80
sg15
g66
sg17
g66
sg18
V5
p81
sbag1
(g2
g3
Ntp82
Rp83
(dp84
g7
V074
p85
sg9
VGeodude
p86
sg11
VG,S,C,
p87
sg13
VCave
p88
sg15
g27
sg17
g27
sg18
V30
p89
sbag1
(g2
g3
Ntp90
Rp91
(dp92
g7
V095
p93
sg9
VOnix
p94
sg11
VG,S,C,
p95
sg13
VCave
p96
sg15
g27
sg17
g27
sg18
V5
p97
sbag1
(g2
g3
Ntp98
Rp99
(dp100
g7
V194
p101
sg9
VWooper
p102
sg11
g34
sg13
VCave
p103
sg15
g65
sg17
g65
sg18
V20
p104
sbag1
(g2
g3
Ntp105
Rp106
(dp107
g7
V194
p108
sg9
VWooper
p109
sg11
VG,S,C,
p110
sg13
VSurf
p111
sg15
V15
p112
sg17
V19
p113
sg18
V60
p114
sbag1
(g2
g3
Ntp115
Rp116
(dp117
g7
V195
p118
sg9
VQuagsire
p119
sg11
VG,S,C,
p120
sg13
VSurf
p121
sg15
V15
p122
sg17
V24
p123
sg18
V40
p124
sbag1
(g2
g3
Ntp125
Rp126
(dp127
g7
V118
p128
sg9
VGoldeen
p129
sg11
VG,S,C,
p130
sg13
VFish Old
p131
sg15
V10
p132
sg17
g132
sg18
V15
p133
sbag1
(g2
g3
Ntp134
Rp135
(dp136
g7
V129
p137
sg9
VMagikarp
p138
sg11
VG,S,C,
p139
sg13
VFish Old
p140
sg15
V10
p141
sg17
g141
sg18
V85
p142
sbag1
(g2
g3
Ntp143
Rp144
(dp145
g7
V118
p146
sg9
VGoldeen
p147
sg11
VG,S,C,
p148
sg13
VFish Good
p149
sg15
V20
p150
sg17
g150
sg18
V65
p151
sbag1
(g2
g3
Ntp152
Rp153
(dp154
g7
V129
p155
sg9
VMagikarp
p156
sg11
VG,S,C,
p157
sg13
VFish Good
p158
sg15
V20
p159
sg17
g159
sg18
V35
p160
sbag1
(g2
g3
Ntp161
Rp162
(dp163
g7
V118
p164
sg9
VGoldeen
p165
sg11
VG,S,C,
p166
sg13
VFish Super
p167
sg15
V40
p168
sg17
g168
sg18
V70
p169
sbag1
(g2
g3
Ntp170
Rp171
(dp172
g7
V119
p173
sg9
VSeaking
p174
sg11
VG,S,C,
p175
sg13
VFish Super
p176
sg15
V40
p177
sg17
g177
sg18
V10
p178
sbag1
(g2
g3
Ntp179
Rp180
(dp181
g7
V129
p182
sg9
VMagikarp
p183
sg11
VG,S,C,
p184
sg13
VFish Super
p185
sg15
V40
p186
sg17
g186
sg18
V20
p187
sbag1
(g2
g3
Ntp188
Rp189
(dp190
g7
V019
p191
sg9
VRattata
p192
sg11
g12
sg13
VCave
p193
sg15
g27
sg17
g27
sg18
V5
p194
sbag1
(g2
g3
Ntp195
Rp196
(dp197
g7
V019
p198
sg9
VRattata
p199
sg11
g25
sg13
VCave
p200
sg15
g27
sg17
V8
p201
sg18
V35
p202
sbag1
(g2
g3
Ntp203
Rp204
(dp205
g7
V019
p206
sg9
VRattata
p207
sg11
g34
sg13
VCave
p208
sg15
g27
sg17
g201
sg18
V10
p209
sbag1
(g2
g3
Ntp210
Rp211
(dp212
g7
V027
p213
sg9
VSandshrew
p214
sg11
g12
sg13
VCave
p215
sg15
g201
sg17
g201
sg18
V30
p216
sbag1
(g2
g3
Ntp217
Rp218
(dp219
g7
V041
p220
sg9
VZubat
p221
sg11
VG,S,
p222
sg13
VCave
p223
sg15
g66
sg17
V9
p224
sg18
V25
p225
sbag1
(g2
g3
Ntp226
Rp227
(dp228
g7
V041
p229
sg9
VZubat
p230
sg11
g34
sg13
VCave
p231
sg15
g27
sg17
g201
sg18
V50
p232
sbag1
(g2
g3
Ntp233
Rp234
(dp235
g7
V041
p236
sg9
VZubat
p237
sg11
g34
sg13
VCave
p238
sg15
g27
sg17
g27
sg18
V30
p239
sbag1
(g2
g3
Ntp240
Rp241
(dp242
g7
V074
p243
sg9
VGeodude
p244
sg11
VG,S,C,
p245
sg13
VCave
p246
sg15
g201
sg17
g201
sg18
V30
p247
sbag1
(g2
g3
Ntp248
Rp249
(dp250
g7
V095
p251
sg9
VOnix
p252
sg11
VG,S,C,
p253
sg13
VCave
p254
sg15
g201
sg17
g201
sg18
V10
p255
sbag1
(g2
g3
Ntp256
Rp257
(dp258
g7
V194
p259
sg9
VWooper
p260
sg11
g34
sg13
VCave
p261
sg15
g201
sg17
g201
sg18
V20
p262
sbag1
(g2
g3
Ntp263
Rp264
(dp265
g7
V194
p266
sg9
VWooper
p267
sg11
VG,S,C,
p268
sg13
VSurf
p269
sg15
V15
p270
sg17
V19
p271
sg18
V60
p272
sbag1
(g2
g3
Ntp273
Rp274
(dp275
g7
V195
p276
sg9
VQuagsire
p277
sg11
VG,S,C,
p278
sg13
VSurf
p279
sg15
V15
p280
sg17
V24
p281
sg18
V40
p282
sbag1
(g2
g3
Ntp283
Rp284
(dp285
g7
V118
p286
sg9
VGoldeen
p287
sg11
VG,S,C,
p288
sg13
VFish Old
p289
sg15
V10
p290
sg17
g290
sg18
V15
p291
sbag1
(g2
g3
Ntp292
Rp293
(dp294
g7
V129
p295
sg9
VMagikarp
p296
sg11
VG,S,C,
p297
sg13
VFish Old
p298
sg15
V10
p299
sg17
g299
sg18
V85
p300
sbag1
(g2
g3
Ntp301
Rp302
(dp303
g7
V118
p304
sg9
VGoldeen
p305
sg11
VG,S,C,
p306
sg13
VFish Good
p307
sg15
V20
p308
sg17
g308
sg18
V65
p309
sbag1
(g2
g3
Ntp310
Rp311
(dp312
g7
V129
p313
sg9
VMagikarp
p314
sg11
VG,S,C,
p315
sg13
VFish Good
p316
sg15
V20
p317
sg17
g317
sg18
V35
p318
sbag1
(g2
g3
Ntp319
Rp320
(dp321
g7
V118
p322
sg9
VGoldeen
p323
sg11
VG,S,C,
p324
sg13
VFish Super
p325
sg15
V40
p326
sg17
g326
sg18
V70
p327
sbag1
(g2
g3
Ntp328
Rp329
(dp330
g7
V119
p331
sg9
VSeaking
p332
sg11
VG,S,C,
p333
sg13
VFish Super
p334
sg15
V40
p335
sg17
g335
sg18
V10
p336
sbag1
(g2
g3
Ntp337
Rp338
(dp339
g7
V129
p340
sg9
VMagikarp
p341
sg11
VG,S,C,
p342
sg13
VFish Super
p343
sg15
V40
p344
sg17
g344
sg18
V20
p345
sbag1
(g2
g3
Ntp346
Rp347
(dp348
g7
V019
p349
sg9
VRattata
p350
sg11
VG,S,
p351
sg13
VCave
p352
sg15
V20
p353
sg17
g353
sg18
V5
p354
sbag1
(g2
g3
Ntp355
Rp356
(dp357
g7
V020
p358
sg9
VRaticate
p359
sg11
VG,S,
p360
sg13
VCave
p361
sg15
V22
p362
sg17
g362
sg18
V30
p363
sbag1
(g2
g3
Ntp364
Rp365
(dp366
g7
V020
p367
sg9
VRaticate
p368
sg11
g34
sg13
VCave
p369
sg15
V21
p370
sg17
g370
sg18
V10
p371
sbag1
(g2
g3
Ntp372
Rp373
(dp374
g7
V041
p375
sg9
VZubat
p376
sg11
VG,S,
p377
sg13
VCave
p378
sg15
V22
p379
sg17
g379
sg18
V30
p380
sbag1
(g2
g3
Ntp381
Rp382
(dp383
g7
V041
p384
sg9
VZubat
p385
sg11
g34
sg13
VCave
p386
sg15
V22
p387
sg17
g387
sg18
V50
p388
sbag1
(g2
g3
Ntp389
Rp390
(dp391
g7
V042
p392
sg9
VGolbat
p393
sg11
VG,S,
p394
sg13
VCave
p395
sg15
V22
p396
sg17
g396
sg18
V20
p397
sbag1
(g2
g3
Ntp398
Rp399
(dp400
g7
V042
p401
sg9
VGolbat
p402
sg11
g34
sg13
VCave
p403
sg15
V22
p404
sg17
g404
sg18
V30
p405
sbag1
(g2
g3
Ntp406
Rp407
(dp408
g7
V074
p409
sg9
VGeodude
p410
sg11
VG,S,
p411
sg13
VCave
p412
sg15
V21
p413
sg17
g413
sg18
V10
p414
sbag1
(g2
g3
Ntp415
Rp416
(dp417
g7
V074
p418
sg9
VGeodude
p419
sg11
g34
sg13
VCave
p420
sg15
V20
p421
sg17
g421
sg18
V5
p422
sbag1
(g2
g3
Ntp423
Rp424
(dp425
g7
V095
p426
sg9
VOnix
p427
sg11
VG,S,C,
p428
sg13
VCave
p429
sg15
V23
p430
sg17
g430
sg18
V5
p431
sbag1
(g2
g3
Ntp432
Rp433
(dp434
g7
V195
p435
sg9
VQuagsire
p436
sg11
g34
sg13
VCave
p437
sg15
V22
p438
sg17
g438
sg18
V20
p439
sbag1
(g2
g3
Ntp440
Rp441
(dp442
g7
V072
p443
sg9
VTentacool
p444
sg11
VG,S,C,
p445
sg13
VSurf
p446
sg15
V15
p447
sg17
V19
p448
sg18
V60
p449
sbag1
(g2
g3
Ntp450
Rp451
(dp452
g7
V073
p453
sg9
VTentacruel
p454
sg11
VG,S,C,
p455
sg13
VSurf
p456
sg15
V20
p457
sg17
V24
p458
sg18
V10
p459
sbag1
(g2
g3
Ntp460
Rp461
(dp462
g7
V195
p463
sg9
VQuagsire
p464
sg11
VG,S,C,
p465
sg13
VSurf
p466
sg15
V20
p467
sg17
V24
p468
sg18
V30
p469
sbag1
(g2
g3
Ntp470
Rp471
(dp472
g7
V098
p473
sg9
VKrabby
p474
sg11
VG,S,C,
p475
sg13
VFish Old
p476
sg15
V10
p477
sg17
g477
sg18
V15
p478
sbag1
(g2
g3
Ntp479
Rp480
(dp481
g7
V129
p482
sg9
VMagikarp
p483
sg11
VG,S,C,
p484
sg13
VFish Old
p485
sg15
V10
p486
sg17
g486
sg18
V85
p487
sbag1
(g2
g3
Ntp488
Rp489
(dp490
g7
V098
p491
sg9
VKrabby
p492
sg11
VG,S,C,
p493
sg13
VFish Good
p494
sg15
V20
p495
sg17
g495
sg18
V55
p496
sbag1
(g2
g3
Ntp497
Rp498
(dp499
g7
V120
p500
sg9
VStaryu
p501
sg11
VG,S,C,
p502
sg13
VFish Good
p503
sg15
V20
p504
sg17
g504
sg18
V10
p505
sbag1
(g2
g3
Ntp506
Rp507
(dp508
g7
V129
p509
sg9
VMagikarp
p510
sg11
VG,S,C,
p511
sg13
VFish Good
p512
sg15
V20
p513
sg17
g513
sg18
V35
p514
sbag1
(g2
g3
Ntp515
Rp516
(dp517
g7
V222
p518
sg9
VCorsola
p519
sg11
VG,S,C,
p520
sg13
VFish Good
p521
sg15
V20
p522
sg17
g522
sg18
V10
p523
sbag1
(g2
g3
Ntp524
Rp525
(dp526
g7
V098
p527
sg9
VKrabby
p528
sg11
VG,S,C,
p529
sg13
VFish Super
p530
sg15
V40
p531
sg17
g531
sg18
V60
p532
sbag1
(g2
g3
Ntp533
Rp534
(dp535
g7
V099
p536
sg9
VKingler
p537
sg11
VG,S,C,
p538
sg13
VFish Super
p539
sg15
V40
p540
sg17
g540
sg18
V10
p541
sbag1
(g2
g3
Ntp542
Rp543
(dp544
g7
V120
p545
sg9
VStaryu
p546
sg11
VG,S,C,
p547
sg13
VFish Super
p548
sg15
V40
p549
sg17
g549
sg18
V30
p550
sbag1
(g2
g3
Ntp551
Rp552
(dp553
g7
V222
p554
sg9
VCorsola
p555
sg11
VG,S,C,
p556
sg13
VFish Super
p557
sg15
V40
p558
sg17
g558
sg18
V30
p559
sbag1
(g2
g3
Ntp560
Rp561
(dp562
g7
V131
p563
sg9
VLapras
p564
sg11
VG,S,C,
p565
sg13
VSpecial
p566
sg15
V20
p567
sg17
g567
sg18
V0
p568
sbag1
(g2
g3
Ntp569
Rp570
(dp571
g7
V019
p572
sg9
VRattata
p573
sg11
VHG,
p574
sg13
VCave
p575
sg15
g16
sg17
g16
sg18
V10
p576
sbag1
(g2
g3
Ntp577
Rp578
(dp579
g7
V019
p580
sg9
VRattata
p581
sg11
VSS,
p582
sg13
VCave
p583
sg15
g16
sg17
g27
sg18
V40
p584
sbag1
(g2
g3
Ntp585
Rp586
(dp587
g7
V027
p588
sg9
VSandshrew
p589
sg11
g574
sg13
VCave
p590
sg15
g27
sg17
g27
sg18
V30
p591
sbag1
(g2
g3
Ntp592
Rp593
(dp594
g7
V041
p595
sg9
VZubat
p596
sg11
VHG,SS,
p597
sg13
VCave
p598
sg15
g65
sg17
g66
sg18
V25
p599
sbag1
(g2
g3
Ntp600
Rp601
(dp602
g7
V074
p603
sg9
VGeodude
p604
sg11
VHG,SS,
p605
sg13
VCave
p606
sg15
g27
sg17
g27
sg18
V30
p607
sbag1
(g2
g3
Ntp608
Rp609
(dp610
g7
V095
p611
sg9
VOnix
p612
sg11
VHG,SS,
p613
sg13
VCave
p614
sg15
g27
sg17
g27
sg18
V5
p615
sbag1
(g2
g3
Ntp616
Rp617
(dp618
g7
V194
p619
sg9
VWooper
p620
sg11
VHG,SS,
p621
sg13
VSurf
p622
sg15
V10
p623
sg17
V20
p624
sg18
V60
p625
sbag1
(g2
g3
Ntp626
Rp627
(dp628
g7
V195
p629
sg9
VQuagsire
p630
sg11
VHG,SS,
p631
sg13
VSurf
p632
sg15
V10
p633
sg17
V25
p634
sg18
V40
p635
sbag1
(g2
g3
Ntp636
Rp637
(dp638
g7
V118
p639
sg9
VGoldeen
p640
sg11
VHG,SS,
p641
sg13
VFish Old
p642
sg15
V10
p643
sg17
g643
sg18
V15
p644
sbag1
(g2
g3
Ntp645
Rp646
(dp647
g7
V129
p648
sg9
VMagikarp
p649
sg11
VHG,SS,
p650
sg13
VFish Old
p651
sg15
V10
p652
sg17
g652
sg18
V85
p653
sbag1
(g2
g3
Ntp654
Rp655
(dp656
g7
V118
p657
sg9
VGoldeen
p658
sg11
VHG,SS,
p659
sg13
VFish Good
p660
sg15
V20
p661
sg17
g661
sg18
V60
p662
sbag1
(g2
g3
Ntp663
Rp664
(dp665
g7
V129
p666
sg9
VMagikarp
p667
sg11
VHG,SS,
p668
sg13
VFish Good
p669
sg15
V20
p670
sg17
g670
sg18
V40
p671
sbag1
(g2
g3
Ntp672
Rp673
(dp674
g7
V118
p675
sg9
VGoldeen
p676
sg11
VHG,SS,
p677
sg13
VFish Super
p678
sg15
V40
p679
sg17
g679
sg18
V70
p680
sbag1
(g2
g3
Ntp681
Rp682
(dp683
g7
V119
p684
sg9
VSeaking
p685
sg11
VHG,SS,
p686
sg13
VFish Super
p687
sg15
V40
p688
sg17
g688
sg18
V10
p689
sbag1
(g2
g3
Ntp690
Rp691
(dp692
g7
V129
p693
sg9
VMagikarp
p694
sg11
VHG,SS,
p695
sg13
VFish Super
p696
sg15
V40
p697
sg17
g697
sg18
V20
p698
sbag1
(g2
g3
Ntp699
Rp700
(dp701
g7
V296
p702
sg9
VMakuhita
p703
sg11
VHG,SS,
p704
sg13
VHoenn
p705
sg15
g65
sg17
g65
sg18
V20
p706
sbag1
(g2
g3
Ntp707
Rp708
(dp709
g7
V359
p710
sg9
VAbsol
p711
sg11
VHG,SS,
p712
sg13
VHoenn
p713
sg15
g27
sg17
g27
sg18
V20
p714
sbag1
(g2
g3
Ntp715
Rp716
(dp717
g7
V433
p718
sg9
VChingling
p719
sg11
VHG,SS,
p720
sg13
VSinnoh
p721
sg15
g65
sg17
g65
sg18
V20
p722
sbag1
(g2
g3
Ntp723
Rp724
(dp725
g7
V436
p726
sg9
VBronzor
p727
sg11
VHG,SS,
p728
sg13
VSinnoh
p729
sg15
g27
sg17
g27
sg18
V20
p730
sbag1
(g2
g3
Ntp731
Rp732
(dp733
g7
V019
p734
sg9
VRattata
p735
sg11
g574
sg13
VCave
p736
sg15
g27
sg17
g27
sg18
V5
p737
sbag1
(g2
g3
Ntp738
Rp739
(dp740
g7
V019
p741
sg9
VRattata
p742
sg11
g582
sg13
VCave
p743
sg15
g27
sg17
g201
sg18
V35
p744
sbag1
(g2
g3
Ntp745
Rp746
(dp747
g7
V027
p748
sg9
VSandshrew
p749
sg11
g574
sg13
VCave
p750
sg15
g201
sg17
g201
sg18
V30
p751
sbag1
(g2
g3
Ntp752
Rp753
(dp754
g7
V041
p755
sg9
VZubat
p756
sg11
VHG,SS,
p757
sg13
VCave
p758
sg15
g66
sg17
g224
sg18
V25
p759
sbag1
(g2
g3
Ntp760
Rp761
(dp762
g7
V074
p763
sg9
VGeodude
p764
sg11
VHG,SS,
p765
sg13
VCave
p766
sg15
g201
sg17
g201
sg18
V30
p767
sbag1
(g2
g3
Ntp768
Rp769
(dp770
g7
V095
p771
sg9
VOnix
p772
sg11
VHG,SS,
p773
sg13
VCave
p774
sg15
g201
sg17
g201
sg18
V10
p775
sbag1
(g2
g3
Ntp776
Rp777
(dp778
g7
V194
p779
sg9
VWooper
p780
sg11
VHG,SS,
p781
sg13
VSurf
p782
sg15
V10
p783
sg17
V20
p784
sg18
V60
p785
sbag1
(g2
g3
Ntp786
Rp787
(dp788
g7
V195
p789
sg9
VQuagsire
p790
sg11
VHG,SS,
p791
sg13
VSurf
p792
sg15
V10
p793
sg17
V25
p794
sg18
V40
p795
sbag1
(g2
g3
Ntp796
Rp797
(dp798
g7
V118
p799
sg9
VGoldeen
p800
sg11
VHG,SS,
p801
sg13
VFish Old
p802
sg15
V10
p803
sg17
g803
sg18
V15
p804
sbag1
(g2
g3
Ntp805
Rp806
(dp807
g7
V129
p808
sg9
VMagikarp
p809
sg11
VHG,SS,
p810
sg13
VFish Old
p811
sg15
V10
p812
sg17
g812
sg18
V85
p813
sbag1
(g2
g3
Ntp814
Rp815
(dp816
g7
V118
p817
sg9
VGoldeen
p818
sg11
VHG,SS,
p819
sg13
VFish Good
p820
sg15
V20
p821
sg17
g821
sg18
V60
p822
sbag1
(g2
g3
Ntp823
Rp824
(dp825
g7
V129
p826
sg9
VMagikarp
p827
sg11
VHG,SS,
p828
sg13
VFish Good
p829
sg15
V20
p830
sg17
g830
sg18
V40
p831
sbag1
(g2
g3
Ntp832
Rp833
(dp834
g7
V118
p835
sg9
VGoldeen
p836
sg11
VHG,SS,
p837
sg13
VFish Super
p838
sg15
V40
p839
sg17
g839
sg18
V70
p840
sbag1
(g2
g3
Ntp841
Rp842
(dp843
g7
V119
p844
sg9
VSeaking
p845
sg11
VHG,SS,
p846
sg13
VFish Super
p847
sg15
V40
p848
sg17
g848
sg18
V10
p849
sbag1
(g2
g3
Ntp850
Rp851
(dp852
g7
V129
p853
sg9
VMagikarp
p854
sg11
VHG,SS,
p855
sg13
VFish Super
p856
sg15
V40
p857
sg17
g857
sg18
V20
p858
sbag1
(g2
g3
Ntp859
Rp860
(dp861
g7
V296
p862
sg9
VMakuhita
p863
sg11
VHG,SS,
p864
sg13
VHoenn
p865
sg15
g66
sg17
g66
sg18
V20
p866
sbag1
(g2
g3
Ntp867
Rp868
(dp869
g7
V359
p870
sg9
VAbsol
p871
sg11
VHG,SS,
p872
sg13
VHoenn
p873
sg15
g201
sg17
g201
sg18
V20
p874
sbag1
(g2
g3
Ntp875
Rp876
(dp877
g7
V433
p878
sg9
VChingling
p879
sg11
VHG,SS,
p880
sg13
VSinnoh
p881
sg15
g66
sg17
g66
sg18
V20
p882
sbag1
(g2
g3
Ntp883
Rp884
(dp885
g7
V436
p886
sg9
VBronzor
p887
sg11
VHG,SS,
p888
sg13
VSinnoh
p889
sg15
g201
sg17
g201
sg18
V20
p890
sbag1
(g2
g3
Ntp891
Rp892
(dp893
g7
V019
p894
sg9
VRattata
p895
sg11
VHG,SS,
p896
sg13
VCave
p897
sg15
V20
p898
sg17
g898
sg18
V5
p899
sbag1
(g2
g3
Ntp900
Rp901
(dp902
g7
V020
p903
sg9
VRaticate
p904
sg11
VHG,SS,
p905
sg13
VCave
p906
sg15
V22
p907
sg17
g907
sg18
V30
p908
sbag1
(g2
g3
Ntp909
Rp910
(dp911
g7
V041
p912
sg9
VZubat
p913
sg11
VHG,SS,
p914
sg13
VCave
p915
sg15
V22
p916
sg17
g916
sg18
V30
p917
sbag1
(g2
g3
Ntp918
Rp919
(dp920
g7
V042
p921
sg9
VGolbat
p922
sg11
VHG,SS,
p923
sg13
VCave
p924
sg15
V22
p925
sg17
g925
sg18
V20
p926
sbag1
(g2
g3
Ntp927
Rp928
(dp929
g7
V074
p930
sg9
VGeodude
p931
sg11
VHG,SS,
p932
sg13
VCave
p933
sg15
V21
p934
sg17
g934
sg18
V10
p935
sbag1
(g2
g3
Ntp936
Rp937
(dp938
g7
V095
p939
sg9
VOnix
p940
sg11
VHG,SS,
p941
sg13
VCave
p942
sg15
V23
p943
sg17
g943
sg18
V5
p944
sbag1
(g2
g3
Ntp945
Rp946
(dp947
g7
V072
p948
sg9
VTentacool
p949
sg11
VHG,SS,
p950
sg13
VSurf
p951
sg15
V10
p952
sg17
V20
p953
sg18
V60
p954
sbag1
(g2
g3
Ntp955
Rp956
(dp957
g7
V073
p958
sg9
VTentacruel
p959
sg11
VHG,SS,
p960
sg13
VSurf
p961
sg15
V15
p962
sg17
V25
p963
sg18
V10
p964
sbag1
(g2
g3
Ntp965
Rp966
(dp967
g7
V195
p968
sg9
VQuagsire
p969
sg11
VHG,SS,
p970
sg13
VSurf
p971
sg15
V15
p972
sg17
V25
p973
sg18
V30
p974
sbag1
(g2
g3
Ntp975
Rp976
(dp977
g7
V098
p978
sg9
VKrabby
p979
sg11
VHG,SS,
p980
sg13
VFish Old
p981
sg15
V10
p982
sg17
g982
sg18
V15
p983
sbag1
(g2
g3
Ntp984
Rp985
(dp986
g7
V129
p987
sg9
VMagikarp
p988
sg11
VHG,SS,
p989
sg13
VFish Old
p990
sg15
V10
p991
sg17
g991
sg18
V85
p992
sbag1
(g2
g3
Ntp993
Rp994
(dp995
g7
V098
p996
sg9
VKrabby
p997
sg11
VHG,SS,
p998
sg13
VFish Good
p999
sg15
V20
p1000
sg17
g1000
sg18
V50
p1001
sbag1
(g2
g3
Ntp1002
Rp1003
(dp1004
g7
V120
p1005
sg9
VStaryu
p1006
sg11
VHG,SS,
p1007
sg13
VFish Good
p1008
sg15
V20
p1009
sg17
g1009
sg18
V10
p1010
sbag1
(g2
g3
Ntp1011
Rp1012
(dp1013
g7
V129
p1014
sg9
VMagikarp
p1015
sg11
VHG,SS,
p1016
sg13
VFish Good
p1017
sg15
V20
p1018
sg17
g1018
sg18
V40
p1019
sbag1
(g2
g3
Ntp1020
Rp1021
(dp1022
g7
V222
p1023
sg9
VCorsola
p1024
sg11
VHG,SS,
p1025
sg13
VFish Good
p1026
sg15
V20
p1027
sg17
g1027
sg18
V10
p1028
sbag1
(g2
g3
Ntp1029
Rp1030
(dp1031
g7
V098
p1032
sg9
VKrabby
p1033
sg11
VHG,SS,
p1034
sg13
VFish Super
p1035
sg15
V40
p1036
sg17
g1036
sg18
V60
p1037
sbag1
(g2
g3
Ntp1038
Rp1039
(dp1040
g7
V099
p1041
sg9
VKingler
p1042
sg11
VHG,SS,
p1043
sg13
VFish Super
p1044
sg15
V40
p1045
sg17
g1045
sg18
V10
p1046
sbag1
(g2
g3
Ntp1047
Rp1048
(dp1049
g7
V120
p1050
sg9
VStaryu
p1051
sg11
VHG,SS,
p1052
sg13
VFish Super
p1053
sg15
V40
p1054
sg17
g1054
sg18
V30
p1055
sbag1
(g2
g3
Ntp1056
Rp1057
(dp1058
g7
V222
p1059
sg9
VCorsola
p1060
sg11
VHG,SS,
p1061
sg13
VFish Super
p1062
sg15
V40
p1063
sg17
g1063
sg18
V30
p1064
sbag1
(g2
g3
Ntp1065
Rp1066
(dp1067
g7
V131
p1068
sg9
VLapras
p1069
sg11
VHG,SS,
p1070
sg13
VSpecial
p1071
sg15
V20
p1072
sg17
g1072
sg18
V0
p1073
sbag1
(g2
g3
Ntp1074
Rp1075
(dp1076
g7
V296
p1077
sg9
VMakuhita
p1078
sg11
VHG,SS,
p1079
sg13
VHoenn
p1080
sg15
V22
p1081
sg17
g1081
sg18
V20
p1082
sbag1
(g2
g3
Ntp1083
Rp1084
(dp1085
g7
V359
p1086
sg9
VAbsol
p1087
sg11
VHG,SS,
p1088
sg13
VHoenn
p1089
sg15
V22
p1090
sg17
g1090
sg18
V20
p1091
sbag1
(g2
g3
Ntp1092
Rp1093
(dp1094
g7
V433
p1095
sg9
VChingling
p1096
sg11
VHG,SS,
p1097
sg13
VSinnoh
p1098
sg15
V22
p1099
sg17
g1099
sg18
V20
p1100
sbag1
(g2
g3
Ntp1101
Rp1102
(dp1103
g7
V436
p1104
sg9
VBronzor
p1105
sg11
VHG,SS,
p1106
sg13
VSinnoh
p1107
sg15
V22
p1108
sg17
g1108
sg18
V20
p1109
sba.