(lp0
ccopy_reg
_reconstructor
p1
(c__main__
WildPokemon
p2
c__builtin__
object
p3
Ntp4
Rp5
(dp6
VpDexNo
p7
V592
p8
sVpSpecies
p9
VFrillish
p10
sVpGames
p11
VB,W,
p12
sVpArea
p13
VSurf
p14
sVpMinLevel
p15
V5
p16
sVpMaxLevel
p17
V15
p18
sVpRate
p19
V100
p20
sbag1
(g2
g3
Ntp21
Rp22
(dp23
g7
V594
p24
sg9
VAlomomola
p25
sg11
VB,W,
p26
sg13
VRippling
p27
sg15
g16
sg17
V20
p28
sg19
V95
p29
sbag1
(g2
g3
Ntp30
Rp31
(dp32
g7
V593
p33
sg9
VJellicent
p34
sg11
VB,W,
p35
sg13
VRippling
p36
sg15
g16
sg17
V20
p37
sg19
V5
p38
sbag1
(g2
g3
Ntp39
Rp40
(dp41
g7
V456
p42
sg9
VFinneon
p43
sg11
VB,W,
p44
sg13
VFish Super
p45
sg15
V35
p46
sg17
V55
p47
sg19
V65
p48
sbag1
(g2
g3
Ntp49
Rp50
(dp51
g7
V116
p52
sg9
VHorsea
p53
sg11
VB,W,
p54
sg13
VFish Super
p55
sg15
V35
p56
sg17
V55
p57
sg19
V35
p58
sbag1
(g2
g3
Ntp59
Rp60
(dp61
g7
V117
p62
sg9
VSeadra
p63
sg11
VB,W,
p64
sg13
VRippling
p65
sg15
V35
p66
sg17
V60
p67
sg19
V60
p68
sbag1
(g2
g3
Ntp69
Rp70
(dp71
g7
V211
p72
sg9
VQwilfish
p73
sg11
VB,W,
p74
sg13
VRippling
p75
sg15
V35
p76
sg17
V60
p77
sg19
V30
p78
sbag1
(g2
g3
Ntp79
Rp80
(dp81
g7
V457
p82
sg9
VLumineon
p83
sg11
VB,W,
p84
sg13
VRippling
p85
sg15
V35
p86
sg17
V70
p87
sg19
V5
p88
sbag1
(g2
g3
Ntp89
Rp90
(dp91
g7
V230
p92
sg9
VKingdra
p93
sg11
VB,W,
p94
sg13
VRippling
p95
sg15
V45
p96
sg17
V70
p97
sg19
V5
p98
sbag1
(g2
g3
Ntp99
Rp100
(dp101
g7
V592
p102
sg9
VFrillish
p103
sg11
VB2,W2,
p104
sg13
VSurf
p105
sg15
V45
p106
sg17
V60
p107
sg19
V100
p108
sbag1
(g2
g3
Ntp109
Rp110
(dp111
g7
V594
p112
sg9
VAlomomola
p113
sg11
VB2,W2,
p114
sg13
VRippling
p115
sg15
V45
p116
sg17
V60
p117
sg19
V95
p118
sbag1
(g2
g3
Ntp119
Rp120
(dp121
g7
V593
p122
sg9
VJellicent
p123
sg11
VB2,W2,
p124
sg13
VRippling
p125
sg15
V50
p126
sg17
V60
p127
sg19
V5
p128
sbag1
(g2
g3
Ntp129
Rp130
(dp131
g7
V116
p132
sg9
VHorsea
p133
sg11
VB2,W2,
p134
sg13
VFish Super
p135
sg15
V50
p136
sg17
V60
p137
sg19
V30
p138
sbag1
(g2
g3
Ntp139
Rp140
(dp141
g7
V456
p142
sg9
VFinneon
p143
sg11
VB2,W2,
p144
sg13
VFish Super
p145
sg15
V50
p146
sg17
V70
p147
sg19
V70
p148
sbag1
(g2
g3
Ntp149
Rp150
(dp151
g7
V116
p152
sg9
VHorsea
p153
sg11
VB2,W2,
p154
sg13
VRippling
p155
sg15
V50
p156
sg17
V60
p157
sg19
V60
p158
sbag1
(g2
g3
Ntp159
Rp160
(dp161
g7
V117
p162
sg9
VSeadra
p163
sg11
VB2,W2,
p164
sg13
VRippling
p165
sg15
V60
p166
sg17
V70
p167
sg19
V5
p168
sbag1
(g2
g3
Ntp169
Rp170
(dp171
g7
V230
p172
sg9
VKingdra
p173
sg11
VB2,W2,
p174
sg13
VRippling
p175
sg15
V60
p176
sg17
V70
p177
sg19
V5
p178
sbag1
(g2
g3
Ntp179
Rp180
(dp181
g7
V457
p182
sg9
VLumineon
p183
sg11
VB2,W2,
p184
sg13
VRippling
p185
sg15
V50
p186
sg17
V60
p187
sg19
V30
p188
sba.