(lp0
ccopy_reg
_reconstructor
p1
(c__main__
WildPokemon
p2
c__builtin__
object
p3
Ntp4
Rp5
(dp6
VpDexNo
p7
V055
p8
sVpSpecies
p9
VGolduck
p10
sVpGames
p11
VB2,W2,
p12
sVpArea
p13
VGrass
p14
sVpMinLevel
p15
V40
p16
sVpMaxLevel
p17
g16
sVpRate
p18
V10
p19
sbag1
(g2
g3
Ntp20
Rp21
(dp22
g7
V183
p23
sg9
VMarill
p24
sg11
VB2,W2,
p25
sg13
VGrass
p26
sg15
V40
p27
sg17
V42
p28
sg18
V10
p29
sbag1
(g2
g3
Ntp30
Rp31
(dp32
g7
V225
p33
sg9
VDelibird
p34
sg11
VB2,W2,
p35
sg13
VGrass
p36
sg15
V39
p37
sg17
g37
sg18
V5
p38
sbag1
(g2
g3
Ntp39
Rp40
(dp41
g7
V279
p42
sg9
VPelipper
p43
sg11
VB2,W2,
p44
sg13
VGrass
p45
sg15
V40
p46
sg17
g46
sg18
V10
p47
sbag1
(g2
g3
Ntp48
Rp49
(dp50
g7
V337
p51
sg9
VLunatone
p52
sg11
VB2,W2,
p53
sg13
VGrass
p54
sg15
V41
p55
sg17
g55
sg18
V10
p56
sbag1
(g2
g3
Ntp57
Rp58
(dp59
g7
V338
p60
sg9
VSolrock
p61
sg11
VB2,W2,
p62
sg13
VGrass
p63
sg15
V41
p64
sg17
g64
sg18
V10
p65
sbag1
(g2
g3
Ntp66
Rp67
(dp68
g7
V591
p69
sg9
VAmoonguss
p70
sg11
VB2,W2,
p71
sg13
VGrass
p72
sg15
V39
p73
sg17
g73
sg18
V20
p74
sbag1
(g2
g3
Ntp75
Rp76
(dp77
g7
V619
p78
sg9
VMienfoo
p79
sg11
VB2,W2,
p80
sg13
VGrass
p81
sg15
V39
p82
sg17
V42
p83
sg18
V25
p84
sbag1
(g2
g3
Ntp85
Rp86
(dp87
g7
V055
p88
sg9
VGolduck
p89
sg11
VB2,W2,
p90
sg13
VDark
p91
sg15
V45
p92
sg17
g92
sg18
V10
p93
sbag1
(g2
g3
Ntp94
Rp95
(dp96
g7
V183
p97
sg9
VMarill
p98
sg11
VB2,W2,
p99
sg13
VDark
p100
sg15
V45
p101
sg17
V47
p102
sg18
V10
p103
sbag1
(g2
g3
Ntp104
Rp105
(dp106
g7
V225
p107
sg9
VDelibird
p108
sg11
VB2,W2,
p109
sg13
VDark
p110
sg15
V44
p111
sg17
g111
sg18
V5
p112
sbag1
(g2
g3
Ntp113
Rp114
(dp115
g7
V279
p116
sg9
VPelipper
p117
sg11
VB2,W2,
p118
sg13
VDark
p119
sg15
V45
p120
sg17
g120
sg18
V10
p121
sbag1
(g2
g3
Ntp122
Rp123
(dp124
g7
V337
p125
sg9
VLunatone
p126
sg11
VB2,W2,
p127
sg13
VDark
p128
sg15
V46
p129
sg17
g129
sg18
V10
p130
sbag1
(g2
g3
Ntp131
Rp132
(dp133
g7
V338
p134
sg9
VSolrock
p135
sg11
VB2,W2,
p136
sg13
VDark
p137
sg15
V46
p138
sg17
g138
sg18
V10
p139
sbag1
(g2
g3
Ntp140
Rp141
(dp142
g7
V591
p143
sg9
VAmoonguss
p144
sg11
VB2,W2,
p145
sg13
VDark
p146
sg15
V44
p147
sg17
g147
sg18
V20
p148
sbag1
(g2
g3
Ntp149
Rp150
(dp151
g7
V619
p152
sg9
VMienfoo
p153
sg11
VB2,W2,
p154
sg13
VDark
p155
sg15
V44
p156
sg17
V47
p157
sg18
V25
p158
sbag1
(g2
g3
Ntp159
Rp160
(dp161
g7
V184
p162
sg9
VAzumarill
p163
sg11
VB2,W2,
p164
sg13
VRustling
p165
sg15
V42
p166
sg17
g166
sg18
V5
p167
sbag1
(g2
g3
Ntp168
Rp169
(dp170
g7
V531
p171
sg9
VAudino
p172
sg11
VB2,W2,
p173
sg13
VRustling
p174
sg15
V39
p175
sg17
V42
p176
sg18
V85
p177
sbag1
(g2
g3
Ntp178
Rp179
(dp180
g7
V587
p181
sg9
VEmolga
p182
sg11
VB2,W2,
p183
sg13
VRustling
p184
sg15
V40
p185
sg17
g185
sg18
V10
p186
sbag1
(g2
g3
Ntp187
Rp188
(dp189
g7
V183
p190
sg9
VMarill
p191
sg11
VB2,W2,
p192
sg13
VSurf
p193
sg15
V15
p194
sg17
V40
p195
sg18
V30
p196
sbag1
(g2
g3
Ntp197
Rp198
(dp199
g7
V550
p200
sg9
VBasculin
p201
sg11
VB2,
p202
sg13
VSurf
p203
sg15
V15
p204
sg17
V40
p205
sg18
V70
p206
sbag1
(g2
g3
Ntp207
Rp208
(dp209
g7
V550
p210
sg9
VBasculin
p211
sg11
VW2,
p212
sg13
VSurf
p213
sg15
V15
p214
sg17
V40
p215
sg18
V70
p216
sbag1
(g2
g3
Ntp217
Rp218
(dp219
g7
V183
p220
sg9
VMarill
p221
sg11
VB2,W2,
p222
sg13
VRippling
p223
sg15
V15
p224
sg17
V40
p225
sg18
V60
p226
sbag1
(g2
g3
Ntp227
Rp228
(dp229
g7
V184
p230
sg9
VAzumarill
p231
sg11
VB2,W2,
p232
sg13
VRippling
p233
sg15
V25
p234
sg17
V45
p235
sg18
V5
p236
sbag1
(g2
g3
Ntp237
Rp238
(dp239
g7
V550
p240
sg9
VBasculin
p241
sg11
g202
sg13
VRippling
p242
sg15
V15
p243
sg17
V40
p244
sg18
V35
p245
sbag1
(g2
g3
Ntp246
Rp247
(dp248
g7
V550
p249
sg9
VBasculin
p250
sg11
g212
sg13
VRippling
p251
sg15
V15
p252
sg17
V40
p253
sg18
V35
p254
sbag1
(g2
g3
Ntp255
Rp256
(dp257
g7
V118
p258
sg9
VGoldeen
p259
sg11
VB2,W2,
p260
sg13
VFish Super
p261
sg15
V40
p262
sg17
V70
p263
sg18
V70
p264
sbag1
(g2
g3
Ntp265
Rp266
(dp267
g7
V550
p268
sg9
VBasculin
p269
sg11
g202
sg13
VFish Super
p270
sg15
V40
p271
sg17
V60
p272
sg18
V30
p273
sbag1
(g2
g3
Ntp274
Rp275
(dp276
g7
V550
p277
sg9
VBasculin
p278
sg11
g212
sg13
VFish Super
p279
sg15
V40
p280
sg17
V60
p281
sg18
V30
p282
sbag1
(g2
g3
Ntp283
Rp284
(dp285
g7
V118
p286
sg9
VGoldeen
p287
sg11
VB2,W2,
p288
sg13
VFish Super
p289
sg15
V40
p290
sg17
V60
p291
sg18
V60
p292
sbag1
(g2
g3
Ntp293
Rp294
(dp295
g7
V119
p296
sg9
VSeaking
p297
sg11
VB2,W2,
p298
sg13
VFish Super
p299
sg15
V50
p300
sg17
V70
p301
sg18
V10
p302
sbag1
(g2
g3
Ntp303
Rp304
(dp305
g7
V550
p306
sg9
VBasculin
p307
sg11
g202
sg13
VFish Super
p308
sg15
V40
p309
sg17
V60
p310
sg18
V30
p311
sbag1
(g2
g3
Ntp312
Rp313
(dp314
g7
V550
p315
sg9
VBasculin
p316
sg11
g212
sg13
VFish Super
p317
sg15
V40
p318
sg17
V60
p319
sg18
V30
p320
sbag1
(g2
g3
Ntp321
Rp322
(dp323
g7
V166
p324
sg9
VLedian
p325
sg11
g212
sg13
VGrass
p326
sg15
V40
p327
sg17
V55
p328
sg18
V40
p329
sbag1
(g2
g3
Ntp330
Rp331
(dp332
g7
V168
p333
sg9
VAriados
p334
sg11
g202
sg13
VGrass
p335
sg15
V40
p336
sg17
V55
p337
sg18
V40
p338
sbag1
(g2
g3
Ntp339
Rp340
(dp341
g7
V591
p342
sg9
VAmoonguss
p343
sg11
VB2,W2,
p344
sg13
VFake
p345
sg15
V47
p346
sg17
g346
sg18
V0
p347
sbag1
(g2
g3
Ntp348
Rp349
(dp350
g7
V639
p351
sg9
VTerrakion
p352
sg11
VB2,W2,
p353
sg13
VSpecial
p354
sg15
V{{tt|45|First encounter}} / {{tt|65|Second encounter. Only appears if defeated during first encounter
p355
sg17
Vand after the player has entered the Hall of Fame.}}
p356
sg18
V0
p357
sba.