(lp0
ccopy_reg
_reconstructor
p1
(c__main__
WildPokemon
p2
c__builtin__
object
p3
Ntp4
Rp5
(dp6
VpDexNo
p7
V022
p8
sVpSpecies
p9
VFearow
p10
sVpGames
p11
VB,W,
p12
sVpArea
p13
VGrass
p14
sVpMinLevel
p15
V48
p16
sVpMaxLevel
p17
V50
p18
sVpRate
p19
V30
p20
sbag1
(g2
g3
Ntp21
Rp22
(dp23
g7
V105
p24
sg9
VMarowak
p25
sg11
VB,W,
p26
sg13
VGrass
p27
sg15
V47
p28
sg17
g28
sg19
V20
p29
sbag1
(g2
g3
Ntp30
Rp31
(dp32
g7
V115
p33
sg9
VKangaskhan
p34
sg11
VB,W,
p35
sg13
VGrass
p36
sg15
V49
p37
sg17
g37
sg19
V10
p38
sbag1
(g2
g3
Ntp39
Rp40
(dp41
g7
V207
p42
sg9
VGligar
p43
sg11
VB,W,
p44
sg13
VGrass
p45
sg15
V47
p46
sg17
V49
p47
sg19
V15
p48
sbag1
(g2
g3
Ntp49
Rp50
(dp51
g7
V247
p52
sg9
VPupitar
p53
sg11
VB,W,
p54
sg13
VGrass
p55
sg15
V48
p56
sg17
V50
p57
sg19
V10
p58
sbag1
(g2
g3
Ntp59
Rp60
(dp61
g7
V538
p62
sg9
VThroh
p63
sg11
VW,
p64
sg13
VGrass
p65
sg15
V48
p66
sg17
V49
p67
sg19
V15
p68
sbag1
(g2
g3
Ntp69
Rp70
(dp71
g7
V539
p72
sg9
VSawk
p73
sg11
VB,
p74
sg13
VGrass
p75
sg15
V48
p76
sg17
V49
p77
sg19
V15
p78
sbag1
(g2
g3
Ntp79
Rp80
(dp81
g7
V022
p82
sg9
VFearow
p83
sg11
VB,W,
p84
sg13
VDark
p85
sg15
V58
p86
sg17
V60
p87
sg19
V30
p88
sbag1
(g2
g3
Ntp89
Rp90
(dp91
g7
V105
p92
sg9
VMarowak
p93
sg11
VB,W,
p94
sg13
VDark
p95
sg15
V57
p96
sg17
g96
sg19
V20
p97
sbag1
(g2
g3
Ntp98
Rp99
(dp100
g7
V115
p101
sg9
VKangaskhan
p102
sg11
VB,W,
p103
sg13
VDark
p104
sg15
V59
p105
sg17
g105
sg19
V10
p106
sbag1
(g2
g3
Ntp107
Rp108
(dp109
g7
V207
p110
sg9
VGligar
p111
sg11
VB,W,
p112
sg13
VDark
p113
sg15
V57
p114
sg17
V59
p115
sg19
V10
p116
sbag1
(g2
g3
Ntp117
Rp118
(dp119
g7
V247
p120
sg9
VPupitar
p121
sg11
VB,W,
p122
sg13
VDark
p123
sg15
V58
p124
sg17
V60
p125
sg19
V10
p126
sbag1
(g2
g3
Ntp127
Rp128
(dp129
g7
V505
p130
sg9
VWatchog
p131
sg11
VB,W,
p132
sg13
VDark
p133
sg15
V60
p134
sg17
g134
sg19
V5
p135
sbag1
(g2
g3
Ntp136
Rp137
(dp138
g7
V538
p139
sg9
VThroh
p140
sg11
g64
sg13
VDark
p141
sg15
V58
p142
sg17
V59
p143
sg19
V15
p144
sbag1
(g2
g3
Ntp145
Rp146
(dp147
g7
V539
p148
sg9
VSawk
p149
sg11
g74
sg13
VDark
p150
sg15
V58
p151
sg17
V59
p152
sg19
V15
p153
sbag1
(g2
g3
Ntp154
Rp155
(dp156
g7
V248
p157
sg9
VTyranitar
p158
sg11
VB,W,
p159
sg13
VRustling
p160
sg15
V50
p161
sg17
g161
sg19
V5
p162
sbag1
(g2
g3
Ntp163
Rp164
(dp165
g7
V472
p166
sg9
VGliscor
p167
sg11
VB,W,
p168
sg13
VRustling
p169
sg15
V50
p170
sg17
g170
sg19
V5
p171
sbag1
(g2
g3
Ntp172
Rp173
(dp174
g7
V531
p175
sg9
VAudino
p176
sg11
VB,W,
p177
sg13
VRustling
p178
sg15
V47
p179
sg17
V50
p180
sg19
V75
p181
sbag1
(g2
g3
Ntp182
Rp183
(dp184
g7
V538
p185
sg9
VThroh
p186
sg11
g74
sg13
VRustling
p187
sg15
V50
p188
sg17
g188
sg19
V5
p189
sbag1
(g2
g3
Ntp190
Rp191
(dp192
g7
V539
p193
sg9
VSawk
p194
sg11
g64
sg13
VRustling
p195
sg15
V50
p196
sg17
g196
sg19
V5
p197
sbag1
(g2
g3
Ntp198
Rp199
(dp200
g7
V587
p201
sg9
VEmolga
p202
sg11
VB,W,
p203
sg13
VRustling
p204
sg15
V48
p205
sg17
g205
sg19
V10
p206
sbag1
(g2
g3
Ntp207
Rp208
(dp209
g7
V056
p210
sg9
VMankey
p211
sg11
VB,W,
p212
sg13
VGrass
p213
sg15
V15
p214
sg17
V55
p215
sg19
V40
p216
sbag1
(g2
g3
Ntp217
Rp218
(dp219
g7
V479
p220
sg9
VRotom
p221
sg11
VB,W,
p222
sg13
VTrade
p223
sg15
V60
p224
sg17
g224
sg19
V0
p225
sbag1
(g2
g3
Ntp226
Rp227
(dp228
g7
V028
p229
sg9
VSandslash
p230
sg11
VB2,W2,
p231
sg13
VGrass
p232
sg15
V54
p233
sg17
V56
p234
sg19
V30
p235
sbag1
(g2
g3
Ntp236
Rp237
(dp238
g7
V207
p239
sg9
VGligar
p240
sg11
VB2,W2,
p241
sg13
VGrass
p242
sg15
V55
p243
sg17
V57
p244
sg19
V25
p245
sbag1
(g2
g3
Ntp246
Rp247
(dp248
g7
V247
p249
sg9
VPupitar
p250
sg11
VB2,W2,
p251
sg13
VGrass
p252
sg15
V55
p253
sg17
V57
p254
sg19
V15
p255
sbag1
(g2
g3
Ntp256
Rp257
(dp258
g7
V538
p259
sg9
VThroh
p260
sg11
VW2,
p261
sg13
VGrass
p262
sg15
V55
p263
sg17
V57
p264
sg19
V20
p265
sbag1
(g2
g3
Ntp266
Rp267
(dp268
g7
V539
p269
sg9
VSawk
p270
sg11
VB2,
p271
sg13
VGrass
p272
sg15
V55
p273
sg17
V57
p274
sg19
V20
p275
sbag1
(g2
g3
Ntp276
Rp277
(dp278
g7
V560
p279
sg9
VScrafty
p280
sg11
VB2,W2,
p281
sg13
VGrass
p282
sg15
V55
p283
sg17
g283
sg19
V10
p284
sbag1
(g2
g3
Ntp285
Rp286
(dp287
g7
V028
p288
sg9
VSandslash
p289
sg11
VB2,W2,
p290
sg13
VDark
p291
sg15
V62
p292
sg17
V64
p293
sg19
V30
p294
sbag1
(g2
g3
Ntp295
Rp296
(dp297
g7
V207
p298
sg9
VGligar
p299
sg11
VB2,W2,
p300
sg13
VDark
p301
sg15
V63
p302
sg17
V65
p303
sg19
V25
p304
sbag1
(g2
g3
Ntp305
Rp306
(dp307
g7
V247
p308
sg9
VPupitar
p309
sg11
VB2,W2,
p310
sg13
VDark
p311
sg15
V63
p312
sg17
V65
p313
sg19
V15
p314
sbag1
(g2
g3
Ntp315
Rp316
(dp317
g7
V538
p318
sg9
VThroh
p319
sg11
g261
sg13
VDark
p320
sg15
V63
p321
sg17
V65
p322
sg19
V20
p323
sbag1
(g2
g3
Ntp324
Rp325
(dp326
g7
V539
p327
sg9
VSawk
p328
sg11
g271
sg13
VDark
p329
sg15
V63
p330
sg17
V65
p331
sg19
V20
p332
sbag1
(g2
g3
Ntp333
Rp334
(dp335
g7
V560
p336
sg9
VScrafty
p337
sg11
VB2,W2,
p338
sg13
VDark
p339
sg15
V63
p340
sg17
g340
sg19
V10
p341
sbag1
(g2
g3
Ntp342
Rp343
(dp344
g7
V248
p345
sg9
VTyranitar
p346
sg11
VB2,W2,
p347
sg13
VRustling
p348
sg15
V57
p349
sg17
g349
sg19
V5
p350
sbag1
(g2
g3
Ntp351
Rp352
(dp353
g7
V472
p354
sg9
VGliscor
p355
sg11
VB2,W2,
p356
sg13
VRustling
p357
sg15
V57
p358
sg17
g358
sg19
V5
p359
sbag1
(g2
g3
Ntp360
Rp361
(dp362
g7
V531
p363
sg9
VAudino
p364
sg11
VB2,W2,
p365
sg13
VRustling
p366
sg15
V54
p367
sg17
V57
p368
sg19
V75
p369
sbag1
(g2
g3
Ntp370
Rp371
(dp372
g7
V538
p373
sg9
VThroh
p374
sg11
g271
sg13
VRustling
p375
sg15
V57
p376
sg17
g376
sg19
V5
p377
sbag1
(g2
g3
Ntp378
Rp379
(dp380
g7
V539
p381
sg9
VSawk
p382
sg11
g261
sg13
VRustling
p383
sg15
V57
p384
sg17
g384
sg19
V5
p385
sbag1
(g2
g3
Ntp386
Rp387
(dp388
g7
V587
p389
sg9
VEmolga
p390
sg11
VB2,W2,
p391
sg13
VRustling
p392
sg15
V55
p393
sg17
g393
sg19
V10
p394
sbag1
(g2
g3
Ntp395
Rp396
(dp397
g7
V022
p398
sg9
VFearow
p399
sg11
VB2,W2,
p400
sg13
VGrass
p401
sg15
V40
p402
sg17
V55
p403
sg19
V40
p404
sbag1
(g2
g3
Ntp405
Rp406
(dp407
g7
V479
p408
sg9
VRotom
p409
sg11
VB2,W2,
p410
sg13
VTrade
p411
sg15
V60
p412
sg17
g412
sg19
V0
p413
sba.