(lp0
ccopy_reg
_reconstructor
p1
(c__main__
WildPokemon
p2
c__builtin__
object
p3
Ntp4
Rp5
(dp6
VpDexNo
p7
V510
p8
sVpSpecies
p9
VLiepard
p10
sVpGames
p11
VB,W,
p12
sVpArea
p13
VGrass
p14
sVpMinLevel
p15
V20
p16
sVpMaxLevel
p17
V22
p18
sVpRate
p19
V20
p20
sbag1
(g2
g3
Ntp21
Rp22
(dp23
g7
V568
p24
sg9
VTrubbish
p25
sg11
VB,W,
p26
sg13
VGrass
p27
sg15
V19
p28
sg17
V21
p29
sg19
V20
p30
sbag1
(g2
g3
Ntp31
Rp32
(dp33
g7
V572
p34
sg9
VMinccino
p35
sg11
VB,W,
p36
sg13
VGrass
p37
sg15
V19
p38
sg17
V22
p39
sg19
V30
p40
sbag1
(g2
g3
Ntp41
Rp42
(dp43
g7
V574
p44
sg9
VGothita
p45
sg11
VB,
p46
sg13
VGrass
p47
sg15
V19
p48
sg17
V22
p49
sg19
V30
p50
sbag1
(g2
g3
Ntp51
Rp52
(dp53
g7
V577
p54
sg9
VSolosis
p55
sg11
VW,
p56
sg13
VGrass
p57
sg15
V19
p58
sg17
V22
p59
sg19
V30
p60
sbag1
(g2
g3
Ntp61
Rp62
(dp63
g7
V510
p64
sg9
VLiepard
p65
sg11
VB,W,
p66
sg13
VDark
p67
sg15
V23
p68
sg17
V25
p69
sg19
V20
p70
sbag1
(g2
g3
Ntp71
Rp72
(dp73
g7
V568
p74
sg9
VTrubbish
p75
sg11
VB,W,
p76
sg13
VDark
p77
sg15
V22
p78
sg17
V24
p79
sg19
V20
p80
sbag1
(g2
g3
Ntp81
Rp82
(dp83
g7
V572
p84
sg9
VMinccino
p85
sg11
VB,W,
p86
sg13
VDark
p87
sg15
V22
p88
sg17
V25
p89
sg19
V30
p90
sbag1
(g2
g3
Ntp91
Rp92
(dp93
g7
V574
p94
sg9
VGothita
p95
sg11
g46
sg13
VDark
p96
sg15
V22
p97
sg17
V25
p98
sg19
V30
p99
sbag1
(g2
g3
Ntp100
Rp101
(dp102
g7
V577
p103
sg9
VSolosis
p104
sg11
g56
sg13
VDark
p105
sg15
V22
p106
sg17
V25
p107
sg19
V30
p108
sbag1
(g2
g3
Ntp109
Rp110
(dp111
g7
V531
p112
sg9
VAudino
p113
sg11
VB,W,
p114
sg13
VRustling
p115
sg15
V19
p116
sg17
V22
p117
sg19
V85
p118
sbag1
(g2
g3
Ntp119
Rp120
(dp121
g7
V573
p122
sg9
VCinccino
p123
sg11
VB,W,
p124
sg13
VRustling
p125
sg15
V22
p126
sg17
g126
sg19
V5
p127
sbag1
(g2
g3
Ntp128
Rp129
(dp130
g7
V587
p131
sg9
VEmolga
p132
sg11
VB,W,
p133
sg13
VRustling
p134
sg15
V20
p135
sg17
g135
sg19
V10
p136
sbag1
(g2
g3
Ntp137
Rp138
(dp139
g7
V235
p140
sg9
VSmeargle
p141
sg11
VB,W,
p142
sg13
VGrass
p143
sg15
V15
p144
sg17
V55
p145
sg19
V40
p146
sbag1
(g2
g3
Ntp147
Rp148
(dp149
g7
V510
p150
sg9
VLiepard
p151
sg11
VB2,W2,
p152
sg13
VGrass
p153
sg15
V22
p154
sg17
V24
p155
sg19
V20
p156
sbag1
(g2
g3
Ntp157
Rp158
(dp159
g7
V568
p160
sg9
VTrubbish
p161
sg11
VB2,
p162
sg13
VGrass
p163
sg15
V21
p164
sg17
V23
p165
sg19
V20
p166
sbag1
(g2
g3
Ntp167
Rp168
(dp169
g7
V568
p170
sg9
VTrubbish
p171
sg11
VW2,
p172
sg13
VGrass
p173
sg15
V21
p174
sg17
V24
p175
sg19
V20
p176
sbag1
(g2
g3
Ntp177
Rp178
(dp179
g7
V572
p180
sg9
VMinccino
p181
sg11
g162
sg13
VGrass
p182
sg15
V21
p183
sg17
V24
p184
sg19
V30
p185
sbag1
(g2
g3
Ntp186
Rp187
(dp188
g7
V572
p189
sg9
VMinccino
p190
sg11
g172
sg13
VGrass
p191
sg15
V21
p192
sg17
V23
p193
sg19
V30
p194
sbag1
(g2
g3
Ntp195
Rp196
(dp197
g7
V574
p198
sg9
VGothita
p199
sg11
g162
sg13
VGrass
p200
sg15
V21
p201
sg17
V24
p202
sg19
V30
p203
sbag1
(g2
g3
Ntp204
Rp205
(dp206
g7
V577
p207
sg9
VSolosis
p208
sg11
g172
sg13
VGrass
p209
sg15
V21
p210
sg17
V24
p211
sg19
V30
p212
sbag1
(g2
g3
Ntp213
Rp214
(dp215
g7
V510
p216
sg9
VLiepard
p217
sg11
VB2,W2,
p218
sg13
VDark
p219
sg15
V24
p220
sg17
V26
p221
sg19
V20
p222
sbag1
(g2
g3
Ntp223
Rp224
(dp225
g7
V568
p226
sg9
VTrubbish
p227
sg11
g162
sg13
VDark
p228
sg15
V23
p229
sg17
V25
p230
sg19
V20
p231
sbag1
(g2
g3
Ntp232
Rp233
(dp234
g7
V568
p235
sg9
VTrubbish
p236
sg11
g172
sg13
VDark
p237
sg15
V23
p238
sg17
V26
p239
sg19
V20
p240
sbag1
(g2
g3
Ntp241
Rp242
(dp243
g7
V572
p244
sg9
VMinccino
p245
sg11
g162
sg13
VDark
p246
sg15
V23
p247
sg17
V26
p248
sg19
V30
p249
sbag1
(g2
g3
Ntp250
Rp251
(dp252
g7
V572
p253
sg9
VMinccino
p254
sg11
g172
sg13
VDark
p255
sg15
V23
p256
sg17
V25
p257
sg19
V30
p258
sbag1
(g2
g3
Ntp259
Rp260
(dp261
g7
V574
p262
sg9
VGothita
p263
sg11
g162
sg13
VDark
p264
sg15
V23
p265
sg17
V26
p266
sg19
V30
p267
sbag1
(g2
g3
Ntp268
Rp269
(dp270
g7
V577
p271
sg9
VSolosis
p272
sg11
g172
sg13
VDark
p273
sg15
V23
p274
sg17
V26
p275
sg19
V30
p276
sbag1
(g2
g3
Ntp277
Rp278
(dp279
g7
V531
p280
sg9
VAudino
p281
sg11
VB2,W2,
p282
sg13
VRustling
p283
sg15
V21
p284
sg17
V24
p285
sg19
V85
p286
sbag1
(g2
g3
Ntp287
Rp288
(dp289
g7
V573
p290
sg9
VCinccino
p291
sg11
VB2,W2,
p292
sg13
VRustling
p293
sg15
V24
p294
sg17
g294
sg19
V5
p295
sbag1
(g2
g3
Ntp296
Rp297
(dp298
g7
V587
p299
sg9
VEmolga
p300
sg11
VB2,W2,
p301
sg13
VRustling
p302
sg15
V22
p303
sg17
g303
sg19
V10
p304
sbag1
(g2
g3
Ntp305
Rp306
(dp307
g7
V177
p308
sg9
VNatu
p309
sg11
VB2,W2,
p310
sg13
VGrass
p311
sg15
V40
p312
sg17
V55
p313
sg19
V40
p314
sbag1
(g2
g3
Ntp315
Rp316
(dp317
g7
V510
p318
sg9
VLiepard
p319
sg11
VB2,W2,
p320
sg13
VGrotto
p321
sg15
V20
p322
sg17
V25
p323
sg19
V0
p324
sbag1
(g2
g3
Ntp325
Rp326
(dp327
g7
V572
p328
sg9
VMinccino
p329
sg11
VB2,W2,
p330
sg13
VGrotto
p331
sg15
V20
p332
sg17
V25
p333
sg19
V0
p334
sbag1
(g2
g3
Ntp335
Rp336
(dp337
g7
V590
p338
sg9
VFoongus
p339
sg11
VB2,W2,
p340
sg13
VGrotto
p341
sg15
V20
p342
sg17
V25
p343
sg19
V0
p344
sba.