(lp0
ccopy_reg
_reconstructor
p1
(c__main__
WildPokemon
p2
c__builtin__
object
p3
Ntp4
Rp5
(dp6
VpDexNo
p7
V536
p8
sVpSpecies
p9
VPalpitoad
p10
sVpGames
p11
VB,W,
p12
sVpArea
p13
VPuddle
p14
sVpMinLevel
p15
V30
p16
sVpMaxLevel
p17
V33
p18
sVpRate
p19
V40
p20
sbag1
(g2
g3
Ntp21
Rp22
(dp23
g7
V616
p24
sg9
VShelmet
p25
sg11
VB,W,
p26
sg13
VPuddle
p27
sg15
V30
p28
sg17
V33
p29
sg19
V40
p30
sbag1
(g2
g3
Ntp31
Rp32
(dp33
g7
V618
p34
sg9
VStunfisk
p35
sg11
VB,W,
p36
sg13
VPuddle
p37
sg15
V31
p38
sg17
V32
p39
sg19
V20
p40
sbag1
(g2
g3
Ntp41
Rp42
(dp43
g7
V618
p44
sg9
VStunfisk
p45
sg11
VB,W,
p46
sg13
VSurf
p47
sg15
V15
p48
sg17
V35
p49
sg19
V100
p50
sbag1
(g2
g3
Ntp51
Rp52
(dp53
g7
V537
p54
sg9
VSeismitoad
p55
sg11
VB,W,
p56
sg13
VRippling
p57
sg15
V15
p58
sg17
V40
p59
sg19
V5
p60
sbag1
(g2
g3
Ntp61
Rp62
(dp63
g7
V618
p64
sg9
VStunfisk
p65
sg11
VB,W,
p66
sg13
VRippling
p67
sg15
V15
p68
sg17
V40
p69
sg19
V95
p70
sbag1
(g2
g3
Ntp71
Rp72
(dp73
g7
V339
p74
sg9
VBarboach
p75
sg11
VB,W,
p76
sg13
VFish Super
p77
sg15
V35
p78
sg17
V55
p79
sg19
V70
p80
sbag1
(g2
g3
Ntp81
Rp82
(dp83
g7
V618
p84
sg9
VStunfisk
p85
sg11
VB,W,
p86
sg13
VFish Super
p87
sg15
V35
p88
sg17
V55
p89
sg19
V30
p90
sbag1
(g2
g3
Ntp91
Rp92
(dp93
g7
V339
p94
sg9
VBarboach
p95
sg11
VB,W,
p96
sg13
VRippling
p97
sg15
V35
p98
sg17
V60
p99
sg19
V60
p100
sbag1
(g2
g3
Ntp101
Rp102
(dp103
g7
V340
p104
sg9
VWhiscash
p105
sg11
VB,W,
p106
sg13
VRippling
p107
sg15
V35
p108
sg17
V70
p109
sg19
V10
p110
sbag1
(g2
g3
Ntp111
Rp112
(dp113
g7
V618
p114
sg9
VStunfisk
p115
sg11
VB,W,
p116
sg13
VRippling
p117
sg15
V35
p118
sg17
V60
p119
sg19
V30
p120
sbag1
(g2
g3
Ntp121
Rp122
(dp123
g7
V453
p124
sg9
VCroagunk
p125
sg11
VB,W,
p126
sg13
VPuddle
p127
sg15
V15
p128
sg17
V55
p129
sg19
V40
p130
sbag1
(g2
g3
Ntp131
Rp132
(dp133
g7
V453
p134
sg9
VCroagunk
p135
sg11
VB2,W2,
p136
sg13
VPuddle
p137
sg15
V55
p138
sg17
V56
p139
sg19
V15
p140
sbag1
(g2
g3
Ntp141
Rp142
(dp143
g7
V536
p144
sg9
VPalpitoad
p145
sg11
VB2,W2,
p146
sg13
VPuddle
p147
sg15
V54
p148
sg17
V57
p149
sg19
V40
p150
sbag1
(g2
g3
Ntp151
Rp152
(dp153
g7
V588
p154
sg9
VKarrablast
p155
sg11
VB2,W2,
p156
sg13
VPuddle
p157
sg15
V57
p158
sg17
g158
sg19
V5
p159
sbag1
(g2
g3
Ntp160
Rp161
(dp162
g7
V616
p163
sg9
VShelmet
p164
sg11
VB2,W2,
p165
sg13
VPuddle
p166
sg15
V54
p167
sg17
g167
sg19
V20
p168
sbag1
(g2
g3
Ntp169
Rp170
(dp171
g7
V618
p172
sg9
VStunfisk
p173
sg11
VB2,W2,
p174
sg13
VPuddle
p175
sg15
V55
p176
sg17
V56
p177
sg19
V20
p178
sbag1
(g2
g3
Ntp179
Rp180
(dp181
g7
V536
p182
sg9
VPalpitoad
p183
sg11
VB2,W2,
p184
sg13
VSurf
p185
sg15
V45
p186
sg17
V60
p187
sg19
V30
p188
sbag1
(g2
g3
Ntp189
Rp190
(dp191
g7
V618
p192
sg9
VStunfisk
p193
sg11
VB2,W2,
p194
sg13
VSurf
p195
sg15
V45
p196
sg17
V60
p197
sg19
V70
p198
sbag1
(g2
g3
Ntp199
Rp200
(dp201
g7
V536
p202
sg9
VPalpitoad
p203
sg11
VB2,W2,
p204
sg13
VRippling
p205
sg15
V45
p206
sg17
V60
p207
sg19
V30
p208
sbag1
(g2
g3
Ntp209
Rp210
(dp211
g7
V537
p212
sg9
VSeismitoad
p213
sg11
VB2,W2,
p214
sg13
VRippling
p215
sg15
V60
p216
sg17
g216
sg19
V5
p217
sbag1
(g2
g3
Ntp218
Rp219
(dp220
g7
V618
p221
sg9
VStunfisk
p222
sg11
VB2,W2,
p223
sg13
VRippling
p224
sg15
V45
p225
sg17
V60
p226
sg19
V65
p227
sbag1
(g2
g3
Ntp228
Rp229
(dp230
g7
V339
p231
sg9
VBarboach
p232
sg11
VB2,W2,
p233
sg13
VFish Super
p234
sg15
V45
p235
sg17
V60
p236
sg19
V70
p237
sbag1
(g2
g3
Ntp238
Rp239
(dp240
g7
V618
p241
sg9
VStunfisk
p242
sg11
VB2,W2,
p243
sg13
VFish Super
p244
sg15
V45
p245
sg17
V60
p246
sg19
V30
p247
sbag1
(g2
g3
Ntp248
Rp249
(dp250
g7
V339
p251
sg9
VBarboach
p252
sg11
VB2,W2,
p253
sg13
VRippling
p254
sg15
V45
p255
sg17
V60
p256
sg19
V60
p257
sbag1
(g2
g3
Ntp258
Rp259
(dp260
g7
V340
p261
sg9
VWhiscash
p262
sg11
VB2,W2,
p263
sg13
VRippling
p264
sg15
V60
p265
sg17
g265
sg19
V10
p266
sbag1
(g2
g3
Ntp267
Rp268
(dp269
g7
V618
p270
sg9
VStunfisk
p271
sg11
VB2,W2,
p272
sg13
VRippling
p273
sg15
V45
p274
sg17
V60
p275
sg19
V30
p276
sbag1
(g2
g3
Ntp277
Rp278
(dp279
g7
V195
p280
sg9
VQuagsire
p281
sg11
VB2,W2,
p282
sg13
VPuddle
p283
sg15
V40
p284
sg17
V55
p285
sg19
V40
p286
sba.