(lp0
ccopy_reg
_reconstructor
p1
(c__main__
WildPokemon
p2
c__builtin__
object
p3
Ntp4
Rp5
(dp6
VpDexNo
p7
V504
p8
sVpSpecies
p9
VPatrat
p10
sVpGames
p11
VB,W,
p12
sVpArea
p13
VGrass
p14
sVpMinLevel
p15
V2
p16
sVpMaxLevel
p17
V4
p18
sVpRate
p19
V50
p20
sbag1
(g2
g3
Ntp21
Rp22
(dp23
g7
V506
p24
sg9
VLillipup
p25
sg11
VB,W,
p26
sg13
VGrass
p27
sg15
g16
sg17
g18
sg19
V50
p28
sbag1
(g2
g3
Ntp29
Rp30
(dp31
g7
V505
p32
sg9
VWatchog
p33
sg11
VB,W,
p34
sg13
VDark
p35
sg15
V32
p36
sg17
V35
p37
sg19
V36
p38
sbag1
(g2
g3
Ntp39
Rp40
(dp41
g7
V507
p42
sg9
VHerdier
p43
sg11
VB,W,
p44
sg13
VDark
p45
sg15
V32
p46
sg17
V34
p47
sg19
V39
p48
sbag1
(g2
g3
Ntp49
Rp50
(dp51
g7
V559
p52
sg9
VScraggy
p53
sg11
VB,W,
p54
sg13
VDark
p55
sg15
V32
p56
sg17
V35
p57
sg19
V25
p58
sbag1
(g2
g3
Ntp59
Rp60
(dp61
g7
V531
p62
sg9
VAudino
p63
sg11
VB,W,
p64
sg13
VRustling
p65
sg15
g16
sg17
g18
sg19
V100
p66
sbag1
(g2
g3
Ntp67
Rp68
(dp69
g7
V550
p70
sg9
VBasculin
p71
sg11
VB,
p72
sg13
VSurf
p73
sg15
V5
p74
sg17
V15
p75
sg19
V100
p76
sbag1
(g2
g3
Ntp77
Rp78
(dp79
g7
V550
p80
sg9
VBasculin
p81
sg11
VW,
p82
sg13
VSurf
p83
sg15
g74
sg17
V15
p84
sg19
V100
p85
sbag1
(g2
g3
Ntp86
Rp87
(dp88
g7
V550
p89
sg9
VBasculin
p90
sg11
g82
sg13
VRippling
p91
sg15
g74
sg17
V20
p92
sg19
V100
p93
sbag1
(g2
g3
Ntp94
Rp95
(dp96
g7
V550
p97
sg9
VBasculin
p98
sg11
g72
sg13
VRippling
p99
sg15
g74
sg17
V20
p100
sg19
V100
p101
sbag1
(g2
g3
Ntp102
Rp103
(dp104
g7
V349
p105
sg9
VFeebas
p106
sg11
VB,W,
p107
sg13
VFish Super
p108
sg15
V35
p109
sg17
V55
p110
sg19
V5
p111
sbag1
(g2
g3
Ntp112
Rp113
(dp114
g7
V550
p115
sg9
VBasculin
p116
sg11
g72
sg13
VFish Super
p117
sg15
V35
p118
sg17
V55
p119
sg19
V95
p120
sbag1
(g2
g3
Ntp121
Rp122
(dp123
g7
V550
p124
sg9
VBasculin
p125
sg11
g82
sg13
VFish Super
p126
sg15
V35
p127
sg17
V55
p128
sg19
V95
p129
sbag1
(g2
g3
Ntp130
Rp131
(dp132
g7
V349
p133
sg9
VFeebas
p134
sg11
VB,W,
p135
sg13
VRippling
p136
sg15
V35
p137
sg17
V60
p138
sg19
V60
p139
sbag1
(g2
g3
Ntp140
Rp141
(dp142
g7
V350
p143
sg9
VMilotic
p144
sg11
VB,W,
p145
sg13
VRippling
p146
sg15
V45
p147
sg17
V70
p148
sg19
V5
p149
sbag1
(g2
g3
Ntp150
Rp151
(dp152
g7
V550
p153
sg9
VBasculin
p154
sg11
g82
sg13
VRippling
p155
sg15
V35
p156
sg17
V70
p157
sg19
V35
p158
sbag1
(g2
g3
Ntp159
Rp160
(dp161
g7
V550
p162
sg9
VBasculin
p163
sg11
g72
sg13
VRippling
p164
sg15
V35
p165
sg17
V70
p166
sg19
V35
p167
sbag1
(g2
g3
Ntp168
Rp169
(dp170
g7
V083
p171
sg9
VFarfetch'd
p172
sg11
VB,W,
p173
sg13
VGrass
p174
sg15
V15
p175
sg17
V55
p176
sg19
V40
p177
sbag1
(g2
g3
Ntp178
Rp179
(dp180
g7
V039
p181
sg9
VJigglypuff
p182
sg11
VB2,W2,
p183
sg13
VGrass
p184
sg15
V57
p185
sg17
g185
sg19
V10
p186
sbag1
(g2
g3
Ntp187
Rp188
(dp189
g7
V505
p190
sg9
VWatchog
p191
sg11
VB2,W2,
p192
sg13
VGrass
p193
sg15
V56
p194
sg17
V59
p195
sg19
V40
p196
sbag1
(g2
g3
Ntp197
Rp198
(dp199
g7
V507
p200
sg9
VHerdier
p201
sg11
VB2,W2,
p202
sg13
VGrass
p203
sg15
V56
p204
sg17
V59
p205
sg19
V50
p206
sbag1
(g2
g3
Ntp207
Rp208
(dp209
g7
V039
p210
sg9
VJigglypuff
p211
sg11
VB2,W2,
p212
sg13
VDark
p213
sg15
V65
p214
sg17
g214
sg19
V10
p215
sbag1
(g2
g3
Ntp216
Rp217
(dp218
g7
V505
p219
sg9
VWatchog
p220
sg11
VB2,W2,
p221
sg13
VDark
p222
sg15
V64
p223
sg17
V67
p224
sg19
V40
p225
sbag1
(g2
g3
Ntp226
Rp227
(dp228
g7
V507
p229
sg9
VHerdier
p230
sg11
VB2,W2,
p231
sg13
VDark
p232
sg15
V64
p233
sg17
V67
p234
sg19
V39
p235
sbag1
(g2
g3
Ntp236
Rp237
(dp238
g7
V560
p239
sg9
VScrafty
p240
sg11
VB2,W2,
p241
sg13
VDark
p242
sg15
V66
p243
sg17
V67
p244
sg19
V11
p245
sbag1
(g2
g3
Ntp246
Rp247
(dp248
g7
V040
p249
sg9
VWigglytuff
p250
sg11
VB2,W2,
p251
sg13
VRustling
p252
sg15
V59
p253
sg17
g253
sg19
V5
p254
sbag1
(g2
g3
Ntp255
Rp256
(dp257
g7
V206
p258
sg9
VDunsparce
p259
sg11
VB2,W2,
p260
sg13
VRustling
p261
sg15
V57
p262
sg17
g262
sg19
V10
p263
sbag1
(g2
g3
Ntp264
Rp265
(dp266
g7
V508
p267
sg9
VStoutland
p268
sg11
VB2,W2,
p269
sg13
VRustling
p270
sg15
V59
p271
sg17
g271
sg19
V5
p272
sbag1
(g2
g3
Ntp273
Rp274
(dp275
g7
V531
p276
sg9
VAudino
p277
sg11
VB2,W2,
p278
sg13
VRustling
p279
sg15
V56
p280
sg17
V59
p281
sg19
V80
p282
sbag1
(g2
g3
Ntp283
Rp284
(dp285
g7
V550
p286
sg9
VBasculin
p287
sg11
VB2,
p288
sg13
VSurf
p289
sg15
V45
p290
sg17
V60
p291
sg19
V100
p292
sbag1
(g2
g3
Ntp293
Rp294
(dp295
g7
V550
p296
sg9
VBasculin
p297
sg11
VW2,
p298
sg13
VSurf
p299
sg15
V45
p300
sg17
V60
p301
sg19
V100
p302
sbag1
(g2
g3
Ntp303
Rp304
(dp305
g7
V550
p306
sg9
VBasculin
p307
sg11
g298
sg13
VRippling
p308
sg15
V45
p309
sg17
V60
p310
sg19
V100
p311
sbag1
(g2
g3
Ntp312
Rp313
(dp314
g7
V550
p315
sg9
VBasculin
p316
sg11
g288
sg13
VRippling
p317
sg15
V45
p318
sg17
V60
p319
sg19
V100
p320
sbag1
(g2
g3
Ntp321
Rp322
(dp323
g7
V550
p324
sg9
VBasculin
p325
sg11
g288
sg13
VFish Super
p326
sg15
V40
p327
sg17
V70
p328
sg19
V95
p329
sbag1
(g2
g3
Ntp330
Rp331
(dp332
g7
V550
p333
sg9
VBasculin
p334
sg11
g298
sg13
VFish Super
p335
sg15
V40
p336
sg17
V70
p337
sg19
V95
p338
sbag1
(g2
g3
Ntp339
Rp340
(dp341
g7
V349
p342
sg9
VFeebas
p343
sg11
VB2,W2,
p344
sg13
VFish Super
p345
sg15
V50
p346
sg17
V70
p347
sg19
V5
p348
sbag1
(g2
g3
Ntp349
Rp350
(dp351
g7
V550
p352
sg9
VBasculin
p353
sg11
g298
sg13
VRippling
p354
sg15
V40
p355
sg17
V60
p356
sg19
V30
p357
sbag1
(g2
g3
Ntp358
Rp359
(dp360
g7
V550
p361
sg9
VBasculin
p362
sg11
g288
sg13
VRippling
p363
sg15
V40
p364
sg17
V60
p365
sg19
V30
p366
sbag1
(g2
g3
Ntp367
Rp368
(dp369
g7
V349
p370
sg9
VFeebas
p371
sg11
VB2,W2,
p372
sg13
VRippling
p373
sg15
V40
p374
sg17
V70
p375
sg19
V65
p376
sbag1
(g2
g3
Ntp377
Rp378
(dp379
g7
V350
p380
sg9
VMilotic
p381
sg11
VB2,W2,
p382
sg13
VRippling
p383
sg15
V50
p384
sg17
V70
p385
sg19
V5
p386
sbag1
(g2
g3
Ntp387
Rp388
(dp389
g7
V083
p390
sg9
VFarfetch'd
p391
sg11
VB2,W2,
p392
sg13
VGrass
p393
sg15
V40
p394
sg17
V55
p395
sg19
V40
p396
sba.