(lp0
ccopy_reg
_reconstructor
p1
(c__main__
WildPokemon
p2
c__builtin__
object
p3
Ntp4
Rp5
(dp6
VpDexNo
p7
V504
p8
sVpSpecies
p9
VPatrat
p10
sVpGames
p11
VB,W,
p12
sVpArea
p13
VGrass
p14
sVpMinLevel
p15
V8
p16
sVpMaxLevel
p17
g16
sVpRate
p18
V20
p19
sbag1
(g2
g3
Ntp20
Rp21
(dp22
g7
V506
p23
sg9
VLillipup
p24
sg11
VB,W,
p25
sg13
VGrass
p26
sg15
V9
p27
sg17
g27
sg18
V10
p28
sbag1
(g2
g3
Ntp29
Rp30
(dp31
g7
V509
p32
sg9
VPurrloin
p33
sg11
VB,W,
p34
sg13
VGrass
p35
sg15
g27
sg17
g27
sg18
V10
p36
sbag1
(g2
g3
Ntp37
Rp38
(dp39
g7
V519
p40
sg9
VPidove
p41
sg11
VB,W,
p42
sg13
VGrass
p43
sg15
g16
sg17
V11
p44
sg18
V40
p45
sbag1
(g2
g3
Ntp46
Rp47
(dp48
g7
V522
p49
sg9
VBlitzle
p50
sg11
VB,W,
p51
sg13
VGrass
p52
sg15
g16
sg17
V11
p53
sg18
V20
p54
sbag1
(g2
g3
Ntp55
Rp56
(dp57
g7
V504
p58
sg9
VPatrat
p59
sg11
VB,W,
p60
sg13
VDark
p61
sg15
V10
p62
sg17
g62
sg18
V20
p63
sbag1
(g2
g3
Ntp64
Rp65
(dp66
g7
V506
p67
sg9
VLillipup
p68
sg11
VB,W,
p69
sg13
VDark
p70
sg15
V11
p71
sg17
g71
sg18
V10
p72
sbag1
(g2
g3
Ntp73
Rp74
(dp75
g7
V509
p76
sg9
VPurrloin
p77
sg11
VB,W,
p78
sg13
VDark
p79
sg15
V11
p80
sg17
g80
sg18
V10
p81
sbag1
(g2
g3
Ntp82
Rp83
(dp84
g7
V519
p85
sg9
VPidove
p86
sg11
VB,W,
p87
sg13
VDark
p88
sg15
V10
p89
sg17
V13
p90
sg18
V40
p91
sbag1
(g2
g3
Ntp92
Rp93
(dp94
g7
V522
p95
sg9
VBlitzle
p96
sg11
VB,W,
p97
sg13
VDark
p98
sg15
V10
p99
sg17
V13
p100
sg18
V20
p101
sbag1
(g2
g3
Ntp102
Rp103
(dp104
g7
V531
p105
sg9
VAudino
p106
sg11
VB,W,
p107
sg13
VRustling
p108
sg15
g16
sg17
V11
p109
sg18
V100
p110
sbag1
(g2
g3
Ntp111
Rp112
(dp113
g7
V550
p114
sg9
VBasculin
p115
sg11
VB,
p116
sg13
VSurf
p117
sg15
V5
p118
sg17
V15
p119
sg18
V100
p120
sbag1
(g2
g3
Ntp121
Rp122
(dp123
g7
V550
p124
sg9
VBasculin
p125
sg11
VW,
p126
sg13
VSurf
p127
sg15
g118
sg17
V15
p128
sg18
V100
p129
sbag1
(g2
g3
Ntp130
Rp131
(dp132
g7
V550
p133
sg9
VBasculin
p134
sg11
g126
sg13
VRippling
p135
sg15
g118
sg17
V15
p136
sg18
V100
p137
sbag1
(g2
g3
Ntp138
Rp139
(dp140
g7
V550
p141
sg9
VBasculin
p142
sg11
g116
sg13
VRippling
p143
sg15
g118
sg17
V15
p144
sg18
V100
p145
sbag1
(g2
g3
Ntp146
Rp147
(dp148
g7
V118
p149
sg9
VGoldeen
p150
sg11
VB,W,
p151
sg13
VFish Super
p152
sg15
V35
p153
sg17
V55
p154
sg18
V70
p155
sbag1
(g2
g3
Ntp156
Rp157
(dp158
g7
V550
p159
sg9
VBasculin
p160
sg11
g116
sg13
VFish Super
p161
sg15
V35
p162
sg17
V55
p163
sg18
V30
p164
sbag1
(g2
g3
Ntp165
Rp166
(dp167
g7
V550
p168
sg9
VBasculin
p169
sg11
g126
sg13
VFish Super
p170
sg15
V35
p171
sg17
V55
p172
sg18
V30
p173
sbag1
(g2
g3
Ntp174
Rp175
(dp176
g7
V118
p177
sg9
VGoldeen
p178
sg11
VB,W,
p179
sg13
VRippling
p180
sg15
V35
p181
sg17
V60
p182
sg18
V60
p183
sbag1
(g2
g3
Ntp184
Rp185
(dp186
g7
V119
p187
sg9
VSeaking
p188
sg11
VB,W,
p189
sg13
VRippling
p190
sg15
V45
p191
sg17
V70
p192
sg18
V10
p193
sbag1
(g2
g3
Ntp194
Rp195
(dp196
g7
V550
p197
sg9
VBasculin
p198
sg11
g126
sg13
VRippling
p199
sg15
V35
p200
sg17
V60
p201
sg18
V30
p202
sbag1
(g2
g3
Ntp203
Rp204
(dp205
g7
V550
p206
sg9
VBasculin
p207
sg11
g116
sg13
VRippling
p208
sg15
V35
p209
sg17
V60
p210
sg18
V30
p211
sbag1
(g2
g3
Ntp212
Rp213
(dp214
g7
V313
p215
sg9
VVolbeat
p216
sg11
g116
sg13
VGrass
p217
sg15
V15
p218
sg17
V55
p219
sg18
V40
p220
sbag1
(g2
g3
Ntp221
Rp222
(dp223
g7
V314
p224
sg9
VIllumise
p225
sg11
g126
sg13
VGrass
p226
sg15
V15
p227
sg17
V55
p228
sg18
V40
p229
sbag1
(g2
g3
Ntp230
Rp231
(dp232
g7
V193
p233
sg9
VYanma
p234
sg11
VB2,W2,
p235
sg13
VGrass
p236
sg15
V56
p237
sg17
g237
sg18
V10
p238
sbag1
(g2
g3
Ntp239
Rp240
(dp241
g7
V505
p242
sg9
VWatchog
p243
sg11
VB2,W2,
p244
sg13
VGrass
p245
sg15
V55
p246
sg17
g246
sg18
V20
p247
sbag1
(g2
g3
Ntp248
Rp249
(dp250
g7
V507
p251
sg9
VHerdier
p252
sg11
VB2,W2,
p253
sg13
VGrass
p254
sg15
V57
p255
sg17
g255
sg18
V10
p256
sbag1
(g2
g3
Ntp257
Rp258
(dp259
g7
V509
p260
sg9
VPurrloin
p261
sg11
VB2,W2,
p262
sg13
VGrass
p263
sg15
V57
p264
sg17
g264
sg18
V10
p265
sbag1
(g2
g3
Ntp266
Rp267
(dp268
g7
V520
p269
sg9
VTranquill
p270
sg11
VB2,W2,
p271
sg13
VGrass
p272
sg15
V55
p273
sg17
V57
p274
sg18
V30
p275
sbag1
(g2
g3
Ntp276
Rp277
(dp278
g7
V523
p279
sg9
VZebstrika
p280
sg11
VB2,W2,
p281
sg13
VGrass
p282
sg15
V56
p283
sg17
V58
p284
sg18
V20
p285
sbag1
(g2
g3
Ntp286
Rp287
(dp288
g7
V193
p289
sg9
VYanma
p290
sg11
VB2,W2,
p291
sg13
VDark
p292
sg15
V64
p293
sg17
g293
sg18
V10
p294
sbag1
(g2
g3
Ntp295
Rp296
(dp297
g7
V505
p298
sg9
VWatchog
p299
sg11
VB2,W2,
p300
sg13
VDark
p301
sg15
V63
p302
sg17
g302
sg18
V20
p303
sbag1
(g2
g3
Ntp304
Rp305
(dp306
g7
V507
p307
sg9
VHerdier
p308
sg11
VB2,W2,
p309
sg13
VDark
p310
sg15
V65
p311
sg17
g311
sg18
V10
p312
sbag1
(g2
g3
Ntp313
Rp314
(dp315
g7
V509
p316
sg9
VPurrloin
p317
sg11
VB2,W2,
p318
sg13
VDark
p319
sg15
V65
p320
sg17
g320
sg18
V10
p321
sbag1
(g2
g3
Ntp322
Rp323
(dp324
g7
V520
p325
sg9
VTranquill
p326
sg11
VB2,W2,
p327
sg13
VDark
p328
sg15
V63
p329
sg17
V65
p330
sg18
V30
p331
sbag1
(g2
g3
Ntp332
Rp333
(dp334
g7
V523
p335
sg9
VZebstrika
p336
sg11
VB2,W2,
p337
sg13
VDark
p338
sg15
V64
p339
sg17
V66
p340
sg18
V20
p341
sbag1
(g2
g3
Ntp342
Rp343
(dp344
g7
V508
p345
sg9
VStoutland
p346
sg11
VB2,W2,
p347
sg13
VRustling
p348
sg15
V58
p349
sg17
V59
p350
sg18
V5
p351
sbag1
(g2
g3
Ntp352
Rp353
(dp354
g7
V521
p355
sg9
VUnfezant
p356
sg11
VB2,W2,
p357
sg13
VRustling
p358
sg15
V58
p359
sg17
g359
sg18
V5
p360
sbag1
(g2
g3
Ntp361
Rp362
(dp363
g7
V531
p364
sg9
VAudino
p365
sg11
VB2,W2,
p366
sg13
VRustling
p367
sg15
V55
p368
sg17
V58
p369
sg18
V85
p370
sbag1
(g2
g3
Ntp371
Rp372
(dp373
g7
V469
p374
sg9
VYanmega
p375
sg11
VB2,W2,
p376
sg13
VRustling
p377
sg15
V58
p378
sg17
g378
sg18
V5
p379
sbag1
(g2
g3
Ntp380
Rp381
(dp382
g7
V341
p383
sg9
VCorphish
p384
sg11
VB2,W2,
p385
sg13
VSurf
p386
sg15
V45
p387
sg17
V60
p388
sg18
V30
p389
sbag1
(g2
g3
Ntp390
Rp391
(dp392
g7
V550
p393
sg9
VBasculin
p394
sg11
VB2,
p395
sg13
VSurf
p396
sg15
V45
p397
sg17
V60
p398
sg18
V70
p399
sbag1
(g2
g3
Ntp400
Rp401
(dp402
g7
V550
p403
sg9
VBasculin
p404
sg11
VW2,
p405
sg13
VSurf
p406
sg15
V45
p407
sg17
V60
p408
sg18
V70
p409
sbag1
(g2
g3
Ntp410
Rp411
(dp412
g7
V341
p413
sg9
VCorphish
p414
sg11
VB2,W2,
p415
sg13
VRippling
p416
sg15
V45
p417
sg17
V60
p418
sg18
V60
p419
sbag1
(g2
g3
Ntp420
Rp421
(dp422
g7
V342
p423
sg9
VCrawdaunt
p424
sg11
VB2,W2,
p425
sg13
VRippling
p426
sg15
V50
p427
sg17
V60
p428
sg18
V10
p429
sbag1
(g2
g3
Ntp430
Rp431
(dp432
g7
V550
p433
sg9
VBasculin
p434
sg11
g395
sg13
VRippling
p435
sg15
V45
p436
sg17
V60
p437
sg18
V30
p438
sbag1
(g2
g3
Ntp439
Rp440
(dp441
g7
V550
p442
sg9
VBasculin
p443
sg11
g405
sg13
VRippling
p444
sg15
V45
p445
sg17
V60
p446
sg18
V30
p447
sbag1
(g2
g3
Ntp448
Rp449
(dp450
g7
V118
p451
sg9
VGoldeen
p452
sg11
VB2,W2,
p453
sg13
VFish Super
p454
sg15
V40
p455
sg17
V70
p456
sg18
V70
p457
sbag1
(g2
g3
Ntp458
Rp459
(dp460
g7
V550
p461
sg9
VBasculin
p462
sg11
g395
sg13
VFish Super
p463
sg15
V40
p464
sg17
V60
p465
sg18
V30
p466
sbag1
(g2
g3
Ntp467
Rp468
(dp469
g7
V550
p470
sg9
VBasculin
p471
sg11
g405
sg13
VFish Super
p472
sg15
V40
p473
sg17
V60
p474
sg18
V30
p475
sbag1
(g2
g3
Ntp476
Rp477
(dp478
g7
V118
p479
sg9
VGoldeen
p480
sg11
VB2,W2,
p481
sg13
VRippling
p482
sg15
V40
p483
sg17
V60
p484
sg18
V60
p485
sbag1
(g2
g3
Ntp486
Rp487
(dp488
g7
V119
p489
sg9
VSeaking
p490
sg11
VB2,W2,
p491
sg13
VRippling
p492
sg15
V50
p493
sg17
V70
p494
sg18
V10
p495
sbag1
(g2
g3
Ntp496
Rp497
(dp498
g7
V550
p499
sg9
VBasculin
p500
sg11
g395
sg13
VRippling
p501
sg15
V40
p502
sg17
V60
p503
sg18
V30
p504
sbag1
(g2
g3
Ntp505
Rp506
(dp507
g7
V550
p508
sg9
VBasculin
p509
sg11
g405
sg13
VRippling
p510
sg15
V40
p511
sg17
V60
p512
sg18
V30
p513
sbag1
(g2
g3
Ntp514
Rp515
(dp516
g7
V313
p517
sg9
VVolbeat
p518
sg11
g395
sg13
VGrass
p519
sg15
V40
p520
sg17
V55
p521
sg18
V40
p522
sbag1
(g2
g3
Ntp523
Rp524
(dp525
g7
V314
p526
sg9
VIllumise
p527
sg11
g405
sg13
VGrass
p528
sg15
V40
p529
sg17
V55
p530
sg18
V40
p531
sbag1
(g2
g3
Ntp532
Rp533
(dp534
g7
V310
p535
sg9
VManectric
p536
sg11
VB2,W2,
p537
sg13
VGrotto
p538
sg15
V55
p539
sg17
V60
p540
sg18
V0
p541
sbag1
(g2
g3
Ntp542
Rp543
(dp544
g7
V417
p545
sg9
VPachirisu
p546
sg11
VB2,W2,
p547
sg13
VGrotto
p548
sg15
V55
p549
sg17
V60
p550
sg18
V0
p551
sbag1
(g2
g3
Ntp552
Rp553
(dp554
g7
V523
p555
sg9
VZebstrika
p556
sg11
VB2,W2,
p557
sg13
VGrotto
p558
sg15
V55
p559
sg17
V60
p560
sg18
V0
p561
sbag1
(g2
g3
Ntp562
Rp563
(dp564
g7
V048
p565
sg9
VVenonat
p566
sg11
VB2,W2,
p567
sg13
VGrotto
p568
sg15
V55
p569
sg17
V60
p570
sg18
V0
p571
sbag1
(g2
g3
Ntp572
Rp573
(dp574
g7
V271
p575
sg9
VLombre
p576
sg11
VB2,W2,
p577
sg13
VGrotto
p578
sg15
V55
p579
sg17
V60
p580
sg18
V0
p581
sbag1
(g2
g3
Ntp582
Rp583
(dp584
g7
V400
p585
sg9
VBibarel
p586
sg11
VB2,W2,
p587
sg13
VGrotto
p588
sg15
V55
p589
sg17
V60
p590
sg18
V0
p591
sba.