(lp0
ccopy_reg
_reconstructor
p1
(c__main__
WildPokemon
p2
c__builtin__
object
p3
Ntp4
Rp5
(dp6
VpDexNo
p7
V039
p8
sVpSpecies
p9
VJigglypuff
p10
sVpGames
p11
VB,W,
p12
sVpArea
p13
VGrass
p14
sVpMinLevel
p15
V48
p16
sVpMaxLevel
p17
g16
sVpRate
p18
V20
p19
sbag1
(g2
g3
Ntp20
Rp21
(dp22
g7
V055
p23
sg9
VGolduck
p24
sg11
VB,W,
p25
sg13
VGrass
p26
sg15
V47
p27
sg17
g27
sg18
V20
p28
sbag1
(g2
g3
Ntp29
Rp30
(dp31
g7
V213
p32
sg9
VShuckle
p33
sg11
VB,W,
p34
sg13
VGrass
p35
sg15
V49
p36
sg17
g36
sg18
V5
p37
sbag1
(g2
g3
Ntp38
Rp39
(dp40
g7
V334
p41
sg9
VAltaria
p42
sg11
VB,W,
p43
sg13
VGrass
p44
sg15
V49
p45
sg17
g45
sg18
V10
p46
sbag1
(g2
g3
Ntp47
Rp48
(dp49
g7
V357
p50
sg9
VTropius
p51
sg11
VB,W,
p52
sg13
VGrass
p53
sg15
V48,50
p54
sg17
g54
sg18
V15
p55
sbag1
(g2
g3
Ntp56
Rp57
(dp58
g7
V426
p59
sg9
VDrifblim
p60
sg11
VB,W,
p61
sg13
VGrass
p62
sg15
V49
p63
sg17
g63
sg18
V10
p64
sbag1
(g2
g3
Ntp65
Rp66
(dp67
g7
V606
p68
sg9
VBeheeyem
p69
sg11
VB,W,
p70
sg13
VGrass
p71
sg15
V48,50
p72
sg17
g72
sg18
V10
p73
sbag1
(g2
g3
Ntp74
Rp75
(dp76
g7
V619
p77
sg9
VMienfoo
p78
sg11
VB,W,
p79
sg13
VGrass
p80
sg15
V49
p81
sg17
g81
sg18
V10
p82
sbag1
(g2
g3
Ntp83
Rp84
(dp85
g7
V039
p86
sg9
VJigglypuff
p87
sg11
VB,W,
p88
sg13
VDark
p89
sg15
V58
p90
sg17
g90
sg18
V20
p91
sbag1
(g2
g3
Ntp92
Rp93
(dp94
g7
V055
p95
sg9
VGolduck
p96
sg11
VB,W,
p97
sg13
VDark
p98
sg15
V57
p99
sg17
g99
sg18
V20
p100
sbag1
(g2
g3
Ntp101
Rp102
(dp103
g7
V213
p104
sg9
VShuckle
p105
sg11
VB,W,
p106
sg13
VDark
p107
sg15
V59
p108
sg17
g108
sg18
V5
p109
sbag1
(g2
g3
Ntp110
Rp111
(dp112
g7
V334
p113
sg9
VAltaria
p114
sg11
VB,W,
p115
sg13
VDark
p116
sg15
V59
p117
sg17
g117
sg18
V10
p118
sbag1
(g2
g3
Ntp119
Rp120
(dp121
g7
V357
p122
sg9
VTropius
p123
sg11
VB,W,
p124
sg13
VDark
p125
sg15
V58,60
p126
sg17
g126
sg18
V15
p127
sbag1
(g2
g3
Ntp128
Rp129
(dp130
g7
V426
p131
sg9
VDrifblim
p132
sg11
VB,W,
p133
sg13
VDark
p134
sg15
V59
p135
sg17
g135
sg18
V10
p136
sbag1
(g2
g3
Ntp137
Rp138
(dp139
g7
V606
p140
sg9
VBeheeyem
p141
sg11
VB,W,
p142
sg13
VDark
p143
sg15
V58,60
p144
sg17
g144
sg18
V10
p145
sbag1
(g2
g3
Ntp146
Rp147
(dp148
g7
V620
p149
sg9
VMienshao
p150
sg11
VB,W,
p151
sg13
VDark
p152
sg15
V59
p153
sg17
g153
sg18
V10
p154
sbag1
(g2
g3
Ntp155
Rp156
(dp157
g7
V040
p158
sg9
VWigglytuff
p159
sg11
VB,W,
p160
sg13
VRustling
p161
sg15
V50
p162
sg17
g162
sg18
V5
p163
sbag1
(g2
g3
Ntp164
Rp165
(dp166
g7
V531
p167
sg9
VAudino
p168
sg11
VB,W,
p169
sg13
VRustling
p170
sg15
V47
p171
sg17
V50
p172
sg18
V85
p173
sbag1
(g2
g3
Ntp174
Rp175
(dp176
g7
V587
p177
sg9
VEmolga
p178
sg11
VB,W,
p179
sg13
VRustling
p180
sg15
V48
p181
sg17
g181
sg18
V10
p182
sbag1
(g2
g3
Ntp183
Rp184
(dp185
g7
V418
p186
sg9
VBuizel
p187
sg11
VB,W,
p188
sg13
VSurf
p189
sg15
V25
p190
sg17
V55
p191
sg18
V30
p192
sbag1
(g2
g3
Ntp193
Rp194
(dp195
g7
V550
p196
sg9
VBasculin
p197
sg11
VB,
p198
sg13
VSurf
p199
sg15
V25
p200
sg17
V55
p201
sg18
V70
p202
sbag1
(g2
g3
Ntp203
Rp204
(dp205
g7
V550
p206
sg9
VBasculin
p207
sg11
VW,
p208
sg13
VSurf
p209
sg15
V25
p210
sg17
V55
p211
sg18
V70
p212
sbag1
(g2
g3
Ntp213
Rp214
(dp215
g7
V418
p216
sg9
VBuizel
p217
sg11
VB,W,
p218
sg13
VRippling
p219
sg15
V25
p220
sg17
V60
p221
sg18
V60
p222
sbag1
(g2
g3
Ntp223
Rp224
(dp225
g7
V419
p226
sg9
VFloatzel
p227
sg11
VB,W,
p228
sg13
VRippling
p229
sg15
V35
p230
sg17
V70
p231
sg18
V10
p232
sbag1
(g2
g3
Ntp233
Rp234
(dp235
g7
V550
p236
sg9
VBasculin
p237
sg11
g198
sg13
VRippling
p238
sg15
V25
p239
sg17
V55
p240
sg18
V30
p241
sbag1
(g2
g3
Ntp242
Rp243
(dp244
g7
V550
p245
sg9
VBasculin
p246
sg11
g208
sg13
VRippling
p247
sg15
V25
p248
sg17
V55
p249
sg18
V30
p250
sbag1
(g2
g3
Ntp251
Rp252
(dp253
g7
V118
p254
sg9
VGoldeen
p255
sg11
VB,W,
p256
sg13
VFish Super
p257
sg15
V35
p258
sg17
V55
p259
sg18
V70
p260
sbag1
(g2
g3
Ntp261
Rp262
(dp263
g7
V550
p264
sg9
VBasculin
p265
sg11
g198
sg13
VFish Super
p266
sg15
V35
p267
sg17
V55
p268
sg18
V30
p269
sbag1
(g2
g3
Ntp270
Rp271
(dp272
g7
V550
p273
sg9
VBasculin
p274
sg11
g208
sg13
VFish Super
p275
sg15
V35
p276
sg17
V55
p277
sg18
V30
p278
sbag1
(g2
g3
Ntp279
Rp280
(dp281
g7
V118
p282
sg9
VGoldeen
p283
sg11
VB,W,
p284
sg13
VRippling
p285
sg15
V35
p286
sg17
V60
p287
sg18
V60
p288
sbag1
(g2
g3
Ntp289
Rp290
(dp291
g7
V119
p292
sg9
VSeaking
p293
sg11
VB,W,
p294
sg13
VRippling
p295
sg15
V45
p296
sg17
V70
p297
sg18
V10
p298
sbag1
(g2
g3
Ntp299
Rp300
(dp301
g7
V550
p302
sg9
VBasculin
p303
sg11
g208
sg13
VRippling
p304
sg15
V35
p305
sg17
V60
p306
sg18
V30
p307
sbag1
(g2
g3
Ntp308
Rp309
(dp310
g7
V550
p311
sg9
VBasculin
p312
sg11
g198
sg13
VRippling
p313
sg15
V35
p314
sg17
V60
p315
sg18
V30
p316
sbag1
(g2
g3
Ntp317
Rp318
(dp319
g7
V193
p320
sg9
VYanma
p321
sg11
VB,W,
p322
sg13
VGrass
p323
sg15
V15
p324
sg17
V55
p325
sg18
V40
p326
sbag1
(g2
g3
Ntp327
Rp328
(dp329
g7
V055
p330
sg9
VGolduck
p331
sg11
VB2,W2,
p332
sg13
VGrass
p333
sg15
V34
p334
sg17
V35
p335
sg18
V25
p336
sbag1
(g2
g3
Ntp337
Rp338
(dp339
g7
V333
p340
sg9
VSwablu
p341
sg11
VB2,W2,
p342
sg13
VGrass
p343
sg15
V33
p344
sg17
g344
sg18
V20
p345
sbag1
(g2
g3
Ntp346
Rp347
(dp348
g7
V334
p349
sg9
VAltaria
p350
sg11
VB2,W2,
p351
sg13
VGrass
p352
sg15
V36
p353
sg17
g353
sg18
V5
p354
sbag1
(g2
g3
Ntp355
Rp356
(dp357
g7
V359
p358
sg9
VAbsol
p359
sg11
VB2,W2,
p360
sg13
VGrass
p361
sg15
V34
p362
sg17
V36
p363
sg18
V15
p364
sbag1
(g2
g3
Ntp365
Rp366
(dp367
g7
V426
p368
sg9
VDrifblim
p369
sg11
VB2,W2,
p370
sg13
VGrass
p371
sg15
V34
p372
sg17
V35
p373
sg18
V15
p374
sbag1
(g2
g3
Ntp375
Rp376
(dp377
g7
V619
p378
sg9
VMienfoo
p379
sg11
VB2,W2,
p380
sg13
VGrass
p381
sg15
V33
p382
sg17
V35
p383
sg18
V20
p384
sbag1
(g2
g3
Ntp385
Rp386
(dp387
g7
V055
p388
sg9
VGolduck
p389
sg11
VB2,W2,
p390
sg13
VDark
p391
sg15
V38
p392
sg17
V39
p393
sg18
V25
p394
sbag1
(g2
g3
Ntp395
Rp396
(dp397
g7
V334
p398
sg9
VAltaria
p399
sg11
VB2,W2,
p400
sg13
VDark
p401
sg15
V37
p402
sg17
V40
p403
sg18
V15
p404
sbag1
(g2
g3
Ntp405
Rp406
(dp407
g7
V359
p408
sg9
VAbsol
p409
sg11
VB2,W2,
p410
sg13
VDark
p411
sg15
V38
p412
sg17
V40
p413
sg18
V15
p414
sbag1
(g2
g3
Ntp415
Rp416
(dp417
g7
V426
p418
sg9
VDrifblim
p419
sg11
VB2,W2,
p420
sg13
VDark
p421
sg15
V38
p422
sg17
V39
p423
sg18
V15
p424
sbag1
(g2
g3
Ntp425
Rp426
(dp427
g7
V619
p428
sg9
VMienfoo
p429
sg11
VB2,W2,
p430
sg13
VDark
p431
sg15
V37
p432
sg17
V39
p433
sg18
V30
p434
sbag1
(g2
g3
Ntp435
Rp436
(dp437
g7
V531
p438
sg9
VAudino
p439
sg11
VB2,W2,
p440
sg13
VRustling
p441
sg15
V33
p442
sg17
V36
p443
sg18
V90
p444
sbag1
(g2
g3
Ntp445
Rp446
(dp447
g7
V587
p448
sg9
VEmolga
p449
sg11
VB2,W2,
p450
sg13
VRustling
p451
sg15
V34
p452
sg17
g452
sg18
V10
p453
sbag1
(g2
g3
Ntp454
Rp455
(dp456
g7
V418
p457
sg9
VBuizel
p458
sg11
VB2,W2,
p459
sg13
VSurf
p460
sg15
V16
p461
sg17
V40
p462
sg18
V30
p463
sbag1
(g2
g3
Ntp464
Rp465
(dp466
g7
V550
p467
sg9
VBasculin
p468
sg11
VB2,
p469
sg13
VSurf
p470
sg15
V25
p471
sg17
V40
p472
sg18
V70
p473
sbag1
(g2
g3
Ntp474
Rp475
(dp476
g7
V550
p477
sg9
VBasculin
p478
sg11
VW2,
p479
sg13
VSurf
p480
sg15
V25
p481
sg17
V40
p482
sg18
V70
p483
sbag1
(g2
g3
Ntp484
Rp485
(dp486
g7
V418
p487
sg9
VBuizel
p488
sg11
VB2,W2,
p489
sg13
VRippling
p490
sg15
V25
p491
sg17
V40
p492
sg18
V60
p493
sbag1
(g2
g3
Ntp494
Rp495
(dp496
g7
V419
p497
sg9
VFloatzel
p498
sg11
VB2,W2,
p499
sg13
VRippling
p500
sg15
V30
p501
sg17
V40
p502
sg18
V10
p503
sbag1
(g2
g3
Ntp504
Rp505
(dp506
g7
V550
p507
sg9
VBasculin
p508
sg11
g469
sg13
VRippling
p509
sg15
V25
p510
sg17
V40
p511
sg18
V30
p512
sbag1
(g2
g3
Ntp513
Rp514
(dp515
g7
V550
p516
sg9
VBasculin
p517
sg11
g479
sg13
VRippling
p518
sg15
V25
p519
sg17
V40
p520
sg18
V30
p521
sbag1
(g2
g3
Ntp522
Rp523
(dp524
g7
V118
p525
sg9
VGoldeen
p526
sg11
VB2,W2,
p527
sg13
VFishing
p528
sg15
V40
p529
sg17
V70
p530
sg18
V70
p531
sbag1
(g2
g3
Ntp532
Rp533
(dp534
g7
V550
p535
sg9
VBasculin
p536
sg11
g469
sg13
VFish Super
p537
sg15
V40
p538
sg17
V60
p539
sg18
V30
p540
sbag1
(g2
g3
Ntp541
Rp542
(dp543
g7
V550
p544
sg9
VBasculin
p545
sg11
g479
sg13
VFish Super
p546
sg15
V40
p547
sg17
V60
p548
sg18
V30
p549
sbag1
(g2
g3
Ntp550
Rp551
(dp552
g7
V118
p553
sg9
VGoldeen
p554
sg11
VB2,W2,
p555
sg13
VRippling
p556
sg15
V40
p557
sg17
V60
p558
sg18
V60
p559
sbag1
(g2
g3
Ntp560
Rp561
(dp562
g7
V119
p563
sg9
VSeaking
p564
sg11
VB2,W2,
p565
sg13
VRippling
p566
sg15
V50
p567
sg17
V70
p568
sg18
V10
p569
sbag1
(g2
g3
Ntp570
Rp571
(dp572
g7
V550
p573
sg9
VBasculin
p574
sg11
g469
sg13
VRippling
p575
sg15
V40
p576
sg17
V60
p577
sg18
V30
p578
sbag1
(g2
g3
Ntp579
Rp580
(dp581
g7
V550
p582
sg9
VBasculin
p583
sg11
g479
sg13
VRippling
p584
sg15
V40
p585
sg17
V60
p586
sg18
V30
p587
sba.