(lp0
ccopy_reg
_reconstructor
p1
(c__main__
WildPokemon
p2
c__builtin__
object
p3
Ntp4
Rp5
(dp6
VpDexNo
p7
V191
p8
sVpSpecies
p9
VSunkern
p10
sVpGames
p11
VB2,W2,
p12
sVpArea
p13
VGrass
p14
sVpMinLevel
p15
V2
p16
sVpMaxLevel
p17
V4
p18
sVpRate
p19
V25
p20
sbag1
(g2
g3
Ntp21
Rp22
(dp23
g7
V504
p24
sg9
VPatrat
p25
sg11
VB2,W2,
p26
sg13
VGrass
p27
sg15
g16
sg17
V3
p28
sg19
V20
p29
sbag1
(g2
g3
Ntp30
Rp31
(dp32
g7
V509
p33
sg9
VPurrloin
p34
sg11
VB2,W2,
p35
sg13
VGrass
p36
sg15
g16
sg17
g18
sg19
V15
p37
sbag1
(g2
g3
Ntp38
Rp39
(dp40
g7
V519
p41
sg9
VPidove
p42
sg11
VB2,W2,
p43
sg13
VGrass
p44
sg15
g16
sg17
g18
sg19
V25
p45
sbag1
(g2
g3
Ntp46
Rp47
(dp48
g7
V540
p49
sg9
VSewaddle
p50
sg11
VB2,W2,
p51
sg13
VGrass
p52
sg15
g16
sg17
g18
sg19
V35
p53
sbag1
(g2
g3
Ntp54
Rp55
(dp56
g7
V191
p57
sg9
VSunkern
p58
sg11
VB2,W2,
p59
sg13
VDark
p60
sg15
V9
p61
sg17
V11
p62
sg19
V25
p63
sbag1
(g2
g3
Ntp64
Rp65
(dp66
g7
V504
p67
sg9
VPatrat
p68
sg11
VB2,W2,
p69
sg13
VDark
p70
sg15
V10
p71
sg17
g71
sg19
V20
p72
sbag1
(g2
g3
Ntp73
Rp74
(dp75
g7
V509
p76
sg9
VPurrloin
p77
sg11
VB2,W2,
p78
sg13
VDark
p79
sg15
V10
p80
sg17
V11
p81
sg19
V15
p82
sbag1
(g2
g3
Ntp83
Rp84
(dp85
g7
V519
p86
sg9
VPidove
p87
sg11
VB2,W2,
p88
sg13
VDark
p89
sg15
g61
sg17
V10
p90
sg19
V25
p91
sbag1
(g2
g3
Ntp92
Rp93
(dp94
g7
V540
p95
sg9
VSewaddle
p96
sg11
VB2,W2,
p97
sg13
VDark
p98
sg15
V10
p99
sg17
V11
p100
sg19
V15
p101
sbag1
(g2
g3
Ntp102
Rp103
(dp104
g7
V543
p105
sg9
VVenipede
p106
sg11
VB2,W2,
p107
sg13
VDark
p108
sg15
V10
p109
sg17
g109
sg19
V20
p110
sbag1
(g2
g3
Ntp111
Rp112
(dp113
g7
V206
p114
sg9
VDunsparce
p115
sg11
VB2,W2,
p116
sg13
VRustling
p117
sg15
g28
sg17
g28
sg19
V10
p118
sbag1
(g2
g3
Ntp119
Rp120
(dp121
g7
V531
p122
sg9
VAudino
p123
sg11
VB2,W2,
p124
sg13
VRustling
p125
sg15
g16
sg17
g18
sg19
V90
p126
sbag1
(g2
g3
Ntp127
Rp128
(dp129
g7
V298
p130
sg9
VAzurill
p131
sg11
VB2,W2,
p132
sg13
VSurf
p133
sg15
V5
p134
sg17
V15
p135
sg19
V30
p136
sbag1
(g2
g3
Ntp137
Rp138
(dp139
g7
V550
p140
sg9
VBasculin
p141
sg11
VB2,
p142
sg13
VSurf
p143
sg15
V7
p144
sg17
V15
p145
sg19
V70
p146
sbag1
(g2
g3
Ntp147
Rp148
(dp149
g7
V550
p150
sg9
VBasculin
p151
sg11
VW2,
p152
sg13
VSurf
p153
sg15
g144
sg17
V15
p154
sg19
V70
p155
sbag1
(g2
g3
Ntp156
Rp157
(dp158
g7
V183
p159
sg9
VMarill
p160
sg11
VB2,W2,
p161
sg13
VRippling
p162
sg15
g134
sg17
V15
p163
sg19
V30
p164
sbag1
(g2
g3
Ntp165
Rp166
(dp167
g7
V184
p168
sg9
VAzumarill
p169
sg11
VB2,W2,
p170
sg13
VRippling
p171
sg15
g134
sg17
V15
p172
sg19
V5
p173
sbag1
(g2
g3
Ntp174
Rp175
(dp176
g7
V550
p177
sg9
VBasculin
p178
sg11
g152
sg13
VRippling
p179
sg15
g134
sg17
V15
p180
sg19
V65
p181
sbag1
(g2
g3
Ntp182
Rp183
(dp184
g7
V550
p185
sg9
VBasculin
p186
sg11
g142
sg13
VRippling
p187
sg15
g134
sg17
V15
p188
sg19
V65
p189
sbag1
(g2
g3
Ntp190
Rp191
(dp192
g7
V060
p193
sg9
VPoliwag
p194
sg11
VB2,W2,
p195
sg13
VFish Super
p196
sg15
V40
p197
sg17
V70
p198
sg19
V60
p199
sbag1
(g2
g3
Ntp200
Rp201
(dp202
g7
V550
p203
sg9
VBasculin
p204
sg11
g142
sg13
VFish Super
p205
sg15
V40
p206
sg17
V60
p207
sg19
V40
p208
sbag1
(g2
g3
Ntp209
Rp210
(dp211
g7
V550
p212
sg9
VBasculin
p213
sg11
g152
sg13
VFish Super
p214
sg15
V40
p215
sg17
V60
p216
sg19
V40
p217
sbag1
(g2
g3
Ntp218
Rp219
(dp220
g7
V061
p221
sg9
VPoliwhirl
p222
sg11
VB2,W2,
p223
sg13
VRippling
p224
sg15
V40
p225
sg17
V70
p226
sg19
V65
p227
sbag1
(g2
g3
Ntp228
Rp229
(dp230
g7
V186
p231
sg9
VPolitoed
p232
sg11
VB2,W2,
p233
sg13
VRippling
p234
sg15
V50
p235
sg17
V70
p236
sg19
V5
p237
sbag1
(g2
g3
Ntp238
Rp239
(dp240
g7
V550
p241
sg9
VBasculin
p242
sg11
g152
sg13
VRippling
p243
sg15
V40
p244
sg17
V60
p245
sg19
V30
p246
sbag1
(g2
g3
Ntp247
Rp248
(dp249
g7
V550
p250
sg9
VBasculin
p251
sg11
g142
sg13
VRippling
p252
sg15
V40
p253
sg17
V60
p254
sg19
V30
p255
sbag1
(g2
g3
Ntp256
Rp257
(dp258
g7
V122
p259
sg9
VMr. Mime
p260
sg11
g152
sg13
VGrass
p261
sg15
V40
p262
sg17
V55
p263
sg19
V40
p264
sbag1
(g2
g3
Ntp265
Rp266
(dp267
g7
V185
p268
sg9
VSudowoodo
p269
sg11
g142
sg13
VGrass
p270
sg15
V40
p271
sg17
V55
p272
sg19
V40
p273
sba.