(lp0
ccopy_reg
_reconstructor
p1
(c__main__
WildPokemon
p2
c__builtin__
object
p3
Ntp4
Rp5
(dp6
VpDexNo
p7
V055
p8
sVpSpecies
p9
VGolduck
p10
sVpGames
p11
VB,W,
p12
sVpArea
p13
VGrass
p14
sVpMinLevel
p15
V47
p16
sVpMaxLevel
p17
V48
p18
sVpRate
p19
V20
p20
sbag1
(g2
g3
Ntp21
Rp22
(dp23
g7
V207
p24
sg9
VGligar
p25
sg11
VB,W,
p26
sg13
VGrass
p27
sg15
V47
p28
sg17
V50
p29
sg19
V15
p30
sbag1
(g2
g3
Ntp31
Rp32
(dp33
g7
V335
p34
sg9
VZangoose
p35
sg11
VB,W,
p36
sg13
VGrass
p37
sg15
V48
p38
sg17
g38
sg19
V10
p39
sbag1
(g2
g3
Ntp40
Rp41
(dp42
g7
V336
p43
sg9
VSeviper
p44
sg11
VB,W,
p45
sg13
VGrass
p46
sg15
V48
p47
sg17
g47
sg19
V10
p48
sbag1
(g2
g3
Ntp49
Rp50
(dp51
g7
V588
p52
sg9
VKarrablast
p53
sg11
VB,W,
p54
sg13
VGrass
p55
sg15
V49
p56
sg17
g56
sg19
V5
p57
sbag1
(g2
g3
Ntp58
Rp59
(dp60
g7
V591
p61
sg9
VAmoonguss
p62
sg11
VB,W,
p63
sg13
VGrass
p64
sg15
V48
p65
sg17
g65
sg19
V10
p66
sbag1
(g2
g3
Ntp67
Rp68
(dp69
g7
V624
p70
sg9
VPawniard
p71
sg11
VB,W,
p72
sg13
VGrass
p73
sg15
V50
p74
sg17
g74
sg19
V5
p75
sbag1
(g2
g3
Ntp76
Rp77
(dp78
g7
V627
p79
sg9
VRufflet
p80
sg11
VW,
p81
sg13
VGrass
p82
sg15
V48
p83
sg17
V50
p84
sg19
V25
p85
sbag1
(g2
g3
Ntp86
Rp87
(dp88
g7
V629
p89
sg9
VVullaby
p90
sg11
VB,
p91
sg13
VGrass
p92
sg15
V48
p93
sg17
V50
p94
sg19
V25
p95
sbag1
(g2
g3
Ntp96
Rp97
(dp98
g7
V055
p99
sg9
VGolduck
p100
sg11
VB,W,
p101
sg13
VDark
p102
sg15
V57
p103
sg17
V58
p104
sg19
V20
p105
sbag1
(g2
g3
Ntp106
Rp107
(dp108
g7
V207
p109
sg9
VGligar
p110
sg11
VB,W,
p111
sg13
VDark
p112
sg15
V57
p113
sg17
V60
p114
sg19
V15
p115
sbag1
(g2
g3
Ntp116
Rp117
(dp118
g7
V335
p119
sg9
VZangoose
p120
sg11
VB,W,
p121
sg13
VDark
p122
sg15
V58
p123
sg17
g123
sg19
V10
p124
sbag1
(g2
g3
Ntp125
Rp126
(dp127
g7
V336
p128
sg9
VSeviper
p129
sg11
VB,W,
p130
sg13
VDark
p131
sg15
V58
p132
sg17
g132
sg19
V10
p133
sbag1
(g2
g3
Ntp134
Rp135
(dp136
g7
V588
p137
sg9
VKarrablast
p138
sg11
VB,W,
p139
sg13
VDark
p140
sg15
V59
p141
sg17
g141
sg19
V5
p142
sbag1
(g2
g3
Ntp143
Rp144
(dp145
g7
V591
p146
sg9
VAmoonguss
p147
sg11
VB,W,
p148
sg13
VDark
p149
sg15
V58
p150
sg17
g150
sg19
V10
p151
sbag1
(g2
g3
Ntp152
Rp153
(dp154
g7
V625
p155
sg9
VBisharp
p156
sg11
VB,W,
p157
sg13
VDark
p158
sg15
V60
p159
sg17
g159
sg19
V5
p160
sbag1
(g2
g3
Ntp161
Rp162
(dp163
g7
V628
p164
sg9
VBraviary
p165
sg11
g81
sg13
VDark
p166
sg15
V58
p167
sg17
V60
p168
sg19
V25
p169
sbag1
(g2
g3
Ntp170
Rp171
(dp172
g7
V630
p173
sg9
VMandibuzz
p174
sg11
g91
sg13
VDark
p175
sg15
V58
p176
sg17
V60
p177
sg19
V25
p178
sbag1
(g2
g3
Ntp179
Rp180
(dp181
g7
V472
p182
sg9
VGliscor
p183
sg11
VB,W,
p184
sg13
VRustling
p185
sg15
V50
p186
sg17
g186
sg19
V5
p187
sbag1
(g2
g3
Ntp188
Rp189
(dp190
g7
V531
p191
sg9
VAudino
p192
sg11
VB,W,
p193
sg13
VRustling
p194
sg15
V47
p195
sg17
V50
p196
sg19
V85
p197
sbag1
(g2
g3
Ntp198
Rp199
(dp200
g7
V587
p201
sg9
VEmolga
p202
sg11
VB,W,
p203
sg13
VRustling
p204
sg15
V48
p205
sg17
g205
sg19
V10
p206
sbag1
(g2
g3
Ntp207
Rp208
(dp209
g7
V418
p210
sg9
VBuizel
p211
sg11
VB,W,
p212
sg13
VSurf
p213
sg15
V25
p214
sg17
V55
p215
sg19
V30
p216
sbag1
(g2
g3
Ntp217
Rp218
(dp219
g7
V550
p220
sg9
VBasculin
p221
sg11
g91
sg13
VSurf
p222
sg15
V25
p223
sg17
V55
p224
sg19
V70
p225
sbag1
(g2
g3
Ntp226
Rp227
(dp228
g7
V550
p229
sg9
VBasculin
p230
sg11
g81
sg13
VSurf
p231
sg15
V25
p232
sg17
V55
p233
sg19
V70
p234
sbag1
(g2
g3
Ntp235
Rp236
(dp237
g7
V418
p238
sg9
VBuizel
p239
sg11
VB,W,
p240
sg13
VRippling
p241
sg15
V25
p242
sg17
V60
p243
sg19
V60
p244
sbag1
(g2
g3
Ntp245
Rp246
(dp247
g7
V419
p248
sg9
VFloatzel
p249
sg11
VB,W,
p250
sg13
VRippling
p251
sg15
V35
p252
sg17
V70
p253
sg19
V10
p254
sbag1
(g2
g3
Ntp255
Rp256
(dp257
g7
V550
p258
sg9
VBasculin
p259
sg11
g81
sg13
VRippling
p260
sg15
V25
p261
sg17
V60
p262
sg19
V30
p263
sbag1
(g2
g3
Ntp264
Rp265
(dp266
g7
V550
p267
sg9
VBasculin
p268
sg11
g91
sg13
VRippling
p269
sg15
V25
p270
sg17
V60
p271
sg19
V30
p272
sbag1
(g2
g3
Ntp273
Rp274
(dp275
g7
V118
p276
sg9
VGoldeen
p277
sg11
VB,W,
p278
sg13
VFish Super
p279
sg15
V35
p280
sg17
V55
p281
sg19
V70
p282
sbag1
(g2
g3
Ntp283
Rp284
(dp285
g7
V550
p286
sg9
VBasculin
p287
sg11
g91
sg13
VFish Super
p288
sg15
V35
p289
sg17
V55
p290
sg19
V30
p291
sbag1
(g2
g3
Ntp292
Rp293
(dp294
g7
V550
p295
sg9
VBasculin
p296
sg11
g81
sg13
VFish Super
p297
sg15
V35
p298
sg17
V55
p299
sg19
V30
p300
sbag1
(g2
g3
Ntp301
Rp302
(dp303
g7
V118
p304
sg9
VGoldeen
p305
sg11
VB,W,
p306
sg13
VRippling
p307
sg15
V35
p308
sg17
V60
p309
sg19
V60
p310
sbag1
(g2
g3
Ntp311
Rp312
(dp313
g7
V119
p314
sg9
VSeaking
p315
sg11
VB,W,
p316
sg13
VRippling
p317
sg15
V45
p318
sg17
V70
p319
sg19
V10
p320
sbag1
(g2
g3
Ntp321
Rp322
(dp323
g7
V550
p324
sg9
VBasculin
p325
sg11
g81
sg13
VRippling
p326
sg15
V35
p327
sg17
V60
p328
sg19
V30
p329
sbag1
(g2
g3
Ntp330
Rp331
(dp332
g7
V550
p333
sg9
VBasculin
p334
sg11
g91
sg13
VRippling
p335
sg15
V35
p336
sg17
V60
p337
sg19
V30
p338
sbag1
(g2
g3
Ntp339
Rp340
(dp341
g7
V046
p342
sg9
VParas
p343
sg11
g81
sg13
VGrass
p344
sg15
V15
p345
sg17
V55
p346
sg19
V40
p347
sbag1
(g2
g3
Ntp348
Rp349
(dp350
g7
V285
p351
sg9
VShroomish
p352
sg11
g91
sg13
VGrass
p353
sg15
V15
p354
sg17
V55
p355
sg19
V40
p356
sbag1
(g2
g3
Ntp357
Rp358
(dp359
g7
V055
p360
sg9
VGolduck
p361
sg11
VB2,W2,
p362
sg13
VGrass
p363
sg15
V36
p364
sg17
g364
sg19
V20
p365
sbag1
(g2
g3
Ntp366
Rp367
(dp368
g7
V183
p369
sg9
VMarill
p370
sg11
VB2,W2,
p371
sg13
VGrass
p372
sg15
V36
p373
sg17
g373
sg19
V10
p374
sbag1
(g2
g3
Ntp375
Rp376
(dp377
g7
V207
p378
sg9
VGligar
p379
sg11
VB2,W2,
p380
sg13
VGrass
p381
sg15
V37
p382
sg17
V39
p383
sg19
V15
p384
sbag1
(g2
g3
Ntp385
Rp386
(dp387
g7
V335
p388
sg9
VZangoose
p389
sg11
VB2,W2,
p390
sg13
VGrass
p391
sg15
V38
p392
sg17
g392
sg19
V10
p393
sbag1
(g2
g3
Ntp394
Rp395
(dp396
g7
V336
p397
sg9
VSeviper
p398
sg11
VB2,W2,
p399
sg13
VGrass
p400
sg15
V38
p401
sg17
g401
sg19
V10
p402
sbag1
(g2
g3
Ntp403
Rp404
(dp405
g7
V588
p406
sg9
VKarrablast
p407
sg11
VB2,
p408
sg13
VGrass
p409
sg15
V36
p410
sg17
g410
sg19
V5
p411
sbag1
(g2
g3
Ntp412
Rp413
(dp414
g7
V588
p415
sg9
VKarrablast
p416
sg11
VW2,
p417
sg13
VGrass
p418
sg15
V36
p419
sg17
V39
p420
sg19
V25
p421
sbag1
(g2
g3
Ntp422
Rp423
(dp424
g7
V591
p425
sg9
VAmoonguss
p426
sg11
VB2,W2,
p427
sg13
VGrass
p428
sg15
V37
p429
sg17
g429
sg19
V5
p430
sbag1
(g2
g3
Ntp431
Rp432
(dp433
g7
V616
p434
sg9
VShelmet
p435
sg11
g408
sg13
VGrass
p436
sg15
V36
p437
sg17
V39
p438
sg19
V25
p439
sbag1
(g2
g3
Ntp440
Rp441
(dp442
g7
V616
p443
sg9
VShelmet
p444
sg11
g417
sg13
VGrass
p445
sg15
V36
p446
sg17
g446
sg19
V5
p447
sbag1
(g2
g3
Ntp448
Rp449
(dp450
g7
V055
p451
sg9
VGolduck
p452
sg11
VB2,W2,
p453
sg13
VDark
p454
sg15
V40
p455
sg17
g455
sg19
V20
p456
sbag1
(g2
g3
Ntp457
Rp458
(dp459
g7
V183
p460
sg9
VMarill
p461
sg11
VB2,W2,
p462
sg13
VDark
p463
sg15
V40
p464
sg17
g464
sg19
V10
p465
sbag1
(g2
g3
Ntp466
Rp467
(dp468
g7
V207
p469
sg9
VGligar
p470
sg11
VB2,W2,
p471
sg13
VDark
p472
sg15
V41
p473
sg17
V43
p474
sg19
V15
p475
sbag1
(g2
g3
Ntp476
Rp477
(dp478
g7
V335
p479
sg9
VZangoose
p480
sg11
VB2,W2,
p481
sg13
VDark
p482
sg15
V42
p483
sg17
g483
sg19
V10
p484
sbag1
(g2
g3
Ntp485
Rp486
(dp487
g7
V336
p488
sg9
VSeviper
p489
sg11
VB2,W2,
p490
sg13
VDark
p491
sg15
V42
p492
sg17
g492
sg19
V10
p493
sbag1
(g2
g3
Ntp494
Rp495
(dp496
g7
V588
p497
sg9
VKarrablast
p498
sg11
g408
sg13
VDark
p499
sg15
V40
p500
sg17
V43
p501
sg19
V5
p502
sbag1
(g2
g3
Ntp503
Rp504
(dp505
g7
V588
p506
sg9
VKarrablast
p507
sg11
g417
sg13
VDark
p508
sg15
V40
p509
sg17
V43
p510
sg19
V25
p511
sbag1
(g2
g3
Ntp512
Rp513
(dp514
g7
V591
p515
sg9
VAmoonguss
p516
sg11
VB2,W2,
p517
sg13
VDark
p518
sg15
V41
p519
sg17
g519
sg19
V5
p520
sbag1
(g2
g3
Ntp521
Rp522
(dp523
g7
V616
p524
sg9
VShelmet
p525
sg11
g408
sg13
VDark
p526
sg15
V40
p527
sg17
g527
sg19
V25
p528
sbag1
(g2
g3
Ntp529
Rp530
(dp531
g7
V616
p532
sg9
VShelmet
p533
sg11
g417
sg13
VDark
p534
sg15
V40
p535
sg17
g535
sg19
V5
p536
sbag1
(g2
g3
Ntp537
Rp538
(dp539
g7
V184
p540
sg9
VAzumarill
p541
sg11
VB2,W2,
p542
sg13
VRustling
p543
sg15
V39
p544
sg17
g544
sg19
V5
p545
sbag1
(g2
g3
Ntp546
Rp547
(dp548
g7
V472
p549
sg9
VGliscor
p550
sg11
VB2,W2,
p551
sg13
VRustling
p552
sg15
V39
p553
sg17
g553
sg19
V5
p554
sbag1
(g2
g3
Ntp555
Rp556
(dp557
g7
V531
p558
sg9
VAudino
p559
sg11
VB2,W2,
p560
sg13
VRustling
p561
sg15
V36
p562
sg17
V39
p563
sg19
V80
p564
sbag1
(g2
g3
Ntp565
Rp566
(dp567
g7
V587
p568
sg9
VEmolga
p569
sg11
VB2,W2,
p570
sg13
VRustling
p571
sg15
V37
p572
sg17
g572
sg19
V10
p573
sbag1
(g2
g3
Ntp574
Rp575
(dp576
g7
V418
p577
sg9
VBuizel
p578
sg11
VB2,W2,
p579
sg13
VSurf
p580
sg15
V25
p581
sg17
V40
p582
sg19
V30
p583
sbag1
(g2
g3
Ntp584
Rp585
(dp586
g7
V550
p587
sg9
VBasculin
p588
sg11
g408
sg13
VSurf
p589
sg15
V25
p590
sg17
V40
p591
sg19
V70
p592
sbag1
(g2
g3
Ntp593
Rp594
(dp595
g7
V550
p596
sg9
VBasculin
p597
sg11
g417
sg13
VSurf
p598
sg15
V25
p599
sg17
V40
p600
sg19
V70
p601
sbag1
(g2
g3
Ntp602
Rp603
(dp604
g7
V418
p605
sg9
VBuizel
p606
sg11
VB2,W2,
p607
sg13
VRippling
p608
sg15
V25
p609
sg17
V40
p610
sg19
V60
p611
sbag1
(g2
g3
Ntp612
Rp613
(dp614
g7
V419
p615
sg9
VFloatzel
p616
sg11
VB2,W2,
p617
sg13
VRippling
p618
sg15
V30
p619
sg17
V40
p620
sg19
V10
p621
sbag1
(g2
g3
Ntp622
Rp623
(dp624
g7
V550
p625
sg9
VBasculin
p626
sg11
g408
sg13
VRippling
p627
sg15
V25
p628
sg17
V40
p629
sg19
V30
p630
sbag1
(g2
g3
Ntp631
Rp632
(dp633
g7
V550
p634
sg9
VBasculin
p635
sg11
g417
sg13
VRippling
p636
sg15
V25
p637
sg17
V40
p638
sg19
V30
p639
sbag1
(g2
g3
Ntp640
Rp641
(dp642
g7
V118
p643
sg9
VGoldeen
p644
sg11
VB2,W2,
p645
sg13
VFish Super
p646
sg15
V40
p647
sg17
V70
p648
sg19
V70
p649
sbag1
(g2
g3
Ntp650
Rp651
(dp652
g7
V550
p653
sg9
VBasculin
p654
sg11
g408
sg13
VFish Super
p655
sg15
V40
p656
sg17
V50
p657
sg19
V30
p658
sbag1
(g2
g3
Ntp659
Rp660
(dp661
g7
V550
p662
sg9
VBasculin
p663
sg11
g417
sg13
VFish Super
p664
sg15
V40
p665
sg17
V50
p666
sg19
V30
p667
sbag1
(g2
g3
Ntp668
Rp669
(dp670
g7
V118
p671
sg9
VGoldeen
p672
sg11
VB2,W2,
p673
sg13
VRippling
p674
sg15
V40
p675
sg17
V60
p676
sg19
V60
p677
sbag1
(g2
g3
Ntp678
Rp679
(dp680
g7
V119
p681
sg9
VSeaking
p682
sg11
VB2,W2,
p683
sg13
VRippling
p684
sg15
V50
p685
sg17
V70
p686
sg19
V10
p687
sbag1
(g2
g3
Ntp688
Rp689
(dp690
g7
V550
p691
sg9
VBasculin
p692
sg11
g408
sg13
VRippling
p693
sg15
V40
p694
sg17
V60
p695
sg19
V30
p696
sbag1
(g2
g3
Ntp697
Rp698
(dp699
g7
V550
p700
sg9
VBasculin
p701
sg11
g417
sg13
VRippling
p702
sg15
V40
p703
sg17
V60
p704
sg19
V30
p705
sbag1
(g2
g3
Ntp706
Rp707
(dp708
g7
V284
p709
sg9
VMasquerain
p710
sg11
VB2,W2,
p711
sg13
VGrass
p712
sg15
V40
p713
sg17
V55
p714
sg19
V40
p715
sbag1
(g2
g3
Ntp716
Rp717
(dp718
g7
V640
p719
sg9
VVirizion
p720
sg11
VB2,W2,
p721
sg13
VSpecial
p722
sg15
V{{tt|45|First encounter}} / {{tt|65|Second encounter. Only appears if defeated during first encounter
p723
sg17
Vand after the player has entered the Hall of Fame.}}
p724
sg19
V0
p725
sbag1
(g2
g3
Ntp726
Rp727
(dp728
g7
V591
p729
sg9
VAmoonguss
p730
sg11
VB2,W2,
p731
sg13
VFake
p732
sg15
V{{tt|47|Requires Waterfall}}
p733
sg17
g733
sg19
V0
p734
sba.