(lp0
ccopy_reg
_reconstructor
p1
(c__main__
WildPokemon
p2
c__builtin__
object
p3
Ntp4
Rp5
(dp6
VpDexNo
p7
V011
p8
sVpSpecies
p9
VMetapod
p10
sVpGames
p11
VW,
p12
sVpArea
p13
VGrass
p14
sVpMinLevel
p15
V48
p16
sVpMaxLevel
p17
V49
p18
sVpRate
p19
V10
p20
sbag1
(g2
g3
Ntp21
Rp22
(dp23
g7
V014
p24
sg9
VKakuna
p25
sg11
VB,
p26
sg13
VGrass
p27
sg15
V48
p28
sg17
g28
sg19
V10
p29
sbag1
(g2
g3
Ntp30
Rp31
(dp32
g7
V078
p33
sg9
VRapidash
p34
sg11
VB,W,
p35
sg13
VGrass
p36
sg15
V49
p37
sg17
g37
sg19
V10
p38
sbag1
(g2
g3
Ntp39
Rp40
(dp41
g7
V127
p42
sg9
VPinsir
p43
sg11
VB,W,
p44
sg13
VGrass
p45
sg15
V50
p46
sg17
g46
sg19
V5
p47
sbag1
(g2
g3
Ntp48
Rp49
(dp50
g7
V191
p51
sg9
VSunkern
p52
sg11
VB,W,
p53
sg13
VGrass
p54
sg15
V47
p55
sg17
g55
sg19
V20
p56
sbag1
(g2
g3
Ntp57
Rp58
(dp59
g7
V206
p60
sg9
VDunsparce
p61
sg11
VB,W,
p62
sg13
VGrass
p63
sg15
V48
p64
sg17
V49
p65
sg19
V5
p66
sbag1
(g2
g3
Ntp67
Rp68
(dp69
g7
V214
p70
sg9
VHeracross
p71
sg11
VB,W,
p72
sg13
VGrass
p73
sg15
V50
p74
sg17
g74
sg19
V5
p75
sbag1
(g2
g3
Ntp76
Rp77
(dp78
g7
V415
p79
sg9
VCombee
p80
sg11
VB,W,
p81
sg13
VGrass
p82
sg15
V47
p83
sg17
g83
sg19
V20
p84
sbag1
(g2
g3
Ntp85
Rp86
(dp87
g7
V421
p88
sg9
VCherrim
p89
sg11
VB,W,
p90
sg13
VGrass
p91
sg15
V48
p92
sg17
g92
sg19
V10
p93
sbag1
(g2
g3
Ntp94
Rp95
(dp96
g7
V520
p97
sg9
VTranquill
p98
sg11
VB,W,
p99
sg13
VGrass
p100
sg15
V48
p101
sg17
V50
p102
sg19
V15
p103
sbag1
(g2
g3
Ntp104
Rp105
(dp106
g7
V011
p107
sg9
VMetapod
p108
sg11
g12
sg13
VDark
p109
sg15
V58
p110
sg17
V59
p111
sg19
V10
p112
sbag1
(g2
g3
Ntp113
Rp114
(dp115
g7
V014
p116
sg9
VKakuna
p117
sg11
g26
sg13
VDark
p118
sg15
V58
p119
sg17
V59
p120
sg19
V10
p121
sbag1
(g2
g3
Ntp122
Rp123
(dp124
g7
V078
p125
sg9
VRapidash
p126
sg11
VB,W,
p127
sg13
VDark
p128
sg15
V59
p129
sg17
g129
sg19
V10
p130
sbag1
(g2
g3
Ntp131
Rp132
(dp133
g7
V127
p134
sg9
VPinsir
p135
sg11
VB,W,
p136
sg13
VDark
p137
sg15
V60
p138
sg17
g138
sg19
V5
p139
sbag1
(g2
g3
Ntp140
Rp141
(dp142
g7
V191
p143
sg9
VSunkern
p144
sg11
VB,W,
p145
sg13
VDark
p146
sg15
V57
p147
sg17
g147
sg19
V20
p148
sbag1
(g2
g3
Ntp149
Rp150
(dp151
g7
V206
p152
sg9
VDunsparce
p153
sg11
VB,W,
p154
sg13
VDark
p155
sg15
V58
p156
sg17
V59
p157
sg19
V5
p158
sbag1
(g2
g3
Ntp159
Rp160
(dp161
g7
V214
p162
sg9
VHeracross
p163
sg11
VB,W,
p164
sg13
VDark
p165
sg15
V60
p166
sg17
g166
sg19
V5
p167
sbag1
(g2
g3
Ntp168
Rp169
(dp170
g7
V415
p171
sg9
VCombee
p172
sg11
VB,W,
p173
sg13
VDark
p174
sg15
V57
p175
sg17
g175
sg19
V20
p176
sbag1
(g2
g3
Ntp177
Rp178
(dp179
g7
V421
p180
sg9
VCherrim
p181
sg11
VB,W,
p182
sg13
VDark
p183
sg15
V58
p184
sg17
g184
sg19
V10
p185
sbag1
(g2
g3
Ntp186
Rp187
(dp188
g7
V520
p189
sg9
VTranquill
p190
sg11
VB,W,
p191
sg13
VDark
p192
sg15
V58
p193
sg17
V60
p194
sg19
V15
p195
sbag1
(g2
g3
Ntp196
Rp197
(dp198
g7
V012
p199
sg9
VButterfree
p200
sg11
g12
sg13
VRustling
p201
sg15
V50
p202
sg17
g202
sg19
V5
p203
sbag1
(g2
g3
Ntp204
Rp205
(dp206
g7
V015
p207
sg9
VBeedrill
p208
sg11
g26
sg13
VRustling
p209
sg15
V50
p210
sg17
g210
sg19
V5
p211
sbag1
(g2
g3
Ntp212
Rp213
(dp214
g7
V192
p215
sg9
VSunflora
p216
sg11
VB,W,
p217
sg13
VRustling
p218
sg15
V50
p219
sg17
g219
sg19
V5
p220
sbag1
(g2
g3
Ntp221
Rp222
(dp223
g7
V416
p224
sg9
VVespiquen
p225
sg11
VB,W,
p226
sg13
VRustling
p227
sg15
V50
p228
sg17
g228
sg19
V5
p229
sbag1
(g2
g3
Ntp230
Rp231
(dp232
g7
V521
p233
sg9
VUnfezant
p234
sg11
VB,W,
p235
sg13
VRustling
p236
sg15
V50
p237
sg17
g237
sg19
V5
p238
sbag1
(g2
g3
Ntp239
Rp240
(dp241
g7
V531
p242
sg9
VAudino
p243
sg11
VB,W,
p244
sg13
VRustling
p245
sg15
V47
p246
sg17
V50
p247
sg19
V70
p248
sbag1
(g2
g3
Ntp249
Rp250
(dp251
g7
V587
p252
sg9
VEmolga
p253
sg11
VB,W,
p254
sg13
VRustling
p255
sg15
V48
p256
sg17
g256
sg19
V10
p257
sbag1
(g2
g3
Ntp258
Rp259
(dp260
g7
V084
p261
sg9
VDoduo
p262
sg11
VB,W,
p263
sg13
VGrass
p264
sg15
V15
p265
sg17
V55
p266
sg19
V40
p267
sbag1
(g2
g3
Ntp268
Rp269
(dp270
g7
V127
p271
sg9
VPinsir
p272
sg11
VW2,
p273
sg13
VGrass
p274
sg15
V36
p275
sg17
V38
p276
sg19
V15
p277
sbag1
(g2
g3
Ntp278
Rp279
(dp280
g7
V214
p281
sg9
VHeracross
p282
sg11
VB2,
p283
sg13
VGrass
p284
sg15
V36
p285
sg17
V38
p286
sg19
V15
p287
sbag1
(g2
g3
Ntp288
Rp289
(dp290
g7
V315
p291
sg9
VRoselia
p292
sg11
VB2,W2,
p293
sg13
VGrass
p294
sg15
V35
p295
sg17
V37
p296
sg19
V25
p297
sbag1
(g2
g3
Ntp298
Rp299
(dp300
g7
V415
p301
sg9
VCombee
p302
sg11
VB2,W2,
p303
sg13
VGrass
p304
sg15
V35
p305
sg17
g305
sg19
V20
p306
sbag1
(g2
g3
Ntp307
Rp308
(dp309
g7
V520
p310
sg9
VTranquill
p311
sg11
VB2,W2,
p312
sg13
VGrass
p313
sg15
V36
p314
sg17
V38
p315
sg19
V25
p316
sbag1
(g2
g3
Ntp317
Rp318
(dp319
g7
V540
p320
sg9
VSewaddle
p321
sg11
VB2,W2,
p322
sg13
VGrass
p323
sg15
V36
p324
sg17
V38
p325
sg19
V15
p326
sbag1
(g2
g3
Ntp327
Rp328
(dp329
g7
V127
p330
sg9
VPinsir
p331
sg11
g273
sg13
VDark
p332
sg15
V40
p333
sg17
V42
p334
sg19
V15
p335
sbag1
(g2
g3
Ntp336
Rp337
(dp338
g7
V214
p339
sg9
VHeracross
p340
sg11
g283
sg13
VDark
p341
sg15
V40
p342
sg17
V42
p343
sg19
V15
p344
sbag1
(g2
g3
Ntp345
Rp346
(dp347
g7
V315
p348
sg9
VRoselia
p349
sg11
VB2,W2,
p350
sg13
VDark
p351
sg15
V39
p352
sg17
V41
p353
sg19
V25
p354
sbag1
(g2
g3
Ntp355
Rp356
(dp357
g7
V415
p358
sg9
VCombee
p359
sg11
VB2,W2,
p360
sg13
VDark
p361
sg15
V39
p362
sg17
g362
sg19
V20
p363
sbag1
(g2
g3
Ntp364
Rp365
(dp366
g7
V520
p367
sg9
VTranquill
p368
sg11
VB2,W2,
p369
sg13
VDark
p370
sg15
V40
p371
sg17
V42
p372
sg19
V25
p373
sbag1
(g2
g3
Ntp374
Rp375
(dp376
g7
V540
p377
sg9
VSewaddle
p378
sg11
VB2,W2,
p379
sg13
VDark
p380
sg15
V40
p381
sg17
V42
p382
sg19
V15
p383
sbag1
(g2
g3
Ntp384
Rp385
(dp386
g7
V206
p387
sg9
VDunsparce
p388
sg11
VB2,W2,
p389
sg13
VRustling
p390
sg15
V36
p391
sg17
g391
sg19
V10
p392
sbag1
(g2
g3
Ntp393
Rp394
(dp395
g7
V531
p396
sg9
VAudino
p397
sg11
VB2,W2,
p398
sg13
VRustling
p399
sg15
V35
p400
sg17
V37
p401
sg19
V60
p402
sbag1
(g2
g3
Ntp403
Rp404
(dp405
g7
V587
p406
sg9
VEmolga
p407
sg11
VB2,W2,
p408
sg13
VRustling
p409
sg15
V36
p410
sg17
g410
sg19
V10
p411
sbag1
(g2
g3
Ntp412
Rp413
(dp414
g7
V407
p415
sg9
VRoserade
p416
sg11
VB2,W2,
p417
sg13
VRustling
p418
sg15
V38
p419
sg17
g419
sg19
V5
p420
sbag1
(g2
g3
Ntp421
Rp422
(dp423
g7
V416
p424
sg9
VVespiquen
p425
sg11
VB2,W2,
p426
sg13
VRustling
p427
sg15
V38
p428
sg17
g428
sg19
V5
p429
sbag1
(g2
g3
Ntp430
Rp431
(dp432
g7
V521
p433
sg9
VUnfezant
p434
sg11
VB2,W2,
p435
sg13
VRustling
p436
sg15
V38
p437
sg17
g437
sg19
V5
p438
sbag1
(g2
g3
Ntp439
Rp440
(dp441
g7
V542
p442
sg9
VLeavanny
p443
sg11
VB2,W2,
p444
sg13
VRustling
p445
sg15
V38
p446
sg17
g446
sg19
V5
p447
sbag1
(g2
g3
Ntp448
Rp449
(dp450
g7
V084
p451
sg9
VDoduo
p452
sg11
VB2,W2,
p453
sg13
VGrass
p454
sg15
V40
p455
sg17
V55
p456
sg19
V40
p457
sba.