(lp0
ccopy_reg
_reconstructor
p1
(c__main__
WildPokemon
p2
c__builtin__
object
p3
Ntp4
Rp5
(dp6
VpDexNo
p7
V505
p8
sVpSpecies
p9
VWatchog
p10
sVpGames
p11
VB,W,
p12
sVpArea
p13
VTall grass
p14
sVpMinLevel
p15
V27
p16
sVpMaxLevel
p17
V29
p18
sVpRate
p19
V20
p20
sbag1
(g2
g3
Ntp21
Rp22
(dp23
g7
V523
p24
sg9
VZebstrika
p25
sg11
VB,W,
p26
sg13
VTall grass
p27
sg15
V27
p28
sg17
V29
p29
sg19
V20
p30
sbag1
(g2
g3
Ntp31
Rp32
(dp33
g7
V590
p34
sg9
VFoongus
p35
sg11
VB,W,
p36
sg13
VTall grass
p37
sg15
V27
p38
sg17
V29
p39
sg19
V10
p40
sbag1
(g2
g3
Ntp41
Rp42
(dp43
g7
V585
p44
sg9
VDeerling
p45
sg11
VB,W,
p46
sg13
VTall grass
p47
sg15
V26
p48
sg17
g48
sg19
V20
p49
sbag1
(g2
g3
Ntp50
Rp51
(dp52
g7
V585
p53
sg9
VDeerling
p54
sg11
VB,W,
p55
sg13
VTall grass
p56
sg15
V26
p57
sg17
g57
sg19
V20
p58
sbag1
(g2
g3
Ntp59
Rp60
(dp61
g7
V585
p62
sg9
VDeerling
p63
sg11
VB,W,
p64
sg13
VTall grass
p65
sg15
V26
p66
sg17
g66
sg19
V20
p67
sbag1
(g2
g3
Ntp68
Rp69
(dp70
g7
V585
p71
sg9
VDeerling
p72
sg11
VB,W,
p73
sg13
VTall grass
p74
sg15
V26
p75
sg17
g75
sg19
V20
p76
sbag1
(g2
g3
Ntp77
Rp78
(dp79
g7
V520
p80
sg9
VTranquill
p81
sg11
VB,W,
p82
sg13
VTall grass
p83
sg15
V26
p84
sg17
V28
p85
sg19
V30
p86
sbag1
(g2
g3
Ntp87
Rp88
(dp89
g7
V613
p90
sg9
VCubchoo
p91
sg11
VB,W,
p92
sg13
VTall grass
p93
sg15
V26
p94
sg17
V28
p95
sg19
V30
p96
sbag1
(g2
g3
Ntp97
Rp98
(dp99
g7
V505
p100
sg9
VWatchog
p101
sg11
VB,W,
p102
sg13
VDark tall grass
p103
sg15
V31
p104
sg17
V33
p105
sg19
V20
p106
sbag1
(g2
g3
Ntp107
Rp108
(dp109
g7
V523
p110
sg9
VZebstrika
p111
sg11
VB,W,
p112
sg13
VDark tall grass
p113
sg15
V31
p114
sg17
V33
p115
sg19
V20
p116
sbag1
(g2
g3
Ntp117
Rp118
(dp119
g7
V590
p120
sg9
VFoongus
p121
sg11
VB,W,
p122
sg13
VDark tall grass
p123
sg15
V31
p124
sg17
V33
p125
sg19
V10
p126
sbag1
(g2
g3
Ntp127
Rp128
(dp129
g7
V520
p130
sg9
VTranquill
p131
sg11
VB,W,
p132
sg13
VDark tall grass
p133
sg15
V30
p134
sg17
V32
p135
sg19
V30
p136
sbag1
(g2
g3
Ntp137
Rp138
(dp139
g7
V585
p140
sg9
VDeerling
p141
sg11
VB,W,
p142
sg13
VDark tall grass
p143
sg15
V30
p144
sg17
g144
sg19
V20
p145
sbag1
(g2
g3
Ntp146
Rp147
(dp148
g7
V585
p149
sg9
VDeerling
p150
sg11
VB,W,
p151
sg13
VDark tall grass
p152
sg15
V30
p153
sg17
g153
sg19
V20
p154
sbag1
(g2
g3
Ntp155
Rp156
(dp157
g7
V585
p158
sg9
VDeerling
p159
sg11
VB,W,
p160
sg13
VDark tall grass
p161
sg15
V30
p162
sg17
g162
sg19
V20
p163
sbag1
(g2
g3
Ntp164
Rp165
(dp166
g7
V585
p167
sg9
VDeerling
p168
sg11
VB,W,
p169
sg13
VDark tall grass
p170
sg15
V30
p171
sg17
g171
sg19
V20
p172
sbag1
(g2
g3
Ntp173
Rp174
(dp175
g7
V613
p176
sg9
VCubchoo
p177
sg11
VB,W,
p178
sg13
VDark tall grass
p179
sg15
V30
p180
sg17
V32
p181
sg19
V30
p182
sbag1
(g2
g3
Ntp183
Rp184
(dp185
g7
V531
p186
sg9
VAudino
p187
sg11
VB,W,
p188
sg13
VRustling
p189
sg15
V26
p190
sg17
V29
p191
sg19
V90
p192
sbag1
(g2
g3
Ntp193
Rp194
(dp195
g7
V521
p196
sg9
VUnfezant
p197
sg11
VB,W,
p198
sg13
VRustling
p199
sg15
V29
p200
sg17
g200
sg19
V5
p201
sbag1
(g2
g3
Ntp202
Rp203
(dp204
g7
V587
p205
sg9
VEmolga
p206
sg11
VB,W,
p207
sg13
VRustling
p208
sg15
V27
p209
sg17
g209
sg19
V10
p210
sbag1
(g2
g3
Ntp211
Rp212
(dp213
g7
V587
p214
sg9
VEmolga
p215
sg11
VB,W,
p216
sg13
VTrade
p217
sg15
V30
p218
sg17
g218
sg19
V0
p219
sbag1
(g2
g3
Ntp220
Rp221
(dp222
g7
V161
p223
sg9
VSentret
p224
sg11
VB,W,
p225
sg13
VGrass
p226
sg15
V15
p227
sg17
V55
p228
sg19
V40
p229
sbag1
(g2
g3
Ntp230
Rp231
(dp232
g7
V335
p233
sg9
VZangoose
p234
sg11
VB2,W2,
p235
sg13
VTall grass
p236
sg15
V32
p237
sg17
g237
sg19
V5
p238
sbag1
(g2
g3
Ntp239
Rp240
(dp241
g7
V336
p242
sg9
VSeviper
p243
sg11
VB2,W2,
p244
sg13
VTall grass
p245
sg15
V32
p246
sg17
g246
sg19
V5
p247
sbag1
(g2
g3
Ntp248
Rp249
(dp250
g7
V505
p251
sg9
VWatchog
p252
sg11
VB2,W2,
p253
sg13
VTall grass
p254
sg15
V31
p255
sg17
V33
p256
sg19
V15
p257
sbag1
(g2
g3
Ntp258
Rp259
(dp260
g7
V505
p261
sg9
VWatchog
p262
sg11
VB2,W2,
p263
sg13
VTall grass
p264
sg15
V31
p265
sg17
g265
sg19
V10
p266
sbag1
(g2
g3
Ntp267
Rp268
(dp269
g7
V520
p270
sg9
VTranquill
p271
sg11
VB2,W2,
p272
sg13
VTall grass
p273
sg15
V30
p274
sg17
V32
p275
sg19
V30
p276
sbag1
(g2
g3
Ntp277
Rp278
(dp279
g7
V520
p280
sg9
VTranquill
p281
sg11
VB2,W2,
p282
sg13
VTall grass
p283
sg15
V30
p284
sg17
g284
sg19
V10
p285
sbag1
(g2
g3
Ntp286
Rp287
(dp288
g7
V523
p289
sg9
VZebstrika
p290
sg11
VB2,W2,
p291
sg13
VTall grass
p292
sg15
V31
p293
sg17
V33
p294
sg19
V20
p295
sbag1
(g2
g3
Ntp296
Rp297
(dp298
g7
V585
p299
sg9
VDeerling
p300
sg11
VB2,W2,
p301
sg13
VTall grass
p302
sg15
V30
p303
sg17
g303
sg19
V20
p304
sbag1
(g2
g3
Ntp305
Rp306
(dp307
g7
V585
p308
sg9
VDeerling
p309
sg11
VB2,W2,
p310
sg13
VTall grass
p311
sg15
V30
p312
sg17
g312
sg19
V20
p313
sbag1
(g2
g3
Ntp314
Rp315
(dp316
g7
V585
p317
sg9
VDeerling
p318
sg11
VB2,W2,
p319
sg13
VTall grass
p320
sg15
V30
p321
sg17
g321
sg19
V20
p322
sbag1
(g2
g3
Ntp323
Rp324
(dp325
g7
V585
p326
sg9
VDeerling
p327
sg11
VB2,W2,
p328
sg13
VTall grass
p329
sg15
V30
p330
sg17
g330
sg19
V20
p331
sbag1
(g2
g3
Ntp332
Rp333
(dp334
g7
V590
p335
sg9
VFoongus
p336
sg11
VB2,W2,
p337
sg13
VTall grass
p338
sg15
V33
p339
sg17
g339
sg19
V5
p340
sbag1
(g2
g3
Ntp341
Rp342
(dp343
g7
V613
p344
sg9
VCubchoo
p345
sg11
VB2,W2,
p346
sg13
VTall grass
p347
sg15
V30
p348
sg17
V33
p349
sg19
V25
p350
sbag1
(g2
g3
Ntp351
Rp352
(dp353
g7
V335
p354
sg9
VZangoose
p355
sg11
VB2,W2,
p356
sg13
VDark tall grass
p357
sg15
V35
p358
sg17
g358
sg19
V5
p359
sbag1
(g2
g3
Ntp360
Rp361
(dp362
g7
V336
p363
sg9
VSeviper
p364
sg11
VB2,W2,
p365
sg13
VDark tall grass
p366
sg15
V35
p367
sg17
g367
sg19
V5
p368
sbag1
(g2
g3
Ntp369
Rp370
(dp371
g7
V505
p372
sg9
VWatchog
p373
sg11
VB2,W2,
p374
sg13
VDark tall grass
p375
sg15
V34
p376
sg17
V36
p377
sg19
V15
p378
sbag1
(g2
g3
Ntp379
Rp380
(dp381
g7
V505
p382
sg9
VWatchog
p383
sg11
VB2,W2,
p384
sg13
VDark tall grass
p385
sg15
V34
p386
sg17
g386
sg19
V10
p387
sbag1
(g2
g3
Ntp388
Rp389
(dp390
g7
V520
p391
sg9
VTranquill
p392
sg11
VB2,W2,
p393
sg13
VDark tall grass
p394
sg15
V33
p395
sg17
V35
p396
sg19
V30
p397
sbag1
(g2
g3
Ntp398
Rp399
(dp400
g7
V520
p401
sg9
VTranquill
p402
sg11
VB2,W2,
p403
sg13
VDark tall grass
p404
sg15
V33
p405
sg17
g405
sg19
V10
p406
sbag1
(g2
g3
Ntp407
Rp408
(dp409
g7
V523
p410
sg9
VZebstrika
p411
sg11
VB2,W2,
p412
sg13
VDark tall grass
p413
sg15
V34
p414
sg17
V36
p415
sg19
V20
p416
sbag1
(g2
g3
Ntp417
Rp418
(dp419
g7
V585
p420
sg9
VDeerling
p421
sg11
VB2,W2,
p422
sg13
VDark tall grass
p423
sg15
V33
p424
sg17
g424
sg19
V20
p425
sbag1
(g2
g3
Ntp426
Rp427
(dp428
g7
V585
p429
sg9
VDeerling
p430
sg11
VB2,W2,
p431
sg13
VDark tall grass
p432
sg15
V33
p433
sg17
g433
sg19
V20
p434
sbag1
(g2
g3
Ntp435
Rp436
(dp437
g7
V585
p438
sg9
VDeerling
p439
sg11
VB2,W2,
p440
sg13
VDark tall grass
p441
sg15
V33
p442
sg17
g442
sg19
V20
p443
sbag1
(g2
g3
Ntp444
Rp445
(dp446
g7
V585
p447
sg9
VDeerling
p448
sg11
VB2,W2,
p449
sg13
VDark tall grass
p450
sg15
V33
p451
sg17
g451
sg19
V20
p452
sbag1
(g2
g3
Ntp453
Rp454
(dp455
g7
V590
p456
sg9
VFoongus
p457
sg11
VB2,W2,
p458
sg13
VDark tall grass
p459
sg15
V36
p460
sg17
g460
sg19
V5
p461
sbag1
(g2
g3
Ntp462
Rp463
(dp464
g7
V613
p465
sg9
VCubchoo
p466
sg11
VB2,W2,
p467
sg13
VDark tall grass
p468
sg15
V33
p469
sg17
V36
p470
sg19
V25
p471
sbag1
(g2
g3
Ntp472
Rp473
(dp474
g7
V521
p475
sg9
VUnfezant
p476
sg11
VB2,W2,
p477
sg13
VRustling
p478
sg15
V33
p479
sg17
g479
sg19
V5
p480
sbag1
(g2
g3
Ntp481
Rp482
(dp483
g7
V531
p484
sg9
VAudino
p485
sg11
VB2,W2,
p486
sg13
VRustling
p487
sg15
V30
p488
sg17
V33
p489
sg19
V85
p490
sbag1
(g2
g3
Ntp491
Rp492
(dp493
g7
V587
p494
sg9
VEmolga
p495
sg11
VB2,W2,
p496
sg13
VRustling
p497
sg15
V31
p498
sg17
g498
sg19
V10
p499
sbag1
(g2
g3
Ntp500
Rp501
(dp502
g7
V162
p503
sg9
VFurret
p504
sg11
VB2,W2,
p505
sg13
VGrass
p506
sg15
V40
p507
sg17
V55
p508
sg19
V40
p509
sbag1
(g2
g3
Ntp510
Rp511
(dp512
g7
V335
p513
sg9
VZangoose
p514
sg11
VB2,W2,
p515
sg13
VGrotto
p516
sg15
V30
p517
sg17
V35
p518
sg19
V0
p519
sbag1
(g2
g3
Ntp520
Rp521
(dp522
g7
V336
p523
sg9
VSeviper
p524
sg11
VB2,W2,
p525
sg13
VGrotto
p526
sg15
V30
p527
sg17
V35
p528
sg19
V0
p529
sbag1
(g2
g3
Ntp530
Rp531
(dp532
g7
V505
p533
sg9
VWatchog
p534
sg11
VB2,W2,
p535
sg13
VGrotto
p536
sg15
V30
p537
sg17
V35
p538
sg19
V0
p539
sbag1
(g2
g3
Ntp540
Rp541
(dp542
g7
V613
p543
sg9
VCubchoo
p544
sg11
VB2,W2,
p545
sg13
VGrotto
p546
sg15
V30
p547
sg17
V35
p548
sg19
V0
p549
sbag1
(g2
g3
Ntp550
Rp551
(dp552
g7
V526
p553
sg9
VGigalith
p554
sg11
VB2,W2,
p555
sg13
VTrade
p556
sg15
V35
p557
sg17
g557
sg19
V0
p558
sbag1
(g2
g3
Ntp559
Rp560
(dp561
g7
V590
p562
sg9
VFoongus
p563
sg11
VB2,W2,
p564
sg13
VFake
p565
sg15
V36
p566
sg17
g566
sg19
V0
p567
sba.