(lp0
ccopy_reg
_reconstructor
p1
(c__main__
WildPokemon
p2
c__builtin__
object
p3
Ntp4
Rp5
(dp6
VpDexNo
p7
V042
p8
sVpSpecies
p9
VGolbat
p10
sVpGames
p11
VB,W,
p12
sVpArea
p13
VGrass
p14
sVpMinLevel
p15
V48
p16
sVpMaxLevel
p17
V50
p18
sVpRate
p19
V15
p20
sbag1
(g2
g3
Ntp21
Rp22
(dp23
g7
V114
p24
sg9
VTangela
p25
sg11
VB,W,
p26
sg13
VGrass
p27
sg15
V47
p28
sg17
V49
p29
sg19
V25
p30
sbag1
(g2
g3
Ntp31
Rp32
(dp33
g7
V277
p34
sg9
VSwellow
p35
sg11
VB,W,
p36
sg13
VGrass
p37
sg15
V47
p38
sg17
g38
sg19
V20
p39
sbag1
(g2
g3
Ntp40
Rp41
(dp42
g7
V337
p43
sg9
VLunatone
p44
sg11
VB,W,
p45
sg13
VGrass
p46
sg15
V48
p47
sg17
g47
sg19
V10
p48
sbag1
(g2
g3
Ntp49
Rp50
(dp51
g7
V338
p52
sg9
VSolrock
p53
sg11
VB,W,
p54
sg13
VGrass
p55
sg15
V48
p56
sg17
g56
sg19
V10
p57
sbag1
(g2
g3
Ntp58
Rp59
(dp60
g7
V359
p61
sg9
VAbsol
p62
sg11
VB,W,
p63
sg13
VGrass
p64
sg15
V48
p65
sg17
V50
p66
sg19
V10
p67
sbag1
(g2
g3
Ntp68
Rp69
(dp70
g7
V426
p71
sg9
VDrifblim
p72
sg11
VB,W,
p73
sg13
VGrass
p74
sg15
V49
p75
sg17
g75
sg19
V10
p76
sbag1
(g2
g3
Ntp77
Rp78
(dp79
g7
V042
p80
sg9
VGolbat
p81
sg11
VB,W,
p82
sg13
VDark
p83
sg15
V58
p84
sg17
V60
p85
sg19
V15
p86
sbag1
(g2
g3
Ntp87
Rp88
(dp89
g7
V114
p90
sg9
VTangela
p91
sg11
VB,W,
p92
sg13
VDark
p93
sg15
V57
p94
sg17
V59
p95
sg19
V25
p96
sbag1
(g2
g3
Ntp97
Rp98
(dp99
g7
V277
p100
sg9
VSwellow
p101
sg11
VB,W,
p102
sg13
VDark
p103
sg15
V57
p104
sg17
g104
sg19
V20
p105
sbag1
(g2
g3
Ntp106
Rp107
(dp108
g7
V337
p109
sg9
VLunatone
p110
sg11
VB,W,
p111
sg13
VDark
p112
sg15
V58
p113
sg17
g113
sg19
V10
p114
sbag1
(g2
g3
Ntp115
Rp116
(dp117
g7
V338
p118
sg9
VSolrock
p119
sg11
VB,W,
p120
sg13
VDark
p121
sg15
V58
p122
sg17
g122
sg19
V10
p123
sbag1
(g2
g3
Ntp124
Rp125
(dp126
g7
V359
p127
sg9
VAbsol
p128
sg11
VB,W,
p129
sg13
VDark
p130
sg15
V58
p131
sg17
V60
p132
sg19
V10
p133
sbag1
(g2
g3
Ntp134
Rp135
(dp136
g7
V426
p137
sg9
VDrifblim
p138
sg11
VB,W,
p139
sg13
VDark
p140
sg15
V59
p141
sg17
g141
sg19
V10
p142
sbag1
(g2
g3
Ntp143
Rp144
(dp145
g7
V169
p146
sg9
VCrobat
p147
sg11
VB,W,
p148
sg13
VRustling
p149
sg15
V50
p150
sg17
g150
sg19
V5
p151
sbag1
(g2
g3
Ntp152
Rp153
(dp154
g7
V465
p155
sg9
VTangrowth
p156
sg11
VB,W,
p157
sg13
VRustling
p158
sg15
V50
p159
sg17
g159
sg19
V5
p160
sbag1
(g2
g3
Ntp161
Rp162
(dp163
g7
V531
p164
sg9
VAudino
p165
sg11
VB,W,
p166
sg13
VRustling
p167
sg15
V47
p168
sg17
V50
p169
sg19
V80
p170
sbag1
(g2
g3
Ntp171
Rp172
(dp173
g7
V587
p174
sg9
VEmolga
p175
sg11
VB,W,
p176
sg13
VRustling
p177
sg15
V48
p178
sg17
g178
sg19
V10
p179
sbag1
(g2
g3
Ntp180
Rp181
(dp182
g7
V120
p183
sg9
VStaryu
p184
sg11
VB,W,
p185
sg13
VSurf
p186
sg15
V25
p187
sg17
V55
p188
sg19
V30
p189
sbag1
(g2
g3
Ntp190
Rp191
(dp192
g7
V278
p193
sg9
VWingull
p194
sg11
VB,W,
p195
sg13
VSurf
p196
sg15
V25
p197
sg17
V55
p198
sg19
V60
p199
sbag1
(g2
g3
Ntp200
Rp201
(dp202
g7
V279
p203
sg9
VPelipper
p204
sg11
VB,W,
p205
sg13
VSurf
p206
sg15
V25
p207
sg17
V55
p208
sg19
V10
p209
sbag1
(g2
g3
Ntp210
Rp211
(dp212
g7
V120
p213
sg9
VStaryu
p214
sg11
VB,W,
p215
sg13
VRippling
p216
sg15
V25
p217
sg17
V60
p218
sg19
V60
p219
sbag1
(g2
g3
Ntp220
Rp221
(dp222
g7
V121
p223
sg9
VStarmie
p224
sg11
VB,W,
p225
sg13
VRippling
p226
sg15
V35
p227
sg17
V70
p228
sg19
V10
p229
sbag1
(g2
g3
Ntp230
Rp231
(dp232
g7
V222
p233
sg9
VCorsola
p234
sg11
VB,W,
p235
sg13
VRippling
p236
sg15
V25
p237
sg17
V60
p238
sg19
V30
p239
sbag1
(g2
g3
Ntp240
Rp241
(dp242
g7
V090
p243
sg9
VShellder
p244
sg11
VB,W,
p245
sg13
VFish Super
p246
sg15
V35
p247
sg17
V55
p248
sg19
V40
p249
sbag1
(g2
g3
Ntp250
Rp251
(dp252
g7
V098
p253
sg9
VKrabby
p254
sg11
VB,W,
p255
sg13
VFish Super
p256
sg15
V35
p257
sg17
V55
p258
sg19
V55
p259
sbag1
(g2
g3
Ntp260
Rp261
(dp262
g7
V370
p263
sg9
VLuvdisc
p264
sg11
VB,W,
p265
sg13
VFish Super
p266
sg15
V35
p267
sg17
V55
p268
sg19
V5
p269
sbag1
(g2
g3
Ntp270
Rp271
(dp272
g7
V090
p273
sg9
VShellder
p274
sg11
VB,W,
p275
sg13
VRippling
p276
sg15
V35
p277
sg17
V60
p278
sg19
V40
p279
sbag1
(g2
g3
Ntp280
Rp281
(dp282
g7
V091
p283
sg9
VCloyster
p284
sg11
VB,W,
p285
sg13
VRippling
p286
sg15
V45
p287
sg17
V70
p288
sg19
V5
p289
sbag1
(g2
g3
Ntp290
Rp291
(dp292
g7
V099
p293
sg9
VKingler
p294
sg11
VB,W,
p295
sg13
VRippling
p296
sg15
V35
p297
sg17
V70
p298
sg19
V15
p299
sbag1
(g2
g3
Ntp300
Rp301
(dp302
g7
V370
p303
sg9
VLuvdisc
p304
sg11
VB,W,
p305
sg13
VRippling
p306
sg15
V35
p307
sg17
V60
p308
sg19
V40
p309
sbag1
(g2
g3
Ntp310
Rp311
(dp312
g7
V353
p313
sg9
VShuppet
p314
sg11
VB,W,
p315
sg13
VGrass
p316
sg15
V15
p317
sg17
V55
p318
sg19
V40
p319
sbag1
(g2
g3
Ntp320
Rp321
(dp322
g7
V114
p323
sg9
VTangela
p324
sg11
VB2,W2,
p325
sg13
VGrass
p326
sg15
V34
p327
sg17
V37
p328
sg19
V25
p329
sbag1
(g2
g3
Ntp330
Rp331
(dp332
g7
V279
p333
sg9
VPelipper
p334
sg11
VB2,W2,
p335
sg13
VGrass
p336
sg15
V34
p337
sg17
V37
p338
sg19
V25
p339
sbag1
(g2
g3
Ntp340
Rp341
(dp342
g7
V337
p343
sg9
VLunatone
p344
sg11
VB2,W2,
p345
sg13
VGrass
p346
sg15
V36
p347
sg17
g347
sg19
V10
p348
sbag1
(g2
g3
Ntp349
Rp350
(dp351
g7
V338
p352
sg9
VSolrock
p353
sg11
VB2,W2,
p354
sg13
VGrass
p355
sg15
V36
p356
sg17
g356
sg19
V10
p357
sbag1
(g2
g3
Ntp358
Rp359
(dp360
g7
V359
p361
sg9
VAbsol
p362
sg11
VB2,W2,
p363
sg13
VGrass
p364
sg15
V35
p365
sg17
V37
p366
sg19
V15
p367
sbag1
(g2
g3
Ntp368
Rp369
(dp370
g7
V426
p371
sg9
VDrifblim
p372
sg11
VB2,W2,
p373
sg13
VGrass
p374
sg15
V34
p375
sg17
V35
p376
sg19
V15
p377
sbag1
(g2
g3
Ntp378
Rp379
(dp380
g7
V114
p381
sg9
VTangela
p382
sg11
VB2,W2,
p383
sg13
VDark
p384
sg15
V38
p385
sg17
V41
p386
sg19
V25
p387
sbag1
(g2
g3
Ntp388
Rp389
(dp390
g7
V279
p391
sg9
VPelipper
p392
sg11
VB2,W2,
p393
sg13
VDark
p394
sg15
V38
p395
sg17
V41
p396
sg19
V25
p397
sbag1
(g2
g3
Ntp398
Rp399
(dp400
g7
V337
p401
sg9
VLunatone
p402
sg11
VB2,W2,
p403
sg13
VDark
p404
sg15
V40
p405
sg17
g405
sg19
V10
p406
sbag1
(g2
g3
Ntp407
Rp408
(dp409
g7
V338
p410
sg9
VSolrock
p411
sg11
VB2,W2,
p412
sg13
VDark
p413
sg15
V40
p414
sg17
g414
sg19
V10
p415
sbag1
(g2
g3
Ntp416
Rp417
(dp418
g7
V359
p419
sg9
VAbsol
p420
sg11
VB2,W2,
p421
sg13
VDark
p422
sg15
V39
p423
sg17
V41
p424
sg19
V15
p425
sbag1
(g2
g3
Ntp426
Rp427
(dp428
g7
V426
p429
sg9
VDrifblim
p430
sg11
VB2,W2,
p431
sg13
VDark
p432
sg15
V38
p433
sg17
V39
p434
sg19
V15
p435
sbag1
(g2
g3
Ntp436
Rp437
(dp438
g7
V465
p439
sg9
VTangrowth
p440
sg11
VB2,W2,
p441
sg13
VRustling
p442
sg15
V37
p443
sg17
g443
sg19
V5
p444
sbag1
(g2
g3
Ntp445
Rp446
(dp447
g7
V531
p448
sg9
VAudino
p449
sg11
VB2,W2,
p450
sg13
VRustling
p451
sg15
V34
p452
sg17
V37
p453
sg19
V85
p454
sbag1
(g2
g3
Ntp455
Rp456
(dp457
g7
V587
p458
sg9
VEmolga
p459
sg11
VB2,W2,
p460
sg13
VRustling
p461
sg15
V35
p462
sg17
g462
sg19
V10
p463
sbag1
(g2
g3
Ntp464
Rp465
(dp466
g7
V120
p467
sg9
VStaryu
p468
sg11
VB2,W2,
p469
sg13
VSurf
p470
sg15
V25
p471
sg17
V40
p472
sg19
V30
p473
sbag1
(g2
g3
Ntp474
Rp475
(dp476
g7
V550
p477
sg9
VBasculin
p478
sg11
VB2,
p479
sg13
VSurf
p480
sg15
V30
p481
sg17
V40
p482
sg19
V5
p483
sbag1
(g2
g3
Ntp484
Rp485
(dp486
g7
V550
p487
sg9
VBasculin
p488
sg11
VW2,
p489
sg13
VSurf
p490
sg15
V30
p491
sg17
V40
p492
sg19
V5
p493
sbag1
(g2
g3
Ntp494
Rp495
(dp496
g7
V592
p497
sg9
VFrillish
p498
sg11
VB2,W2,
p499
sg13
VSurf
p500
sg15
V25
p501
sg17
V40
p502
sg19
V65
p503
sbag1
(g2
g3
Ntp504
Rp505
(dp506
g7
V120
p507
sg9
VStaryu
p508
sg11
VB2,W2,
p509
sg13
VRippling
p510
sg15
V25
p511
sg17
V40
p512
sg19
V60
p513
sbag1
(g2
g3
Ntp514
Rp515
(dp516
g7
V121
p517
sg9
VStarmie
p518
sg11
VB2,W2,
p519
sg13
VRippling
p520
sg15
V30
p521
sg17
V40
p522
sg19
V5
p523
sbag1
(g2
g3
Ntp524
Rp525
(dp526
g7
V550
p527
sg9
VBasculin
p528
sg11
g479
sg13
VRippling
p529
sg15
V30
p530
sg17
V40
p531
sg19
V5
p532
sbag1
(g2
g3
Ntp533
Rp534
(dp535
g7
V550
p536
sg9
VBasculin
p537
sg11
g489
sg13
VRippling
p538
sg15
V30
p539
sg17
V40
p540
sg19
V5
p541
sbag1
(g2
g3
Ntp542
Rp543
(dp544
g7
V593
p545
sg9
VJellicent
p546
sg11
VB2,W2,
p547
sg13
VRippling
p548
sg15
V25
p549
sg17
V40
p550
sg19
V30
p551
sbag1
(g2
g3
Ntp552
Rp553
(dp554
g7
V090
p555
sg9
VShellder
p556
sg11
VB2,W2,
p557
sg13
VFish Super
p558
sg15
V40
p559
sg17
V60
p560
sg19
V40
p561
sbag1
(g2
g3
Ntp562
Rp563
(dp564
g7
V370
p565
sg9
VLuvdisc
p566
sg11
VB2,W2,
p567
sg13
VFish Super
p568
sg15
V40
p569
sg17
V70
p570
sg19
V60
p571
sbag1
(g2
g3
Ntp572
Rp573
(dp574
g7
V090
p575
sg9
VShellder
p576
sg11
VB2,W2,
p577
sg13
VRippling
p578
sg15
V40
p579
sg17
V70
p580
sg19
V55
p581
sbag1
(g2
g3
Ntp582
Rp583
(dp584
g7
V091
p585
sg9
VCloyster
p586
sg11
VB2,W2,
p587
sg13
VRippling
p588
sg15
V50
p589
sg17
V70
p590
sg19
V5
p591
sbag1
(g2
g3
Ntp592
Rp593
(dp594
g7
V370
p595
sg9
VLuvdisc
p596
sg11
VB2,W2,
p597
sg13
VRippling
p598
sg15
V40
p599
sg17
V60
p600
sg19
V40
p601
sbag1
(g2
g3
Ntp602
Rp603
(dp604
g7
V277
p605
sg9
VSwellow
p606
sg11
VB2,W2,
p607
sg13
VGrass
p608
sg15
V40
p609
sg17
V55
p610
sg19
V40
p611
sbag1
(g2
g3
Ntp612
Rp613
(dp614
g7
V363
p615
sg9
VSpheal
p616
sg11
VB2,W2,
p617
sg13
VGrotto
p618
sg15
V35
p619
sg17
V40
p620
sg19
V0
p621
sbag1
(g2
g3
Ntp622
Rp623
(dp624
g7
V425
p625
sg9
VDrifloon
p626
sg11
VB2,W2,
p627
sg13
VGrotto
p628
sg15
V35
p629
sg17
V40
p630
sg19
V0
p631
sbag1
(g2
g3
Ntp632
Rp633
(dp634
g7
V590
p635
sg9
VFoongus
p636
sg11
VB2,W2,
p637
sg13
VGrotto
p638
sg15
V35
p639
sg17
V40
p640
sg19
V0
p641
sbag1
(g2
g3
Ntp642
Rp643
(dp644
g7
V114
p645
sg9
VTangela
p646
sg11
VB2,W2,
p647
sg13
VGrotto
p648
sg15
V35
p649
sg17
V40
p650
sg19
V0
p651
sbag1
(g2
g3
Ntp652
Rp653
(dp654
g7
V451
p655
sg9
VSkorupi
p656
sg11
VB2,W2,
p657
sg13
VGrotto
p658
sg15
V35
p659
sg17
V40
p660
sg19
V0
p661
sbag1
(g2
g3
Ntp662
Rp663
(dp664
g7
V590
p665
sg9
VFoongus
p666
sg11
VB2,W2,
p667
sg13
VGrotto
p668
sg15
V35
p669
sg17
V40
p670
sg19
V0
p671
sbag1
(g2
g3
Ntp672
Rp673
(dp674
g7
V638
p675
sg9
VCobalion
p676
sg11
VB2,W2,
p677
sg13
VSpecial
p678
sg15
V{{tt|45|First encounter}} / {{tt|65|Second encounter. Only appears if defeated during first encounter
p679
sg17
Vand after the player has entered the Hall of Fame.}}
p680
sg19
V0
p681
sba.