(lp0
ccopy_reg
_reconstructor
p1
(c__main__
WildPokemon
p2
c__builtin__
object
p3
Ntp4
Rp5
(dp6
VpDexNo
p7
V504
p8
sVpSpecies
p9
VPatrat
p10
sVpGames
p11
VB,W,
p12
sVpArea
p13
VGrass
p14
sVpMinLevel
p15
V4
p16
sVpMaxLevel
p17
V7
p18
sVpRate
p19
V40
p20
sbag1
(g2
g3
Ntp21
Rp22
(dp23
g7
V506
p24
sg9
VLillipup
p25
sg11
VB,W,
p26
sg13
VGrass
p27
sg15
g16
sg17
g18
sg19
V40
p28
sbag1
(g2
g3
Ntp29
Rp30
(dp31
g7
V509
p32
sg9
VPurrloin
p33
sg11
VB,W,
p34
sg13
VGrass
p35
sg15
g16
sg17
V5
p36
sg19
V20
p37
sbag1
(g2
g3
Ntp38
Rp39
(dp40
g7
V531
p41
sg9
VAudino
p42
sg11
VB,W,
p43
sg13
VRustling
p44
sg15
g16
sg17
g18
sg19
V100
p45
sbag1
(g2
g3
Ntp46
Rp47
(dp48
g7
V360
p49
sg9
VWynaut
p50
sg11
VB,W,
p51
sg13
VGrass
p52
sg15
V15
p53
sg17
V55
p54
sg19
V40
p55
sbag1
(g2
g3
Ntp56
Rp57
(dp58
g7
V039
p59
sg9
VJigglypuff
p60
sg11
VB2,W2,
p61
sg13
VGrass
p62
sg15
V57
p63
sg17
g63
sg19
V10
p64
sbag1
(g2
g3
Ntp65
Rp66
(dp67
g7
V108
p68
sg9
VLickitung
p69
sg11
VB2,W2,
p70
sg13
VGrass
p71
sg15
V58
p72
sg17
g72
sg19
V10
p73
sbag1
(g2
g3
Ntp74
Rp75
(dp76
g7
V505
p77
sg9
VWatchog
p78
sg11
VB2,W2,
p79
sg13
VGrass
p80
sg15
V56
p81
sg17
V59
p82
sg19
V30
p83
sbag1
(g2
g3
Ntp84
Rp85
(dp86
g7
V507
p87
sg9
VHerdier
p88
sg11
VB2,W2,
p89
sg13
VGrass
p90
sg15
V56
p91
sg17
V59
p92
sg19
V30
p93
sbag1
(g2
g3
Ntp94
Rp95
(dp96
g7
V510
p97
sg9
VLiepard
p98
sg11
VB2,W2,
p99
sg13
VGrass
p100
sg15
V57
p101
sg17
V58
p102
sg19
V20
p103
sbag1
(g2
g3
Ntp104
Rp105
(dp106
g7
V040
p107
sg9
VWigglytuff
p108
sg11
VB2,W2,
p109
sg13
VRustling
p110
sg15
V59
p111
sg17
g111
sg19
V5
p112
sbag1
(g2
g3
Ntp113
Rp114
(dp115
g7
V206
p116
sg9
VDunsparce
p117
sg11
VB2,W2,
p118
sg13
VRustling
p119
sg15
V57
p120
sg17
g120
sg19
V10
p121
sbag1
(g2
g3
Ntp122
Rp123
(dp124
g7
V463
p125
sg9
VLickilicky
p126
sg11
VB2,W2,
p127
sg13
VRustling
p128
sg15
V59
p129
sg17
g129
sg19
V5
p130
sbag1
(g2
g3
Ntp131
Rp132
(dp133
g7
V508
p134
sg9
VStoutland
p135
sg11
VB2,W2,
p136
sg13
VRustling
p137
sg15
V59
p138
sg17
g138
sg19
V5
p139
sbag1
(g2
g3
Ntp140
Rp141
(dp142
g7
V531
p143
sg9
VAudino
p144
sg11
VB2,W2,
p145
sg13
VRustling
p146
sg15
V56
p147
sg17
V59
p148
sg19
V75
p149
sbag1
(g2
g3
Ntp150
Rp151
(dp152
g7
V029
p153
sg9
VNidoran\u2640
p154
sg11
VB2,W2,
p155
sg13
VGrotto
p156
sg15
V55
p157
sg17
V60
p158
sg19
V0
p159
sbag1
(g2
g3
Ntp160
Rp161
(dp162
g7
V032
p163
sg9
VNidoran\u2642
p164
sg11
VB2,W2,
p165
sg13
VGrotto
p166
sg15
V55
p167
sg17
V60
p168
sg19
V0
p169
sbag1
(g2
g3
Ntp170
Rp171
(dp172
g7
V210
p173
sg9
VGranbull
p174
sg11
VB2,W2,
p175
sg13
VGrotto
p176
sg15
V55
p177
sg17
V60
p178
sg19
V0
p179
sbag1
(g2
g3
Ntp180
Rp181
(dp182
g7
V505
p183
sg9
VWatchog
p184
sg11
VB2,W2,
p185
sg13
VGrotto
p186
sg15
V55
p187
sg17
V60
p188
sg19
V0
p189
sbag1
(g2
g3
Ntp190
Rp191
(dp192
g7
V509
p193
sg9
VPurrloin
p194
sg11
VB2,W2,
p195
sg13
VSpecial
p196
sg15
g18
sg17
g18
sg19
V0
p197
sba.