(lp0
ccopy_reg
_reconstructor
p1
(c__main__
WildPokemon
p2
c__builtin__
object
p3
Ntp4
Rp5
(dp6
VpDexNo
p7
V055
p8
sVpSpecies
p9
VGolduck
p10
sVpGames
p11
VB2,W2,
p12
sVpArea
p13
VGrass
p14
sVpMinLevel
p15
V50
p16
sVpMaxLevel
p17
g16
sVpRate
p18
V10
p19
sbag1
(g2
g3
Ntp20
Rp21
(dp22
g7
V207
p23
sg9
VGligar
p24
sg11
VB2,W2,
p25
sg13
VGrass
p26
sg15
V49
p27
sg17
g27
sg18
V10
p28
sbag1
(g2
g3
Ntp29
Rp30
(dp31
g7
V538
p32
sg9
VThroh
p33
sg11
VW2,
p34
sg13
VGrass
p35
sg15
V48
p36
sg17
V49
p37
sg18
V25
p38
sbag1
(g2
g3
Ntp39
Rp40
(dp41
g7
V539
p42
sg9
VSawk
p43
sg11
VB2,
p44
sg13
VGrass
p45
sg15
V48
p46
sg17
V49
p47
sg18
V25
p48
sbag1
(g2
g3
Ntp49
Rp50
(dp51
g7
V591
p52
sg9
VAmoonguss
p53
sg11
VB2,W2,
p54
sg13
VGrass
p55
sg15
V49
p56
sg17
g56
sg18
V10
p57
sbag1
(g2
g3
Ntp58
Rp59
(dp60
g7
V619
p61
sg9
VMienfoo
p62
sg11
VB2,W2,
p63
sg13
VGrass
p64
sg15
V48
p65
sg17
g65
sg18
V15
p66
sbag1
(g2
g3
Ntp67
Rp68
(dp69
g7
V626
p70
sg9
VBouffalant
p71
sg11
VB2,W2,
p72
sg13
VGrass
p73
sg15
V49
p74
sg17
V51
p75
sg18
V25
p76
sbag1
(g2
g3
Ntp77
Rp78
(dp79
g7
V627
p80
sg9
VRufflet
p81
sg11
g34
sg13
VGrass
p82
sg15
V47
p83
sg17
g83
sg18
V5
p84
sbag1
(g2
g3
Ntp85
Rp86
(dp87
g7
V629
p88
sg9
VVullaby
p89
sg11
g44
sg13
VGrass
p90
sg15
V47
p91
sg17
g91
sg18
V5
p92
sbag1
(g2
g3
Ntp93
Rp94
(dp95
g7
V055
p96
sg9
VGolduck
p97
sg11
VB2,W2,
p98
sg13
VDark
p99
sg15
V55
p100
sg17
g100
sg18
V10
p101
sbag1
(g2
g3
Ntp102
Rp103
(dp104
g7
V207
p105
sg9
VGligar
p106
sg11
VB2,W2,
p107
sg13
VDark
p108
sg15
V54
p109
sg17
g109
sg18
V10
p110
sbag1
(g2
g3
Ntp111
Rp112
(dp113
g7
V538
p114
sg9
VThroh
p115
sg11
g34
sg13
VDark
p116
sg15
V53
p117
sg17
V54
p118
sg18
V25
p119
sbag1
(g2
g3
Ntp120
Rp121
(dp122
g7
V539
p123
sg9
VSawk
p124
sg11
g44
sg13
VDark
p125
sg15
V53
p126
sg17
V54
p127
sg18
V25
p128
sbag1
(g2
g3
Ntp129
Rp130
(dp131
g7
V591
p132
sg9
VAmoonguss
p133
sg11
VB2,W2,
p134
sg13
VDark
p135
sg15
V54
p136
sg17
g136
sg18
V10
p137
sbag1
(g2
g3
Ntp138
Rp139
(dp140
g7
V620
p141
sg9
VMienshao
p142
sg11
VB2,W2,
p143
sg13
VDark
p144
sg15
V53
p145
sg17
g145
sg18
V15
p146
sbag1
(g2
g3
Ntp147
Rp148
(dp149
g7
V626
p150
sg9
VBouffalant
p151
sg11
VB2,W2,
p152
sg13
VDark
p153
sg15
V54
p154
sg17
V56
p155
sg18
V25
p156
sbag1
(g2
g3
Ntp157
Rp158
(dp159
g7
V627
p160
sg9
VRufflet
p161
sg11
g34
sg13
VDark
p162
sg15
V52
p163
sg17
g163
sg18
V5
p164
sbag1
(g2
g3
Ntp165
Rp166
(dp167
g7
V629
p168
sg9
VVullaby
p169
sg11
g44
sg13
VDark
p170
sg15
V52
p171
sg17
g171
sg18
V5
p172
sbag1
(g2
g3
Ntp173
Rp174
(dp175
g7
V472
p176
sg9
VGliscor
p177
sg11
VB2,W2,
p178
sg13
VRustling
p179
sg15
V51
p180
sg17
g180
sg18
V5
p181
sbag1
(g2
g3
Ntp182
Rp183
(dp184
g7
V531
p185
sg9
VAudino
p186
sg11
VB2,W2,
p187
sg13
VRustling
p188
sg15
V48
p189
sg17
V51
p190
sg18
V80
p191
sbag1
(g2
g3
Ntp192
Rp193
(dp194
g7
V538
p195
sg9
VThroh
p196
sg11
g44
sg13
VRustling
p197
sg15
V51
p198
sg17
g198
sg18
V5
p199
sbag1
(g2
g3
Ntp200
Rp201
(dp202
g7
V539
p203
sg9
VSawk
p204
sg11
g34
sg13
VRustling
p205
sg15
V51
p206
sg17
g206
sg18
V5
p207
sbag1
(g2
g3
Ntp208
Rp209
(dp210
g7
V587
p211
sg9
VEmolga
p212
sg11
VB2,W2,
p213
sg13
VRustling
p214
sg15
V49
p215
sg17
g215
sg18
V10
p216
sbag1
(g2
g3
Ntp217
Rp218
(dp219
g7
V418
p220
sg9
VBuizel
p221
sg11
VB2,W2,
p222
sg13
VSurf
p223
sg15
V40
p224
sg17
V55
p225
sg18
V30
p226
sbag1
(g2
g3
Ntp227
Rp228
(dp229
g7
V550
p230
sg9
VBasculin
p231
sg11
g44
sg13
VSurf
p232
sg15
V40
p233
sg17
V55
p234
sg18
V70
p235
sbag1
(g2
g3
Ntp236
Rp237
(dp238
g7
V550
p239
sg9
VBasculin
p240
sg11
g34
sg13
VSurf
p241
sg15
V40
p242
sg17
V55
p243
sg18
V70
p244
sbag1
(g2
g3
Ntp245
Rp246
(dp247
g7
V418
p248
sg9
VBuizel
p249
sg11
VB2,W2,
p250
sg13
VRippling
p251
sg15
V40
p252
sg17
V55
p253
sg18
V60
p254
sbag1
(g2
g3
Ntp255
Rp256
(dp257
g7
V419
p258
sg9
VFloatzel
p259
sg11
VB2,W2,
p260
sg13
VRippling
p261
sg15
V45
p262
sg17
V55
p263
sg18
V10
p264
sbag1
(g2
g3
Ntp265
Rp266
(dp267
g7
V550
p268
sg9
VBasculin
p269
sg11
g44
sg13
VRippling
p270
sg15
V40
p271
sg17
V55
p272
sg18
V30
p273
sbag1
(g2
g3
Ntp274
Rp275
(dp276
g7
V550
p277
sg9
VBasculin
p278
sg11
g34
sg13
VRippling
p279
sg15
V40
p280
sg17
V55
p281
sg18
V30
p282
sbag1
(g2
g3
Ntp283
Rp284
(dp285
g7
V060
p286
sg9
VPoliwag
p287
sg11
VB2,W2,
p288
sg13
VFish Super
p289
sg15
V40
p290
sg17
V70
p291
sg18
V70
p292
sbag1
(g2
g3
Ntp293
Rp294
(dp295
g7
V550
p296
sg9
VBasculin
p297
sg11
g44
sg13
VFish Super
p298
sg15
V40
p299
sg17
V60
p300
sg18
V30
p301
sbag1
(g2
g3
Ntp302
Rp303
(dp304
g7
V550
p305
sg9
VBasculin
p306
sg11
g34
sg13
VFish Super
p307
sg15
V40
p308
sg17
V60
p309
sg18
V30
p310
sbag1
(g2
g3
Ntp311
Rp312
(dp313
g7
V061
p314
sg9
VPoliwhirl
p315
sg11
VB2,W2,
p316
sg13
VRippling
p317
sg15
V40
p318
sg17
V70
p319
sg18
V65
p320
sbag1
(g2
g3
Ntp321
Rp322
(dp323
g7
V062
p324
sg9
VPoliwrath
p325
sg11
VB2,W2,
p326
sg13
VRippling
p327
sg15
V50
p328
sg17
V70
p329
sg18
V5
p330
sbag1
(g2
g3
Ntp331
Rp332
(dp333
g7
V550
p334
sg9
VBasculin
p335
sg11
g44
sg13
VRippling
p336
sg15
V40
p337
sg17
V60
p338
sg18
V30
p339
sbag1
(g2
g3
Ntp340
Rp341
(dp342
g7
V550
p343
sg9
VBasculin
p344
sg11
g34
sg13
VRippling
p345
sg15
V40
p346
sg17
V60
p347
sg18
V30
p348
sbag1
(g2
g3
Ntp349
Rp350
(dp351
g7
V482
p352
sg9
VAzelf
p353
sg11
VB2,W2,
p354
sg13
VSpecial
p355
sg15
V65
p356
sg17
g356
sg18
V0
p357
sbag1
(g2
g3
Ntp358
Rp359
(dp360
g7
V591
p361
sg9
VAmoonguss
p362
sg11
VB2,W2,
p363
sg13
VFake
p364
sg15
V56
p365
sg17
g365
sg18
V0
p366
sba.