(lp0
ccopy_reg
_reconstructor
p1
(c__main__
WildPokemon
p2
c__builtin__
object
p3
Ntp4
Rp5
(dp6
VpDexNo
p7
V559
p8
sVpSpecies
p9
VScraggy
p10
sVpGames
p11
VB,W,
p12
sVpArea
p13
VGrass
p14
sVpMinLevel
p15
V28
p16
sVpMaxLevel
p17
V31
p18
sVpRate
p19
V40
p20
sbag1
(g2
g3
Ntp21
Rp22
(dp23
g7
V557
p24
sg9
VDwebble
p25
sg11
VB,W,
p26
sg13
VGrass
p27
sg15
V30
p28
sg17
V31
p29
sg19
V30
p30
sbag1
(g2
g3
Ntp31
Rp32
(dp33
g7
V505
p34
sg9
VWatchog
p35
sg11
VB,W,
p36
sg13
VGrass
p37
sg15
V28,30
p38
sg17
g38
sg19
V20
p39
sbag1
(g2
g3
Ntp40
Rp41
(dp42
g7
V538
p43
sg9
VThroh
p44
sg11
VW,
p45
sg13
VGrass
p46
sg15
V29,31
p47
sg17
g47
sg19
V10
p48
sbag1
(g2
g3
Ntp49
Rp50
(dp51
g7
V539
p52
sg9
VSawk
p53
sg11
VB,
p54
sg13
VGrass
p55
sg15
V29,31
p56
sg17
g56
sg19
V10
p57
sbag1
(g2
g3
Ntp58
Rp59
(dp60
g7
V559
p61
sg9
VScraggy
p62
sg11
VB,W,
p63
sg13
VDark
p64
sg15
V32
p65
sg17
V35
p66
sg19
V40
p67
sbag1
(g2
g3
Ntp68
Rp69
(dp70
g7
V558
p71
sg9
VCrustle
p72
sg11
VB,W,
p73
sg13
VDark
p74
sg15
V34
p75
sg17
V35
p76
sg19
V30
p77
sbag1
(g2
g3
Ntp78
Rp79
(dp80
g7
V505
p81
sg9
VWatchog
p82
sg11
VB,W,
p83
sg13
VDark
p84
sg15
V32,34
p85
sg17
g85
sg19
V20
p86
sbag1
(g2
g3
Ntp87
Rp88
(dp89
g7
V538
p90
sg9
VThroh
p91
sg11
g45
sg13
VDark
p92
sg15
V33,35
p93
sg17
g93
sg19
V10
p94
sbag1
(g2
g3
Ntp95
Rp96
(dp97
g7
V539
p98
sg9
VSawk
p99
sg11
g54
sg13
VDark
p100
sg15
V33,35
p101
sg17
g101
sg19
V10
p102
sbag1
(g2
g3
Ntp103
Rp104
(dp105
g7
V531
p106
sg9
VAudino
p107
sg11
VB,W,
p108
sg13
VRustling
p109
sg15
V28
p110
sg17
V31
p111
sg19
V95
p112
sbag1
(g2
g3
Ntp113
Rp114
(dp115
g7
V538
p116
sg9
VThroh
p117
sg11
g54
sg13
VRustling
p118
sg15
V31
p119
sg17
g119
sg19
V5
p120
sbag1
(g2
g3
Ntp121
Rp122
(dp123
g7
V539
p124
sg9
VSawk
p125
sg11
g45
sg13
VRustling
p126
sg15
V31
p127
sg17
g127
sg19
V5
p128
sbag1
(g2
g3
Ntp129
Rp130
(dp131
g7
V592
p132
sg9
VFrillish
p133
sg11
VB,W,
p134
sg13
VSurf
p135
sg15
V5
p136
sg17
V15
p137
sg19
V100
p138
sbag1
(g2
g3
Ntp139
Rp140
(dp141
g7
V594
p142
sg9
VAlomomola
p143
sg11
VB,W,
p144
sg13
VRippling
p145
sg15
g136
sg17
V20
p146
sg19
V95
p147
sbag1
(g2
g3
Ntp148
Rp149
(dp150
g7
V593
p151
sg9
VJellicent
p152
sg11
VB,W,
p153
sg13
VRippling
p154
sg15
g136
sg17
V20
p155
sg19
V5
p156
sbag1
(g2
g3
Ntp157
Rp158
(dp159
g7
V456
p160
sg9
VFinneon
p161
sg11
VB,W,
p162
sg13
VFish Super
p163
sg15
V35
p164
sg17
V55
p165
sg19
V64
p166
sbag1
(g2
g3
Ntp167
Rp168
(dp169
g7
V116
p170
sg9
VHorsea
p171
sg11
VB,W,
p172
sg13
VFish Super
p173
sg15
V35
p174
sg17
V55
p175
sg19
V35
p176
sbag1
(g2
g3
Ntp177
Rp178
(dp179
g7
V170
p180
sg9
VChinchou
p181
sg11
VB,W,
p182
sg13
VFish Super
p183
sg15
V35
p184
sg17
V55
p185
sg19
V1
p186
sbag1
(g2
g3
Ntp187
Rp188
(dp189
g7
V117
p190
sg9
VSeadra
p191
sg11
VB,W,
p192
sg13
VRippling
p193
sg15
V35
p194
sg17
V60
p195
sg19
V60
p196
sbag1
(g2
g3
Ntp197
Rp198
(dp199
g7
V211
p200
sg9
VQwilfish
p201
sg11
VB,W,
p202
sg13
VRippling
p203
sg15
V35
p204
sg17
V60
p205
sg19
V30
p206
sbag1
(g2
g3
Ntp207
Rp208
(dp209
g7
V230
p210
sg9
VKingdra
p211
sg11
VB,W,
p212
sg13
VRippling
p213
sg15
V45
p214
sg17
V70
p215
sg19
V5
p216
sbag1
(g2
g3
Ntp217
Rp218
(dp219
g7
V457
p220
sg9
VLumineon
p221
sg11
VB,W,
p222
sg13
VRippling
p223
sg15
V35
p224
sg17
V70
p225
sg19
V5
p226
sbag1
(g2
g3
Ntp227
Rp228
(dp229
g7
V102
p230
sg9
VExeggcute
p231
sg11
VB,W,
p232
sg13
VGrass
p233
sg15
V15
p234
sg17
V55
p235
sg19
V40
p236
sbag1
(g2
g3
Ntp237
Rp238
(dp239
g7
V636
p240
sg9
VLarvesta
p241
sg11
VB,W,
p242
sg13
VEgg
p243
sg15
V1
p244
sg17
g244
sg19
V0
p245
sbag1
(g2
g3
Ntp246
Rp247
(dp248
g7
V357
p249
sg9
VTropius
p250
sg11
VB2,W2,
p251
sg13
VGrass
p252
sg15
V58
p253
sg17
g253
sg19
V10
p254
sbag1
(g2
g3
Ntp255
Rp256
(dp257
g7
V455
p258
sg9
VCarnivine
p259
sg11
VB2,W2,
p260
sg13
VGrass
p261
sg15
V58
p262
sg17
g262
sg19
V10
p263
sbag1
(g2
g3
Ntp264
Rp265
(dp266
g7
V505
p267
sg9
VWatchog
p268
sg11
VB2,W2,
p269
sg13
VGrass
p270
sg15
V56
p271
sg17
g271
sg19
V10
p272
sbag1
(g2
g3
Ntp273
Rp274
(dp275
g7
V538
p276
sg9
VThroh
p277
sg11
VW2,
p278
sg13
VGrass
p279
sg15
V57
p280
sg17
V59
p281
sg19
V20
p282
sbag1
(g2
g3
Ntp283
Rp284
(dp285
g7
V539
p286
sg9
VSawk
p287
sg11
VB2,
p288
sg13
VGrass
p289
sg15
V57
p290
sg17
V59
p291
sg19
V20
p292
sbag1
(g2
g3
Ntp293
Rp294
(dp295
g7
V558
p296
sg9
VCrustle
p297
sg11
VB2,W2,
p298
sg13
VGrass
p299
sg15
V57
p300
sg17
g300
sg19
V20
p301
sbag1
(g2
g3
Ntp302
Rp303
(dp304
g7
V560
p305
sg9
VScrafty
p306
sg11
VB2,W2,
p307
sg13
VGrass
p308
sg15
V57
p309
sg17
V58
p310
sg19
V30
p311
sbag1
(g2
g3
Ntp312
Rp313
(dp314
g7
V357
p315
sg9
VTropius
p316
sg11
VB2,W2,
p317
sg13
VDark
p318
sg15
V66
p319
sg17
g319
sg19
V10
p320
sbag1
(g2
g3
Ntp321
Rp322
(dp323
g7
V455
p324
sg9
VCarnivine
p325
sg11
VB2,W2,
p326
sg13
VDark
p327
sg15
V66
p328
sg17
g328
sg19
V10
p329
sbag1
(g2
g3
Ntp330
Rp331
(dp332
g7
V505
p333
sg9
VWatchog
p334
sg11
VB2,W2,
p335
sg13
VDark
p336
sg15
V64
p337
sg17
g337
sg19
V10
p338
sbag1
(g2
g3
Ntp339
Rp340
(dp341
g7
V538
p342
sg9
VThroh
p343
sg11
g278
sg13
VDark
p344
sg15
V65
p345
sg17
V67
p346
sg19
V20
p347
sbag1
(g2
g3
Ntp348
Rp349
(dp350
g7
V539
p351
sg9
VSawk
p352
sg11
g288
sg13
VDark
p353
sg15
V65
p354
sg17
V67
p355
sg19
V20
p356
sbag1
(g2
g3
Ntp357
Rp358
(dp359
g7
V558
p360
sg9
VCrustle
p361
sg11
VB2,W2,
p362
sg13
VDark
p363
sg15
V65
p364
sg17
g364
sg19
V20
p365
sbag1
(g2
g3
Ntp366
Rp367
(dp368
g7
V560
p369
sg9
VScrafty
p370
sg11
VB2,W2,
p371
sg13
VDark
p372
sg15
V65
p373
sg17
V66
p374
sg19
V30
p375
sbag1
(g2
g3
Ntp376
Rp377
(dp378
g7
V531
p379
sg9
VAudino
p380
sg11
VB2,W2,
p381
sg13
VRustling
p382
sg15
V56
p383
sg17
V59
p384
sg19
V85
p385
sbag1
(g2
g3
Ntp386
Rp387
(dp388
g7
V206
p389
sg9
VDunsparce
p390
sg11
VB2,W2,
p391
sg13
VRustling
p392
sg15
V57
p393
sg17
g393
sg19
V10
p394
sbag1
(g2
g3
Ntp395
Rp396
(dp397
g7
V539
p398
sg9
VSawk
p399
sg11
g278
sg13
VRustling
p400
sg15
V59
p401
sg17
g401
sg19
V5
p402
sbag1
(g2
g3
Ntp403
Rp404
(dp405
g7
V538
p406
sg9
VThroh
p407
sg11
g288
sg13
VRustling
p408
sg15
V59
p409
sg17
g409
sg19
V5
p410
sbag1
(g2
g3
Ntp411
Rp412
(dp413
g7
V592
p414
sg9
VFrillish
p415
sg11
VB2,W2,
p416
sg13
VSurf
p417
sg15
V45
p418
sg17
V60
p419
sg19
V100
p420
sbag1
(g2
g3
Ntp421
Rp422
(dp423
g7
V594
p424
sg9
VAlomomola
p425
sg11
VB2,W2,
p426
sg13
VRippling
p427
sg15
V45
p428
sg17
V60
p429
sg19
V95
p430
sbag1
(g2
g3
Ntp431
Rp432
(dp433
g7
V593
p434
sg9
VJellicent
p435
sg11
VB2,W2,
p436
sg13
VRippling
p437
sg15
V50
p438
sg17
V60
p439
sg19
V5
p440
sbag1
(g2
g3
Ntp441
Rp442
(dp443
g7
V116
p444
sg9
VHorsea
p445
sg11
VB2,W2,
p446
sg13
VFish Super
p447
sg15
V50
p448
sg17
V60
p449
sg19
V30
p450
sbag1
(g2
g3
Ntp451
Rp452
(dp453
g7
V456
p454
sg9
VFinneon
p455
sg11
VB2,W2,
p456
sg13
VFish Super
p457
sg15
V50
p458
sg17
V70
p459
sg19
V65
p460
sbag1
(g2
g3
Ntp461
Rp462
(dp463
g7
V222
p464
sg9
VCorsola
p465
sg11
VB2,W2,
p466
sg13
VFish Super
p467
sg15
V60
p468
sg17
V70
p469
sg19
V5
p470
sbag1
(g2
g3
Ntp471
Rp472
(dp473
g7
V116
p474
sg9
VHorsea
p475
sg11
VB2,W2,
p476
sg13
VRippling
p477
sg15
V50
p478
sg17
V60
p479
sg19
V60
p480
sbag1
(g2
g3
Ntp481
Rp482
(dp483
g7
V117
p484
sg9
VSeadra
p485
sg11
VB2,W2,
p486
sg13
VRippling
p487
sg15
V60
p488
sg17
V70
p489
sg19
V5
p490
sbag1
(g2
g3
Ntp491
Rp492
(dp493
g7
V230
p494
sg9
VKingdra
p495
sg11
VB2,W2,
p496
sg13
VRippling
p497
sg15
V60
p498
sg17
V70
p499
sg19
V5
p500
sbag1
(g2
g3
Ntp501
Rp502
(dp503
g7
V457
p504
sg9
VLumineon
p505
sg11
VB2,W2,
p506
sg13
VRippling
p507
sg15
V50
p508
sg17
V60
p509
sg19
V30
p510
sbag1
(g2
g3
Ntp511
Rp512
(dp513
g7
V187
p514
sg9
VHoppip
p515
sg11
VB2,W2,
p516
sg13
VGrass
p517
sg15
V40
p518
sg17
V55
p519
sg19
V40
p520
sbag1
(g2
g3
Ntp521
Rp522
(dp523
g7
V099
p524
sg9
VKingler
p525
sg11
VB2,W2,
p526
sg13
VGrotto
p527
sg15
V55
p528
sg17
V60
p529
sg19
V0
p530
sbag1
(g2
g3
Ntp531
Rp532
(dp533
g7
V149
p534
sg9
VDragonite
p535
sg11
VB2,W2,
p536
sg13
VGrotto
p537
sg15
V55
p538
sg17
V60
p539
sg19
V0
p540
sbag1
(g2
g3
Ntp541
Rp542
(dp543
g7
V222
p544
sg9
VCorsola
p545
sg11
VB2,W2,
p546
sg13
VGrotto
p547
sg15
V55
p548
sg17
V60
p549
sg19
V0
p550
sbag1
(g2
g3
Ntp551
Rp552
(dp553
g7
V441
p554
sg9
VChatot
p555
sg11
VB2,W2,
p556
sg13
VGrotto
p557
sg15
V55
p558
sg17
V60
p559
sg19
V0
p560
sba.