(lp0
ccopy_reg
_reconstructor
p1
(c__main__
WildPokemon
p2
c__builtin__
object
p3
Ntp4
Rp5
(dp6
VpDexNo
p7
V223
p8
sVpSpecies
p9
VRemoraid
p10
sVpGames
p11
VB2,W2,
p12
sVpArea
p13
VSurf
p14
sVpMinLevel
p15
V35
p16
sVpMaxLevel
p17
V45
p18
sVpRate
p19
V5
p20
sbag1
(g2
g3
Ntp21
Rp22
(dp23
g7
V458
p24
sg9
VMantyke
p25
sg11
VB2,W2,
p26
sg13
VSurf
p27
sg15
V30
p28
sg17
V45
p29
sg19
V30
p30
sbag1
(g2
g3
Ntp31
Rp32
(dp33
g7
V592
p34
sg9
VFrillish
p35
sg11
VB2,W2,
p36
sg13
VSurf
p37
sg15
V30
p38
sg17
V45
p39
sg19
V65
p40
sbag1
(g2
g3
Ntp41
Rp42
(dp43
g7
V226
p44
sg9
VMantine
p45
sg11
VB2,W2,
p46
sg13
VRippling
p47
sg15
V30
p48
sg17
V45
p49
sg19
V5
p50
sbag1
(g2
g3
Ntp51
Rp52
(dp53
g7
V593
p54
sg9
VJellicent
p55
sg11
VB2,W2,
p56
sg13
VRippling
p57
sg15
V30
p58
sg17
V45
p59
sg19
V60
p60
sbag1
(g2
g3
Ntp61
Rp62
(dp63
g7
V594
p64
sg9
VAlomomola
p65
sg11
VB2,W2,
p66
sg13
VRippling
p67
sg15
V30
p68
sg17
V45
p69
sg19
V35
p70
sbag1
(g2
g3
Ntp71
Rp72
(dp73
g7
V223
p74
sg9
VRemoraid
p75
sg11
VB2,W2,
p76
sg13
VFish Super
p77
sg15
V40
p78
sg17
V60
p79
sg19
V30
p80
sbag1
(g2
g3
Ntp81
Rp82
(dp83
g7
V370
p84
sg9
VLuvdisc
p85
sg11
VB2,W2,
p86
sg13
VFish Super
p87
sg15
V40
p88
sg17
V70
p89
sg19
V70
p90
sbag1
(g2
g3
Ntp91
Rp92
(dp93
g7
V223
p94
sg9
VRemoraid
p95
sg11
VB2,W2,
p96
sg13
VRippling
p97
sg15
V40
p98
sg17
V70
p99
sg19
V65
p100
sbag1
(g2
g3
Ntp101
Rp102
(dp103
g7
V224
p104
sg9
VOctillery
p105
sg11
VB2,W2,
p106
sg13
VRippling
p107
sg15
V50
p108
sg17
V70
p109
sg19
V5
p110
sbag1
(g2
g3
Ntp111
Rp112
(dp113
g7
V370
p114
sg9
VLuvdisc
p115
sg11
VB2,W2,
p116
sg13
VRippling
p117
sg15
V40
p118
sg17
V60
p119
sg19
V30
p120
sba.