(lp0
ccopy_reg
_reconstructor
p1
(c__main__
WildPokemon
p2
c__builtin__
object
p3
Ntp4
Rp5
(dp6
VpDexNo
p7
V520
p8
sVpSpecies
p9
VTranquill
p10
sVpGames
p11
VB,W,
p12
sVpArea
p13
VGrass
p14
sVpMinLevel
p15
V23
p16
sVpMaxLevel
p17
V25
p18
sVpRate
p19
V15
p20
sbag1
(g2
g3
Ntp21
Rp22
(dp23
g7
V541
p24
sg9
VSwadloon
p25
sg11
VB,W,
p26
sg13
VGrass
p27
sg15
V23
p28
sg17
g28
sg19
V10
p29
sbag1
(g2
g3
Ntp30
Rp31
(dp32
g7
V582
p33
sg9
VVanillite
p34
sg11
VB,W,
p35
sg13
VGrass
p36
sg15
V23
p37
sg17
V25
p38
sg19
V15
p39
sbag1
(g2
g3
Ntp40
Rp41
(dp42
g7
V585
p43
sg9
VDeerling
p44
sg11
VB,W,
p45
sg13
VGrass
p46
sg15
V22
p47
sg17
V24
p48
sg19
V35
p49
sbag1
(g2
g3
Ntp50
Rp51
(dp52
g7
V585
p53
sg9
VDeerling
p54
sg11
VB,W,
p55
sg13
VGrass
p56
sg15
V22
p57
sg17
V24
p58
sg19
V35
p59
sbag1
(g2
g3
Ntp60
Rp61
(dp62
g7
V585
p63
sg9
VDeerling
p64
sg11
VB,W,
p65
sg13
VGrass
p66
sg15
V22
p67
sg17
V24
p68
sg19
V35
p69
sbag1
(g2
g3
Ntp70
Rp71
(dp72
g7
V585
p73
sg9
VDeerling
p74
sg11
VB,W,
p75
sg13
VGrass
p76
sg15
V22
p77
sg17
V24
p78
sg19
V35
p79
sbag1
(g2
g3
Ntp80
Rp81
(dp82
g7
V588
p83
sg9
VKarrablast
p84
sg11
VB,W,
p85
sg13
VGrass
p86
sg15
V22
p87
sg17
V24
p88
sg19
V25
p89
sbag1
(g2
g3
Ntp90
Rp91
(dp92
g7
V590
p93
sg9
VFoongus
p94
sg11
VB,W,
p95
sg13
VGrass
p96
sg15
V23
p97
sg17
V25
p98
sg19
V15
p99
sbag1
(g2
g3
Ntp100
Rp101
(dp102
g7
V520
p103
sg9
VTranquill
p104
sg11
VB,W,
p105
sg13
VDark
p106
sg15
V27
p107
sg17
V29
p108
sg19
V15
p109
sbag1
(g2
g3
Ntp110
Rp111
(dp112
g7
V541
p113
sg9
VSwadloon
p114
sg11
VB,W,
p115
sg13
VDark
p116
sg15
V27
p117
sg17
g117
sg19
V10
p118
sbag1
(g2
g3
Ntp119
Rp120
(dp121
g7
V582
p122
sg9
VVanillite
p123
sg11
VB,W,
p124
sg13
VDark
p125
sg15
V27
p126
sg17
V29
p127
sg19
V15
p128
sbag1
(g2
g3
Ntp129
Rp130
(dp131
g7
V585
p132
sg9
VDeerling
p133
sg11
VB,W,
p134
sg13
VDark
p135
sg15
V26
p136
sg17
V28
p137
sg19
V35
p138
sbag1
(g2
g3
Ntp139
Rp140
(dp141
g7
V585
p142
sg9
VDeerling
p143
sg11
VB,W,
p144
sg13
VDark
p145
sg15
V26
p146
sg17
V28
p147
sg19
V35
p148
sbag1
(g2
g3
Ntp149
Rp150
(dp151
g7
V585
p152
sg9
VDeerling
p153
sg11
VB,W,
p154
sg13
VDark
p155
sg15
V26
p156
sg17
V28
p157
sg19
V35
p158
sbag1
(g2
g3
Ntp159
Rp160
(dp161
g7
V585
p162
sg9
VDeerling
p163
sg11
VB,W,
p164
sg13
VDark
p165
sg15
V26
p166
sg17
V28
p167
sg19
V35
p168
sbag1
(g2
g3
Ntp169
Rp170
(dp171
g7
V588
p172
sg9
VKarrablast
p173
sg11
VB,W,
p174
sg13
VDark
p175
sg15
V26
p176
sg17
V28
p177
sg19
V25
p178
sbag1
(g2
g3
Ntp179
Rp180
(dp181
g7
V590
p182
sg9
VFoongus
p183
sg11
VB,W,
p184
sg13
VDark
p185
sg15
V27
p186
sg17
V29
p187
sg19
V15
p188
sbag1
(g2
g3
Ntp189
Rp190
(dp191
g7
V521
p192
sg9
VUnfezant
p193
sg11
VB,W,
p194
sg13
VRustling
p195
sg15
V25
p196
sg17
g196
sg19
V5
p197
sbag1
(g2
g3
Ntp198
Rp199
(dp200
g7
V531
p201
sg9
VAudino
p202
sg11
VB,W,
p203
sg13
VRustling
p204
sg15
V22
p205
sg17
V25
p206
sg19
V75
p207
sbag1
(g2
g3
Ntp208
Rp209
(dp210
g7
V542
p211
sg9
VLeavanny
p212
sg11
VB,W,
p213
sg13
VRustling
p214
sg15
V25
p215
sg17
g215
sg19
V5
p216
sbag1
(g2
g3
Ntp217
Rp218
(dp219
g7
V587
p220
sg9
VEmolga
p221
sg11
VB,W,
p222
sg13
VRustling
p223
sg15
V23
p224
sg17
V25
p225
sg19
V20
p226
sbag1
(g2
g3
Ntp227
Rp228
(dp229
g7
V550
p230
sg9
VBasculin
p231
sg11
VB,
p232
sg13
VSurf
p233
sg15
V10
p234
sg17
V25
p235
sg19
V100
p236
sbag1
(g2
g3
Ntp237
Rp238
(dp239
g7
V550
p240
sg9
VBasculin
p241
sg11
VW,
p242
sg13
VSurf
p243
sg15
V10
p244
sg17
V25
p245
sg19
V100
p246
sbag1
(g2
g3
Ntp247
Rp248
(dp249
g7
V550
p250
sg9
VBasculin
p251
sg11
g242
sg13
VRippling
p252
sg15
V10
p253
sg17
V30
p254
sg19
V100
p255
sbag1
(g2
g3
Ntp256
Rp257
(dp258
g7
V550
p259
sg9
VBasculin
p260
sg11
g232
sg13
VRippling
p261
sg15
V10
p262
sg17
V30
p263
sg19
V100
p264
sbag1
(g2
g3
Ntp265
Rp266
(dp267
g7
V060
p268
sg9
VPoliwag
p269
sg11
VB,W,
p270
sg13
VFish Super
p271
sg15
V35
p272
sg17
V55
p273
sg19
V65
p274
sbag1
(g2
g3
Ntp275
Rp276
(dp277
g7
V061
p278
sg9
VPoliwhirl
p279
sg11
VB,W,
p280
sg13
VFish Super
p281
sg15
V35
p282
sg17
V55
p283
sg19
V5
p284
sbag1
(g2
g3
Ntp285
Rp286
(dp287
g7
V550
p288
sg9
VBasculin
p289
sg11
g232
sg13
VFish Super
p290
sg15
V35
p291
sg17
V55
p292
sg19
V30
p293
sbag1
(g2
g3
Ntp294
Rp295
(dp296
g7
V550
p297
sg9
VBasculin
p298
sg11
g242
sg13
VFish Super
p299
sg15
V35
p300
sg17
V55
p301
sg19
V30
p302
sbag1
(g2
g3
Ntp303
Rp304
(dp305
g7
V061
p306
sg9
VPoliwhirl
p307
sg11
VB,W,
p308
sg13
VRippling
p309
sg15
V35
p310
sg17
V70
p311
sg19
V65
p312
sbag1
(g2
g3
Ntp313
Rp314
(dp315
g7
V186
p316
sg9
VPolitoed
p317
sg11
VB,W,
p318
sg13
VRippling
p319
sg15
V45
p320
sg17
V70
p321
sg19
V5
p322
sbag1
(g2
g3
Ntp323
Rp324
(dp325
g7
V550
p326
sg9
VBasculin
p327
sg11
g242
sg13
VRippling
p328
sg15
V35
p329
sg17
V60
p330
sg19
V30
p331
sbag1
(g2
g3
Ntp332
Rp333
(dp334
g7
V550
p335
sg9
VBasculin
p336
sg11
g232
sg13
VRippling
p337
sg15
V35
p338
sg17
V60
p339
sg19
V30
p340
sbag1
(g2
g3
Ntp341
Rp342
(dp343
g7
V590
p344
sg9
VFoongus
p345
sg11
VB,W,
p346
sg13
VFake
p347
sg15
V20
p348
sg17
g348
sg19
V0
p349
sbag1
(g2
g3
Ntp350
Rp351
(dp352
g7
V311
p353
sg9
VPlusle
p354
sg11
g232
sg13
VGrass
p355
sg15
V15
p356
sg17
V55
p357
sg19
V40
p358
sbag1
(g2
g3
Ntp359
Rp360
(dp361
g7
V312
p362
sg9
VMinun
p363
sg11
g242
sg13
VGrass
p364
sg15
V15
p365
sg17
V55
p366
sg19
V40
p367
sbag1
(g2
g3
Ntp368
Rp369
(dp370
g7
V183
p371
sg9
VMarill
p372
sg11
VB2,W2,
p373
sg13
VGrass
p374
sg15
V25
p375
sg17
g375
sg19
V5
p376
sbag1
(g2
g3
Ntp377
Rp378
(dp379
g7
V520
p380
sg9
VTranquill
p381
sg11
VB2,W2,
p382
sg13
VGrass
p383
sg15
V26
p384
sg17
g384
sg19
V15
p385
sbag1
(g2
g3
Ntp386
Rp387
(dp388
g7
V541
p389
sg9
VSwadloon
p390
sg11
VB2,W2,
p391
sg13
VGrass
p392
sg15
V26
p393
sg17
g393
sg19
V10
p394
sbag1
(g2
g3
Ntp395
Rp396
(dp397
g7
V585
p398
sg9
VDeerling
p399
sg11
VB2,W2,
p400
sg13
VGrass
p401
sg15
V23
p402
sg17
V25
p403
sg19
V30
p404
sbag1
(g2
g3
Ntp405
Rp406
(dp407
g7
V585
p408
sg9
VDeerling
p409
sg11
VB2,W2,
p410
sg13
VGrass
p411
sg15
V23
p412
sg17
V25
p413
sg19
V30
p414
sbag1
(g2
g3
Ntp415
Rp416
(dp417
g7
V585
p418
sg9
VDeerling
p419
sg11
VB2,W2,
p420
sg13
VGrass
p421
sg15
V23
p422
sg17
V25
p423
sg19
V30
p424
sbag1
(g2
g3
Ntp425
Rp426
(dp427
g7
V585
p428
sg9
VDeerling
p429
sg11
VB2,W2,
p430
sg13
VGrass
p431
sg15
V23
p432
sg17
V25
p433
sg19
V30
p434
sbag1
(g2
g3
Ntp435
Rp436
(dp437
g7
V588
p438
sg9
VKarrablast
p439
sg11
VB2,
p440
sg13
VGrass
p441
sg15
V23
p442
sg17
g442
sg19
V5
p443
sbag1
(g2
g3
Ntp444
Rp445
(dp446
g7
V588
p447
sg9
VKarrablast
p448
sg11
VW2,
p449
sg13
VGrass
p450
sg15
V23
p451
sg17
V26
p452
sg19
V25
p453
sbag1
(g2
g3
Ntp454
Rp455
(dp456
g7
V590
p457
sg9
VFoongus
p458
sg11
VB2,W2,
p459
sg13
VGrass
p460
sg15
V26
p461
sg17
g461
sg19
V10
p462
sbag1
(g2
g3
Ntp463
Rp464
(dp465
g7
V616
p466
sg9
VShelmet
p467
sg11
g440
sg13
VGrass
p468
sg15
V23
p469
sg17
V26
p470
sg19
V25
p471
sbag1
(g2
g3
Ntp472
Rp473
(dp474
g7
V616
p475
sg9
VShelmet
p476
sg11
g449
sg13
VGrass
p477
sg15
V23
p478
sg17
g478
sg19
V5
p479
sbag1
(g2
g3
Ntp480
Rp481
(dp482
g7
V183
p483
sg9
VMarill
p484
sg11
VB2,W2,
p485
sg13
VDark
p486
sg15
V28
p487
sg17
g487
sg19
V5
p488
sbag1
(g2
g3
Ntp489
Rp490
(dp491
g7
V520
p492
sg9
VTranquill
p493
sg11
VB2,W2,
p494
sg13
VDark
p495
sg15
V29
p496
sg17
g496
sg19
V15
p497
sbag1
(g2
g3
Ntp498
Rp499
(dp500
g7
V541
p501
sg9
VSwadloon
p502
sg11
VB2,W2,
p503
sg13
VDark
p504
sg15
V29
p505
sg17
g505
sg19
V10
p506
sbag1
(g2
g3
Ntp507
Rp508
(dp509
g7
V585
p510
sg9
VDeerling
p511
sg11
VB2,W2,
p512
sg13
VDark
p513
sg15
V26
p514
sg17
V28
p515
sg19
V30
p516
sbag1
(g2
g3
Ntp517
Rp518
(dp519
g7
V585
p520
sg9
VDeerling
p521
sg11
VB2,W2,
p522
sg13
VDark
p523
sg15
V26
p524
sg17
V28
p525
sg19
V30
p526
sbag1
(g2
g3
Ntp527
Rp528
(dp529
g7
V585
p530
sg9
VDeerling
p531
sg11
VB2,W2,
p532
sg13
VDark
p533
sg15
V26
p534
sg17
V28
p535
sg19
V30
p536
sbag1
(g2
g3
Ntp537
Rp538
(dp539
g7
V585
p540
sg9
VDeerling
p541
sg11
VB2,W2,
p542
sg13
VDark
p543
sg15
V26
p544
sg17
V28
p545
sg19
V30
p546
sbag1
(g2
g3
Ntp547
Rp548
(dp549
g7
V588
p550
sg9
VKarrablast
p551
sg11
g440
sg13
VDark
p552
sg15
V26
p553
sg17
g553
sg19
V5
p554
sbag1
(g2
g3
Ntp555
Rp556
(dp557
g7
V588
p558
sg9
VKarrablast
p559
sg11
g449
sg13
VDark
p560
sg15
V26
p561
sg17
V29
p562
sg19
V25
p563
sbag1
(g2
g3
Ntp564
Rp565
(dp566
g7
V590
p567
sg9
VFoongus
p568
sg11
VB2,W2,
p569
sg13
VDark
p570
sg15
V29
p571
sg17
g571
sg19
V10
p572
sbag1
(g2
g3
Ntp573
Rp574
(dp575
g7
V616
p576
sg9
VShelmet
p577
sg11
g440
sg13
VDark
p578
sg15
V26
p579
sg17
V29
p580
sg19
V25
p581
sbag1
(g2
g3
Ntp582
Rp583
(dp584
g7
V616
p585
sg9
VShelmet
p586
sg11
g449
sg13
VDark
p587
sg15
V26
p588
sg17
g588
sg19
V5
p589
sbag1
(g2
g3
Ntp590
Rp591
(dp592
g7
V184
p593
sg9
VAzumarill
p594
sg11
VB2,W2,
p595
sg13
VRustling
p596
sg15
V26
p597
sg17
g597
sg19
V5
p598
sbag1
(g2
g3
Ntp599
Rp600
(dp601
g7
V206
p602
sg9
VDunsparce
p603
sg11
VB2,W2,
p604
sg13
VRustling
p605
sg15
V25
p606
sg17
g606
sg19
V10
p607
sbag1
(g2
g3
Ntp608
Rp609
(dp610
g7
V351
p611
sg9
VCastform
p612
sg11
VB2,W2,
p613
sg13
VRustling
p614
sg15
V26
p615
sg17
g615
sg19
V5
p616
sbag1
(g2
g3
Ntp617
Rp618
(dp619
g7
V521
p620
sg9
VUnfezant
p621
sg11
VB2,W2,
p622
sg13
VRustling
p623
sg15
V26
p624
sg17
g624
sg19
V5
p625
sbag1
(g2
g3
Ntp626
Rp627
(dp628
g7
V531
p629
sg9
VAudino
p630
sg11
VB2,W2,
p631
sg13
VRustling
p632
sg15
V23
p633
sg17
V25
p634
sg19
V50
p635
sbag1
(g2
g3
Ntp636
Rp637
(dp638
g7
V542
p639
sg9
VLeavanny
p640
sg11
VB2,W2,
p641
sg13
VRustling
p642
sg15
V26
p643
sg17
g643
sg19
V5
p644
sbag1
(g2
g3
Ntp645
Rp646
(dp647
g7
V587
p648
sg9
VEmolga
p649
sg11
VB2,W2,
p650
sg13
VRustling
p651
sg15
V24
p652
sg17
V25
p653
sg19
V20
p654
sbag1
(g2
g3
Ntp655
Rp656
(dp657
g7
V183
p658
sg9
VMarill
p659
sg11
VB2,W2,
p660
sg13
VSurf
p661
sg15
V10
p662
sg17
V25
p663
sg19
V30
p664
sbag1
(g2
g3
Ntp665
Rp666
(dp667
g7
V550
p668
sg9
VBasculin
p669
sg11
g440
sg13
VSurf
p670
sg15
V10
p671
sg17
V25
p672
sg19
V70
p673
sbag1
(g2
g3
Ntp674
Rp675
(dp676
g7
V550
p677
sg9
VBasculin
p678
sg11
g449
sg13
VSurf
p679
sg15
V10
p680
sg17
V25
p681
sg19
V70
p682
sbag1
(g2
g3
Ntp683
Rp684
(dp685
g7
V183
p686
sg9
VMarill
p687
sg11
VB2,W2,
p688
sg13
VRippling
p689
sg15
V10
p690
sg17
V30
p691
sg19
V60
p692
sbag1
(g2
g3
Ntp693
Rp694
(dp695
g7
V184
p696
sg9
VAzumarill
p697
sg11
VB2,W2,
p698
sg13
VRippling
p699
sg15
V10
p700
sg17
V30
p701
sg19
V5
p702
sbag1
(g2
g3
Ntp703
Rp704
(dp705
g7
V550
p706
sg9
VBasculin
p707
sg11
g440
sg13
VRippling
p708
sg15
V10
p709
sg17
V30
p710
sg19
V35
p711
sbag1
(g2
g3
Ntp712
Rp713
(dp714
g7
V550
p715
sg9
VBasculin
p716
sg11
g449
sg13
VRippling
p717
sg15
V10
p718
sg17
V30
p719
sg19
V35
p720
sbag1
(g2
g3
Ntp721
Rp722
(dp723
g7
V060
p724
sg9
VPoliwag
p725
sg11
VB2,W2,
p726
sg13
VFish Super
p727
sg15
V40
p728
sg17
V70
p729
sg19
V70
p730
sbag1
(g2
g3
Ntp731
Rp732
(dp733
g7
V550
p734
sg9
VBasculin
p735
sg11
g440
sg13
VFish Super
p736
sg15
V40
p737
sg17
V60
p738
sg19
V30
p739
sbag1
(g2
g3
Ntp740
Rp741
(dp742
g7
V550
p743
sg9
VBasculin
p744
sg11
g449
sg13
VFish Super
p745
sg15
V40
p746
sg17
V60
p747
sg19
V30
p748
sbag1
(g2
g3
Ntp749
Rp750
(dp751
g7
V061
p752
sg9
VPoliwhirl
p753
sg11
VB2,W2,
p754
sg13
VRippling
p755
sg15
V40
p756
sg17
V70
p757
sg19
V65
p758
sbag1
(g2
g3
Ntp759
Rp760
(dp761
g7
V186
p762
sg9
VPolitoed
p763
sg11
VB2,W2,
p764
sg13
VRippling
p765
sg15
V50
p766
sg17
V70
p767
sg19
V5
p768
sbag1
(g2
g3
Ntp769
Rp770
(dp771
g7
V550
p772
sg9
VBasculin
p773
sg11
g440
sg13
VRippling
p774
sg15
V40
p775
sg17
V60
p776
sg19
V30
p777
sbag1
(g2
g3
Ntp778
Rp779
(dp780
g7
V550
p781
sg9
VBasculin
p782
sg11
g449
sg13
VRippling
p783
sg15
V40
p784
sg17
V60
p785
sg19
V30
p786
sbag1
(g2
g3
Ntp787
Rp788
(dp789
g7
V585
p790
sg9
VDeerling
p791
sg11
VB2,W2,
p792
sg13
VGift
p793
sg15
V30
p794
sg17
g794
sg19
V0
p795
sbag1
(g2
g3
Ntp796
Rp797
(dp798
g7
V585
p799
sg9
VDeerling
p800
sg11
VB2,W2,
p801
sg13
VGift
p802
sg15
V30
p803
sg17
g803
sg19
V0
p804
sbag1
(g2
g3
Ntp805
Rp806
(dp807
g7
V585
p808
sg9
VDeerling
p809
sg11
VB2,W2,
p810
sg13
VGift
p811
sg15
V30
p812
sg17
g812
sg19
V0
p813
sbag1
(g2
g3
Ntp814
Rp815
(dp816
g7
V585
p817
sg9
VDeerling
p818
sg11
VB2,W2,
p819
sg13
VGift
p820
sg15
V30
p821
sg17
g821
sg19
V0
p822
sbag1
(g2
g3
Ntp823
Rp824
(dp825
g7
V311
p826
sg9
VPlusle
p827
sg11
g440
sg13
VGrass
p828
sg15
V40
p829
sg17
V55
p830
sg19
V40
p831
sbag1
(g2
g3
Ntp832
Rp833
(dp834
g7
V312
p835
sg9
VMinun
p836
sg11
g449
sg13
VGrass
p837
sg15
V40
p838
sg17
V55
p839
sg19
V40
p840
sbag1
(g2
g3
Ntp841
Rp842
(dp843
g7
V206
p844
sg9
VDunsparce
p845
sg11
VB2,W2,
p846
sg13
VGrotto
p847
sg15
V25
p848
sg17
V30
p849
sg19
V0
p850
sbag1
(g2
g3
Ntp851
Rp852
(dp853
g7
V527
p854
sg9
VWoobat
p855
sg11
VB2,W2,
p856
sg13
VGrotto
p857
sg15
V25
p858
sg17
V30
p859
sg19
V0
p860
sbag1
(g2
g3
Ntp861
Rp862
(dp863
g7
V590
p864
sg9
VFoongus
p865
sg11
VB2,W2,
p866
sg13
VGrotto
p867
sg15
V25
p868
sg17
V30
p869
sg19
V0
p870
sbag1
(g2
g3
Ntp871
Rp872
(dp873
g7
V299
p874
sg9
VNosepass
p875
sg11
VB2,W2,
p876
sg13
VGrotto
p877
sg15
V25
p878
sg17
V30
p879
sg19
V0
p880
sbag1
(g2
g3
Ntp881
Rp882
(dp883
g7
V527
p884
sg9
VWoobat
p885
sg11
VB2,W2,
p886
sg13
VGrotto
p887
sg15
V25
p888
sg17
V30
p889
sg19
V0
p890
sbag1
(g2
g3
Ntp891
Rp892
(dp893
g7
V590
p894
sg9
VFoongus
p895
sg11
VB2,W2,
p896
sg13
VGrotto
p897
sg15
V25
p898
sg17
V30
p899
sg19
V0
p900
sbag1
(g2
g3
Ntp901
Rp902
(dp903
g7
V590
p904
sg9
VFoongus
p905
sg11
VB2,W2,
p906
sg13
VFake
p907
sg15
V29
p908
sg17
g908
sg19
V0
p909
sba.