(lp0
ccopy_reg
_reconstructor
p1
(c__main__
WildPokemon
p2
c__builtin__
object
p3
Ntp4
Rp5
(dp6
VpDexNo
p7
V507
p8
sVpSpecies
p9
VHerdier
p10
sVpGames
p11
VB,W,
p12
sVpArea
p13
VGrass
p14
sVpMinLevel
p15
V33
p16
sVpMaxLevel
p17
V34
p18
sVpRate
p19
V30
p20
sbag1
(g2
g3
Ntp21
Rp22
(dp23
g7
V538
p24
sg9
VThroh
p25
sg11
VW,
p26
sg13
VGrass
p27
sg15
V33
p28
sg17
V36
p29
sg19
V10
p30
sbag1
(g2
g3
Ntp31
Rp32
(dp33
g7
V539
p34
sg9
VSawk
p35
sg11
VB,
p36
sg13
VGrass
p37
sg15
V33
p38
sg17
V36
p39
sg19
V10
p40
sbag1
(g2
g3
Ntp41
Rp42
(dp43
g7
V590
p44
sg9
VFoongus
p45
sg11
VB,W,
p46
sg13
VGrass
p47
sg15
V34
p48
sg17
V35
p49
sg19
V10
p50
sbag1
(g2
g3
Ntp51
Rp52
(dp53
g7
V626
p54
sg9
VBouffalant
p55
sg11
VB,W,
p56
sg13
VGrass
p57
sg15
V34
p58
sg17
V35
p59
sg19
V20
p60
sbag1
(g2
g3
Ntp61
Rp62
(dp63
g7
V627
p64
sg9
VRufflet
p65
sg11
g26
sg13
VGrass
p66
sg15
V34
p67
sg17
V36
p68
sg19
V30
p69
sbag1
(g2
g3
Ntp70
Rp71
(dp72
g7
V629
p73
sg9
VVullaby
p74
sg11
g36
sg13
VGrass
p75
sg15
V34
p76
sg17
V36
p77
sg19
V30
p78
sbag1
(g2
g3
Ntp79
Rp80
(dp81
g7
V507
p82
sg9
VHerdier
p83
sg11
VB,W,
p84
sg13
VDark
p85
sg15
V38
p86
sg17
V39
p87
sg19
V30
p88
sbag1
(g2
g3
Ntp89
Rp90
(dp91
g7
V538
p92
sg9
VThroh
p93
sg11
g26
sg13
VDark
p94
sg15
V38
p95
sg17
V41
p96
sg19
V10
p97
sbag1
(g2
g3
Ntp98
Rp99
(dp100
g7
V539
p101
sg9
VSawk
p102
sg11
g36
sg13
VDark
p103
sg15
V38
p104
sg17
V41
p105
sg19
V10
p106
sbag1
(g2
g3
Ntp107
Rp108
(dp109
g7
V591
p110
sg9
VAmoonguss
p111
sg11
VB,W,
p112
sg13
VDark
p113
sg15
V39
p114
sg17
V40
p115
sg19
V10
p116
sbag1
(g2
g3
Ntp117
Rp118
(dp119
g7
V626
p120
sg9
VBouffalant
p121
sg11
VB,W,
p122
sg13
VDark
p123
sg15
V39
p124
sg17
V40
p125
sg19
V20
p126
sbag1
(g2
g3
Ntp127
Rp128
(dp129
g7
V627
p130
sg9
VRufflet
p131
sg11
g26
sg13
VDark
p132
sg15
V39
p133
sg17
V41
p134
sg19
V30
p135
sbag1
(g2
g3
Ntp136
Rp137
(dp138
g7
V629
p139
sg9
VVullaby
p140
sg11
g36
sg13
VDark
p141
sg15
V39
p142
sg17
V41
p143
sg19
V30
p144
sbag1
(g2
g3
Ntp145
Rp146
(dp147
g7
V508
p148
sg9
VStoutland
p149
sg11
VB,W,
p150
sg13
VRustling
p151
sg15
V36
p152
sg17
g152
sg19
V5
p153
sbag1
(g2
g3
Ntp154
Rp155
(dp156
g7
V531
p157
sg9
VAudino
p158
sg11
VB,W,
p159
sg13
VRustling
p160
sg15
V33
p161
sg17
V36
p162
sg19
V80
p163
sbag1
(g2
g3
Ntp164
Rp165
(dp166
g7
V538
p167
sg9
VThroh
p168
sg11
g36
sg13
VRustling
p169
sg15
V36
p170
sg17
g170
sg19
V5
p171
sbag1
(g2
g3
Ntp172
Rp173
(dp174
g7
V539
p175
sg9
VSawk
p176
sg11
g26
sg13
VRustling
p177
sg15
V36
p178
sg17
g178
sg19
V5
p179
sbag1
(g2
g3
Ntp180
Rp181
(dp182
g7
V587
p183
sg9
VEmolga
p184
sg11
VB,W,
p185
sg13
VRustling
p186
sg15
V34
p187
sg17
g187
sg19
V10
p188
sbag1
(g2
g3
Ntp189
Rp190
(dp191
g7
V236
p192
sg9
VTyrogue
p193
sg11
VB,W,
p194
sg13
VGrass
p195
sg15
V15
p196
sg17
V55
p197
sg19
V40
p198
sbag1
(g2
g3
Ntp199
Rp200
(dp201
g7
V590
p202
sg9
VFoongus
p203
sg11
VB,W,
p204
sg13
VFake
p205
sg15
V30
p206
sg17
g206
sg19
V0
p207
sbag1
(g2
g3
Ntp208
Rp209
(dp210
g7
V591
p211
sg9
VAmoonguss
p212
sg11
VB,W,
p213
sg13
VFake
p214
sg15
V40
p215
sg17
g215
sg19
V0
p216
sba.