(lp0
ccopy_reg
_reconstructor
p1
(c__main__
WildPokemon
p2
c__builtin__
object
p3
Ntp4
Rp5
(dp6
VpDexNo
p7
V504
p8
sVpSpecies
p9
VPatrat
p10
sVpGames
p11
VB2,W2,
p12
sVpArea
p13
VGrass
p14
sVpMinLevel
p15
V2
p16
sVpMaxLevel
p17
V4
p18
sVpRate
p19
V50
p20
sbag1
(g2
g3
Ntp21
Rp22
(dp23
g7
V509
p24
sg9
VPurrloin
p25
sg11
VB2,W2,
p26
sg13
VGrass
p27
sg15
g16
sg17
g18
sg19
V50
p28
sbag1
(g2
g3
Ntp29
Rp30
(dp31
g7
V504
p32
sg9
VPatrat
p33
sg11
VB2,W2,
p34
sg13
VRustling
p35
sg15
g16
sg17
g18
sg19
V100
p36
sbag1
(g2
g3
Ntp37
Rp38
(dp39
g7
V550
p40
sg9
VBasculin
p41
sg11
VB2,
p42
sg13
VSurf
p43
sg15
V5
p44
sg17
V15
p45
sg19
V100
p46
sbag1
(g2
g3
Ntp47
Rp48
(dp49
g7
V550
p50
sg9
VBasculin
p51
sg11
VW2,
p52
sg13
VSurf
p53
sg15
g44
sg17
V15
p54
sg19
V100
p55
sbag1
(g2
g3
Ntp56
Rp57
(dp58
g7
V550
p59
sg9
VBasculin
p60
sg11
g52
sg13
VRippling
p61
sg15
g44
sg17
V15
p62
sg19
V100
p63
sbag1
(g2
g3
Ntp64
Rp65
(dp66
g7
V550
p67
sg9
VBasculin
p68
sg11
g42
sg13
VRippling
p69
sg15
g44
sg17
V15
p70
sg19
V100
p71
sbag1
(g2
g3
Ntp72
Rp73
(dp74
g7
V060
p75
sg9
VPoliwag
p76
sg11
VB2,W2,
p77
sg13
VFish Super
p78
sg15
V40
p79
sg17
V70
p80
sg19
V70
p81
sbag1
(g2
g3
Ntp82
Rp83
(dp84
g7
V550
p85
sg9
VBasculin
p86
sg11
g42
sg13
VFish Super
p87
sg15
V40
p88
sg17
V60
p89
sg19
V30
p90
sbag1
(g2
g3
Ntp91
Rp92
(dp93
g7
V550
p94
sg9
VBasculin
p95
sg11
g52
sg13
VFish Super
p96
sg15
V40
p97
sg17
V60
p98
sg19
V30
p99
sbag1
(g2
g3
Ntp100
Rp101
(dp102
g7
V061
p103
sg9
VPoliwhirl
p104
sg11
VB2,W2,
p105
sg13
VRippling
p106
sg15
V40
p107
sg17
V70
p108
sg19
V65
p109
sbag1
(g2
g3
Ntp110
Rp111
(dp112
g7
V186
p113
sg9
VPolitoed
p114
sg11
VB2,W2,
p115
sg13
VRippling
p116
sg15
V50
p117
sg17
V70
p118
sg19
V5
p119
sbag1
(g2
g3
Ntp120
Rp121
(dp122
g7
V550
p123
sg9
VBasculin
p124
sg11
g52
sg13
VRippling
p125
sg15
V40
p126
sg17
V60
p127
sg19
V30
p128
sbag1
(g2
g3
Ntp129
Rp130
(dp131
g7
V550
p132
sg9
VBasculin
p133
sg11
g42
sg13
VRippling
p134
sg15
V40
p135
sg17
V60
p136
sg19
V30
p137
sba.