(lp0
ccopy_reg
_reconstructor
p1
(c__main__
WildPokemon
p2
c__builtin__
object
p3
Ntp4
Rp5
(dp6
VpDexNo
p7
V551
p8
sVpSpecies
p9
VSandile
p10
sVpGames
p11
VB,W,
p12
sVpArea
p13
VSand
p14
sVpMinLevel
p15
V15
p16
sVpMaxLevel
p17
V18
p18
sVpRate
p19
V40
p20
sbag1
(g2
g3
Ntp21
Rp22
(dp23
g7
V554
p24
sg9
VDarumaka
p25
sg11
VB,W,
p26
sg13
VSand
p27
sg15
V15
p28
sg17
V18
p29
sg19
V40
p30
sbag1
(g2
g3
Ntp31
Rp32
(dp33
g7
V559
p34
sg9
VScraggy
p35
sg11
VB,W,
p36
sg13
VSand
p37
sg15
V16
p38
sg17
V17
p39
sg19
V20
p40
sbag1
(g2
g3
Ntp41
Rp42
(dp43
g7
V592
p44
sg9
VFrillish
p45
sg11
VB,W,
p46
sg13
VSurf
p47
sg15
V5
p48
sg17
V15
p49
sg19
V100
p50
sbag1
(g2
g3
Ntp51
Rp52
(dp53
g7
V594
p54
sg9
VAlomomola
p55
sg11
VB,W,
p56
sg13
VRippling
p57
sg15
g48
sg17
V20
p58
sg19
V95
p59
sbag1
(g2
g3
Ntp60
Rp61
(dp62
g7
V593
p63
sg9
VJellicent
p64
sg11
VB,W,
p65
sg13
VRippling
p66
sg15
g48
sg17
V20
p67
sg19
V5
p68
sbag1
(g2
g3
Ntp69
Rp70
(dp71
g7
V098
p72
sg9
VKrabby
p73
sg11
VB,W,
p74
sg13
VFish Super
p75
sg15
V35
p76
sg17
V55
p77
sg19
V65
p78
sbag1
(g2
g3
Ntp79
Rp80
(dp81
g7
V366
p82
sg9
VClamperl
p83
sg11
VB,W,
p84
sg13
VFish Super
p85
sg15
V35
p86
sg17
V55
p87
sg19
V30
p88
sbag1
(g2
g3
Ntp89
Rp90
(dp91
g7
V370
p92
sg9
VLuvdisc
p93
sg11
VB,W,
p94
sg13
VFish Super
p95
sg15
V35
p96
sg17
V55
p97
sg19
V5
p98
sbag1
(g2
g3
Ntp99
Rp100
(dp101
g7
V369
p102
sg9
VRelicanth
p103
sg11
VB,W,
p104
sg13
VRippling
p105
sg15
V35
p106
sg17
V60
p107
sg19
V60
p108
sbag1
(g2
g3
Ntp109
Rp110
(dp111
g7
V370
p112
sg9
VLuvdisc
p113
sg11
VB,W,
p114
sg13
VRippling
p115
sg15
V35
p116
sg17
V60
p117
sg19
V30
p118
sbag1
(g2
g3
Ntp119
Rp120
(dp121
g7
V099
p122
sg9
VKingler
p123
sg11
VB,W,
p124
sg13
VRippling
p125
sg15
V35
p126
sg17
V70
p127
sg19
V5
p128
sbag1
(g2
g3
Ntp129
Rp130
(dp131
g7
V367
p132
sg9
VHuntail
p133
sg11
VB,
p134
sg13
VRippling
p135
sg15
V45
p136
sg17
V70
p137
sg19
V5
p138
sbag1
(g2
g3
Ntp139
Rp140
(dp141
g7
V368
p142
sg9
VGorebyss
p143
sg11
VW,
p144
sg13
VRippling
p145
sg15
V45
p146
sg17
V70
p147
sg19
V5
p148
sbag1
(g2
g3
Ntp149
Rp150
(dp151
g7
V449
p152
sg9
VHippopotas
p153
sg11
VB,W,
p154
sg13
VSand
p155
sg15
V15
p156
sg17
V55
p157
sg19
V40
p158
sbag1
(g2
g3
Ntp159
Rp160
(dp161
g7
V551
p162
sg9
VSandile
p163
sg11
VB2,W2,
p164
sg13
VSand
p165
sg15
V14
p166
sg17
V17
p167
sg19
V35
p168
sbag1
(g2
g3
Ntp169
Rp170
(dp171
g7
V554
p172
sg9
VDarumaka
p173
sg11
VB2,W2,
p174
sg13
VSand
p175
sg15
V14
p176
sg17
V17
p177
sg19
V35
p178
sbag1
(g2
g3
Ntp179
Rp180
(dp181
g7
V568
p182
sg9
VTrubbish
p183
sg11
VB2,
p184
sg13
VSand
p185
sg15
V14
p186
sg17
V17
p187
sg19
V25
p188
sbag1
(g2
g3
Ntp189
Rp190
(dp191
g7
V572
p192
sg9
VMinccino
p193
sg11
VW2,
p194
sg13
VSand
p195
sg15
V14
p196
sg17
V17
p197
sg19
V25
p198
sbag1
(g2
g3
Ntp199
Rp200
(dp201
g7
V559
p202
sg9
VScraggy
p203
sg11
VB2,W2,
p204
sg13
VSand
p205
sg15
V17
p206
sg17
g206
sg19
V5
p207
sbag1
(g2
g3
Ntp208
Rp209
(dp210
g7
V592
p211
sg9
VFrillish
p212
sg11
VB2,W2,
p213
sg13
VSurf
p214
sg15
g48
sg17
V15
p215
sg19
V100
p216
sbag1
(g2
g3
Ntp217
Rp218
(dp219
g7
V594
p220
sg9
VAlomomola
p221
sg11
VB2,W2,
p222
sg13
VRippling
p223
sg15
g48
sg17
V15
p224
sg19
V95
p225
sbag1
(g2
g3
Ntp226
Rp227
(dp228
g7
V593
p229
sg9
VJellicent
p230
sg11
VB2,W2,
p231
sg13
VRippling
p232
sg15
g48
sg17
V15
p233
sg19
V5
p234
sbag1
(g2
g3
Ntp235
Rp236
(dp237
g7
V456
p238
sg9
VFinneon
p239
sg11
VB2,W2,
p240
sg13
VFish Super
p241
sg15
V40
p242
sg17
V70
p243
sg19
V65
p244
sbag1
(g2
g3
Ntp245
Rp246
(dp247
g7
V366
p248
sg9
VClamperl
p249
sg11
VB2,W2,
p250
sg13
VFish Super
p251
sg15
V40
p252
sg17
V60
p253
sg19
V30
p254
sbag1
(g2
g3
Ntp255
Rp256
(dp257
g7
V211
p258
sg9
VQwilfish
p259
sg11
VB2,W2,
p260
sg13
VFish Super
p261
sg15
V50
p262
sg17
V70
p263
sg19
V5
p264
sbag1
(g2
g3
Ntp265
Rp266
(dp267
g7
V457
p268
sg9
VLumineon
p269
sg11
VB2,W2,
p270
sg13
VRippling
p271
sg15
V40
p272
sg17
V60
p273
sg19
V60
p274
sbag1
(g2
g3
Ntp275
Rp276
(dp277
g7
V211
p278
sg9
VQwilfish
p279
sg11
VB2,W2,
p280
sg13
VRippling
p281
sg15
V40
p282
sg17
V60
p283
sg19
V30
p284
sbag1
(g2
g3
Ntp285
Rp286
(dp287
g7
V367
p288
sg9
VHuntail
p289
sg11
g184
sg13
VRippling
p290
sg15
V50
p291
sg17
V70
p292
sg19
V5
p293
sbag1
(g2
g3
Ntp294
Rp295
(dp296
g7
V368
p297
sg9
VGorebyss
p298
sg11
g194
sg13
VRippling
p299
sg15
V50
p300
sg17
V70
p301
sg19
V5
p302
sbag1
(g2
g3
Ntp303
Rp304
(dp305
g7
V369
p306
sg9
VRelicanth
p307
sg11
VB2,W2,
p308
sg13
VRippling
p309
sg15
V50
p310
sg17
V70
p311
sg19
V5
p312
sbag1
(g2
g3
Ntp313
Rp314
(dp315
g7
V546
p316
sg9
VCottonee
p317
sg11
g194
sg13
VTrade
p318
sg15
V20
p319
sg17
g319
sg19
V0
p320
sbag1
(g2
g3
Ntp321
Rp322
(dp323
g7
V548
p324
sg9
VPetilil
p325
sg11
g184
sg13
VTrade
p326
sg15
V20
p327
sg17
g327
sg19
V0
p328
sbag1
(g2
g3
Ntp329
Rp330
(dp331
g7
V628
p332
sg9
VBraviary
p333
sg11
g194
sg13
VSpecial
p334
sg15
V25
p335
sg17
g335
sg19
V0
p336
sbag1
(g2
g3
Ntp337
Rp338
(dp339
g7
V630
p340
sg9
VMandibuzz
p341
sg11
g184
sg13
VSpecial
p342
sg15
V25
p343
sg17
g343
sg19
V0
p344
sba.