(lp0
ccopy_reg
_reconstructor
p1
(c__main__
WildPokemon
p2
c__builtin__
object
p3
Ntp4
Rp5
(dp6
VpDexNo
p7
V510
p8
sVpSpecies
p9
VLiepard
p10
sVpGames
p11
VB,W,
p12
sVpArea
p13
VGrass
p14
sVpMinLevel
p15
V33
p16
sVpMaxLevel
p17
g16
sVpRate
p18
V10
p19
sbag1
(g2
g3
Ntp20
Rp21
(dp22
g7
V569
p23
sg9
VGarbodor
p24
sg11
VB,W,
p25
sg13
VGrass
p26
sg15
V31
p27
sg17
V33
p28
sg18
V20
p29
sbag1
(g2
g3
Ntp30
Rp31
(dp32
g7
V572
p33
sg9
VMinccino
p34
sg11
VB,W,
p35
sg13
VGrass
p36
sg15
V32
p37
sg17
g37
sg18
V20
p38
sbag1
(g2
g3
Ntp39
Rp40
(dp41
g7
V575
p42
sg9
VGothorita
p43
sg11
VB,
p44
sg13
VGrass
p45
sg15
V31
p46
sg17
V34
p47
sg18
V30
p48
sbag1
(g2
g3
Ntp49
Rp50
(dp51
g7
V578
p52
sg9
VDuosion
p53
sg11
VW,
p54
sg13
VGrass
p55
sg15
V31
p56
sg17
V34
p57
sg18
V30
p58
sbag1
(g2
g3
Ntp59
Rp60
(dp61
g7
V624
p62
sg9
VPawniard
p63
sg11
VB,W,
p64
sg13
VGrass
p65
sg15
V31
p66
sg17
V34
p67
sg18
V20
p68
sbag1
(g2
g3
Ntp69
Rp70
(dp71
g7
V510
p72
sg9
VLiepard
p73
sg11
VB,W,
p74
sg13
VDark
p75
sg15
V38
p76
sg17
g76
sg18
V10
p77
sbag1
(g2
g3
Ntp78
Rp79
(dp80
g7
V569
p81
sg9
VGarbodor
p82
sg11
VB,W,
p83
sg13
VDark
p84
sg15
V36
p85
sg17
V38
p86
sg18
V20
p87
sbag1
(g2
g3
Ntp88
Rp89
(dp90
g7
V572
p91
sg9
VMinccino
p92
sg11
VB,W,
p93
sg13
VDark
p94
sg15
V37
p95
sg17
g95
sg18
V20
p96
sbag1
(g2
g3
Ntp97
Rp98
(dp99
g7
V575
p100
sg9
VGothorita
p101
sg11
g44
sg13
VDark
p102
sg15
V36
p103
sg17
V39
p104
sg18
V30
p105
sbag1
(g2
g3
Ntp106
Rp107
(dp108
g7
V578
p109
sg9
VDuosion
p110
sg11
g54
sg13
VDark
p111
sg15
V36
p112
sg17
V39
p113
sg18
V30
p114
sbag1
(g2
g3
Ntp115
Rp116
(dp117
g7
V624
p118
sg9
VPawniard
p119
sg11
VB,W,
p120
sg13
VDark
p121
sg15
V31
p122
sg17
V39
p123
sg18
V20
p124
sbag1
(g2
g3
Ntp125
Rp126
(dp127
g7
V531
p128
sg9
VAudino
p129
sg11
VB,W,
p130
sg13
VRustling
p131
sg15
V31
p132
sg17
V34
p133
sg18
V80
p134
sbag1
(g2
g3
Ntp135
Rp136
(dp137
g7
V573
p138
sg9
VCinccino
p139
sg11
VB,W,
p140
sg13
VRustling
p141
sg15
V34
p142
sg17
g142
sg18
V5
p143
sbag1
(g2
g3
Ntp144
Rp145
(dp146
g7
V576
p147
sg9
VGothitelle
p148
sg11
g44
sg13
VRustling
p149
sg15
V34
p150
sg17
g150
sg18
V5
p151
sbag1
(g2
g3
Ntp152
Rp153
(dp154
g7
V579
p155
sg9
VReuniclus
p156
sg11
g54
sg13
VRustling
p157
sg15
V34
p158
sg17
g158
sg18
V5
p159
sbag1
(g2
g3
Ntp160
Rp161
(dp162
g7
V587
p163
sg9
VEmolga
p164
sg11
VB,W,
p165
sg13
VRustling
p166
sg15
V32
p167
sg17
g167
sg18
V10
p168
sbag1
(g2
g3
Ntp169
Rp170
(dp171
g7
V228
p172
sg9
VHoundour
p173
sg11
g44
sg13
VGrass
p174
sg15
V15
p175
sg17
V55
p176
sg18
V40
p177
sbag1
(g2
g3
Ntp178
Rp179
(dp180
g7
V261
p181
sg9
VPoochyena
p182
sg11
g54
sg13
VGrass
p183
sg15
V15
p184
sg17
V55
p185
sg18
V40
p186
sbag1
(g2
g3
Ntp187
Rp188
(dp189
g7
V089
p190
sg9
VMuk
p191
sg11
VB2,W2,
p192
sg13
VGrass
p193
sg15
V40
p194
sg17
g194
sg18
V5
p195
sbag1
(g2
g3
Ntp196
Rp197
(dp198
g7
V510
p199
sg9
VLiepard
p200
sg11
VB2,W2,
p201
sg13
VGrass
p202
sg15
V40
p203
sg17
g203
sg18
V10
p204
sbag1
(g2
g3
Ntp205
Rp206
(dp207
g7
V569
p208
sg9
VGarbodor
p209
sg11
VB2,W2,
p210
sg13
VGrass
p211
sg15
V38
p212
sg17
V40
p213
sg18
V15
p214
sbag1
(g2
g3
Ntp215
Rp216
(dp217
g7
V572
p218
sg9
VMinccino
p219
sg11
VB2,W2,
p220
sg13
VGrass
p221
sg15
V37
p222
sg17
V39
p223
sg18
V30
p224
sbag1
(g2
g3
Ntp225
Rp226
(dp227
g7
V575
p228
sg9
VGothorita
p229
sg11
VB2,
p230
sg13
VGrass
p231
sg15
V37
p232
sg17
V39
p233
sg18
V25
p234
sbag1
(g2
g3
Ntp235
Rp236
(dp237
g7
V578
p238
sg9
VDuosion
p239
sg11
VW2,
p240
sg13
VGrass
p241
sg15
V37
p242
sg17
V39
p243
sg18
V25
p244
sbag1
(g2
g3
Ntp245
Rp246
(dp247
g7
V624
p248
sg9
VPawniard
p249
sg11
VB2,W2,
p250
sg13
VGrass
p251
sg15
V38
p252
sg17
V40
p253
sg18
V15
p254
sbag1
(g2
g3
Ntp255
Rp256
(dp257
g7
V089
p258
sg9
VMuk
p259
sg11
VB2,W2,
p260
sg13
VDark
p261
sg15
V44
p262
sg17
g262
sg18
V5
p263
sbag1
(g2
g3
Ntp264
Rp265
(dp266
g7
V510
p267
sg9
VLiepard
p268
sg11
VB2,W2,
p269
sg13
VDark
p270
sg15
V44
p271
sg17
g271
sg18
V10
p272
sbag1
(g2
g3
Ntp273
Rp274
(dp275
g7
V569
p276
sg9
VGarbodor
p277
sg11
VB2,W2,
p278
sg13
VDark
p279
sg15
V42
p280
sg17
V44
p281
sg18
V15
p282
sbag1
(g2
g3
Ntp283
Rp284
(dp285
g7
V572
p286
sg9
VMinccino
p287
sg11
VB2,W2,
p288
sg13
VDark
p289
sg15
V41
p290
sg17
V43
p291
sg18
V30
p292
sbag1
(g2
g3
Ntp293
Rp294
(dp295
g7
V575
p296
sg9
VGothorita
p297
sg11
g230
sg13
VDark
p298
sg15
V41
p299
sg17
V43
p300
sg18
V25
p301
sbag1
(g2
g3
Ntp302
Rp303
(dp304
g7
V578
p305
sg9
VDuosion
p306
sg11
g240
sg13
VDark
p307
sg15
V41
p308
sg17
V43
p309
sg18
V25
p310
sbag1
(g2
g3
Ntp311
Rp312
(dp313
g7
V624
p314
sg9
VPawniard
p315
sg11
VB2,W2,
p316
sg13
VDark
p317
sg15
V42
p318
sg17
V44
p319
sg18
V15
p320
sbag1
(g2
g3
Ntp321
Rp322
(dp323
g7
V531
p324
sg9
VAudino
p325
sg11
VB2,W2,
p326
sg13
VRustling
p327
sg15
V37
p328
sg17
V40
p329
sg18
V80
p330
sbag1
(g2
g3
Ntp331
Rp332
(dp333
g7
V573
p334
sg9
VCinccino
p335
sg11
VB2,W2,
p336
sg13
VRustling
p337
sg15
V40
p338
sg17
g338
sg18
V5
p339
sbag1
(g2
g3
Ntp340
Rp341
(dp342
g7
V576
p343
sg9
VGothitelle
p344
sg11
g230
sg13
VRustling
p345
sg15
V40
p346
sg17
g346
sg18
V5
p347
sbag1
(g2
g3
Ntp348
Rp349
(dp350
g7
V579
p351
sg9
VReuniclus
p352
sg11
g240
sg13
VRustling
p353
sg15
V40
p354
sg17
g354
sg18
V5
p355
sbag1
(g2
g3
Ntp356
Rp357
(dp358
g7
V587
p359
sg9
VEmolga
p360
sg11
VB2,W2,
p361
sg13
VRustling
p362
sg15
V38
p363
sg17
g363
sg18
V10
p364
sbag1
(g2
g3
Ntp365
Rp366
(dp367
g7
V317
p368
sg9
VSwalot
p369
sg11
VB2,W2,
p370
sg13
VGrass
p371
sg15
V40
p372
sg17
V55
p373
sg18
V40
p374
sba.