(lp0
ccopy_reg
_reconstructor
p1
(c__main__
WildPokemon
p2
c__builtin__
object
p3
Ntp4
Rp5
(dp6
VpDexNo
p7
V041
p8
sVpSpecies
p9
VZubat
p10
sVpGames
p11
VSu,M,
p12
sVpArea
p13
VCave
p14
sVpMinLevel
p15
V8
p16
sVpMaxLevel
p17
V11
p18
sVpRate
p19
V70
p20
sbag1
(g2
g3
Ntp21
Rp22
(dp23
g7
V050
p24
sg9
VDiglett
p25
sg11
VSu,M,
p26
sg13
VCave
p27
sg15
g16
sg17
V11
p28
sg19
V30
p29
sbag1
(g2
g3
Ntp30
Rp31
(dp32
g7
V019
p33
sg9
VRattata
p34
sg11
VM,
p35
sg13
VDirt cloud
p36
sg15
V11
p37
sg17
g37
sg19
V100
p38
sbag1
(g2
g3
Ntp39
Rp40
(dp41
g7
V734
p42
sg9
VYungoos
p43
sg11
VSu,
p44
sg13
VDirt cloud
p45
sg15
V11
p46
sg17
g46
sg19
V100
p47
sbag1
(g2
g3
Ntp48
Rp49
(dp50
g7
V795
p51
sg9
VPheromosa
p52
sg11
g35
sg13
VCave
p53
sg15
V60
p54
sg17
g54
sg19
V0
p55
sbag1
(g2
g3
Ntp56
Rp57
(dp58
g7
V041
p59
sg9
VZubat
p60
sg11
VUS,UM,
p61
sg13
VCave
p62
sg15
g16
sg17
V11
p63
sg19
V35
p64
sbag1
(g2
g3
Ntp65
Rp66
(dp67
g7
V050
p68
sg9
VDiglett
p69
sg11
VUS,UM,
p70
sg13
VCave
p71
sg15
g16
sg17
V11
p72
sg19
V35
p73
sbag1
(g2
g3
Ntp74
Rp75
(dp76
g7
V714
p77
sg9
VNoibat
p78
sg11
VUS,UM,
p79
sg13
VCave
p80
sg15
g16
sg17
V11
p81
sg19
V30
p82
sbag1
(g2
g3
Ntp83
Rp84
(dp85
g7
V019
p86
sg9
VRattata
p87
sg11
VUM,
p88
sg13
VDirt cloud
p89
sg15
V10
p90
sg17
g90
sg19
V100
p91
sbag1
(g2
g3
Ntp92
Rp93
(dp94
g7
V734
p95
sg9
VYungoos
p96
sg11
VUS,
p97
sg13
VDirt cloud
p98
sg15
V10
p99
sg17
g99
sg19
V100
p100
sba.