(lp0
ccopy_reg
_reconstructor
p1
(c__main__
WildPokemon
p2
c__builtin__
object
p3
Ntp4
Rp5
(dp6
VpDexNo
p7
V611
p8
sVpSpecies
p9
VFraxure
p10
sVpGames
p11
VB,W,
p12
sVpArea
p13
VRough
p14
sVpMinLevel
p15
V40
p16
sVpMaxLevel
p17
g16
sVpRate
p18
V5
p19
sbag1
(g2
g3
Ntp20
Rp21
(dp22
g7
V619
p23
sg9
VMienfoo
p24
sg11
VB,W,
p25
sg13
VRough
p26
sg15
V38
p27
sg17
V40
p28
sg18
V15
p29
sbag1
(g2
g3
Ntp30
Rp31
(dp32
g7
V627
p33
sg9
VRufflet
p34
sg11
VW,
p35
sg13
VRough
p36
sg15
V37
p37
sg17
V40
p38
sg18
V35
p39
sbag1
(g2
g3
Ntp40
Rp41
(dp42
g7
V629
p43
sg9
VVullaby
p44
sg11
VB,
p45
sg13
VRough
p46
sg15
V37
p47
sg17
V40
p48
sg18
V35
p49
sbag1
(g2
g3
Ntp50
Rp51
(dp52
g7
V631
p53
sg9
VHeatmor
p54
sg11
VB,W,
p55
sg13
VRough
p56
sg15
V37
p57
sg17
V40
p58
sg18
V45
p59
sbag1
(g2
g3
Ntp60
Rp61
(dp62
g7
V525
p63
sg9
VBoldore
p64
sg11
VB,W,
p65
sg13
VCave
p66
sg15
V39
p67
sg17
g67
sg18
V20
p68
sbag1
(g2
g3
Ntp69
Rp70
(dp71
g7
V527
p72
sg9
VWoobat
p73
sg11
VB,W,
p74
sg13
VCave
p75
sg15
V37
p76
sg17
g76
sg18
V10
p77
sbag1
(g2
g3
Ntp78
Rp79
(dp80
g7
V619
p81
sg9
VMienfoo
p82
sg11
VB,W,
p83
sg13
VCave
p84
sg15
V39
p85
sg17
g85
sg18
V10
p86
sbag1
(g2
g3
Ntp87
Rp88
(dp89
g7
V632
p90
sg9
VDurant
p91
sg11
VB,W,
p92
sg13
VCave
p93
sg15
V37
p94
sg17
V40
p95
sg18
V40
p96
sbag1
(g2
g3
Ntp97
Rp98
(dp99
g7
V633
p100
sg9
VDeino
p101
sg11
VB,W,
p102
sg13
VCave
p103
sg15
V38
p104
sg17
V40
p105
sg18
V20
p106
sbag1
(g2
g3
Ntp107
Rp108
(dp109
g7
V530
p110
sg9
VExcadrill
p111
sg11
VB,W,
p112
sg13
VDust
p113
sg15
V37
p114
sg17
V40
p115
sg18
V100
p116
sbag1
(g2
g3
Ntp117
Rp118
(dp119
g7
V550
p120
sg9
VBasculin
p121
sg11
g45
sg13
VSurf
p122
sg15
V20
p123
sg17
V45
p124
sg18
V100
p125
sbag1
(g2
g3
Ntp126
Rp127
(dp128
g7
V550
p129
sg9
VBasculin
p130
sg11
g35
sg13
VSurf
p131
sg15
V20
p132
sg17
V45
p133
sg18
V100
p134
sbag1
(g2
g3
Ntp135
Rp136
(dp137
g7
V550
p138
sg9
VBasculin
p139
sg11
g35
sg13
VRippling
p140
sg15
V20
p141
sg17
V50
p142
sg18
V100
p143
sbag1
(g2
g3
Ntp144
Rp145
(dp146
g7
V550
p147
sg9
VBasculin
p148
sg11
g45
sg13
VRippling
p149
sg15
V20
p150
sg17
V50
p151
sg18
V100
p152
sbag1
(g2
g3
Ntp153
Rp154
(dp155
g7
V060
p156
sg9
VPoliwag
p157
sg11
VB,W,
p158
sg13
VFish Super
p159
sg15
V35
p160
sg17
V55
p161
sg18
V65
p162
sbag1
(g2
g3
Ntp163
Rp164
(dp165
g7
V061
p166
sg9
VPoliwhirl
p167
sg11
VB,W,
p168
sg13
VFish Super
p169
sg15
V35
p170
sg17
V55
p171
sg18
V5
p172
sbag1
(g2
g3
Ntp173
Rp174
(dp175
g7
V550
p176
sg9
VBasculin
p177
sg11
g45
sg13
VFish Super
p178
sg15
V35
p179
sg17
V55
p180
sg18
V30
p181
sbag1
(g2
g3
Ntp182
Rp183
(dp184
g7
V550
p185
sg9
VBasculin
p186
sg11
g35
sg13
VFish Super
p187
sg15
V35
p188
sg17
V55
p189
sg18
V30
p190
sbag1
(g2
g3
Ntp191
Rp192
(dp193
g7
V061
p194
sg9
VPoliwhirl
p195
sg11
VB,W,
p196
sg13
VRippling
p197
sg15
V35
p198
sg17
V70
p199
sg18
V65
p200
sbag1
(g2
g3
Ntp201
Rp202
(dp203
g7
V062
p204
sg9
VPoliwrath
p205
sg11
VB,W,
p206
sg13
VRippling
p207
sg15
V45
p208
sg17
V70
p209
sg18
V5
p210
sbag1
(g2
g3
Ntp211
Rp212
(dp213
g7
V550
p214
sg9
VBasculin
p215
sg11
g35
sg13
VRippling
p216
sg15
V35
p217
sg17
V60
p218
sg18
V30
p219
sbag1
(g2
g3
Ntp220
Rp221
(dp222
g7
V550
p223
sg9
VBasculin
p224
sg11
g45
sg13
VRippling
p225
sg15
V35
p226
sg17
V60
p227
sg18
V30
p228
sbag1
(g2
g3
Ntp229
Rp230
(dp231
g7
V525
p232
sg9
VBoldore
p233
sg11
VB,W,
p234
sg13
VCave
p235
sg15
V37
p236
sg17
V39
p237
sg18
V30
p238
sbag1
(g2
g3
Ntp239
Rp240
(dp241
g7
V527
p242
sg9
VWoobat
p243
sg11
VB,W,
p244
sg13
VCave
p245
sg15
V37
p246
sg17
V40
p247
sg18
V20
p248
sbag1
(g2
g3
Ntp249
Rp250
(dp251
g7
V619
p252
sg9
VMienfoo
p253
sg11
VB,W,
p254
sg13
VCave
p255
sg15
V39
p256
sg17
g256
sg18
V10
p257
sbag1
(g2
g3
Ntp258
Rp259
(dp260
g7
V632
p261
sg9
VDurant
p262
sg11
VB,W,
p263
sg13
VCave
p264
sg15
V37
p265
sg17
V40
p266
sg18
V40
p267
sbag1
(g2
g3
Ntp268
Rp269
(dp270
g7
V530
p271
sg9
VExcadrill
p272
sg11
VB,W,
p273
sg13
VDust
p274
sg15
V37
p275
sg17
V40
p276
sg18
V100
p277
sbag1
(g2
g3
Ntp278
Rp279
(dp280
g7
V525
p281
sg9
VBoldore
p282
sg11
VB,W,
p283
sg13
VCave
p284
sg15
V39
p285
sg17
V41
p286
sg18
V30
p287
sbag1
(g2
g3
Ntp288
Rp289
(dp290
g7
V527
p291
sg9
VWoobat
p292
sg11
VB,W,
p293
sg13
VCave
p294
sg15
V39
p295
sg17
V42
p296
sg18
V20
p297
sbag1
(g2
g3
Ntp298
Rp299
(dp300
g7
V619
p301
sg9
VMienfoo
p302
sg11
VB,W,
p303
sg13
VCave
p304
sg15
V41
p305
sg17
g305
sg18
V10
p306
sbag1
(g2
g3
Ntp307
Rp308
(dp309
g7
V632
p310
sg9
VDurant
p311
sg11
VB,W,
p312
sg13
VCave
p313
sg15
V39
p314
sg17
V42
p315
sg18
V40
p316
sbag1
(g2
g3
Ntp317
Rp318
(dp319
g7
V530
p320
sg9
VExcadrill
p321
sg11
VB,W,
p322
sg13
VDust
p323
sg15
V39
p324
sg17
V42
p325
sg18
V100
p326
sbag1
(g2
g3
Ntp327
Rp328
(dp329
g7
V525
p330
sg9
VBoldore
p331
sg11
VB,W,
p332
sg13
VCave
p333
sg15
V39
p334
sg17
V41
p335
sg18
V30
p336
sbag1
(g2
g3
Ntp337
Rp338
(dp339
g7
V527
p340
sg9
VWoobat
p341
sg11
VB,W,
p342
sg13
VCave
p343
sg15
V39
p344
sg17
V42
p345
sg18
V20
p346
sbag1
(g2
g3
Ntp347
Rp348
(dp349
g7
V619
p350
sg9
VMienfoo
p351
sg11
VB,W,
p352
sg13
VCave
p353
sg15
V41
p354
sg17
g354
sg18
V10
p355
sbag1
(g2
g3
Ntp356
Rp357
(dp358
g7
V632
p359
sg9
VDurant
p360
sg11
VB,W,
p361
sg13
VCave
p362
sg15
V39
p363
sg17
V42
p364
sg18
V40
p365
sbag1
(g2
g3
Ntp366
Rp367
(dp368
g7
V530
p369
sg9
VExcadrill
p370
sg11
VB,W,
p371
sg13
VDust
p372
sg15
V39
p373
sg17
V42
p374
sg18
V100
p375
sbag1
(g2
g3
Ntp376
Rp377
(dp378
g7
V525
p379
sg9
VBoldore
p380
sg11
VB,W,
p381
sg13
VCave
p382
sg15
V39
p383
sg17
V41
p384
sg18
V30
p385
sbag1
(g2
g3
Ntp386
Rp387
(dp388
g7
V527
p389
sg9
VWoobat
p390
sg11
VB,W,
p391
sg13
VCave
p392
sg15
V39
p393
sg17
V42
p394
sg18
V20
p395
sbag1
(g2
g3
Ntp396
Rp397
(dp398
g7
V619
p399
sg9
VMienfoo
p400
sg11
VB,W,
p401
sg13
VCave
p402
sg15
V41
p403
sg17
g403
sg18
V10
p404
sbag1
(g2
g3
Ntp405
Rp406
(dp407
g7
V632
p408
sg9
VDurant
p409
sg11
VB,W,
p410
sg13
VCave
p411
sg15
V39
p412
sg17
V42
p413
sg18
V40
p414
sbag1
(g2
g3
Ntp415
Rp416
(dp417
g7
V530
p418
sg9
VExcadrill
p419
sg11
VB,W,
p420
sg13
VDust
p421
sg15
V39
p422
sg17
V42
p423
sg18
V100
p424
sbag1
(g2
g3
Ntp425
Rp426
(dp427
g7
V639
p428
sg9
VTerrakion
p429
sg11
VB,W,
p430
sg13
VSpecial
p431
sg15
V42
p432
sg17
g432
sg18
V0
p433
sba.