(lp0
ccopy_reg
_reconstructor
p1
(c__main__
WildPokemon
p2
c__builtin__
object
p3
Ntp4
Rp5
(dp6
VpDexNo
p7
V354
p8
sVpSpecies
p9
VBanette
p10
sVpGames
p11
VB2,W2,
p12
sVpArea
p13
VCave
p14
sVpMinLevel
p15
V47
p16
sVpMaxLevel
p17
V50
p18
sVpRate
p19
V70
p20
sbag1
(g2
g3
Ntp21
Rp22
(dp23
g7
V623
p24
sg9
VGolurk
p25
sg11
VB2,W2,
p26
sg13
VCave
p27
sg15
V48
p28
sg17
V50
p29
sg19
V30
p30
sbag1
(g2
g3
Ntp31
Rp32
(dp33
g7
V183
p34
sg9
VMarill
p35
sg11
VB2,W2,
p36
sg13
VSurf
p37
sg15
V35
p38
sg17
V50
p39
sg19
V30
p40
sbag1
(g2
g3
Ntp41
Rp42
(dp43
g7
V550
p44
sg9
VBasculin
p45
sg11
VB2,
p46
sg13
VSurf
p47
sg15
V35
p48
sg17
V50
p49
sg19
V70
p50
sbag1
(g2
g3
Ntp51
Rp52
(dp53
g7
V550
p54
sg9
VBasculin
p55
sg11
VW2,
p56
sg13
VSurf
p57
sg15
V35
p58
sg17
V50
p59
sg19
V70
p60
sbag1
(g2
g3
Ntp61
Rp62
(dp63
g7
V183
p64
sg9
VMarill
p65
sg11
VB2,W2,
p66
sg13
VRippling
p67
sg15
V35
p68
sg17
V50
p69
sg19
V60
p70
sbag1
(g2
g3
Ntp71
Rp72
(dp73
g7
V184
p74
sg9
VAzumarill
p75
sg11
VB2,W2,
p76
sg13
VRippling
p77
sg15
V40
p78
sg17
V50
p79
sg19
V5
p80
sbag1
(g2
g3
Ntp81
Rp82
(dp83
g7
V550
p84
sg9
VBasculin
p85
sg11
g46
sg13
VRippling
p86
sg15
V35
p87
sg17
V50
p88
sg19
V35
p89
sbag1
(g2
g3
Ntp90
Rp91
(dp92
g7
V550
p93
sg9
VBasculin
p94
sg11
g56
sg13
VRippling
p95
sg15
V35
p96
sg17
V50
p97
sg19
V35
p98
sbag1
(g2
g3
Ntp99
Rp100
(dp101
g7
V060
p102
sg9
VPoliwag
p103
sg11
VB2,W2,
p104
sg13
VFish Super
p105
sg15
V40
p106
sg17
V55
p107
sg19
V70
p108
sbag1
(g2
g3
Ntp109
Rp110
(dp111
g7
V550
p112
sg9
VBasculin
p113
sg11
g46
sg13
VFish Super
p114
sg15
V40
p115
sg17
V55
p116
sg19
V30
p117
sbag1
(g2
g3
Ntp118
Rp119
(dp120
g7
V550
p121
sg9
VBasculin
p122
sg11
g56
sg13
VFish Super
p123
sg15
V40
p124
sg17
V55
p125
sg19
V30
p126
sbag1
(g2
g3
Ntp127
Rp128
(dp129
g7
V061
p130
sg9
VPoliwhirl
p131
sg11
VB2,W2,
p132
sg13
VRippling
p133
sg15
V40
p134
sg17
V60
p135
sg19
V65
p136
sbag1
(g2
g3
Ntp137
Rp138
(dp139
g7
V062
p140
sg9
VPoliwrath
p141
sg11
VB2,W2,
p142
sg13
VRippling
p143
sg15
V50
p144
sg17
V60
p145
sg19
V5
p146
sbag1
(g2
g3
Ntp147
Rp148
(dp149
g7
V550
p150
sg9
VBasculin
p151
sg11
g46
sg13
VRippling
p152
sg15
V40
p153
sg17
V60
p154
sg19
V30
p155
sbag1
(g2
g3
Ntp156
Rp157
(dp158
g7
V550
p159
sg9
VBasculin
p160
sg11
g56
sg13
VRippling
p161
sg15
V40
p162
sg17
V60
p163
sg19
V30
p164
sbag1
(g2
g3
Ntp165
Rp166
(dp167
g7
V315
p168
sg9
VRoselia
p169
sg11
VB2,W2,
p170
sg13
VGrass
p171
sg15
V48
p172
sg17
V50
p173
sg19
V30
p174
sbag1
(g2
g3
Ntp175
Rp176
(dp177
g7
V546
p178
sg9
VCottonee
p179
sg11
g46
sg13
VGrass
p180
sg15
V47
p181
sg17
V50
p182
sg19
V70
p183
sbag1
(g2
g3
Ntp184
Rp185
(dp186
g7
V548
p187
sg9
VPetilil
p188
sg11
g56
sg13
VGrass
p189
sg15
V47
p190
sg17
V50
p191
sg19
V70
p192
sbag1
(g2
g3
Ntp193
Rp194
(dp195
g7
V315
p196
sg9
VRoselia
p197
sg11
VB2,W2,
p198
sg13
VDark
p199
sg15
V53
p200
sg17
V55
p201
sg19
V30
p202
sbag1
(g2
g3
Ntp203
Rp204
(dp205
g7
V546
p206
sg9
VCottonee
p207
sg11
g46
sg13
VDark
p208
sg15
V52
p209
sg17
V55
p210
sg19
V70
p211
sbag1
(g2
g3
Ntp212
Rp213
(dp214
g7
V548
p215
sg9
VPetilil
p216
sg11
g56
sg13
VDark
p217
sg15
V52
p218
sg17
V55
p219
sg19
V70
p220
sbag1
(g2
g3
Ntp221
Rp222
(dp223
g7
V206
p224
sg9
VDunsparce
p225
sg11
VB2,W2,
p226
sg13
VRustling
p227
sg15
V49
p228
sg17
g228
sg19
V10
p229
sbag1
(g2
g3
Ntp230
Rp231
(dp232
g7
V407
p233
sg9
VRoserade
p234
sg11
VB2,W2,
p235
sg13
VRustling
p236
sg15
V50
p237
sg17
g237
sg19
V5
p238
sbag1
(g2
g3
Ntp239
Rp240
(dp241
g7
V531
p242
sg9
VAudino
p243
sg11
VB2,W2,
p244
sg13
VRustling
p245
sg15
V47
p246
sg17
V50
p247
sg19
V80
p248
sbag1
(g2
g3
Ntp249
Rp250
(dp251
g7
V547
p252
sg9
VWhimsicott
p253
sg11
g46
sg13
VRustling
p254
sg15
V50
p255
sg17
g255
sg19
V5
p256
sbag1
(g2
g3
Ntp257
Rp258
(dp259
g7
V549
p260
sg9
VLilligant
p261
sg11
g56
sg13
VRustling
p262
sg15
V50
p263
sg17
g263
sg19
V5
p264
sbag1
(g2
g3
Ntp265
Rp266
(dp267
g7
V334
p268
sg9
VAltaria
p269
sg11
VB2,W2,
p270
sg13
VGrass
p271
sg15
V49
p272
sg17
V50
p273
sg19
V20
p274
sbag1
(g2
g3
Ntp275
Rp276
(dp277
g7
V520
p278
sg9
VTranquill
p279
sg11
VB2,W2,
p280
sg13
VGrass
p281
sg15
V47
p282
sg17
V50
p283
sg19
V80
p284
sbag1
(g2
g3
Ntp285
Rp286
(dp287
g7
V334
p288
sg9
VAltaria
p289
sg11
VB2,W2,
p290
sg13
VDark
p291
sg15
V54
p292
sg17
V55
p293
sg19
V20
p294
sbag1
(g2
g3
Ntp295
Rp296
(dp297
g7
V520
p298
sg9
VTranquill
p299
sg11
VB2,W2,
p300
sg13
VDark
p301
sg15
V52
p302
sg17
V55
p303
sg19
V80
p304
sbag1
(g2
g3
Ntp305
Rp306
(dp307
g7
V206
p308
sg9
VDunsparce
p309
sg11
VB2,W2,
p310
sg13
VRustling
p311
sg15
V49
p312
sg17
g312
sg19
V10
p313
sbag1
(g2
g3
Ntp314
Rp315
(dp316
g7
V521
p317
sg9
VUnfezant
p318
sg11
VB2,W2,
p319
sg13
VRustling
p320
sg15
V50
p321
sg17
g321
sg19
V5
p322
sbag1
(g2
g3
Ntp323
Rp324
(dp325
g7
V531
p326
sg9
VAudino
p327
sg11
VB2,W2,
p328
sg13
VRustling
p329
sg15
V47
p330
sg17
V50
p331
sg19
V85
p332
sbag1
(g2
g3
Ntp333
Rp334
(dp335
g7
V418
p336
sg9
VBuizel
p337
sg11
VB2,W2,
p338
sg13
VSurf
p339
sg15
V35
p340
sg17
V50
p341
sg19
V30
p342
sbag1
(g2
g3
Ntp343
Rp344
(dp345
g7
V550
p346
sg9
VBasculin
p347
sg11
g46
sg13
VSurf
p348
sg15
V35
p349
sg17
V50
p350
sg19
V70
p351
sbag1
(g2
g3
Ntp352
Rp353
(dp354
g7
V550
p355
sg9
VBasculin
p356
sg11
g56
sg13
VSurf
p357
sg15
V35
p358
sg17
V50
p359
sg19
V70
p360
sbag1
(g2
g3
Ntp361
Rp362
(dp363
g7
V418
p364
sg9
VBuizel
p365
sg11
VB2,W2,
p366
sg13
VRippling
p367
sg15
V35
p368
sg17
V50
p369
sg19
V60
p370
sbag1
(g2
g3
Ntp371
Rp372
(dp373
g7
V419
p374
sg9
VFloatzel
p375
sg11
VB2,W2,
p376
sg13
VRippling
p377
sg15
V40
p378
sg17
V50
p379
sg19
V10
p380
sbag1
(g2
g3
Ntp381
Rp382
(dp383
g7
V550
p384
sg9
VBasculin
p385
sg11
g46
sg13
VRippling
p386
sg15
V35
p387
sg17
V50
p388
sg19
V30
p389
sbag1
(g2
g3
Ntp390
Rp391
(dp392
g7
V550
p393
sg9
VBasculin
p394
sg11
g56
sg13
VRippling
p395
sg15
V35
p396
sg17
V50
p397
sg19
V30
p398
sbag1
(g2
g3
Ntp399
Rp400
(dp401
g7
V060
p402
sg9
VPoliwag
p403
sg11
VB2,W2,
p404
sg13
VFish Super
p405
sg15
V40
p406
sg17
V70
p407
sg19
V70
p408
sbag1
(g2
g3
Ntp409
Rp410
(dp411
g7
V550
p412
sg9
VBasculin
p413
sg11
g46
sg13
VFish Super
p414
sg15
V40
p415
sg17
V60
p416
sg19
V30
p417
sbag1
(g2
g3
Ntp418
Rp419
(dp420
g7
V550
p421
sg9
VBasculin
p422
sg11
g56
sg13
VFish Super
p423
sg15
V40
p424
sg17
V60
p425
sg19
V30
p426
sbag1
(g2
g3
Ntp427
Rp428
(dp429
g7
V061
p430
sg9
VPoliwhirl
p431
sg11
VB2,W2,
p432
sg13
VRippling
p433
sg15
V40
p434
sg17
V70
p435
sg19
V65
p436
sbag1
(g2
g3
Ntp437
Rp438
(dp439
g7
V186
p440
sg9
VPolitoed
p441
sg11
VB2,W2,
p442
sg13
VRippling
p443
sg15
V50
p444
sg17
V70
p445
sg19
V5
p446
sbag1
(g2
g3
Ntp447
Rp448
(dp449
g7
V550
p450
sg9
VBasculin
p451
sg11
g46
sg13
VRippling
p452
sg15
V40
p453
sg17
V60
p454
sg19
V30
p455
sbag1
(g2
g3
Ntp456
Rp457
(dp458
g7
V550
p459
sg9
VBasculin
p460
sg11
g56
sg13
VRippling
p461
sg15
V40
p462
sg17
V60
p463
sg19
V30
p464
sbag1
(g2
g3
Ntp465
Rp466
(dp467
g7
V095
p468
sg9
VOnix
p469
sg11
VB2,W2,
p470
sg13
VCave
p471
sg15
V43
p472
sg17
V44
p473
sg19
V20
p474
sbag1
(g2
g3
Ntp475
Rp476
(dp477
g7
V525
p478
sg9
VBoldore
p479
sg11
VB2,W2,
p480
sg13
VCave
p481
sg15
V41
p482
sg17
V44
p483
sg19
V80
p484
sbag1
(g2
g3
Ntp485
Rp486
(dp487
g7
V095
p488
sg9
VOnix
p489
sg11
VB2,W2,
p490
sg13
VDust
p491
sg15
V41
p492
sg17
g492
sg19
V20
p493
sbag1
(g2
g3
Ntp494
Rp495
(dp496
g7
V530
p497
sg9
VExcadrill
p498
sg11
VB2,W2,
p499
sg13
VDust
p500
sg15
V41
p501
sg17
V44
p502
sg19
V80
p503
sbag1
(g2
g3
Ntp504
Rp505
(dp506
g7
V095
p507
sg9
VOnix
p508
sg11
VB2,W2,
p509
sg13
VCave
p510
sg15
V49
p511
sg17
V50
p512
sg19
V20
p513
sbag1
(g2
g3
Ntp514
Rp515
(dp516
g7
V525
p517
sg9
VBoldore
p518
sg11
VB2,W2,
p519
sg13
VCave
p520
sg15
V47
p521
sg17
V50
p522
sg19
V80
p523
sbag1
(g2
g3
Ntp524
Rp525
(dp526
g7
V095
p527
sg9
VOnix
p528
sg11
VB2,W2,
p529
sg13
VDust
p530
sg15
V47
p531
sg17
g531
sg19
V20
p532
sbag1
(g2
g3
Ntp533
Rp534
(dp535
g7
V530
p536
sg9
VExcadrill
p537
sg11
VB2,W2,
p538
sg13
VDust
p539
sg15
V47
p540
sg17
V50
p541
sg19
V80
p542
sbag1
(g2
g3
Ntp543
Rp544
(dp545
g7
V183
p546
sg9
VMarill
p547
sg11
VB2,W2,
p548
sg13
VSurf
p549
sg15
V35
p550
sg17
V50
p551
sg19
V30
p552
sbag1
(g2
g3
Ntp553
Rp554
(dp555
g7
V550
p556
sg9
VBasculin
p557
sg11
g46
sg13
VSurf
p558
sg15
V35
p559
sg17
V50
p560
sg19
V70
p561
sbag1
(g2
g3
Ntp562
Rp563
(dp564
g7
V550
p565
sg9
VBasculin
p566
sg11
g56
sg13
VSurf
p567
sg15
V35
p568
sg17
V50
p569
sg19
V70
p570
sbag1
(g2
g3
Ntp571
Rp572
(dp573
g7
V183
p574
sg9
VMarill
p575
sg11
VB2,W2,
p576
sg13
VRippling
p577
sg15
V35
p578
sg17
V60
p579
sg19
V60
p580
sbag1
(g2
g3
Ntp581
Rp582
(dp583
g7
V184
p584
sg9
VAzumarill
p585
sg11
VB2,W2,
p586
sg13
VRippling
p587
sg15
V40
p588
sg17
V70
p589
sg19
V5
p590
sbag1
(g2
g3
Ntp591
Rp592
(dp593
g7
V550
p594
sg9
VBasculin
p595
sg11
g46
sg13
VRippling
p596
sg15
V35
p597
sg17
V70
p598
sg19
V35
p599
sbag1
(g2
g3
Ntp600
Rp601
(dp602
g7
V550
p603
sg9
VBasculin
p604
sg11
g56
sg13
VRippling
p605
sg15
V35
p606
sg17
V70
p607
sg19
V35
p608
sbag1
(g2
g3
Ntp609
Rp610
(dp611
g7
V060
p612
sg9
VPoliwag
p613
sg11
VB2,W2,
p614
sg13
VFish Super
p615
sg15
V40
p616
sg17
V70
p617
sg19
V70
p618
sbag1
(g2
g3
Ntp619
Rp620
(dp621
g7
V550
p622
sg9
VBasculin
p623
sg11
g46
sg13
VFish Super
p624
sg15
V40
p625
sg17
V60
p626
sg19
V30
p627
sbag1
(g2
g3
Ntp628
Rp629
(dp630
g7
V550
p631
sg9
VBasculin
p632
sg11
g56
sg13
VFish Super
p633
sg15
V40
p634
sg17
V60
p635
sg19
V30
p636
sbag1
(g2
g3
Ntp637
Rp638
(dp639
g7
V061
p640
sg9
VPoliwhirl
p641
sg11
VB2,W2,
p642
sg13
VRippling
p643
sg15
V40
p644
sg17
V70
p645
sg19
V65
p646
sbag1
(g2
g3
Ntp647
Rp648
(dp649
g7
V062
p650
sg9
VPoliwrath
p651
sg11
VB2,W2,
p652
sg13
VRippling
p653
sg15
V50
p654
sg17
V70
p655
sg19
V5
p656
sbag1
(g2
g3
Ntp657
Rp658
(dp659
g7
V550
p660
sg9
VBasculin
p661
sg11
g46
sg13
VRippling
p662
sg15
V40
p663
sg17
V60
p664
sg19
V30
p665
sbag1
(g2
g3
Ntp666
Rp667
(dp668
g7
V550
p669
sg9
VBasculin
p670
sg11
g56
sg13
VRippling
p671
sg15
V40
p672
sg17
V60
p673
sg19
V30
p674
sbag1
(g2
g3
Ntp675
Rp676
(dp677
g7
V621
p678
sg9
VDruddigon
p679
sg11
VB2,W2,
p680
sg13
VCave
p681
sg15
V47
p682
sg17
V50
p683
sg19
V80
p684
sbag1
(g2
g3
Ntp685
Rp686
(dp687
g7
V634
p688
sg9
VZweilous
p689
sg11
VB2,W2,
p690
sg13
VCave
p691
sg15
V49
p692
sg17
V50
p693
sg19
V20
p694
sbag1
(g2
g3
Ntp695
Rp696
(dp697
g7
V095
p698
sg9
VOnix
p699
sg11
VB2,W2,
p700
sg13
VDust
p701
sg15
V47
p702
sg17
g702
sg19
V20
p703
sbag1
(g2
g3
Ntp704
Rp705
(dp706
g7
V530
p707
sg9
VExcadrill
p708
sg11
VB2,W2,
p709
sg13
VDust
p710
sg15
V47
p711
sg17
V50
p712
sg19
V80
p713
sbag1
(g2
g3
Ntp714
Rp715
(dp716
g7
V533
p717
sg9
VGurdurr
p718
sg11
VB2,W2,
p719
sg13
VGrass
p720
sg15
V47
p721
sg17
V50
p722
sg19
V70
p723
sbag1
(g2
g3
Ntp724
Rp725
(dp726
g7
V538
p727
sg9
VThroh
p728
sg11
VB2,W2,
p729
sg13
VGrass
p730
sg15
V48
p731
sg17
V50
p732
sg19
V30
p733
sbag1
(g2
g3
Ntp734
Rp735
(dp736
g7
V533
p737
sg9
VGurdurr
p738
sg11
VB2,W2,
p739
sg13
VDark
p740
sg15
V52
p741
sg17
V55
p742
sg19
V70
p743
sbag1
(g2
g3
Ntp744
Rp745
(dp746
g7
V538
p747
sg9
VThroh
p748
sg11
VB2,W2,
p749
sg13
VDark
p750
sg15
V53
p751
sg17
V55
p752
sg19
V30
p753
sbag1
(g2
g3
Ntp754
Rp755
(dp756
g7
V531
p757
sg9
VAudino
p758
sg11
VB2,W2,
p759
sg13
VRustling
p760
sg15
V47
p761
sg17
V50
p762
sg19
V95
p763
sbag1
(g2
g3
Ntp764
Rp765
(dp766
g7
V539
p767
sg9
VSawk
p768
sg11
VB2,W2,
p769
sg13
VRustling
p770
sg15
V50
p771
sg17
g771
sg19
V5
p772
sbag1
(g2
g3
Ntp773
Rp774
(dp775
g7
V095
p776
sg9
VOnix
p777
sg11
VB2,W2,
p778
sg13
VCave
p779
sg15
V49
p780
sg17
V50
p781
sg19
V20
p782
sbag1
(g2
g3
Ntp783
Rp784
(dp785
g7
V525
p786
sg9
VBoldore
p787
sg11
VB2,W2,
p788
sg13
VCave
p789
sg15
V47
p790
sg17
V50
p791
sg19
V80
p792
sbag1
(g2
g3
Ntp793
Rp794
(dp795
g7
V095
p796
sg9
VOnix
p797
sg11
VB2,W2,
p798
sg13
VDust
p799
sg15
V47
p800
sg17
g800
sg19
V20
p801
sbag1
(g2
g3
Ntp802
Rp803
(dp804
g7
V530
p805
sg9
VExcadrill
p806
sg11
VB2,W2,
p807
sg13
VDust
p808
sg15
V47
p809
sg17
V50
p810
sg19
V80
p811
sbag1
(g2
g3
Ntp812
Rp813
(dp814
g7
V621
p815
sg9
VDruddigon
p816
sg11
VB2,W2,
p817
sg13
VCave
p818
sg15
V47
p819
sg17
V50
p820
sg19
V80
p821
sbag1
(g2
g3
Ntp822
Rp823
(dp824
g7
V634
p825
sg9
VZweilous
p826
sg11
VB2,W2,
p827
sg13
VCave
p828
sg15
V49
p829
sg17
V50
p830
sg19
V20
p831
sbag1
(g2
g3
Ntp832
Rp833
(dp834
g7
V095
p835
sg9
VOnix
p836
sg11
VB2,W2,
p837
sg13
VDust
p838
sg15
V47
p839
sg17
g839
sg19
V20
p840
sbag1
(g2
g3
Ntp841
Rp842
(dp843
g7
V530
p844
sg9
VExcadrill
p845
sg11
VB2,W2,
p846
sg13
VDust
p847
sg15
V47
p848
sg17
V50
p849
sg19
V80
p850
sba.