(lp0
ccopy_reg
_reconstructor
p1
(c__main__
WildPokemon
p2
c__builtin__
object
p3
Ntp4
Rp5
(dp6
VpDexNo
p7
V041
p8
sVpSpecies
p9
VZubat
p10
sVpGames
p11
VRu,S,E,
p12
sVpArea
p13
VCave
p14
sVpMinLevel
p15
V36
p16
sVpMaxLevel
p17
g16
sVpRate
p18
V10
p19
sbag1
(g2
g3
Ntp20
Rp21
(dp22
g7
V042
p23
sg9
VGolbat
p24
sg11
VRu,S,E,
p25
sg13
VCave
p26
sg15
V38
p27
sg17
V40
p28
sg18
V25
p29
sbag1
(g2
g3
Ntp30
Rp31
(dp32
g7
V293
p33
sg9
VWhismur
p34
sg11
VRu,S,E,
p35
sg13
VCave
p36
sg15
V36
p37
sg17
g37
sg18
V5
p38
sbag1
(g2
g3
Ntp39
Rp40
(dp41
g7
V294
p42
sg9
VLoudred
p43
sg11
VRu,S,E,
p44
sg13
VCave
p45
sg15
V40
p46
sg17
g46
sg18
V10
p47
sbag1
(g2
g3
Ntp48
Rp49
(dp50
g7
V296
p51
sg9
VMakuhita
p52
sg11
VRu,S,E,
p53
sg13
VCave
p54
sg15
V36
p55
sg17
g55
sg18
V10
p56
sbag1
(g2
g3
Ntp57
Rp58
(dp59
g7
V297
p60
sg9
VHariyama
p61
sg11
VRu,S,E,
p62
sg13
VCave
p63
sg15
V38
p64
sg17
V40
p65
sg18
V25
p66
sbag1
(g2
g3
Ntp67
Rp68
(dp69
g7
V304
p70
sg9
VAron
p71
sg11
VRu,S,E,
p72
sg13
VCave
p73
sg15
V36
p74
sg17
g74
sg18
V5
p75
sbag1
(g2
g3
Ntp76
Rp77
(dp78
g7
V305
p79
sg9
VLairon
p80
sg11
VRu,S,E,
p81
sg13
VCave
p82
sg15
V40
p83
sg17
g83
sg18
V10
p84
sbag1
(g2
g3
Ntp85
Rp86
(dp87
g7
V042
p88
sg9
VGolbat
p89
sg11
VRu,S,E,
p90
sg13
VCave
p91
sg15
V38
p92
sg17
V42
p93
sg18
V35
p94
sbag1
(g2
g3
Ntp95
Rp96
(dp97
g7
V297
p98
sg9
VHariyama
p99
sg11
VRu,S,E,
p100
sg13
VCave
p101
sg15
V38
p102
sg17
V42
p103
sg18
V35
p104
sbag1
(g2
g3
Ntp105
Rp106
(dp107
g7
V303
p108
sg9
VMawile
p109
sg11
VE,
p110
sg13
VCave
p111
sg15
V38
p112
sg17
g112
sg18
V5
p113
sbag1
(g2
g3
Ntp114
Rp115
(dp116
g7
V305
p117
sg9
VLairon
p118
sg11
VRu,S,
p119
sg13
VCave
p120
sg15
V40
p121
sg17
V42
p122
sg18
V15
p123
sbag1
(g2
g3
Ntp124
Rp125
(dp126
g7
V305
p127
sg9
VLairon
p128
sg11
g110
sg13
VCave
p129
sg15
V40
p130
sg17
V42
p131
sg18
V25
p132
sbag1
(g2
g3
Ntp133
Rp134
(dp135
g7
V307
p136
sg9
VMeditite
p137
sg11
VRu,S,
p138
sg13
VCave
p139
sg15
V38
p140
sg17
g140
sg18
V5
p141
sbag1
(g2
g3
Ntp142
Rp143
(dp144
g7
V308
p145
sg9
VMedicham
p146
sg11
VRu,S,
p147
sg13
VCave
p148
sg15
V40
p149
sg17
g149
sg18
V10
p150
sbag1
(g2
g3
Ntp151
Rp152
(dp153
g7
V074
p154
sg9
VGeodude
p155
sg11
VRu,S,E,
p156
sg13
VRock Smash
p157
sg15
V30
p158
sg17
V40
p159
sg18
V30
p160
sbag1
(g2
g3
Ntp161
Rp162
(dp163
g7
V075
p164
sg9
VGraveler
p165
sg11
VRu,S,E,
p166
sg13
VRock Smash
p167
sg15
V30
p168
sg17
V40
p169
sg18
V70
p170
sbag1
(g2
g3
Ntp171
Rp172
(dp173
g7
V042
p174
sg9
VGolbat
p175
sg11
VRu,S,E,
p176
sg13
VCave
p177
sg15
V40
p178
sg17
V44
p179
sg18
V35
p180
sbag1
(g2
g3
Ntp181
Rp182
(dp183
g7
V302
p184
sg9
VSableye
p185
sg11
VS,E,
p186
sg13
VCave
p187
sg15
V40
p188
sg17
V44
p189
sg18
V35
p190
sbag1
(g2
g3
Ntp191
Rp192
(dp193
g7
V303
p194
sg9
VMawile
p195
sg11
VRu,
p196
sg13
VCave
p197
sg15
V40
p198
sg17
V44
p199
sg18
V35
p200
sbag1
(g2
g3
Ntp201
Rp202
(dp203
g7
V303
p204
sg9
VMawile
p205
sg11
g110
sg13
VCave
p206
sg15
V42
p207
sg17
V44
p208
sg18
V5
p209
sbag1
(g2
g3
Ntp210
Rp211
(dp212
g7
V305
p213
sg9
VLairon
p214
sg11
VRu,S,
p215
sg13
VCave
p216
sg15
V40
p217
sg17
V44
p218
sg18
V15
p219
sbag1
(g2
g3
Ntp220
Rp221
(dp222
g7
V305
p223
sg9
VLairon
p224
sg11
g110
sg13
VCave
p225
sg15
V40
p226
sg17
V44
p227
sg18
V25
p228
sbag1
(g2
g3
Ntp229
Rp230
(dp231
g7
V308
p232
sg9
VMedicham
p233
sg11
VRu,S,
p234
sg13
VCave
p235
sg15
V40
p236
sg17
V44
p237
sg18
V15
p238
sbag1
(g2
g3
Ntp239
Rp240
(dp241
g7
V042
p242
sg9
VGolbat
p243
sg11
VRu,S,E,
p244
sg13
VSurf
p245
sg15
V25
p246
sg17
V40
p247
sg18
V100
p248
sbag1
(g2
g3
Ntp249
Rp250
(dp251
g7
V118
p252
sg9
VGoldeen
p253
sg11
VRu,S,E,
p254
sg13
VFish Old
p255
sg15
V5
p256
sg17
V10
p257
sg18
V30
p258
sbag1
(g2
g3
Ntp259
Rp260
(dp261
g7
V129
p262
sg9
VMagikarp
p263
sg11
VRu,S,E,
p264
sg13
VFish Old
p265
sg15
g256
sg17
V10
p266
sg18
V70
p267
sbag1
(g2
g3
Ntp268
Rp269
(dp270
g7
V118
p271
sg9
VGoldeen
p272
sg11
VRu,S,E,
p273
sg13
VFish Good
p274
sg15
V10
p275
sg17
V30
p276
sg18
V20
p277
sbag1
(g2
g3
Ntp278
Rp279
(dp280
g7
V129
p281
sg9
VMagikarp
p282
sg11
VRu,S,E,
p283
sg13
VFish Good
p284
sg15
V10
p285
sg17
V30
p286
sg18
V60
p287
sbag1
(g2
g3
Ntp288
Rp289
(dp290
g7
V339
p291
sg9
VBarboach
p292
sg11
VRu,S,E,
p293
sg13
VFish Good
p294
sg15
V10
p295
sg17
V30
p296
sg18
V20
p297
sbag1
(g2
g3
Ntp298
Rp299
(dp300
g7
V339
p301
sg9
VBarboach
p302
sg11
VRu,S,E,
p303
sg13
VFish Super
p304
sg15
V25
p305
sg17
V35
p306
sg18
V80
p307
sbag1
(g2
g3
Ntp308
Rp309
(dp310
g7
V340
p311
sg9
VWhiscash
p312
sg11
VRu,S,E,
p313
sg13
VFish Super
p314
sg15
V30
p315
sg17
V45
p316
sg18
V20
p317
sbag1
(g2
g3
Ntp318
Rp319
(dp320
g7
V042
p321
sg9
VGolbat
p322
sg11
VOR,AS,
p323
sg13
VCave
p324
sg15
V37
p325
sg17
V39
p326
sg18
V20
p327
sbag1
(g2
g3
Ntp328
Rp329
(dp330
g7
V294
p331
sg9
VLoudred
p332
sg11
VOR,AS,
p333
sg13
VCave
p334
sg15
V37
p335
sg17
V39
p336
sg18
V20
p337
sbag1
(g2
g3
Ntp338
Rp339
(dp340
g7
V297
p341
sg9
VHariyama
p342
sg11
VOR,AS,
p343
sg13
VCave
p344
sg15
V38
p345
sg17
V40
p346
sg18
V15
p347
sbag1
(g2
g3
Ntp348
Rp349
(dp350
g7
V302
p351
sg9
VSableye
p352
sg11
VAS,
p353
sg13
VCave
p354
sg15
V40
p355
sg17
g355
sg18
V10
p356
sbag1
(g2
g3
Ntp357
Rp358
(dp359
g7
V303
p360
sg9
VMawile
p361
sg11
VOR,
p362
sg13
VCave
p363
sg15
V40
p364
sg17
g364
sg18
V10
p365
sbag1
(g2
g3
Ntp366
Rp367
(dp368
g7
V305
p369
sg9
VLairon
p370
sg11
VOR,AS,
p371
sg13
VCave
p372
sg15
V37
p373
sg17
V39
p374
sg18
V20
p375
sbag1
(g2
g3
Ntp376
Rp377
(dp378
g7
V308
p379
sg9
VMedicham
p380
sg11
VOR,AS,
p381
sg13
VCave
p382
sg15
V38
p383
sg17
V40
p384
sg18
V15
p385
sbag1
(g2
g3
Ntp386
Rp387
(dp388
g7
V041
p389
sg9
VZubat
p390
sg11
VOR,AS,
p391
sg13
VHorde Encounter
p392
sg15
V20
p393
sg17
g393
sg18
V60
p394
sbag1
(g2
g3
Ntp395
Rp396
(dp397
g7
V294
p398
sg9
VLoudred
p399
sg11
VOR,AS,
p400
sg13
VHorde Encounter
p401
sg15
V20
p402
sg17
g402
sg18
V5
p403
sbag1
(g2
g3
Ntp404
Rp405
(dp406
g7
V304
p407
sg9
VAron
p408
sg11
VOR,AS,
p409
sg13
VHorde Encounter
p410
sg15
V20
p411
sg17
g411
sg18
V35
p412
sbag1
(g2
g3
Ntp413
Rp414
(dp415
g7
V042
p416
sg9
VGolbat
p417
sg11
VOR,AS,
p418
sg13
VSurf
p419
sg15
V30
p420
sg17
V40
p421
sg18
V35
p422
sbag1
(g2
g3
Ntp423
Rp424
(dp425
g7
V072
p426
sg9
VTentacool
p427
sg11
VOR,AS,
p428
sg13
VSurf
p429
sg15
V25
p430
sg17
g430
sg18
V50
p431
sbag1
(g2
g3
Ntp432
Rp433
(dp434
g7
V073
p435
sg9
VTentacruel
p436
sg11
VOR,AS,
p437
sg13
VSurf
p438
sg15
V35
p439
sg17
g439
sg18
V15
p440
sbag1
(g2
g3
Ntp441
Rp442
(dp443
g7
V072
p444
sg9
VTentacool
p445
sg11
VOR,AS,
p446
sg13
VFish Old
p447
sg15
g256
sg17
g256
sg18
V35
p448
sbag1
(g2
g3
Ntp449
Rp450
(dp451
g7
V129
p452
sg9
VMagikarp
p453
sg11
VOR,AS,
p454
sg13
VFish Old
p455
sg15
V10
p456
sg17
V15
p457
sg18
V65
p458
sbag1
(g2
g3
Ntp459
Rp460
(dp461
g7
V129
p462
sg9
VMagikarp
p463
sg11
VOR,AS,
p464
sg13
VFish Good
p465
sg15
V25
p466
sg17
g466
sg18
V60
p467
sbag1
(g2
g3
Ntp468
Rp469
(dp470
g7
V320
p471
sg9
VWailmer
p472
sg11
VOR,AS,
p473
sg13
VFish Good
p474
sg15
V25
p475
sg17
g475
sg18
V5
p476
sbag1
(g2
g3
Ntp477
Rp478
(dp479
g7
V370
p480
sg9
VLuvdisc
p481
sg11
VOR,AS,
p482
sg13
VFish Good
p483
sg15
V25
p484
sg17
g484
sg18
V35
p485
sbag1
(g2
g3
Ntp486
Rp487
(dp488
g7
V320
p489
sg9
VWailmer
p490
sg11
VOR,AS,
p491
sg13
VFish Super
p492
sg15
V30
p493
sg17
V40
p494
sg18
V40
p495
sbag1
(g2
g3
Ntp496
Rp497
(dp498
g7
V370
p499
sg9
VLuvdisc
p500
sg11
VOR,AS,
p501
sg13
VFish Super
p502
sg15
V35
p503
sg17
g503
sg18
V60
p504
sbag1
(g2
g3
Ntp505
Rp506
(dp507
g7
V042
p508
sg9
VGolbat
p509
sg11
VOR,AS,
p510
sg13
VSurf
p511
sg15
V25
p512
sg17
V40
p513
sg18
V100
p514
sbag1
(g2
g3
Ntp515
Rp516
(dp517
g7
V118
p518
sg9
VGoldeen
p519
sg11
VOR,AS,
p520
sg13
VFish Old
p521
sg15
g256
sg17
g256
sg18
V35
p522
sbag1
(g2
g3
Ntp523
Rp524
(dp525
g7
V129
p526
sg9
VMagikarp
p527
sg11
VOR,AS,
p528
sg13
VFish Old
p529
sg15
V10
p530
sg17
V15
p531
sg18
V65
p532
sbag1
(g2
g3
Ntp533
Rp534
(dp535
g7
V118
p536
sg9
VGoldeen
p537
sg11
VOR,AS,
p538
sg13
VFish Good
p539
sg15
V25
p540
sg17
g540
sg18
V35
p541
sbag1
(g2
g3
Ntp542
Rp543
(dp544
g7
V129
p545
sg9
VMagikarp
p546
sg11
VOR,AS,
p547
sg13
VFish Good
p548
sg15
V25
p549
sg17
g549
sg18
V60
p550
sbag1
(g2
g3
Ntp551
Rp552
(dp553
g7
V339
p554
sg9
VBarboach
p555
sg11
VOR,AS,
p556
sg13
VFish Good
p557
sg15
V25
p558
sg17
g558
sg18
V5
p559
sbag1
(g2
g3
Ntp560
Rp561
(dp562
g7
V339
p563
sg9
VBarboach
p564
sg11
VOR,AS,
p565
sg13
VFish Super
p566
sg15
V30
p567
sg17
V40
p568
sg18
V100
p569
sba.