(lp0
ccopy_reg
_reconstructor
p1
(c__main__
WildPokemon
p2
c__builtin__
object
p3
Ntp4
Rp5
(dp6
VpDexNo
p7
V042
p8
sVpSpecies
p9
VGolbat
p10
sVpGames
p11
VD,P,
p12
sVpArea
p13
VCave
p14
sVpMinLevel
p15
V44
p16
sVpMaxLevel
p17
V46
p18
sVpRate
p19
V20
p20
sbag1
(g2
g3
Ntp21
Rp22
(dp23
g7
V042
p24
sg9
VGolbat
p25
sg11
VPt,
p26
sg13
VCave
p27
sg15
V43
p28
sg17
g28
sg19
V5
p29
sbag1
(g2
g3
Ntp30
Rp31
(dp32
g7
V042
p33
sg9
VGolbat
p34
sg11
g26
sg13
VCave
p35
sg15
V42
p36
sg17
V43
p37
sg19
V15
p38
sbag1
(g2
g3
Ntp39
Rp40
(dp41
g7
V067
p42
sg9
VMachoke
p43
sg11
VD,P,
p44
sg13
VCave
p45
sg15
V44
p46
sg17
V46
p47
sg19
V25
p48
sbag1
(g2
g3
Ntp49
Rp50
(dp51
g7
V075
p52
sg9
VGraveler
p53
sg11
VD,P,
p54
sg13
VCave
p55
sg15
V45
p56
sg17
g56
sg19
V20
p57
sbag1
(g2
g3
Ntp58
Rp59
(dp60
g7
V075
p61
sg9
VGraveler
p62
sg11
g26
sg13
VCave
p63
sg15
V40
p64
sg17
V42
p65
sg19
V30
p66
sbag1
(g2
g3
Ntp67
Rp68
(dp69
g7
V075
p70
sg9
VGraveler
p71
sg11
g26
sg13
VCave
p72
sg15
V40
p73
sg17
g73
sg19
V20
p74
sbag1
(g2
g3
Ntp75
Rp76
(dp77
g7
V095
p78
sg9
VOnix
p79
sg11
VD,P,
p80
sg13
VCave
p81
sg15
V44
p82
sg17
g82
sg19
V10
p83
sbag1
(g2
g3
Ntp84
Rp85
(dp86
g7
V095
p87
sg9
VOnix
p88
sg11
g26
sg13
VCave
p89
sg15
V41
p90
sg17
V42
p91
sg19
V20
p92
sbag1
(g2
g3
Ntp93
Rp94
(dp95
g7
V111
p96
sg9
VRhyhorn
p97
sg11
g26
sg13
VCave
p98
sg15
V41
p99
sg17
g99
sg19
V20
p100
sbag1
(g2
g3
Ntp101
Rp102
(dp103
g7
V112
p104
sg9
VRhydon
p105
sg11
g26
sg13
VCave
p106
sg15
V41
p107
sg17
V43
p108
sg19
V15
p109
sbag1
(g2
g3
Ntp110
Rp111
(dp112
g7
V208
p113
sg9
VSteelix
p114
sg11
VD,P,
p115
sg13
VCave
p116
sg15
V46
p117
sg17
g117
sg19
V10
p118
sbag1
(g2
g3
Ntp119
Rp120
(dp121
g7
V208
p122
sg9
VSteelix
p123
sg11
g26
sg13
VCave
p124
sg15
V42
p125
sg17
g125
sg19
V5
p126
sbag1
(g2
g3
Ntp127
Rp128
(dp129
g7
V308
p130
sg9
VMedicham
p131
sg11
VD,P,
p132
sg13
VCave
p133
sg15
V44
p134
sg17
V46
p135
sg19
V15
p136
sbag1
(g2
g3
Ntp137
Rp138
(dp139
g7
V444
p140
sg9
VGabite
p141
sg11
g26
sg13
VCave
p142
sg15
V41
p143
sg17
g143
sg19
V5
p144
sbag1
(g2
g3
Ntp145
Rp146
(dp147
g7
V042
p148
sg9
VGolbat
p149
sg11
VD,P,
p150
sg13
VCave
p151
sg15
V45
p152
sg17
V47
p153
sg19
V20
p154
sbag1
(g2
g3
Ntp155
Rp156
(dp157
g7
V042
p158
sg9
VGolbat
p159
sg11
g26
sg13
VCave
p160
sg15
V44
p161
sg17
g161
sg19
V5
p162
sbag1
(g2
g3
Ntp163
Rp164
(dp165
g7
V042
p166
sg9
VGolbat
p167
sg11
g26
sg13
VCave
p168
sg15
V41
p169
sg17
V44
p170
sg19
V15
p171
sbag1
(g2
g3
Ntp172
Rp173
(dp174
g7
V064
p175
sg9
VKadabra
p176
sg11
VD,P,
p177
sg13
VCave
p178
sg15
V45
p179
sg17
V47
p180
sg19
V25
p181
sbag1
(g2
g3
Ntp182
Rp183
(dp184
g7
V075
p185
sg9
VGraveler
p186
sg11
VD,P,
p187
sg13
VCave
p188
sg15
V46
p189
sg17
g189
sg19
V20
p190
sbag1
(g2
g3
Ntp191
Rp192
(dp193
g7
V075
p194
sg9
VGraveler
p195
sg11
g26
sg13
VCave
p196
sg15
V41
p197
sg17
V43
p198
sg19
V15
p199
sbag1
(g2
g3
Ntp200
Rp201
(dp202
g7
V075
p203
sg9
VGraveler
p204
sg11
g26
sg13
VCave
p205
sg15
V43
p206
sg17
g206
sg19
V5
p207
sbag1
(g2
g3
Ntp208
Rp209
(dp210
g7
V082
p211
sg9
VMagneton
p212
sg11
g26
sg13
VCave
p213
sg15
V41
p214
sg17
V43
p215
sg19
V30
p216
sbag1
(g2
g3
Ntp217
Rp218
(dp219
g7
V095
p220
sg9
VOnix
p221
sg11
VD,P,
p222
sg13
VCave
p223
sg15
V45
p224
sg17
g224
sg19
V10
p225
sbag1
(g2
g3
Ntp226
Rp227
(dp228
g7
V095
p229
sg9
VOnix
p230
sg11
g26
sg13
VCave
p231
sg15
V42
p232
sg17
g232
sg19
V5
p233
sbag1
(g2
g3
Ntp234
Rp235
(dp236
g7
V208
p237
sg9
VSteelix
p238
sg11
VD,P,
p239
sg13
VCave
p240
sg15
V47
p241
sg17
g241
sg19
V10
p242
sbag1
(g2
g3
Ntp243
Rp244
(dp245
g7
V208
p246
sg9
VSteelix
p247
sg11
g26
sg13
VCave
p248
sg15
V42
p249
sg17
V44
p250
sg19
V40
p251
sbag1
(g2
g3
Ntp252
Rp253
(dp254
g7
V308
p255
sg9
VMedicham
p256
sg11
VD,P,
p257
sg13
VCave
p258
sg15
V45
p259
sg17
V47
p260
sg19
V15
p261
sbag1
(g2
g3
Ntp262
Rp263
(dp264
g7
V444
p265
sg9
VGabite
p266
sg11
g26
sg13
VCave
p267
sg15
V43
p268
sg17
g268
sg19
V5
p269
sbag1
(g2
g3
Ntp270
Rp271
(dp272
g7
V042
p273
sg9
VGolbat
p274
sg11
VD,P,
p275
sg13
VCave
p276
sg15
V44
p277
sg17
V46
p278
sg19
V20
p279
sbag1
(g2
g3
Ntp280
Rp281
(dp282
g7
V042
p283
sg9
VGolbat
p284
sg11
g26
sg13
VCave
p285
sg15
V44
p286
sg17
g286
sg19
V5
p287
sbag1
(g2
g3
Ntp288
Rp289
(dp290
g7
V042
p291
sg9
VGolbat
p292
sg11
g26
sg13
VCave
p293
sg15
V41
p294
sg17
V44
p295
sg19
V15
p296
sbag1
(g2
g3
Ntp297
Rp298
(dp299
g7
V067
p300
sg9
VMachoke
p301
sg11
VD,P,
p302
sg13
VCave
p303
sg15
V44
p304
sg17
V46
p305
sg19
V25
p306
sbag1
(g2
g3
Ntp307
Rp308
(dp309
g7
V075
p310
sg9
VGraveler
p311
sg11
g26
sg13
VCave
p312
sg15
V41
p313
sg17
V43
p314
sg19
V15
p315
sbag1
(g2
g3
Ntp316
Rp317
(dp318
g7
V075
p319
sg9
VGraveler
p320
sg11
g26
sg13
VCave
p321
sg15
V43
p322
sg17
g322
sg19
V5
p323
sbag1
(g2
g3
Ntp324
Rp325
(dp326
g7
V095
p327
sg9
VOnix
p328
sg11
g26
sg13
VCave
p329
sg15
V42
p330
sg17
g330
sg19
V10
p331
sbag1
(g2
g3
Ntp332
Rp333
(dp334
g7
V184
p335
sg9
VAzumarill
p336
sg11
g26
sg13
VCave
p337
sg15
V41
p338
sg17
V43
p339
sg19
V30
p340
sbag1
(g2
g3
Ntp341
Rp342
(dp343
g7
V208
p344
sg9
VSteelix
p345
sg11
VD,P,
p346
sg13
VCave
p347
sg15
V46
p348
sg17
g348
sg19
V10
p349
sbag1
(g2
g3
Ntp350
Rp351
(dp352
g7
V208
p353
sg9
VSteelix
p354
sg11
g26
sg13
VCave
p355
sg15
V44
p356
sg17
g356
sg19
V5
p357
sbag1
(g2
g3
Ntp358
Rp359
(dp360
g7
V308
p361
sg9
VMedicham
p362
sg11
VD,P,
p363
sg13
VCave
p364
sg15
V44
p365
sg17
V46
p366
sg19
V15
p367
sbag1
(g2
g3
Ntp368
Rp369
(dp370
g7
V419
p371
sg9
VFloatzel
p372
sg11
VD,P,Pt,
p373
sg13
VCave
p374
sg15
V42
p375
sg17
V45
p376
sg19
V30
p377
sbag1
(g2
g3
Ntp378
Rp379
(dp380
g7
V444
p381
sg9
VGabite
p382
sg11
g26
sg13
VCave
p383
sg15
V43
p384
sg17
g384
sg19
V5
p385
sbag1
(g2
g3
Ntp386
Rp387
(dp388
g7
V042
p389
sg9
VGolbat
p390
sg11
VD,P,
p391
sg13
VSurf
p392
sg15
V35
p393
sg17
V50
p394
sg19
V100
p395
sbag1
(g2
g3
Ntp396
Rp397
(dp398
g7
V042
p399
sg9
VGolbat
p400
sg11
g26
sg13
VSurf
p401
sg15
V30
p402
sg17
V50
p403
sg19
V10
p404
sbag1
(g2
g3
Ntp405
Rp406
(dp407
g7
V419
p408
sg9
VFloatzel
p409
sg11
g26
sg13
VSurf
p410
sg15
V30
p411
sg17
V50
p412
sg19
V90
p413
sbag1
(g2
g3
Ntp414
Rp415
(dp416
g7
V129
p417
sg9
VMagikarp
p418
sg11
VD,P,
p419
sg13
VFish Old
p420
sg15
V3
p421
sg17
V10
p422
sg19
V100
p423
sbag1
(g2
g3
Ntp424
Rp425
(dp426
g7
V129
p427
sg9
VMagikarp
p428
sg11
g26
sg13
VFish Old
p429
sg15
g421
sg17
V15
p430
sg19
V100
p431
sbag1
(g2
g3
Ntp432
Rp433
(dp434
g7
V129
p435
sg9
VMagikarp
p436
sg11
VD,P,
p437
sg13
VFish Good
p438
sg15
V10
p439
sg17
V25
p440
sg19
V65
p441
sbag1
(g2
g3
Ntp442
Rp443
(dp444
g7
V129
p445
sg9
VMagikarp
p446
sg11
VD,P,Pt,
p447
sg13
VFish Good
p448
sg15
V10
p449
sg17
V25
p450
sg19
V100
p451
sbag1
(g2
g3
Ntp452
Rp453
(dp454
g7
V130
p455
sg9
VGyarados
p456
sg11
VD,P,
p457
sg13
VFish Super
p458
sg15
V20
p459
sg17
V55
p460
sg19
V100
p461
sbag1
(g2
g3
Ntp462
Rp463
(dp464
g7
V130
p465
sg9
VGyarados
p466
sg11
g26
sg13
VFish Super
p467
sg15
V30
p468
sg17
V55
p469
sg19
V100
p470
sbag1
(g2
g3
Ntp471
Rp472
(dp473
g7
V042
p474
sg9
VGolbat
p475
sg11
VD,P,
p476
sg13
VCave
p477
sg15
V50
p478
sg17
V52
p479
sg19
V20
p480
sbag1
(g2
g3
Ntp481
Rp482
(dp483
g7
V042
p484
sg9
VGolbat
p485
sg11
g26
sg13
VCave
p486
sg15
V50
p487
sg17
g487
sg19
V15
p488
sbag1
(g2
g3
Ntp489
Rp490
(dp491
g7
V067
p492
sg9
VMachoke
p493
sg11
VD,P,
p494
sg13
VCave
p495
sg15
V50
p496
sg17
V52
p497
sg19
V25
p498
sbag1
(g2
g3
Ntp499
Rp500
(dp501
g7
V075
p502
sg9
VGraveler
p503
sg11
g26
sg13
VCave
p504
sg15
V47
p505
sg17
V49
p506
sg19
V15
p507
sbag1
(g2
g3
Ntp508
Rp509
(dp510
g7
V087
p511
sg9
VDewgong
p512
sg11
g26
sg13
VCave
p513
sg15
V48
p514
sg17
V50
p515
sg19
V15
p516
sbag1
(g2
g3
Ntp517
Rp518
(dp519
g7
V184
p520
sg9
VAzumarill
p521
sg11
g26
sg13
VCave
p522
sg15
V47
p523
sg17
V49
p524
sg19
V30
p525
sbag1
(g2
g3
Ntp526
Rp527
(dp528
g7
V208
p529
sg9
VSteelix
p530
sg11
VD,P,
p531
sg13
VCave
p532
sg15
V52
p533
sg17
g533
sg19
V10
p534
sbag1
(g2
g3
Ntp535
Rp536
(dp537
g7
V308
p538
sg9
VMedicham
p539
sg11
VD,P,
p540
sg13
VCave
p541
sg15
V50
p542
sg17
V52
p543
sg19
V15
p544
sbag1
(g2
g3
Ntp545
Rp546
(dp547
g7
V419
p548
sg9
VFloatzel
p549
sg11
VD,P,
p550
sg13
VCave
p551
sg15
V50
p552
sg17
V51
p553
sg19
V30
p554
sbag1
(g2
g3
Ntp555
Rp556
(dp557
g7
V419
p558
sg9
VFloatzel
p559
sg11
g26
sg13
VCave
p560
sg15
V48
p561
sg17
V50
p562
sg19
V30
p563
sbag1
(g2
g3
Ntp564
Rp565
(dp566
g7
V444
p567
sg9
VGabite
p568
sg11
g26
sg13
VCave
p569
sg15
V49
p570
sg17
g570
sg19
V5
p571
sbag1
(g2
g3
Ntp572
Rp573
(dp574
g7
V042
p575
sg9
VGolbat
p576
sg11
VD,P,
p577
sg13
VSurf
p578
sg15
V40
p579
sg17
V55
p580
sg19
V90
p581
sbag1
(g2
g3
Ntp582
Rp583
(dp584
g7
V087
p585
sg9
VDewgong
p586
sg11
g26
sg13
VSurf
p587
sg15
V35
p588
sg17
V55
p589
sg19
V30
p590
sbag1
(g2
g3
Ntp591
Rp592
(dp593
g7
V131
p594
sg9
VLapras
p595
sg11
VD,P,
p596
sg13
VSurf
p597
sg15
V40
p598
sg17
V60
p599
sg19
V10
p600
sbag1
(g2
g3
Ntp601
Rp602
(dp603
g7
V131
p604
sg9
VLapras
p605
sg11
g26
sg13
VSurf
p606
sg15
V35
p607
sg17
V55
p608
sg19
V10
p609
sbag1
(g2
g3
Ntp610
Rp611
(dp612
g7
V419
p613
sg9
VFloatzel
p614
sg11
g26
sg13
VSurf
p615
sg15
V35
p616
sg17
V55
p617
sg19
V60
p618
sbag1
(g2
g3
Ntp619
Rp620
(dp621
g7
V129
p622
sg9
VMagikarp
p623
sg11
VD,P,Pt,
p624
sg13
VFish Old
p625
sg15
g421
sg17
V10
p626
sg19
V100
p627
sbag1
(g2
g3
Ntp628
Rp629
(dp630
g7
V129
p631
sg9
VMagikarp
p632
sg11
VD,P,
p633
sg13
VFish Good
p634
sg15
V10
p635
sg17
V25
p636
sg19
V65
p637
sbag1
(g2
g3
Ntp638
Rp639
(dp640
g7
V129
p641
sg9
VMagikarp
p642
sg11
VD,P,Pt,
p643
sg13
VFish Good
p644
sg15
V10
p645
sg17
V25
p646
sg19
V100
p647
sbag1
(g2
g3
Ntp648
Rp649
(dp650
g7
V130
p651
sg9
VGyarados
p652
sg11
VD,P,Pt,
p653
sg13
VFish Super
p654
sg15
V20
p655
sg17
V55
p656
sg19
V100
p657
sbag1
(g2
g3
Ntp658
Rp659
(dp660
g7
V042
p661
sg9
VGolbat
p662
sg11
VD,P,
p663
sg13
VCave
p664
sg15
V50
p665
sg17
V52
p666
sg19
V20
p667
sbag1
(g2
g3
Ntp668
Rp669
(dp670
g7
V042
p671
sg9
VGolbat
p672
sg11
g26
sg13
VCave
p673
sg15
V50
p674
sg17
g674
sg19
V15
p675
sbag1
(g2
g3
Ntp676
Rp677
(dp678
g7
V067
p679
sg9
VMachoke
p680
sg11
VD,P,
p681
sg13
VCave
p682
sg15
V50
p683
sg17
V52
p684
sg19
V25
p685
sbag1
(g2
g3
Ntp686
Rp687
(dp688
g7
V075
p689
sg9
VGraveler
p690
sg11
VD,P,
p691
sg13
VCave
p692
sg15
V51
p693
sg17
g693
sg19
V20
p694
sbag1
(g2
g3
Ntp695
Rp696
(dp697
g7
V075
p698
sg9
VGraveler
p699
sg11
g26
sg13
VCave
p700
sg15
V47
p701
sg17
V49
p702
sg19
V30
p703
sbag1
(g2
g3
Ntp704
Rp705
(dp706
g7
V095
p707
sg9
VOnix
p708
sg11
VD,P,
p709
sg13
VCave
p710
sg15
V50
p711
sg17
g711
sg19
V10
p712
sbag1
(g2
g3
Ntp713
Rp714
(dp715
g7
V095
p716
sg9
VOnix
p717
sg11
g26
sg13
VCave
p718
sg15
V48
p719
sg17
V50
p720
sg19
V20
p721
sbag1
(g2
g3
Ntp722
Rp723
(dp724
g7
V208
p725
sg9
VSteelix
p726
sg11
VD,P,
p727
sg13
VCave
p728
sg15
V52
p729
sg17
g729
sg19
V10
p730
sbag1
(g2
g3
Ntp731
Rp732
(dp733
g7
V208
p734
sg9
VSteelix
p735
sg11
g26
sg13
VCave
p736
sg15
V50
p737
sg17
g737
sg19
V5
p738
sbag1
(g2
g3
Ntp739
Rp740
(dp741
g7
V308
p742
sg9
VMedicham
p743
sg11
VD,P,
p744
sg13
VCave
p745
sg15
V50
p746
sg17
V52
p747
sg19
V15
p748
sbag1
(g2
g3
Ntp749
Rp750
(dp751
g7
V419
p752
sg9
VFloatzel
p753
sg11
g26
sg13
VCave
p754
sg15
V47
p755
sg17
V49
p756
sg19
V35
p757
sbag1
(g2
g3
Ntp758
Rp759
(dp760
g7
V444
p761
sg9
VGabite
p762
sg11
g26
sg13
VCave
p763
sg15
V50
p764
sg17
g764
sg19
V5
p765
sba.