(lp0
ccopy_reg
_reconstructor
p1
(c__main__
WildPokemon
p2
c__builtin__
object
p3
Ntp4
Rp5
(dp6
VpDexNo
p7
V075
p8
sVpSpecies
p9
VGraveler
p10
sVpGames
p11
VX,Y,
p12
sVpArea
p13
VCave
p14
sVpMinLevel
p15
V57
p16
sVpMaxLevel
p17
V58
p18
sVpRate
p19
V20
p20
sbag1
(g2
g3
Ntp21
Rp22
(dp23
g7
V093
p24
sg9
VHaunter
p25
sg11
VX,Y,
p26
sg13
VCave
p27
sg15
V58
p28
sg17
g28
sg19
V10
p29
sbag1
(g2
g3
Ntp30
Rp31
(dp32
g7
V108
p33
sg9
VLickitung
p34
sg11
VX,Y,
p35
sg13
VCave
p36
sg15
V58
p37
sg17
V59
p38
sg19
V15
p39
sbag1
(g2
g3
Ntp40
Rp41
(dp42
g7
V533
p43
sg9
VGurdurr
p44
sg11
VX,Y,
p45
sg13
VCave
p46
sg15
V57
p47
sg17
V59
p48
sg19
V30
p49
sbag1
(g2
g3
Ntp50
Rp51
(dp52
g7
V621
p53
sg9
VDruddigon
p54
sg11
VX,Y,
p55
sg13
VCave
p56
sg15
V58
p57
sg17
V59
p58
sg19
V20
p59
sbag1
(g2
g3
Ntp60
Rp61
(dp62
g7
V634
p63
sg9
VZweilous
p64
sg11
VX,Y,
p65
sg13
VCave
p66
sg15
V59
p67
sg17
g67
sg19
V5
p68
sbag1
(g2
g3
Ntp69
Rp70
(dp71
g7
V074
p72
sg9
VGeodude
p73
sg11
VX,Y,
p74
sg13
VHorde Encounter
p75
sg15
V28
p76
sg17
g76
sg19
V60
p77
sbag1
(g2
g3
Ntp78
Rp79
(dp80
g7
V108
p81
sg9
VLickitung
p82
sg11
VX,Y,
p83
sg13
VHorde Encounter
p84
sg15
V30
p85
sg17
g85
sg19
V5
p86
sbag1
(g2
g3
Ntp87
Rp88
(dp89
g7
V419
p90
sg9
VFloatzel
p91
sg11
VX,Y,
p92
sg13
VHorde Encounter
p93
sg15
V29
p94
sg17
g94
sg19
V35
p95
sbag1
(g2
g3
Ntp96
Rp97
(dp98
g7
V074
p99
sg9
VGeodude
p100
sg11
VX,Y,
p101
sg13
VHorde Encounter
p102
sg15
V28
p103
sg17
g103
sg19
V60
p104
sbag1
(g2
g3
Ntp105
Rp106
(dp107
g7
V075
p108
sg9
VGraveler
p109
sg11
VX,Y,
p110
sg13
VHorde Encounter
p111
sg15
V29
p112
sg17
g112
sg19
V35
p113
sbag1
(g2
g3
Ntp114
Rp115
(dp116
g7
V108
p117
sg9
VLickitung
p118
sg11
VX,Y,
p119
sg13
VHorde Encounter
p120
sg15
V30
p121
sg17
g121
sg19
V5
p122
sbag1
(g2
g3
Ntp123
Rp124
(dp125
g7
V075
p126
sg9
VGraveler
p127
sg11
VX,Y,
p128
sg13
VRock Smash
p129
sg15
V57
p130
sg17
V59
p131
sg19
V95
p132
sbag1
(g2
g3
Ntp133
Rp134
(dp135
g7
V213
p136
sg9
VShuckle
p137
sg11
VX,Y,
p138
sg13
VRock Smash
p139
sg15
V57
p140
sg17
V59
p141
sg19
V5
p142
sbag1
(g2
g3
Ntp143
Rp144
(dp145
g7
V075
p146
sg9
VGraveler
p147
sg11
VX,Y,
p148
sg13
VCeiling
p149
sg15
V57
p150
sg17
g150
sg19
V0
p151
sbag1
(g2
g3
Ntp152
Rp153
(dp154
g7
V168
p155
sg9
VAriados
p156
sg11
VX,Y,
p157
sg13
VCeiling
p158
sg15
V58
p159
sg17
V59
p160
sg19
V0
p161
sbag1
(g2
g3
Ntp162
Rp163
(dp164
g7
V714
p165
sg9
VNoibat
p166
sg11
VX,Y,
p167
sg13
VCeiling
p168
sg15
V57
p169
sg17
V59
p170
sg19
V0
p171
sbag1
(g2
g3
Ntp172
Rp173
(dp174
g7
V022
p175
sg9
VFearow
p176
sg11
VX,Y,
p177
sg13
VSky
p178
sg15
V57
p179
sg17
V59
p180
sg19
V0
p181
sbag1
(g2
g3
Ntp182
Rp183
(dp184
g7
V227
p185
sg9
VSkarmory
p186
sg11
VX,Y,
p187
sg13
VSky
p188
sg15
V57
p189
sg17
V59
p190
sg19
V0
p191
sbag1
(g2
g3
Ntp192
Rp193
(dp194
g7
V635
p195
sg9
VHydreigon
p196
sg11
VX,Y,
p197
sg13
VSky
p198
sg15
V59
p199
sg17
g199
sg19
V0
p200
sbag1
(g2
g3
Ntp201
Rp202
(dp203
g7
V271
p204
sg9
VLombre
p205
sg11
VX,Y,
p206
sg13
VSurf
p207
sg15
V57
p208
sg17
V59
p209
sg19
V66
p210
sbag1
(g2
g3
Ntp211
Rp212
(dp213
g7
V419
p214
sg9
VFloatzel
p215
sg11
VX,Y,
p216
sg13
VSurf
p217
sg15
V57
p218
sg17
V59
p219
sg19
V34
p220
sbag1
(g2
g3
Ntp221
Rp222
(dp223
g7
V061
p224
sg9
VPoliwhirl
p225
sg11
VX,Y,
p226
sg13
VSurf
p227
sg15
V57
p228
sg17
V59
p229
sg19
V66
p230
sbag1
(g2
g3
Ntp231
Rp232
(dp233
g7
V419
p234
sg9
VFloatzel
p235
sg11
VX,Y,
p236
sg13
VSurf
p237
sg15
V57
p238
sg17
V59
p239
sg19
V34
p240
sbag1
(g2
g3
Ntp241
Rp242
(dp243
g7
V060
p244
sg9
VPoliwag
p245
sg11
VX,Y,
p246
sg13
VFish Old
p247
sg15
V35
p248
sg17
g248
sg19
V100
p249
sbag1
(g2
g3
Ntp250
Rp251
(dp252
g7
V061
p253
sg9
VPoliwhirl
p254
sg11
VX,Y,
p255
sg13
VFish Good
p256
sg15
V45
p257
sg17
g257
sg19
V35
p258
sbag1
(g2
g3
Ntp259
Rp260
(dp261
g7
V550
p262
sg9
VBasculin
p263
sg11
VY,
p264
sg13
VFish Good
p265
sg15
V45
p266
sg17
g266
sg19
V65
p267
sbag1
(g2
g3
Ntp268
Rp269
(dp270
g7
V550
p271
sg9
VBasculin
p272
sg11
VX,
p273
sg13
VFish Good
p274
sg15
V45
p275
sg17
g275
sg19
V65
p276
sbag1
(g2
g3
Ntp277
Rp278
(dp279
g7
V061
p280
sg9
VPoliwhirl
p281
sg11
VX,Y,
p282
sg13
VFish Super
p283
sg15
V55
p284
sg17
g284
sg19
V65
p285
sbag1
(g2
g3
Ntp286
Rp287
(dp288
g7
V550
p289
sg9
VBasculin
p290
sg11
g273
sg13
VFish Super
p291
sg15
V55
p292
sg17
g292
sg19
V35
p293
sbag1
(g2
g3
Ntp294
Rp295
(dp296
g7
V550
p297
sg9
VBasculin
p298
sg11
g264
sg13
VFish Super
p299
sg15
V55
p300
sg17
g300
sg19
V35
p301
sbag1
(g2
g3
Ntp302
Rp303
(dp304
g7
V060
p305
sg9
VPoliwag
p306
sg11
VX,Y,
p307
sg13
VFish Old
p308
sg15
V35
p309
sg17
g309
sg19
V100
p310
sbag1
(g2
g3
Ntp311
Rp312
(dp313
g7
V061
p314
sg9
VPoliwhirl
p315
sg11
VX,Y,
p316
sg13
VFish Good
p317
sg15
V45
p318
sg17
g318
sg19
V35
p319
sbag1
(g2
g3
Ntp320
Rp321
(dp322
g7
V550
p323
sg9
VBasculin
p324
sg11
g264
sg13
VFish Good
p325
sg15
V45
p326
sg17
g326
sg19
V65
p327
sbag1
(g2
g3
Ntp328
Rp329
(dp330
g7
V550
p331
sg9
VBasculin
p332
sg11
g273
sg13
VFish Good
p333
sg15
V45
p334
sg17
g334
sg19
V65
p335
sbag1
(g2
g3
Ntp336
Rp337
(dp338
g7
V061
p339
sg9
VPoliwhirl
p340
sg11
VX,Y,
p341
sg13
VFish Super
p342
sg15
V55
p343
sg17
g343
sg19
V60
p344
sbag1
(g2
g3
Ntp345
Rp346
(dp347
g7
V062
p348
sg9
VPoliwrath
p349
sg11
VX,Y,
p350
sg13
VFish Super
p351
sg15
V60
p352
sg17
g352
sg19
V5
p353
sbag1
(g2
g3
Ntp354
Rp355
(dp356
g7
V550
p357
sg9
VBasculin
p358
sg11
g273
sg13
VFish Super
p359
sg15
V55
p360
sg17
g360
sg19
V35
p361
sbag1
(g2
g3
Ntp362
Rp363
(dp364
g7
V550
p365
sg9
VBasculin
p366
sg11
g264
sg13
VFish Super
p367
sg15
V55
p368
sg17
g368
sg19
V35
p369
sba.