(lp0
ccopy_reg
_reconstructor
p1
(c__main__
WildPokemon
p2
c__builtin__
object
p3
Ntp4
Rp5
(dp6
VpDexNo
p7
V041
p8
sVpSpecies
p9
VZubat
p10
sVpGames
p11
VR,B,
p12
sVpArea
p13
VCave
p14
sVpMinLevel
p15
V22
p16
sVpMaxLevel
p17
g16
sVpRate
p18
V15
p19
sbag1
(g2
g3
Ntp20
Rp21
(dp22
g7
V041
p23
sg9
VZubat
p24
sg11
VY,
p25
sg13
VCave
p26
sg15
V39
p27
sg17
V44
p28
sg18
V20
p29
sbag1
(g2
g3
Ntp30
Rp31
(dp32
g7
V042
p33
sg9
VGolbat
p34
sg11
VR,B,
p35
sg13
VCave
p36
sg15
V41
p37
sg17
g37
sg18
V5
p38
sbag1
(g2
g3
Ntp39
Rp40
(dp41
g7
V066
p42
sg9
VMachop
p43
sg11
VR,B,
p44
sg13
VCave
p45
sg15
V24
p46
sg17
g46
sg18
V25
p47
sbag1
(g2
g3
Ntp48
Rp49
(dp50
g7
V067
p51
sg9
VMachoke
p52
sg11
VR,B,
p53
sg13
VCave
p54
sg15
V42
p55
sg17
g55
sg18
V4
p56
sbag1
(g2
g3
Ntp57
Rp58
(dp59
g7
V074
p60
sg9
VGeodude
p61
sg11
VR,B,
p62
sg13
VCave
p63
sg15
V26
p64
sg17
g64
sg18
V15
p65
sbag1
(g2
g3
Ntp66
Rp67
(dp68
g7
V074
p69
sg9
VGeodude
p70
sg11
g25
sg13
VCave
p71
sg15
V26
p72
sg17
V41
p73
sg18
V65
p74
sbag1
(g2
g3
Ntp75
Rp76
(dp77
g7
V075
p78
sg9
VGraveler
p79
sg11
VR,B,
p80
sg13
VCave
p81
sg15
V41
p82
sg17
g82
sg18
V5
p83
sbag1
(g2
g3
Ntp84
Rp85
(dp86
g7
V075
p87
sg9
VGraveler
p88
sg11
g25
sg13
VCave
p89
sg15
V41
p90
sg17
V47
p91
sg18
V5
p92
sbag1
(g2
g3
Ntp93
Rp94
(dp95
g7
V095
p96
sg9
VOnix
p97
sg11
VR,B,
p98
sg13
VCave
p99
sg15
V36
p100
sg17
V42
p101
sg18
V30
p102
sbag1
(g2
g3
Ntp103
Rp104
(dp105
g7
V095
p106
sg9
VOnix
p107
sg11
g25
sg13
VCave
p108
sg15
V43
p109
sg17
V45
p110
sg18
V10
p111
sbag1
(g2
g3
Ntp112
Rp113
(dp114
g7
V105
p115
sg9
VMarowak
p116
sg11
VR,B,
p117
sg13
VCave
p118
sg15
V43
p119
sg17
g119
sg18
V1
p120
sbag1
(g2
g3
Ntp121
Rp122
(dp123
g7
V041
p124
sg9
VZubat
p125
sg11
VR,B,
p126
sg13
VCave
p127
sg15
V26
p128
sg17
g128
sg18
V15
p129
sbag1
(g2
g3
Ntp130
Rp131
(dp132
g7
V041
p133
sg9
VZubat
p134
sg11
g25
sg13
VCave
p135
sg15
V44
p136
sg17
g136
sg18
V10
p137
sbag1
(g2
g3
Ntp138
Rp139
(dp140
g7
V042
p141
sg9
VGolbat
p142
sg11
VR,B,
p143
sg13
VCave
p144
sg15
V40
p145
sg17
g145
sg18
V5
p146
sbag1
(g2
g3
Ntp147
Rp148
(dp149
g7
V042
p150
sg9
VGolbat
p151
sg11
g25
sg13
VCave
p152
sg15
V39
p153
sg17
g153
sg18
V10
p154
sbag1
(g2
g3
Ntp155
Rp156
(dp157
g7
V066
p158
sg9
VMachop
p159
sg11
VR,B,
p160
sg13
VCave
p161
sg15
V22
p162
sg17
g162
sg18
V25
p163
sbag1
(g2
g3
Ntp164
Rp165
(dp166
g7
V067
p167
sg9
VMachoke
p168
sg11
VR,B,
p169
sg13
VCave
p170
sg15
V41
p171
sg17
g171
sg18
V5
p172
sbag1
(g2
g3
Ntp173
Rp174
(dp175
g7
V067
p176
sg9
VMachoke
p177
sg11
g25
sg13
VCave
p178
sg15
V39
p179
sg17
V42
p180
sg18
V5
p181
sbag1
(g2
g3
Ntp182
Rp183
(dp184
g7
V074
p185
sg9
VGeodude
p186
sg11
VR,B,
p187
sg13
VCave
p188
sg15
V24
p189
sg17
g189
sg18
V15
p190
sbag1
(g2
g3
Ntp191
Rp192
(dp193
g7
V074
p194
sg9
VGeodude
p195
sg11
g25
sg13
VCave
p196
sg15
V31
p197
sg17
V41
p198
sg18
V55
p199
sbag1
(g2
g3
Ntp200
Rp201
(dp202
g7
V075
p203
sg9
VGraveler
p204
sg11
VR,B,
p205
sg13
VCave
p206
sg15
V43
p207
sg17
g207
sg18
V1
p208
sbag1
(g2
g3
Ntp209
Rp210
(dp211
g7
V075
p212
sg9
VGraveler
p213
sg11
g25
sg13
VCave
p214
sg15
V44
p215
sg17
g215
sg18
V10
p216
sbag1
(g2
g3
Ntp217
Rp218
(dp219
g7
V095
p220
sg9
VOnix
p221
sg11
VR,B,
p222
sg13
VCave
p223
sg15
V36
p224
sg17
V42
p225
sg18
V30
p226
sbag1
(g2
g3
Ntp227
Rp228
(dp229
g7
V095
p230
sg9
VOnix
p231
sg11
g25
sg13
VCave
p232
sg15
V45
p233
sg17
V47
p234
sg18
V10
p235
sbag1
(g2
g3
Ntp236
Rp237
(dp238
g7
V105
p239
sg9
VMarowak
p240
sg11
VR,B,
p241
sg13
VCave
p242
sg15
V40
p243
sg17
g243
sg18
V4
p244
sbag1
(g2
g3
Ntp245
Rp246
(dp247
g7
V146
p248
sg9
VMoltres
p249
sg11
VR,B,Y,
p250
sg13
VSpecial
p251
sg15
V50
p252
sg17
g252
sg18
V0
p253
sbag1
(g2
g3
Ntp254
Rp255
(dp256
g7
V041
p257
sg9
VZubat
p258
sg11
VR,B,
p259
sg13
VCave
p260
sg15
V22
p261
sg17
g261
sg18
V15
p262
sbag1
(g2
g3
Ntp263
Rp264
(dp265
g7
V042
p266
sg9
VGolbat
p267
sg11
VR,B,
p268
sg13
VCave
p269
sg15
V41
p270
sg17
g270
sg18
V5
p271
sbag1
(g2
g3
Ntp272
Rp273
(dp274
g7
V042
p275
sg9
VGolbat
p276
sg11
g25
sg13
VCave
p277
sg15
V44
p278
sg17
g278
sg18
V15
p279
sbag1
(g2
g3
Ntp280
Rp281
(dp282
g7
V049
p283
sg9
VVenomoth
p284
sg11
VR,B,
p285
sg13
VCave
p286
sg15
V40
p287
sg17
g287
sg18
V10
p288
sbag1
(g2
g3
Ntp289
Rp290
(dp291
g7
V066
p292
sg9
VMachop
p293
sg11
VR,B,
p294
sg13
VCave
p295
sg15
V24
p296
sg17
g296
sg18
V25
p297
sbag1
(g2
g3
Ntp298
Rp299
(dp300
g7
V067
p301
sg9
VMachoke
p302
sg11
VR,B,
p303
sg13
VCave
p304
sg15
V42
p305
sg17
V45
p306
sg18
V5
p307
sbag1
(g2
g3
Ntp308
Rp309
(dp310
g7
V067
p311
sg9
VMachoke
p312
sg11
g25
sg13
VCave
p313
sg15
V42
p314
sg17
V45
p315
sg18
V10
p316
sbag1
(g2
g3
Ntp317
Rp318
(dp319
g7
V074
p320
sg9
VGeodude
p321
sg11
VR,B,
p322
sg13
VCave
p323
sg15
V26
p324
sg17
g324
sg18
V15
p325
sbag1
(g2
g3
Ntp326
Rp327
(dp328
g7
V074
p329
sg9
VGeodude
p330
sg11
g25
sg13
VCave
p331
sg15
V36
p332
sg17
V46
p333
sg18
V50
p334
sbag1
(g2
g3
Ntp335
Rp336
(dp337
g7
V075
p338
sg9
VGraveler
p339
sg11
VR,B,
p340
sg13
VCave
p341
sg15
V43
p342
sg17
g342
sg18
V5
p343
sbag1
(g2
g3
Ntp344
Rp345
(dp346
g7
V075
p347
sg9
VGraveler
p348
sg11
g25
sg13
VCave
p349
sg15
V41
p350
sg17
V47
p351
sg18
V15
p352
sbag1
(g2
g3
Ntp353
Rp354
(dp355
g7
V095
p356
sg9
VOnix
p357
sg11
VR,B,
p358
sg13
VCave
p359
sg15
V42
p360
sg17
V45
p361
sg18
V20
p362
sbag1
(g2
g3
Ntp363
Rp364
(dp365
g7
V095
p366
sg9
VOnix
p367
sg11
g25
sg13
VCave
p368
sg15
V49
p369
sg17
g369
sg18
V10
p370
sbag1
(g2
g3
Ntp371
Rp372
(dp373
g7
V042
p374
sg9
VGolbat
p375
sg11
VG,S,
p376
sg13
VCave
p377
sg15
V32
p378
sg17
g378
sg18
V30
p379
sbag1
(g2
g3
Ntp380
Rp381
(dp382
g7
V042
p383
sg9
VGolbat
p384
sg11
VC,
p385
sg13
VCave
p386
sg15
V34
p387
sg17
g387
sg18
V30
p388
sbag1
(g2
g3
Ntp389
Rp390
(dp391
g7
V075
p392
sg9
VGraveler
p393
sg11
VG,S,
p394
sg13
VCave
p395
sg15
V32
p396
sg17
g396
sg18
V30
p397
sbag1
(g2
g3
Ntp398
Rp399
(dp400
g7
V075
p401
sg9
VGraveler
p402
sg11
g385
sg13
VCave
p403
sg15
V34
p404
sg17
g404
sg18
V30
p405
sbag1
(g2
g3
Ntp406
Rp407
(dp408
g7
V075
p409
sg9
VGraveler
p410
sg11
g385
sg13
VCave
p411
sg15
V34
p412
sg17
V40
p413
sg18
V50
p414
sbag1
(g2
g3
Ntp415
Rp416
(dp417
g7
V217
p418
sg9
VUrsaring
p419
sg11
VG,
p420
sg13
VCave
p421
sg15
V33
p422
sg17
g422
sg18
V20
p423
sbag1
(g2
g3
Ntp424
Rp425
(dp426
g7
V232
p427
sg9
VDonphan
p428
sg11
VS,
p429
sg13
VCave
p430
sg15
V33
p431
sg17
g431
sg18
V20
p432
sbag1
(g2
g3
Ntp433
Rp434
(dp435
g7
V095
p436
sg9
VOnix
p437
sg11
VG,S,
p438
sg13
VCave
p439
sg15
V34
p440
sg17
V36
p441
sg18
V15
p442
sbag1
(g2
g3
Ntp443
Rp444
(dp445
g7
V095
p446
sg9
VOnix
p447
sg11
g385
sg13
VCave
p448
sg15
V33
p449
sg17
g449
sg18
V20
p450
sbag1
(g2
g3
Ntp451
Rp452
(dp453
g7
V095
p454
sg9
VOnix
p455
sg11
g385
sg13
VCave
p456
sg15
V32
p457
sg17
g457
sg18
V20
p458
sbag1
(g2
g3
Ntp459
Rp460
(dp461
g7
V111
p462
sg9
VRhyhorn
p463
sg11
VG,S,
p464
sg13
VCave
p465
sg15
V35
p466
sg17
g466
sg18
V5
p467
sbag1
(g2
g3
Ntp468
Rp469
(dp470
g7
V111
p471
sg9
VRhyhorn
p472
sg11
g385
sg13
VCave
p473
sg15
V32
p474
sg17
g474
sg18
V30
p475
sbag1
(g2
g3
Ntp476
Rp477
(dp478
g7
V028
p479
sg9
VSandslash
p480
sg11
g385
sg13
VCave
p481
sg15
V35
p482
sg17
g482
sg18
V5
p483
sbag1
(g2
g3
Ntp484
Rp485
(dp486
g7
V112
p487
sg9
VRhydon
p488
sg11
g385
sg13
VCave
p489
sg15
V35
p490
sg17
g490
sg18
V5
p491
sbag1
(g2
g3
Ntp492
Rp493
(dp494
g7
V024
p495
sg9
VArbok
p496
sg11
VFR,
p497
sg13
VCave
p498
sg15
V44
p499
sg17
g499
sg18
V5
p500
sbag1
(g2
g3
Ntp501
Rp502
(dp503
g7
V028
p504
sg9
VSandslash
p505
sg11
VLG,
p506
sg13
VCave
p507
sg15
V44
p508
sg17
g508
sg18
V5
p509
sbag1
(g2
g3
Ntp510
Rp511
(dp512
g7
V041
p513
sg9
VZubat
p514
sg11
VFR,LG,
p515
sg13
VCave
p516
sg15
V32
p517
sg17
g517
sg18
V10
p518
sbag1
(g2
g3
Ntp519
Rp520
(dp521
g7
V042
p522
sg9
VGolbat
p523
sg11
VFR,LG,
p524
sg13
VCave
p525
sg15
V44
p526
sg17
g526
sg18
V5
p527
sbag1
(g2
g3
Ntp528
Rp529
(dp530
g7
V066
p531
sg9
VMachop
p532
sg11
VFR,LG,
p533
sg13
VCave
p534
sg15
V32
p535
sg17
g535
sg18
V20
p536
sbag1
(g2
g3
Ntp537
Rp538
(dp539
g7
V067
p540
sg9
VMachoke
p541
sg11
VFR,LG,
p542
sg13
VCave
p543
sg15
V44
p544
sg17
V46
p545
sg18
V5
p546
sbag1
(g2
g3
Ntp547
Rp548
(dp549
g7
V074
p550
sg9
VGeodude
p551
sg11
VFR,LG,
p552
sg13
VCave
p553
sg15
V32
p554
sg17
g554
sg18
V20
p555
sbag1
(g2
g3
Ntp556
Rp557
(dp558
g7
V095
p559
sg9
VOnix
p560
sg11
VFR,LG,
p561
sg13
VCave
p562
sg15
V40
p563
sg17
V46
p564
sg18
V30
p565
sbag1
(g2
g3
Ntp566
Rp567
(dp568
g7
V105
p569
sg9
VMarowak
p570
sg11
VFR,LG,
p571
sg13
VCave
p572
sg15
V44
p573
sg17
V46
p574
sg18
V5
p575
sbag1
(g2
g3
Ntp576
Rp577
(dp578
g7
V024
p579
sg9
VArbok
p580
sg11
g497
sg13
VCave
p581
sg15
V46
p582
sg17
g582
sg18
V5
p583
sbag1
(g2
g3
Ntp584
Rp585
(dp586
g7
V028
p587
sg9
VSandslash
p588
sg11
g506
sg13
VCave
p589
sg15
V46
p590
sg17
g590
sg18
V5
p591
sbag1
(g2
g3
Ntp592
Rp593
(dp594
g7
V041
p595
sg9
VZubat
p596
sg11
VFR,LG,
p597
sg13
VCave
p598
sg15
V34
p599
sg17
g599
sg18
V10
p600
sbag1
(g2
g3
Ntp601
Rp602
(dp603
g7
V042
p604
sg9
VGolbat
p605
sg11
VFR,LG,
p606
sg13
VCave
p607
sg15
V46
p608
sg17
g608
sg18
V5
p609
sbag1
(g2
g3
Ntp610
Rp611
(dp612
g7
V057
p613
sg9
VPrimeape
p614
sg11
VFR,LG,
p615
sg13
VCave
p616
sg15
V42
p617
sg17
g617
sg18
V10
p618
sbag1
(g2
g3
Ntp619
Rp620
(dp621
g7
V066
p622
sg9
VMachop
p623
sg11
VFR,LG,
p624
sg13
VCave
p625
sg15
V34
p626
sg17
g626
sg18
V20
p627
sbag1
(g2
g3
Ntp628
Rp629
(dp630
g7
V067
p631
sg9
VMachoke
p632
sg11
VFR,LG,
p633
sg13
VCave
p634
sg15
V46
p635
sg17
V48
p636
sg18
V5
p637
sbag1
(g2
g3
Ntp638
Rp639
(dp640
g7
V074
p641
sg9
VGeodude
p642
sg11
VFR,LG,
p643
sg13
VCave
p644
sg15
V34
p645
sg17
g645
sg18
V20
p646
sbag1
(g2
g3
Ntp647
Rp648
(dp649
g7
V095
p650
sg9
VOnix
p651
sg11
VFR,LG,
p652
sg13
VCave
p653
sg15
V45
p654
sg17
V48
p655
sg18
V20
p656
sbag1
(g2
g3
Ntp657
Rp658
(dp659
g7
V105
p660
sg9
VMarowak
p661
sg11
VFR,LG,
p662
sg13
VCave
p663
sg15
V46
p664
sg17
V48
p665
sg18
V5
p666
sbag1
(g2
g3
Ntp667
Rp668
(dp669
g7
V042
p670
sg9
VGolbat
p671
sg11
VHG,SS,
p672
sg13
VCave
p673
sg15
V32
p674
sg17
g674
sg18
V30
p675
sbag1
(g2
g3
Ntp676
Rp677
(dp678
g7
V075
p679
sg9
VGraveler
p680
sg11
VHG,SS,
p681
sg13
VCave
p682
sg15
V32
p683
sg17
g683
sg18
V30
p684
sbag1
(g2
g3
Ntp685
Rp686
(dp687
g7
V232
p688
sg9
VDonphan
p689
sg11
VHG,
p690
sg13
VCave
p691
sg15
V33
p692
sg17
g692
sg18
V20
p693
sbag1
(g2
g3
Ntp694
Rp695
(dp696
g7
V217
p697
sg9
VUrsaring
p698
sg11
VSS,
p699
sg13
VCave
p700
sg15
V33
p701
sg17
g701
sg18
V20
p702
sbag1
(g2
g3
Ntp703
Rp704
(dp705
g7
V095
p706
sg9
VOnix
p707
sg11
VHG,SS,
p708
sg13
VCave
p709
sg15
V34
p710
sg17
V36
p711
sg18
V15
p712
sbag1
(g2
g3
Ntp713
Rp714
(dp715
g7
V111
p716
sg9
VRhyhorn
p717
sg11
VHG,SS,
p718
sg13
VCave
p719
sg15
V35
p720
sg17
g720
sg18
V5
p721
sbag1
(g2
g3
Ntp722
Rp723
(dp724
g7
V074
p725
sg9
VGeodude
p726
sg11
VHG,SS,
p727
sg13
VRock Smash
p728
sg15
V24
p729
sg17
V32
p730
sg18
V90
p731
sbag1
(g2
g3
Ntp732
Rp733
(dp734
g7
V075
p735
sg9
VGraveler
p736
sg11
VHG,SS,
p737
sg13
VRock Smash
p738
sg15
V30
p739
sg17
V33
p740
sg18
V10
p741
sbag1
(g2
g3
Ntp742
Rp743
(dp744
g7
V296
p745
sg9
VMakuhita
p746
sg11
VHG,SS,
p747
sg13
VHoenn
p748
sg15
V33
p749
sg17
g749
sg18
V20
p750
sbag1
(g2
g3
Ntp751
Rp752
(dp753
g7
V359
p754
sg9
VAbsol
p755
sg11
VHG,SS,
p756
sg13
VHoenn
p757
sg15
V32
p758
sg17
g758
sg18
V20
p759
sbag1
(g2
g3
Ntp760
Rp761
(dp762
g7
V433
p763
sg9
VChingling
p764
sg11
VHG,SS,
p765
sg13
VSinnoh
p766
sg15
V33
p767
sg17
g767
sg18
V20
p768
sbag1
(g2
g3
Ntp769
Rp770
(dp771
g7
V436
p772
sg9
VBronzor
p773
sg11
VHG,SS,
p774
sg13
VSinnoh
p775
sg15
V32
p776
sg17
g776
sg18
V20
p777
sbag1
(g2
g3
Ntp778
Rp779
(dp780
g7
V041
p781
sg9
VZubat
p782
sg11
VPi,Ev,
p783
sg13
VCave
p784
sg15
V41
p785
sg17
V46
p786
sg18
V10
p787
sbag1
(g2
g3
Ntp788
Rp789
(dp790
g7
V042
p791
sg9
VGolbat
p792
sg11
VPi,Ev,
p793
sg13
VCave
p794
sg15
V41
p795
sg17
V46
p796
sg18
V15
p797
sbag1
(g2
g3
Ntp798
Rp799
(dp800
g7
V066
p801
sg9
VMachop
p802
sg11
VPi,Ev,
p803
sg13
VCave
p804
sg15
V41
p805
sg17
V46
p806
sg18
V10
p807
sbag1
(g2
g3
Ntp808
Rp809
(dp810
g7
V067
p811
sg9
VMachoke
p812
sg11
VPi,Ev,
p813
sg13
VCave
p814
sg15
V41
p815
sg17
V46
p816
sg18
V15
p817
sbag1
(g2
g3
Ntp818
Rp819
(dp820
g7
V074
p821
sg9
VGeodude
p822
sg11
VPi,Ev,
p823
sg13
VCave
p824
sg15
V41
p825
sg17
V46
p826
sg18
V10
p827
sbag1
(g2
g3
Ntp828
Rp829
(dp830
g7
V075
p831
sg9
VGraveler
p832
sg11
VPi,Ev,
p833
sg13
VCave
p834
sg15
V41
p835
sg17
V46
p836
sg18
V15
p837
sbag1
(g2
g3
Ntp838
Rp839
(dp840
g7
V095
p841
sg9
VOnix
p842
sg11
VPi,Ev,
p843
sg13
VCave
p844
sg15
V41
p845
sg17
V46
p846
sg18
V10
p847
sbag1
(g2
g3
Ntp848
Rp849
(dp850
g7
V111
p851
sg9
VRhyhorn
p852
sg11
VPi,Ev,
p853
sg13
VCave
p854
sg15
V41
p855
sg17
V46
p856
sg18
V10
p857
sbag1
(g2
g3
Ntp858
Rp859
(dp860
g7
V112
p861
sg9
VRhydon
p862
sg11
VPi,Ev,
p863
sg13
VCave
p864
sg15
V41
p865
sg17
V46
p866
sg18
V5
p867
sbag1
(g2
g3
Ntp868
Rp869
(dp870
g7
V113
p871
sg9
VChansey
p872
sg11
VPi,Ev,
p873
sg13
VCave
p874
sg15
V41
p875
sg17
V46
p876
sg18
V0
p877
sbag1
(g2
g3
Ntp878
Rp879
(dp880
g7
V041
p881
sg9
VZubat
p882
sg11
VPi,Ev,
p883
sg13
VCave
p884
sg15
V41
p885
sg17
V46
p886
sg18
V10
p887
sbag1
(g2
g3
Ntp888
Rp889
(dp890
g7
V042
p891
sg9
VGolbat
p892
sg11
VPi,Ev,
p893
sg13
VCave
p894
sg15
V41
p895
sg17
V46
p896
sg18
V15
p897
sbag1
(g2
g3
Ntp898
Rp899
(dp900
g7
V066
p901
sg9
VMachop
p902
sg11
VPi,Ev,
p903
sg13
VCave
p904
sg15
V41
p905
sg17
V46
p906
sg18
V10
p907
sbag1
(g2
g3
Ntp908
Rp909
(dp910
g7
V067
p911
sg9
VMachoke
p912
sg11
VPi,Ev,
p913
sg13
VCave
p914
sg15
V41
p915
sg17
V46
p916
sg18
V15
p917
sbag1
(g2
g3
Ntp918
Rp919
(dp920
g7
V074
p921
sg9
VGeodude
p922
sg11
VPi,Ev,
p923
sg13
VCave
p924
sg15
V41
p925
sg17
V46
p926
sg18
V10
p927
sbag1
(g2
g3
Ntp928
Rp929
(dp930
g7
V075
p931
sg9
VGraveler
p932
sg11
VPi,Ev,
p933
sg13
VCave
p934
sg15
V41
p935
sg17
V46
p936
sg18
V15
p937
sbag1
(g2
g3
Ntp938
Rp939
(dp940
g7
V095
p941
sg9
VOnix
p942
sg11
VPi,Ev,
p943
sg13
VCave
p944
sg15
V41
p945
sg17
V46
p946
sg18
V10
p947
sbag1
(g2
g3
Ntp948
Rp949
(dp950
g7
V111
p951
sg9
VRhyhorn
p952
sg11
VPi,Ev,
p953
sg13
VCave
p954
sg15
V41
p955
sg17
V46
p956
sg18
V10
p957
sbag1
(g2
g3
Ntp958
Rp959
(dp960
g7
V112
p961
sg9
VRhydon
p962
sg11
VPi,Ev,
p963
sg13
VCave
p964
sg15
V41
p965
sg17
V46
p966
sg18
V5
p967
sbag1
(g2
g3
Ntp968
Rp969
(dp970
g7
V106
p971
sg9
VHitmonlee
p972
sg11
VPi,Ev,
p973
sg13
VCave
p974
sg15
V41
p975
sg17
V46
p976
sg18
V0
p977
sbag1
(g2
g3
Ntp978
Rp979
(dp980
g7
V146
p981
sg9
VMoltres
p982
sg11
VPi,Ev,
p983
sg13
VSpecial
p984
sg15
V50
p985
sg17
g985
sg18
V0
p986
sbag1
(g2
g3
Ntp987
Rp988
(dp989
g7
V041
p990
sg9
VZubat
p991
sg11
VPi,Ev,
p992
sg13
VCave
p993
sg15
V41
p994
sg17
V46
p995
sg18
V10
p996
sbag1
(g2
g3
Ntp997
Rp998
(dp999
g7
V042
p1000
sg9
VGolbat
p1001
sg11
VPi,Ev,
p1002
sg13
VCave
p1003
sg15
V41
p1004
sg17
V46
p1005
sg18
V15
p1006
sbag1
(g2
g3
Ntp1007
Rp1008
(dp1009
g7
V066
p1010
sg9
VMachop
p1011
sg11
VPi,Ev,
p1012
sg13
VCave
p1013
sg15
V41
p1014
sg17
V46
p1015
sg18
V10
p1016
sbag1
(g2
g3
Ntp1017
Rp1018
(dp1019
g7
V067
p1020
sg9
VMachoke
p1021
sg11
VPi,Ev,
p1022
sg13
VCave
p1023
sg15
V41
p1024
sg17
V46
p1025
sg18
V15
p1026
sbag1
(g2
g3
Ntp1027
Rp1028
(dp1029
g7
V074
p1030
sg9
VGeodude
p1031
sg11
VPi,Ev,
p1032
sg13
VCave
p1033
sg15
V41
p1034
sg17
V46
p1035
sg18
V10
p1036
sbag1
(g2
g3
Ntp1037
Rp1038
(dp1039
g7
V075
p1040
sg9
VGraveler
p1041
sg11
VPi,Ev,
p1042
sg13
VCave
p1043
sg15
V41
p1044
sg17
V46
p1045
sg18
V15
p1046
sbag1
(g2
g3
Ntp1047
Rp1048
(dp1049
g7
V095
p1050
sg9
VOnix
p1051
sg11
VPi,Ev,
p1052
sg13
VCave
p1053
sg15
V41
p1054
sg17
V46
p1055
sg18
V10
p1056
sbag1
(g2
g3
Ntp1057
Rp1058
(dp1059
g7
V111
p1060
sg9
VRhyhorn
p1061
sg11
VPi,Ev,
p1062
sg13
VCave
p1063
sg15
V41
p1064
sg17
V46
p1065
sg18
V10
p1066
sbag1
(g2
g3
Ntp1067
Rp1068
(dp1069
g7
V112
p1070
sg9
VRhydon
p1071
sg11
VPi,Ev,
p1072
sg13
VCave
p1073
sg15
V41
p1074
sg17
V46
p1075
sg18
V5
p1076
sbag1
(g2
g3
Ntp1077
Rp1078
(dp1079
g7
V107
p1080
sg9
VHitmonchan
p1081
sg11
VPi,Ev,
p1082
sg13
VCave
p1083
sg15
V41
p1084
sg17
V46
p1085
sg18
V0
p1086
sba.