(lp0
ccopy_reg
_reconstructor
p1
(c__main__
WildPokemon
p2
c__builtin__
object
p3
Ntp4
Rp5
(dp6
VpDexNo
p7
V055
p8
sVpSpecies
p9
VGolduck
p10
sVpGames
p11
VB,W,
p12
sVpArea
p13
VGrass
p14
sVpMinLevel
p15
V47
p16
sVpMaxLevel
p17
V49
p18
sVpRate
p19
V25
p20
sbag1
(g2
g3
Ntp21
Rp22
(dp23
g7
V400
p24
sg9
VBibarel
p25
sg11
VB,W,
p26
sg13
VGrass
p27
sg15
V47
p28
sg17
V49
p29
sg19
V25
p30
sbag1
(g2
g3
Ntp31
Rp32
(dp33
g7
V629
p34
sg9
VVullaby
p35
sg11
VB,
p36
sg13
VGrass
p37
sg15
V48
p38
sg17
V50
p39
sg19
V20
p40
sbag1
(g2
g3
Ntp41
Rp42
(dp43
g7
V627
p44
sg9
VRufflet
p45
sg11
VW,
p46
sg13
VGrass
p47
sg15
V48
p48
sg17
V50
p49
sg19
V20
p50
sbag1
(g2
g3
Ntp51
Rp52
(dp53
g7
V335
p54
sg9
VZangoose
p55
sg11
VB,W,
p56
sg13
VGrass
p57
sg15
V48
p58
sg17
V50
p59
sg19
V15
p60
sbag1
(g2
g3
Ntp61
Rp62
(dp63
g7
V336
p64
sg9
VSeviper
p65
sg11
VB,W,
p66
sg13
VGrass
p67
sg15
V48
p68
sg17
V50
p69
sg19
V15
p70
sbag1
(g2
g3
Ntp71
Rp72
(dp73
g7
V055
p74
sg9
VGolduck
p75
sg11
VB,W,
p76
sg13
VDark
p77
sg15
V57
p78
sg17
V59
p79
sg19
V25
p80
sbag1
(g2
g3
Ntp81
Rp82
(dp83
g7
V400
p84
sg9
VBibarel
p85
sg11
VB,W,
p86
sg13
VDark
p87
sg15
V57
p88
sg17
V59
p89
sg19
V25
p90
sbag1
(g2
g3
Ntp91
Rp92
(dp93
g7
V630
p94
sg9
VMandibuzz
p95
sg11
g36
sg13
VDark
p96
sg15
V58
p97
sg17
V60
p98
sg19
V20
p99
sbag1
(g2
g3
Ntp100
Rp101
(dp102
g7
V628
p103
sg9
VBraviary
p104
sg11
g46
sg13
VDark
p105
sg15
V58
p106
sg17
V60
p107
sg19
V20
p108
sbag1
(g2
g3
Ntp109
Rp110
(dp111
g7
V335
p112
sg9
VZangoose
p113
sg11
VB,W,
p114
sg13
VDark
p115
sg15
V58
p116
sg17
V60
p117
sg19
V15
p118
sbag1
(g2
g3
Ntp119
Rp120
(dp121
g7
V336
p122
sg9
VSeviper
p123
sg11
VB,W,
p124
sg13
VDark
p125
sg15
V58
p126
sg17
V60
p127
sg19
V15
p128
sbag1
(g2
g3
Ntp129
Rp130
(dp131
g7
V531
p132
sg9
VAudino
p133
sg11
VB,W,
p134
sg13
VRustling
p135
sg15
V47
p136
sg17
V50
p137
sg19
V90
p138
sbag1
(g2
g3
Ntp139
Rp140
(dp141
g7
V587
p142
sg9
VEmolga
p143
sg11
VB,W,
p144
sg13
VRustling
p145
sg15
V48
p146
sg17
g146
sg19
V10
p147
sbag1
(g2
g3
Ntp148
Rp149
(dp150
g7
V550
p151
sg9
VBasculin
p152
sg11
g36
sg13
VSurf
p153
sg15
V25
p154
sg17
V55
p155
sg19
V100
p156
sbag1
(g2
g3
Ntp157
Rp158
(dp159
g7
V550
p160
sg9
VBasculin
p161
sg11
g46
sg13
VSurf
p162
sg15
V25
p163
sg17
V55
p164
sg19
V100
p165
sbag1
(g2
g3
Ntp166
Rp167
(dp168
g7
V550
p169
sg9
VBasculin
p170
sg11
g36
sg13
VRippling
p171
sg15
V25
p172
sg17
V70
p173
sg19
V95
p174
sbag1
(g2
g3
Ntp175
Rp176
(dp177
g7
V550
p178
sg9
VBasculin
p179
sg11
g46
sg13
VRippling
p180
sg15
V25
p181
sg17
V70
p182
sg19
V95
p183
sbag1
(g2
g3
Ntp184
Rp185
(dp186
g7
V131
p187
sg9
VLapras
p188
sg11
VB,W,
p189
sg13
VRippling
p190
sg15
V35
p191
sg17
V70
p192
sg19
V5
p193
sbag1
(g2
g3
Ntp194
Rp195
(dp196
g7
V318
p197
sg9
VCarvanha
p198
sg11
VB,W,
p199
sg13
VFish Super
p200
sg15
V35
p201
sg17
V55
p202
sg19
V70
p203
sbag1
(g2
g3
Ntp204
Rp205
(dp206
g7
V550
p207
sg9
VBasculin
p208
sg11
g36
sg13
VFish Super
p209
sg15
V35
p210
sg17
V55
p211
sg19
V30
p212
sbag1
(g2
g3
Ntp213
Rp214
(dp215
g7
V550
p216
sg9
VBasculin
p217
sg11
g46
sg13
VFish Super
p218
sg15
V35
p219
sg17
V55
p220
sg19
V30
p221
sbag1
(g2
g3
Ntp222
Rp223
(dp224
g7
V318
p225
sg9
VCarvanha
p226
sg11
VB,W,
p227
sg13
VRippling
p228
sg15
V35
p229
sg17
V60
p230
sg19
V60
p231
sbag1
(g2
g3
Ntp232
Rp233
(dp234
g7
V550
p235
sg9
VBasculin
p236
sg11
g36
sg13
VRippling
p237
sg15
V35
p238
sg17
V60
p239
sg19
V30
p240
sbag1
(g2
g3
Ntp241
Rp242
(dp243
g7
V550
p244
sg9
VBasculin
p245
sg11
g46
sg13
VRippling
p246
sg15
V35
p247
sg17
V60
p248
sg19
V30
p249
sbag1
(g2
g3
Ntp250
Rp251
(dp252
g7
V319
p253
sg9
VSharpedo
p254
sg11
VB,W,
p255
sg13
VRippling
p256
sg15
V35
p257
sg17
V70
p258
sg19
V10
p259
sbag1
(g2
g3
Ntp260
Rp261
(dp262
g7
V055
p263
sg9
VGolduck
p264
sg11
VB2,W2,
p265
sg13
VGrass
p266
sg15
V36
p267
sg17
V38
p268
sg19
V35
p269
sbag1
(g2
g3
Ntp270
Rp271
(dp272
g7
V183
p273
sg9
VMarill
p274
sg11
VB2,W2,
p275
sg13
VGrass
p276
sg15
V36
p277
sg17
V38
p278
sg19
V35
p279
sbag1
(g2
g3
Ntp280
Rp281
(dp282
g7
V335
p283
sg9
VZangoose
p284
sg11
VB2,W2,
p285
sg13
VGrass
p286
sg15
V37
p287
sg17
V39
p288
sg19
V15
p289
sbag1
(g2
g3
Ntp290
Rp291
(dp292
g7
V336
p293
sg9
VSeviper
p294
sg11
VB2,W2,
p295
sg13
VGrass
p296
sg15
V37
p297
sg17
V39
p298
sg19
V15
p299
sbag1
(g2
g3
Ntp300
Rp301
(dp302
g7
V055
p303
sg9
VGolduck
p304
sg11
VB2,W2,
p305
sg13
VDark
p306
sg15
V40
p307
sg17
V42
p308
sg19
V35
p309
sbag1
(g2
g3
Ntp310
Rp311
(dp312
g7
V183
p313
sg9
VMarill
p314
sg11
VB2,W2,
p315
sg13
VDark
p316
sg15
V40
p317
sg17
V42
p318
sg19
V35
p319
sbag1
(g2
g3
Ntp320
Rp321
(dp322
g7
V335
p323
sg9
VZangoose
p324
sg11
VB2,W2,
p325
sg13
VDark
p326
sg15
V41
p327
sg17
V43
p328
sg19
V15
p329
sbag1
(g2
g3
Ntp330
Rp331
(dp332
g7
V336
p333
sg9
VSeviper
p334
sg11
VB2,W2,
p335
sg13
VDark
p336
sg15
V41
p337
sg17
V43
p338
sg19
V15
p339
sbag1
(g2
g3
Ntp340
Rp341
(dp342
g7
V184
p343
sg9
VAzumarill
p344
sg11
VB2,W2,
p345
sg13
VRustling
p346
sg15
V39
p347
sg17
g347
sg19
V5
p348
sbag1
(g2
g3
Ntp349
Rp350
(dp351
g7
V206
p352
sg9
VDunsparce
p353
sg11
VB2,W2,
p354
sg13
VRustling
p355
sg15
V37
p356
sg17
g356
sg19
V10
p357
sbag1
(g2
g3
Ntp358
Rp359
(dp360
g7
V531
p361
sg9
VAudino
p362
sg11
VB2,W2,
p363
sg13
VRustling
p364
sg15
V36
p365
sg17
V39
p366
sg19
V75
p367
sbag1
(g2
g3
Ntp368
Rp369
(dp370
g7
V587
p371
sg9
VEmolga
p372
sg11
VB2,W2,
p373
sg13
VRustling
p374
sg15
V37
p375
sg17
g375
sg19
V10
p376
sbag1
(g2
g3
Ntp377
Rp378
(dp379
g7
V183
p380
sg9
VMarill
p381
sg11
VB2,W2,
p382
sg13
VSurf
p383
sg15
V25
p384
sg17
V40
p385
sg19
V30
p386
sbag1
(g2
g3
Ntp387
Rp388
(dp389
g7
V550
p390
sg9
VBasculin
p391
sg11
VB2,
p392
sg13
VSurf
p393
sg15
V25
p394
sg17
V40
p395
sg19
V70
p396
sbag1
(g2
g3
Ntp397
Rp398
(dp399
g7
V550
p400
sg9
VBasculin
p401
sg11
VW2,
p402
sg13
VSurf
p403
sg15
V25
p404
sg17
V40
p405
sg19
V70
p406
sbag1
(g2
g3
Ntp407
Rp408
(dp409
g7
V131
p410
sg9
VLapras
p411
sg11
VB2,W2,
p412
sg13
VRippling
p413
sg15
V30
p414
sg17
V40
p415
sg19
V5
p416
sbag1
(g2
g3
Ntp417
Rp418
(dp419
g7
V183
p420
sg9
VMarill
p421
sg11
VB2,W2,
p422
sg13
VRippling
p423
sg15
V25
p424
sg17
V40
p425
sg19
V60
p426
sbag1
(g2
g3
Ntp427
Rp428
(dp429
g7
V184
p430
sg9
VAzumarill
p431
sg11
VB2,W2,
p432
sg13
VRippling
p433
sg15
V30
p434
sg17
V40
p435
sg19
V5
p436
sbag1
(g2
g3
Ntp437
Rp438
(dp439
g7
V550
p440
sg9
VBasculin
p441
sg11
g392
sg13
VRippling
p442
sg15
V25
p443
sg17
V40
p444
sg19
V30
p445
sbag1
(g2
g3
Ntp446
Rp447
(dp448
g7
V550
p449
sg9
VBasculin
p450
sg11
g402
sg13
VRippling
p451
sg15
V25
p452
sg17
V40
p453
sg19
V30
p454
sbag1
(g2
g3
Ntp455
Rp456
(dp457
g7
V318
p458
sg9
VCarvanha
p459
sg11
VB2,W2,
p460
sg13
VFish Super
p461
sg15
V40
p462
sg17
V70
p463
sg19
V70
p464
sbag1
(g2
g3
Ntp465
Rp466
(dp467
g7
V550
p468
sg9
VBasculin
p469
sg11
g392
sg13
VFish Super
p470
sg15
V40
p471
sg17
V60
p472
sg19
V30
p473
sbag1
(g2
g3
Ntp474
Rp475
(dp476
g7
V550
p477
sg9
VBasculin
p478
sg11
g402
sg13
VFish Super
p479
sg15
V40
p480
sg17
V60
p481
sg19
V30
p482
sbag1
(g2
g3
Ntp483
Rp484
(dp485
g7
V318
p486
sg9
VCarvanha
p487
sg11
VB2,W2,
p488
sg13
VRippling
p489
sg15
V40
p490
sg17
V60
p491
sg19
V60
p492
sbag1
(g2
g3
Ntp493
Rp494
(dp495
g7
V319
p496
sg9
VSharpedo
p497
sg11
VB2,W2,
p498
sg13
VRippling
p499
sg15
V50
p500
sg17
V70
p501
sg19
V10
p502
sbag1
(g2
g3
Ntp503
Rp504
(dp505
g7
V550
p506
sg9
VBasculin
p507
sg11
g392
sg13
VRippling
p508
sg15
V40
p509
sg17
V60
p510
sg19
V30
p511
sbag1
(g2
g3
Ntp512
Rp513
(dp514
g7
V550
p515
sg9
VBasculin
p516
sg11
g402
sg13
VRippling
p517
sg15
V40
p518
sg17
V60
p519
sg19
V30
p520
sba.