(lp0
ccopy_reg
_reconstructor
p1
(c__main__
WildPokemon
p2
c__builtin__
object
p3
Ntp4
Rp5
(dp6
VpDexNo
p7
V592
p8
sVpSpecies
p9
VFrillish
p10
sVpGames
p11
VB2,W2,
p12
sVpArea
p13
VSurf
p14
sVpMinLevel
p15
V5
p16
sVpMaxLevel
p17
V15
p18
sVpRate
p19
V100
p20
sbag1
(g2
g3
Ntp21
Rp22
(dp23
g7
V593
p24
sg9
VJellicent
p25
sg11
VB2,W2,
p26
sg13
VRippling
p27
sg15
g16
sg17
V15
p28
sg19
V5
p29
sbag1
(g2
g3
Ntp30
Rp31
(dp32
g7
V594
p33
sg9
VAlomomola
p34
sg11
VB2,W2,
p35
sg13
VRippling
p36
sg15
g16
sg17
V15
p37
sg19
V95
p38
sbag1
(g2
g3
Ntp39
Rp40
(dp41
g7
V098
p42
sg9
VKrabby
p43
sg11
VB2,W2,
p44
sg13
VFish Super
p45
sg15
V40
p46
sg17
V60
p47
sg19
V30
p48
sbag1
(g2
g3
Ntp49
Rp50
(dp51
g7
V211
p52
sg9
VQwilfish
p53
sg11
VB2,W2,
p54
sg13
VFish Super
p55
sg15
V50
p56
sg17
V70
p57
sg19
V5
p58
sbag1
(g2
g3
Ntp59
Rp60
(dp61
g7
V456
p62
sg9
VFinneon
p63
sg11
VB2,W2,
p64
sg13
VFish Super
p65
sg15
V40
p66
sg17
V70
p67
sg19
V65
p68
sbag1
(g2
g3
Ntp69
Rp70
(dp71
g7
V098
p72
sg9
VKrabby
p73
sg11
VB2,W2,
p74
sg13
VRippling
p75
sg15
V40
p76
sg17
V60
p77
sg19
V60
p78
sbag1
(g2
g3
Ntp79
Rp80
(dp81
g7
V099
p82
sg9
VKingler
p83
sg11
VB2,W2,
p84
sg13
VRippling
p85
sg15
V50
p86
sg17
V70
p87
sg19
V10
p88
sbag1
(g2
g3
Ntp89
Rp90
(dp91
g7
V457
p92
sg9
VLumineon
p93
sg11
VB2,W2,
p94
sg13
VRippling
p95
sg15
V40
p96
sg17
V60
p97
sg19
V30
p98
sba.