(lp0
ccopy_reg
_reconstructor
p1
(c__main__
WildPokemon
p2
c__builtin__
object
p3
Ntp4
Rp5
(dp6
VpDexNo
p7
V081
p8
sVpSpecies
p9
VMagnemite
p10
sVpGames
p11
VB2,W2,
p12
sVpArea
p13
VGrass
p14
sVpMinLevel
p15
V10
p16
sVpMaxLevel
p17
V11
p18
sVpRate
p19
V15
p20
sbag1
(g2
g3
Ntp21
Rp22
(dp23
g7
V239
p24
sg9
VElekid
p25
sg11
VW2,
p26
sg13
VGrass
p27
sg15
V10
p28
sg17
V12
p29
sg19
V15
p30
sbag1
(g2
g3
Ntp31
Rp32
(dp33
g7
V240
p34
sg9
VMagby
p35
sg11
VB2,
p36
sg13
VGrass
p37
sg15
V10
p38
sg17
V12
p39
sg19
V15
p40
sbag1
(g2
g3
Ntp41
Rp42
(dp43
g7
V504
p44
sg9
VPatrat
p45
sg11
VB2,W2,
p46
sg13
VGrass
p47
sg15
V10
p48
sg17
V13
p49
sg19
V35
p50
sbag1
(g2
g3
Ntp51
Rp52
(dp53
g7
V519
p54
sg9
VPidove
p55
sg11
VB2,W2,
p56
sg13
VGrass
p57
sg15
V10
p58
sg17
V13
p59
sg19
V35
p60
sbag1
(g2
g3
Ntp61
Rp62
(dp63
g7
V531
p64
sg9
VAudino
p65
sg11
VB2,W2,
p66
sg13
VRustling
p67
sg15
V10
p68
sg17
V13
p69
sg19
V100
p70
sbag1
(g2
g3
Ntp71
Rp72
(dp73
g7
V592
p74
sg9
VFrillish
p75
sg11
VB2,W2,
p76
sg13
VSurf
p77
sg15
V5
p78
sg17
V15
p79
sg19
V100
p80
sbag1
(g2
g3
Ntp81
Rp82
(dp83
g7
V594
p84
sg9
VAlomomola
p85
sg11
VB2,W2,
p86
sg13
VRippling
p87
sg15
g78
sg17
V15
p88
sg19
V95
p89
sbag1
(g2
g3
Ntp90
Rp91
(dp92
g7
V593
p93
sg9
VJellicent
p94
sg11
VB2,W2,
p95
sg13
VRippling
p96
sg15
g78
sg17
V15
p97
sg19
V5
p98
sbag1
(g2
g3
Ntp99
Rp100
(dp101
g7
V098
p102
sg9
VKrabby
p103
sg11
VB2,W2,
p104
sg13
VFish Super
p105
sg15
V40
p106
sg17
V60
p107
sg19
V30
p108
sbag1
(g2
g3
Ntp109
Rp110
(dp111
g7
V456
p112
sg9
VFinneon
p113
sg11
VB2,W2,
p114
sg13
VFish Super
p115
sg15
V40
p116
sg17
V70
p117
sg19
V65
p118
sbag1
(g2
g3
Ntp119
Rp120
(dp121
g7
V211
p122
sg9
VQwilfish
p123
sg11
VB2,W2,
p124
sg13
VFish Super
p125
sg15
V50
p126
sg17
V70
p127
sg19
V5
p128
sbag1
(g2
g3
Ntp129
Rp130
(dp131
g7
V098
p132
sg9
VKrabby
p133
sg11
VB2,W2,
p134
sg13
VRippling
p135
sg15
V40
p136
sg17
V60
p137
sg19
V60
p138
sbag1
(g2
g3
Ntp139
Rp140
(dp141
g7
V099
p142
sg9
VKingler
p143
sg11
VB2,W2,
p144
sg13
VRippling
p145
sg15
V50
p146
sg17
V70
p147
sg19
V10
p148
sbag1
(g2
g3
Ntp149
Rp150
(dp151
g7
V457
p152
sg9
VLumineon
p153
sg11
VB2,W2,
p154
sg13
VRippling
p155
sg15
V40
p156
sg17
V60
p157
sg19
V30
p158
sbag1
(g2
g3
Ntp159
Rp160
(dp161
g7
V058
p162
sg9
VGrowlithe
p163
sg11
VB2,W2,
p164
sg13
VGrass
p165
sg15
V11
p166
sg17
V13
p167
sg19
V20
p168
sbag1
(g2
g3
Ntp169
Rp170
(dp171
g7
V081
p172
sg9
VMagnemite
p173
sg11
VB2,W2,
p174
sg13
VGrass
p175
sg15
V10
p176
sg17
V12
p177
sg19
V25
p178
sbag1
(g2
g3
Ntp179
Rp180
(dp181
g7
V109
p182
sg9
VKoffing
p183
sg11
VB2,W2,
p184
sg13
VGrass
p185
sg15
V10
p186
sg17
V13
p187
sg19
V15
p188
sbag1
(g2
g3
Ntp189
Rp190
(dp191
g7
V239
p192
sg9
VElekid
p193
sg11
g26
sg13
VGrass
p194
sg15
V10
p195
sg17
V12
p196
sg19
V25
p197
sbag1
(g2
g3
Ntp198
Rp199
(dp200
g7
V240
p201
sg9
VMagby
p202
sg11
g36
sg13
VGrass
p203
sg15
V10
p204
sg17
V12
p205
sg19
V25
p206
sbag1
(g2
g3
Ntp207
Rp208
(dp209
g7
V504
p210
sg9
VPatrat
p211
sg11
VB2,W2,
p212
sg13
VGrass
p213
sg15
V10
p214
sg17
V13
p215
sg19
V15
p216
sbag1
(g2
g3
Ntp217
Rp218
(dp219
g7
V058
p220
sg9
VGrowlithe
p221
sg11
VB2,W2,
p222
sg13
VDark
p223
sg15
V12
p224
sg17
V14
p225
sg19
V20
p226
sbag1
(g2
g3
Ntp227
Rp228
(dp229
g7
V081
p230
sg9
VMagnemite
p231
sg11
VB2,W2,
p232
sg13
VDark
p233
sg15
V11
p234
sg17
V13
p235
sg19
V25
p236
sbag1
(g2
g3
Ntp237
Rp238
(dp239
g7
V109
p240
sg9
VKoffing
p241
sg11
VB2,W2,
p242
sg13
VDark
p243
sg15
V11
p244
sg17
V14
p245
sg19
V15
p246
sbag1
(g2
g3
Ntp247
Rp248
(dp249
g7
V239
p250
sg9
VElekid
p251
sg11
g26
sg13
VDark
p252
sg15
V11
p253
sg17
V13
p254
sg19
V25
p255
sbag1
(g2
g3
Ntp256
Rp257
(dp258
g7
V240
p259
sg9
VMagby
p260
sg11
g36
sg13
VDark
p261
sg15
V11
p262
sg17
V13
p263
sg19
V25
p264
sbag1
(g2
g3
Ntp265
Rp266
(dp267
g7
V504
p268
sg9
VPatrat
p269
sg11
VB2,W2,
p270
sg13
VDark
p271
sg15
V11
p272
sg17
V14
p273
sg19
V15
p274
sbag1
(g2
g3
Ntp275
Rp276
(dp277
g7
V531
p278
sg9
VAudino
p279
sg11
VB2,W2,
p280
sg13
VRustling
p281
sg15
V10
p282
sg17
V13
p283
sg19
V100
p284
sba.