(lp0
ccopy_reg
_reconstructor
p1
(c__main__
WildPokemon
p2
c__builtin__
object
p3
Ntp4
Rp5
(dp6
VpDexNo
p7
V129
p8
sVpSpecies
p9
VMagikarp
p10
sVpGames
p11
VR,B,Y,
p12
sVpArea
p13
VFish Old
p14
sVpMinLevel
p15
V5
p16
sVpMaxLevel
p17
g16
sVpRate
p18
V100
p19
sbag1
(g2
g3
Ntp20
Rp21
(dp22
g7
V060
p23
sg9
VPoliwag
p24
sg11
VR,B,Y,
p25
sg13
VFish Good
p26
sg15
V10
p27
sg17
g27
sg18
V50
p28
sbag1
(g2
g3
Ntp29
Rp30
(dp31
g7
V118
p32
sg9
VGoldeen
p33
sg11
VR,B,Y,
p34
sg13
VFish Good
p35
sg15
V10
p36
sg17
g36
sg18
V50
p37
sbag1
(g2
g3
Ntp38
Rp39
(dp40
g7
V060
p41
sg9
VPoliwag
p42
sg11
VR,B,
p43
sg13
VFish Super
p44
sg15
V15
p45
sg17
g45
sg18
V50
p46
sbag1
(g2
g3
Ntp47
Rp48
(dp49
g7
V060
p50
sg9
VPoliwag
p51
sg11
VY,
p52
sg13
VFish Super
p53
sg15
g16
sg17
V15
p54
sg18
V100
p55
sbag1
(g2
g3
Ntp56
Rp57
(dp58
g7
V072
p59
sg9
VTentacool
p60
sg11
VR,B,
p61
sg13
VFish Super
p62
sg15
V15
p63
sg17
g63
sg18
V50
p64
sbag1
(g2
g3
Ntp65
Rp66
(dp67
g7
V060
p68
sg9
VPoliwag
p69
sg11
VG,S,C,
p70
sg13
VSurf
p71
sg15
g16
sg17
V14
p72
sg18
V90
p73
sbag1
(g2
g3
Ntp74
Rp75
(dp76
g7
V061
p77
sg9
VPoliwhirl
p78
sg11
VG,S,C,
p79
sg13
VSurf
p80
sg15
V10
p81
sg17
V14
p82
sg18
V10
p83
sbag1
(g2
g3
Ntp84
Rp85
(dp86
g7
V060
p87
sg9
VPoliwag
p88
sg11
VG,S,C,
p89
sg13
VFish Old
p90
sg15
V10
p91
sg17
g91
sg18
V15
p92
sbag1
(g2
g3
Ntp93
Rp94
(dp95
g7
V129
p96
sg9
VMagikarp
p97
sg11
VG,S,C,
p98
sg13
VFish Old
p99
sg15
V10
p100
sg17
g100
sg18
V85
p101
sbag1
(g2
g3
Ntp102
Rp103
(dp104
g7
V060
p105
sg9
VPoliwag
p106
sg11
VG,S,C,
p107
sg13
VFish Good
p108
sg15
V20
p109
sg17
g109
sg18
V65
p110
sbag1
(g2
g3
Ntp111
Rp112
(dp113
g7
V129
p114
sg9
VMagikarp
p115
sg11
VG,S,C,
p116
sg13
VFish Good
p117
sg15
V20
p118
sg17
g118
sg18
V35
p119
sbag1
(g2
g3
Ntp120
Rp121
(dp122
g7
V060
p123
sg9
VPoliwag
p124
sg11
VG,S,C,
p125
sg13
VFish Super
p126
sg15
V40
p127
sg17
g127
sg18
V80
p128
sbag1
(g2
g3
Ntp129
Rp130
(dp131
g7
V129
p132
sg9
VMagikarp
p133
sg11
VG,S,C,
p134
sg13
VFish Super
p135
sg15
V40
p136
sg17
g136
sg18
V20
p137
sbag1
(g2
g3
Ntp138
Rp139
(dp140
g7
V054
p141
sg9
VPsyduck
p142
sg11
VFR,
p143
sg13
VSurf
p144
sg15
V20
p145
sg17
V40
p146
sg18
V100
p147
sbag1
(g2
g3
Ntp148
Rp149
(dp150
g7
V079
p151
sg9
VSlowpoke
p152
sg11
VLG,
p153
sg13
VSurf
p154
sg15
V20
p155
sg17
V40
p156
sg18
V100
p157
sbag1
(g2
g3
Ntp158
Rp159
(dp160
g7
V129
p161
sg9
VMagikarp
p162
sg11
VFR,LG,
p163
sg13
VFish Old
p164
sg15
g16
sg17
g16
sg18
V100
p165
sbag1
(g2
g3
Ntp166
Rp167
(dp168
g7
V060
p169
sg9
VPoliwag
p170
sg11
VFR,LG,
p171
sg13
VFish Good
p172
sg15
g16
sg17
V15
p173
sg18
V60
p174
sbag1
(g2
g3
Ntp175
Rp176
(dp177
g7
V118
p178
sg9
VGoldeen
p179
sg11
VFR,LG,
p180
sg13
VFish Good
p181
sg15
g16
sg17
V15
p182
sg18
V20
p183
sbag1
(g2
g3
Ntp184
Rp185
(dp186
g7
V129
p187
sg9
VMagikarp
p188
sg11
VFR,LG,
p189
sg13
VFish Good
p190
sg15
g16
sg17
V15
p191
sg18
V20
p192
sbag1
(g2
g3
Ntp193
Rp194
(dp195
g7
V054
p196
sg9
VPsyduck
p197
sg11
g143
sg13
VFish Super
p198
sg15
V15
p199
sg17
V35
p200
sg18
V5
p201
sbag1
(g2
g3
Ntp202
Rp203
(dp204
g7
V060
p205
sg9
VPoliwag
p206
sg11
VFR,LG,
p207
sg13
VFish Super
p208
sg15
V15
p209
sg17
V25
p210
sg18
V40
p211
sbag1
(g2
g3
Ntp212
Rp213
(dp214
g7
V061
p215
sg9
VPoliwhirl
p216
sg11
VFR,LG,
p217
sg13
VFish Super
p218
sg15
V20
p219
sg17
V30
p220
sg18
V40
p221
sbag1
(g2
g3
Ntp222
Rp223
(dp224
g7
V079
p225
sg9
VSlowpoke
p226
sg11
g153
sg13
VFish Super
p227
sg15
V15
p228
sg17
V35
p229
sg18
V5
p230
sbag1
(g2
g3
Ntp231
Rp232
(dp233
g7
V130
p234
sg9
VGyarados
p235
sg11
VFR,LG,
p236
sg13
VFish Super
p237
sg15
V15
p238
sg17
V25
p239
sg18
V15
p240
sbag1
(g2
g3
Ntp241
Rp242
(dp243
g7
V060
p244
sg9
VPoliwag
p245
sg11
VHG,SS,
p246
sg13
VSurf
p247
sg15
g16
sg17
V10
p248
sg18
V90
p249
sbag1
(g2
g3
Ntp250
Rp251
(dp252
g7
V061
p253
sg9
VPoliwhirl
p254
sg11
VHG,SS,
p255
sg13
VSurf
p256
sg15
V10
p257
sg17
g257
sg18
V10
p258
sbag1
(g2
g3
Ntp259
Rp260
(dp261
g7
V060
p262
sg9
VPoliwag
p263
sg11
VHG,SS,
p264
sg13
VFish Old
p265
sg15
V10
p266
sg17
g266
sg18
V5
p267
sbag1
(g2
g3
Ntp268
Rp269
(dp270
g7
V129
p271
sg9
VMagikarp
p272
sg11
VHG,SS,
p273
sg13
VFish Old
p274
sg15
V10
p275
sg17
g275
sg18
V95
p276
sbag1
(g2
g3
Ntp277
Rp278
(dp279
g7
V060
p280
sg9
VPoliwag
p281
sg11
VHG,SS,
p282
sg13
VFish Good
p283
sg15
V20
p284
sg17
g284
sg18
V60
p285
sbag1
(g2
g3
Ntp286
Rp287
(dp288
g7
V129
p289
sg9
VMagikarp
p290
sg11
VHG,SS,
p291
sg13
VFish Good
p292
sg15
V20
p293
sg17
g293
sg18
V40
p294
sbag1
(g2
g3
Ntp295
Rp296
(dp297
g7
V060
p298
sg9
VPoliwag
p299
sg11
VHG,SS,
p300
sg13
VFish Super
p301
sg15
V40
p302
sg17
g302
sg18
V93
p303
sbag1
(g2
g3
Ntp304
Rp305
(dp306
g7
V129
p307
sg9
VMagikarp
p308
sg11
VHG,SS,
p309
sg13
VFish Super
p310
sg15
V40
p311
sg17
g311
sg18
V7
p312
sbag1
(g2
g3
Ntp313
Rp314
(dp315
g7
V163
p316
sg9
VHoothoot
p317
sg11
VHG,SS,
p318
sg13
VHeadbutt
p319
sg15
V3
p320
sg17
V7
p321
sg18
V50
p322
sbag1
(g2
g3
Ntp323
Rp324
(dp325
g7
V165
p326
sg9
VLedyba
p327
sg11
VSS,
p328
sg13
VHeadbutt
p329
sg15
g16
sg17
g321
sg18
V30
p330
sbag1
(g2
g3
Ntp331
Rp332
(dp333
g7
V167
p334
sg9
VSpinarak
p335
sg11
VHG,
p336
sg13
VHeadbutt
p337
sg15
g16
sg17
g321
sg18
V30
p338
sbag1
(g2
g3
Ntp339
Rp340
(dp341
g7
V204
p342
sg9
VPineco
p343
sg11
VHG,SS,
p344
sg13
VHeadbutt
p345
sg15
g320
sg17
V4
p346
sg18
V30
p347
sbag1
(g2
g3
Ntp348
Rp349
(dp350
g7
V265
p351
sg9
VWurmple
p352
sg11
VHG,SS,
p353
sg13
VHeadbutt
p354
sg15
g320
sg17
g321
sg18
V20
p355
sbag1
(g2
g3
Ntp356
Rp357
(dp358
g7
V016
p359
sg9
VPidgey
p360
sg11
VPi,Ev,
p361
sg13
VSky
p362
sg15
g320
sg17
V56
p363
sg18
V60
p364
sbag1
(g2
g3
Ntp365
Rp366
(dp367
g7
V017
p368
sg9
VPidgeotto
p369
sg11
VPi,Ev,
p370
sg13
VSky
p371
sg15
g320
sg17
V56
p372
sg18
V35
p373
sbag1
(g2
g3
Ntp374
Rp375
(dp376
g7
V018
p377
sg9
VPidgeot
p378
sg11
VPi,Ev,
p379
sg13
VSky
p380
sg15
g320
sg17
V56
p381
sg18
V5
p382
sba.