(lp0
ccopy_reg
_reconstructor
p1
(c__main__
WildPokemon
p2
c__builtin__
object
p3
Ntp4
Rp5
(dp6
VpDexNo
p7
V010
p8
sVpSpecies
p9
VCaterpie
p10
sVpGames
p11
VR,
p12
sVpArea
p13
VGrass
p14
sVpMinLevel
p15
V3
p16
sVpMaxLevel
p17
g16
sVpRate
p18
V5
p19
sbag1
(g2
g3
Ntp20
Rp21
(dp22
g7
V010
p23
sg9
VCaterpie
p24
sg11
VB,
p25
sg13
VGrass
p26
sg15
g16
sg17
V5
p27
sg18
V45
p28
sbag1
(g2
g3
Ntp29
Rp30
(dp31
g7
V010
p32
sg9
VCaterpie
p33
sg11
VY,
p34
sg13
VGrass
p35
sg15
g16
sg17
V6
p36
sg18
V55
p37
sbag1
(g2
g3
Ntp38
Rp39
(dp40
g7
V011
p41
sg9
VMetapod
p42
sg11
g12
sg13
VGrass
p43
sg15
V4
p44
sg17
g44
sg18
V5
p45
sbag1
(g2
g3
Ntp46
Rp47
(dp48
g7
V011
p49
sg9
VMetapod
p50
sg11
g25
sg13
VGrass
p51
sg15
g44
sg17
g36
sg18
V40
p52
sbag1
(g2
g3
Ntp53
Rp54
(dp55
g7
V011
p56
sg9
VMetapod
p57
sg11
g34
sg13
VGrass
p58
sg15
g44
sg17
g36
sg18
V20
p59
sbag1
(g2
g3
Ntp60
Rp61
(dp62
g7
V013
p63
sg9
VWeedle
p64
sg11
g12
sg13
VGrass
p65
sg15
g16
sg17
g27
sg18
V45
p66
sbag1
(g2
g3
Ntp67
Rp68
(dp69
g7
V013
p70
sg9
VWeedle
p71
sg11
g25
sg13
VGrass
p72
sg15
g16
sg17
g16
sg18
V5
p73
sbag1
(g2
g3
Ntp74
Rp75
(dp76
g7
V014
p77
sg9
VKakuna
p78
sg11
g12
sg13
VGrass
p79
sg15
g44
sg17
g36
sg18
V40
p80
sbag1
(g2
g3
Ntp81
Rp82
(dp83
g7
V014
p84
sg9
VKakuna
p85
sg11
g25
sg13
VGrass
p86
sg15
g44
sg17
g44
sg18
V5
p87
sbag1
(g2
g3
Ntp88
Rp89
(dp90
g7
V016
p91
sg9
VPidgey
p92
sg11
g34
sg13
VGrass
p93
sg15
g44
sg17
V8
p94
sg18
V24
p95
sbag1
(g2
g3
Ntp96
Rp97
(dp98
g7
V017
p99
sg9
VPidgeotto
p100
sg11
g34
sg13
VGrass
p101
sg15
V9
p102
sg17
g102
sg18
V1
p103
sbag1
(g2
g3
Ntp104
Rp105
(dp106
g7
V025
p107
sg9
VPikachu
p108
sg11
VR,B,
p109
sg13
VGrass
p110
sg15
g16
sg17
g27
sg18
V5
p111
sbag1
(g2
g3
Ntp112
Rp113
(dp114
g7
V010
p115
sg9
VCaterpie
p116
sg11
VFR,LG,
p117
sg13
VGrass
p118
sg15
g16
sg17
g27
sg18
V40
p119
sbag1
(g2
g3
Ntp120
Rp121
(dp122
g7
V011
p123
sg9
VMetapod
p124
sg11
VFR,
p125
sg13
VGrass
p126
sg15
g27
sg17
g27
sg18
V5
p127
sbag1
(g2
g3
Ntp128
Rp129
(dp130
g7
V011
p131
sg9
VMetapod
p132
sg11
VLG,
p133
sg13
VGrass
p134
sg15
g44
sg17
g36
sg18
V10
p135
sbag1
(g2
g3
Ntp136
Rp137
(dp138
g7
V013
p139
sg9
VWeedle
p140
sg11
VFR,LG,
p141
sg13
VGrass
p142
sg15
g16
sg17
g27
sg18
V40
p143
sbag1
(g2
g3
Ntp144
Rp145
(dp146
g7
V014
p147
sg9
VKakuna
p148
sg11
g125
sg13
VGrass
p149
sg15
g44
sg17
g36
sg18
V10
p150
sbag1
(g2
g3
Ntp151
Rp152
(dp153
g7
V014
p154
sg9
VKakuna
p155
sg11
g133
sg13
VGrass
p156
sg15
g27
sg17
g27
sg18
V5
p157
sbag1
(g2
g3
Ntp158
Rp159
(dp160
g7
V025
p161
sg9
VPikachu
p162
sg11
VFR,LG,
p163
sg13
VGrass
p164
sg15
g16
sg17
g27
sg18
V5
p165
sbag1
(g2
g3
Ntp166
Rp167
(dp168
g7
V010
p169
sg9
VCaterpie
p170
sg11
VHG,
p171
sg13
VGrass
p172
sg15
g16
sg17
g16
sg18
V40
p173
sbag1
(g2
g3
Ntp174
Rp175
(dp176
g7
V013
p177
sg9
VWeedle
p178
sg11
VSS,
p179
sg13
VGrass
p180
sg15
g16
sg17
g16
sg18
V40
p181
sbag1
(g2
g3
Ntp182
Rp183
(dp184
g7
V011
p185
sg9
VMetapod
p186
sg11
g171
sg13
VGrass
p187
sg15
g16
sg17
g27
sg18
V30
p188
sbag1
(g2
g3
Ntp189
Rp190
(dp191
g7
V014
p192
sg9
VKakuna
p193
sg11
g179
sg13
VGrass
p194
sg15
g16
sg17
g27
sg18
V30
p195
sbag1
(g2
g3
Ntp196
Rp197
(dp198
g7
V016
p199
sg9
VPidgey
p200
sg11
VHG,SS,
p201
sg13
VGrass
p202
sg15
g16
sg17
g16
sg18
V10
p203
sbag1
(g2
g3
Ntp204
Rp205
(dp206
g7
V016
p207
sg9
VPidgey
p208
sg11
VHG,SS,
p209
sg13
VGrass
p210
sg15
g16
sg17
V7
p211
sg18
V15
p212
sbag1
(g2
g3
Ntp213
Rp214
(dp215
g7
V012
p216
sg9
VButterfree
p217
sg11
g171
sg13
VGrass
p218
sg15
g211
sg17
g211
sg18
V10
p219
sbag1
(g2
g3
Ntp220
Rp221
(dp222
g7
V015
p223
sg9
VBeedrill
p224
sg11
g179
sg13
VGrass
p225
sg15
g211
sg17
g211
sg18
V10
p226
sbag1
(g2
g3
Ntp227
Rp228
(dp229
g7
V025
p230
sg9
VPikachu
p231
sg11
VHG,SS,
p232
sg13
VGrass
p233
sg15
g44
sg17
g211
sg18
V6
p234
sbag1
(g2
g3
Ntp235
Rp236
(dp237
g7
V025
p238
sg9
VPikachu
p239
sg11
VHG,SS,
p240
sg13
VGrass
p241
sg15
g44
sg17
g44
sg18
V5
p242
sbag1
(g2
g3
Ntp243
Rp244
(dp245
g7
V017
p246
sg9
VPidgeotto
p247
sg11
VHG,SS,
p248
sg13
VGrass
p249
sg15
g211
sg17
g211
sg18
V9
p250
sbag1
(g2
g3
Ntp251
Rp252
(dp253
g7
V163
p254
sg9
VHoothoot
p255
sg11
VHG,SS,
p256
sg13
VGrass
p257
sg15
g16
sg17
g27
sg18
V80
p258
sbag1
(g2
g3
Ntp259
Rp260
(dp261
g7
V164
p262
sg9
VNoctowl
p263
sg11
VHG,SS,
p264
sg13
VGrass
p265
sg15
g211
sg17
g211
sg18
V15
p266
sbag1
(g2
g3
Ntp267
Rp268
(dp269
g7
V163
p270
sg9
VHoothoot
p271
sg11
VHG,SS,
p272
sg13
VHeadbutt
p273
sg15
g16
sg17
g211
sg18
V50
p274
sbag1
(g2
g3
Ntp275
Rp276
(dp277
g7
V273
p278
sg9
VSeedot
p279
sg11
g171
sg13
VHeadbutt
p280
sg15
g16
sg17
g36
sg18
V30
p281
sbag1
(g2
g3
Ntp282
Rp283
(dp284
g7
V273
p285
sg9
VSeedot
p286
sg11
g179
sg13
VHeadbutt
p287
sg15
g16
sg17
g36
sg18
V5
p288
sbag1
(g2
g3
Ntp289
Rp290
(dp291
g7
V167
p292
sg9
VSpinarak
p293
sg11
g171
sg13
VHeadbutt
p294
sg15
g44
sg17
g44
sg18
V10
p295
sbag1
(g2
g3
Ntp296
Rp297
(dp298
g7
V168
p299
sg9
VAriados
p300
sg11
g171
sg13
VHeadbutt
p301
sg15
g27
sg17
g36
sg18
V10
p302
sbag1
(g2
g3
Ntp303
Rp304
(dp305
g7
V165
p306
sg9
VLedyba
p307
sg11
g179
sg13
VHeadbutt
p308
sg15
g44
sg17
g44
sg18
V10
p309
sbag1
(g2
g3
Ntp310
Rp311
(dp312
g7
V166
p313
sg9
VLedian
p314
sg11
g179
sg13
VHeadbutt
p315
sg15
g27
sg17
g36
sg18
V10
p316
sbag1
(g2
g3
Ntp317
Rp318
(dp319
g7
V164
p320
sg9
VNoctowl
p321
sg11
VHG,SS,
p322
sg13
VHeadbutt
p323
sg15
g27
sg17
g211
sg18
V5
p324
sbag1
(g2
g3
Ntp325
Rp326
(dp327
g7
V285
p328
sg9
VShroomish
p329
sg11
g171
sg13
VHeadbutt
p330
sg15
g27
sg17
g36
sg18
V5
p331
sbag1
(g2
g3
Ntp332
Rp333
(dp334
g7
V285
p335
sg9
VShroomish
p336
sg11
g179
sg13
VHeadbutt
p337
sg15
g27
sg17
g36
sg18
V30
p338
sbag1
(g2
g3
Ntp339
Rp340
(dp341
g7
V401
p342
sg9
VKricketot
p343
sg11
VHG,SS,
p344
sg13
VSwarm
p345
sg15
g16
sg17
g27
sg18
V40
p346
sbag1
(g2
g3
Ntp347
Rp348
(dp349
g7
V322
p350
sg9
VNumel
p351
sg11
VHG,SS,
p352
sg13
VHoenn
p353
sg15
g27
sg17
g27
sg18
V20
p354
sbag1
(g2
g3
Ntp355
Rp356
(dp357
g7
V325
p358
sg9
VSpoink
p359
sg11
VHG,SS,
p360
sg13
VHoenn
p361
sg15
g16
sg17
g16
sg18
V20
p362
sbag1
(g2
g3
Ntp363
Rp364
(dp365
g7
V406
p366
sg9
VBudew
p367
sg11
VHG,SS,
p368
sg13
VSinnoh
p369
sg15
g16
sg17
g16
sg18
V20
p370
sbag1
(g2
g3
Ntp371
Rp372
(dp373
g7
V455
p374
sg9
VCarnivine
p375
sg11
VHG,SS,
p376
sg13
VSinnoh
p377
sg15
g27
sg17
g27
sg18
V20
p378
sbag1
(g2
g3
Ntp379
Rp380
(dp381
g7
V010
p382
sg9
VCaterpie
p383
sg11
VPi,
p384
sg13
VGrass
p385
sg15
g16
sg17
g36
sg18
V25
p386
sbag1
(g2
g3
Ntp387
Rp388
(dp389
g7
V010
p390
sg9
VCaterpie
p391
sg11
VEv,
p392
sg13
VGrass
p393
sg15
g16
sg17
g36
sg18
V24
p394
sbag1
(g2
g3
Ntp395
Rp396
(dp397
g7
V011
p398
sg9
VMetapod
p399
sg11
VPi,Ev,
p400
sg13
VGrass
p401
sg15
g16
sg17
g36
sg18
V10
p402
sbag1
(g2
g3
Ntp403
Rp404
(dp405
g7
V012
p406
sg9
VButterfree
p407
sg11
g384
sg13
VGrass
p408
sg15
g16
sg17
g36
sg18
V1
p409
sbag1
(g2
g3
Ntp410
Rp411
(dp412
g7
V013
p413
sg9
VWeedle
p414
sg11
g384
sg13
VGrass
p415
sg15
g16
sg17
g36
sg18
V24
p416
sbag1
(g2
g3
Ntp417
Rp418
(dp419
g7
V013
p420
sg9
VWeedle
p421
sg11
g392
sg13
VGrass
p422
sg15
g16
sg17
g36
sg18
V25
p423
sbag1
(g2
g3
Ntp424
Rp425
(dp426
g7
V014
p427
sg9
VKakuna
p428
sg11
VPi,Ev,
p429
sg13
VGrass
p430
sg15
g16
sg17
g36
sg18
V10
p431
sbag1
(g2
g3
Ntp432
Rp433
(dp434
g7
V015
p435
sg9
VBeedrill
p436
sg11
g392
sg13
VGrass
p437
sg15
g16
sg17
g36
sg18
V1
p438
sbag1
(g2
g3
Ntp439
Rp440
(dp441
g7
V016
p442
sg9
VPidgey
p443
sg11
VPi,Ev,
p444
sg13
VGrass
p445
sg15
g16
sg17
g36
sg18
V15
p446
sbag1
(g2
g3
Ntp447
Rp448
(dp449
g7
V025
p450
sg9
VPikachu
p451
sg11
VPi,Ev,
p452
sg13
VGrass
p453
sg15
g16
sg17
g36
sg18
V5
p454
sbag1
(g2
g3
Ntp455
Rp456
(dp457
g7
V043
p458
sg9
VOddish
p459
sg11
g384
sg13
VGrass
p460
sg15
g16
sg17
g36
sg18
V10
p461
sbag1
(g2
g3
Ntp462
Rp463
(dp464
g7
V069
p465
sg9
VBellsprout
p466
sg11
g392
sg13
VGrass
p467
sg15
g16
sg17
g36
sg18
V10
p468
sbag1
(g2
g3
Ntp469
Rp470
(dp471
g7
V001
p472
sg9
VBulbasaur
p473
sg11
VPi,Ev,
p474
sg13
VGrass
p475
sg15
g16
sg17
g36
sg18
V0
p476
sba.