(lp0
ccopy_reg
_reconstructor
p1
(c__main__
WildPokemon
p2
c__builtin__
object
p3
Ntp4
Rp5
(dp6
VpDexNo
p7
V027
p8
sVpSpecies
p9
VSandshrew
p10
sVpGames
p11
VSw,Sh,
p12
sVpArea
p13
VCave
p14
sVpMinLevel
p15
V16
p16
sVpMaxLevel
p17
V21
p18
sVpRate
p19
V56
p20
sbag1
(g2
g3
Ntp21
Rp22
(dp23
g7
V104
p24
sg9
VCubone
p25
sg11
VSw,Sh,
p26
sg13
VCave
p27
sg15
V16
p28
sg17
V21
p29
sg19
V32
p30
sbag1
(g2
g3
Ntp31
Rp32
(dp33
g7
V113
p34
sg9
VChansey
p35
sg11
VSw,Sh,
p36
sg13
VCave
p37
sg15
V16
p38
sg17
V21
p39
sg19
V0
p40
sbag1
(g2
g3
Ntp41
Rp42
(dp43
g7
V115
p44
sg9
VKangaskhan
p45
sg11
VSw,Sh,
p46
sg13
VCave
p47
sg15
V16
p48
sg17
V21
p49
sg19
V5
p50
sbag1
(g2
g3
Ntp51
Rp52
(dp53
g7
V242
p54
sg9
VBlissey
p55
sg11
VSw,Sh,
p56
sg13
VCave
p57
sg15
V16
p58
sg17
V21
p59
sg19
g40
sbag1
(g2
g3
Ntp60
Rp61
(dp62
g7
V324
p63
sg9
VTorkoal
p64
sg11
VSw,Sh,
p65
sg13
VCave
p66
sg15
V16
p67
sg17
V21
p68
sg19
V5
p69
sba.