(lp0
ccopy_reg
_reconstructor
p1
(c__main__
WildPokemon
p2
c__builtin__
object
p3
Ntp4
Rp5
(dp6
VpDexNo
p7
V037
p8
sVpSpecies
p9
VVulpix
p10
sVpGames
p11
VSw,
p12
sVpArea
p13
VGrass
p14
sVpMinLevel
p15
V11
p16
sVpMaxLevel
p17
V14
p18
sVpRate
p19
V0
p20
sbag1
(g2
g3
Ntp21
Rp22
(dp23
g7
V058
p24
sg9
VGrowlithe
p25
sg11
VSh,
p26
sg13
VGrass
p27
sg15
V11
p28
sg17
V14
p29
sg19
g20
sbag1
(g2
g3
Ntp30
Rp31
(dp32
g7
V066
p33
sg9
VMachop
p34
sg11
g12
sg13
VGrass
p35
sg15
V11
p36
sg17
V14
p37
sg19
g20
sbag1
(g2
g3
Ntp38
Rp39
(dp40
g7
V066
p41
sg9
VMachop
p42
sg11
g26
sg13
VGrass
p43
sg15
V11
p44
sg17
V14
p45
sg19
g20
sbag1
(g2
g3
Ntp46
Rp47
(dp48
g7
V092
p49
sg9
VGastly
p50
sg11
g12
sg13
VGrass
p51
sg15
V11
p52
sg17
V14
p53
sg19
g20
sbag1
(g2
g3
Ntp54
Rp55
(dp56
g7
V092
p57
sg9
VGastly
p58
sg11
g26
sg13
VGrass
p59
sg15
V11
p60
sg17
V14
p61
sg19
g20
sbag1
(g2
g3
Ntp62
Rp63
(dp64
g7
V278
p65
sg9
VWingull
p66
sg11
VSw,Sh,
p67
sg13
VGrass
p68
sg15
V11
p69
sg17
V14
p70
sg19
g20
sbag1
(g2
g3
Ntp71
Rp72
(dp73
g7
V309
p74
sg9
VElectrike
p75
sg11
VSw,Sh,
p76
sg13
VGrass
p77
sg15
V11
p78
sg17
V14
p79
sg19
g20
sbag1
(g2
g3
Ntp80
Rp81
(dp82
g7
V355
p83
sg9
VDuskull
p84
sg11
VSw,Sh,
p85
sg13
VGrass
p86
sg15
V11
p87
sg17
V14
p88
sg19
g20
sbag1
(g2
g3
Ntp89
Rp90
(dp91
g7
V361
p92
sg9
VSnorunt
p93
sg11
VSw,Sh,
p94
sg13
VGrass
p95
sg15
V11
p96
sg17
V14
p97
sg19
g20
sbag1
(g2
g3
Ntp98
Rp99
(dp100
g7
V425
p101
sg9
VDrifloon
p102
sg11
VSw,Sh,
p103
sg13
VGrass
p104
sg15
V11
p105
sg17
V14
p106
sg19
g20
sbag1
(g2
g3
Ntp107
Rp108
(dp109
g7
V459
p110
sg9
VSnover
p111
sg11
VSw,Sh,
p112
sg13
VGrass
p113
sg15
V11
p114
sg17
V14
p115
sg19
g20
sbag1
(g2
g3
Ntp116
Rp117
(dp118
g7
V509
p119
sg9
VPurrloin
p120
sg11
VSw,Sh,
p121
sg13
VGrass
p122
sg15
V11
p123
sg17
V14
p124
sg19
g20
sbag1
(g2
g3
Ntp125
Rp126
(dp127
g7
V519
p128
sg9
VPidove
p129
sg11
VSw,Sh,
p130
sg13
VGrass
p131
sg15
V11
p132
sg17
V14
p133
sg19
g20
sbag1
(g2
g3
Ntp134
Rp135
(dp136
g7
V535
p137
sg9
VTympole
p138
sg11
VSw,Sh,
p139
sg13
VGrass
p140
sg15
V11
p141
sg17
V14
p142
sg19
g20
sbag1
(g2
g3
Ntp143
Rp144
(dp145
g7
V557
p146
sg9
VDwebble
p147
sg11
VSw,Sh,
p148
sg13
VGrass
p149
sg15
V11
p150
sg17
V14
p151
sg19
g20
sbag1
(g2
g3
Ntp152
Rp153
(dp154
g7
V622
p155
sg9
VGolett
p156
sg11
VSw,Sh,
p157
sg13
VGrass
p158
sg15
V11
p159
sg17
V14
p160
sg19
g20
sbag1
(g2
g3
Ntp161
Rp162
(dp163
g7
V736
p164
sg9
VGrubbin
p165
sg11
VSw,Sh,
p166
sg13
VGrass
p167
sg15
V11
p168
sg17
V14
p169
sg19
g20
sbag1
(g2
g3
Ntp170
Rp171
(dp172
g7
V761
p173
sg9
VBounsweet
p174
sg11
VSw,Sh,
p175
sg13
VGrass
p176
sg15
V11
p177
sg17
V14
p178
sg19
g20
sbag1
(g2
g3
Ntp179
Rp180
(dp181
g7
V420
p182
sg9
VCherubi
p183
sg11
VSw,Sh,
p184
sg13
VBerry tree
p185
sg15
V11
p186
sg17
V14
p187
sg19
V50
p188
sbag1
(g2
g3
Ntp189
Rp190
(dp191
g7
V819
p192
sg9
VSkwovet
p193
sg11
VSw,Sh,
p194
sg13
VBerry tree
p195
sg15
V11
p196
sg17
V14
p197
sg19
V50
p198
sbag1
(g2
g3
Ntp199
Rp200
(dp201
g7
V037
p202
sg9
VVulpix
p203
sg11
g12
sg13
VGrass
p204
sg15
V26
p205
sg17
V29
p206
sg19
g20
sbag1
(g2
g3
Ntp207
Rp208
(dp209
g7
V043
p210
sg9
VOddish
p211
sg11
VSw,Sh,
p212
sg13
VGrass
p213
sg15
V26
p214
sg17
V29
p215
sg19
g20
sbag1
(g2
g3
Ntp216
Rp217
(dp218
g7
V058
p219
sg9
VGrowlithe
p220
sg11
g26
sg13
VGrass
p221
sg15
V26
p222
sg17
V29
p223
sg19
g20
sbag1
(g2
g3
Ntp224
Rp225
(dp226
g7
V092
p227
sg9
VGastly
p228
sg11
VSw,Sh,
p229
sg13
VGrass
p230
sg15
V26
p231
sg17
V29
p232
sg19
g20
sbag1
(g2
g3
Ntp233
Rp234
(dp235
g7
V213
p236
sg9
VShuckle
p237
sg11
VSw,Sh,
p238
sg13
VGrass
p239
sg15
V26
p240
sg17
V29
p241
sg19
g20
sbag1
(g2
g3
Ntp242
Rp243
(dp244
g7
V225
p245
sg9
VDelibird
p246
sg11
VSw,Sh,
p247
sg13
VGrass
p248
sg15
V26
p249
sg17
V29
p250
sg19
g20
sbag1
(g2
g3
Ntp251
Rp252
(dp253
g7
V278
p254
sg9
VWingull
p255
sg11
VSw,Sh,
p256
sg13
VGrass
p257
sg15
V26
p258
sg17
V29
p259
sg19
g20
sbag1
(g2
g3
Ntp260
Rp261
(dp262
g7
V280
p263
sg9
VRalts
p264
sg11
VSw,Sh,
p265
sg13
VGrass
p266
sg15
V26
p267
sg17
V29
p268
sg19
g20
sbag1
(g2
g3
Ntp269
Rp270
(dp271
g7
V355
p272
sg9
VDuskull
p273
sg11
VSw,Sh,
p274
sg13
VGrass
p275
sg15
V26
p276
sg17
V29
p277
sg19
g20
sbag1
(g2
g3
Ntp278
Rp279
(dp280
g7
V425
p281
sg9
VDrifloon
p282
sg11
VSw,Sh,
p283
sg13
VGrass
p284
sg15
V26
p285
sg17
V29
p286
sg19
g20
sbag1
(g2
g3
Ntp287
Rp288
(dp289
g7
V509
p290
sg9
VPurrloin
p291
sg11
VSw,Sh,
p292
sg13
VGrass
p293
sg15
V26
p294
sg17
V29
p295
sg19
g20
sbag1
(g2
g3
Ntp296
Rp297
(dp298
g7
V622
p299
sg9
VGolett
p300
sg11
VSw,Sh,
p301
sg13
VGrass
p302
sg15
V26
p303
sg17
V29
p304
sg19
g20
sbag1
(g2
g3
Ntp305
Rp306
(dp307
g7
V527
p308
sg9
VWoobat
p309
sg11
VSw,Sh,
p310
sg13
VFlying
p311
sg15
V26
p312
sg17
V29
p313
sg19
g20
sbag1
(g2
g3
Ntp314
Rp315
(dp316
g7
V714
p317
sg9
VNoibat
p318
sg11
VSw,Sh,
p319
sg13
VFlying
p320
sg15
V26
p321
sg17
V29
p322
sg19
g20
sbag1
(g2
g3
Ntp323
Rp324
(dp325
g7
V823
p326
sg9
VCorviknight
p327
sg11
VSw,Sh,
p328
sg13
VWanderer
p329
sg15
V65
p330
sg17
g330
sg19
V0
p331
sbag1
(g2
g3
Ntp332
Rp333
(dp334
g7
V093
p335
sg9
VHaunter
p336
sg11
VSw,Sh,
p337
sg13
VWanderer
p338
sg15
V34
p339
sg17
g339
sg19
g20
sbag1
(g2
g3
Ntp340
Rp341
(dp342
g7
V426
p343
sg9
VDrifblim
p344
sg11
VSw,Sh,
p345
sg13
VWanderer
p346
sg15
V34
p347
sg17
g347
sg19
g20
sbag1
(g2
g3
Ntp348
Rp349
(dp350
g7
V356
p351
sg9
VDusclops
p352
sg11
VSw,Sh,
p353
sg13
VWanderer
p354
sg15
V40
p355
sg17
g355
sg19
g20
sbag1
(g2
g3
Ntp356
Rp357
(dp358
g7
V362
p359
sg9
VGlalie
p360
sg11
VSw,Sh,
p361
sg13
VWanderer
p362
sg15
V40
p363
sg17
g363
sg19
g20
sbag1
(g2
g3
Ntp364
Rp365
(dp366
g7
V623
p367
sg9
VGolurk
p368
sg11
VSw,Sh,
p369
sg13
VWanderer
p370
sg15
V40
p371
sg17
g371
sg19
g20
sba.