(lp0
ccopy_reg
_reconstructor
p1
(c__main__
WildPokemon
p2
c__builtin__
object
p3
Ntp4
Rp5
(dp6
VpDexNo
p7
V782
p8
sVpSpecies
p9
VJangmo-o
p10
sVpGames
p11
VSw,Sh,
p12
sVpArea
p13
V{{no}}
p14
sVpMinLevel
p15
V3 (31/31/31/?/?/?)
p16
sVpMaxLevel
p17
g16
sVpRate
p18
V100
p19
sbag1
(g2
g3
Ntp20
Rp21
(dp22
g7
V246
p23
sg9
VLarvitar
p24
sg11
VSw,Sh,
p25
sg13
V{{no}}
p26
sg15
V3 (31/31/31/?/?/?)
p27
sg17
g27
sg18
V100
p28
sbag1
(g2
g3
Ntp29
Rp30
(dp31
g7
V823
p32
sg9
VCorviknight
p33
sg11
VSw,Sh,
p34
sg13
V{{yes}}
p35
sg15
V4 (31/31/31/?/31/?)
p36
sg17
g36
sg18
V0
p37
sbag1
(g2
g3
Ntp38
Rp39
(dp40
g7
V875
p41
sg9
VEiscue
p42
sg11
VSw,
p43
sg13
V{{no}}
p44
sg15
V3 (31/31/?/?/?/31)
p45
sg17
g45
sg18
V100
p46
sbag1
(g2
g3
Ntp47
Rp48
(dp49
g7
V874
p50
sg9
VStonjourner
p51
sg11
VSh,
p52
sg13
V{{no}}
p53
sg15
V3 (31/31/31/?/?/?)
p54
sg17
g54
sg18
V100
p55
sbag1
(g2
g3
Ntp56
Rp57
(dp58
g7
V879
p59
sg9
VCopperajah
p60
sg11
VSw,Sh,
p61
sg13
V{{no}}
p62
sg15
V3 (31/31/?/31/?/0)
p63
sg17
g63
sg18
V0
p64
sbag1
(g2
g3
Ntp65
Rp66
(dp67
g7
V851
p68
sg9
VCentiskorch
p69
sg11
VSw,Sh,
p70
sg13
V{{yes}}
p71
sg15
V3 (31/31/31/?/?/?)
p72
sg17
g72
sg18
V0
p73
sba.