(lp0
ccopy_reg
_reconstructor
p1
(c__main__
WildPokemon
p2
c__builtin__
object
p3
Ntp4
Rp5
(dp6
VpDexNo
p7
V041
p8
sVpSpecies
p9
VZubat
p10
sVpGames
p11
VD,P,
p12
sVpArea
p13
VCave
p14
sVpMinLevel
p15
V14
p16
sVpMaxLevel
p17
V16
p18
sVpRate
p19
V45
p20
sbag1
(g2
g3
Ntp21
Rp22
(dp23
g7
V041
p24
sg9
VZubat
p25
sg11
VPt,
p26
sg13
VCave
p27
sg15
V17
p28
sg17
V19
p29
sg19
V15
p30
sbag1
(g2
g3
Ntp31
Rp32
(dp33
g7
V074
p34
sg9
VGeodude
p35
sg11
VD,P,
p36
sg13
VCave
p37
sg15
V14
p38
sg17
V16
p39
sg19
V15
p40
sbag1
(g2
g3
Ntp41
Rp42
(dp43
g7
V074
p44
sg9
VGeodude
p45
sg11
g26
sg13
VCave
p46
sg15
V17
p47
sg17
V20
p48
sg19
V40
p49
sbag1
(g2
g3
Ntp50
Rp51
(dp52
g7
V095
p53
sg9
VOnix
p54
sg11
g26
sg13
VCave
p55
sg15
V18
p56
sg17
V20
p57
sg19
V15
p58
sbag1
(g2
g3
Ntp59
Rp60
(dp61
g7
V436
p62
sg9
VBronzor
p63
sg11
VD,P,
p64
sg13
VCave
p65
sg15
V14
p66
sg17
V16
p67
sg19
V40
p68
sbag1
(g2
g3
Ntp69
Rp70
(dp71
g7
V436
p72
sg9
VBronzor
p73
sg11
g26
sg13
VCave
p74
sg15
V18
p75
sg17
V20
p76
sg19
V30
p77
sbag1
(g2
g3
Ntp78
Rp79
(dp80
g7
V041
p81
sg9
VZubat
p82
sg11
VD,P,
p83
sg13
VCave
p84
sg15
V15
p85
sg17
V17
p86
sg19
V35
p87
sbag1
(g2
g3
Ntp88
Rp89
(dp90
g7
V041
p91
sg9
VZubat
p92
sg11
g26
sg13
VCave
p93
sg15
V17
p94
sg17
V19
p95
sg19
V10
p96
sbag1
(g2
g3
Ntp97
Rp98
(dp99
g7
V074
p100
sg9
VGeodude
p101
sg11
VD,P,
p102
sg13
VCave
p103
sg15
V16
p104
sg17
g104
sg19
V10
p105
sbag1
(g2
g3
Ntp106
Rp107
(dp108
g7
V074
p109
sg9
VGeodude
p110
sg11
g26
sg13
VCave
p111
sg15
V18
p112
sg17
V20
p113
sg19
V25
p114
sbag1
(g2
g3
Ntp115
Rp116
(dp117
g7
V095
p118
sg9
VOnix
p119
sg11
g26
sg13
VCave
p120
sg15
V18
p121
sg17
V20
p122
sg19
V15
p123
sbag1
(g2
g3
Ntp124
Rp125
(dp126
g7
V436
p127
sg9
VBronzor
p128
sg11
VD,P,
p129
sg13
VCave
p130
sg15
V15
p131
sg17
V17
p132
sg19
V40
p133
sbag1
(g2
g3
Ntp134
Rp135
(dp136
g7
V436
p137
sg9
VBronzor
p138
sg11
g26
sg13
VCave
p139
sg15
V18
p140
sg17
V20
p141
sg19
V30
p142
sbag1
(g2
g3
Ntp143
Rp144
(dp145
g7
V443
p146
sg9
VGible
p147
sg11
VD,P,
p148
sg13
VCave
p149
sg15
V15
p150
sg17
V17
p151
sg19
V15
p152
sbag1
(g2
g3
Ntp153
Rp154
(dp155
g7
V443
p156
sg9
VGible
p157
sg11
g26
sg13
VCave
p158
sg15
V17
p159
sg17
V20
p160
sg19
V20
p161
sbag1
(g2
g3
Ntp162
Rp163
(dp164
g7
V027
p165
sg9
VSandshrew
p166
sg11
VD,P,
p167
sg13
VLG
p168
sg15
V16
p169
sg17
V17
p170
sg19
V8
p171
sbag1
(g2
g3
Ntp172
Rp173
(dp174
g7
V027
p175
sg9
VSandshrew
p176
sg11
g26
sg13
VLG
p177
sg15
V18
p178
sg17
V20
p179
sg19
V8
p180
sba.