(lp0
ccopy_reg
_reconstructor
p1
(c__main__
WildPokemon
p2
c__builtin__
object
p3
Ntp4
Rp5
(dp6
VpDexNo
p7
V104
p8
sVpSpecies
p9
VCubone
p10
sVpGames
p11
VSu,M,
p12
sVpArea
p13
VBrown grass
p14
sVpMinLevel
p15
V16
p16
sVpMaxLevel
p17
V19
p18
sVpRate
p19
V24
p20
sbag1
(g2
g3
Ntp21
Rp22
(dp23
g7
V115
p24
sg9
VKangaskhan
p25
sg11
VSu,M,
p26
sg13
VBrown grass
p27
sg15
V16
p28
sg17
V19
p29
sg19
V1
p30
sbag1
(g2
g3
Ntp31
Rp32
(dp33
g7
V240
p34
sg9
VMagby
p35
sg11
VSu,M,
p36
sg13
VBrown grass
p37
sg15
V16
p38
sg17
V19
p39
sg19
V15
p40
sbag1
(g2
g3
Ntp41
Rp42
(dp43
g7
V661
p44
sg9
VFletchling
p45
sg11
VSu,M,
p46
sg13
VBrown grass
p47
sg15
V16
p48
sg17
V19
p49
sg19
V30
p50
sbag1
(g2
g3
Ntp51
Rp52
(dp53
g7
V757
p54
sg9
VSalandit
p55
sg11
VSu,M,
p56
sg13
VBrown grass
p57
sg15
V16
p58
sg17
V19
p59
sg19
V30
p60
sbag1
(g2
g3
Ntp61
Rp62
(dp63
g7
V793
p64
sg9
VNihilego
p65
sg11
VSu,M,
p66
sg13
VBrown grass
p67
sg15
V55
p68
sg17
g68
sg19
V0
p69
sbag1
(g2
g3
Ntp70
Rp71
(dp72
g7
V104
p73
sg9
VCubone
p74
sg11
VUS,UM,
p75
sg13
VBrown grass
p76
sg15
V16
p77
sg17
V19
p78
sg19
V24
p79
sbag1
(g2
g3
Ntp80
Rp81
(dp82
g7
V115
p83
sg9
VKangaskhan
p84
sg11
VUS,UM,
p85
sg13
VBrown grass
p86
sg15
V16
p87
sg17
V19
p88
sg19
V1
p89
sbag1
(g2
g3
Ntp90
Rp91
(dp92
g7
V240
p93
sg9
VMagby
p94
sg11
VUS,UM,
p95
sg13
VBrown grass
p96
sg15
V16
p97
sg17
V19
p98
sg19
V15
p99
sbag1
(g2
g3
Ntp100
Rp101
(dp102
g7
V661
p103
sg9
VFletchling
p104
sg11
VUS,UM,
p105
sg13
VBrown grass
p106
sg15
V16
p107
sg17
V19
p108
sg19
V30
p109
sbag1
(g2
g3
Ntp110
Rp111
(dp112
g7
V757
p113
sg9
VSalandit
p114
sg11
VUS,UM,
p115
sg13
VBrown grass
p116
sg15
V16
p117
sg17
V19
p118
sg19
V30
p119
sba.