(lp0
ccopy_reg
_reconstructor
p1
(c__main__
WildPokemon
p2
c__builtin__
object
p3
Ntp4
Rp5
(dp6
VpDexNo
p7
V524
p8
sVpSpecies
p9
VRoggenrola
p10
sVpGames
p11
VB,W,
p12
sVpArea
p13
VCave
p14
sVpMinLevel
p15
V10
p16
sVpMaxLevel
p17
V13
p18
sVpRate
p19
V50
p20
sbag1
(g2
g3
Ntp21
Rp22
(dp23
g7
V527
p24
sg9
VWoobat
p25
sg11
VB,W,
p26
sg13
VCave
p27
sg15
V10
p28
sg17
V13
p29
sg19
V50
p30
sbag1
(g2
g3
Ntp31
Rp32
(dp33
g7
V529
p34
sg9
VDrilbur
p35
sg11
VB,W,
p36
sg13
VDust
p37
sg15
V10
p38
sg17
V13
p39
sg19
V100
p40
sbag1
(g2
g3
Ntp41
Rp42
(dp43
g7
V550
p44
sg9
VBasculin
p45
sg11
VB,
p46
sg13
VSurf
p47
sg15
V5
p48
sg17
V15
p49
sg19
V100
p50
sbag1
(g2
g3
Ntp51
Rp52
(dp53
g7
V550
p54
sg9
VBasculin
p55
sg11
VW,
p56
sg13
VSurf
p57
sg15
g48
sg17
V15
p58
sg19
V100
p59
sbag1
(g2
g3
Ntp60
Rp61
(dp62
g7
V550
p63
sg9
VBasculin
p64
sg11
g56
sg13
VRippling
p65
sg15
g48
sg17
V20
p66
sg19
V100
p67
sbag1
(g2
g3
Ntp68
Rp69
(dp70
g7
V550
p71
sg9
VBasculin
p72
sg11
g46
sg13
VRippling
p73
sg15
g48
sg17
V20
p74
sg19
V100
p75
sbag1
(g2
g3
Ntp76
Rp77
(dp78
g7
V060
p79
sg9
VPoliwag
p80
sg11
VB,W,
p81
sg13
VFish Super
p82
sg15
V35
p83
sg17
V55
p84
sg19
V60
p85
sbag1
(g2
g3
Ntp86
Rp87
(dp88
g7
V061
p89
sg9
VPoliwhirl
p90
sg11
VB,W,
p91
sg13
VFish Super
p92
sg15
V35
p93
sg17
V55
p94
sg19
V10
p95
sbag1
(g2
g3
Ntp96
Rp97
(dp98
g7
V550
p99
sg9
VBasculin
p100
sg11
g46
sg13
VFish Super
p101
sg15
V35
p102
sg17
V55
p103
sg19
V30
p104
sbag1
(g2
g3
Ntp105
Rp106
(dp107
g7
V550
p108
sg9
VBasculin
p109
sg11
g56
sg13
VFish Super
p110
sg15
V35
p111
sg17
V55
p112
sg19
V30
p113
sbag1
(g2
g3
Ntp114
Rp115
(dp116
g7
V061
p117
sg9
VPoliwhirl
p118
sg11
VB,W,
p119
sg13
VRippling
p120
sg15
V35
p121
sg17
V60
p122
sg19
V65
p123
sbag1
(g2
g3
Ntp124
Rp125
(dp126
g7
V062
p127
sg9
VPoliwrath
p128
sg11
VB,W,
p129
sg13
VRippling
p130
sg15
V35
p131
sg17
V60
p132
sg19
V5
p133
sbag1
(g2
g3
Ntp134
Rp135
(dp136
g7
V550
p137
sg9
VBasculin
p138
sg11
g56
sg13
VRippling
p139
sg15
V35
p140
sg17
V60
p141
sg19
V30
p142
sbag1
(g2
g3
Ntp143
Rp144
(dp145
g7
V550
p146
sg9
VBasculin
p147
sg11
g46
sg13
VRippling
p148
sg15
V35
p149
sg17
V60
p150
sg19
V30
p151
sbag1
(g2
g3
Ntp152
Rp153
(dp154
g7
V525
p155
sg9
VBoldore
p156
sg11
VB2,W2,
p157
sg13
VCave
p158
sg15
V55
p159
sg17
V58
p160
sg19
V50
p161
sbag1
(g2
g3
Ntp162
Rp163
(dp164
g7
V527
p165
sg9
VWoobat
p166
sg11
VB2,W2,
p167
sg13
VCave
p168
sg15
V55
p169
sg17
V58
p170
sg19
V50
p171
sbag1
(g2
g3
Ntp172
Rp173
(dp174
g7
V530
p175
sg9
VExcadrill
p176
sg11
VB2,W2,
p177
sg13
VDust
p178
sg15
V55
p179
sg17
V58
p180
sg19
V100
p181
sbag1
(g2
g3
Ntp182
Rp183
(dp184
g7
V550
p185
sg9
VBasculin
p186
sg11
VB2,
p187
sg13
VSurf
p188
sg15
V45
p189
sg17
V60
p190
sg19
V100
p191
sbag1
(g2
g3
Ntp192
Rp193
(dp194
g7
V550
p195
sg9
VBasculin
p196
sg11
VW2,
p197
sg13
VSurf
p198
sg15
V45
p199
sg17
V60
p200
sg19
V100
p201
sbag1
(g2
g3
Ntp202
Rp203
(dp204
g7
V550
p205
sg9
VBasculin
p206
sg11
g187
sg13
VSurf
p207
sg15
V45
p208
sg17
V60
p209
sg19
V100
p210
sbag1
(g2
g3
Ntp211
Rp212
(dp213
g7
V550
p214
sg9
VBasculin
p215
sg11
g197
sg13
VSurf
p216
sg15
V45
p217
sg17
V60
p218
sg19
V100
p219
sbag1
(g2
g3
Ntp220
Rp221
(dp222
g7
V060
p223
sg9
VPoliwag
p224
sg11
VB2,W2,
p225
sg13
VFish Super
p226
sg15
V50
p227
sg17
V70
p228
sg19
V70
p229
sbag1
(g2
g3
Ntp230
Rp231
(dp232
g7
V550
p233
sg9
VBasculin
p234
sg11
g187
sg13
VFish Super
p235
sg15
V50
p236
sg17
V60
p237
sg19
V30
p238
sbag1
(g2
g3
Ntp239
Rp240
(dp241
g7
V550
p242
sg9
VBasculin
p243
sg11
g197
sg13
VFish Super
p244
sg15
V50
p245
sg17
V60
p246
sg19
V30
p247
sbag1
(g2
g3
Ntp248
Rp249
(dp250
g7
V061
p251
sg9
VPoliwhirl
p252
sg11
VB2,W2,
p253
sg13
VRippling
p254
sg15
V50
p255
sg17
V60
p256
sg19
V65
p257
sbag1
(g2
g3
Ntp258
Rp259
(dp260
g7
V062
p261
sg9
VPoliwrath
p262
sg11
VB2,W2,
p263
sg13
VRippling
p264
sg15
V60
p265
sg17
g265
sg19
V5
p266
sbag1
(g2
g3
Ntp267
Rp268
(dp269
g7
V550
p270
sg9
VBasculin
p271
sg11
g187
sg13
VRippling
p272
sg15
V50
p273
sg17
V60
p274
sg19
V30
p275
sbag1
(g2
g3
Ntp276
Rp277
(dp278
g7
V550
p279
sg9
VBasculin
p280
sg11
g197
sg13
VRippling
p281
sg15
V50
p282
sg17
V60
p283
sg19
V30
p284
sbag1
(g2
g3
Ntp285
Rp286
(dp287
g7
V527
p288
sg9
VWoobat
p289
sg11
VB2,W2,
p290
sg13
VSpecial
p291
sg15
V55
p292
sg17
g292
sg19
V0
p293
sba.