(lp0
ccopy_reg
_reconstructor
p1
(c__main__
WildPokemon
p2
c__builtin__
object
p3
Ntp4
Rp5
(dp6
VpDexNo
p7
V037
p8
sVpSpecies
p9
VVulpix
p10
sVpGames
p11
VSw,
p12
sVpArea
p13
VGrass
p14
sVpMinLevel
p15
V7
p16
sVpMaxLevel
p17
V11
p18
sVpRate
p19
V0
p20
sbag1
(g2
g3
Ntp21
Rp22
(dp23
g7
V058
p24
sg9
VGrowlithe
p25
sg11
VSh,
p26
sg13
VGrass
p27
sg15
g16
sg17
V11
p28
sg19
g20
sbag1
(g2
g3
Ntp29
Rp30
(dp31
g7
V098
p32
sg9
VKrabby
p33
sg11
VSw,Sh,
p34
sg13
VGrass
p35
sg15
g16
sg17
V11
p36
sg19
g20
sbag1
(g2
g3
Ntp37
Rp38
(dp39
g7
V177
p40
sg9
VNatu
p41
sg11
VSw,Sh,
p42
sg13
VGrass
p43
sg15
g16
sg17
V11
p44
sg19
g20
sbag1
(g2
g3
Ntp45
Rp46
(dp47
g7
V194
p48
sg9
VWooper
p49
sg11
VSw,Sh,
p50
sg13
VGrass
p51
sg15
g16
sg17
V11
p52
sg19
g20
sbag1
(g2
g3
Ntp53
Rp54
(dp55
g7
V225
p56
sg9
VDelibird
p57
sg11
VSw,Sh,
p58
sg13
VGrass
p59
sg15
g16
sg17
V11
p60
sg19
g20
sbag1
(g2
g3
Ntp61
Rp62
(dp63
g7
V236
p64
sg9
VTyrogue
p65
sg11
VSw,Sh,
p66
sg13
VGrass
p67
sg15
g16
sg17
V11
p68
sg19
g20
sbag1
(g2
g3
Ntp69
Rp70
(dp71
g7
V278
p72
sg9
VWingull
p73
sg11
VSw,Sh,
p74
sg13
VGrass
p75
sg15
g16
sg17
V11
p76
sg19
g20
sbag1
(g2
g3
Ntp77
Rp78
(dp79
g7
V280
p80
sg9
VRalts
p81
sg11
VSw,Sh,
p82
sg13
VGrass
p83
sg15
g16
sg17
V11
p84
sg19
g20
sbag1
(g2
g3
Ntp85
Rp86
(dp87
g7
V290
p88
sg9
VNincada
p89
sg11
VSw,Sh,
p90
sg13
VGrass
p91
sg15
g16
sg17
V11
p92
sg19
g20
sbag1
(g2
g3
Ntp93
Rp94
(dp95
g7
V309
p96
sg9
VElectrike
p97
sg11
VSw,Sh,
p98
sg13
VGrass
p99
sg15
g16
sg17
V11
p100
sg19
g20
sbag1
(g2
g3
Ntp101
Rp102
(dp103
g7
V343
p104
sg9
VBaltoy
p105
sg11
VSw,Sh,
p106
sg13
VGrass
p107
sg15
g16
sg17
V11
p108
sg19
g20
sbag1
(g2
g3
Ntp109
Rp110
(dp111
g7
V361
p112
sg9
VSnorunt
p113
sg11
VSw,Sh,
p114
sg13
VGrass
p115
sg15
g16
sg17
V11
p116
sg19
g20
sbag1
(g2
g3
Ntp117
Rp118
(dp119
g7
V535
p120
sg9
VTympole
p121
sg11
VSw,Sh,
p122
sg13
VGrass
p123
sg15
g16
sg17
V11
p124
sg19
g20
sbag1
(g2
g3
Ntp125
Rp126
(dp127
g7
V582
p128
sg9
VVanillite
p129
sg11
VSw,Sh,
p130
sg13
VGrass
p131
sg15
g16
sg17
V11
p132
sg19
g20
sbag1
(g2
g3
Ntp133
Rp134
(dp135
g7
V595
p136
sg9
VJoltik
p137
sg11
VSw,Sh,
p138
sg13
VGrass
p139
sg15
g16
sg17
V11
p140
sg19
g20
sbag1
(g2
g3
Ntp141
Rp142
(dp143
g7
V599
p144
sg9
VKlink
p145
sg11
VSw,Sh,
p146
sg13
VGrass
p147
sg15
g16
sg17
V11
p148
sg19
g20
sbag1
(g2
g3
Ntp149
Rp150
(dp151
g7
V659
p152
sg9
VBunnelby
p153
sg11
VSw,Sh,
p154
sg13
VGrass
p155
sg15
g16
sg17
V11
p156
sg19
g20
sbag1
(g2
g3
Ntp157
Rp158
(dp159
g7
V674
p160
sg9
VPancham
p161
sg11
VSw,Sh,
p162
sg13
VGrass
p163
sg15
g16
sg17
V11
p164
sg19
g20
sbag1
(g2
g3
Ntp165
Rp166
(dp167
g7
V749
p168
sg9
VMudbray
p169
sg11
VSw,Sh,
p170
sg13
VGrass
p171
sg15
g16
sg17
V11
p172
sg19
g20
sbag1
(g2
g3
Ntp173
Rp174
(dp175
g7
V761
p176
sg9
VBounsweet
p177
sg11
VSw,Sh,
p178
sg13
VGrass
p179
sg15
g16
sg17
V11
p180
sg19
g20
sbag1
(g2
g3
Ntp181
Rp182
(dp183
g7
V118
p184
sg9
VGoldeen
p185
sg11
VSw,Sh,
p186
sg13
VFishing
p187
sg15
g16
sg17
V11
p188
sg19
V35
p189
sbag1
(g2
g3
Ntp190
Rp191
(dp192
g7
V129
p193
sg9
VMagikarp
p194
sg11
VSw,Sh,
p195
sg13
VFishing
p196
sg15
g16
sg17
V11
p197
sg19
V50
p198
sbag1
(g2
g3
Ntp199
Rp200
(dp201
g7
V223
p202
sg9
VRemoraid
p203
sg11
VSw,Sh,
p204
sg13
VFishing
p205
sg15
g16
sg17
V11
p206
sg19
V10
p207
sbag1
(g2
g3
Ntp208
Rp209
(dp210
g7
V746
p211
sg9
VWishiwashi
p212
sg11
VSw,Sh,
p213
sg13
VFishing
p214
sg15
g16
sg17
V11
p215
sg19
V5
p216
sbag1
(g2
g3
Ntp217
Rp218
(dp219
g7
V037
p220
sg9
VVulpix
p221
sg11
g12
sg13
VGrass
p222
sg15
V8
p223
sg17
V14
p224
sg19
g20
sbag1
(g2
g3
Ntp225
Rp226
(dp227
g7
V058
p228
sg9
VGrowlithe
p229
sg11
g26
sg13
VGrass
p230
sg15
g223
sg17
V14
p231
sg19
g20
sbag1
(g2
g3
Ntp232
Rp233
(dp234
g7
V098
p235
sg9
VKrabby
p236
sg11
VSw,Sh,
p237
sg13
VGrass
p238
sg15
g223
sg17
V14
p239
sg19
g20
sbag1
(g2
g3
Ntp240
Rp241
(dp242
g7
V177
p243
sg9
VNatu
p244
sg11
VSw,Sh,
p245
sg13
VGrass
p246
sg15
g223
sg17
V14
p247
sg19
g20
sbag1
(g2
g3
Ntp248
Rp249
(dp250
g7
V194
p251
sg9
VWooper
p252
sg11
VSw,Sh,
p253
sg13
VGrass
p254
sg15
g223
sg17
V14
p255
sg19
g20
sbag1
(g2
g3
Ntp256
Rp257
(dp258
g7
V270
p259
sg9
VLotad
p260
sg11
g26
sg13
VGrass
p261
sg15
g223
sg17
V14
p262
sg19
g20
sbag1
(g2
g3
Ntp263
Rp264
(dp265
g7
V273
p266
sg9
VSeedot
p267
sg11
g12
sg13
VGrass
p268
sg15
g223
sg17
V14
p269
sg19
g20
sbag1
(g2
g3
Ntp270
Rp271
(dp272
g7
V278
p273
sg9
VWingull
p274
sg11
VSw,Sh,
p275
sg13
VGrass
p276
sg15
g223
sg17
V14
p277
sg19
g20
sbag1
(g2
g3
Ntp278
Rp279
(dp280
g7
V309
p281
sg9
VElectrike
p282
sg11
VSw,Sh,
p283
sg13
VGrass
p284
sg15
g223
sg17
V14
p285
sg19
g20
sbag1
(g2
g3
Ntp286
Rp287
(dp288
g7
V361
p289
sg9
VSnorunt
p290
sg11
VSw,Sh,
p291
sg13
VGrass
p292
sg15
g223
sg17
V14
p293
sg19
g20
sbag1
(g2
g3
Ntp294
Rp295
(dp296
g7
V406
p297
sg9
VBudew
p298
sg11
VSw,Sh,
p299
sg13
VGrass
p300
sg15
g223
sg17
V14
p301
sg19
g20
sbag1
(g2
g3
Ntp302
Rp303
(dp304
g7
V509
p305
sg9
VPurrloin
p306
sg11
VSw,Sh,
p307
sg13
VGrass
p308
sg15
g223
sg17
V14
p309
sg19
g20
sbag1
(g2
g3
Ntp310
Rp311
(dp312
g7
V535
p313
sg9
VTympole
p314
sg11
VSw,Sh,
p315
sg13
VGrass
p316
sg15
g223
sg17
V14
p317
sg19
g20
sbag1
(g2
g3
Ntp318
Rp319
(dp320
g7
V557
p321
sg9
VDwebble
p322
sg11
VSw,Sh,
p323
sg13
VGrass
p324
sg15
g223
sg17
V14
p325
sg19
g20
sbag1
(g2
g3
Ntp326
Rp327
(dp328
g7
V582
p329
sg9
VVanillite
p330
sg11
VSw,Sh,
p331
sg13
VGrass
p332
sg15
g223
sg17
V14
p333
sg19
g20
sbag1
(g2
g3
Ntp334
Rp335
(dp336
g7
V599
p337
sg9
VKlink
p338
sg11
VSw,Sh,
p339
sg13
VGrass
p340
sg15
g223
sg17
V14
p341
sg19
g20
sbag1
(g2
g3
Ntp342
Rp343
(dp344
g7
V659
p345
sg9
VBunnelby
p346
sg11
VSw,Sh,
p347
sg13
VGrass
p348
sg15
g223
sg17
V14
p349
sg19
g20
sbag1
(g2
g3
Ntp350
Rp351
(dp352
g7
V090
p353
sg9
VShellder
p354
sg11
VSw,Sh,
p355
sg13
VSurf
p356
sg15
V38
p357
sg17
V40
p358
sg19
g20
sbag1
(g2
g3
Ntp359
Rp360
(dp361
g7
V118
p362
sg9
VGoldeen
p363
sg11
VSw,Sh,
p364
sg13
VSurf
p365
sg15
V38
p366
sg17
V40
p367
sg19
g20
sbag1
(g2
g3
Ntp368
Rp369
(dp370
g7
V129
p371
sg9
VMagikarp
p372
sg11
VSw,Sh,
p373
sg13
VSurf
p374
sg15
V38
p375
sg17
V40
p376
sg19
g20
sbag1
(g2
g3
Ntp377
Rp378
(dp379
g7
V170
p380
sg9
VChinchou
p381
sg11
VSw,Sh,
p382
sg13
VSurf
p383
sg15
V38
p384
sg17
V40
p385
sg19
g20
sbag1
(g2
g3
Ntp386
Rp387
(dp388
g7
V223
p389
sg9
VRemoraid
p390
sg11
VSw,Sh,
p391
sg13
VSurf
p392
sg15
V38
p393
sg17
V40
p394
sg19
g20
sbag1
(g2
g3
Ntp395
Rp396
(dp397
g7
V582
p398
sg9
VVanillite
p399
sg11
VSw,Sh,
p400
sg13
VSurf
p401
sg15
V38
p402
sg17
V40
p403
sg19
g20
sbag1
(g2
g3
Ntp404
Rp405
(dp406
g7
V592
p407
sg9
VFrillish
p408
sg11
VSw,Sh,
p409
sg13
VSurf
p410
sg15
V38
p411
sg17
V40
p412
sg19
g20
sbag1
(g2
g3
Ntp413
Rp414
(dp415
g7
V099
p416
sg9
VKingler
p417
sg11
VSw,Sh,
p418
sg13
VWanderer
p419
sg15
V28
p420
sg17
g420
sg19
g20
sbag1
(g2
g3
Ntp421
Rp422
(dp423
g7
V279
p424
sg9
VPelipper
p425
sg11
VSw,Sh,
p426
sg13
VWanderer
p427
sg15
V28
p428
sg17
g428
sg19
g20
sbag1
(g2
g3
Ntp429
Rp430
(dp431
g7
V536
p432
sg9
VPalpitoad
p433
sg11
VSw,Sh,
p434
sg13
VWanderer
p435
sg15
V28
p436
sg17
g436
sg19
g20
sbag1
(g2
g3
Ntp437
Rp438
(dp439
g7
V660
p440
sg9
VDiggersby
p441
sg11
VSw,Sh,
p442
sg13
VWanderer
p443
sg15
V28
p444
sg17
g444
sg19
g20
sbag1
(g2
g3
Ntp445
Rp446
(dp447
g7
V195
p448
sg9
VQuagsire
p449
sg11
VSw,Sh,
p450
sg13
VWanderer
p451
sg15
V15
p452
sg17
g452
sg19
g20
sbag1
(g2
g3
Ntp453
Rp454
(dp455
g7
V660
p456
sg9
VDiggersby
p457
sg11
VSw,Sh,
p458
sg13
VWanderer
p459
sg15
V15
p460
sg17
g460
sg19
g20
sbag1
(g2
g3
Ntp461
Rp462
(dp463
g7
V834
p464
sg9
VDrednaw
p465
sg11
VSw,Sh,
p466
sg13
VWanderer
p467
sg15
V65
p468
sg17
g468
sg19
V0
p469
sbag1
(g2
g3
Ntp470
Rp471
(dp472
g7
V119
p473
sg9
VSeaking
p474
sg11
VSw,Sh,
p475
sg13
VWanderer
p476
sg15
V46
p477
sg17
g477
sg19
g20
sbag1
(g2
g3
Ntp478
Rp479
(dp480
g7
V279
p481
sg9
VPelipper
p482
sg11
VSw,Sh,
p483
sg13
VWanderer
p484
sg15
V46
p485
sg17
g485
sg19
g20
sbag1
(g2
g3
Ntp486
Rp487
(dp488
g7
V584
p489
sg9
VVanilluxe
p490
sg11
VSw,Sh,
p491
sg13
VWanderer
p492
sg15
V47
p493
sg17
g493
sg19
g20
sbag1
(g2
g3
Ntp494
Rp495
(dp496
g7
V593
p497
sg9
VJellicent
p498
sg11
VSw,Sh,
p499
sg13
VWanderer
p500
sg15
V46
p501
sg17
g501
sg19
g20
sbag1
(g2
g3
Ntp502
Rp503
(dp504
g7
V130
p505
sg9
VGyarados
p506
sg11
VSw,Sh,
p507
sg13
VWanderer
p508
sg15
V56
p509
sg17
g509
sg19
g20
sbag1
(g2
g3
Ntp510
Rp511
(dp512
g7
V853
p513
sg9
VGrapploct
p514
sg11
VSw,Sh,
p515
sg13
VWanderer
p516
sg15
V56
p517
sg17
g517
sg19
g20
sbag1
(g2
g3
Ntp518
Rp519
(dp520
g7
V091
p521
sg9
VCloyster
p522
sg11
VSw,Sh,
p523
sg13
VWanderer
p524
sg15
V46
p525
sg17
g525
sg19
g20
sbag1
(g2
g3
Ntp526
Rp527
(dp528
g7
V119
p529
sg9
VSeaking
p530
sg11
VSw,Sh,
p531
sg13
VWanderer
p532
sg15
V46
p533
sg17
g533
sg19
g20
sbag1
(g2
g3
Ntp534
Rp535
(dp536
g7
V171
p537
sg9
VLanturn
p538
sg11
VSw,Sh,
p539
sg13
VWanderer
p540
sg15
V46
p541
sg17
g541
sg19
g20
sbag1
(g2
g3
Ntp542
Rp543
(dp544
g7
V279
p545
sg9
VPelipper
p546
sg11
VSw,Sh,
p547
sg13
VWanderer
p548
sg15
V46
p549
sg17
g549
sg19
g20
sbag1
(g2
g3
Ntp550
Rp551
(dp552
g7
V584
p553
sg9
VVanilluxe
p554
sg11
VSw,Sh,
p555
sg13
VWanderer
p556
sg15
V47
p557
sg17
g557
sg19
g20
sbag1
(g2
g3
Ntp558
Rp559
(dp560
g7
V593
p561
sg9
VJellicent
p562
sg11
VSw,Sh,
p563
sg13
VWanderer
p564
sg15
V46
p565
sg17
g565
sg19
g20
sbag1
(g2
g3
Ntp566
Rp567
(dp568
g7
V130
p569
sg9
VGyarados
p570
sg11
VSw,Sh,
p571
sg13
VWanderer
p572
sg15
V56
p573
sg17
g573
sg19
V0
p574
sbag1
(g2
g3
Ntp575
Rp576
(dp577
g7
V130
p578
sg9
VGyarados
p579
sg11
VSw,Sh,
p580
sg13
VWanderer
p581
sg15
V56
p582
sg17
g582
sg19
g20
sbag1
(g2
g3
Ntp583
Rp584
(dp585
g7
V131
p586
sg9
VLapras
p587
sg11
VSw,Sh,
p588
sg13
VWanderer
p589
sg15
V56
p590
sg17
g590
sg19
g20
sbag1
(g2
g3
Ntp591
Rp592
(dp593
g7
V119
p594
sg9
VSeaking
p595
sg11
VSw,Sh,
p596
sg13
VWanderer
p597
sg15
V46
p598
sg17
g598
sg19
g20
sbag1
(g2
g3
Ntp599
Rp600
(dp601
g7
V171
p602
sg9
VLanturn
p603
sg11
VSw,Sh,
p604
sg13
VWanderer
p605
sg15
V46
p606
sg17
g606
sg19
g20
sbag1
(g2
g3
Ntp607
Rp608
(dp609
g7
V279
p610
sg9
VPelipper
p611
sg11
VSw,Sh,
p612
sg13
VWanderer
p613
sg15
V46
p614
sg17
g614
sg19
g20
sbag1
(g2
g3
Ntp615
Rp616
(dp617
g7
V584
p618
sg9
VVanilluxe
p619
sg11
VSw,Sh,
p620
sg13
VWanderer
p621
sg15
V47
p622
sg17
g622
sg19
g20
sbag1
(g2
g3
Ntp623
Rp624
(dp625
g7
V593
p626
sg9
VJellicent
p627
sg11
VSw,Sh,
p628
sg13
VWanderer
p629
sg15
V46
p630
sg17
g630
sg19
g20
sba.