(lp0
ccopy_reg
_reconstructor
p1
(c__main__
WildPokemon
p2
c__builtin__
object
p3
Ntp4
Rp5
(dp6
VpDexNo
p7
V041
p8
sVpSpecies
p9
VZubat
p10
sVpGames
p11
VG,S,C,
p12
sVpArea
p13
VCave
p14
sVpMinLevel
p15
V23
p16
sVpMaxLevel
p17
g16
sVpRate
p18
V30
p19
sbag1
(g2
g3
Ntp20
Rp21
(dp22
g7
V042
p23
sg9
VGolbat
p24
sg11
VG,S,
p25
sg13
VCave
p26
sg15
V23
p27
sg17
g27
sg18
V5
p28
sbag1
(g2
g3
Ntp29
Rp30
(dp31
g7
V042
p32
sg9
VGolbat
p33
sg11
VC,
p34
sg13
VCave
p35
sg15
V25
p36
sg17
g36
sg18
V5
p37
sbag1
(g2
g3
Ntp38
Rp39
(dp40
g7
V042
p41
sg9
VGolbat
p42
sg11
g34
sg13
VCave
p43
sg15
V24
p44
sg17
V25
p45
sg18
V10
p46
sbag1
(g2
g3
Ntp47
Rp48
(dp49
g7
V086
p50
sg9
VSeel
p51
sg11
VG,S,
p52
sg13
VCave
p53
sg15
V22
p54
sg17
V24
p55
sg18
V15
p56
sbag1
(g2
g3
Ntp57
Rp58
(dp59
g7
V086
p60
sg9
VSeel
p61
sg11
g34
sg13
VCave
p62
sg15
V22
p63
sg17
V24
p64
sg18
V25
p65
sbag1
(g2
g3
Ntp66
Rp67
(dp68
g7
V098
p69
sg9
VKrabby
p70
sg11
VG,S,
p71
sg13
VCave
p72
sg15
V22
p73
sg17
V24
p74
sg18
V50
p75
sbag1
(g2
g3
Ntp76
Rp77
(dp78
g7
V098
p79
sg9
VKrabby
p80
sg11
g34
sg13
VCave
p81
sg15
V22
p82
sg17
V24
p83
sg18
V60
p84
sbag1
(g2
g3
Ntp85
Rp86
(dp87
g7
V072
p88
sg9
VTentacool
p89
sg11
VG,S,C,
p90
sg13
VSurf
p91
sg15
V20
p92
sg17
V24
p93
sg18
V60
p94
sbag1
(g2
g3
Ntp95
Rp96
(dp97
g7
V073
p98
sg9
VTentacruel
p99
sg11
VG,S,C,
p100
sg13
VSurf
p101
sg15
V20
p102
sg17
V24
p103
sg18
V10
p104
sbag1
(g2
g3
Ntp105
Rp106
(dp107
g7
V116
p108
sg9
VHorsea
p109
sg11
VG,S,C,
p110
sg13
VSurf
p111
sg15
V15
p112
sg17
V19
p113
sg18
V30
p114
sbag1
(g2
g3
Ntp115
Rp116
(dp117
g7
V098
p118
sg9
VKrabby
p119
sg11
VG,S,C,
p120
sg13
VFish Old
p121
sg15
V10
p122
sg17
g122
sg18
V15
p123
sbag1
(g2
g3
Ntp124
Rp125
(dp126
g7
V129
p127
sg9
VMagikarp
p128
sg11
VG,S,C,
p129
sg13
VFish Old
p130
sg15
V10
p131
sg17
g131
sg18
V85
p132
sbag1
(g2
g3
Ntp133
Rp134
(dp135
g7
V098
p136
sg9
VKrabby
p137
sg11
VG,S,C,
p138
sg13
VFish Good
p139
sg15
V20
p140
sg17
g140
sg18
V55
p141
sbag1
(g2
g3
Ntp142
Rp143
(dp144
g7
V116
p145
sg9
VHorsea
p146
sg11
VG,S,C,
p147
sg13
VFish Good
p148
sg15
V20
p149
sg17
g149
sg18
V10
p150
sbag1
(g2
g3
Ntp151
Rp152
(dp153
g7
V129
p154
sg9
VMagikarp
p155
sg11
VG,S,C,
p156
sg13
VFish Good
p157
sg15
V20
p158
sg17
g158
sg18
V35
p159
sbag1
(g2
g3
Ntp160
Rp161
(dp162
g7
V098
p163
sg9
VKrabby
p164
sg11
VG,S,C,
p165
sg13
VFish Super
p166
sg15
V40
p167
sg17
g167
sg18
V40
p168
sbag1
(g2
g3
Ntp169
Rp170
(dp171
g7
V099
p172
sg9
VKingler
p173
sg11
VG,S,C,
p174
sg13
VFish Super
p175
sg15
V40
p176
sg17
g176
sg18
V20
p177
sbag1
(g2
g3
Ntp178
Rp179
(dp180
g7
V116
p181
sg9
VHorsea
p182
sg11
VG,S,C,
p183
sg13
VFish Super
p184
sg15
V40
p185
sg17
g185
sg18
V30
p186
sbag1
(g2
g3
Ntp187
Rp188
(dp189
g7
V117
p190
sg9
VSeadra
p191
sg11
VG,S,C,
p192
sg13
VFish Super
p193
sg15
V40
p194
sg17
g194
sg18
V10
p195
sbag1
(g2
g3
Ntp196
Rp197
(dp198
g7
V041
p199
sg9
VZubat
p200
sg11
VG,S,C,
p201
sg13
VCave
p202
sg15
V24
p203
sg17
g203
sg18
V30
p204
sbag1
(g2
g3
Ntp205
Rp206
(dp207
g7
V042
p208
sg9
VGolbat
p209
sg11
VG,S,
p210
sg13
VCave
p211
sg15
V24
p212
sg17
g212
sg18
V5
p213
sbag1
(g2
g3
Ntp214
Rp215
(dp216
g7
V042
p217
sg9
VGolbat
p218
sg11
g34
sg13
VCave
p219
sg15
V26
p220
sg17
g220
sg18
V5
p221
sbag1
(g2
g3
Ntp222
Rp223
(dp224
g7
V042
p225
sg9
VGolbat
p226
sg11
g34
sg13
VCave
p227
sg15
V25
p228
sg17
V26
p229
sg18
V10
p230
sbag1
(g2
g3
Ntp231
Rp232
(dp233
g7
V086
p234
sg9
VSeel
p235
sg11
VG,S,
p236
sg13
VCave
p237
sg15
V23
p238
sg17
V25
p239
sg18
V15
p240
sbag1
(g2
g3
Ntp241
Rp242
(dp243
g7
V086
p244
sg9
VSeel
p245
sg11
g34
sg13
VCave
p246
sg15
V23
p247
sg17
V25
p248
sg18
V25
p249
sbag1
(g2
g3
Ntp250
Rp251
(dp252
g7
V098
p253
sg9
VKrabby
p254
sg11
VG,S,
p255
sg13
VCave
p256
sg15
V23
p257
sg17
V25
p258
sg18
V50
p259
sbag1
(g2
g3
Ntp260
Rp261
(dp262
g7
V098
p263
sg9
VKrabby
p264
sg11
g34
sg13
VCave
p265
sg15
V23
p266
sg17
V25
p267
sg18
V60
p268
sbag1
(g2
g3
Ntp269
Rp270
(dp271
g7
V041
p272
sg9
VZubat
p273
sg11
VG,S,
p274
sg13
VCave
p275
sg15
V24
p276
sg17
g276
sg18
V30
p277
sbag1
(g2
g3
Ntp278
Rp279
(dp280
g7
V041
p281
sg9
VZubat
p282
sg11
g34
sg13
VCave
p283
sg15
V25
p284
sg17
g284
sg18
V30
p285
sbag1
(g2
g3
Ntp286
Rp287
(dp288
g7
V042
p289
sg9
VGolbat
p290
sg11
VG,S,
p291
sg13
VCave
p292
sg15
V24
p293
sg17
g293
sg18
V5
p294
sbag1
(g2
g3
Ntp295
Rp296
(dp297
g7
V042
p298
sg9
VGolbat
p299
sg11
g34
sg13
VCave
p300
sg15
V27
p301
sg17
g301
sg18
V5
p302
sbag1
(g2
g3
Ntp303
Rp304
(dp305
g7
V042
p306
sg9
VGolbat
p307
sg11
g34
sg13
VCave
p308
sg15
V26
p309
sg17
V27
p310
sg18
V10
p311
sbag1
(g2
g3
Ntp312
Rp313
(dp314
g7
V086
p315
sg9
VSeel
p316
sg11
VG,S,
p317
sg13
VCave
p318
sg15
V23
p319
sg17
V25
p320
sg18
V15
p321
sbag1
(g2
g3
Ntp322
Rp323
(dp324
g7
V086
p325
sg9
VSeel
p326
sg11
g34
sg13
VCave
p327
sg15
V24
p328
sg17
V26
p329
sg18
V25
p330
sbag1
(g2
g3
Ntp331
Rp332
(dp333
g7
V098
p334
sg9
VKrabby
p335
sg11
VG,S,
p336
sg13
VCave
p337
sg15
V23
p338
sg17
V25
p339
sg18
V50
p340
sbag1
(g2
g3
Ntp341
Rp342
(dp343
g7
V098
p344
sg9
VKrabby
p345
sg11
g34
sg13
VCave
p346
sg15
V24
p347
sg17
V26
p348
sg18
V60
p349
sbag1
(g2
g3
Ntp350
Rp351
(dp352
g7
V072
p353
sg9
VTentacool
p354
sg11
VG,S,C,
p355
sg13
VSurf
p356
sg15
V20
p357
sg17
V24
p358
sg18
V10
p359
sbag1
(g2
g3
Ntp360
Rp361
(dp362
g7
V116
p363
sg9
VHorsea
p364
sg11
VG,S,C,
p365
sg13
VSurf
p366
sg15
V15
p367
sg17
V24
p368
sg18
V90
p369
sbag1
(g2
g3
Ntp370
Rp371
(dp372
g7
V098
p373
sg9
VKrabby
p374
sg11
VG,S,C,
p375
sg13
VFish Old
p376
sg15
V10
p377
sg17
g377
sg18
V15
p378
sbag1
(g2
g3
Ntp379
Rp380
(dp381
g7
V129
p382
sg9
VMagikarp
p383
sg11
VG,S,C,
p384
sg13
VFish Old
p385
sg15
V10
p386
sg17
g386
sg18
V85
p387
sbag1
(g2
g3
Ntp388
Rp389
(dp390
g7
V098
p391
sg9
VKrabby
p392
sg11
VG,S,C,
p393
sg13
VFish Good
p394
sg15
V20
p395
sg17
g395
sg18
V55
p396
sbag1
(g2
g3
Ntp397
Rp398
(dp399
g7
V116
p400
sg9
VHorsea
p401
sg11
VG,S,C,
p402
sg13
VFish Good
p403
sg15
V20
p404
sg17
g404
sg18
V10
p405
sbag1
(g2
g3
Ntp406
Rp407
(dp408
g7
V129
p409
sg9
VMagikarp
p410
sg11
VG,S,C,
p411
sg13
VFish Good
p412
sg15
V20
p413
sg17
g413
sg18
V35
p414
sbag1
(g2
g3
Ntp415
Rp416
(dp417
g7
V098
p418
sg9
VKrabby
p419
sg11
VG,S,C,
p420
sg13
VFish Super
p421
sg15
V40
p422
sg17
g422
sg18
V40
p423
sbag1
(g2
g3
Ntp424
Rp425
(dp426
g7
V099
p427
sg9
VKingler
p428
sg11
VG,S,C,
p429
sg13
VFish Super
p430
sg15
V40
p431
sg17
g431
sg18
V20
p432
sbag1
(g2
g3
Ntp433
Rp434
(dp435
g7
V116
p436
sg9
VHorsea
p437
sg11
VG,S,C,
p438
sg13
VFish Super
p439
sg15
V40
p440
sg17
g440
sg18
V30
p441
sbag1
(g2
g3
Ntp442
Rp443
(dp444
g7
V117
p445
sg9
VSeadra
p446
sg11
VG,S,C,
p447
sg13
VFish Super
p448
sg15
V40
p449
sg17
g449
sg18
V10
p450
sbag1
(g2
g3
Ntp451
Rp452
(dp453
g7
V041
p454
sg9
VZubat
p455
sg11
VG,S,
p456
sg13
VCave
p457
sg15
V25
p458
sg17
g458
sg18
V30
p459
sbag1
(g2
g3
Ntp460
Rp461
(dp462
g7
V041
p463
sg9
VZubat
p464
sg11
g34
sg13
VCave
p465
sg15
V26
p466
sg17
g466
sg18
V30
p467
sbag1
(g2
g3
Ntp468
Rp469
(dp470
g7
V042
p471
sg9
VGolbat
p472
sg11
VG,S,
p473
sg13
VCave
p474
sg15
V25
p475
sg17
g475
sg18
V5
p476
sbag1
(g2
g3
Ntp477
Rp478
(dp479
g7
V042
p480
sg9
VGolbat
p481
sg11
g34
sg13
VCave
p482
sg15
V28
p483
sg17
g483
sg18
V5
p484
sbag1
(g2
g3
Ntp485
Rp486
(dp487
g7
V042
p488
sg9
VGolbat
p489
sg11
g34
sg13
VCave
p490
sg15
V27
p491
sg17
V28
p492
sg18
V10
p493
sbag1
(g2
g3
Ntp494
Rp495
(dp496
g7
V086
p497
sg9
VSeel
p498
sg11
VG,S,
p499
sg13
VCave
p500
sg15
V24
p501
sg17
V26
p502
sg18
V15
p503
sbag1
(g2
g3
Ntp504
Rp505
(dp506
g7
V086
p507
sg9
VSeel
p508
sg11
g34
sg13
VCave
p509
sg15
V25
p510
sg17
V27
p511
sg18
V25
p512
sbag1
(g2
g3
Ntp513
Rp514
(dp515
g7
V098
p516
sg9
VKrabby
p517
sg11
VG,S,
p518
sg13
VCave
p519
sg15
V24
p520
sg17
V26
p521
sg18
V50
p522
sbag1
(g2
g3
Ntp523
Rp524
(dp525
g7
V098
p526
sg9
VKrabby
p527
sg11
g34
sg13
VCave
p528
sg15
V25
p529
sg17
V27
p530
sg18
V60
p531
sbag1
(g2
g3
Ntp532
Rp533
(dp534
g7
V073
p535
sg9
VTentacruel
p536
sg11
VG,S,C,
p537
sg13
VSurf
p538
sg15
V20
p539
sg17
V28
p540
sg18
V30
p541
sbag1
(g2
g3
Ntp542
Rp543
(dp544
g7
V116
p545
sg9
VHorsea
p546
sg11
VG,S,C,
p547
sg13
VSurf
p548
sg15
V15
p549
sg17
V24
p550
sg18
V60
p551
sbag1
(g2
g3
Ntp552
Rp553
(dp554
g7
V117
p555
sg9
VSeadra
p556
sg11
VG,S,C,
p557
sg13
VSurf
p558
sg15
V20
p559
sg17
V24
p560
sg18
V10
p561
sbag1
(g2
g3
Ntp562
Rp563
(dp564
g7
V098
p565
sg9
VKrabby
p566
sg11
VG,S,C,
p567
sg13
VFish Old
p568
sg15
V10
p569
sg17
g569
sg18
V15
p570
sbag1
(g2
g3
Ntp571
Rp572
(dp573
g7
V129
p574
sg9
VMagikarp
p575
sg11
VG,S,C,
p576
sg13
VFish Old
p577
sg15
V10
p578
sg17
g578
sg18
V85
p579
sbag1
(g2
g3
Ntp580
Rp581
(dp582
g7
V098
p583
sg9
VKrabby
p584
sg11
VG,S,C,
p585
sg13
VFish Good
p586
sg15
V20
p587
sg17
g587
sg18
V55
p588
sbag1
(g2
g3
Ntp589
Rp590
(dp591
g7
V116
p592
sg9
VHorsea
p593
sg11
VG,S,C,
p594
sg13
VFish Good
p595
sg15
V20
p596
sg17
g596
sg18
V10
p597
sbag1
(g2
g3
Ntp598
Rp599
(dp600
g7
V129
p601
sg9
VMagikarp
p602
sg11
VG,S,C,
p603
sg13
VFish Good
p604
sg15
V20
p605
sg17
g605
sg18
V35
p606
sbag1
(g2
g3
Ntp607
Rp608
(dp609
g7
V098
p610
sg9
VKrabby
p611
sg11
VG,S,C,
p612
sg13
VFish Super
p613
sg15
V40
p614
sg17
g614
sg18
V40
p615
sbag1
(g2
g3
Ntp616
Rp617
(dp618
g7
V099
p619
sg9
VKingler
p620
sg11
VG,S,C,
p621
sg13
VFish Super
p622
sg15
V40
p623
sg17
g623
sg18
V20
p624
sbag1
(g2
g3
Ntp625
Rp626
(dp627
g7
V116
p628
sg9
VHorsea
p629
sg11
VG,S,C,
p630
sg13
VFish Super
p631
sg15
V40
p632
sg17
g632
sg18
V30
p633
sbag1
(g2
g3
Ntp634
Rp635
(dp636
g7
V117
p637
sg9
VSeadra
p638
sg11
VG,S,C,
p639
sg13
VFish Super
p640
sg15
V40
p641
sg17
g641
sg18
V10
p642
sbag1
(g2
g3
Ntp643
Rp644
(dp645
g7
V249
p646
sg9
VLugia
p647
sg11
VG,
p648
sg13
VSpecial
p649
sg15
V70
p650
sg17
g650
sg18
V0
p651
sbag1
(g2
g3
Ntp652
Rp653
(dp654
g7
V041
p655
sg9
VZubat
p656
sg11
VHG,SS,
p657
sg13
VCave
p658
sg15
V23
p659
sg17
g659
sg18
V30
p660
sbag1
(g2
g3
Ntp661
Rp662
(dp663
g7
V042
p664
sg9
VGolbat
p665
sg11
VHG,SS,
p666
sg13
VCave
p667
sg15
V23
p668
sg17
g668
sg18
V5
p669
sbag1
(g2
g3
Ntp670
Rp671
(dp672
g7
V086
p673
sg9
VSeel
p674
sg11
VHG,SS,
p675
sg13
VCave
p676
sg15
V22
p677
sg17
V24
p678
sg18
V15
p679
sbag1
(g2
g3
Ntp680
Rp681
(dp682
g7
V098
p683
sg9
VKrabby
p684
sg11
VHG,SS,
p685
sg13
VCave
p686
sg15
V22
p687
sg17
V24
p688
sg18
V50
p689
sbag1
(g2
g3
Ntp690
Rp691
(dp692
g7
V072
p693
sg9
VTentacool
p694
sg11
VHG,SS,
p695
sg13
VSurf
p696
sg15
V15
p697
sg17
V25
p698
sg18
V60
p699
sbag1
(g2
g3
Ntp700
Rp701
(dp702
g7
V073
p703
sg9
VTentacruel
p704
sg11
VHG,SS,
p705
sg13
VSurf
p706
sg15
V15
p707
sg17
V25
p708
sg18
V10
p709
sbag1
(g2
g3
Ntp710
Rp711
(dp712
g7
V116
p713
sg9
VHorsea
p714
sg11
VHG,SS,
p715
sg13
VSurf
p716
sg15
V10
p717
sg17
V20
p718
sg18
V30
p719
sbag1
(g2
g3
Ntp720
Rp721
(dp722
g7
V098
p723
sg9
VKrabby
p724
sg11
VHG,SS,
p725
sg13
VFish Old
p726
sg15
V10
p727
sg17
g727
sg18
V15
p728
sbag1
(g2
g3
Ntp729
Rp730
(dp731
g7
V129
p732
sg9
VMagikarp
p733
sg11
VHG,SS,
p734
sg13
VFish Old
p735
sg15
V10
p736
sg17
g736
sg18
V85
p737
sbag1
(g2
g3
Ntp738
Rp739
(dp740
g7
V098
p741
sg9
VKrabby
p742
sg11
VHG,SS,
p743
sg13
VFish Good
p744
sg15
V20
p745
sg17
g745
sg18
V50
p746
sbag1
(g2
g3
Ntp747
Rp748
(dp749
g7
V116
p750
sg9
VHorsea
p751
sg11
VHG,SS,
p752
sg13
VFish Good
p753
sg15
V20
p754
sg17
g754
sg18
V10
p755
sbag1
(g2
g3
Ntp756
Rp757
(dp758
g7
V129
p759
sg9
VMagikarp
p760
sg11
VHG,SS,
p761
sg13
VFish Good
p762
sg15
V20
p763
sg17
g763
sg18
V40
p764
sbag1
(g2
g3
Ntp765
Rp766
(dp767
g7
V098
p768
sg9
VKrabby
p769
sg11
VHG,SS,
p770
sg13
VFish Super
p771
sg15
V40
p772
sg17
g772
sg18
V40
p773
sbag1
(g2
g3
Ntp774
Rp775
(dp776
g7
V099
p777
sg9
VKingler
p778
sg11
VHG,SS,
p779
sg13
VFish Super
p780
sg15
V40
p781
sg17
g781
sg18
V20
p782
sbag1
(g2
g3
Ntp783
Rp784
(dp785
g7
V116
p786
sg9
VHorsea
p787
sg11
VHG,SS,
p788
sg13
VFish Super
p789
sg15
V40
p790
sg17
g790
sg18
V30
p791
sbag1
(g2
g3
Ntp792
Rp793
(dp794
g7
V117
p795
sg9
VSeadra
p796
sg11
VHG,SS,
p797
sg13
VFish Super
p798
sg15
V40
p799
sg17
g799
sg18
V10
p800
sbag1
(g2
g3
Ntp801
Rp802
(dp803
g7
V296
p804
sg9
VMakuhita
p805
sg11
VHG,SS,
p806
sg13
VHoenn
p807
sg15
V24
p808
sg17
g808
sg18
V20
p809
sbag1
(g2
g3
Ntp810
Rp811
(dp812
g7
V359
p813
sg9
VAbsol
p814
sg11
VHG,SS,
p815
sg13
VHoenn
p816
sg15
V22
p817
sg17
V23
p818
sg18
V20
p819
sbag1
(g2
g3
Ntp820
Rp821
(dp822
g7
V433
p823
sg9
VChingling
p824
sg11
VHG,SS,
p825
sg13
VSinnoh
p826
sg15
V24
p827
sg17
g827
sg18
V20
p828
sbag1
(g2
g3
Ntp829
Rp830
(dp831
g7
V436
p832
sg9
VBronzor
p833
sg11
VHG,SS,
p834
sg13
VSinnoh
p835
sg15
V22
p836
sg17
V23
p837
sg18
V20
p838
sbag1
(g2
g3
Ntp839
Rp840
(dp841
g7
V041
p842
sg9
VZubat
p843
sg11
VHG,SS,
p844
sg13
VCave
p845
sg15
V23
p846
sg17
g846
sg18
V30
p847
sbag1
(g2
g3
Ntp848
Rp849
(dp850
g7
V042
p851
sg9
VGolbat
p852
sg11
VHG,SS,
p853
sg13
VCave
p854
sg15
V23
p855
sg17
g855
sg18
V5
p856
sbag1
(g2
g3
Ntp857
Rp858
(dp859
g7
V086
p860
sg9
VSeel
p861
sg11
VHG,SS,
p862
sg13
VCave
p863
sg15
V22
p864
sg17
V24
p865
sg18
V15
p866
sbag1
(g2
g3
Ntp867
Rp868
(dp869
g7
V098
p870
sg9
VKrabby
p871
sg11
VHG,SS,
p872
sg13
VCave
p873
sg15
V22
p874
sg17
V24
p875
sg18
V50
p876
sbag1
(g2
g3
Ntp877
Rp878
(dp879
g7
V073
p880
sg9
VTentacruel
p881
sg11
VHG,SS,
p882
sg13
VSurf
p883
sg15
V15
p884
sg17
V25
p885
sg18
V30
p886
sbag1
(g2
g3
Ntp887
Rp888
(dp889
g7
V116
p890
sg9
VHorsea
p891
sg11
VHG,SS,
p892
sg13
VSurf
p893
sg15
V15
p894
sg17
V25
p895
sg18
V60
p896
sbag1
(g2
g3
Ntp897
Rp898
(dp899
g7
V117
p900
sg9
VSeadra
p901
sg11
VHG,SS,
p902
sg13
VSurf
p903
sg15
V10
p904
sg17
V30
p905
sg18
V10
p906
sbag1
(g2
g3
Ntp907
Rp908
(dp909
g7
V098
p910
sg9
VKrabby
p911
sg11
VHG,SS,
p912
sg13
VFish Old
p913
sg15
V10
p914
sg17
g914
sg18
V15
p915
sbag1
(g2
g3
Ntp916
Rp917
(dp918
g7
V129
p919
sg9
VMagikarp
p920
sg11
VHG,SS,
p921
sg13
VFish Old
p922
sg15
V10
p923
sg17
g923
sg18
V85
p924
sbag1
(g2
g3
Ntp925
Rp926
(dp927
g7
V098
p928
sg9
VKrabby
p929
sg11
VHG,SS,
p930
sg13
VFish Good
p931
sg15
V20
p932
sg17
g932
sg18
V50
p933
sbag1
(g2
g3
Ntp934
Rp935
(dp936
g7
V116
p937
sg9
VHorsea
p938
sg11
VHG,SS,
p939
sg13
VFish Good
p940
sg15
V20
p941
sg17
g941
sg18
V10
p942
sbag1
(g2
g3
Ntp943
Rp944
(dp945
g7
V129
p946
sg9
VMagikarp
p947
sg11
VHG,SS,
p948
sg13
VFish Good
p949
sg15
V20
p950
sg17
g950
sg18
V40
p951
sbag1
(g2
g3
Ntp952
Rp953
(dp954
g7
V098
p955
sg9
VKrabby
p956
sg11
VHG,SS,
p957
sg13
VFish Super
p958
sg15
V40
p959
sg17
g959
sg18
V40
p960
sbag1
(g2
g3
Ntp961
Rp962
(dp963
g7
V099
p964
sg9
VKingler
p965
sg11
VHG,SS,
p966
sg13
VFish Super
p967
sg15
V40
p968
sg17
g968
sg18
V20
p969
sbag1
(g2
g3
Ntp970
Rp971
(dp972
g7
V116
p973
sg9
VHorsea
p974
sg11
VHG,SS,
p975
sg13
VFish Super
p976
sg15
V40
p977
sg17
g977
sg18
V30
p978
sbag1
(g2
g3
Ntp979
Rp980
(dp981
g7
V117
p982
sg9
VSeadra
p983
sg11
VHG,SS,
p984
sg13
VFish Super
p985
sg15
V40
p986
sg17
g986
sg18
V10
p987
sbag1
(g2
g3
Ntp988
Rp989
(dp990
g7
V296
p991
sg9
VMakuhita
p992
sg11
VHG,SS,
p993
sg13
VHoenn
p994
sg15
V24
p995
sg17
g995
sg18
V20
p996
sbag1
(g2
g3
Ntp997
Rp998
(dp999
g7
V359
p1000
sg9
VAbsol
p1001
sg11
VHG,SS,
p1002
sg13
VHoenn
p1003
sg15
V22
p1004
sg17
V23
p1005
sg18
V20
p1006
sbag1
(g2
g3
Ntp1007
Rp1008
(dp1009
g7
V433
p1010
sg9
VChingling
p1011
sg11
VHG,SS,
p1012
sg13
VSinnoh
p1013
sg15
V24
p1014
sg17
g1014
sg18
V20
p1015
sbag1
(g2
g3
Ntp1016
Rp1017
(dp1018
g7
V436
p1019
sg9
VBronzor
p1020
sg11
VHG,SS,
p1021
sg13
VSinnoh
p1022
sg15
V22
p1023
sg17
V23
p1024
sg18
V20
p1025
sbag1
(g2
g3
Ntp1026
Rp1027
(dp1028
g7
V041
p1029
sg9
VZubat
p1030
sg11
VHG,SS,
p1031
sg13
VCave
p1032
sg15
V24
p1033
sg17
g1033
sg18
V30
p1034
sbag1
(g2
g3
Ntp1035
Rp1036
(dp1037
g7
V042
p1038
sg9
VGolbat
p1039
sg11
VHG,SS,
p1040
sg13
VCave
p1041
sg15
V24
p1042
sg17
g1042
sg18
V5
p1043
sbag1
(g2
g3
Ntp1044
Rp1045
(dp1046
g7
V086
p1047
sg9
VSeel
p1048
sg11
VHG,SS,
p1049
sg13
VCave
p1050
sg15
V23
p1051
sg17
V25
p1052
sg18
V15
p1053
sbag1
(g2
g3
Ntp1054
Rp1055
(dp1056
g7
V098
p1057
sg9
VKrabby
p1058
sg11
VHG,SS,
p1059
sg13
VCave
p1060
sg15
V23
p1061
sg17
V25
p1062
sg18
V50
p1063
sbag1
(g2
g3
Ntp1064
Rp1065
(dp1066
g7
V249
p1067
sg9
VLugia
p1068
sg11
VHG,
p1069
sg13
VSpecial
p1070
sg15
V70
p1071
sg17
g1071
sg18
V0
p1072
sbag1
(g2
g3
Ntp1073
Rp1074
(dp1075
g7
V249
p1076
sg9
VLugia
p1077
sg11
VSS,
p1078
sg13
VSpecial
p1079
sg15
V45
p1080
sg17
g1080
sg18
V0
p1081
sbag1
(g2
g3
Ntp1082
Rp1083
(dp1084
g7
V296
p1085
sg9
VMakuhita
p1086
sg11
VHG,SS,
p1087
sg13
VHoenn
p1088
sg15
V25
p1089
sg17
g1089
sg18
V20
p1090
sbag1
(g2
g3
Ntp1091
Rp1092
(dp1093
g7
V359
p1094
sg9
VAbsol
p1095
sg11
VHG,SS,
p1096
sg13
VHoenn
p1097
sg15
V23
p1098
sg17
V24
p1099
sg18
V20
p1100
sbag1
(g2
g3
Ntp1101
Rp1102
(dp1103
g7
V433
p1104
sg9
VChingling
p1105
sg11
VHG,SS,
p1106
sg13
VSinnoh
p1107
sg15
V25
p1108
sg17
g1108
sg18
V20
p1109
sbag1
(g2
g3
Ntp1110
Rp1111
(dp1112
g7
V436
p1113
sg9
VBronzor
p1114
sg11
VHG,SS,
p1115
sg13
VSinnoh
p1116
sg15
V23
p1117
sg17
V24
p1118
sg18
V20
p1119
sba.