(lp0
ccopy_reg
_reconstructor
p1
(c__main__
WildPokemon
p2
c__builtin__
object
p3
Ntp4
Rp5
(dp6
VpDexNo
p7
V016
p8
sVpSpecies
p9
VPidgey
p10
sVpGames
p11
VW,
p12
sVpArea
p13
VGrass
p14
sVpMinLevel
p15
V5
p16
sVpMaxLevel
p17
g16
sVpRate
p18
V0
p19
sbag1
(g2
g3
Ntp20
Rp21
(dp22
g7
V029
p23
sg9
VNidoran\u2640
p24
sg11
g12
sg13
VGrass
p25
sg15
g16
sg17
g16
sg18
V0
p26
sbag1
(g2
g3
Ntp27
Rp28
(dp29
g7
V032
p30
sg9
VNidoran\u2642
p31
sg11
g12
sg13
VGrass
p32
sg15
g16
sg17
g16
sg18
V0
p33
sbag1
(g2
g3
Ntp34
Rp35
(dp36
g7
V043
p37
sg9
VOddish
p38
sg11
g12
sg13
VGrass
p39
sg15
g16
sg17
g16
sg18
V0
p40
sbag1
(g2
g3
Ntp41
Rp42
(dp43
g7
V063
p44
sg9
VAbra
p45
sg11
g12
sg13
VGrass
p46
sg15
g16
sg17
g16
sg18
V0
p47
sbag1
(g2
g3
Ntp48
Rp49
(dp50
g7
V066
p51
sg9
VMachop
p52
sg11
g12
sg13
VGrass
p53
sg15
g16
sg17
g16
sg18
V0
p54
sbag1
(g2
g3
Ntp55
Rp56
(dp57
g7
V069
p58
sg9
VBellsprout
p59
sg11
g12
sg13
VGrass
p60
sg15
g16
sg17
g16
sg18
V0
p61
sbag1
(g2
g3
Ntp62
Rp63
(dp64
g7
V081
p65
sg9
VMagnemite
p66
sg11
g12
sg13
VGrass
p67
sg15
g16
sg17
g16
sg18
V0
p68
sbag1
(g2
g3
Ntp69
Rp70
(dp71
g7
V092
p72
sg9
VGastly
p73
sg11
g12
sg13
VGrass
p74
sg15
g16
sg17
g16
sg18
V0
p75
sbag1
(g2
g3
Ntp76
Rp77
(dp78
g7
V111
p79
sg9
VRhyhorn
p80
sg11
g12
sg13
VGrass
p81
sg15
g16
sg17
g16
sg18
V0
p82
sbag1
(g2
g3
Ntp83
Rp84
(dp85
g7
V137
p86
sg9
VPorygon
p87
sg11
g12
sg13
VGrass
p88
sg15
g16
sg17
g16
sg18
V0
p89
sbag1
(g2
g3
Ntp90
Rp91
(dp92
g7
V175
p93
sg9
VTogepi
p94
sg11
g12
sg13
VGrass
p95
sg15
g16
sg17
g16
sg18
V0
p96
sbag1
(g2
g3
Ntp97
Rp98
(dp99
g7
V179
p100
sg9
VMareep
p101
sg11
g12
sg13
VGrass
p102
sg15
g16
sg17
g16
sg18
V0
p103
sbag1
(g2
g3
Ntp104
Rp105
(dp106
g7
V187
p107
sg9
VHoppip
p108
sg11
g12
sg13
VGrass
p109
sg15
g16
sg17
g16
sg18
V0
p110
sbag1
(g2
g3
Ntp111
Rp112
(dp113
g7
V239
p114
sg9
VElekid
p115
sg11
g12
sg13
VGrass
p116
sg15
g16
sg17
g16
sg18
V0
p117
sbag1
(g2
g3
Ntp118
Rp119
(dp120
g7
V240
p121
sg9
VMagby
p122
sg11
g12
sg13
VGrass
p123
sg15
g16
sg17
g16
sg18
V0
p124
sbag1
(g2
g3
Ntp125
Rp126
(dp127
g7
V265
p128
sg9
VWurmple
p129
sg11
g12
sg13
VGrass
p130
sg15
g16
sg17
g16
sg18
V0
p131
sbag1
(g2
g3
Ntp132
Rp133
(dp134
g7
V270
p135
sg9
VLotad
p136
sg11
g12
sg13
VGrass
p137
sg15
g16
sg17
g16
sg18
V0
p138
sbag1
(g2
g3
Ntp139
Rp140
(dp141
g7
V273
p142
sg9
VSeedot
p143
sg11
g12
sg13
VGrass
p144
sg15
g16
sg17
g16
sg18
V0
p145
sbag1
(g2
g3
Ntp146
Rp147
(dp148
g7
V280
p149
sg9
VRalts
p150
sg11
g12
sg13
VGrass
p151
sg15
g16
sg17
g16
sg18
V0
p152
sbag1
(g2
g3
Ntp153
Rp154
(dp155
g7
V287
p156
sg9
VSlakoth
p157
sg11
g12
sg13
VGrass
p158
sg15
g16
sg17
g16
sg18
V0
p159
sbag1
(g2
g3
Ntp160
Rp161
(dp162
g7
V293
p163
sg9
VWhismur
p164
sg11
g12
sg13
VGrass
p165
sg15
g16
sg17
g16
sg18
V0
p166
sbag1
(g2
g3
Ntp167
Rp168
(dp169
g7
V298
p170
sg9
VAzurill
p171
sg11
g12
sg13
VGrass
p172
sg15
g16
sg17
g16
sg18
V0
p173
sbag1
(g2
g3
Ntp174
Rp175
(dp176
g7
V304
p177
sg9
VAron
p178
sg11
g12
sg13
VGrass
p179
sg15
g16
sg17
g16
sg18
V0
p180
sbag1
(g2
g3
Ntp181
Rp182
(dp183
g7
V328
p184
sg9
VTrapinch
p185
sg11
g12
sg13
VGrass
p186
sg15
g16
sg17
g16
sg18
V0
p187
sbag1
(g2
g3
Ntp188
Rp189
(dp190
g7
V371
p191
sg9
VBagon
p192
sg11
g12
sg13
VGrass
p193
sg15
g16
sg17
g16
sg18
V0
p194
sbag1
(g2
g3
Ntp195
Rp196
(dp197
g7
V396
p198
sg9
VStarly
p199
sg11
g12
sg13
VGrass
p200
sg15
g16
sg17
g16
sg18
V0
p201
sbag1
(g2
g3
Ntp202
Rp203
(dp204
g7
V403
p205
sg9
VShinx
p206
sg11
g12
sg13
VGrass
p207
sg15
g16
sg17
g16
sg18
V0
p208
sbag1
(g2
g3
Ntp209
Rp210
(dp211
g7
V406
p212
sg9
VBudew
p213
sg11
g12
sg13
VGrass
p214
sg15
g16
sg17
g16
sg18
V0
p215
sbag1
(g2
g3
Ntp216
Rp217
(dp218
g7
V440
p219
sg9
VHappiny
p220
sg11
g12
sg13
VGrass
p221
sg15
g16
sg17
g16
sg18
V0
p222
sbag1
(g2
g3
Ntp223
Rp224
(dp225
g7
V194
p226
sg9
VWooper
p227
sg11
g12
sg13
VSurf
p228
sg15
g16
sg17
g16
sg18
V0
p229
sbag1
(g2
g3
Ntp230
Rp231
(dp232
g7
V270
p233
sg9
VLotad
p234
sg11
g12
sg13
VSurf
p235
sg15
g16
sg17
g16
sg18
V0
p236
sbag1
(g2
g3
Ntp237
Rp238
(dp239
g7
V283
p240
sg9
VSurskit
p241
sg11
g12
sg13
VSurf
p242
sg15
g16
sg17
g16
sg18
V0
p243
sbag1
(g2
g3
Ntp244
Rp245
(dp246
g7
V341
p247
sg9
VCorphish
p248
sg11
g12
sg13
VSurf
p249
sg15
g16
sg17
g16
sg18
V0
p250
sba.