(lp0
ccopy_reg
_reconstructor
p1
(c__main__
WildPokemon
p2
c__builtin__
object
p3
Ntp4
Rp5
(dp6
VpDexNo
p7
V109
p8
sVpSpecies
p9
VKoffing
p10
sVpGames
p11
VSw,Sh,
p12
sVpArea
p13
VRaid
p14
sVpMinLevel
p15
V17
p16
sVpMaxLevel
p17
g16
sVpRate
p18
V16
p19
sbag1
(g2
g3
Ntp20
Rp21
(dp22
g7
V280
p23
sg9
VRalts
p24
sg11
VSw,Sh,
p25
sg13
VRaid
p26
sg15
V17
p27
sg17
g27
sg18
V16
p28
sbag1
(g2
g3
Ntp29
Rp30
(dp31
g7
V627
p32
sg9
VRufflet
p33
sg11
VSw,Sh,
p34
sg13
VRaid
p35
sg15
V17
p36
sg17
g36
sg18
V16
p37
sbag1
(g2
g3
Ntp38
Rp39
(dp40
g7
V821
p41
sg9
VRookidee
p42
sg11
VSw,Sh,
p43
sg13
VRaid
p44
sg15
V17
p45
sg17
g45
sg18
V16
p46
sbag1
(g2
g3
Ntp47
Rp48
(dp49
g7
V845
p50
sg9
VCramorant
p51
sg11
VSw,Sh,
p52
sg13
VRaid
p53
sg15
V17
p54
sg17
g54
sg18
V16
p55
sbag1
(g2
g3
Ntp56
Rp57
(dp58
g7
V856
p59
sg9
VHatenna
p60
sg11
VSw,Sh,
p61
sg13
VRaid
p62
sg15
V17
p63
sg17
g63
sg18
V20
p64
sbag1
(g2
g3
Ntp65
Rp66
(dp67
g7
V109
p68
sg9
VKoffing
p69
sg11
VSw,Sh,
p70
sg13
VRaid
p71
sg15
V30
p72
sg17
g72
sg18
V15
p73
sbag1
(g2
g3
Ntp74
Rp75
(dp76
g7
V281
p77
sg9
VKirlia
p78
sg11
VSw,Sh,
p79
sg13
VRaid
p80
sg15
V30
p81
sg17
g81
sg18
V15
p82
sbag1
(g2
g3
Ntp83
Rp84
(dp85
g7
V627
p86
sg9
VRufflet
p87
sg11
VSw,Sh,
p88
sg13
VRaid
p89
sg15
V30
p90
sg17
g90
sg18
V15
p91
sbag1
(g2
g3
Ntp92
Rp93
(dp94
g7
V822
p95
sg9
VCorvisquire
p96
sg11
VSw,Sh,
p97
sg13
VRaid
p98
sg15
V30
p99
sg17
g99
sg18
V20
p100
sbag1
(g2
g3
Ntp101
Rp102
(dp103
g7
V845
p104
sg9
VCramorant
p105
sg11
VSw,Sh,
p106
sg13
VRaid
p107
sg15
V30
p108
sg17
g108
sg18
V15
p109
sbag1
(g2
g3
Ntp110
Rp111
(dp112
g7
V856
p113
sg9
VHatenna
p114
sg11
VSw,Sh,
p115
sg13
VRaid
p116
sg15
V30
p117
sg17
g117
sg18
V20
p118
sbag1
(g2
g3
Ntp119
Rp120
(dp121
g7
V110
p122
sg9
VWeezing
p123
sg11
VSw,Sh,
p124
sg13
VRaid
p125
sg15
V40
p126
sg17
g126
sg18
V15
p127
sbag1
(g2
g3
Ntp128
Rp129
(dp130
g7
V282
p131
sg9
VGardevoir
p132
sg11
VSw,Sh,
p133
sg13
VRaid
p134
sg15
V40
p135
sg17
g135
sg18
V15
p136
sbag1
(g2
g3
Ntp137
Rp138
(dp139
g7
V628
p140
sg9
VBraviary
p141
sg11
VSw,Sh,
p142
sg13
VRaid
p143
sg15
V40
p144
sg17
g144
sg18
V15
p145
sbag1
(g2
g3
Ntp146
Rp147
(dp148
g7
V823
p149
sg9
VCorviknight
p150
sg11
VSw,Sh,
p151
sg13
VRaid
p152
sg15
V40
p153
sg17
g153
sg18
V20
p154
sbag1
(g2
g3
Ntp155
Rp156
(dp157
g7
V845
p158
sg9
VCramorant
p159
sg11
VSw,Sh,
p160
sg13
VRaid
p161
sg15
V40
p162
sg17
g162
sg18
V15
p163
sbag1
(g2
g3
Ntp164
Rp165
(dp166
g7
V857
p167
sg9
VHattrem
p168
sg11
VSw,Sh,
p169
sg13
VRaid
p170
sg15
V40
p171
sg17
g171
sg18
V20
p172
sbag1
(g2
g3
Ntp173
Rp174
(dp175
g7
V110
p176
sg9
VWeezing
p177
sg11
VSw,Sh,
p178
sg13
VRaid
p179
sg15
V50
p180
sg17
g180
sg18
V15
p181
sbag1
(g2
g3
Ntp182
Rp183
(dp184
g7
V282
p185
sg9
VGardevoir
p186
sg11
VSw,Sh,
p187
sg13
VRaid
p188
sg15
V50
p189
sg17
g189
sg18
V15
p190
sbag1
(g2
g3
Ntp191
Rp192
(dp193
g7
V628
p194
sg9
VBraviary
p195
sg11
VSw,Sh,
p196
sg13
VRaid
p197
sg15
V50
p198
sg17
g198
sg18
V15
p199
sbag1
(g2
g3
Ntp200
Rp201
(dp202
g7
V823
p203
sg9
VCorviknight
p204
sg11
VSw,Sh,
p205
sg13
VRaid
p206
sg15
V50
p207
sg17
g207
sg18
V20
p208
sbag1
(g2
g3
Ntp209
Rp210
(dp211
g7
V845
p212
sg9
VCramorant
p213
sg11
VSw,Sh,
p214
sg13
VRaid
p215
sg15
V50
p216
sg17
g216
sg18
V15
p217
sbag1
(g2
g3
Ntp218
Rp219
(dp220
g7
V858
p221
sg9
VHatterene
p222
sg11
VSw,Sh,
p223
sg13
VRaid
p224
sg15
V50
p225
sg17
g225
sg18
V20
p226
sbag1
(g2
g3
Ntp227
Rp228
(dp229
g7
V110
p230
sg9
VWeezing
p231
sg11
VSw,Sh,
p232
sg13
VRaid
p233
sg15
V60
p234
sg17
g234
sg18
V15
p235
sbag1
(g2
g3
Ntp236
Rp237
(dp238
g7
V282
p239
sg9
VGardevoir
p240
sg11
VSw,Sh,
p241
sg13
VRaid
p242
sg15
V60
p243
sg17
g243
sg18
V15
p244
sbag1
(g2
g3
Ntp245
Rp246
(dp247
g7
V628
p248
sg9
VBraviary
p249
sg11
VSw,Sh,
p250
sg13
VRaid
p251
sg15
V60
p252
sg17
g252
sg18
V15
p253
sbag1
(g2
g3
Ntp254
Rp255
(dp256
g7
V823
p257
sg9
VCorviknight
p258
sg11
VSw,Sh,
p259
sg13
VRaid
p260
sg15
V60
p261
sg17
g261
sg18
V20
p262
sbag1
(g2
g3
Ntp263
Rp264
(dp265
g7
V845
p266
sg9
VCramorant
p267
sg11
VSw,Sh,
p268
sg13
VRaid
p269
sg15
V60
p270
sg17
g270
sg18
V15
p271
sbag1
(g2
g3
Ntp272
Rp273
(dp274
g7
V858
p275
sg9
VHatterene
p276
sg11
VSw,Sh,
p277
sg13
VRaid
p278
sg15
V60
p279
sg17
g279
sg18
V20
p280
sbag1
(g2
g3
Ntp281
Rp282
(dp283
g7
V067
p284
sg9
VMachoke
p285
sg11
VSw,Sh,
p286
sg13
VRaid
p287
sg15
V17
p288
sg17
g288
sg18
V20
p289
sbag1
(g2
g3
Ntp290
Rp291
(dp292
g7
V447
p293
sg9
VRiolu
p294
sg11
VSw,Sh,
p295
sg13
VRaid
p296
sg15
V17
p297
sg17
g297
sg18
V16
p298
sbag1
(g2
g3
Ntp299
Rp300
(dp301
g7
V574
p302
sg9
VGothita
p303
sg11
VSw,Sh,
p304
sg13
VRaid
p305
sg15
V17
p306
sg17
g306
sg18
V16
p307
sbag1
(g2
g3
Ntp308
Rp309
(dp310
g7
V577
p311
sg9
VSolosis
p312
sg11
VSw,Sh,
p313
sg13
VRaid
p314
sg15
V17
p315
sg17
g315
sg18
V16
p316
sbag1
(g2
g3
Ntp317
Rp318
(dp319
g7
V825
p320
sg9
VDottler
p321
sg11
VSw,Sh,
p322
sg13
VRaid
p323
sg15
V17
p324
sg17
g324
sg18
V16
p325
sbag1
(g2
g3
Ntp326
Rp327
(dp328
g7
V870
p329
sg9
VFalinks
p330
sg11
VSw,Sh,
p331
sg13
VRaid
p332
sg15
V17
p333
sg17
g333
sg18
V16
p334
sbag1
(g2
g3
Ntp335
Rp336
(dp337
g7
V068
p338
sg9
VMachamp
p339
sg11
VSw,Sh,
p340
sg13
VRaid
p341
sg15
V30
p342
sg17
g342
sg18
V20
p343
sbag1
(g2
g3
Ntp344
Rp345
(dp346
g7
V447
p347
sg9
VRiolu
p348
sg11
VSw,Sh,
p349
sg13
VRaid
p350
sg15
V30
p351
sg17
g351
sg18
V15
p352
sbag1
(g2
g3
Ntp353
Rp354
(dp355
g7
V574
p356
sg9
VGothita
p357
sg11
VSw,Sh,
p358
sg13
VRaid
p359
sg15
V30
p360
sg17
g360
sg18
V15
p361
sbag1
(g2
g3
Ntp362
Rp363
(dp364
g7
V577
p365
sg9
VSolosis
p366
sg11
VSw,Sh,
p367
sg13
VRaid
p368
sg15
V30
p369
sg17
g369
sg18
V15
p370
sbag1
(g2
g3
Ntp371
Rp372
(dp373
g7
V826
p374
sg9
VOrbeetle
p375
sg11
VSw,Sh,
p376
sg13
VRaid
p377
sg15
V30
p378
sg17
g378
sg18
V20
p379
sbag1
(g2
g3
Ntp380
Rp381
(dp382
g7
V870
p383
sg9
VFalinks
p384
sg11
VSw,Sh,
p385
sg13
VRaid
p386
sg15
V30
p387
sg17
g387
sg18
V15
p388
sbag1
(g2
g3
Ntp389
Rp390
(dp391
g7
V068
p392
sg9
VMachamp
p393
sg11
VSw,Sh,
p394
sg13
VRaid
p395
sg15
V40
p396
sg17
g396
sg18
V20
p397
sbag1
(g2
g3
Ntp398
Rp399
(dp400
g7
V448
p401
sg9
VLucario
p402
sg11
VSw,Sh,
p403
sg13
VRaid
p404
sg15
V40
p405
sg17
g405
sg18
V15
p406
sbag1
(g2
g3
Ntp407
Rp408
(dp409
g7
V575
p410
sg9
VGothorita
p411
sg11
VSw,Sh,
p412
sg13
VRaid
p413
sg15
V40
p414
sg17
g414
sg18
V15
p415
sbag1
(g2
g3
Ntp416
Rp417
(dp418
g7
V578
p419
sg9
VDuosion
p420
sg11
VSw,Sh,
p421
sg13
VRaid
p422
sg15
V40
p423
sg17
g423
sg18
V15
p424
sbag1
(g2
g3
Ntp425
Rp426
(dp427
g7
V826
p428
sg9
VOrbeetle
p429
sg11
VSw,Sh,
p430
sg13
VRaid
p431
sg15
V40
p432
sg17
g432
sg18
V20
p433
sbag1
(g2
g3
Ntp434
Rp435
(dp436
g7
V870
p437
sg9
VFalinks
p438
sg11
VSw,Sh,
p439
sg13
VRaid
p440
sg15
V40
p441
sg17
g441
sg18
V15
p442
sbag1
(g2
g3
Ntp443
Rp444
(dp445
g7
V068
p446
sg9
VMachamp
p447
sg11
VSw,Sh,
p448
sg13
VRaid
p449
sg15
V50
p450
sg17
g450
sg18
V20
p451
sbag1
(g2
g3
Ntp452
Rp453
(dp454
g7
V448
p455
sg9
VLucario
p456
sg11
VSw,Sh,
p457
sg13
VRaid
p458
sg15
V50
p459
sg17
g459
sg18
V15
p460
sbag1
(g2
g3
Ntp461
Rp462
(dp463
g7
V576
p464
sg9
VGothitelle
p465
sg11
VSw,Sh,
p466
sg13
VRaid
p467
sg15
V50
p468
sg17
g468
sg18
V15
p469
sbag1
(g2
g3
Ntp470
Rp471
(dp472
g7
V579
p473
sg9
VReuniclus
p474
sg11
VSw,Sh,
p475
sg13
VRaid
p476
sg15
V50
p477
sg17
g477
sg18
V15
p478
sbag1
(g2
g3
Ntp479
Rp480
(dp481
g7
V826
p482
sg9
VOrbeetle
p483
sg11
VSw,Sh,
p484
sg13
VRaid
p485
sg15
V50
p486
sg17
g486
sg18
V20
p487
sbag1
(g2
g3
Ntp488
Rp489
(dp490
g7
V870
p491
sg9
VFalinks
p492
sg11
VSw,Sh,
p493
sg13
VRaid
p494
sg15
V50
p495
sg17
g495
sg18
V15
p496
sbag1
(g2
g3
Ntp497
Rp498
(dp499
g7
V025
p500
sg9
VPikachu
p501
sg11
VSw,Sh,
p502
sg13
VRaid
p503
sg15
V60
p504
sg17
g504
sg18
V98
p505
sbag1
(g2
g3
Ntp506
Rp507
(dp508
g7
V025
p509
sg9
VPikachu
p510
sg11
VSw,Sh,
p511
sg13
VRaid
p512
sg15
V60
p513
sg17
g513
sg18
V2
p514
sbag1
(g2
g3
Ntp515
Rp516
(dp517
g7
V868
p518
sg9
VMilcery
p519
sg11
VSw,Sh,
p520
sg13
VRaid
p521
sg15
V17
p522
sg17
g522
sg18
V100
p523
sbag1
(g2
g3
Ntp524
Rp525
(dp526
g7
V868
p527
sg9
VMilcery
p528
sg11
VSw,Sh,
p529
sg13
VRaid
p530
sg15
V30
p531
sg17
g531
sg18
V100
p532
sbag1
(g2
g3
Ntp533
Rp534
(dp535
g7
V868
p536
sg9
VMilcery
p537
sg11
VSw,Sh,
p538
sg13
VRaid
p539
sg15
V40
p540
sg17
g540
sg18
V100
p541
sbag1
(g2
g3
Ntp542
Rp543
(dp544
g7
V868
p545
sg9
VMilcery
p546
sg11
VSw,Sh,
p547
sg13
VRaid
p548
sg15
V50
p549
sg17
g549
sg18
V100
p550
sbag1
(g2
g3
Ntp551
Rp552
(dp553
g7
V868
p554
sg9
VMilcery
p555
sg11
VSw,Sh,
p556
sg13
VRaid
p557
sg15
V60
p558
sg17
g558
sg18
V98
p559
sbag1
(g2
g3
Ntp560
Rp561
(dp562
g7
V868
p563
sg9
VMilcery
p564
sg11
VSw,Sh,
p565
sg13
VRaid
p566
sg15
V60
p567
sg17
g567
sg18
V2
p568
sbag1
(g2
g3
Ntp569
Rp570
(dp571
g7
V195
p572
sg9
VQuagsire
p573
sg11
VSw,Sh,
p574
sg13
VRaid
p575
sg15
V17
p576
sg17
g576
sg18
V10
p577
sbag1
(g2
g3
Ntp578
Rp579
(dp580
g7
V330
p581
sg9
VFlygon
p582
sg11
VSw,Sh,
p583
sg13
VRaid
p584
sg15
V17
p585
sg17
g585
sg18
V20
p586
sbag1
(g2
g3
Ntp587
Rp588
(dp589
g7
V623
p590
sg9
VGolurk
p591
sg11
VSw,Sh,
p592
sg13
VRaid
p593
sg15
V17
p594
sg17
g594
sg18
V10
p595
sbag1
(g2
g3
Ntp596
Rp597
(dp598
g7
V845
p599
sg9
VCramorant
p600
sg11
VSw,Sh,
p601
sg13
VRaid
p602
sg15
V17
p603
sg17
g603
sg18
V50
p604
sbag1
(g2
g3
Ntp605
Rp606
(dp607
g7
V876
p608
sg9
VIndeedee
p609
sg11
VSw,Sh,
p610
sg13
VRaid
p611
sg15
V17
p612
sg17
g612
sg18
V10
p613
sbag1
(g2
g3
Ntp614
Rp615
(dp616
g7
V195
p617
sg9
VQuagsire
p618
sg11
VSw,Sh,
p619
sg13
VRaid
p620
sg15
V30
p621
sg17
g621
sg18
V10
p622
sbag1
(g2
g3
Ntp623
Rp624
(dp625
g7
V330
p626
sg9
VFlygon
p627
sg11
VSw,Sh,
p628
sg13
VRaid
p629
sg15
V30
p630
sg17
g630
sg18
V20
p631
sbag1
(g2
g3
Ntp632
Rp633
(dp634
g7
V623
p635
sg9
VGolurk
p636
sg11
VSw,Sh,
p637
sg13
VRaid
p638
sg15
V30
p639
sg17
g639
sg18
V10
p640
sbag1
(g2
g3
Ntp641
Rp642
(dp643
g7
V845
p644
sg9
VCramorant
p645
sg11
VSw,Sh,
p646
sg13
VRaid
p647
sg15
V30
p648
sg17
g648
sg18
V50
p649
sbag1
(g2
g3
Ntp650
Rp651
(dp652
g7
V876
p653
sg9
VIndeedee
p654
sg11
VSw,Sh,
p655
sg13
VRaid
p656
sg15
V30
p657
sg17
g657
sg18
V10
p658
sbag1
(g2
g3
Ntp659
Rp660
(dp661
g7
V195
p662
sg9
VQuagsire
p663
sg11
VSw,Sh,
p664
sg13
VRaid
p665
sg15
V40
p666
sg17
g666
sg18
V10
p667
sbag1
(g2
g3
Ntp668
Rp669
(dp670
g7
V330
p671
sg9
VFlygon
p672
sg11
VSw,Sh,
p673
sg13
VRaid
p674
sg15
V40
p675
sg17
g675
sg18
V20
p676
sbag1
(g2
g3
Ntp677
Rp678
(dp679
g7
V623
p680
sg9
VGolurk
p681
sg11
VSw,Sh,
p682
sg13
VRaid
p683
sg15
V40
p684
sg17
g684
sg18
V10
p685
sbag1
(g2
g3
Ntp686
Rp687
(dp688
g7
V845
p689
sg9
VCramorant
p690
sg11
VSw,Sh,
p691
sg13
VRaid
p692
sg15
V40
p693
sg17
g693
sg18
V50
p694
sbag1
(g2
g3
Ntp695
Rp696
(dp697
g7
V876
p698
sg9
VIndeedee
p699
sg11
VSw,Sh,
p700
sg13
VRaid
p701
sg15
V40
p702
sg17
g702
sg18
V10
p703
sbag1
(g2
g3
Ntp704
Rp705
(dp706
g7
V195
p707
sg9
VQuagsire
p708
sg11
VSw,Sh,
p709
sg13
VRaid
p710
sg15
V50
p711
sg17
g711
sg18
V10
p712
sbag1
(g2
g3
Ntp713
Rp714
(dp715
g7
V330
p716
sg9
VFlygon
p717
sg11
VSw,Sh,
p718
sg13
VRaid
p719
sg15
V50
p720
sg17
g720
sg18
V20
p721
sbag1
(g2
g3
Ntp722
Rp723
(dp724
g7
V623
p725
sg9
VGolurk
p726
sg11
VSw,Sh,
p727
sg13
VRaid
p728
sg15
V50
p729
sg17
g729
sg18
V10
p730
sbag1
(g2
g3
Ntp731
Rp732
(dp733
g7
V845
p734
sg9
VCramorant
p735
sg11
VSw,Sh,
p736
sg13
VRaid
p737
sg15
V50
p738
sg17
g738
sg18
V50
p739
sbag1
(g2
g3
Ntp740
Rp741
(dp742
g7
V876
p743
sg9
VIndeedee
p744
sg11
VSw,Sh,
p745
sg13
VRaid
p746
sg15
V50
p747
sg17
g747
sg18
V10
p748
sbag1
(g2
g3
Ntp749
Rp750
(dp751
g7
V195
p752
sg9
VQuagsire
p753
sg11
VSw,Sh,
p754
sg13
VRaid
p755
sg15
V60
p756
sg17
g756
sg18
V10
p757
sbag1
(g2
g3
Ntp758
Rp759
(dp760
g7
V330
p761
sg9
VFlygon
p762
sg11
VSw,Sh,
p763
sg13
VRaid
p764
sg15
V60
p765
sg17
g765
sg18
V20
p766
sbag1
(g2
g3
Ntp767
Rp768
(dp769
g7
V623
p770
sg9
VGolurk
p771
sg11
VSw,Sh,
p772
sg13
VRaid
p773
sg15
V60
p774
sg17
g774
sg18
V10
p775
sbag1
(g2
g3
Ntp776
Rp777
(dp778
g7
V845
p779
sg9
VCramorant
p780
sg11
VSw,Sh,
p781
sg13
VRaid
p782
sg15
V60
p783
sg17
g783
sg18
V48
p784
sbag1
(g2
g3
Ntp785
Rp786
(dp787
g7
V845
p788
sg9
VCramorant
p789
sg11
VSw,Sh,
p790
sg13
VRaid
p791
sg15
V60
p792
sg17
g792
sg18
V2
p793
sbag1
(g2
g3
Ntp794
Rp795
(dp796
g7
V876
p797
sg9
VIndeedee
p798
sg11
VSw,Sh,
p799
sg13
VRaid
p800
sg15
V60
p801
sg17
g801
sg18
V10
p802
sbag1
(g2
g3
Ntp803
Rp804
(dp805
g7
V067
p806
sg9
VMachoke
p807
sg11
VSw,Sh,
p808
sg13
VRaid
p809
sg15
V17
p810
sg17
g810
sg18
V20
p811
sbag1
(g2
g3
Ntp812
Rp813
(dp814
g7
V447
p815
sg9
VRiolu
p816
sg11
VSw,Sh,
p817
sg13
VRaid
p818
sg15
V17
p819
sg17
g819
sg18
V16
p820
sbag1
(g2
g3
Ntp821
Rp822
(dp823
g7
V574
p824
sg9
VGothita
p825
sg11
VSw,Sh,
p826
sg13
VRaid
p827
sg15
V17
p828
sg17
g828
sg18
V16
p829
sbag1
(g2
g3
Ntp830
Rp831
(dp832
g7
V577
p833
sg9
VSolosis
p834
sg11
VSw,Sh,
p835
sg13
VRaid
p836
sg15
V17
p837
sg17
g837
sg18
V16
p838
sbag1
(g2
g3
Ntp839
Rp840
(dp841
g7
V825
p842
sg9
VDottler
p843
sg11
VSw,Sh,
p844
sg13
VRaid
p845
sg15
V17
p846
sg17
g846
sg18
V16
p847
sbag1
(g2
g3
Ntp848
Rp849
(dp850
g7
V870
p851
sg9
VFalinks
p852
sg11
VSw,Sh,
p853
sg13
VRaid
p854
sg15
V17
p855
sg17
g855
sg18
V16
p856
sbag1
(g2
g3
Ntp857
Rp858
(dp859
g7
V068
p860
sg9
VMachamp
p861
sg11
VSw,Sh,
p862
sg13
VRaid
p863
sg15
V30
p864
sg17
g864
sg18
V20
p865
sbag1
(g2
g3
Ntp866
Rp867
(dp868
g7
V447
p869
sg9
VRiolu
p870
sg11
VSw,Sh,
p871
sg13
VRaid
p872
sg15
V30
p873
sg17
g873
sg18
V15
p874
sbag1
(g2
g3
Ntp875
Rp876
(dp877
g7
V574
p878
sg9
VGothita
p879
sg11
VSw,Sh,
p880
sg13
VRaid
p881
sg15
V30
p882
sg17
g882
sg18
V15
p883
sbag1
(g2
g3
Ntp884
Rp885
(dp886
g7
V577
p887
sg9
VSolosis
p888
sg11
VSw,Sh,
p889
sg13
VRaid
p890
sg15
V30
p891
sg17
g891
sg18
V15
p892
sbag1
(g2
g3
Ntp893
Rp894
(dp895
g7
V826
p896
sg9
VOrbeetle
p897
sg11
VSw,Sh,
p898
sg13
VRaid
p899
sg15
V30
p900
sg17
g900
sg18
V20
p901
sbag1
(g2
g3
Ntp902
Rp903
(dp904
g7
V870
p905
sg9
VFalinks
p906
sg11
VSw,Sh,
p907
sg13
VRaid
p908
sg15
V30
p909
sg17
g909
sg18
V15
p910
sbag1
(g2
g3
Ntp911
Rp912
(dp913
g7
V068
p914
sg9
VMachamp
p915
sg11
VSw,Sh,
p916
sg13
VRaid
p917
sg15
V40
p918
sg17
g918
sg18
V20
p919
sbag1
(g2
g3
Ntp920
Rp921
(dp922
g7
V448
p923
sg9
VLucario
p924
sg11
VSw,Sh,
p925
sg13
VRaid
p926
sg15
V40
p927
sg17
g927
sg18
V15
p928
sbag1
(g2
g3
Ntp929
Rp930
(dp931
g7
V575
p932
sg9
VGothorita
p933
sg11
VSw,Sh,
p934
sg13
VRaid
p935
sg15
V40
p936
sg17
g936
sg18
V15
p937
sbag1
(g2
g3
Ntp938
Rp939
(dp940
g7
V578
p941
sg9
VDuosion
p942
sg11
VSw,Sh,
p943
sg13
VRaid
p944
sg15
V40
p945
sg17
g945
sg18
V15
p946
sbag1
(g2
g3
Ntp947
Rp948
(dp949
g7
V826
p950
sg9
VOrbeetle
p951
sg11
VSw,Sh,
p952
sg13
VRaid
p953
sg15
V40
p954
sg17
g954
sg18
V20
p955
sbag1
(g2
g3
Ntp956
Rp957
(dp958
g7
V870
p959
sg9
VFalinks
p960
sg11
VSw,Sh,
p961
sg13
VRaid
p962
sg15
V40
p963
sg17
g963
sg18
V15
p964
sbag1
(g2
g3
Ntp965
Rp966
(dp967
g7
V068
p968
sg9
VMachamp
p969
sg11
VSw,Sh,
p970
sg13
VRaid
p971
sg15
V50
p972
sg17
g972
sg18
V20
p973
sbag1
(g2
g3
Ntp974
Rp975
(dp976
g7
V448
p977
sg9
VLucario
p978
sg11
VSw,Sh,
p979
sg13
VRaid
p980
sg15
V50
p981
sg17
g981
sg18
V15
p982
sbag1
(g2
g3
Ntp983
Rp984
(dp985
g7
V576
p986
sg9
VGothitelle
p987
sg11
VSw,Sh,
p988
sg13
VRaid
p989
sg15
V50
p990
sg17
g990
sg18
V15
p991
sbag1
(g2
g3
Ntp992
Rp993
(dp994
g7
V579
p995
sg9
VReuniclus
p996
sg11
VSw,Sh,
p997
sg13
VRaid
p998
sg15
V50
p999
sg17
g999
sg18
V15
p1000
sbag1
(g2
g3
Ntp1001
Rp1002
(dp1003
g7
V826
p1004
sg9
VOrbeetle
p1005
sg11
VSw,Sh,
p1006
sg13
VRaid
p1007
sg15
V50
p1008
sg17
g1008
sg18
V20
p1009
sbag1
(g2
g3
Ntp1010
Rp1011
(dp1012
g7
V870
p1013
sg9
VFalinks
p1014
sg11
VSw,Sh,
p1015
sg13
VRaid
p1016
sg15
V50
p1017
sg17
g1017
sg18
V15
p1018
sbag1
(g2
g3
Ntp1019
Rp1020
(dp1021
g7
V068
p1022
sg9
VMachamp
p1023
sg11
VSw,Sh,
p1024
sg13
VRaid
p1025
sg15
V60
p1026
sg17
g1026
sg18
V20
p1027
sbag1
(g2
g3
Ntp1028
Rp1029
(dp1030
g7
V448
p1031
sg9
VLucario
p1032
sg11
VSw,Sh,
p1033
sg13
VRaid
p1034
sg15
V60
p1035
sg17
g1035
sg18
V15
p1036
sbag1
(g2
g3
Ntp1037
Rp1038
(dp1039
g7
V576
p1040
sg9
VGothitelle
p1041
sg11
VSw,Sh,
p1042
sg13
VRaid
p1043
sg15
V60
p1044
sg17
g1044
sg18
V15
p1045
sbag1
(g2
g3
Ntp1046
Rp1047
(dp1048
g7
V579
p1049
sg9
VReuniclus
p1050
sg11
VSw,Sh,
p1051
sg13
VRaid
p1052
sg15
V60
p1053
sg17
g1053
sg18
V15
p1054
sbag1
(g2
g3
Ntp1055
Rp1056
(dp1057
g7
V826
p1058
sg9
VOrbeetle
p1059
sg11
VSw,Sh,
p1060
sg13
VRaid
p1061
sg15
V60
p1062
sg17
g1062
sg18
V20
p1063
sbag1
(g2
g3
Ntp1064
Rp1065
(dp1066
g7
V870
p1067
sg9
VFalinks
p1068
sg11
VSw,Sh,
p1069
sg13
VRaid
p1070
sg15
V60
p1071
sg17
g1071
sg18
V15
p1072
sbag1
(g2
g3
Ntp1073
Rp1074
(dp1075
g7
V128
p1076
sg9
VTauros
p1077
sg11
VSw,Sh,
p1078
sg13
VRaid
p1079
sg15
V17
p1080
sg17
g1080
sg18
V34
p1081
sbag1
(g2
g3
Ntp1082
Rp1083
(dp1084
g7
V241
p1085
sg9
VMiltank
p1086
sg11
VSw,Sh,
p1087
sg13
VRaid
p1088
sg15
V17
p1089
sg17
g1089
sg18
V33
p1090
sbag1
(g2
g3
Ntp1091
Rp1092
(dp1093
g7
V626
p1094
sg9
VBouffalant
p1095
sg11
VSw,Sh,
p1096
sg13
VRaid
p1097
sg15
V17
p1098
sg17
g1098
sg18
V33
p1099
sbag1
(g2
g3
Ntp1100
Rp1101
(dp1102
g7
V128
p1103
sg9
VTauros
p1104
sg11
VSw,Sh,
p1105
sg13
VRaid
p1106
sg15
V30
p1107
sg17
g1107
sg18
V34
p1108
sbag1
(g2
g3
Ntp1109
Rp1110
(dp1111
g7
V241
p1112
sg9
VMiltank
p1113
sg11
VSw,Sh,
p1114
sg13
VRaid
p1115
sg15
V30
p1116
sg17
g1116
sg18
V33
p1117
sbag1
(g2
g3
Ntp1118
Rp1119
(dp1120
g7
V626
p1121
sg9
VBouffalant
p1122
sg11
VSw,Sh,
p1123
sg13
VRaid
p1124
sg15
V30
p1125
sg17
g1125
sg18
V33
p1126
sbag1
(g2
g3
Ntp1127
Rp1128
(dp1129
g7
V128
p1130
sg9
VTauros
p1131
sg11
VSw,Sh,
p1132
sg13
VRaid
p1133
sg15
V40
p1134
sg17
g1134
sg18
V34
p1135
sbag1
(g2
g3
Ntp1136
Rp1137
(dp1138
g7
V241
p1139
sg9
VMiltank
p1140
sg11
VSw,Sh,
p1141
sg13
VRaid
p1142
sg15
V40
p1143
sg17
g1143
sg18
V33
p1144
sbag1
(g2
g3
Ntp1145
Rp1146
(dp1147
g7
V626
p1148
sg9
VBouffalant
p1149
sg11
VSw,Sh,
p1150
sg13
VRaid
p1151
sg15
V40
p1152
sg17
g1152
sg18
V33
p1153
sbag1
(g2
g3
Ntp1154
Rp1155
(dp1156
g7
V128
p1157
sg9
VTauros
p1158
sg11
VSw,Sh,
p1159
sg13
VRaid
p1160
sg15
V50
p1161
sg17
g1161
sg18
V34
p1162
sbag1
(g2
g3
Ntp1163
Rp1164
(dp1165
g7
V241
p1166
sg9
VMiltank
p1167
sg11
VSw,Sh,
p1168
sg13
VRaid
p1169
sg15
V50
p1170
sg17
g1170
sg18
V33
p1171
sbag1
(g2
g3
Ntp1172
Rp1173
(dp1174
g7
V626
p1175
sg9
VBouffalant
p1176
sg11
VSw,Sh,
p1177
sg13
VRaid
p1178
sg15
V50
p1179
sg17
g1179
sg18
V33
p1180
sbag1
(g2
g3
Ntp1181
Rp1182
(dp1183
g7
V128
p1184
sg9
VTauros
p1185
sg11
VSw,Sh,
p1186
sg13
VRaid
p1187
sg15
V60
p1188
sg17
g1188
sg18
V32
p1189
sbag1
(g2
g3
Ntp1190
Rp1191
(dp1192
g7
V128
p1193
sg9
VTauros
p1194
sg11
VSw,Sh,
p1195
sg13
VRaid
p1196
sg15
V60
p1197
sg17
g1197
sg18
V2
p1198
sbag1
(g2
g3
Ntp1199
Rp1200
(dp1201
g7
V241
p1202
sg9
VMiltank
p1203
sg11
VSw,Sh,
p1204
sg13
VRaid
p1205
sg15
V60
p1206
sg17
g1206
sg18
V33
p1207
sbag1
(g2
g3
Ntp1208
Rp1209
(dp1210
g7
V626
p1211
sg9
VBouffalant
p1212
sg11
VSw,Sh,
p1213
sg13
VRaid
p1214
sg15
V60
p1215
sg17
g1215
sg18
V33
p1216
sbag1
(g2
g3
Ntp1217
Rp1218
(dp1219
g7
V420
p1220
sg9
VCherubi
p1221
sg11
VSw,Sh,
p1222
sg13
VRaid
p1223
sg15
V17
p1224
sg17
g1224
sg18
V16
p1225
sbag1
(g2
g3
Ntp1226
Rp1227
(dp1228
g7
V590
p1229
sg9
VFoongus
p1230
sg11
VSw,Sh,
p1231
sg13
VRaid
p1232
sg15
V17
p1233
sg17
g1233
sg18
V16
p1234
sbag1
(g2
g3
Ntp1235
Rp1236
(dp1237
g7
V755
p1238
sg9
VMorelull
p1239
sg11
VSw,Sh,
p1240
sg13
VRaid
p1241
sg15
V17
p1242
sg17
g1242
sg18
V16
p1243
sbag1
(g2
g3
Ntp1244
Rp1245
(dp1246
g7
V819
p1247
sg9
VSkwovet
p1248
sg11
VSw,Sh,
p1249
sg13
VRaid
p1250
sg15
V17
p1251
sg17
g1251
sg18
V52
p1252
sbag1
(g2
g3
Ntp1253
Rp1254
(dp1255
g7
V420
p1256
sg9
VCherubi
p1257
sg11
VSw,Sh,
p1258
sg13
VRaid
p1259
sg15
V30
p1260
sg17
g1260
sg18
V16
p1261
sbag1
(g2
g3
Ntp1262
Rp1263
(dp1264
g7
V590
p1265
sg9
VFoongus
p1266
sg11
VSw,Sh,
p1267
sg13
VRaid
p1268
sg15
V30
p1269
sg17
g1269
sg18
V16
p1270
sbag1
(g2
g3
Ntp1271
Rp1272
(dp1273
g7
V756
p1274
sg9
VShiinotic
p1275
sg11
VSw,Sh,
p1276
sg13
VRaid
p1277
sg15
V30
p1278
sg17
g1278
sg18
V16
p1279
sbag1
(g2
g3
Ntp1280
Rp1281
(dp1282
g7
V819
p1283
sg9
VSkwovet
p1284
sg11
VSw,Sh,
p1285
sg13
VRaid
p1286
sg15
V30
p1287
sg17
g1287
sg18
V32
p1288
sbag1
(g2
g3
Ntp1289
Rp1290
(dp1291
g7
V820
p1292
sg9
VGreedent
p1293
sg11
VSw,Sh,
p1294
sg13
VRaid
p1295
sg15
V30
p1296
sg17
g1296
sg18
V20
p1297
sbag1
(g2
g3
Ntp1298
Rp1299
(dp1300
g7
V420
p1301
sg9
VCherubi
p1302
sg11
VSw,Sh,
p1303
sg13
VRaid
p1304
sg15
V40
p1305
sg17
g1305
sg18
V15
p1306
sbag1
(g2
g3
Ntp1307
Rp1308
(dp1309
g7
V591
p1310
sg9
VAmoonguss
p1311
sg11
VSw,Sh,
p1312
sg13
VRaid
p1313
sg15
V40
p1314
sg17
g1314
sg18
V15
p1315
sbag1
(g2
g3
Ntp1316
Rp1317
(dp1318
g7
V756
p1319
sg9
VShiinotic
p1320
sg11
VSw,Sh,
p1321
sg13
VRaid
p1322
sg15
V40
p1323
sg17
g1323
sg18
V15
p1324
sbag1
(g2
g3
Ntp1325
Rp1326
(dp1327
g7
V819
p1328
sg9
VSkwovet
p1329
sg11
VSw,Sh,
p1330
sg13
VRaid
p1331
sg15
V40
p1332
sg17
g1332
sg18
V35
p1333
sbag1
(g2
g3
Ntp1334
Rp1335
(dp1336
g7
V820
p1337
sg9
VGreedent
p1338
sg11
VSw,Sh,
p1339
sg13
VRaid
p1340
sg15
V40
p1341
sg17
g1341
sg18
V20
p1342
sbag1
(g2
g3
Ntp1343
Rp1344
(dp1345
g7
V420
p1346
sg9
VCherubi
p1347
sg11
VSw,Sh,
p1348
sg13
VRaid
p1349
sg15
V50
p1350
sg17
g1350
sg18
V15
p1351
sbag1
(g2
g3
Ntp1352
Rp1353
(dp1354
g7
V591
p1355
sg9
VAmoonguss
p1356
sg11
VSw,Sh,
p1357
sg13
VRaid
p1358
sg15
V50
p1359
sg17
g1359
sg18
V15
p1360
sbag1
(g2
g3
Ntp1361
Rp1362
(dp1363
g7
V756
p1364
sg9
VShiinotic
p1365
sg11
VSw,Sh,
p1366
sg13
VRaid
p1367
sg15
V50
p1368
sg17
g1368
sg18
V15
p1369
sbag1
(g2
g3
Ntp1370
Rp1371
(dp1372
g7
V819
p1373
sg9
VSkwovet
p1374
sg11
VSw,Sh,
p1375
sg13
VRaid
p1376
sg15
V50
p1377
sg17
g1377
sg18
V35
p1378
sbag1
(g2
g3
Ntp1379
Rp1380
(dp1381
g7
V820
p1382
sg9
VGreedent
p1383
sg11
VSw,Sh,
p1384
sg13
VRaid
p1385
sg15
V50
p1386
sg17
g1386
sg18
V20
p1387
sbag1
(g2
g3
Ntp1388
Rp1389
(dp1390
g7
V420
p1391
sg9
VCherubi
p1392
sg11
VSw,Sh,
p1393
sg13
VRaid
p1394
sg15
V60
p1395
sg17
g1395
sg18
V15
p1396
sbag1
(g2
g3
Ntp1397
Rp1398
(dp1399
g7
V591
p1400
sg9
VAmoonguss
p1401
sg11
VSw,Sh,
p1402
sg13
VRaid
p1403
sg15
V60
p1404
sg17
g1404
sg18
V15
p1405
sbag1
(g2
g3
Ntp1406
Rp1407
(dp1408
g7
V756
p1409
sg9
VShiinotic
p1410
sg11
VSw,Sh,
p1411
sg13
VRaid
p1412
sg15
V60
p1413
sg17
g1413
sg18
V15
p1414
sbag1
(g2
g3
Ntp1415
Rp1416
(dp1417
g7
V819
p1418
sg9
VSkwovet
p1419
sg11
VSw,Sh,
p1420
sg13
VRaid
p1421
sg15
V60
p1422
sg17
g1422
sg18
V33
p1423
sbag1
(g2
g3
Ntp1424
Rp1425
(dp1426
g7
V819
p1427
sg9
VSkwovet
p1428
sg11
VSw,Sh,
p1429
sg13
VRaid
p1430
sg15
V60
p1431
sg17
g1431
sg18
V2
p1432
sbag1
(g2
g3
Ntp1433
Rp1434
(dp1435
g7
V820
p1436
sg9
VGreedent
p1437
sg11
VSw,Sh,
p1438
sg13
VRaid
p1439
sg15
V60
p1440
sg17
g1440
sg18
V20
p1441
sbag1
(g2
g3
Ntp1442
Rp1443
(dp1444
g7
V446
p1445
sg9
VMunchlax
p1446
sg11
VSw,Sh,
p1447
sg13
VRaid
p1448
sg15
V17
p1449
sg17
g1449
sg18
V16
p1450
sbag1
(g2
g3
Ntp1451
Rp1452
(dp1453
g7
V572
p1454
sg9
VMinccino
p1455
sg11
VSw,Sh,
p1456
sg13
VRaid
p1457
sg15
V17
p1458
sg17
g1458
sg18
V16
p1459
sbag1
(g2
g3
Ntp1460
Rp1461
(dp1462
g7
V610
p1463
sg9
VAxew
p1464
sg11
VSw,Sh,
p1465
sg13
VRaid
p1466
sg15
V17
p1467
sg17
g1467
sg18
V16
p1468
sbag1
(g2
g3
Ntp1469
Rp1470
(dp1471
g7
V704
p1472
sg9
VGoomy
p1473
sg11
VSw,Sh,
p1474
sg13
VRaid
p1475
sg15
V17
p1476
sg17
g1476
sg18
V16
p1477
sbag1
(g2
g3
Ntp1478
Rp1479
(dp1480
g7
V759
p1481
sg9
VStufful
p1482
sg11
VSw,Sh,
p1483
sg13
VRaid
p1484
sg15
V17
p1485
sg17
g1485
sg18
V16
p1486
sbag1
(g2
g3
Ntp1487
Rp1488
(dp1489
g7
V884
p1490
sg9
VDuraludon
p1491
sg11
VSw,Sh,
p1492
sg13
VRaid
p1493
sg15
V17
p1494
sg17
g1494
sg18
V20
p1495
sbag1
(g2
g3
Ntp1496
Rp1497
(dp1498
g7
V143
p1499
sg9
VSnorlax
p1500
sg11
VSw,Sh,
p1501
sg13
VRaid
p1502
sg15
V30
p1503
sg17
g1503
sg18
V20
p1504
sbag1
(g2
g3
Ntp1505
Rp1506
(dp1507
g7
V572
p1508
sg9
VMinccino
p1509
sg11
VSw,Sh,
p1510
sg13
VRaid
p1511
sg15
V30
p1512
sg17
g1512
sg18
V15
p1513
sbag1
(g2
g3
Ntp1514
Rp1515
(dp1516
g7
V610
p1517
sg9
VAxew
p1518
sg11
VSw,Sh,
p1519
sg13
VRaid
p1520
sg15
V30
p1521
sg17
g1521
sg18
V15
p1522
sbag1
(g2
g3
Ntp1523
Rp1524
(dp1525
g7
V704
p1526
sg9
VGoomy
p1527
sg11
VSw,Sh,
p1528
sg13
VRaid
p1529
sg15
V30
p1530
sg17
g1530
sg18
V15
p1531
sbag1
(g2
g3
Ntp1532
Rp1533
(dp1534
g7
V759
p1535
sg9
VStufful
p1536
sg11
VSw,Sh,
p1537
sg13
VRaid
p1538
sg15
V30
p1539
sg17
g1539
sg18
V15
p1540
sbag1
(g2
g3
Ntp1541
Rp1542
(dp1543
g7
V884
p1544
sg9
VDuraludon
p1545
sg11
VSw,Sh,
p1546
sg13
VRaid
p1547
sg15
V30
p1548
sg17
g1548
sg18
V20
p1549
sbag1
(g2
g3
Ntp1550
Rp1551
(dp1552
g7
V143
p1553
sg9
VSnorlax
p1554
sg11
VSw,Sh,
p1555
sg13
VRaid
p1556
sg15
V40
p1557
sg17
g1557
sg18
V20
p1558
sbag1
(g2
g3
Ntp1559
Rp1560
(dp1561
g7
V573
p1562
sg9
VCinccino
p1563
sg11
VSw,Sh,
p1564
sg13
VRaid
p1565
sg15
V40
p1566
sg17
g1566
sg18
V15
p1567
sbag1
(g2
g3
Ntp1568
Rp1569
(dp1570
g7
V611
p1571
sg9
VFraxure
p1572
sg11
VSw,Sh,
p1573
sg13
VRaid
p1574
sg15
V40
p1575
sg17
g1575
sg18
V15
p1576
sbag1
(g2
g3
Ntp1577
Rp1578
(dp1579
g7
V705
p1580
sg9
VSliggoo
p1581
sg11
VSw,Sh,
p1582
sg13
VRaid
p1583
sg15
V40
p1584
sg17
g1584
sg18
V15
p1585
sbag1
(g2
g3
Ntp1586
Rp1587
(dp1588
g7
V760
p1589
sg9
VBewear
p1590
sg11
VSw,Sh,
p1591
sg13
VRaid
p1592
sg15
V40
p1593
sg17
g1593
sg18
V15
p1594
sbag1
(g2
g3
Ntp1595
Rp1596
(dp1597
g7
V884
p1598
sg9
VDuraludon
p1599
sg11
VSw,Sh,
p1600
sg13
VRaid
p1601
sg15
V40
p1602
sg17
g1602
sg18
V20
p1603
sbag1
(g2
g3
Ntp1604
Rp1605
(dp1606
g7
V143
p1607
sg9
VSnorlax
p1608
sg11
VSw,Sh,
p1609
sg13
VRaid
p1610
sg15
V50
p1611
sg17
g1611
sg18
V20
p1612
sbag1
(g2
g3
Ntp1613
Rp1614
(dp1615
g7
V573
p1616
sg9
VCinccino
p1617
sg11
VSw,Sh,
p1618
sg13
VRaid
p1619
sg15
V50
p1620
sg17
g1620
sg18
V15
p1621
sbag1
(g2
g3
Ntp1622
Rp1623
(dp1624
g7
V612
p1625
sg9
VHaxorus
p1626
sg11
VSw,Sh,
p1627
sg13
VRaid
p1628
sg15
V50
p1629
sg17
g1629
sg18
V15
p1630
sbag1
(g2
g3
Ntp1631
Rp1632
(dp1633
g7
V706
p1634
sg9
VGoodra
p1635
sg11
VSw,Sh,
p1636
sg13
VRaid
p1637
sg15
V50
p1638
sg17
g1638
sg18
V15
p1639
sbag1
(g2
g3
Ntp1640
Rp1641
(dp1642
g7
V760
p1643
sg9
VBewear
p1644
sg11
VSw,Sh,
p1645
sg13
VRaid
p1646
sg15
V50
p1647
sg17
g1647
sg18
V15
p1648
sbag1
(g2
g3
Ntp1649
Rp1650
(dp1651
g7
V884
p1652
sg9
VDuraludon
p1653
sg11
VSw,Sh,
p1654
sg13
VRaid
p1655
sg15
V50
p1656
sg17
g1656
sg18
V20
p1657
sbag1
(g2
g3
Ntp1658
Rp1659
(dp1660
g7
V143
p1661
sg9
VSnorlax
p1662
sg11
VSw,Sh,
p1663
sg13
VRaid
p1664
sg15
V60
p1665
sg17
g1665
sg18
V20
p1666
sbag1
(g2
g3
Ntp1667
Rp1668
(dp1669
g7
V573
p1670
sg9
VCinccino
p1671
sg11
VSw,Sh,
p1672
sg13
VRaid
p1673
sg15
V60
p1674
sg17
g1674
sg18
V15
p1675
sbag1
(g2
g3
Ntp1676
Rp1677
(dp1678
g7
V612
p1679
sg9
VHaxorus
p1680
sg11
VSw,Sh,
p1681
sg13
VRaid
p1682
sg15
V60
p1683
sg17
g1683
sg18
V15
p1684
sbag1
(g2
g3
Ntp1685
Rp1686
(dp1687
g7
V706
p1688
sg9
VGoodra
p1689
sg11
VSw,Sh,
p1690
sg13
VRaid
p1691
sg15
V60
p1692
sg17
g1692
sg18
V15
p1693
sbag1
(g2
g3
Ntp1694
Rp1695
(dp1696
g7
V760
p1697
sg9
VBewear
p1698
sg11
VSw,Sh,
p1699
sg13
VRaid
p1700
sg15
V60
p1701
sg17
g1701
sg18
V15
p1702
sbag1
(g2
g3
Ntp1703
Rp1704
(dp1705
g7
V884
p1706
sg9
VDuraludon
p1707
sg11
VSw,Sh,
p1708
sg13
VRaid
p1709
sg15
V60
p1710
sg17
g1710
sg18
V20
p1711
sbag1
(g2
g3
Ntp1712
Rp1713
(dp1714
g7
V037
p1715
sg9
VVulpix
p1716
sg11
VSw,Sh,
p1717
sg13
VRaid
p1718
sg15
V17
p1719
sg17
g1719
sg18
V25
p1720
sbag1
(g2
g3
Ntp1721
Rp1722
(dp1723
g7
V124
p1724
sg9
VJynx
p1725
sg11
VSw,Sh,
p1726
sg13
VRaid
p1727
sg15
V17
p1728
sg17
g1728
sg18
V10
p1729
sbag1
(g2
g3
Ntp1730
Rp1731
(dp1732
g7
V225
p1733
sg9
VDelibird
p1734
sg11
VSw,Sh,
p1735
sg13
VRaid
p1736
sg15
V17
p1737
sg17
g1737
sg18
V40
p1738
sbag1
(g2
g3
Ntp1739
Rp1740
(dp1741
g7
V607
p1742
sg9
VLitwick
p1743
sg11
VSw,Sh,
p1744
sg13
VRaid
p1745
sg15
V17
p1746
sg17
g1746
sg18
V15
p1747
sbag1
(g2
g3
Ntp1748
Rp1749
(dp1750
g7
V873
p1751
sg9
VFrosmoth
p1752
sg11
VSw,Sh,
p1753
sg13
VRaid
p1754
sg15
V17
p1755
sg17
g1755
sg18
V10
p1756
sbag1
(g2
g3
Ntp1757
Rp1758
(dp1759
g7
V037
p1760
sg9
VVulpix
p1761
sg11
VSw,Sh,
p1762
sg13
VRaid
p1763
sg15
V30
p1764
sg17
g1764
sg18
V25
p1765
sbag1
(g2
g3
Ntp1766
Rp1767
(dp1768
g7
V124
p1769
sg9
VJynx
p1770
sg11
VSw,Sh,
p1771
sg13
VRaid
p1772
sg15
V30
p1773
sg17
g1773
sg18
V10
p1774
sbag1
(g2
g3
Ntp1775
Rp1776
(dp1777
g7
V225
p1778
sg9
VDelibird
p1779
sg11
VSw,Sh,
p1780
sg13
VRaid
p1781
sg15
V30
p1782
sg17
g1782
sg18
V40
p1783
sbag1
(g2
g3
Ntp1784
Rp1785
(dp1786
g7
V608
p1787
sg9
VLampent
p1788
sg11
VSw,Sh,
p1789
sg13
VRaid
p1790
sg15
V30
p1791
sg17
g1791
sg18
V15
p1792
sbag1
(g2
g3
Ntp1793
Rp1794
(dp1795
g7
V873
p1796
sg9
VFrosmoth
p1797
sg11
VSw,Sh,
p1798
sg13
VRaid
p1799
sg15
V30
p1800
sg17
g1800
sg18
V10
p1801
sbag1
(g2
g3
Ntp1802
Rp1803
(dp1804
g7
V037
p1805
sg9
VVulpix
p1806
sg11
VSw,Sh,
p1807
sg13
VRaid
p1808
sg15
V40
p1809
sg17
g1809
sg18
V25
p1810
sbag1
(g2
g3
Ntp1811
Rp1812
(dp1813
g7
V124
p1814
sg9
VJynx
p1815
sg11
VSw,Sh,
p1816
sg13
VRaid
p1817
sg15
V40
p1818
sg17
g1818
sg18
V10
p1819
sbag1
(g2
g3
Ntp1820
Rp1821
(dp1822
g7
V225
p1823
sg9
VDelibird
p1824
sg11
VSw,Sh,
p1825
sg13
VRaid
p1826
sg15
V40
p1827
sg17
g1827
sg18
V40
p1828
sbag1
(g2
g3
Ntp1829
Rp1830
(dp1831
g7
V609
p1832
sg9
VChandelure
p1833
sg11
VSw,Sh,
p1834
sg13
VRaid
p1835
sg15
V40
p1836
sg17
g1836
sg18
V15
p1837
sbag1
(g2
g3
Ntp1838
Rp1839
(dp1840
g7
V873
p1841
sg9
VFrosmoth
p1842
sg11
VSw,Sh,
p1843
sg13
VRaid
p1844
sg15
V40
p1845
sg17
g1845
sg18
V10
p1846
sbag1
(g2
g3
Ntp1847
Rp1848
(dp1849
g7
V037
p1850
sg9
VVulpix
p1851
sg11
VSw,Sh,
p1852
sg13
VRaid
p1853
sg15
V50
p1854
sg17
g1854
sg18
V25
p1855
sbag1
(g2
g3
Ntp1856
Rp1857
(dp1858
g7
V124
p1859
sg9
VJynx
p1860
sg11
VSw,Sh,
p1861
sg13
VRaid
p1862
sg15
V50
p1863
sg17
g1863
sg18
V10
p1864
sbag1
(g2
g3
Ntp1865
Rp1866
(dp1867
g7
V225
p1868
sg9
VDelibird
p1869
sg11
VSw,Sh,
p1870
sg13
VRaid
p1871
sg15
V50
p1872
sg17
g1872
sg18
V40
p1873
sbag1
(g2
g3
Ntp1874
Rp1875
(dp1876
g7
V609
p1877
sg9
VChandelure
p1878
sg11
VSw,Sh,
p1879
sg13
VRaid
p1880
sg15
V50
p1881
sg17
g1881
sg18
V15
p1882
sbag1
(g2
g3
Ntp1883
Rp1884
(dp1885
g7
V873
p1886
sg9
VFrosmoth
p1887
sg11
VSw,Sh,
p1888
sg13
VRaid
p1889
sg15
V50
p1890
sg17
g1890
sg18
V10
p1891
sbag1
(g2
g3
Ntp1892
Rp1893
(dp1894
g7
V037
p1895
sg9
VVulpix
p1896
sg11
VSw,Sh,
p1897
sg13
VRaid
p1898
sg15
V60
p1899
sg17
g1899
sg18
V23
p1900
sbag1
(g2
g3
Ntp1901
Rp1902
(dp1903
g7
V037
p1904
sg9
VVulpix
p1905
sg11
VSw,Sh,
p1906
sg13
VRaid
p1907
sg15
V60
p1908
sg17
g1908
sg18
V2
p1909
sbag1
(g2
g3
Ntp1910
Rp1911
(dp1912
g7
V124
p1913
sg9
VJynx
p1914
sg11
VSw,Sh,
p1915
sg13
VRaid
p1916
sg15
V60
p1917
sg17
g1917
sg18
V10
p1918
sbag1
(g2
g3
Ntp1919
Rp1920
(dp1921
g7
V225
p1922
sg9
VDelibird
p1923
sg11
VSw,Sh,
p1924
sg13
VRaid
p1925
sg15
V60
p1926
sg17
g1926
sg18
V40
p1927
sbag1
(g2
g3
Ntp1928
Rp1929
(dp1930
g7
V609
p1931
sg9
VChandelure
p1932
sg11
VSw,Sh,
p1933
sg13
VRaid
p1934
sg15
V60
p1935
sg17
g1935
sg18
V15
p1936
sbag1
(g2
g3
Ntp1937
Rp1938
(dp1939
g7
V873
p1940
sg9
VFrosmoth
p1941
sg11
VSw,Sh,
p1942
sg13
VRaid
p1943
sg15
V60
p1944
sg17
g1944
sg18
V10
p1945
sbag1
(g2
g3
Ntp1946
Rp1947
(dp1948
g7
V077
p1949
sg9
VPonyta
p1950
sg11
VSw,Sh,
p1951
sg13
VRaid
p1952
sg15
V17
p1953
sg17
g1953
sg18
V16
p1954
sbag1
(g2
g3
Ntp1955
Rp1956
(dp1957
g7
V131
p1958
sg9
VLapras
p1959
sg11
VSw,Sh,
p1960
sg13
VRaid
p1961
sg15
V17
p1962
sg17
g1962
sg18
V20
p1963
sbag1
(g2
g3
Ntp1964
Rp1965
(dp1966
g7
V461
p1967
sg9
VWeavile
p1968
sg11
VSw,Sh,
p1969
sg13
VRaid
p1970
sg15
V17
p1971
sg17
g1971
sg18
V16
p1972
sbag1
(g2
g3
Ntp1973
Rp1974
(dp1975
g7
V712
p1976
sg9
VBergmite
p1977
sg11
VSw,Sh,
p1978
sg13
VRaid
p1979
sg15
V17
p1980
sg17
g1980
sg18
V16
p1981
sbag1
(g2
g3
Ntp1982
Rp1983
(dp1984
g7
V776
p1985
sg9
VTurtonator
p1986
sg11
VSw,Sh,
p1987
sg13
VRaid
p1988
sg15
V17
p1989
sg17
g1989
sg18
V16
p1990
sbag1
(g2
g3
Ntp1991
Rp1992
(dp1993
g7
V850
p1994
sg9
VSizzlipede
p1995
sg11
VSw,Sh,
p1996
sg13
VRaid
p1997
sg15
V17
p1998
sg17
g1998
sg18
V16
p1999
sbag1
(g2
g3
Ntp2000
Rp2001
(dp2002
g7
V077
p2003
sg9
VPonyta
p2004
sg11
VSw,Sh,
p2005
sg13
VRaid
p2006
sg15
V30
p2007
sg17
g2007
sg18
V15
p2008
sbag1
(g2
g3
Ntp2009
Rp2010
(dp2011
g7
V131
p2012
sg9
VLapras
p2013
sg11
VSw,Sh,
p2014
sg13
VRaid
p2015
sg15
V30
p2016
sg17
g2016
sg18
V20
p2017
sbag1
(g2
g3
Ntp2018
Rp2019
(dp2020
g7
V461
p2021
sg9
VWeavile
p2022
sg11
VSw,Sh,
p2023
sg13
VRaid
p2024
sg15
V30
p2025
sg17
g2025
sg18
V15
p2026
sbag1
(g2
g3
Ntp2027
Rp2028
(dp2029
g7
V712
p2030
sg9
VBergmite
p2031
sg11
VSw,Sh,
p2032
sg13
VRaid
p2033
sg15
V30
p2034
sg17
g2034
sg18
V15
p2035
sbag1
(g2
g3
Ntp2036
Rp2037
(dp2038
g7
V776
p2039
sg9
VTurtonator
p2040
sg11
VSw,Sh,
p2041
sg13
VRaid
p2042
sg15
V30
p2043
sg17
g2043
sg18
V15
p2044
sbag1
(g2
g3
Ntp2045
Rp2046
(dp2047
g7
V851
p2048
sg9
VCentiskorch
p2049
sg11
VSw,Sh,
p2050
sg13
VRaid
p2051
sg15
V30
p2052
sg17
g2052
sg18
V20
p2053
sbag1
(g2
g3
Ntp2054
Rp2055
(dp2056
g7
V078
p2057
sg9
VRapidash
p2058
sg11
VSw,Sh,
p2059
sg13
VRaid
p2060
sg15
V40
p2061
sg17
g2061
sg18
V15
p2062
sbag1
(g2
g3
Ntp2063
Rp2064
(dp2065
g7
V131
p2066
sg9
VLapras
p2067
sg11
VSw,Sh,
p2068
sg13
VRaid
p2069
sg15
V40
p2070
sg17
g2070
sg18
V20
p2071
sbag1
(g2
g3
Ntp2072
Rp2073
(dp2074
g7
V461
p2075
sg9
VWeavile
p2076
sg11
VSw,Sh,
p2077
sg13
VRaid
p2078
sg15
V40
p2079
sg17
g2079
sg18
V15
p2080
sbag1
(g2
g3
Ntp2081
Rp2082
(dp2083
g7
V713
p2084
sg9
VAvalugg
p2085
sg11
VSw,Sh,
p2086
sg13
VRaid
p2087
sg15
V40
p2088
sg17
g2088
sg18
V15
p2089
sbag1
(g2
g3
Ntp2090
Rp2091
(dp2092
g7
V776
p2093
sg9
VTurtonator
p2094
sg11
VSw,Sh,
p2095
sg13
VRaid
p2096
sg15
V40
p2097
sg17
g2097
sg18
V15
p2098
sbag1
(g2
g3
Ntp2099
Rp2100
(dp2101
g7
V851
p2102
sg9
VCentiskorch
p2103
sg11
VSw,Sh,
p2104
sg13
VRaid
p2105
sg15
V40
p2106
sg17
g2106
sg18
V20
p2107
sbag1
(g2
g3
Ntp2108
Rp2109
(dp2110
g7
V078
p2111
sg9
VRapidash
p2112
sg11
VSw,Sh,
p2113
sg13
VRaid
p2114
sg15
V50
p2115
sg17
g2115
sg18
V15
p2116
sbag1
(g2
g3
Ntp2117
Rp2118
(dp2119
g7
V131
p2120
sg9
VLapras
p2121
sg11
VSw,Sh,
p2122
sg13
VRaid
p2123
sg15
V50
p2124
sg17
g2124
sg18
V20
p2125
sbag1
(g2
g3
Ntp2126
Rp2127
(dp2128
g7
V461
p2129
sg9
VWeavile
p2130
sg11
VSw,Sh,
p2131
sg13
VRaid
p2132
sg15
V50
p2133
sg17
g2133
sg18
V15
p2134
sbag1
(g2
g3
Ntp2135
Rp2136
(dp2137
g7
V713
p2138
sg9
VAvalugg
p2139
sg11
VSw,Sh,
p2140
sg13
VRaid
p2141
sg15
V50
p2142
sg17
g2142
sg18
V15
p2143
sbag1
(g2
g3
Ntp2144
Rp2145
(dp2146
g7
V776
p2147
sg9
VTurtonator
p2148
sg11
VSw,Sh,
p2149
sg13
VRaid
p2150
sg15
V50
p2151
sg17
g2151
sg18
V15
p2152
sbag1
(g2
g3
Ntp2153
Rp2154
(dp2155
g7
V851
p2156
sg9
VCentiskorch
p2157
sg11
VSw,Sh,
p2158
sg13
VRaid
p2159
sg15
V50
p2160
sg17
g2160
sg18
V20
p2161
sbag1
(g2
g3
Ntp2162
Rp2163
(dp2164
g7
V078
p2165
sg9
VRapidash
p2166
sg11
VSw,Sh,
p2167
sg13
VRaid
p2168
sg15
V60
p2169
sg17
g2169
sg18
V15
p2170
sbag1
(g2
g3
Ntp2171
Rp2172
(dp2173
g7
V131
p2174
sg9
VLapras
p2175
sg11
VSw,Sh,
p2176
sg13
VRaid
p2177
sg15
V60
p2178
sg17
g2178
sg18
V20
p2179
sbag1
(g2
g3
Ntp2180
Rp2181
(dp2182
g7
V461
p2183
sg9
VWeavile
p2184
sg11
VSw,Sh,
p2185
sg13
VRaid
p2186
sg15
V60
p2187
sg17
g2187
sg18
V15
p2188
sbag1
(g2
g3
Ntp2189
Rp2190
(dp2191
g7
V713
p2192
sg9
VAvalugg
p2193
sg11
VSw,Sh,
p2194
sg13
VRaid
p2195
sg15
V60
p2196
sg17
g2196
sg18
V15
p2197
sbag1
(g2
g3
Ntp2198
Rp2199
(dp2200
g7
V776
p2201
sg9
VTurtonator
p2202
sg11
VSw,Sh,
p2203
sg13
VRaid
p2204
sg15
V60
p2205
sg17
g2205
sg18
V15
p2206
sbag1
(g2
g3
Ntp2207
Rp2208
(dp2209
g7
V851
p2210
sg9
VCentiskorch
p2211
sg11
VSw,Sh,
p2212
sg13
VRaid
p2213
sg15
V60
p2214
sg17
g2214
sg18
V20
p2215
sbag1
(g2
g3
Ntp2216
Rp2217
(dp2218
g7
V420
p2219
sg9
VCherubi
p2220
sg11
VSw,Sh,
p2221
sg13
VRaid
p2222
sg15
V17
p2223
sg17
g2223
sg18
V16
p2224
sbag1
(g2
g3
Ntp2225
Rp2226
(dp2227
g7
V590
p2228
sg9
VFoongus
p2229
sg11
VSw,Sh,
p2230
sg13
VRaid
p2231
sg15
V17
p2232
sg17
g2232
sg18
V16
p2233
sbag1
(g2
g3
Ntp2234
Rp2235
(dp2236
g7
V755
p2237
sg9
VMorelull
p2238
sg11
VSw,Sh,
p2239
sg13
VRaid
p2240
sg15
V17
p2241
sg17
g2241
sg18
V16
p2242
sbag1
(g2
g3
Ntp2243
Rp2244
(dp2245
g7
V819
p2246
sg9
VSkwovet
p2247
sg11
VSw,Sh,
p2248
sg13
VRaid
p2249
sg15
V17
p2250
sg17
g2250
sg18
V52
p2251
sbag1
(g2
g3
Ntp2252
Rp2253
(dp2254
g7
V420
p2255
sg9
VCherubi
p2256
sg11
VSw,Sh,
p2257
sg13
VRaid
p2258
sg15
V30
p2259
sg17
g2259
sg18
V16
p2260
sbag1
(g2
g3
Ntp2261
Rp2262
(dp2263
g7
V590
p2264
sg9
VFoongus
p2265
sg11
VSw,Sh,
p2266
sg13
VRaid
p2267
sg15
V30
p2268
sg17
g2268
sg18
V16
p2269
sbag1
(g2
g3
Ntp2270
Rp2271
(dp2272
g7
V756
p2273
sg9
VShiinotic
p2274
sg11
VSw,Sh,
p2275
sg13
VRaid
p2276
sg15
V30
p2277
sg17
g2277
sg18
V16
p2278
sbag1
(g2
g3
Ntp2279
Rp2280
(dp2281
g7
V819
p2282
sg9
VSkwovet
p2283
sg11
VSw,Sh,
p2284
sg13
VRaid
p2285
sg15
V30
p2286
sg17
g2286
sg18
V32
p2287
sbag1
(g2
g3
Ntp2288
Rp2289
(dp2290
g7
V820
p2291
sg9
VGreedent
p2292
sg11
VSw,Sh,
p2293
sg13
VRaid
p2294
sg15
V30
p2295
sg17
g2295
sg18
V20
p2296
sbag1
(g2
g3
Ntp2297
Rp2298
(dp2299
g7
V420
p2300
sg9
VCherubi
p2301
sg11
VSw,Sh,
p2302
sg13
VRaid
p2303
sg15
V40
p2304
sg17
g2304
sg18
V15
p2305
sbag1
(g2
g3
Ntp2306
Rp2307
(dp2308
g7
V591
p2309
sg9
VAmoonguss
p2310
sg11
VSw,Sh,
p2311
sg13
VRaid
p2312
sg15
V40
p2313
sg17
g2313
sg18
V15
p2314
sbag1
(g2
g3
Ntp2315
Rp2316
(dp2317
g7
V756
p2318
sg9
VShiinotic
p2319
sg11
VSw,Sh,
p2320
sg13
VRaid
p2321
sg15
V40
p2322
sg17
g2322
sg18
V15
p2323
sbag1
(g2
g3
Ntp2324
Rp2325
(dp2326
g7
V819
p2327
sg9
VSkwovet
p2328
sg11
VSw,Sh,
p2329
sg13
VRaid
p2330
sg15
V40
p2331
sg17
g2331
sg18
V35
p2332
sbag1
(g2
g3
Ntp2333
Rp2334
(dp2335
g7
V820
p2336
sg9
VGreedent
p2337
sg11
VSw,Sh,
p2338
sg13
VRaid
p2339
sg15
V40
p2340
sg17
g2340
sg18
V20
p2341
sbag1
(g2
g3
Ntp2342
Rp2343
(dp2344
g7
V420
p2345
sg9
VCherubi
p2346
sg11
VSw,Sh,
p2347
sg13
VRaid
p2348
sg15
V50
p2349
sg17
g2349
sg18
V15
p2350
sbag1
(g2
g3
Ntp2351
Rp2352
(dp2353
g7
V591
p2354
sg9
VAmoonguss
p2355
sg11
VSw,Sh,
p2356
sg13
VRaid
p2357
sg15
V50
p2358
sg17
g2358
sg18
V15
p2359
sbag1
(g2
g3
Ntp2360
Rp2361
(dp2362
g7
V756
p2363
sg9
VShiinotic
p2364
sg11
VSw,Sh,
p2365
sg13
VRaid
p2366
sg15
V50
p2367
sg17
g2367
sg18
V15
p2368
sbag1
(g2
g3
Ntp2369
Rp2370
(dp2371
g7
V819
p2372
sg9
VSkwovet
p2373
sg11
VSw,Sh,
p2374
sg13
VRaid
p2375
sg15
V50
p2376
sg17
g2376
sg18
V35
p2377
sbag1
(g2
g3
Ntp2378
Rp2379
(dp2380
g7
V820
p2381
sg9
VGreedent
p2382
sg11
VSw,Sh,
p2383
sg13
VRaid
p2384
sg15
V50
p2385
sg17
g2385
sg18
V20
p2386
sbag1
(g2
g3
Ntp2387
Rp2388
(dp2389
g7
V420
p2390
sg9
VCherubi
p2391
sg11
VSw,Sh,
p2392
sg13
VRaid
p2393
sg15
V60
p2394
sg17
g2394
sg18
V15
p2395
sbag1
(g2
g3
Ntp2396
Rp2397
(dp2398
g7
V591
p2399
sg9
VAmoonguss
p2400
sg11
VSw,Sh,
p2401
sg13
VRaid
p2402
sg15
V60
p2403
sg17
g2403
sg18
V15
p2404
sbag1
(g2
g3
Ntp2405
Rp2406
(dp2407
g7
V756
p2408
sg9
VShiinotic
p2409
sg11
VSw,Sh,
p2410
sg13
VRaid
p2411
sg15
V60
p2412
sg17
g2412
sg18
V15
p2413
sbag1
(g2
g3
Ntp2414
Rp2415
(dp2416
g7
V819
p2417
sg9
VSkwovet
p2418
sg11
VSw,Sh,
p2419
sg13
VRaid
p2420
sg15
V60
p2421
sg17
g2421
sg18
V33
p2422
sbag1
(g2
g3
Ntp2423
Rp2424
(dp2425
g7
V819
p2426
sg9
VSkwovet
p2427
sg11
VSw,Sh,
p2428
sg13
VRaid
p2429
sg15
V60
p2430
sg17
g2430
sg18
V2
p2431
sbag1
(g2
g3
Ntp2432
Rp2433
(dp2434
g7
V820
p2435
sg9
VGreedent
p2436
sg11
VSw,Sh,
p2437
sg13
VRaid
p2438
sg15
V60
p2439
sg17
g2439
sg18
V20
p2440
sbag1
(g2
g3
Ntp2441
Rp2442
(dp2443
g7
V012
p2444
sg9
VButterfree
p2445
sg11
VSw,Sh,
p2446
sg13
VRaid
p2447
sg15
V17
p2448
sg17
g2448
sg18
V20
p2449
sbag1
(g2
g3
Ntp2450
Rp2451
(dp2452
g7
V043
p2453
sg9
VOddish
p2454
sg11
VSw,Sh,
p2455
sg13
VRaid
p2456
sg15
V17
p2457
sg17
g2457
sg18
V16
p2458
sbag1
(g2
g3
Ntp2459
Rp2460
(dp2461
g7
V213
p2462
sg9
VShuckle
p2463
sg11
VSw,Sh,
p2464
sg13
VRaid
p2465
sg15
V17
p2466
sg17
g2466
sg18
V16
p2467
sbag1
(g2
g3
Ntp2468
Rp2469
(dp2470
g7
V290
p2471
sg9
VNincada
p2472
sg11
VSw,Sh,
p2473
sg13
VRaid
p2474
sg15
V17
p2475
sg17
g2475
sg18
V16
p2476
sbag1
(g2
g3
Ntp2477
Rp2478
(dp2479
g7
V453
p2480
sg9
VCroagunk
p2481
sg11
VSw,Sh,
p2482
sg13
VRaid
p2483
sg15
V17
p2484
sg17
g2484
sg18
V16
p2485
sbag1
(g2
g3
Ntp2486
Rp2487
(dp2488
g7
V568
p2489
sg9
VTrubbish
p2490
sg11
VSw,Sh,
p2491
sg13
VRaid
p2492
sg15
V17
p2493
sg17
g2493
sg18
V16
p2494
sbag1
(g2
g3
Ntp2495
Rp2496
(dp2497
g7
V012
p2498
sg9
VButterfree
p2499
sg11
VSw,Sh,
p2500
sg13
VRaid
p2501
sg15
V30
p2502
sg17
g2502
sg18
V20
p2503
sbag1
(g2
g3
Ntp2504
Rp2505
(dp2506
g7
V045
p2507
sg9
VVileplume
p2508
sg11
VSw,Sh,
p2509
sg13
VRaid
p2510
sg15
V30
p2511
sg17
g2511
sg18
V16
p2512
sbag1
(g2
g3
Ntp2513
Rp2514
(dp2515
g7
V213
p2516
sg9
VShuckle
p2517
sg11
VSw,Sh,
p2518
sg13
VRaid
p2519
sg15
V30
p2520
sg17
g2520
sg18
V16
p2521
sbag1
(g2
g3
Ntp2522
Rp2523
(dp2524
g7
V291
p2525
sg9
VNinjask
p2526
sg11
VSw,Sh,
p2527
sg13
VRaid
p2528
sg15
V30
p2529
sg17
g2529
sg18
V16
p2530
sbag1
(g2
g3
Ntp2531
Rp2532
(dp2533
g7
V453
p2534
sg9
VCroagunk
p2535
sg11
VSw,Sh,
p2536
sg13
VRaid
p2537
sg15
V30
p2538
sg17
g2538
sg18
V16
p2539
sbag1
(g2
g3
Ntp2540
Rp2541
(dp2542
g7
V568
p2543
sg9
VTrubbish
p2544
sg11
VSw,Sh,
p2545
sg13
VRaid
p2546
sg15
V30
p2547
sg17
g2547
sg18
V16
p2548
sbag1
(g2
g3
Ntp2549
Rp2550
(dp2551
g7
V012
p2552
sg9
VButterfree
p2553
sg11
VSw,Sh,
p2554
sg13
VRaid
p2555
sg15
V40
p2556
sg17
g2556
sg18
V20
p2557
sbag1
(g2
g3
Ntp2558
Rp2559
(dp2560
g7
V045
p2561
sg9
VVileplume
p2562
sg11
VSw,Sh,
p2563
sg13
VRaid
p2564
sg15
V40
p2565
sg17
g2565
sg18
V15
p2566
sbag1
(g2
g3
Ntp2567
Rp2568
(dp2569
g7
V213
p2570
sg9
VShuckle
p2571
sg11
VSw,Sh,
p2572
sg13
VRaid
p2573
sg15
V40
p2574
sg17
g2574
sg18
V15
p2575
sbag1
(g2
g3
Ntp2576
Rp2577
(dp2578
g7
V291
p2579
sg9
VNinjask
p2580
sg11
VSw,Sh,
p2581
sg13
VRaid
p2582
sg15
V40
p2583
sg17
g2583
sg18
V15
p2584
sbag1
(g2
g3
Ntp2585
Rp2586
(dp2587
g7
V454
p2588
sg9
VToxicroak
p2589
sg11
VSw,Sh,
p2590
sg13
VRaid
p2591
sg15
V40
p2592
sg17
g2592
sg18
V15
p2593
sbag1
(g2
g3
Ntp2594
Rp2595
(dp2596
g7
V569
p2597
sg9
VGarbodor
p2598
sg11
VSw,Sh,
p2599
sg13
VRaid
p2600
sg15
V40
p2601
sg17
g2601
sg18
V20
p2602
sbag1
(g2
g3
Ntp2603
Rp2604
(dp2605
g7
V012
p2606
sg9
VButterfree
p2607
sg11
VSw,Sh,
p2608
sg13
VRaid
p2609
sg15
V50
p2610
sg17
g2610
sg18
V20
p2611
sbag1
(g2
g3
Ntp2612
Rp2613
(dp2614
g7
V045
p2615
sg9
VVileplume
p2616
sg11
VSw,Sh,
p2617
sg13
VRaid
p2618
sg15
V50
p2619
sg17
g2619
sg18
V15
p2620
sbag1
(g2
g3
Ntp2621
Rp2622
(dp2623
g7
V213
p2624
sg9
VShuckle
p2625
sg11
VSw,Sh,
p2626
sg13
VRaid
p2627
sg15
V50
p2628
sg17
g2628
sg18
V15
p2629
sbag1
(g2
g3
Ntp2630
Rp2631
(dp2632
g7
V291
p2633
sg9
VNinjask
p2634
sg11
VSw,Sh,
p2635
sg13
VRaid
p2636
sg15
V50
p2637
sg17
g2637
sg18
V15
p2638
sbag1
(g2
g3
Ntp2639
Rp2640
(dp2641
g7
V454
p2642
sg9
VToxicroak
p2643
sg11
VSw,Sh,
p2644
sg13
VRaid
p2645
sg15
V50
p2646
sg17
g2646
sg18
V15
p2647
sbag1
(g2
g3
Ntp2648
Rp2649
(dp2650
g7
V569
p2651
sg9
VGarbodor
p2652
sg11
VSw,Sh,
p2653
sg13
VRaid
p2654
sg15
V50
p2655
sg17
g2655
sg18
V20
p2656
sbag1
(g2
g3
Ntp2657
Rp2658
(dp2659
g7
V012
p2660
sg9
VButterfree
p2661
sg11
VSw,Sh,
p2662
sg13
VRaid
p2663
sg15
V60
p2664
sg17
g2664
sg18
V20
p2665
sbag1
(g2
g3
Ntp2666
Rp2667
(dp2668
g7
V045
p2669
sg9
VVileplume
p2670
sg11
VSw,Sh,
p2671
sg13
VRaid
p2672
sg15
V60
p2673
sg17
g2673
sg18
V15
p2674
sbag1
(g2
g3
Ntp2675
Rp2676
(dp2677
g7
V213
p2678
sg9
VShuckle
p2679
sg11
VSw,Sh,
p2680
sg13
VRaid
p2681
sg15
V60
p2682
sg17
g2682
sg18
V15
p2683
sbag1
(g2
g3
Ntp2684
Rp2685
(dp2686
g7
V291
p2687
sg9
VNinjask
p2688
sg11
VSw,Sh,
p2689
sg13
VRaid
p2690
sg15
V60
p2691
sg17
g2691
sg18
V15
p2692
sbag1
(g2
g3
Ntp2693
Rp2694
(dp2695
g7
V454
p2696
sg9
VToxicroak
p2697
sg11
VSw,Sh,
p2698
sg13
VRaid
p2699
sg15
V60
p2700
sg17
g2700
sg18
V15
p2701
sbag1
(g2
g3
Ntp2702
Rp2703
(dp2704
g7
V569
p2705
sg9
VGarbodor
p2706
sg11
VSw,Sh,
p2707
sg13
VRaid
p2708
sg15
V60
p2709
sg17
g2709
sg18
V20
p2710
sbag1
(g2
g3
Ntp2711
Rp2712
(dp2713
g7
V562
p2714
sg9
VYamask
p2715
sg11
VSw,Sh,
p2716
sg13
VRaid
p2717
sg15
V17
p2718
sg17
g2718
sg18
V25
p2719
sbag1
(g2
g3
Ntp2720
Rp2721
(dp2722
g7
V709
p2723
sg9
VTrevenant
p2724
sg11
VSw,Sh,
p2725
sg13
VRaid
p2726
sg15
V17
p2727
sg17
g2727
sg18
V25
p2728
sbag1
(g2
g3
Ntp2729
Rp2730
(dp2731
g7
V778
p2732
sg9
VMimikyu
p2733
sg11
VSw,Sh,
p2734
sg13
VRaid
p2735
sg15
V17
p2736
sg17
g2736
sg18
V25
p2737
sbag1
(g2
g3
Ntp2738
Rp2739
(dp2740
g7
V855
p2741
sg9
VPolteageist
p2742
sg11
VSw,Sh,
p2743
sg13
VRaid
p2744
sg15
V17
p2745
sg17
g2745
sg18
V25
p2746
sbag1
(g2
g3
Ntp2747
Rp2748
(dp2749
g7
V563
p2750
sg9
VCofagrigus
p2751
sg11
VSw,Sh,
p2752
sg13
VRaid
p2753
sg15
V30
p2754
sg17
g2754
sg18
V20
p2755
sbag1
(g2
g3
Ntp2756
Rp2757
(dp2758
g7
V709
p2759
sg9
VTrevenant
p2760
sg11
VSw,Sh,
p2761
sg13
VRaid
p2762
sg15
V30
p2763
sg17
g2763
sg18
V20
p2764
sbag1
(g2
g3
Ntp2765
Rp2766
(dp2767
g7
V710
p2768
sg9
VPumpkaboo
p2769
sg11
VSw,Sh,
p2770
sg13
VRaid
p2771
sg15
V30
p2772
sg17
g2772
sg18
V20
p2773
sbag1
(g2
g3
Ntp2774
Rp2775
(dp2776
g7
V778
p2777
sg9
VMimikyu
p2778
sg11
VSw,Sh,
p2779
sg13
VRaid
p2780
sg15
V30
p2781
sg17
g2781
sg18
V20
p2782
sbag1
(g2
g3
Ntp2783
Rp2784
(dp2785
g7
V855
p2786
sg9
VPolteageist
p2787
sg11
VSw,Sh,
p2788
sg13
VRaid
p2789
sg15
V30
p2790
sg17
g2790
sg18
V20
p2791
sbag1
(g2
g3
Ntp2792
Rp2793
(dp2794
g7
V563
p2795
sg9
VCofagrigus
p2796
sg11
VSw,Sh,
p2797
sg13
VRaid
p2798
sg15
V40
p2799
sg17
g2799
sg18
V20
p2800
sbag1
(g2
g3
Ntp2801
Rp2802
(dp2803
g7
V709
p2804
sg9
VTrevenant
p2805
sg11
VSw,Sh,
p2806
sg13
VRaid
p2807
sg15
V40
p2808
sg17
g2808
sg18
V20
p2809
sbag1
(g2
g3
Ntp2810
Rp2811
(dp2812
g7
V710
p2813
sg9
VPumpkaboo
p2814
sg11
VSw,Sh,
p2815
sg13
VRaid
p2816
sg15
V40
p2817
sg17
g2817
sg18
V20
p2818
sbag1
(g2
g3
Ntp2819
Rp2820
(dp2821
g7
V778
p2822
sg9
VMimikyu
p2823
sg11
VSw,Sh,
p2824
sg13
VRaid
p2825
sg15
V40
p2826
sg17
g2826
sg18
V20
p2827
sbag1
(g2
g3
Ntp2828
Rp2829
(dp2830
g7
V855
p2831
sg9
VPolteageist
p2832
sg11
VSw,Sh,
p2833
sg13
VRaid
p2834
sg15
V40
p2835
sg17
g2835
sg18
V20
p2836
sbag1
(g2
g3
Ntp2837
Rp2838
(dp2839
g7
V563
p2840
sg9
VCofagrigus
p2841
sg11
VSw,Sh,
p2842
sg13
VRaid
p2843
sg15
V50
p2844
sg17
g2844
sg18
V20
p2845
sbag1
(g2
g3
Ntp2846
Rp2847
(dp2848
g7
V709
p2849
sg9
VTrevenant
p2850
sg11
VSw,Sh,
p2851
sg13
VRaid
p2852
sg15
V50
p2853
sg17
g2853
sg18
V20
p2854
sbag1
(g2
g3
Ntp2855
Rp2856
(dp2857
g7
V711
p2858
sg9
VGourgeist
p2859
sg11
VSw,Sh,
p2860
sg13
VRaid
p2861
sg15
V50
p2862
sg17
g2862
sg18
V8
p2863
sbag1
(g2
g3
Ntp2864
Rp2865
(dp2866
g7
V711
p2867
sg9
VGourgeist
p2868
sg11
VSw,Sh,
p2869
sg13
VRaid
p2870
sg15
V50
p2871
sg17
g2871
sg18
V5
p2872
sbag1
(g2
g3
Ntp2873
Rp2874
(dp2875
g7
V711
p2876
sg9
VGourgeist
p2877
sg11
VSw,Sh,
p2878
sg13
VRaid
p2879
sg15
V50
p2880
sg17
g2880
sg18
V5
p2881
sbag1
(g2
g3
Ntp2882
Rp2883
(dp2884
g7
V711
p2885
sg9
VGourgeist
p2886
sg11
VSw,Sh,
p2887
sg13
VRaid
p2888
sg15
V50
p2889
sg17
g2889
sg18
V2
p2890
sbag1
(g2
g3
Ntp2891
Rp2892
(dp2893
g7
V778
p2894
sg9
VMimikyu
p2895
sg11
VSw,Sh,
p2896
sg13
VRaid
p2897
sg15
V50
p2898
sg17
g2898
sg18
V20
p2899
sbag1
(g2
g3
Ntp2900
Rp2901
(dp2902
g7
V855
p2903
sg9
VPolteageist
p2904
sg11
VSw,Sh,
p2905
sg13
VRaid
p2906
sg15
V50
p2907
sg17
g2907
sg18
V20
p2908
sbag1
(g2
g3
Ntp2909
Rp2910
(dp2911
g7
V563
p2912
sg9
VCofagrigus
p2913
sg11
VSw,Sh,
p2914
sg13
VRaid
p2915
sg15
V60
p2916
sg17
g2916
sg18
V20
p2917
sbag1
(g2
g3
Ntp2918
Rp2919
(dp2920
g7
V709
p2921
sg9
VTrevenant
p2922
sg11
VSw,Sh,
p2923
sg13
VRaid
p2924
sg15
V60
p2925
sg17
g2925
sg18
V20
p2926
sbag1
(g2
g3
Ntp2927
Rp2928
(dp2929
g7
V711
p2930
sg9
VGourgeist
p2931
sg11
VSw,Sh,
p2932
sg13
VRaid
p2933
sg15
V60
p2934
sg17
g2934
sg18
V10
p2935
sbag1
(g2
g3
Ntp2936
Rp2937
(dp2938
g7
V711
p2939
sg9
VGourgeist
p2940
sg11
VSw,Sh,
p2941
sg13
VRaid
p2942
sg15
V60
p2943
sg17
g2943
sg18
V1
p2944
sbag1
(g2
g3
Ntp2945
Rp2946
(dp2947
g7
V711
p2948
sg9
VGourgeist
p2949
sg11
VSw,Sh,
p2950
sg13
VRaid
p2951
sg15
V60
p2952
sg17
g2952
sg18
V8
p2953
sbag1
(g2
g3
Ntp2954
Rp2955
(dp2956
g7
V711
p2957
sg9
VGourgeist
p2958
sg11
VSw,Sh,
p2959
sg13
VRaid
p2960
sg15
V60
p2961
sg17
g2961
sg18
V1
p2962
sbag1
(g2
g3
Ntp2963
Rp2964
(dp2965
g7
V778
p2966
sg9
VMimikyu
p2967
sg11
VSw,Sh,
p2968
sg13
VRaid
p2969
sg15
V60
p2970
sg17
g2970
sg18
V20
p2971
sbag1
(g2
g3
Ntp2972
Rp2973
(dp2974
g7
V855
p2975
sg9
VPolteageist
p2976
sg11
VSw,Sh,
p2977
sg13
VRaid
p2978
sg15
V60
p2979
sg17
g2979
sg18
V20
p2980
sbag1
(g2
g3
Ntp2981
Rp2982
(dp2983
g7
V093
p2984
sg9
VHaunter
p2985
sg11
VSw,Sh,
p2986
sg13
VRaid
p2987
sg15
V17
p2988
sg17
g2988
sg18
V20
p2989
sbag1
(g2
g3
Ntp2990
Rp2991
(dp2992
g7
V355
p2993
sg9
VDuskull
p2994
sg11
VSw,Sh,
p2995
sg13
VRaid
p2996
sg15
V17
p2997
sg17
g2997
sg18
V15
p2998
sbag1
(g2
g3
Ntp2999
Rp3000
(dp3001
g7
V425
p3002
sg9
VDrifloon
p3003
sg11
VSw,Sh,
p3004
sg13
VRaid
p3005
sg15
V17
p3006
sg17
g3006
sg18
V15
p3007
sbag1
(g2
g3
Ntp3008
Rp3009
(dp3010
g7
V633
p3011
sg9
VDeino
p3012
sg11
VSw,Sh,
p3013
sg13
VRaid
p3014
sg15
V17
p3015
sg17
g3015
sg18
V15
p3016
sbag1
(g2
g3
Ntp3017
Rp3018
(dp3019
g7
V859
p3020
sg9
VImpidimp
p3021
sg11
VSw,Sh,
p3022
sg13
VRaid
p3023
sg15
V17
p3024
sg17
g3024
sg18
V20
p3025
sbag1
(g2
g3
Ntp3026
Rp3027
(dp3028
g7
V877
p3029
sg9
VMorpeko
p3030
sg11
VSw,Sh,
p3031
sg13
VRaid
p3032
sg15
V17
p3033
sg17
g3033
sg18
V15
p3034
sbag1
(g2
g3
Ntp3035
Rp3036
(dp3037
g7
V094
p3038
sg9
VGengar
p3039
sg11
VSw,Sh,
p3040
sg13
VRaid
p3041
sg15
V30
p3042
sg17
g3042
sg18
V20
p3043
sbag1
(g2
g3
Ntp3044
Rp3045
(dp3046
g7
V355
p3047
sg9
VDuskull
p3048
sg11
VSw,Sh,
p3049
sg13
VRaid
p3050
sg15
V30
p3051
sg17
g3051
sg18
V15
p3052
sbag1
(g2
g3
Ntp3053
Rp3054
(dp3055
g7
V426
p3056
sg9
VDrifblim
p3057
sg11
VSw,Sh,
p3058
sg13
VRaid
p3059
sg15
V30
p3060
sg17
g3060
sg18
V15
p3061
sbag1
(g2
g3
Ntp3062
Rp3063
(dp3064
g7
V633
p3065
sg9
VDeino
p3066
sg11
VSw,Sh,
p3067
sg13
VRaid
p3068
sg15
V30
p3069
sg17
g3069
sg18
V15
p3070
sbag1
(g2
g3
Ntp3071
Rp3072
(dp3073
g7
V859
p3074
sg9
VImpidimp
p3075
sg11
VSw,Sh,
p3076
sg13
VRaid
p3077
sg15
V30
p3078
sg17
g3078
sg18
V20
p3079
sbag1
(g2
g3
Ntp3080
Rp3081
(dp3082
g7
V877
p3083
sg9
VMorpeko
p3084
sg11
VSw,Sh,
p3085
sg13
VRaid
p3086
sg15
V30
p3087
sg17
g3087
sg18
V15
p3088
sbag1
(g2
g3
Ntp3089
Rp3090
(dp3091
g7
V094
p3092
sg9
VGengar
p3093
sg11
VSw,Sh,
p3094
sg13
VRaid
p3095
sg15
V40
p3096
sg17
g3096
sg18
V20
p3097
sbag1
(g2
g3
Ntp3098
Rp3099
(dp3100
g7
V426
p3101
sg9
VDrifblim
p3102
sg11
VSw,Sh,
p3103
sg13
VRaid
p3104
sg15
V40
p3105
sg17
g3105
sg18
V15
p3106
sbag1
(g2
g3
Ntp3107
Rp3108
(dp3109
g7
V477
p3110
sg9
VDusknoir
p3111
sg11
VSw,Sh,
p3112
sg13
VRaid
p3113
sg15
V40
p3114
sg17
g3114
sg18
V15
p3115
sbag1
(g2
g3
Ntp3116
Rp3117
(dp3118
g7
V633
p3119
sg9
VDeino
p3120
sg11
VSw,Sh,
p3121
sg13
VRaid
p3122
sg15
V40
p3123
sg17
g3123
sg18
V15
p3124
sbag1
(g2
g3
Ntp3125
Rp3126
(dp3127
g7
V860
p3128
sg9
VMorgrem
p3129
sg11
VSw,Sh,
p3130
sg13
VRaid
p3131
sg15
V40
p3132
sg17
g3132
sg18
V20
p3133
sbag1
(g2
g3
Ntp3134
Rp3135
(dp3136
g7
V877
p3137
sg9
VMorpeko
p3138
sg11
VSw,Sh,
p3139
sg13
VRaid
p3140
sg15
V40
p3141
sg17
g3141
sg18
V15
p3142
sbag1
(g2
g3
Ntp3143
Rp3144
(dp3145
g7
V094
p3146
sg9
VGengar
p3147
sg11
VSw,Sh,
p3148
sg13
VRaid
p3149
sg15
V50
p3150
sg17
g3150
sg18
V20
p3151
sbag1
(g2
g3
Ntp3152
Rp3153
(dp3154
g7
V426
p3155
sg9
VDrifblim
p3156
sg11
VSw,Sh,
p3157
sg13
VRaid
p3158
sg15
V50
p3159
sg17
g3159
sg18
V15
p3160
sbag1
(g2
g3
Ntp3161
Rp3162
(dp3163
g7
V477
p3164
sg9
VDusknoir
p3165
sg11
VSw,Sh,
p3166
sg13
VRaid
p3167
sg15
V50
p3168
sg17
g3168
sg18
V15
p3169
sbag1
(g2
g3
Ntp3170
Rp3171
(dp3172
g7
V634
p3173
sg9
VZweilous
p3174
sg11
VSw,Sh,
p3175
sg13
VRaid
p3176
sg15
V50
p3177
sg17
g3177
sg18
V15
p3178
sbag1
(g2
g3
Ntp3179
Rp3180
(dp3181
g7
V861
p3182
sg9
VGrimmsnarl
p3183
sg11
VSw,Sh,
p3184
sg13
VRaid
p3185
sg15
V50
p3186
sg17
g3186
sg18
V20
p3187
sbag1
(g2
g3
Ntp3188
Rp3189
(dp3190
g7
V877
p3191
sg9
VMorpeko
p3192
sg11
VSw,Sh,
p3193
sg13
VRaid
p3194
sg15
V50
p3195
sg17
g3195
sg18
V15
p3196
sbag1
(g2
g3
Ntp3197
Rp3198
(dp3199
g7
V094
p3200
sg9
VGengar
p3201
sg11
VSw,Sh,
p3202
sg13
VRaid
p3203
sg15
V60
p3204
sg17
g3204
sg18
V20
p3205
sbag1
(g2
g3
Ntp3206
Rp3207
(dp3208
g7
V426
p3209
sg9
VDrifblim
p3210
sg11
VSw,Sh,
p3211
sg13
VRaid
p3212
sg15
V60
p3213
sg17
g3213
sg18
V15
p3214
sbag1
(g2
g3
Ntp3215
Rp3216
(dp3217
g7
V477
p3218
sg9
VDusknoir
p3219
sg11
VSw,Sh,
p3220
sg13
VRaid
p3221
sg15
V60
p3222
sg17
g3222
sg18
V12
p3223
sbag1
(g2
g3
Ntp3224
Rp3225
(dp3226
g7
V635
p3227
sg9
VHydreigon
p3228
sg11
VSw,Sh,
p3229
sg13
VRaid
p3230
sg15
V60
p3231
sg17
g3231
sg18
V20
p3232
sbag1
(g2
g3
Ntp3233
Rp3234
(dp3235
g7
V861
p3236
sg9
VGrimmsnarl
p3237
sg11
VSw,Sh,
p3238
sg13
VRaid
p3239
sg15
V60
p3240
sg17
g3240
sg18
V20
p3241
sbag1
(g2
g3
Ntp3242
Rp3243
(dp3244
g7
V877
p3245
sg9
VMorpeko
p3246
sg11
VSw,Sh,
p3247
sg13
VRaid
p3248
sg15
V60
p3249
sg17
g3249
sg18
V13
p3250
sbag1
(g2
g3
Ntp3251
Rp3252
(dp3253
g7
V036
p3254
sg9
VClefable
p3255
sg11
VSw,Sh,
p3256
sg13
VRaid
p3257
sg15
V17
p3258
sg17
g3258
sg18
V20
p3259
sbag1
(g2
g3
Ntp3260
Rp3261
(dp3262
g7
V040
p3263
sg9
VWigglytuff
p3264
sg11
VSw,Sh,
p3265
sg13
VRaid
p3266
sg15
V17
p3267
sg17
g3267
sg18
V20
p3268
sbag1
(g2
g3
Ntp3269
Rp3270
(dp3271
g7
V044
p3272
sg9
VGloom
p3273
sg11
VSw,Sh,
p3274
sg13
VRaid
p3275
sg15
V17
p3276
sg17
g3276
sg18
V13
p3277
sbag1
(g2
g3
Ntp3278
Rp3279
(dp3280
g7
V518
p3281
sg9
VMusharna
p3282
sg11
VSw,Sh,
p3283
sg13
VRaid
p3284
sg15
V17
p3285
sg17
g3285
sg18
V13
p3286
sbag1
(g2
g3
Ntp3287
Rp3288
(dp3289
g7
V547
p3290
sg9
VWhimsicott
p3291
sg11
VSw,Sh,
p3292
sg13
VRaid
p3293
sg15
V17
p3294
sg17
g3294
sg18
V14
p3295
sbag1
(g2
g3
Ntp3296
Rp3297
(dp3298
g7
V549
p3299
sg9
VLilligant
p3300
sg11
VSw,Sh,
p3301
sg13
VRaid
p3302
sg15
V17
p3303
sg17
g3303
sg18
V20
p3304
sbag1
(g2
g3
Ntp3305
Rp3306
(dp3307
g7
V036
p3308
sg9
VClefable
p3309
sg11
VSw,Sh,
p3310
sg13
VRaid
p3311
sg15
V30
p3312
sg17
g3312
sg18
V20
p3313
sbag1
(g2
g3
Ntp3314
Rp3315
(dp3316
g7
V040
p3317
sg9
VWigglytuff
p3318
sg11
VSw,Sh,
p3319
sg13
VRaid
p3320
sg15
V30
p3321
sg17
g3321
sg18
V20
p3322
sbag1
(g2
g3
Ntp3323
Rp3324
(dp3325
g7
V182
p3326
sg9
VBellossom
p3327
sg11
VSw,Sh,
p3328
sg13
VRaid
p3329
sg15
V30
p3330
sg17
g3330
sg18
V13
p3331
sbag1
(g2
g3
Ntp3332
Rp3333
(dp3334
g7
V518
p3335
sg9
VMusharna
p3336
sg11
VSw,Sh,
p3337
sg13
VRaid
p3338
sg15
V30
p3339
sg17
g3339
sg18
V13
p3340
sbag1
(g2
g3
Ntp3341
Rp3342
(dp3343
g7
V547
p3344
sg9
VWhimisicott
p3345
sg11
VSw,Sh,
p3346
sg13
VRaid
p3347
sg15
V30
p3348
sg17
g3348
sg18
V14
p3349
sbag1
(g2
g3
Ntp3350
Rp3351
(dp3352
g7
V549
p3353
sg9
VLilligant
p3354
sg11
VSw,Sh,
p3355
sg13
VRaid
p3356
sg15
V30
p3357
sg17
g3357
sg18
V20
p3358
sbag1
(g2
g3
Ntp3359
Rp3360
(dp3361
g7
V036
p3362
sg9
VClefable
p3363
sg11
VSw,Sh,
p3364
sg13
VRaid
p3365
sg15
V40
p3366
sg17
g3366
sg18
V20
p3367
sbag1
(g2
g3
Ntp3368
Rp3369
(dp3370
g7
V040
p3371
sg9
VWigglytuff
p3372
sg11
VSw,Sh,
p3373
sg13
VRaid
p3374
sg15
V40
p3375
sg17
g3375
sg18
V20
p3376
sbag1
(g2
g3
Ntp3377
Rp3378
(dp3379
g7
V182
p3380
sg9
VBellossom
p3381
sg11
VSw,Sh,
p3382
sg13
VRaid
p3383
sg15
V40
p3384
sg17
g3384
sg18
V13
p3385
sbag1
(g2
g3
Ntp3386
Rp3387
(dp3388
g7
V518
p3389
sg9
VMusharna
p3390
sg11
VSw,Sh,
p3391
sg13
VRaid
p3392
sg15
V40
p3393
sg17
g3393
sg18
V13
p3394
sbag1
(g2
g3
Ntp3395
Rp3396
(dp3397
g7
V547
p3398
sg9
VWhimisicott
p3399
sg11
VSw,Sh,
p3400
sg13
VRaid
p3401
sg15
V40
p3402
sg17
g3402
sg18
V14
p3403
sbag1
(g2
g3
Ntp3404
Rp3405
(dp3406
g7
V549
p3407
sg9
VLilligant
p3408
sg11
VSw,Sh,
p3409
sg13
VRaid
p3410
sg15
V40
p3411
sg17
g3411
sg18
V20
p3412
sbag1
(g2
g3
Ntp3413
Rp3414
(dp3415
g7
V036
p3416
sg9
VClefable
p3417
sg11
VSw,Sh,
p3418
sg13
VRaid
p3419
sg15
V50
p3420
sg17
g3420
sg18
V20
p3421
sbag1
(g2
g3
Ntp3422
Rp3423
(dp3424
g7
V040
p3425
sg9
VWigglytuff
p3426
sg11
VSw,Sh,
p3427
sg13
VRaid
p3428
sg15
V50
p3429
sg17
g3429
sg18
V20
p3430
sbag1
(g2
g3
Ntp3431
Rp3432
(dp3433
g7
V182
p3434
sg9
VBellossom
p3435
sg11
VSw,Sh,
p3436
sg13
VRaid
p3437
sg15
V50
p3438
sg17
g3438
sg18
V13
p3439
sbag1
(g2
g3
Ntp3440
Rp3441
(dp3442
g7
V518
p3443
sg9
VMusharna
p3444
sg11
VSw,Sh,
p3445
sg13
VRaid
p3446
sg15
V50
p3447
sg17
g3447
sg18
V13
p3448
sbag1
(g2
g3
Ntp3449
Rp3450
(dp3451
g7
V547
p3452
sg9
VWhimisicott
p3453
sg11
VSw,Sh,
p3454
sg13
VRaid
p3455
sg15
V50
p3456
sg17
g3456
sg18
V14
p3457
sbag1
(g2
g3
Ntp3458
Rp3459
(dp3460
g7
V549
p3461
sg9
VLilligant
p3462
sg11
VSw,Sh,
p3463
sg13
VRaid
p3464
sg15
V50
p3465
sg17
g3465
sg18
V20
p3466
sbag1
(g2
g3
Ntp3467
Rp3468
(dp3469
g7
V036
p3470
sg9
VClefable
p3471
sg11
VSw,Sh,
p3472
sg13
VRaid
p3473
sg15
V60
p3474
sg17
g3474
sg18
V22
p3475
sbag1
(g2
g3
Ntp3476
Rp3477
(dp3478
g7
V036
p3479
sg9
VClefable
p3480
sg11
VSw,Sh,
p3481
sg13
VRaid
p3482
sg15
V60
p3483
sg17
g3483
sg18
V2
p3484
sbag1
(g2
g3
Ntp3485
Rp3486
(dp3487
g7
V040
p3488
sg9
VWigglytuff
p3489
sg11
VSw,Sh,
p3490
sg13
VRaid
p3491
sg15
V60
p3492
sg17
g3492
sg18
V22
p3493
sbag1
(g2
g3
Ntp3494
Rp3495
(dp3496
g7
V182
p3497
sg9
VBellossom
p3498
sg11
VSw,Sh,
p3499
sg13
VRaid
p3500
sg15
V60
p3501
sg17
g3501
sg18
V16
p3502
sbag1
(g2
g3
Ntp3503
Rp3504
(dp3505
g7
V518
p3506
sg9
VMusharna
p3507
sg11
VSw,Sh,
p3508
sg13
VRaid
p3509
sg15
V60
p3510
sg17
g3510
sg18
V16
p3511
sbag1
(g2
g3
Ntp3512
Rp3513
(dp3514
g7
V549
p3515
sg9
VLilligant
p3516
sg11
VSw,Sh,
p3517
sg13
VRaid
p3518
sg15
V60
p3519
sg17
g3519
sg18
V22
p3520
sbag1
(g2
g3
Ntp3521
Rp3522
(dp3523
g7
V597
p3524
sg9
VFerroseed
p3525
sg11
VSw,Sh,
p3526
sg13
VRaid
p3527
sg15
V17
p3528
sg17
g3528
sg18
V15
p3529
sbag1
(g2
g3
Ntp3530
Rp3531
(dp3532
g7
V695
p3533
sg9
VHeliolisk
p3534
sg11
VSw,Sh,
p3535
sg13
VRaid
p3536
sg15
V17
p3537
sg17
g3537
sg18
V15
p3538
sbag1
(g2
g3
Ntp3539
Rp3540
(dp3541
g7
V829
p3542
sg9
VGossifleur
p3543
sg11
VSw,Sh,
p3544
sg13
VRaid
p3545
sg15
V17
p3546
sg17
g3546
sg18
V15
p3547
sbag1
(g2
g3
Ntp3548
Rp3549
(dp3550
g7
V835
p3551
sg9
VYamper
p3552
sg11
VSw,Sh,
p3553
sg13
VRaid
p3554
sg15
V17
p3555
sg17
g3555
sg18
V15
p3556
sbag1
(g2
g3
Ntp3557
Rp3558
(dp3559
g7
V840
p3560
sg9
VApplin
p3561
sg11
VSw,Sh,
p3562
sg13
VRaid
p3563
sg15
V17
p3564
sg17
g3564
sg18
V20
p3565
sbag1
(g2
g3
Ntp3566
Rp3567
(dp3568
g7
V848
p3569
sg9
VToxel
p3570
sg11
VSw,Sh,
p3571
sg13
VRaid
p3572
sg15
V17
p3573
sg17
g3573
sg18
V20
p3574
sbag1
(g2
g3
Ntp3575
Rp3576
(dp3577
g7
V597
p3578
sg9
VFerroseed
p3579
sg11
VSw,Sh,
p3580
sg13
VRaid
p3581
sg15
V30
p3582
sg17
g3582
sg18
V15
p3583
sbag1
(g2
g3
Ntp3584
Rp3585
(dp3586
g7
V695
p3587
sg9
VHeliolisk
p3588
sg11
VSw,Sh,
p3589
sg13
VRaid
p3590
sg15
V30
p3591
sg17
g3591
sg18
V15
p3592
sbag1
(g2
g3
Ntp3593
Rp3594
(dp3595
g7
V830
p3596
sg9
VEldegoss
p3597
sg11
VSw,Sh,
p3598
sg13
VRaid
p3599
sg15
V30
p3600
sg17
g3600
sg18
V15
p3601
sbag1
(g2
g3
Ntp3602
Rp3603
(dp3604
g7
V836
p3605
sg9
VBoltund
p3606
sg11
VSw,Sh,
p3607
sg13
VRaid
p3608
sg15
V30
p3609
sg17
g3609
sg18
V15
p3610
sbag1
(g2
g3
Ntp3611
Rp3612
(dp3613
g7
V841
p3614
sg9
VFlapple
p3615
sg11
VSh,
p3616
sg13
VRaid
p3617
sg15
V30
p3618
sg17
g3618
sg18
V20
p3619
sbag1
(g2
g3
Ntp3620
Rp3621
(dp3622
g7
V842
p3623
sg9
VAppletun
p3624
sg11
VSw,
p3625
sg13
VRaid
p3626
sg15
V30
p3627
sg17
g3627
sg18
V20
p3628
sbag1
(g2
g3
Ntp3629
Rp3630
(dp3631
g7
V849
p3632
sg9
VToxtricity
p3633
sg11
g3616
sg13
VRaid
p3634
sg15
V30
p3635
sg17
g3635
sg18
V20
p3636
sbag1
(g2
g3
Ntp3637
Rp3638
(dp3639
g7
V849
p3640
sg9
VToxtricity
p3641
sg11
g3625
sg13
VRaid
p3642
sg15
V30
p3643
sg17
g3643
sg18
V20
p3644
sbag1
(g2
g3
Ntp3645
Rp3646
(dp3647
g7
V598
p3648
sg9
VFerrothorn
p3649
sg11
VSw,Sh,
p3650
sg13
VRaid
p3651
sg15
V40
p3652
sg17
g3652
sg18
V15
p3653
sbag1
(g2
g3
Ntp3654
Rp3655
(dp3656
g7
V695
p3657
sg9
VHeliolisk
p3658
sg11
VSw,Sh,
p3659
sg13
VRaid
p3660
sg15
V40
p3661
sg17
g3661
sg18
V15
p3662
sbag1
(g2
g3
Ntp3663
Rp3664
(dp3665
g7
V830
p3666
sg9
VEldegoss
p3667
sg11
VSw,Sh,
p3668
sg13
VRaid
p3669
sg15
V40
p3670
sg17
g3670
sg18
V15
p3671
sbag1
(g2
g3
Ntp3672
Rp3673
(dp3674
g7
V836
p3675
sg9
VBoltund
p3676
sg11
VSw,Sh,
p3677
sg13
VRaid
p3678
sg15
V40
p3679
sg17
g3679
sg18
V15
p3680
sbag1
(g2
g3
Ntp3681
Rp3682
(dp3683
g7
V841
p3684
sg9
VFlapple
p3685
sg11
g3616
sg13
VRaid
p3686
sg15
V40
p3687
sg17
g3687
sg18
V20
p3688
sbag1
(g2
g3
Ntp3689
Rp3690
(dp3691
g7
V842
p3692
sg9
VAppletun
p3693
sg11
g3625
sg13
VRaid
p3694
sg15
V40
p3695
sg17
g3695
sg18
V20
p3696
sbag1
(g2
g3
Ntp3697
Rp3698
(dp3699
g7
V849
p3700
sg9
VToxtricity
p3701
sg11
g3616
sg13
VRaid
p3702
sg15
V40
p3703
sg17
g3703
sg18
V20
p3704
sbag1
(g2
g3
Ntp3705
Rp3706
(dp3707
g7
V849
p3708
sg9
VToxtricity
p3709
sg11
g3625
sg13
VRaid
p3710
sg15
V40
p3711
sg17
g3711
sg18
V20
p3712
sbag1
(g2
g3
Ntp3713
Rp3714
(dp3715
g7
V598
p3716
sg9
VFerrothorn
p3717
sg11
VSw,Sh,
p3718
sg13
VRaid
p3719
sg15
V50
p3720
sg17
g3720
sg18
V15
p3721
sbag1
(g2
g3
Ntp3722
Rp3723
(dp3724
g7
V695
p3725
sg9
VHeliolisk
p3726
sg11
VSw,Sh,
p3727
sg13
VRaid
p3728
sg15
V50
p3729
sg17
g3729
sg18
V15
p3730
sbag1
(g2
g3
Ntp3731
Rp3732
(dp3733
g7
V830
p3734
sg9
VEldegoss
p3735
sg11
VSw,Sh,
p3736
sg13
VRaid
p3737
sg15
V50
p3738
sg17
g3738
sg18
V15
p3739
sbag1
(g2
g3
Ntp3740
Rp3741
(dp3742
g7
V836
p3743
sg9
VBoltund
p3744
sg11
VSw,Sh,
p3745
sg13
VRaid
p3746
sg15
V50
p3747
sg17
g3747
sg18
V15
p3748
sbag1
(g2
g3
Ntp3749
Rp3750
(dp3751
g7
V841
p3752
sg9
VFlapple
p3753
sg11
g3616
sg13
VRaid
p3754
sg15
V50
p3755
sg17
g3755
sg18
V20
p3756
sbag1
(g2
g3
Ntp3757
Rp3758
(dp3759
g7
V842
p3760
sg9
VAppletun
p3761
sg11
g3625
sg13
VRaid
p3762
sg15
V50
p3763
sg17
g3763
sg18
V20
p3764
sbag1
(g2
g3
Ntp3765
Rp3766
(dp3767
g7
V849
p3768
sg9
VToxtricity
p3769
sg11
g3616
sg13
VRaid
p3770
sg15
V50
p3771
sg17
g3771
sg18
V20
p3772
sbag1
(g2
g3
Ntp3773
Rp3774
(dp3775
g7
V849
p3776
sg9
VToxtricity
p3777
sg11
g3625
sg13
VRaid
p3778
sg15
V50
p3779
sg17
g3779
sg18
V20
p3780
sbag1
(g2
g3
Ntp3781
Rp3782
(dp3783
g7
V598
p3784
sg9
VFerrothorn
p3785
sg11
VSw,Sh,
p3786
sg13
VRaid
p3787
sg15
V60
p3788
sg17
g3788
sg18
V15
p3789
sbag1
(g2
g3
Ntp3790
Rp3791
(dp3792
g7
V695
p3793
sg9
VHeliolisk
p3794
sg11
VSw,Sh,
p3795
sg13
VRaid
p3796
sg15
V60
p3797
sg17
g3797
sg18
V15
p3798
sbag1
(g2
g3
Ntp3799
Rp3800
(dp3801
g7
V830
p3802
sg9
VEldegoss
p3803
sg11
VSw,Sh,
p3804
sg13
VRaid
p3805
sg15
V60
p3806
sg17
g3806
sg18
V15
p3807
sbag1
(g2
g3
Ntp3808
Rp3809
(dp3810
g7
V836
p3811
sg9
VBoltund
p3812
sg11
VSw,Sh,
p3813
sg13
VRaid
p3814
sg15
V60
p3815
sg17
g3815
sg18
V15
p3816
sbag1
(g2
g3
Ntp3817
Rp3818
(dp3819
g7
V841
p3820
sg9
VFlapple
p3821
sg11
g3616
sg13
VRaid
p3822
sg15
V60
p3823
sg17
g3823
sg18
V20
p3824
sbag1
(g2
g3
Ntp3825
Rp3826
(dp3827
g7
V842
p3828
sg9
VAppletun
p3829
sg11
g3625
sg13
VRaid
p3830
sg15
V60
p3831
sg17
g3831
sg18
V20
p3832
sbag1
(g2
g3
Ntp3833
Rp3834
(dp3835
g7
V849
p3836
sg9
VToxtricity
p3837
sg11
g3616
sg13
VRaid
p3838
sg15
V60
p3839
sg17
g3839
sg18
V20
p3840
sbag1
(g2
g3
Ntp3841
Rp3842
(dp3843
g7
V849
p3844
sg9
VToxtricity
p3845
sg11
g3625
sg13
VRaid
p3846
sg15
V60
p3847
sg17
g3847
sg18
V20
p3848
sbag1
(g2
g3
Ntp3849
Rp3850
(dp3851
g7
V025
p3852
sg9
VPikachu
p3853
sg11
VSw,Sh,
p3854
sg13
VRaid
p3855
sg15
V17
p3856
sg17
g3856
sg18
V39
p3857
sbag1
(g2
g3
Ntp3858
Rp3859
(dp3860
g7
V026
p3861
sg9
VRaichu
p3862
sg11
VSw,Sh,
p3863
sg13
VRaid
p3864
sg15
V17
p3865
sg17
g3865
sg18
V20
p3866
sbag1
(g2
g3
Ntp3867
Rp3868
(dp3869
g7
V026
p3870
sg9
VRaichu
p3871
sg11
VSw,Sh,
p3872
sg13
VRaid
p3873
sg15
V17
p3874
sg17
g3874
sg18
V20
p3875
sbag1
(g2
g3
Ntp3876
Rp3877
(dp3878
g7
V172
p3879
sg9
VPichu
p3880
sg11
VSw,Sh,
p3881
sg13
VRaid
p3882
sg15
V17
p3883
sg17
g3883
sg18
V20
p3884
sbag1
(g2
g3
Ntp3885
Rp3886
(dp3887
g7
V778
p3888
sg9
VMimikyu
p3889
sg11
VSw,Sh,
p3890
sg13
VRaid
p3891
sg15
V17
p3892
sg17
g3892
sg18
V1
p3893
sbag1
(g2
g3
Ntp3894
Rp3895
(dp3896
g7
V025
p3897
sg9
VPikachu
p3898
sg11
VSw,Sh,
p3899
sg13
VRaid
p3900
sg15
V30
p3901
sg17
g3901
sg18
V39
p3902
sbag1
(g2
g3
Ntp3903
Rp3904
(dp3905
g7
V026
p3906
sg9
VRaichu
p3907
sg11
VSw,Sh,
p3908
sg13
VRaid
p3909
sg15
V30
p3910
sg17
g3910
sg18
V20
p3911
sbag1
(g2
g3
Ntp3912
Rp3913
(dp3914
g7
V026
p3915
sg9
VRaichu
p3916
sg11
VSw,Sh,
p3917
sg13
VRaid
p3918
sg15
V30
p3919
sg17
g3919
sg18
V20
p3920
sbag1
(g2
g3
Ntp3921
Rp3922
(dp3923
g7
V172
p3924
sg9
VPichu
p3925
sg11
VSw,Sh,
p3926
sg13
VRaid
p3927
sg15
V30
p3928
sg17
g3928
sg18
V20
p3929
sbag1
(g2
g3
Ntp3930
Rp3931
(dp3932
g7
V778
p3933
sg9
VMimikyu
p3934
sg11
VSw,Sh,
p3935
sg13
VRaid
p3936
sg15
V30
p3937
sg17
g3937
sg18
V1
p3938
sbag1
(g2
g3
Ntp3939
Rp3940
(dp3941
g7
V025
p3942
sg9
VPikachu
p3943
sg11
VSw,Sh,
p3944
sg13
VRaid
p3945
sg15
V40
p3946
sg17
g3946
sg18
V39
p3947
sbag1
(g2
g3
Ntp3948
Rp3949
(dp3950
g7
V026
p3951
sg9
VRaichu
p3952
sg11
VSw,Sh,
p3953
sg13
VRaid
p3954
sg15
V40
p3955
sg17
g3955
sg18
V20
p3956
sbag1
(g2
g3
Ntp3957
Rp3958
(dp3959
g7
V026
p3960
sg9
VRaichu
p3961
sg11
VSw,Sh,
p3962
sg13
VRaid
p3963
sg15
V40
p3964
sg17
g3964
sg18
V20
p3965
sbag1
(g2
g3
Ntp3966
Rp3967
(dp3968
g7
V172
p3969
sg9
VPichu
p3970
sg11
VSw,Sh,
p3971
sg13
VRaid
p3972
sg15
V40
p3973
sg17
g3973
sg18
V20
p3974
sbag1
(g2
g3
Ntp3975
Rp3976
(dp3977
g7
V778
p3978
sg9
VMimikyu
p3979
sg11
VSw,Sh,
p3980
sg13
VRaid
p3981
sg15
V40
p3982
sg17
g3982
sg18
V1
p3983
sbag1
(g2
g3
Ntp3984
Rp3985
(dp3986
g7
V025
p3987
sg9
VPikachu
p3988
sg11
VSw,Sh,
p3989
sg13
VRaid
p3990
sg15
V50
p3991
sg17
g3991
sg18
V20
p3992
sbag1
(g2
g3
Ntp3993
Rp3994
(dp3995
g7
V025
p3996
sg9
VPikachu
p3997
sg11
VSw,Sh,
p3998
sg13
VRaid
p3999
sg15
V50
p4000
sg17
g4000
sg18
V19
p4001
sbag1
(g2
g3
Ntp4002
Rp4003
(dp4004
g7
V026
p4005
sg9
VRaichu
p4006
sg11
VSw,Sh,
p4007
sg13
VRaid
p4008
sg15
V50
p4009
sg17
g4009
sg18
V20
p4010
sbag1
(g2
g3
Ntp4011
Rp4012
(dp4013
g7
V026
p4014
sg9
VRaichu
p4015
sg11
VSw,Sh,
p4016
sg13
VRaid
p4017
sg15
V50
p4018
sg17
g4018
sg18
V20
p4019
sbag1
(g2
g3
Ntp4020
Rp4021
(dp4022
g7
V172
p4023
sg9
VPichu
p4024
sg11
VSw,Sh,
p4025
sg13
VRaid
p4026
sg15
V50
p4027
sg17
g4027
sg18
V20
p4028
sbag1
(g2
g3
Ntp4029
Rp4030
(dp4031
g7
V778
p4032
sg9
VMimikyu
p4033
sg11
VSw,Sh,
p4034
sg13
VRaid
p4035
sg15
V50
p4036
sg17
g4036
sg18
V1
p4037
sbag1
(g2
g3
Ntp4038
Rp4039
(dp4040
g7
V025
p4041
sg9
VPikachu
p4042
sg11
VSw,Sh,
p4043
sg13
VRaid
p4044
sg15
V50
p4045
sg17
g4045
sg18
V31
p4046
sbag1
(g2
g3
Ntp4047
Rp4048
(dp4049
g7
V025
p4050
sg9
VPikachu
p4051
sg11
VSw,Sh,
p4052
sg13
VRaid
p4053
sg15
V50
p4054
sg17
g4054
sg18
V8
p4055
sbag1
(g2
g3
Ntp4056
Rp4057
(dp4058
g7
V026
p4059
sg9
VRaichu
p4060
sg11
VSw,Sh,
p4061
sg13
VRaid
p4062
sg15
V50
p4063
sg17
g4063
sg18
V20
p4064
sbag1
(g2
g3
Ntp4065
Rp4066
(dp4067
g7
V026
p4068
sg9
VRaichu
p4069
sg11
VSw,Sh,
p4070
sg13
VRaid
p4071
sg15
V50
p4072
sg17
g4072
sg18
V20
p4073
sbag1
(g2
g3
Ntp4074
Rp4075
(dp4076
g7
V172
p4077
sg9
VPichu
p4078
sg11
VSw,Sh,
p4079
sg13
VRaid
p4080
sg15
V50
p4081
sg17
g4081
sg18
V20
p4082
sbag1
(g2
g3
Ntp4083
Rp4084
(dp4085
g7
V778
p4086
sg9
VMimikyu
p4087
sg11
VSw,Sh,
p4088
sg13
VRaid
p4089
sg15
V50
p4090
sg17
g4090
sg18
V1
p4091
sbag1
(g2
g3
Ntp4092
Rp4093
(dp4094
g7
V194
p4095
sg9
VWooper
p4096
sg11
VSw,Sh,
p4097
sg13
VRaid
p4098
sg15
V17
p4099
sg17
g4099
sg18
V20
p4100
sbag1
(g2
g3
Ntp4101
Rp4102
(dp4103
g7
V349
p4104
sg9
VFeebas
p4105
sg11
VSw,Sh,
p4106
sg13
VRaid
p4107
sg15
V17
p4108
sg17
g4108
sg18
V20
p4109
sbag1
(g2
g3
Ntp4110
Rp4111
(dp4112
g7
V422
p4113
sg9
VShellos
p4114
sg11
VSw,Sh,
p4115
sg13
VRaid
p4116
sg15
V17
p4117
sg17
g4117
sg18
V15
p4118
sbag1
(g2
g3
Ntp4119
Rp4120
(dp4121
g7
V449
p4122
sg9
VHippopotas
p4123
sg11
VSw,Sh,
p4124
sg13
VRaid
p4125
sg15
V17
p4126
sg17
g4126
sg18
V15
p4127
sbag1
(g2
g3
Ntp4128
Rp4129
(dp4130
g7
V833
p4131
sg9
VChewtle
p4132
sg11
VSw,Sh,
p4133
sg13
VRaid
p4134
sg15
V17
p4135
sg17
g4135
sg18
V15
p4136
sbag1
(g2
g3
Ntp4137
Rp4138
(dp4139
g7
V843
p4140
sg9
VSilicobra
p4141
sg11
VSw,Sh,
p4142
sg13
VRaid
p4143
sg15
V17
p4144
sg17
g4144
sg18
V15
p4145
sbag1
(g2
g3
Ntp4146
Rp4147
(dp4148
g7
V195
p4149
sg9
VQuagsire
p4150
sg11
VSw,Sh,
p4151
sg13
VRaid
p4152
sg15
V30
p4153
sg17
g4153
sg18
V20
p4154
sbag1
(g2
g3
Ntp4155
Rp4156
(dp4157
g7
V349
p4158
sg9
VFeebas
p4159
sg11
VSw,Sh,
p4160
sg13
VRaid
p4161
sg15
V30
p4162
sg17
g4162
sg18
V20
p4163
sbag1
(g2
g3
Ntp4164
Rp4165
(dp4166
g7
V423
p4167
sg9
VGastrodon
p4168
sg11
VSw,Sh,
p4169
sg13
VRaid
p4170
sg15
V30
p4171
sg17
g4171
sg18
V15
p4172
sbag1
(g2
g3
Ntp4173
Rp4174
(dp4175
g7
V449
p4176
sg9
VHippopotas
p4177
sg11
VSw,Sh,
p4178
sg13
VRaid
p4179
sg15
V30
p4180
sg17
g4180
sg18
V15
p4181
sbag1
(g2
g3
Ntp4182
Rp4183
(dp4184
g7
V834
p4185
sg9
VDrednaw
p4186
sg11
VSw,Sh,
p4187
sg13
VRaid
p4188
sg15
V30
p4189
sg17
g4189
sg18
V15
p4190
sbag1
(g2
g3
Ntp4191
Rp4192
(dp4193
g7
V843
p4194
sg9
VSilicobra
p4195
sg11
VSw,Sh,
p4196
sg13
VRaid
p4197
sg15
V30
p4198
sg17
g4198
sg18
V15
p4199
sbag1
(g2
g3
Ntp4200
Rp4201
(dp4202
g7
V195
p4203
sg9
VQuagsire
p4204
sg11
VSw,Sh,
p4205
sg13
VRaid
p4206
sg15
V40
p4207
sg17
g4207
sg18
V20
p4208
sbag1
(g2
g3
Ntp4209
Rp4210
(dp4211
g7
V350
p4212
sg9
VMilotic
p4213
sg11
VSw,Sh,
p4214
sg13
VRaid
p4215
sg15
V40
p4216
sg17
g4216
sg18
V20
p4217
sbag1
(g2
g3
Ntp4218
Rp4219
(dp4220
g7
V423
p4221
sg9
VGastrodon
p4222
sg11
VSw,Sh,
p4223
sg13
VRaid
p4224
sg15
V40
p4225
sg17
g4225
sg18
V15
p4226
sbag1
(g2
g3
Ntp4227
Rp4228
(dp4229
g7
V450
p4230
sg9
VHippowdon
p4231
sg11
VSw,Sh,
p4232
sg13
VRaid
p4233
sg15
V40
p4234
sg17
g4234
sg18
V15
p4235
sbag1
(g2
g3
Ntp4236
Rp4237
(dp4238
g7
V834
p4239
sg9
VDrednaw
p4240
sg11
VSw,Sh,
p4241
sg13
VRaid
p4242
sg15
V40
p4243
sg17
g4243
sg18
V15
p4244
sbag1
(g2
g3
Ntp4245
Rp4246
(dp4247
g7
V844
p4248
sg9
VSandaconda
p4249
sg11
VSw,Sh,
p4250
sg13
VRaid
p4251
sg15
V40
p4252
sg17
g4252
sg18
V15
p4253
sbag1
(g2
g3
Ntp4254
Rp4255
(dp4256
g7
V195
p4257
sg9
VQuagsire
p4258
sg11
VSw,Sh,
p4259
sg13
VRaid
p4260
sg15
V50
p4261
sg17
g4261
sg18
V20
p4262
sbag1
(g2
g3
Ntp4263
Rp4264
(dp4265
g7
V350
p4266
sg9
VMilotic
p4267
sg11
VSw,Sh,
p4268
sg13
VRaid
p4269
sg15
V50
p4270
sg17
g4270
sg18
V20
p4271
sbag1
(g2
g3
Ntp4272
Rp4273
(dp4274
g7
V423
p4275
sg9
VGastrodon
p4276
sg11
VSw,Sh,
p4277
sg13
VRaid
p4278
sg15
V50
p4279
sg17
g4279
sg18
V15
p4280
sbag1
(g2
g3
Ntp4281
Rp4282
(dp4283
g7
V450
p4284
sg9
VHippowdon
p4285
sg11
VSw,Sh,
p4286
sg13
VRaid
p4287
sg15
V50
p4288
sg17
g4288
sg18
V15
p4289
sbag1
(g2
g3
Ntp4290
Rp4291
(dp4292
g7
V834
p4293
sg9
VDrednaw
p4294
sg11
VSw,Sh,
p4295
sg13
VRaid
p4296
sg15
V50
p4297
sg17
g4297
sg18
V15
p4298
sbag1
(g2
g3
Ntp4299
Rp4300
(dp4301
g7
V844
p4302
sg9
VSandaconda
p4303
sg11
VSw,Sh,
p4304
sg13
VRaid
p4305
sg15
V50
p4306
sg17
g4306
sg18
V15
p4307
sbag1
(g2
g3
Ntp4308
Rp4309
(dp4310
g7
V195
p4311
sg9
VQuagsire
p4312
sg11
VSw,Sh,
p4313
sg13
VRaid
p4314
sg15
V60
p4315
sg17
g4315
sg18
V20
p4316
sbag1
(g2
g3
Ntp4317
Rp4318
(dp4319
g7
V350
p4320
sg9
VMilotic
p4321
sg11
VSw,Sh,
p4322
sg13
VRaid
p4323
sg15
V60
p4324
sg17
g4324
sg18
V20
p4325
sbag1
(g2
g3
Ntp4326
Rp4327
(dp4328
g7
V423
p4329
sg9
VGastrodon
p4330
sg11
VSw,Sh,
p4331
sg13
VRaid
p4332
sg15
V60
p4333
sg17
g4333
sg18
V15
p4334
sbag1
(g2
g3
Ntp4335
Rp4336
(dp4337
g7
V450
p4338
sg9
VHippowdon
p4339
sg11
VSw,Sh,
p4340
sg13
VRaid
p4341
sg15
V60
p4342
sg17
g4342
sg18
V15
p4343
sbag1
(g2
g3
Ntp4344
Rp4345
(dp4346
g7
V834
p4347
sg9
VDrednaw
p4348
sg11
VSw,Sh,
p4349
sg13
VRaid
p4350
sg15
V60
p4351
sg17
g4351
sg18
V15
p4352
sbag1
(g2
g3
Ntp4353
Rp4354
(dp4355
g7
V844
p4356
sg9
VSandaconda
p4357
sg11
VSw,Sh,
p4358
sg13
VRaid
p4359
sg15
V60
p4360
sg17
g4360
sg18
V15
p4361
sbag1
(g2
g3
Ntp4362
Rp4363
(dp4364
g7
V098
p4365
sg9
VKrabby
p4366
sg11
VSw,Sh,
p4367
sg13
VRaid
p4368
sg15
V17
p4369
sg17
g4369
sg18
V15
p4370
sbag1
(g2
g3
Ntp4371
Rp4372
(dp4373
g7
V318
p4374
sg9
VCarvanha
p4375
sg11
VSw,Sh,
p4376
sg13
VRaid
p4377
sg15
V17
p4378
sg17
g4378
sg18
V15
p4379
sbag1
(g2
g3
Ntp4380
Rp4381
(dp4382
g7
V320
p4383
sg9
VWailmer
p4384
sg11
VSw,Sh,
p4385
sg13
VRaid
p4386
sg15
V17
p4387
sg17
g4387
sg18
V15
p4388
sbag1
(g2
g3
Ntp4389
Rp4390
(dp4391
g7
V458
p4392
sg9
VMantyke
p4393
sg11
VSw,Sh,
p4394
sg13
VRaid
p4395
sg15
V17
p4396
sg17
g4396
sg18
V15
p4397
sbag1
(g2
g3
Ntp4398
Rp4399
(dp4400
g7
V592
p4401
sg9
VFrillish
p4402
sg11
VSw,Sh,
p4403
sg13
VRaid
p4404
sg15
V17
p4405
sg17
g4405
sg18
V20
p4406
sbag1
(g2
g3
Ntp4407
Rp4408
(dp4409
g7
V771
p4410
sg9
VPyukumuku
p4411
sg11
VSw,Sh,
p4412
sg13
VRaid
p4413
sg15
V17
p4414
sg17
g4414
sg18
V20
p4415
sbag1
(g2
g3
Ntp4416
Rp4417
(dp4418
g7
V098
p4419
sg9
VKrabby
p4420
sg11
VSw,Sh,
p4421
sg13
VRaid
p4422
sg15
V30
p4423
sg17
g4423
sg18
V15
p4424
sbag1
(g2
g3
Ntp4425
Rp4426
(dp4427
g7
V319
p4428
sg9
VSharpedo
p4429
sg11
VSw,Sh,
p4430
sg13
VRaid
p4431
sg15
V30
p4432
sg17
g4432
sg18
V15
p4433
sbag1
(g2
g3
Ntp4434
Rp4435
(dp4436
g7
V320
p4437
sg9
VWailmer
p4438
sg11
VSw,Sh,
p4439
sg13
VRaid
p4440
sg15
V30
p4441
sg17
g4441
sg18
V15
p4442
sbag1
(g2
g3
Ntp4443
Rp4444
(dp4445
g7
V458
p4446
sg9
VMantyke
p4447
sg11
VSw,Sh,
p4448
sg13
VRaid
p4449
sg15
V30
p4450
sg17
g4450
sg18
V15
p4451
sbag1
(g2
g3
Ntp4452
Rp4453
(dp4454
g7
V592
p4455
sg9
VFrillish
p4456
sg11
VSw,Sh,
p4457
sg13
VRaid
p4458
sg15
V30
p4459
sg17
g4459
sg18
V20
p4460
sbag1
(g2
g3
Ntp4461
Rp4462
(dp4463
g7
V771
p4464
sg9
VPyukumuku
p4465
sg11
VSw,Sh,
p4466
sg13
VRaid
p4467
sg15
V30
p4468
sg17
g4468
sg18
V20
p4469
sbag1
(g2
g3
Ntp4470
Rp4471
(dp4472
g7
V099
p4473
sg9
VKingler
p4474
sg11
VSw,Sh,
p4475
sg13
VRaid
p4476
sg15
V40
p4477
sg17
g4477
sg18
V15
p4478
sbag1
(g2
g3
Ntp4479
Rp4480
(dp4481
g7
V226
p4482
sg9
VMantine
p4483
sg11
VSw,Sh,
p4484
sg13
VRaid
p4485
sg15
V40
p4486
sg17
g4486
sg18
V15
p4487
sbag1
(g2
g3
Ntp4488
Rp4489
(dp4490
g7
V319
p4491
sg9
VSharpedo
p4492
sg11
VSw,Sh,
p4493
sg13
VRaid
p4494
sg15
V40
p4495
sg17
g4495
sg18
V15
p4496
sbag1
(g2
g3
Ntp4497
Rp4498
(dp4499
g7
V321
p4500
sg9
VWailord
p4501
sg11
VSw,Sh,
p4502
sg13
VRaid
p4503
sg15
V40
p4504
sg17
g4504
sg18
V15
p4505
sbag1
(g2
g3
Ntp4506
Rp4507
(dp4508
g7
V593
p4509
sg9
VJellicent
p4510
sg11
VSw,Sh,
p4511
sg13
VRaid
p4512
sg15
V40
p4513
sg17
g4513
sg18
V20
p4514
sbag1
(g2
g3
Ntp4515
Rp4516
(dp4517
g7
V771
p4518
sg9
VPyukumuku
p4519
sg11
VSw,Sh,
p4520
sg13
VRaid
p4521
sg15
V40
p4522
sg17
g4522
sg18
V20
p4523
sbag1
(g2
g3
Ntp4524
Rp4525
(dp4526
g7
V099
p4527
sg9
VKingler
p4528
sg11
VSw,Sh,
p4529
sg13
VRaid
p4530
sg15
V50
p4531
sg17
g4531
sg18
V15
p4532
sbag1
(g2
g3
Ntp4533
Rp4534
(dp4535
g7
V226
p4536
sg9
VMantine
p4537
sg11
VSw,Sh,
p4538
sg13
VRaid
p4539
sg15
V50
p4540
sg17
g4540
sg18
V15
p4541
sbag1
(g2
g3
Ntp4542
Rp4543
(dp4544
g7
V319
p4545
sg9
VSharpedo
p4546
sg11
VSw,Sh,
p4547
sg13
VRaid
p4548
sg15
V50
p4549
sg17
g4549
sg18
V15
p4550
sbag1
(g2
g3
Ntp4551
Rp4552
(dp4553
g7
V321
p4554
sg9
VWailord
p4555
sg11
VSw,Sh,
p4556
sg13
VRaid
p4557
sg15
V50
p4558
sg17
g4558
sg18
V15
p4559
sbag1
(g2
g3
Ntp4560
Rp4561
(dp4562
g7
V593
p4563
sg9
VJellicent
p4564
sg11
VSw,Sh,
p4565
sg13
VRaid
p4566
sg15
V50
p4567
sg17
g4567
sg18
V20
p4568
sbag1
(g2
g3
Ntp4569
Rp4570
(dp4571
g7
V771
p4572
sg9
VPyukumuku
p4573
sg11
VSw,Sh,
p4574
sg13
VRaid
p4575
sg15
V50
p4576
sg17
g4576
sg18
V20
p4577
sbag1
(g2
g3
Ntp4578
Rp4579
(dp4580
g7
V226
p4581
sg9
VMantine
p4582
sg11
VSw,Sh,
p4583
sg13
VRaid
p4584
sg15
V60
p4585
sg17
g4585
sg18
V20
p4586
sbag1
(g2
g3
Ntp4587
Rp4588
(dp4589
g7
V319
p4590
sg9
VSharpedo
p4591
sg11
VSw,Sh,
p4592
sg13
VRaid
p4593
sg15
V60
p4594
sg17
g4594
sg18
V18
p4595
sbag1
(g2
g3
Ntp4596
Rp4597
(dp4598
g7
V321
p4599
sg9
VWailord
p4600
sg11
VSw,Sh,
p4601
sg13
VRaid
p4602
sg15
V60
p4603
sg17
g4603
sg18
V20
p4604
sbag1
(g2
g3
Ntp4605
Rp4606
(dp4607
g7
V321
p4608
sg9
VWailord
p4609
sg11
VSw,Sh,
p4610
sg13
VRaid
p4611
sg15
V60
p4612
sg17
g4612
sg18
V2
p4613
sbag1
(g2
g3
Ntp4614
Rp4615
(dp4616
g7
V593
p4617
sg9
VJellicent
p4618
sg11
VSw,Sh,
p4619
sg13
VRaid
p4620
sg15
V60
p4621
sg17
g4621
sg18
V20
p4622
sbag1
(g2
g3
Ntp4623
Rp4624
(dp4625
g7
V771
p4626
sg9
VPyukumuku
p4627
sg11
VSw,Sh,
p4628
sg13
VRaid
p4629
sg15
V60
p4630
sg17
g4630
sg18
V20
p4631
sbag1
(g2
g3
Ntp4632
Rp4633
(dp4634
g7
V052
p4635
sg9
VMeowth
p4636
sg11
VSw,Sh,
p4637
sg13
VRaid
p4638
sg15
V17
p4639
sg17
g4639
sg18
V15
p4640
sbag1
(g2
g3
Ntp4641
Rp4642
(dp4643
g7
V095
p4644
sg9
VOnix
p4645
sg11
VSw,Sh,
p4646
sg13
VRaid
p4647
sg15
V17
p4648
sg17
g4648
sg18
V15
p4649
sbag1
(g2
g3
Ntp4650
Rp4651
(dp4652
g7
V111
p4653
sg9
VRhyhorn
p4654
sg11
VSw,Sh,
p4655
sg13
VRaid
p4656
sg15
V17
p4657
sg17
g4657
sg18
V20
p4658
sbag1
(g2
g3
Ntp4659
Rp4660
(dp4661
g7
V208
p4662
sg9
VSteelix
p4663
sg11
VSw,Sh,
p4664
sg13
VRaid
p4665
sg15
V17
p4666
sg17
g4666
sg18
V20
p4667
sbag1
(g2
g3
Ntp4668
Rp4669
(dp4670
g7
V837
p4671
sg9
VRolycoly
p4672
sg11
VSw,Sh,
p4673
sg13
VRaid
p4674
sg15
V17
p4675
sg17
g4675
sg18
V15
p4676
sbag1
(g2
g3
Ntp4677
Rp4678
(dp4679
g7
V878
p4680
sg9
VCufant
p4681
sg11
VSw,Sh,
p4682
sg13
VRaid
p4683
sg15
V17
p4684
sg17
g4684
sg18
V15
p4685
sbag1
(g2
g3
Ntp4686
Rp4687
(dp4688
g7
V095
p4689
sg9
VOnix
p4690
sg11
VSw,Sh,
p4691
sg13
VRaid
p4692
sg15
V30
p4693
sg17
g4693
sg18
V15
p4694
sbag1
(g2
g3
Ntp4695
Rp4696
(dp4697
g7
V111
p4698
sg9
VRhyhorn
p4699
sg11
VSw,Sh,
p4700
sg13
VRaid
p4701
sg15
V30
p4702
sg17
g4702
sg18
V20
p4703
sbag1
(g2
g3
Ntp4704
Rp4705
(dp4706
g7
V208
p4707
sg9
VSteelix
p4708
sg11
VSw,Sh,
p4709
sg13
VRaid
p4710
sg15
V30
p4711
sg17
g4711
sg18
V20
p4712
sbag1
(g2
g3
Ntp4713
Rp4714
(dp4715
g7
V838
p4716
sg9
VCarkol
p4717
sg11
VSw,Sh,
p4718
sg13
VRaid
p4719
sg15
V30
p4720
sg17
g4720
sg18
V15
p4721
sbag1
(g2
g3
Ntp4722
Rp4723
(dp4724
g7
V863
p4725
sg9
VPerrserker
p4726
sg11
VSw,Sh,
p4727
sg13
VRaid
p4728
sg15
V30
p4729
sg17
g4729
sg18
V15
p4730
sbag1
(g2
g3
Ntp4731
Rp4732
(dp4733
g7
V878
p4734
sg9
VCufant
p4735
sg11
VSw,Sh,
p4736
sg13
VRaid
p4737
sg15
V30
p4738
sg17
g4738
sg18
V15
p4739
sbag1
(g2
g3
Ntp4740
Rp4741
(dp4742
g7
V095
p4743
sg9
VOnix
p4744
sg11
VSw,Sh,
p4745
sg13
VRaid
p4746
sg15
V40
p4747
sg17
g4747
sg18
V15
p4748
sbag1
(g2
g3
Ntp4749
Rp4750
(dp4751
g7
V112
p4752
sg9
VRhydon
p4753
sg11
VSw,Sh,
p4754
sg13
VRaid
p4755
sg15
V40
p4756
sg17
g4756
sg18
V20
p4757
sbag1
(g2
g3
Ntp4758
Rp4759
(dp4760
g7
V208
p4761
sg9
VSteelix
p4762
sg11
VSw,Sh,
p4763
sg13
VRaid
p4764
sg15
V40
p4765
sg17
g4765
sg18
V20
p4766
sbag1
(g2
g3
Ntp4767
Rp4768
(dp4769
g7
V839
p4770
sg9
VCoalossal
p4771
sg11
VSw,Sh,
p4772
sg13
VRaid
p4773
sg15
V40
p4774
sg17
g4774
sg18
V15
p4775
sbag1
(g2
g3
Ntp4776
Rp4777
(dp4778
g7
V863
p4779
sg9
VPerrserker
p4780
sg11
VSw,Sh,
p4781
sg13
VRaid
p4782
sg15
V40
p4783
sg17
g4783
sg18
V15
p4784
sbag1
(g2
g3
Ntp4785
Rp4786
(dp4787
g7
V879
p4788
sg9
VCopperajah
p4789
sg11
VSw,Sh,
p4790
sg13
VRaid
p4791
sg15
V40
p4792
sg17
g4792
sg18
V15
p4793
sbag1
(g2
g3
Ntp4794
Rp4795
(dp4796
g7
V095
p4797
sg9
VOnix
p4798
sg11
VSw,Sh,
p4799
sg13
VRaid
p4800
sg15
V50
p4801
sg17
g4801
sg18
V15
p4802
sbag1
(g2
g3
Ntp4803
Rp4804
(dp4805
g7
V208
p4806
sg9
VSteelix
p4807
sg11
VSw,Sh,
p4808
sg13
VRaid
p4809
sg15
V50
p4810
sg17
g4810
sg18
V20
p4811
sbag1
(g2
g3
Ntp4812
Rp4813
(dp4814
g7
V464
p4815
sg9
VRhyperior
p4816
sg11
VSw,Sh,
p4817
sg13
VRaid
p4818
sg15
V50
p4819
sg17
g4819
sg18
V20
p4820
sbag1
(g2
g3
Ntp4821
Rp4822
(dp4823
g7
V839
p4824
sg9
VCoalossal
p4825
sg11
VSw,Sh,
p4826
sg13
VRaid
p4827
sg15
V50
p4828
sg17
g4828
sg18
V15
p4829
sbag1
(g2
g3
Ntp4830
Rp4831
(dp4832
g7
V863
p4833
sg9
VPerrserker
p4834
sg11
VSw,Sh,
p4835
sg13
VRaid
p4836
sg15
V50
p4837
sg17
g4837
sg18
V15
p4838
sbag1
(g2
g3
Ntp4839
Rp4840
(dp4841
g7
V879
p4842
sg9
VCopperajah
p4843
sg11
VSw,Sh,
p4844
sg13
VRaid
p4845
sg15
V50
p4846
sg17
g4846
sg18
V15
p4847
sbag1
(g2
g3
Ntp4848
Rp4849
(dp4850
g7
V095
p4851
sg9
VOnix
p4852
sg11
VSw,Sh,
p4853
sg13
VRaid
p4854
sg15
V60
p4855
sg17
g4855
sg18
V15
p4856
sbag1
(g2
g3
Ntp4857
Rp4858
(dp4859
g7
V208
p4860
sg9
VSteelix
p4861
sg11
VSw,Sh,
p4862
sg13
VRaid
p4863
sg15
V60
p4864
sg17
g4864
sg18
V20
p4865
sbag1
(g2
g3
Ntp4866
Rp4867
(dp4868
g7
V464
p4869
sg9
VRhyperior
p4870
sg11
VSw,Sh,
p4871
sg13
VRaid
p4872
sg15
V60
p4873
sg17
g4873
sg18
V20
p4874
sbag1
(g2
g3
Ntp4875
Rp4876
(dp4877
g7
V839
p4878
sg9
VCoalossal
p4879
sg11
VSw,Sh,
p4880
sg13
VRaid
p4881
sg15
V60
p4882
sg17
g4882
sg18
V15
p4883
sbag1
(g2
g3
Ntp4884
Rp4885
(dp4886
g7
V863
p4887
sg9
VPerrserker
p4888
sg11
VSw,Sh,
p4889
sg13
VRaid
p4890
sg15
V60
p4891
sg17
g4891
sg18
V15
p4892
sbag1
(g2
g3
Ntp4893
Rp4894
(dp4895
g7
V879
p4896
sg9
VCopperajah
p4897
sg11
VSw,Sh,
p4898
sg13
VRaid
p4899
sg15
V60
p4900
sg17
g4900
sg18
V15
p4901
sbag1
(g2
g3
Ntp4902
Rp4903
(dp4904
g7
V143
p4905
sg9
VSnorlax
p4906
sg11
VSw,Sh,
p4907
sg13
VRaid
p4908
sg15
V17
p4909
sg17
g4909
sg18
V100
p4910
sbag1
(g2
g3
Ntp4911
Rp4912
(dp4913
g7
V068
p4914
sg9
VMachamp
p4915
sg11
g3616
sg13
VRaid
p4916
sg15
V30
p4917
sg17
g4917
sg18
V100
p4918
sbag1
(g2
g3
Ntp4919
Rp4920
(dp4921
g7
V131
p4922
sg9
VLapras
p4923
sg11
g3625
sg13
VRaid
p4924
sg15
V30
p4925
sg17
g4925
sg18
V100
p4926
sbag1
(g2
g3
Ntp4927
Rp4928
(dp4929
g7
V099
p4930
sg9
VKingler
p4931
sg11
g3625
sg13
VRaid
p4932
sg15
V40
p4933
sg17
g4933
sg18
V20
p4934
sbag1
(g2
g3
Ntp4935
Rp4936
(dp4937
g7
V807
p4938
sg9
VZeraora
p4939
sg11
VSw,Sh,
p4940
sg13
VRaid
p4941
sg15
V40
p4942
sg17
g4942
sg18
V40
p4943
sbag1
(g2
g3
Ntp4944
Rp4945
(dp4946
g7
V826
p4947
sg9
VOrbeetle
p4948
sg11
g3616
sg13
VRaid
p4949
sg15
V40
p4950
sg17
g4950
sg18
V20
p4951
sbag1
(g2
g3
Ntp4952
Rp4953
(dp4954
g7
V841
p4955
sg9
VFlapple
p4956
sg11
g3616
sg13
VRaid
p4957
sg15
V40
p4958
sg17
g4958
sg18
V20
p4959
sbag1
(g2
g3
Ntp4960
Rp4961
(dp4962
g7
V842
p4963
sg9
VAppletun
p4964
sg11
g3625
sg13
VRaid
p4965
sg15
V40
p4966
sg17
g4966
sg18
V20
p4967
sbag1
(g2
g3
Ntp4968
Rp4969
(dp4970
g7
V844
p4971
sg9
VSandaconda
p4972
sg11
g3616
sg13
VRaid
p4973
sg15
V40
p4974
sg17
g4974
sg18
V20
p4975
sbag1
(g2
g3
Ntp4976
Rp4977
(dp4978
g7
V851
p4979
sg9
VCentiskorch
p4980
sg11
g3625
sg13
VRaid
p4981
sg15
V40
p4982
sg17
g4982
sg18
V20
p4983
sbag1
(g2
g3
Ntp4984
Rp4985
(dp4986
g7
V006
p4987
sg9
VCharizard
p4988
sg11
g3616
sg13
VRaid
p4989
sg15
V50
p4990
sg17
g4990
sg18
V10
p4991
sbag1
(g2
g3
Ntp4992
Rp4993
(dp4994
g7
V012
p4995
sg9
VButterfree
p4996
sg11
g3616
sg13
VRaid
p4997
sg15
V50
p4998
sg17
g4998
sg18
V10
p4999
sbag1
(g2
g3
Ntp5000
Rp5001
(dp5002
g7
V569
p5003
sg9
VGarbodor
p5004
sg11
g3625
sg13
VRaid
p5005
sg15
V50
p5006
sg17
g5006
sg18
V10
p5007
sbag1
(g2
g3
Ntp5008
Rp5009
(dp5010
g7
V807
p5011
sg9
VZeraora
p5012
sg11
VSw,Sh,
p5013
sg13
VRaid
p5014
sg15
V50
p5015
sg17
g5015
sg18
V40
p5016
sbag1
(g2
g3
Ntp5017
Rp5018
(dp5019
g7
V823
p5020
sg9
VCorviknight
p5021
sg11
g3625
sg13
VRaid
p5022
sg15
V50
p5023
sg17
g5023
sg18
V20
p5024
sbag1
(g2
g3
Ntp5025
Rp5026
(dp5027
g7
V834
p5028
sg9
VDrednaw
p5029
sg11
g3616
sg13
VRaid
p5030
sg15
V50
p5031
sg17
g5031
sg18
V20
p5032
sbag1
(g2
g3
Ntp5033
Rp5034
(dp5035
g7
V858
p5036
sg9
VHatterene
p5037
sg11
g3616
sg13
VRaid
p5038
sg15
V50
p5039
sg17
g5039
sg18
V20
p5040
sbag1
(g2
g3
Ntp5041
Rp5042
(dp5043
g7
V861
p5044
sg9
VGrimmsnarl
p5045
sg11
g3625
sg13
VRaid
p5046
sg15
V50
p5047
sg17
g5047
sg18
V20
p5048
sbag1
(g2
g3
Ntp5049
Rp5050
(dp5051
g7
V869
p5052
sg9
VAlcremie
p5053
sg11
g3625
sg13
VRaid
p5054
sg15
V50
p5055
sg17
g5055
sg18
V10
p5056
sbag1
(g2
g3
Ntp5057
Rp5058
(dp5059
g7
V068
p5060
sg9
VMachamp
p5061
sg11
g3616
sg13
VRaid
p5062
sg15
V60
p5063
sg17
g5063
sg18
V10
p5064
sbag1
(g2
g3
Ntp5065
Rp5066
(dp5067
g7
V094
p5068
sg9
VGengar
p5069
sg11
g3625
sg13
VRaid
p5070
sg15
V60
p5071
sg17
g5071
sg18
V10
p5072
sbag1
(g2
g3
Ntp5073
Rp5074
(dp5075
g7
V131
p5076
sg9
VLapras
p5077
sg11
g3625
sg13
VRaid
p5078
sg15
V60
p5079
sg17
g5079
sg18
V15
p5080
sbag1
(g2
g3
Ntp5081
Rp5082
(dp5083
g7
V143
p5084
sg9
VSnorlax
p5085
sg11
VSw,Sh,
p5086
sg13
VRaid
p5087
sg15
V60
p5088
sg17
g5088
sg18
V10
p5089
sbag1
(g2
g3
Ntp5090
Rp5091
(dp5092
g7
V807
p5093
sg9
VZeraora
p5094
sg11
VSw,Sh,
p5095
sg13
VRaid
p5096
sg15
V60
p5097
sg17
g5097
sg18
V35
p5098
sbag1
(g2
g3
Ntp5099
Rp5100
(dp5101
g7
V807
p5102
sg9
VZeraora
p5103
sg11
VSw,Sh,
p5104
sg13
VRaid
p5105
sg15
V100
p5106
sg17
g5106
sg18
V5
p5107
sbag1
(g2
g3
Ntp5108
Rp5109
(dp5110
g7
V839
p5111
sg9
VCoalossal
p5112
sg11
g3616
sg13
VRaid
p5113
sg15
V60
p5114
sg17
g5114
sg18
V15
p5115
sbag1
(g2
g3
Ntp5116
Rp5117
(dp5118
g7
V849
p5119
sg9
VToxtricity
p5120
sg11
g3625
sg13
VRaid
p5121
sg15
V60
p5122
sg17
g5122
sg18
V15
p5123
sbag1
(g2
g3
Ntp5124
Rp5125
(dp5126
g7
V849
p5127
sg9
VToxtricity
p5128
sg11
g3616
sg13
VRaid
p5129
sg15
V60
p5130
sg17
g5130
sg18
V15
p5131
sbag1
(g2
g3
Ntp5132
Rp5133
(dp5134
g7
V879
p5135
sg9
VCopperajah
p5136
sg11
g3616
sg13
VRaid
p5137
sg15
V60
p5138
sg17
g5138
sg18
V10
p5139
sbag1
(g2
g3
Ntp5140
Rp5141
(dp5142
g7
V884
p5143
sg9
VDuraludon
p5144
sg11
g3625
sg13
VRaid
p5145
sg15
V60
p5146
sg17
g5146
sg18
V10
p5147
sbag1
(g2
g3
Ntp5148
Rp5149
(dp5150
g7
V012
p5151
sg9
VButterfree
p5152
sg11
g3616
sg13
VRaid
p5153
sg15
V17
p5154
sg17
g5154
sg18
V100
p5155
sbag1
(g2
g3
Ntp5156
Rp5157
(dp5158
g7
V869
p5159
sg9
VAlcremie
p5160
sg11
g3625
sg13
VRaid
p5161
sg15
V17
p5162
sg17
g5162
sg18
V100
p5163
sbag1
(g2
g3
Ntp5164
Rp5165
(dp5166
g7
V068
p5167
sg9
VMachamp
p5168
sg11
g3616
sg13
VRaid
p5169
sg15
V30
p5170
sg17
g5170
sg18
V30
p5171
sbag1
(g2
g3
Ntp5172
Rp5173
(dp5174
g7
V131
p5175
sg9
VLapras
p5176
sg11
g3625
sg13
VRaid
p5177
sg15
V30
p5178
sg17
g5178
sg18
V30
p5179
sbag1
(g2
g3
Ntp5180
Rp5181
(dp5182
g7
V143
p5183
sg9
VSnorlax
p5184
sg11
VSw,Sh,
p5185
sg13
VRaid
p5186
sg15
V30
p5187
sg17
g5187
sg18
V40
p5188
sbag1
(g2
g3
Ntp5189
Rp5190
(dp5191
g7
V826
p5192
sg9
VOrbeetle
p5193
sg11
g3616
sg13
VRaid
p5194
sg15
V30
p5195
sg17
g5195
sg18
V30
p5196
sbag1
(g2
g3
Ntp5197
Rp5198
(dp5199
g7
V851
p5200
sg9
VCentiskorch
p5201
sg11
g3625
sg13
VRaid
p5202
sg15
V30
p5203
sg17
g5203
sg18
V30
p5204
sbag1
(g2
g3
Ntp5205
Rp5206
(dp5207
g7
V099
p5208
sg9
VKingler
p5209
sg11
g3625
sg13
VRaid
p5210
sg15
V40
p5211
sg17
g5211
sg18
V30
p5212
sbag1
(g2
g3
Ntp5213
Rp5214
(dp5215
g7
V826
p5216
sg9
VOrbeetle
p5217
sg11
g3616
sg13
VRaid
p5218
sg15
V40
p5219
sg17
g5219
sg18
V30
p5220
sbag1
(g2
g3
Ntp5221
Rp5222
(dp5223
g7
V841
p5224
sg9
VFlapple
p5225
sg11
g3616
sg13
VRaid
p5226
sg15
V40
p5227
sg17
g5227
sg18
V40
p5228
sbag1
(g2
g3
Ntp5229
Rp5230
(dp5231
g7
V842
p5232
sg9
VAppletun
p5233
sg11
g3625
sg13
VRaid
p5234
sg15
V40
p5235
sg17
g5235
sg18
V40
p5236
sbag1
(g2
g3
Ntp5237
Rp5238
(dp5239
g7
V844
p5240
sg9
VSandaconda
p5241
sg11
g3616
sg13
VRaid
p5242
sg15
V40
p5243
sg17
g5243
sg18
V30
p5244
sbag1
(g2
g3
Ntp5245
Rp5246
(dp5247
g7
V851
p5248
sg9
VCentiskorch
p5249
sg11
g3625
sg13
VRaid
p5250
sg15
V40
p5251
sg17
g5251
sg18
V30
p5252
sbag1
(g2
g3
Ntp5253
Rp5254
(dp5255
g7
V006
p5256
sg9
VCharizard
p5257
sg11
g3616
sg13
VRaid
p5258
sg15
V50
p5259
sg17
g5259
sg18
V20
p5260
sbag1
(g2
g3
Ntp5261
Rp5262
(dp5263
g7
V012
p5264
sg9
VButterfree
p5265
sg11
g3616
sg13
VRaid
p5266
sg15
V50
p5267
sg17
g5267
sg18
V20
p5268
sbag1
(g2
g3
Ntp5269
Rp5270
(dp5271
g7
V569
p5272
sg9
VGarbodor
p5273
sg11
g3625
sg13
VRaid
p5274
sg15
V50
p5275
sg17
g5275
sg18
V20
p5276
sbag1
(g2
g3
Ntp5277
Rp5278
(dp5279
g7
V823
p5280
sg9
VCorviknight
p5281
sg11
g3625
sg13
VRaid
p5282
sg15
V50
p5283
sg17
g5283
sg18
V30
p5284
sbag1
(g2
g3
Ntp5285
Rp5286
(dp5287
g7
V834
p5288
sg9
VDrednaw
p5289
sg11
g3616
sg13
VRaid
p5290
sg15
V50
p5291
sg17
g5291
sg18
V30
p5292
sbag1
(g2
g3
Ntp5293
Rp5294
(dp5295
g7
V858
p5296
sg9
VHatterene
p5297
sg11
g3616
sg13
VRaid
p5298
sg15
V50
p5299
sg17
g5299
sg18
V30
p5300
sbag1
(g2
g3
Ntp5301
Rp5302
(dp5303
g7
V861
p5304
sg9
VGrimmsnarl
p5305
sg11
g3625
sg13
VRaid
p5306
sg15
V50
p5307
sg17
g5307
sg18
V30
p5308
sbag1
(g2
g3
Ntp5309
Rp5310
(dp5311
g7
V869
p5312
sg9
VAlcremie
p5313
sg11
g3625
sg13
VRaid
p5314
sg15
V50
p5315
sg17
g5315
sg18
V20
p5316
sbag1
(g2
g3
Ntp5317
Rp5318
(dp5319
g7
V068
p5320
sg9
VMachamp
p5321
sg11
g3616
sg13
VRaid
p5322
sg15
V60
p5323
sg17
g5323
sg18
V15
p5324
sbag1
(g2
g3
Ntp5325
Rp5326
(dp5327
g7
V094
p5328
sg9
VGengar
p5329
sg11
g3625
sg13
VRaid
p5330
sg15
V60
p5331
sg17
g5331
sg18
V15
p5332
sbag1
(g2
g3
Ntp5333
Rp5334
(dp5335
g7
V131
p5336
sg9
VLapras
p5337
sg11
g3625
sg13
VRaid
p5338
sg15
V60
p5339
sg17
g5339
sg18
V25
p5340
sbag1
(g2
g3
Ntp5341
Rp5342
(dp5343
g7
V143
p5344
sg9
VSnorlax
p5345
sg11
VSw,Sh,
p5346
sg13
VRaid
p5347
sg15
V60
p5348
sg17
g5348
sg18
V20
p5349
sbag1
(g2
g3
Ntp5350
Rp5351
(dp5352
g7
V839
p5353
sg9
VCoalossal
p5354
sg11
g3616
sg13
VRaid
p5355
sg15
V60
p5356
sg17
g5356
sg18
V25
p5357
sbag1
(g2
g3
Ntp5358
Rp5359
(dp5360
g7
V849
p5361
sg9
VToxtricity
p5362
sg11
g3625
sg13
VRaid
p5363
sg15
V60
p5364
sg17
g5364
sg18
V25
p5365
sbag1
(g2
g3
Ntp5366
Rp5367
(dp5368
g7
V849
p5369
sg9
VToxtricity
p5370
sg11
g3616
sg13
VRaid
p5371
sg15
V60
p5372
sg17
g5372
sg18
V25
p5373
sbag1
(g2
g3
Ntp5374
Rp5375
(dp5376
g7
V879
p5377
sg9
VCopperajah
p5378
sg11
g3616
sg13
VRaid
p5379
sg15
V60
p5380
sg17
g5380
sg18
V15
p5381
sbag1
(g2
g3
Ntp5382
Rp5383
(dp5384
g7
V884
p5385
sg9
VDuraludon
p5386
sg11
g3625
sg13
VRaid
p5387
sg15
V60
p5388
sg17
g5388
sg18
V15
p5389
sbag1
(g2
g3
Ntp5390
Rp5391
(dp5392
g7
V052
p5393
sg9
VMeowth
p5394
sg11
VSw,Sh,
p5395
sg13
VRaid
p5396
sg15
V17
p5397
sg17
g5397
sg18
V100
p5398
sbag1
(g2
g3
Ntp5399
Rp5400
(dp5401
g7
V052
p5402
sg9
VMeowth
p5403
sg11
VSw,Sh,
p5404
sg13
VRaid
p5405
sg15
V30
p5406
sg17
g5406
sg18
V100
p5407
sbag1
(g2
g3
Ntp5408
Rp5409
(dp5410
g7
V052
p5411
sg9
VMeowth
p5412
sg11
VSw,Sh,
p5413
sg13
VRaid
p5414
sg15
V40
p5415
sg17
g5415
sg18
V100
p5416
sbag1
(g2
g3
Ntp5417
Rp5418
(dp5419
g7
V052
p5420
sg9
VMeowth
p5421
sg11
VSw,Sh,
p5422
sg13
VRaid
p5423
sg15
V50
p5424
sg17
g5424
sg18
V100
p5425
sbag1
(g2
g3
Ntp5426
Rp5427
(dp5428
g7
V052
p5429
sg9
VMeowth
p5430
sg11
VSw,Sh,
p5431
sg13
VRaid
p5432
sg15
V60
p5433
sg17
g5433
sg18
V100
p5434
sbag1
(g2
g3
Ntp5435
Rp5436
(dp5437
g7
V133
p5438
sg9
VEevee
p5439
sg11
VSw,Sh,
p5440
sg13
VRaid
p5441
sg15
V17
p5442
sg17
g5442
sg18
V100
p5443
sbag1
(g2
g3
Ntp5444
Rp5445
(dp5446
g7
V133
p5447
sg9
VEevee
p5448
sg11
VSw,Sh,
p5449
sg13
VRaid
p5450
sg15
V30
p5451
sg17
g5451
sg18
V100
p5452
sbag1
(g2
g3
Ntp5453
Rp5454
(dp5455
g7
V133
p5456
sg9
VEevee
p5457
sg11
VSw,Sh,
p5458
sg13
VRaid
p5459
sg15
V40
p5460
sg17
g5460
sg18
V100
p5461
sbag1
(g2
g3
Ntp5462
Rp5463
(dp5464
g7
V133
p5465
sg9
VEevee
p5466
sg11
VSw,Sh,
p5467
sg13
VRaid
p5468
sg15
V50
p5469
sg17
g5469
sg18
V100
p5470
sbag1
(g2
g3
Ntp5471
Rp5472
(dp5473
g7
V133
p5474
sg9
VEevee
p5475
sg11
VSw,Sh,
p5476
sg13
VRaid
p5477
sg15
V60
p5478
sg17
g5478
sg18
V100
p5479
sbag1
(g2
g3
Ntp5480
Rp5481
(dp5482
g7
V025
p5483
sg9
VPikachu
p5484
sg11
VSw,Sh,
p5485
sg13
VRaid
p5486
sg15
V17
p5487
sg17
g5487
sg18
V100
p5488
sbag1
(g2
g3
Ntp5489
Rp5490
(dp5491
g7
V025
p5492
sg9
VPikachu
p5493
sg11
VSw,Sh,
p5494
sg13
VRaid
p5495
sg15
V30
p5496
sg17
g5496
sg18
V100
p5497
sbag1
(g2
g3
Ntp5498
Rp5499
(dp5500
g7
V025
p5501
sg9
VPikachu
p5502
sg11
VSw,Sh,
p5503
sg13
VRaid
p5504
sg15
V40
p5505
sg17
g5505
sg18
V100
p5506
sbag1
(g2
g3
Ntp5507
Rp5508
(dp5509
g7
V025
p5510
sg9
VPikachu
p5511
sg11
VSw,Sh,
p5512
sg13
VRaid
p5513
sg15
V50
p5514
sg17
g5514
sg18
V100
p5515
sbag1
(g2
g3
Ntp5516
Rp5517
(dp5518
g7
V025
p5519
sg9
VPikachu
p5520
sg11
VSw,Sh,
p5521
sg13
VRaid
p5522
sg15
V60
p5523
sg17
g5523
sg18
V100
p5524
sbag1
(g2
g3
Ntp5525
Rp5526
(dp5527
g7
V175
p5528
sg9
VTogepi
p5529
sg11
VSw,Sh,
p5530
sg13
VRaid
p5531
sg15
V17
p5532
sg17
g5532
sg18
V20
p5533
sbag1
(g2
g3
Ntp5534
Rp5535
(dp5536
g7
V246
p5537
sg9
VLarvitar
p5538
sg11
VSw,Sh,
p5539
sg13
VRaid
p5540
sg15
V17
p5541
sg17
g5541
sg18
V15
p5542
sbag1
(g2
g3
Ntp5543
Rp5544
(dp5545
g7
V479
p5546
sg9
VRotom
p5547
sg11
g3625
sg13
VRaid
p5548
sg15
V17
p5549
sg17
g5549
sg18
V15
p5550
sbag1
(g2
g3
Ntp5551
Rp5552
(dp5553
g7
V479
p5554
sg9
VRotom
p5555
sg11
g3616
sg13
VRaid
p5556
sg15
V17
p5557
sg17
g5557
sg18
V15
p5558
sbag1
(g2
g3
Ntp5559
Rp5560
(dp5561
g7
V529
p5562
sg9
VDrilbur
p5563
sg11
VSw,Sh,
p5564
sg13
VRaid
p5565
sg15
V17
p5566
sg17
g5566
sg18
V20
p5567
sbag1
(g2
g3
Ntp5568
Rp5569
(dp5570
g7
V546
p5571
sg9
VCottonee
p5572
sg11
VSw,Sh,
p5573
sg13
VRaid
p5574
sg15
V17
p5575
sg17
g5575
sg18
V15
p5576
sbag1
(g2
g3
Ntp5577
Rp5578
(dp5579
g7
V885
p5580
sg9
VDreepy
p5581
sg11
VSw,Sh,
p5582
sg13
VRaid
p5583
sg15
V17
p5584
sg17
g5584
sg18
V15
p5585
sbag1
(g2
g3
Ntp5586
Rp5587
(dp5588
g7
V176
p5589
sg9
VTogetic
p5590
sg11
VSw,Sh,
p5591
sg13
VRaid
p5592
sg15
V30
p5593
sg17
g5593
sg18
V20
p5594
sbag1
(g2
g3
Ntp5595
Rp5596
(dp5597
g7
V247
p5598
sg9
VPupitar
p5599
sg11
VSw,Sh,
p5600
sg13
VRaid
p5601
sg15
V30
p5602
sg17
g5602
sg18
V15
p5603
sbag1
(g2
g3
Ntp5604
Rp5605
(dp5606
g7
V479
p5607
sg9
VRotom
p5608
sg11
g3625
sg13
VRaid
p5609
sg15
V30
p5610
sg17
g5610
sg18
V15
p5611
sbag1
(g2
g3
Ntp5612
Rp5613
(dp5614
g7
V479
p5615
sg9
VRotom
p5616
sg11
g3616
sg13
VRaid
p5617
sg15
V30
p5618
sg17
g5618
sg18
V15
p5619
sbag1
(g2
g3
Ntp5620
Rp5621
(dp5622
g7
V529
p5623
sg9
VDrilbur
p5624
sg11
VSw,Sh,
p5625
sg13
VRaid
p5626
sg15
V30
p5627
sg17
g5627
sg18
V20
p5628
sbag1
(g2
g3
Ntp5629
Rp5630
(dp5631
g7
V546
p5632
sg9
VCottonee
p5633
sg11
VSw,Sh,
p5634
sg13
VRaid
p5635
sg15
V30
p5636
sg17
g5636
sg18
V15
p5637
sbag1
(g2
g3
Ntp5638
Rp5639
(dp5640
g7
V886
p5641
sg9
VDrakloak
p5642
sg11
VSw,Sh,
p5643
sg13
VRaid
p5644
sg15
V30
p5645
sg17
g5645
sg18
V15
p5646
sbag1
(g2
g3
Ntp5647
Rp5648
(dp5649
g7
V248
p5650
sg9
VTyranitar
p5651
sg11
VSw,Sh,
p5652
sg13
VRaid
p5653
sg15
V40
p5654
sg17
g5654
sg18
V15
p5655
sbag1
(g2
g3
Ntp5656
Rp5657
(dp5658
g7
V468
p5659
sg9
VTogekiss
p5660
sg11
VSw,Sh,
p5661
sg13
VRaid
p5662
sg15
V40
p5663
sg17
g5663
sg18
V20
p5664
sbag1
(g2
g3
Ntp5665
Rp5666
(dp5667
g7
V479
p5668
sg9
VRotom
p5669
sg11
g3625
sg13
VRaid
p5670
sg15
V40
p5671
sg17
g5671
sg18
V15
p5672
sbag1
(g2
g3
Ntp5673
Rp5674
(dp5675
g7
V479
p5676
sg9
VRotom
p5677
sg11
g3616
sg13
VRaid
p5678
sg15
V40
p5679
sg17
g5679
sg18
V15
p5680
sbag1
(g2
g3
Ntp5681
Rp5682
(dp5683
g7
V530
p5684
sg9
VExcadrill
p5685
sg11
VSw,Sh,
p5686
sg13
VRaid
p5687
sg15
V40
p5688
sg17
g5688
sg18
V20
p5689
sbag1
(g2
g3
Ntp5690
Rp5691
(dp5692
g7
V547
p5693
sg9
VWhimsicott
p5694
sg11
VSw,Sh,
p5695
sg13
VRaid
p5696
sg15
V40
p5697
sg17
g5697
sg18
V15
p5698
sbag1
(g2
g3
Ntp5699
Rp5700
(dp5701
g7
V887
p5702
sg9
VDragapult
p5703
sg11
VSw,Sh,
p5704
sg13
VRaid
p5705
sg15
V40
p5706
sg17
g5706
sg18
V15
p5707
sbag1
(g2
g3
Ntp5708
Rp5709
(dp5710
g7
V248
p5711
sg9
VTyranitar
p5712
sg11
VSw,Sh,
p5713
sg13
VRaid
p5714
sg15
V50
p5715
sg17
g5715
sg18
V15
p5716
sbag1
(g2
g3
Ntp5717
Rp5718
(dp5719
g7
V468
p5720
sg9
VTogekiss
p5721
sg11
VSw,Sh,
p5722
sg13
VRaid
p5723
sg15
V50
p5724
sg17
g5724
sg18
V20
p5725
sbag1
(g2
g3
Ntp5726
Rp5727
(dp5728
g7
V479
p5729
sg9
VRotom
p5730
sg11
g3625
sg13
VRaid
p5731
sg15
V50
p5732
sg17
g5732
sg18
V15
p5733
sbag1
(g2
g3
Ntp5734
Rp5735
(dp5736
g7
V479
p5737
sg9
VRotom
p5738
sg11
g3616
sg13
VRaid
p5739
sg15
V50
p5740
sg17
g5740
sg18
V15
p5741
sbag1
(g2
g3
Ntp5742
Rp5743
(dp5744
g7
V530
p5745
sg9
VExcadrill
p5746
sg11
VSw,Sh,
p5747
sg13
VRaid
p5748
sg15
V50
p5749
sg17
g5749
sg18
V20
p5750
sbag1
(g2
g3
Ntp5751
Rp5752
(dp5753
g7
V547
p5754
sg9
VWhimsicott
p5755
sg11
VSw,Sh,
p5756
sg13
VRaid
p5757
sg15
V50
p5758
sg17
g5758
sg18
V15
p5759
sbag1
(g2
g3
Ntp5760
Rp5761
(dp5762
g7
V887
p5763
sg9
VDragapult
p5764
sg11
VSw,Sh,
p5765
sg13
VRaid
p5766
sg15
V50
p5767
sg17
g5767
sg18
V15
p5768
sbag1
(g2
g3
Ntp5769
Rp5770
(dp5771
g7
V248
p5772
sg9
VTyranitar
p5773
sg11
VSw,Sh,
p5774
sg13
VRaid
p5775
sg15
V60
p5776
sg17
g5776
sg18
V15
p5777
sbag1
(g2
g3
Ntp5778
Rp5779
(dp5780
g7
V468
p5781
sg9
VTogekiss
p5782
sg11
VSw,Sh,
p5783
sg13
VRaid
p5784
sg15
V60
p5785
sg17
g5785
sg18
V20
p5786
sbag1
(g2
g3
Ntp5787
Rp5788
(dp5789
g7
V479
p5790
sg9
VRotom
p5791
sg11
g3625
sg13
VRaid
p5792
sg15
V60
p5793
sg17
g5793
sg18
V15
p5794
sbag1
(g2
g3
Ntp5795
Rp5796
(dp5797
g7
V479
p5798
sg9
VRotom
p5799
sg11
g3616
sg13
VRaid
p5800
sg15
V60
p5801
sg17
g5801
sg18
V15
p5802
sbag1
(g2
g3
Ntp5803
Rp5804
(dp5805
g7
V530
p5806
sg9
VExcadrill
p5807
sg11
VSw,Sh,
p5808
sg13
VRaid
p5809
sg15
V60
p5810
sg17
g5810
sg18
V20
p5811
sbag1
(g2
g3
Ntp5812
Rp5813
(dp5814
g7
V547
p5815
sg9
VWhimsicott
p5816
sg11
VSw,Sh,
p5817
sg13
VRaid
p5818
sg15
V60
p5819
sg17
g5819
sg18
V15
p5820
sbag1
(g2
g3
Ntp5821
Rp5822
(dp5823
g7
V887
p5824
sg9
VDragapult
p5825
sg11
VSw,Sh,
p5826
sg13
VRaid
p5827
sg15
V60
p5828
sg17
g5828
sg18
V15
p5829
sbag1
(g2
g3
Ntp5830
Rp5831
(dp5832
g7
V004
p5833
sg9
VCharmander
p5834
sg11
VSw,Sh,
p5835
sg13
VRaid
p5836
sg15
V17
p5837
sg17
g5837
sg18
V30
p5838
sbag1
(g2
g3
Ntp5839
Rp5840
(dp5841
g7
V568
p5842
sg9
VTrubbish
p5843
sg11
VSw,Sh,
p5844
sg13
VRaid
p5845
sg15
V17
p5846
sg17
g5846
sg18
V20
p5847
sbag1
(g2
g3
Ntp5848
Rp5849
(dp5850
g7
V878
p5851
sg9
VCufant
p5852
sg11
VSw,Sh,
p5853
sg13
VRaid
p5854
sg15
V17
p5855
sg17
g5855
sg18
V20
p5856
sbag1
(g2
g3
Ntp5857
Rp5858
(dp5859
g7
V884
p5860
sg9
VDuraludon
p5861
sg11
VSw,Sh,
p5862
sg13
VRaid
p5863
sg15
V17
p5864
sg17
g5864
sg18
V30
p5865
sbag1
(g2
g3
Ntp5866
Rp5867
(dp5868
g7
V005
p5869
sg9
VCharmeleon
p5870
sg11
VSw,Sh,
p5871
sg13
VRaid
p5872
sg15
V30
p5873
sg17
g5873
sg18
V30
p5874
sbag1
(g2
g3
Ntp5875
Rp5876
(dp5877
g7
V568
p5878
sg9
VTrubbish
p5879
sg11
VSw,Sh,
p5880
sg13
VRaid
p5881
sg15
V30
p5882
sg17
g5882
sg18
V20
p5883
sbag1
(g2
g3
Ntp5884
Rp5885
(dp5886
g7
V878
p5887
sg9
VCufant
p5888
sg11
VSw,Sh,
p5889
sg13
VRaid
p5890
sg15
V30
p5891
sg17
g5891
sg18
V20
p5892
sbag1
(g2
g3
Ntp5893
Rp5894
(dp5895
g7
V884
p5896
sg9
VDuraludon
p5897
sg11
VSw,Sh,
p5898
sg13
VRaid
p5899
sg15
V30
p5900
sg17
g5900
sg18
V30
p5901
sbag1
(g2
g3
Ntp5902
Rp5903
(dp5904
g7
V236
p5905
sg9
VTyrogue
p5906
sg11
VSw,Sh,
p5907
sg13
VRaid
p5908
sg15
V40
p5909
sg17
g5909
sg18
V12
p5910
sbag1
(g2
g3
Ntp5911
Rp5912
(dp5913
g7
V406
p5914
sg9
VBudew
p5915
sg11
VSw,Sh,
p5916
sg13
VRaid
p5917
sg15
V40
p5918
sg17
g5918
sg18
V12
p5919
sbag1
(g2
g3
Ntp5920
Rp5921
(dp5922
g7
V438
p5923
sg9
VBonsly
p5924
sg11
VSw,Sh,
p5925
sg13
VRaid
p5926
sg15
V40
p5927
sg17
g5927
sg18
V12
p5928
sbag1
(g2
g3
Ntp5929
Rp5930
(dp5931
g7
V439
p5932
sg9
VMime Jr.
p5933
sg11
VSw,Sh,
p5934
sg13
VRaid
p5935
sg15
V40
p5936
sg17
g5936
sg18
V14
p5937
sbag1
(g2
g3
Ntp5938
Rp5939
(dp5940
g7
V446
p5941
sg9
VMunchlax
p5942
sg11
VSw,Sh,
p5943
sg13
VRaid
p5944
sg15
V40
p5945
sg17
g5945
sg18
V12
p5946
sbag1
(g2
g3
Ntp5947
Rp5948
(dp5949
g7
V447
p5950
sg9
VRiolu
p5951
sg11
VSw,Sh,
p5952
sg13
VRaid
p5953
sg15
V40
p5954
sg17
g5954
sg18
V14
p5955
sbag1
(g2
g3
Ntp5956
Rp5957
(dp5958
g7
V458
p5959
sg9
VMantyke
p5960
sg11
VSw,Sh,
p5961
sg13
VRaid
p5962
sg15
V40
p5963
sg17
g5963
sg18
V12
p5964
sbag1
(g2
g3
Ntp5965
Rp5966
(dp5967
g7
V848
p5968
sg9
VToxel
p5969
sg11
VSw,Sh,
p5970
sg13
VRaid
p5971
sg15
V40
p5972
sg17
g5972
sg18
V12
p5973
sbag1
(g2
g3
Ntp5974
Rp5975
(dp5976
g7
V006
p5977
sg9
VCharizard
p5978
sg11
VSw,Sh,
p5979
sg13
VRaid
p5980
sg15
V50
p5981
sg17
g5981
sg18
V30
p5982
sbag1
(g2
g3
Ntp5983
Rp5984
(dp5985
g7
V172
p5986
sg9
VPichu
p5987
sg11
VSw,Sh,
p5988
sg13
VRaid
p5989
sg15
V50
p5990
sg17
g5990
sg18
V10
p5991
sbag1
(g2
g3
Ntp5992
Rp5993
(dp5994
g7
V173
p5995
sg9
VCleffa
p5996
sg11
VSw,Sh,
p5997
sg13
VRaid
p5998
sg15
V50
p5999
sg17
g5999
sg18
V10
p6000
sbag1
(g2
g3
Ntp6001
Rp6002
(dp6003
g7
V175
p6004
sg9
VTogepi
p6005
sg11
VSw,Sh,
p6006
sg13
VRaid
p6007
sg15
V50
p6008
sg17
g6008
sg18
V10
p6009
sbag1
(g2
g3
Ntp6010
Rp6011
(dp6012
g7
V360
p6013
sg9
VWynaut
p6014
sg11
VSw,Sh,
p6015
sg13
VRaid
p6016
sg15
V50
p6017
sg17
g6017
sg18
V10
p6018
sbag1
(g2
g3
Ntp6019
Rp6020
(dp6021
g7
V884
p6022
sg9
VDuraludon
p6023
sg11
VSw,Sh,
p6024
sg13
VRaid
p6025
sg15
V50
p6026
sg17
g6026
sg18
V30
p6027
sbag1
(g2
g3
Ntp6028
Rp6029
(dp6030
g7
V006
p6031
sg9
VCharizard
p6032
sg11
g3616
sg13
VRaid
p6033
sg15
V60
p6034
sg17
g6034
sg18
V35
p6035
sbag1
(g2
g3
Ntp6036
Rp6037
(dp6038
g7
V132
p6039
sg9
VDitto
p6040
sg11
VSw,Sh,
p6041
sg13
VRaid
p6042
sg15
V60
p6043
sg17
g6043
sg18
V40
p6044
sbag1
(g2
g3
Ntp6045
Rp6046
(dp6047
g7
V569
p6048
sg9
VGarbodor
p6049
sg11
g3616
sg13
VRaid
p6050
sg15
V60
p6051
sg17
g6051
sg18
V25
p6052
sbag1
(g2
g3
Ntp6053
Rp6054
(dp6055
g7
V879
p6056
sg9
VCopperajah
p6057
sg11
g3625
sg13
VRaid
p6058
sg15
V60
p6059
sg17
g6059
sg18
V25
p6060
sbag1
(g2
g3
Ntp6061
Rp6062
(dp6063
g7
V884
p6064
sg9
VDuraludon
p6065
sg11
g3625
sg13
VRaid
p6066
sg15
V60
p6067
sg17
g6067
sg18
V35
p6068
sbag1
(g2
g3
Ntp6069
Rp6070
(dp6071
g7
V004
p6072
sg9
VCharmander
p6073
sg11
VSw,Sh,
p6074
sg13
VRaid
p6075
sg15
V17
p6076
sg17
g6076
sg18
V30
p6077
sbag1
(g2
g3
Ntp6078
Rp6079
(dp6080
g7
V568
p6081
sg9
VTrubbish
p6082
sg11
VSw,Sh,
p6083
sg13
VRaid
p6084
sg15
V17
p6085
sg17
g6085
sg18
V20
p6086
sbag1
(g2
g3
Ntp6087
Rp6088
(dp6089
g7
V878
p6090
sg9
VCufant
p6091
sg11
VSw,Sh,
p6092
sg13
VRaid
p6093
sg15
V17
p6094
sg17
g6094
sg18
V20
p6095
sbag1
(g2
g3
Ntp6096
Rp6097
(dp6098
g7
V884
p6099
sg9
VDuraludon
p6100
sg11
VSw,Sh,
p6101
sg13
VRaid
p6102
sg15
V17
p6103
sg17
g6103
sg18
V30
p6104
sbag1
(g2
g3
Ntp6105
Rp6106
(dp6107
g7
V005
p6108
sg9
VCharmeleon
p6109
sg11
VSw,Sh,
p6110
sg13
VRaid
p6111
sg15
V30
p6112
sg17
g6112
sg18
V30
p6113
sbag1
(g2
g3
Ntp6114
Rp6115
(dp6116
g7
V568
p6117
sg9
VTrubbish
p6118
sg11
VSw,Sh,
p6119
sg13
VRaid
p6120
sg15
V30
p6121
sg17
g6121
sg18
V20
p6122
sbag1
(g2
g3
Ntp6123
Rp6124
(dp6125
g7
V878
p6126
sg9
VCufant
p6127
sg11
VSw,Sh,
p6128
sg13
VRaid
p6129
sg15
V30
p6130
sg17
g6130
sg18
V20
p6131
sbag1
(g2
g3
Ntp6132
Rp6133
(dp6134
g7
V884
p6135
sg9
VDuraludon
p6136
sg11
VSw,Sh,
p6137
sg13
VRaid
p6138
sg15
V30
p6139
sg17
g6139
sg18
V30
p6140
sbag1
(g2
g3
Ntp6141
Rp6142
(dp6143
g7
V006
p6144
sg9
VCharizard
p6145
sg11
VSw,Sh,
p6146
sg13
VRaid
p6147
sg15
V40
p6148
sg17
g6148
sg18
V30
p6149
sbag1
(g2
g3
Ntp6150
Rp6151
(dp6152
g7
V569
p6153
sg9
VGarbodor
p6154
sg11
VSw,Sh,
p6155
sg13
VRaid
p6156
sg15
V40
p6157
sg17
g6157
sg18
V20
p6158
sbag1
(g2
g3
Ntp6159
Rp6160
(dp6161
g7
V879
p6162
sg9
VCopperajah
p6163
sg11
VSw,Sh,
p6164
sg13
VRaid
p6165
sg15
V40
p6166
sg17
g6166
sg18
V20
p6167
sbag1
(g2
g3
Ntp6168
Rp6169
(dp6170
g7
V884
p6171
sg9
VDuraludon
p6172
sg11
VSw,Sh,
p6173
sg13
VRaid
p6174
sg15
V40
p6175
sg17
g6175
sg18
V30
p6176
sbag1
(g2
g3
Ntp6177
Rp6178
(dp6179
g7
V006
p6180
sg9
VCharizard
p6181
sg11
VSw,Sh,
p6182
sg13
VRaid
p6183
sg15
V50
p6184
sg17
g6184
sg18
V30
p6185
sbag1
(g2
g3
Ntp6186
Rp6187
(dp6188
g7
V569
p6189
sg9
VGarbodor
p6190
sg11
VSw,Sh,
p6191
sg13
VRaid
p6192
sg15
V50
p6193
sg17
g6193
sg18
V20
p6194
sbag1
(g2
g3
Ntp6195
Rp6196
(dp6197
g7
V879
p6198
sg9
VCopperajah
p6199
sg11
VSw,Sh,
p6200
sg13
VRaid
p6201
sg15
V50
p6202
sg17
g6202
sg18
V20
p6203
sbag1
(g2
g3
Ntp6204
Rp6205
(dp6206
g7
V884
p6207
sg9
VDuraludon
p6208
sg11
VSw,Sh,
p6209
sg13
VRaid
p6210
sg15
V50
p6211
sg17
g6211
sg18
V30
p6212
sbag1
(g2
g3
Ntp6213
Rp6214
(dp6215
g7
V006
p6216
sg9
VCharizard
p6217
sg11
g3616
sg13
VRaid
p6218
sg15
V60
p6219
sg17
g6219
sg18
V60
p6220
sbag1
(g2
g3
Ntp6221
Rp6222
(dp6223
g7
V569
p6224
sg9
VGarbodor
p6225
sg11
g3616
sg13
VRaid
p6226
sg15
V60
p6227
sg17
g6227
sg18
V40
p6228
sbag1
(g2
g3
Ntp6229
Rp6230
(dp6231
g7
V879
p6232
sg9
VCopperajah
p6233
sg11
g3625
sg13
VRaid
p6234
sg15
V60
p6235
sg17
g6235
sg18
V40
p6236
sbag1
(g2
g3
Ntp6237
Rp6238
(dp6239
g7
V884
p6240
sg9
VDuraludon
p6241
sg11
g3625
sg13
VRaid
p6242
sg15
V60
p6243
sg17
g6243
sg18
V60
p6244
sbag1
(g2
g3
Ntp6245
Rp6246
(dp6247
g7
V066
p6248
sg9
VMachop
p6249
sg11
VSw,Sh,
p6250
sg13
VRaid
p6251
sg15
V17
p6252
sg17
g6252
sg18
V17
p6253
sbag1
(g2
g3
Ntp6254
Rp6255
(dp6256
g7
V092
p6257
sg9
VGastly
p6258
sg11
VSw,Sh,
p6259
sg13
VRaid
p6260
sg15
V17
p6261
sg17
g6261
sg18
V17
p6262
sbag1
(g2
g3
Ntp6263
Rp6264
(dp6265
g7
V222
p6266
sg9
VCorsola
p6267
sg11
g3625
sg13
VRaid
p6268
sg15
V17
p6269
sg17
g6269
sg18
V17
p6270
sbag1
(g2
g3
Ntp6271
Rp6272
(dp6273
g7
V554
p6274
sg9
VDarumaka
p6275
sg11
g3616
sg13
VRaid
p6276
sg15
V17
p6277
sg17
g6277
sg18
V17
p6278
sbag1
(g2
g3
Ntp6279
Rp6280
(dp6281
g7
V588
p6282
sg9
VKarrablast
p6283
sg11
VSw,Sh,
p6284
sg13
VRaid
p6285
sg15
V17
p6286
sg17
g6286
sg18
V15
p6287
sbag1
(g2
g3
Ntp6288
Rp6289
(dp6290
g7
V616
p6291
sg9
VShelmet
p6292
sg11
VSw,Sh,
p6293
sg13
VRaid
p6294
sg15
V17
p6295
sg17
g6295
sg18
V17
p6296
sbag1
(g2
g3
Ntp6297
Rp6298
(dp6299
g7
V871
p6300
sg9
VPincurchin
p6301
sg11
VSw,Sh,
p6302
sg13
VRaid
p6303
sg15
V17
p6304
sg17
g6304
sg18
V17
p6305
sbag1
(g2
g3
Ntp6306
Rp6307
(dp6308
g7
V067
p6309
sg9
VMachoke
p6310
sg11
VSw,Sh,
p6311
sg13
VRaid
p6312
sg15
V30
p6313
sg17
g6313
sg18
V17
p6314
sbag1
(g2
g3
Ntp6315
Rp6316
(dp6317
g7
V077
p6318
sg9
VPonyta
p6319
sg11
g3625
sg13
VRaid
p6320
sg15
V30
p6321
sg17
g6321
sg18
V15
p6322
sbag1
(g2
g3
Ntp6323
Rp6324
(dp6325
g7
V083
p6326
sg9
VFarfetch'd
p6327
sg11
g3616
sg13
VRaid
p6328
sg15
V30
p6329
sg17
g6329
sg18
V15
p6330
sbag1
(g2
g3
Ntp6331
Rp6332
(dp6333
g7
V093
p6334
sg9
VHaunter
p6335
sg11
VSw,Sh,
p6336
sg13
VRaid
p6337
sg15
V30
p6338
sg17
g6338
sg18
V17
p6339
sbag1
(g2
g3
Ntp6340
Rp6341
(dp6342
g7
V143
p6343
sg9
VSnorlax
p6344
sg11
VSw,Sh,
p6345
sg13
VRaid
p6346
sg15
V30
p6347
sg17
g6347
sg18
V17
p6348
sbag1
(g2
g3
Ntp6349
Rp6350
(dp6351
g7
V222
p6352
sg9
VCorsola
p6353
sg11
g3625
sg13
VRaid
p6354
sg15
V30
p6355
sg17
g6355
sg18
V17
p6356
sbag1
(g2
g3
Ntp6357
Rp6358
(dp6359
g7
V554
p6360
sg9
VDarumaka
p6361
sg11
g3616
sg13
VRaid
p6362
sg15
V30
p6363
sg17
g6363
sg18
V17
p6364
sbag1
(g2
g3
Ntp6365
Rp6366
(dp6367
g7
V871
p6368
sg9
VPincurchin
p6369
sg11
VSw,Sh,
p6370
sg13
VRaid
p6371
sg15
V30
p6372
sg17
g6372
sg18
V17
p6373
sbag1
(g2
g3
Ntp6374
Rp6375
(dp6376
g7
V068
p6377
sg9
VMachamp
p6378
sg11
VSw,Sh,
p6379
sg13
VRaid
p6380
sg15
V40
p6381
sg17
g6381
sg18
V20
p6382
sbag1
(g2
g3
Ntp6383
Rp6384
(dp6385
g7
V077
p6386
sg9
VPonyta
p6387
sg11
g3625
sg13
VRaid
p6388
sg15
V40
p6389
sg17
g6389
sg18
V15
p6390
sbag1
(g2
g3
Ntp6391
Rp6392
(dp6393
g7
V083
p6394
sg9
VFarfetch'd
p6395
sg11
g3616
sg13
VRaid
p6396
sg15
V40
p6397
sg17
g6397
sg18
V15
p6398
sbag1
(g2
g3
Ntp6399
Rp6400
(dp6401
g7
V094
p6402
sg9
VGengar
p6403
sg11
VSw,Sh,
p6404
sg13
VRaid
p6405
sg15
V40
p6406
sg17
g6406
sg18
V20
p6407
sbag1
(g2
g3
Ntp6408
Rp6409
(dp6410
g7
V143
p6411
sg9
VSnorlax
p6412
sg11
VSw,Sh,
p6413
sg13
VRaid
p6414
sg15
V40
p6415
sg17
g6415
sg18
V20
p6416
sbag1
(g2
g3
Ntp6417
Rp6418
(dp6419
g7
V222
p6420
sg9
VCorsola
p6421
sg11
g3625
sg13
VRaid
p6422
sg15
V40
p6423
sg17
g6423
sg18
V15
p6424
sbag1
(g2
g3
Ntp6425
Rp6426
(dp6427
g7
V554
p6428
sg9
VDarumaka
p6429
sg11
g3616
sg13
VRaid
p6430
sg15
V40
p6431
sg17
g6431
sg18
V15
p6432
sbag1
(g2
g3
Ntp6433
Rp6434
(dp6435
g7
V871
p6436
sg9
VPincurchin
p6437
sg11
VSw,Sh,
p6438
sg13
VRaid
p6439
sg15
V40
p6440
sg17
g6440
sg18
V10
p6441
sbag1
(g2
g3
Ntp6442
Rp6443
(dp6444
g7
V068
p6445
sg9
VMachamp
p6446
sg11
VSw,Sh,
p6447
sg13
VRaid
p6448
sg15
V50
p6449
sg17
g6449
sg18
V20
p6450
sbag1
(g2
g3
Ntp6451
Rp6452
(dp6453
g7
V094
p6454
sg9
VGengar
p6455
sg11
VSw,Sh,
p6456
sg13
VRaid
p6457
sg15
V50
p6458
sg17
g6458
sg18
V20
p6459
sbag1
(g2
g3
Ntp6460
Rp6461
(dp6462
g7
V143
p6463
sg9
VSnorlax
p6464
sg11
VSw,Sh,
p6465
sg13
VRaid
p6466
sg15
V50
p6467
sg17
g6467
sg18
V20
p6468
sbag1
(g2
g3
Ntp6469
Rp6470
(dp6471
g7
V589
p6472
sg9
VEscavalier
p6473
sg11
VSw,Sh,
p6474
sg13
VRaid
p6475
sg15
V50
p6476
sg17
g6476
sg18
V15
p6477
sbag1
(g2
g3
Ntp6478
Rp6479
(dp6480
g7
V617
p6481
sg9
VAccelgor
p6482
sg11
VSw,Sh,
p6483
sg13
VRaid
p6484
sg15
V50
p6485
sg17
g6485
sg18
V15
p6486
sbag1
(g2
g3
Ntp6487
Rp6488
(dp6489
g7
V871
p6490
sg9
VPincurchin
p6491
sg11
VSw,Sh,
p6492
sg13
VRaid
p6493
sg15
V50
p6494
sg17
g6494
sg18
V10
p6495
sbag1
(g2
g3
Ntp6496
Rp6497
(dp6498
g7
V068
p6499
sg9
VMachamp
p6500
sg11
g3625
sg13
VRaid
p6501
sg15
V60
p6502
sg17
g6502
sg18
V10
p6503
sbag1
(g2
g3
Ntp6504
Rp6505
(dp6506
g7
V078
p6507
sg9
VRapidash
p6508
sg11
g3625
sg13
VRaid
p6509
sg15
V60
p6510
sg17
g6510
sg18
V20
p6511
sbag1
(g2
g3
Ntp6512
Rp6513
(dp6514
g7
V094
p6515
sg9
VGengar
p6516
sg11
g3616
sg13
VRaid
p6517
sg15
V60
p6518
sg17
g6518
sg18
V10
p6519
sbag1
(g2
g3
Ntp6520
Rp6521
(dp6522
g7
V143
p6523
sg9
VSnorlax
p6524
sg11
VSw,Sh,
p6525
sg13
VRaid
p6526
sg15
V60
p6527
sg17
g6527
sg18
V10
p6528
sbag1
(g2
g3
Ntp6529
Rp6530
(dp6531
g7
V628
p6532
sg9
VBraviary
p6533
sg11
g3616
sg13
VRaid
p6534
sg15
V60
p6535
sg17
g6535
sg18
V20
p6536
sbag1
(g2
g3
Ntp6537
Rp6538
(dp6539
g7
V630
p6540
sg9
VMandibuzz
p6541
sg11
g3625
sg13
VRaid
p6542
sg15
V60
p6543
sg17
g6543
sg18
V20
p6544
sbag1
(g2
g3
Ntp6545
Rp6546
(dp6547
g7
V765
p6548
sg9
VOranguru
p6549
sg11
g3625
sg13
VRaid
p6550
sg15
V60
p6551
sg17
g6551
sg18
V20
p6552
sbag1
(g2
g3
Ntp6553
Rp6554
(dp6555
g7
V766
p6556
sg9
VPassimian
p6557
sg11
g3616
sg13
VRaid
p6558
sg15
V60
p6559
sg17
g6559
sg18
V20
p6560
sbag1
(g2
g3
Ntp6561
Rp6562
(dp6563
g7
V865
p6564
sg9
VSirfetch'd
p6565
sg11
g3616
sg13
VRaid
p6566
sg15
V60
p6567
sg17
g6567
sg18
V20
p6568
sbag1
(g2
g3
Ntp6569
Rp6570
(dp6571
g7
V876
p6572
sg9
VIndeedee
p6573
sg11
g3616
sg13
VRaid
p6574
sg15
V60
p6575
sg17
g6575
sg18
V20
p6576
sbag1
(g2
g3
Ntp6577
Rp6578
(dp6579
g7
V876
p6580
sg9
VIndeedee
p6581
sg11
g3625
sg13
VRaid
p6582
sg15
V60
p6583
sg17
g6583
sg18
V20
p6584
sbag1
(g2
g3
Ntp6585
Rp6586
(dp6587
g7
V066
p6588
sg9
VMachop
p6589
sg11
VSw,Sh,
p6590
sg13
VRaid
p6591
sg15
V17
p6592
sg17
g6592
sg18
V34
p6593
sbag1
(g2
g3
Ntp6594
Rp6595
(dp6596
g7
V092
p6597
sg9
VGastly
p6598
sg11
VSw,Sh,
p6599
sg13
VRaid
p6600
sg15
V17
p6601
sg17
g6601
sg18
V34
p6602
sbag1
(g2
g3
Ntp6603
Rp6604
(dp6605
g7
V446
p6606
sg9
VMunchlax
p6607
sg11
VSw,Sh,
p6608
sg13
VRaid
p6609
sg15
V17
p6610
sg17
g6610
sg18
V32
p6611
sbag1
(g2
g3
Ntp6612
Rp6613
(dp6614
g7
V067
p6615
sg9
VMachoke
p6616
sg11
VSw,Sh,
p6617
sg13
VRaid
p6618
sg15
V30
p6619
sg17
g6619
sg18
V34
p6620
sbag1
(g2
g3
Ntp6621
Rp6622
(dp6623
g7
V093
p6624
sg9
VHaunter
p6625
sg11
VSw,Sh,
p6626
sg13
VRaid
p6627
sg15
V30
p6628
sg17
g6628
sg18
V34
p6629
sbag1
(g2
g3
Ntp6630
Rp6631
(dp6632
g7
V143
p6633
sg9
VSnorlax
p6634
sg11
VSw,Sh,
p6635
sg13
VRaid
p6636
sg15
V30
p6637
sg17
g6637
sg18
V32
p6638
sbag1
(g2
g3
Ntp6639
Rp6640
(dp6641
g7
V068
p6642
sg9
VMachamp
p6643
sg11
VSw,Sh,
p6644
sg13
VRaid
p6645
sg15
V40
p6646
sg17
g6646
sg18
V10
p6647
sbag1
(g2
g3
Ntp6648
Rp6649
(dp6650
g7
V068
p6651
sg9
VMachamp
p6652
sg11
VSw,Sh,
p6653
sg13
VRaid
p6654
sg15
V40
p6655
sg17
g6655
sg18
V20
p6656
sbag1
(g2
g3
Ntp6657
Rp6658
(dp6659
g7
V094
p6660
sg9
VGengar
p6661
sg11
VSw,Sh,
p6662
sg13
VRaid
p6663
sg15
V40
p6664
sg17
g6664
sg18
V10
p6665
sbag1
(g2
g3
Ntp6666
Rp6667
(dp6668
g7
V094
p6669
sg9
VGengar
p6670
sg11
VSw,Sh,
p6671
sg13
VRaid
p6672
sg15
V40
p6673
sg17
g6673
sg18
V20
p6674
sbag1
(g2
g3
Ntp6675
Rp6676
(dp6677
g7
V143
p6678
sg9
VSnorlax
p6679
sg11
VSw,Sh,
p6680
sg13
VRaid
p6681
sg15
V40
p6682
sg17
g6682
sg18
V20
p6683
sbag1
(g2
g3
Ntp6684
Rp6685
(dp6686
g7
V143
p6687
sg9
VSnorlax
p6688
sg11
VSw,Sh,
p6689
sg13
VRaid
p6690
sg15
V40
p6691
sg17
g6691
sg18
V20
p6692
sbag1
(g2
g3
Ntp6693
Rp6694
(dp6695
g7
V068
p6696
sg9
VMachamp
p6697
sg11
VSw,Sh,
p6698
sg13
VRaid
p6699
sg15
V50
p6700
sg17
g6700
sg18
V10
p6701
sbag1
(g2
g3
Ntp6702
Rp6703
(dp6704
g7
V068
p6705
sg9
VMachamp
p6706
sg11
VSw,Sh,
p6707
sg13
VRaid
p6708
sg15
V50
p6709
sg17
g6709
sg18
V20
p6710
sbag1
(g2
g3
Ntp6711
Rp6712
(dp6713
g7
V094
p6714
sg9
VGengar
p6715
sg11
VSw,Sh,
p6716
sg13
VRaid
p6717
sg15
V50
p6718
sg17
g6718
sg18
V10
p6719
sbag1
(g2
g3
Ntp6720
Rp6721
(dp6722
g7
V094
p6723
sg9
VGengar
p6724
sg11
VSw,Sh,
p6725
sg13
VRaid
p6726
sg15
V50
p6727
sg17
g6727
sg18
V20
p6728
sbag1
(g2
g3
Ntp6729
Rp6730
(dp6731
g7
V143
p6732
sg9
VSnorlax
p6733
sg11
VSw,Sh,
p6734
sg13
VRaid
p6735
sg15
V50
p6736
sg17
g6736
sg18
V20
p6737
sbag1
(g2
g3
Ntp6738
Rp6739
(dp6740
g7
V143
p6741
sg9
VSnorlax
p6742
sg11
VSw,Sh,
p6743
sg13
VRaid
p6744
sg15
V50
p6745
sg17
g6745
sg18
V20
p6746
sbag1
(g2
g3
Ntp6747
Rp6748
(dp6749
g7
V068
p6750
sg9
VMachamp
p6751
sg11
g3625
sg13
VRaid
p6752
sg15
V60
p6753
sg17
g6753
sg18
V10
p6754
sbag1
(g2
g3
Ntp6755
Rp6756
(dp6757
g7
V068
p6758
sg9
VMachamp
p6759
sg11
g3625
sg13
VRaid
p6760
sg15
V60
p6761
sg17
g6761
sg18
V40
p6762
sbag1
(g2
g3
Ntp6763
Rp6764
(dp6765
g7
V094
p6766
sg9
VGengar
p6767
sg11
g3616
sg13
VRaid
p6768
sg15
V60
p6769
sg17
g6769
sg18
V10
p6770
sbag1
(g2
g3
Ntp6771
Rp6772
(dp6773
g7
V094
p6774
sg9
VGengar
p6775
sg11
g3616
sg13
VRaid
p6776
sg15
V60
p6777
sg17
g6777
sg18
V40
p6778
sbag1
(g2
g3
Ntp6779
Rp6780
(dp6781
g7
V143
p6782
sg9
VSnorlax
p6783
sg11
VSw,Sh,
p6784
sg13
VRaid
p6785
sg15
V60
p6786
sg17
g6786
sg18
V10
p6787
sbag1
(g2
g3
Ntp6788
Rp6789
(dp6790
g7
V143
p6791
sg9
VSnorlax
p6792
sg11
VSw,Sh,
p6793
sg13
VRaid
p6794
sg15
V60
p6795
sg17
g6795
sg18
V40
p6796
sbag1
(g2
g3
Ntp6797
Rp6798
(dp6799
g7
V001
p6800
sg9
VBulbasaur
p6801
sg11
VSw,Sh,
p6802
sg13
VRaid
p6803
sg15
V17
p6804
sg17
g6804
sg18
V20
p6805
sbag1
(g2
g3
Ntp6806
Rp6807
(dp6808
g7
V004
p6809
sg9
VCharmander
p6810
sg11
VSw,Sh,
p6811
sg13
VRaid
p6812
sg15
V17
p6813
sg17
g6813
sg18
V20
p6814
sbag1
(g2
g3
Ntp6815
Rp6816
(dp6817
g7
V007
p6818
sg9
VSquirtle
p6819
sg11
VSw,Sh,
p6820
sg13
VRaid
p6821
sg15
V17
p6822
sg17
g6822
sg18
V20
p6823
sbag1
(g2
g3
Ntp6824
Rp6825
(dp6826
g7
V098
p6827
sg9
VKrabby
p6828
sg11
g3625
sg13
VRaid
p6829
sg15
V17
p6830
sg17
g6830
sg18
V10
p6831
sbag1
(g2
g3
Ntp6832
Rp6833
(dp6834
g7
V825
p6835
sg9
VDottler
p6836
sg11
g3616
sg13
VRaid
p6837
sg15
V17
p6838
sg17
g6838
sg18
V10
p6839
sbag1
(g2
g3
Ntp6840
Rp6841
(dp6842
g7
V848
p6843
sg9
VToxel
p6844
sg11
VSw,Sh,
p6845
sg13
VRaid
p6846
sg15
V17
p6847
sg17
g6847
sg18
V20
p6848
sbag1
(g2
g3
Ntp6849
Rp6850
(dp6851
g7
V856
p6852
sg9
VHatenna
p6853
sg11
g3616
sg13
VRaid
p6854
sg15
V17
p6855
sg17
g6855
sg18
V10
p6856
sbag1
(g2
g3
Ntp6857
Rp6858
(dp6859
g7
V859
p6860
sg9
VImpidimp
p6861
sg11
g3625
sg13
VRaid
p6862
sg15
V17
p6863
sg17
g6863
sg18
V10
p6864
sbag1
(g2
g3
Ntp6865
Rp6866
(dp6867
g7
V001
p6868
sg9
VBulbasaur
p6869
sg11
VSw,Sh,
p6870
sg13
VRaid
p6871
sg15
V30
p6872
sg17
g6872
sg18
V20
p6873
sbag1
(g2
g3
Ntp6874
Rp6875
(dp6876
g7
V004
p6877
sg9
VCharmander
p6878
sg11
VSw,Sh,
p6879
sg13
VRaid
p6880
sg15
V30
p6881
sg17
g6881
sg18
V20
p6882
sbag1
(g2
g3
Ntp6883
Rp6884
(dp6885
g7
V007
p6886
sg9
VSquirtle
p6887
sg11
VSw,Sh,
p6888
sg13
VRaid
p6889
sg15
V30
p6890
sg17
g6890
sg18
V20
p6891
sbag1
(g2
g3
Ntp6892
Rp6893
(dp6894
g7
V099
p6895
sg9
VKingler
p6896
sg11
g3625
sg13
VRaid
p6897
sg15
V30
p6898
sg17
g6898
sg18
V10
p6899
sbag1
(g2
g3
Ntp6900
Rp6901
(dp6902
g7
V826
p6903
sg9
VOrbeetle
p6904
sg11
g3616
sg13
VRaid
p6905
sg15
V30
p6906
sg17
g6906
sg18
V10
p6907
sbag1
(g2
g3
Ntp6908
Rp6909
(dp6910
g7
V849
p6911
sg9
VToxtricity
p6912
sg11
g3625
sg13
VRaid
p6913
sg15
V30
p6914
sg17
g6914
sg18
V20
p6915
sbag1
(g2
g3
Ntp6916
Rp6917
(dp6918
g7
V849
p6919
sg9
VToxtricity
p6920
sg11
g3616
sg13
VRaid
p6921
sg15
V30
p6922
sg17
g6922
sg18
V20
p6923
sbag1
(g2
g3
Ntp6924
Rp6925
(dp6926
g7
V856
p6927
sg9
VHatenna
p6928
sg11
g3616
sg13
VRaid
p6929
sg15
V30
p6930
sg17
g6930
sg18
V10
p6931
sbag1
(g2
g3
Ntp6932
Rp6933
(dp6934
g7
V859
p6935
sg9
VImpidimp
p6936
sg11
g3625
sg13
VRaid
p6937
sg15
V30
p6938
sg17
g6938
sg18
V10
p6939
sbag1
(g2
g3
Ntp6940
Rp6941
(dp6942
g7
V001
p6943
sg9
VBulbasaur
p6944
sg11
VSw,Sh,
p6945
sg13
VRaid
p6946
sg15
V40
p6947
sg17
g6947
sg18
V20
p6948
sbag1
(g2
g3
Ntp6949
Rp6950
(dp6951
g7
V004
p6952
sg9
VCharmander
p6953
sg11
VSw,Sh,
p6954
sg13
VRaid
p6955
sg15
V40
p6956
sg17
g6956
sg18
V20
p6957
sbag1
(g2
g3
Ntp6958
Rp6959
(dp6960
g7
V007
p6961
sg9
VSquirtle
p6962
sg11
VSw,Sh,
p6963
sg13
VRaid
p6964
sg15
V40
p6965
sg17
g6965
sg18
V20
p6966
sbag1
(g2
g3
Ntp6967
Rp6968
(dp6969
g7
V099
p6970
sg9
VKingler
p6971
sg11
g3625
sg13
VRaid
p6972
sg15
V40
p6973
sg17
g6973
sg18
V10
p6974
sbag1
(g2
g3
Ntp6975
Rp6976
(dp6977
g7
V826
p6978
sg9
VOrbeetle
p6979
sg11
g3616
sg13
VRaid
p6980
sg15
V40
p6981
sg17
g6981
sg18
V10
p6982
sbag1
(g2
g3
Ntp6983
Rp6984
(dp6985
g7
V849
p6986
sg9
VToxtricity
p6987
sg11
g3625
sg13
VRaid
p6988
sg15
V40
p6989
sg17
g6989
sg18
V20
p6990
sbag1
(g2
g3
Ntp6991
Rp6992
(dp6993
g7
V849
p6994
sg9
VToxtricity
p6995
sg11
g3616
sg13
VRaid
p6996
sg15
V40
p6997
sg17
g6997
sg18
V20
p6998
sbag1
(g2
g3
Ntp6999
Rp7000
(dp7001
g7
V857
p7002
sg9
VHattrem
p7003
sg11
g3616
sg13
VRaid
p7004
sg15
V40
p7005
sg17
g7005
sg18
V10
p7006
sbag1
(g2
g3
Ntp7007
Rp7008
(dp7009
g7
V860
p7010
sg9
VMorgrem
p7011
sg11
g3625
sg13
VRaid
p7012
sg15
V40
p7013
sg17
g7013
sg18
V10
p7014
sbag1
(g2
g3
Ntp7015
Rp7016
(dp7017
g7
V002
p7018
sg9
VIvysaur
p7019
sg11
VSw,Sh,
p7020
sg13
VRaid
p7021
sg15
V50
p7022
sg17
g7022
sg18
V20
p7023
sbag1
(g2
g3
Ntp7024
Rp7025
(dp7026
g7
V005
p7027
sg9
VCharmeleon
p7028
sg11
VSw,Sh,
p7029
sg13
VRaid
p7030
sg15
V50
p7031
sg17
g7031
sg18
V20
p7032
sbag1
(g2
g3
Ntp7033
Rp7034
(dp7035
g7
V008
p7036
sg9
VWartortle
p7037
sg11
VSw,Sh,
p7038
sg13
VRaid
p7039
sg15
V50
p7040
sg17
g7040
sg18
V20
p7041
sbag1
(g2
g3
Ntp7042
Rp7043
(dp7044
g7
V099
p7045
sg9
VKingler
p7046
sg11
g3625
sg13
VRaid
p7047
sg15
V50
p7048
sg17
g7048
sg18
V10
p7049
sbag1
(g2
g3
Ntp7050
Rp7051
(dp7052
g7
V826
p7053
sg9
VOrbeetle
p7054
sg11
g3616
sg13
VRaid
p7055
sg15
V50
p7056
sg17
g7056
sg18
V10
p7057
sbag1
(g2
g3
Ntp7058
Rp7059
(dp7060
g7
V849
p7061
sg9
VToxtricity
p7062
sg11
g3625
sg13
VRaid
p7063
sg15
V50
p7064
sg17
g7064
sg18
V20
p7065
sbag1
(g2
g3
Ntp7066
Rp7067
(dp7068
g7
V849
p7069
sg9
VToxtricity
p7070
sg11
g3616
sg13
VRaid
p7071
sg15
V50
p7072
sg17
g7072
sg18
V20
p7073
sbag1
(g2
g3
Ntp7074
Rp7075
(dp7076
g7
V858
p7077
sg9
VHatterene
p7078
sg11
g3616
sg13
VRaid
p7079
sg15
V50
p7080
sg17
g7080
sg18
V10
p7081
sbag1
(g2
g3
Ntp7082
Rp7083
(dp7084
g7
V861
p7085
sg9
VGrimmsnarl
p7086
sg11
g3625
sg13
VRaid
p7087
sg15
V50
p7088
sg17
g7088
sg18
V10
p7089
sbag1
(g2
g3
Ntp7090
Rp7091
(dp7092
g7
V099
p7093
sg9
VKingler
p7094
sg11
g3625
sg13
VRaid
p7095
sg15
V60
p7096
sg17
g7096
sg18
V20
p7097
sbag1
(g2
g3
Ntp7098
Rp7099
(dp7100
g7
V150
p7101
sg9
VMewtwo
p7102
sg11
VSw,Sh,
p7103
sg13
VRaid
p7104
sg15
V100
p7105
sg17
g7105
sg18
V30
p7106
sbag1
(g2
g3
Ntp7107
Rp7108
(dp7109
g7
V826
p7110
sg9
VOrbeetle
p7111
sg11
g3616
sg13
VRaid
p7112
sg15
V60
p7113
sg17
g7113
sg18
V20
p7114
sbag1
(g2
g3
Ntp7115
Rp7116
(dp7117
g7
V849
p7118
sg9
VToxtricity
p7119
sg11
g3625
sg13
VRaid
p7120
sg15
V60
p7121
sg17
g7121
sg18
V30
p7122
sbag1
(g2
g3
Ntp7123
Rp7124
(dp7125
g7
V849
p7126
sg9
VToxtricity
p7127
sg11
g3616
sg13
VRaid
p7128
sg15
V60
p7129
sg17
g7129
sg18
V30
p7130
sbag1
(g2
g3
Ntp7131
Rp7132
(dp7133
g7
V858
p7134
sg9
VHatterene
p7135
sg11
g3616
sg13
VRaid
p7136
sg15
V60
p7137
sg17
g7137
sg18
V20
p7138
sbag1
(g2
g3
Ntp7139
Rp7140
(dp7141
g7
V861
p7142
sg9
VGrimmsnarl
p7143
sg11
g3625
sg13
VRaid
p7144
sg15
V60
p7145
sg17
g7145
sg18
V20
p7146
sbag1
(g2
g3
Ntp7147
Rp7148
(dp7149
g7
V098
p7150
sg9
VKrabby
p7151
sg11
g3625
sg13
VRaid
p7152
sg15
V17
p7153
sg17
g7153
sg18
V20
p7154
sbag1
(g2
g3
Ntp7155
Rp7156
(dp7157
g7
V825
p7158
sg9
VDottler
p7159
sg11
g3616
sg13
VRaid
p7160
sg15
V17
p7161
sg17
g7161
sg18
V20
p7162
sbag1
(g2
g3
Ntp7163
Rp7164
(dp7165
g7
V848
p7166
sg9
VToxel
p7167
sg11
VSw,Sh,
p7168
sg13
VRaid
p7169
sg15
V17
p7170
sg17
g7170
sg18
V40
p7171
sbag1
(g2
g3
Ntp7172
Rp7173
(dp7174
g7
V856
p7175
sg9
VHatenna
p7176
sg11
g3616
sg13
VRaid
p7177
sg15
V17
p7178
sg17
g7178
sg18
V40
p7179
sbag1
(g2
g3
Ntp7180
Rp7181
(dp7182
g7
V859
p7183
sg9
VImpidimp
p7184
sg11
g3625
sg13
VRaid
p7185
sg15
V17
p7186
sg17
g7186
sg18
V40
p7187
sbag1
(g2
g3
Ntp7188
Rp7189
(dp7190
g7
V099
p7191
sg9
VKingler
p7192
sg11
g3625
sg13
VRaid
p7193
sg15
V30
p7194
sg17
g7194
sg18
V10
p7195
sbag1
(g2
g3
Ntp7196
Rp7197
(dp7198
g7
V099
p7199
sg9
VKingler
p7200
sg11
g3625
sg13
VRaid
p7201
sg15
V30
p7202
sg17
g7202
sg18
V10
p7203
sbag1
(g2
g3
Ntp7204
Rp7205
(dp7206
g7
V826
p7207
sg9
VOrbeetle
p7208
sg11
g3616
sg13
VRaid
p7209
sg15
V30
p7210
sg17
g7210
sg18
V10
p7211
sbag1
(g2
g3
Ntp7212
Rp7213
(dp7214
g7
V826
p7215
sg9
VOrbeetle
p7216
sg11
g3616
sg13
VRaid
p7217
sg15
V30
p7218
sg17
g7218
sg18
V10
p7219
sbag1
(g2
g3
Ntp7220
Rp7221
(dp7222
g7
V849
p7223
sg9
VToxtricity
p7224
sg11
g3625
sg13
VRaid
p7225
sg15
V30
p7226
sg17
g7226
sg18
V40
p7227
sbag1
(g2
g3
Ntp7228
Rp7229
(dp7230
g7
V849
p7231
sg9
VToxtricity
p7232
sg11
g3616
sg13
VRaid
p7233
sg15
V30
p7234
sg17
g7234
sg18
V40
p7235
sbag1
(g2
g3
Ntp7236
Rp7237
(dp7238
g7
V856
p7239
sg9
VHatenna
p7240
sg11
g3616
sg13
VRaid
p7241
sg15
V30
p7242
sg17
g7242
sg18
V40
p7243
sbag1
(g2
g3
Ntp7244
Rp7245
(dp7246
g7
V859
p7247
sg9
VImpidimp
p7248
sg11
g3625
sg13
VRaid
p7249
sg15
V30
p7250
sg17
g7250
sg18
V40
p7251
sbag1
(g2
g3
Ntp7252
Rp7253
(dp7254
g7
V099
p7255
sg9
VKingler
p7256
sg11
g3625
sg13
VRaid
p7257
sg15
V40
p7258
sg17
g7258
sg18
V10
p7259
sbag1
(g2
g3
Ntp7260
Rp7261
(dp7262
g7
V099
p7263
sg9
VKingler
p7264
sg11
g3625
sg13
VRaid
p7265
sg15
V40
p7266
sg17
g7266
sg18
V20
p7267
sbag1
(g2
g3
Ntp7268
Rp7269
(dp7270
g7
V826
p7271
sg9
VOrbeetle
p7272
sg11
g3616
sg13
VRaid
p7273
sg15
V40
p7274
sg17
g7274
sg18
V10
p7275
sbag1
(g2
g3
Ntp7276
Rp7277
(dp7278
g7
V826
p7279
sg9
VOrbeetle
p7280
sg11
g3616
sg13
VRaid
p7281
sg15
V40
p7282
sg17
g7282
sg18
V20
p7283
sbag1
(g2
g3
Ntp7284
Rp7285
(dp7286
g7
V849
p7287
sg9
VToxtricity
p7288
sg11
g3625
sg13
VRaid
p7289
sg15
V40
p7290
sg17
g7290
sg18
V10
p7291
sbag1
(g2
g3
Ntp7292
Rp7293
(dp7294
g7
V849
p7295
sg9
VToxtricity
p7296
sg11
g3616
sg13
VRaid
p7297
sg15
V40
p7298
sg17
g7298
sg18
V10
p7299
sbag1
(g2
g3
Ntp7300
Rp7301
(dp7302
g7
V849
p7303
sg9
VToxtricity
p7304
sg11
g3625
sg13
VRaid
p7305
sg15
V40
p7306
sg17
g7306
sg18
V40
p7307
sbag1
(g2
g3
Ntp7308
Rp7309
(dp7310
g7
V849
p7311
sg9
VToxtricity
p7312
sg11
g3616
sg13
VRaid
p7313
sg15
V40
p7314
sg17
g7314
sg18
V40
p7315
sbag1
(g2
g3
Ntp7316
Rp7317
(dp7318
g7
V857
p7319
sg9
VHattrem
p7320
sg11
g3616
sg13
VRaid
p7321
sg15
V40
p7322
sg17
g7322
sg18
V20
p7323
sbag1
(g2
g3
Ntp7324
Rp7325
(dp7326
g7
V860
p7327
sg9
VMorgrem
p7328
sg11
g3625
sg13
VRaid
p7329
sg15
V40
p7330
sg17
g7330
sg18
V20
p7331
sbag1
(g2
g3
Ntp7332
Rp7333
(dp7334
g7
V099
p7335
sg9
VKingler
p7336
sg11
g3625
sg13
VRaid
p7337
sg15
V50
p7338
sg17
g7338
sg18
V3
p7339
sbag1
(g2
g3
Ntp7340
Rp7341
(dp7342
g7
V099
p7343
sg9
VKingler
p7344
sg11
g3625
sg13
VRaid
p7345
sg15
V50
p7346
sg17
g7346
sg18
V20
p7347
sbag1
(g2
g3
Ntp7348
Rp7349
(dp7350
g7
V826
p7351
sg9
VOrbeetle
p7352
sg11
g3616
sg13
VRaid
p7353
sg15
V50
p7354
sg17
g7354
sg18
V3
p7355
sbag1
(g2
g3
Ntp7356
Rp7357
(dp7358
g7
V826
p7359
sg9
VOrbeetle
p7360
sg11
g3616
sg13
VRaid
p7361
sg15
V50
p7362
sg17
g7362
sg18
V20
p7363
sbag1
(g2
g3
Ntp7364
Rp7365
(dp7366
g7
V849
p7367
sg9
VToxtricity
p7368
sg11
g3625
sg13
VRaid
p7369
sg15
V50
p7370
sg17
g7370
sg18
V4
p7371
sbag1
(g2
g3
Ntp7372
Rp7373
(dp7374
g7
V849
p7375
sg9
VToxtricity
p7376
sg11
g3616
sg13
VRaid
p7377
sg15
V50
p7378
sg17
g7378
sg18
V4
p7379
sbag1
(g2
g3
Ntp7380
Rp7381
(dp7382
g7
V849
p7383
sg9
VToxtricity
p7384
sg11
g3625
sg13
VRaid
p7385
sg15
V50
p7386
sg17
g7386
sg18
V40
p7387
sbag1
(g2
g3
Ntp7388
Rp7389
(dp7390
g7
V849
p7391
sg9
VToxtricity
p7392
sg11
g3616
sg13
VRaid
p7393
sg15
V50
p7394
sg17
g7394
sg18
V40
p7395
sbag1
(g2
g3
Ntp7396
Rp7397
(dp7398
g7
V858
p7399
sg9
VHatterene
p7400
sg11
g3616
sg13
VRaid
p7401
sg15
V50
p7402
sg17
g7402
sg18
V3
p7403
sbag1
(g2
g3
Ntp7404
Rp7405
(dp7406
g7
V858
p7407
sg9
VHatterene
p7408
sg11
g3616
sg13
VRaid
p7409
sg15
V50
p7410
sg17
g7410
sg18
V30
p7411
sbag1
(g2
g3
Ntp7412
Rp7413
(dp7414
g7
V861
p7415
sg9
VGrimmsnarl
p7416
sg11
g3625
sg13
VRaid
p7417
sg15
V50
p7418
sg17
g7418
sg18
V3
p7419
sbag1
(g2
g3
Ntp7420
Rp7421
(dp7422
g7
V861
p7423
sg9
VGrimmsnarl
p7424
sg11
g3625
sg13
VRaid
p7425
sg15
V50
p7426
sg17
g7426
sg18
V30
p7427
sbag1
(g2
g3
Ntp7428
Rp7429
(dp7430
g7
V099
p7431
sg9
VKingler
p7432
sg11
g3625
sg13
VRaid
p7433
sg15
V60
p7434
sg17
g7434
sg18
V3
p7435
sbag1
(g2
g3
Ntp7436
Rp7437
(dp7438
g7
V099
p7439
sg9
VKingler
p7440
sg11
g3625
sg13
VRaid
p7441
sg15
V60
p7442
sg17
g7442
sg18
V20
p7443
sbag1
(g2
g3
Ntp7444
Rp7445
(dp7446
g7
V826
p7447
sg9
VOrbeetle
p7448
sg11
g3616
sg13
VRaid
p7449
sg15
V60
p7450
sg17
g7450
sg18
V3
p7451
sbag1
(g2
g3
Ntp7452
Rp7453
(dp7454
g7
V826
p7455
sg9
VOrbeetle
p7456
sg11
g3616
sg13
VRaid
p7457
sg15
V60
p7458
sg17
g7458
sg18
V20
p7459
sbag1
(g2
g3
Ntp7460
Rp7461
(dp7462
g7
V849
p7463
sg9
VToxtricity
p7464
sg11
g3625
sg13
VRaid
p7465
sg15
V60
p7466
sg17
g7466
sg18
V4
p7467
sbag1
(g2
g3
Ntp7468
Rp7469
(dp7470
g7
V849
p7471
sg9
VToxtricity
p7472
sg11
g3616
sg13
VRaid
p7473
sg15
V60
p7474
sg17
g7474
sg18
V4
p7475
sbag1
(g2
g3
Ntp7476
Rp7477
(dp7478
g7
V849
p7479
sg9
VToxtricity
p7480
sg11
g3625
sg13
VRaid
p7481
sg15
V60
p7482
sg17
g7482
sg18
V40
p7483
sbag1
(g2
g3
Ntp7484
Rp7485
(dp7486
g7
V849
p7487
sg9
VToxtricity
p7488
sg11
g3616
sg13
VRaid
p7489
sg15
V60
p7490
sg17
g7490
sg18
V40
p7491
sbag1
(g2
g3
Ntp7492
Rp7493
(dp7494
g7
V858
p7495
sg9
VHatterene
p7496
sg11
g3616
sg13
VRaid
p7497
sg15
V60
p7498
sg17
g7498
sg18
V3
p7499
sbag1
(g2
g3
Ntp7500
Rp7501
(dp7502
g7
V858
p7503
sg9
VHatterene
p7504
sg11
g3616
sg13
VRaid
p7505
sg15
V60
p7506
sg17
g7506
sg18
V30
p7507
sbag1
(g2
g3
Ntp7508
Rp7509
(dp7510
g7
V861
p7511
sg9
VGrimmsnarl
p7512
sg11
g3625
sg13
VRaid
p7513
sg15
V60
p7514
sg17
g7514
sg18
V3
p7515
sbag1
(g2
g3
Ntp7516
Rp7517
(dp7518
g7
V861
p7519
sg9
VGrimmsnarl
p7520
sg11
g3625
sg13
VRaid
p7521
sg15
V60
p7522
sg17
g7522
sg18
V30
p7523
sbag1
(g2
g3
Ntp7524
Rp7525
(dp7526
g7
V868
p7527
sg9
VMilcery
p7528
sg11
VSw,Sh,
p7529
sg13
VRaid
p7530
sg15
V17
p7531
sg17
g7531
sg18
V100
p7532
sbag1
(g2
g3
Ntp7533
Rp7534
(dp7535
g7
V868
p7536
sg9
VMilcery
p7537
sg11
VSw,Sh,
p7538
sg13
VRaid
p7539
sg15
V30
p7540
sg17
g7540
sg18
V100
p7541
sbag1
(g2
g3
Ntp7542
Rp7543
(dp7544
g7
V099
p7545
sg9
VKingler
p7546
sg11
g3625
sg13
VRaid
p7547
sg15
V40
p7548
sg17
g7548
sg18
V20
p7549
sbag1
(g2
g3
Ntp7550
Rp7551
(dp7552
g7
V826
p7553
sg9
VOrbeetle
p7554
sg11
g3616
sg13
VRaid
p7555
sg15
V40
p7556
sg17
g7556
sg18
V20
p7557
sbag1
(g2
g3
Ntp7558
Rp7559
(dp7560
g7
V849
p7561
sg9
VToxtricity
p7562
sg11
g3625
sg13
VRaid
p7563
sg15
V40
p7564
sg17
g7564
sg18
V30
p7565
sbag1
(g2
g3
Ntp7566
Rp7567
(dp7568
g7
V849
p7569
sg9
VToxtricity
p7570
sg11
g3616
sg13
VRaid
p7571
sg15
V40
p7572
sg17
g7572
sg18
V30
p7573
sbag1
(g2
g3
Ntp7574
Rp7575
(dp7576
g7
V857
p7577
sg9
VHattrem
p7578
sg11
g3616
sg13
VRaid
p7579
sg15
V40
p7580
sg17
g7580
sg18
V20
p7581
sbag1
(g2
g3
Ntp7582
Rp7583
(dp7584
g7
V860
p7585
sg9
VMorgrem
p7586
sg11
g3625
sg13
VRaid
p7587
sg15
V40
p7588
sg17
g7588
sg18
V20
p7589
sbag1
(g2
g3
Ntp7590
Rp7591
(dp7592
g7
V868
p7593
sg9
VMilcery
p7594
sg11
VSw,Sh,
p7595
sg13
VRaid
p7596
sg15
V40
p7597
sg17
g7597
sg18
V30
p7598
sbag1
(g2
g3
Ntp7599
Rp7600
(dp7601
g7
V099
p7602
sg9
VKingler
p7603
sg11
g3625
sg13
VRaid
p7604
sg15
V50
p7605
sg17
g7605
sg18
V20
p7606
sbag1
(g2
g3
Ntp7607
Rp7608
(dp7609
g7
V826
p7610
sg9
VOrbeetle
p7611
sg11
g3616
sg13
VRaid
p7612
sg15
V50
p7613
sg17
g7613
sg18
V20
p7614
sbag1
(g2
g3
Ntp7615
Rp7616
(dp7617
g7
V849
p7618
sg9
VToxtricity
p7619
sg11
g3625
sg13
VRaid
p7620
sg15
V50
p7621
sg17
g7621
sg18
V30
p7622
sbag1
(g2
g3
Ntp7623
Rp7624
(dp7625
g7
V849
p7626
sg9
VToxtricity
p7627
sg11
g3616
sg13
VRaid
p7628
sg15
V50
p7629
sg17
g7629
sg18
V30
p7630
sbag1
(g2
g3
Ntp7631
Rp7632
(dp7633
g7
V858
p7634
sg9
VHatterene
p7635
sg11
g3616
sg13
VRaid
p7636
sg15
V50
p7637
sg17
g7637
sg18
V20
p7638
sbag1
(g2
g3
Ntp7639
Rp7640
(dp7641
g7
V861
p7642
sg9
VGrimmsnarl
p7643
sg11
g3625
sg13
VRaid
p7644
sg15
V50
p7645
sg17
g7645
sg18
V20
p7646
sbag1
(g2
g3
Ntp7647
Rp7648
(dp7649
g7
V868
p7650
sg9
VMilcery
p7651
sg11
VSw,Sh,
p7652
sg13
VRaid
p7653
sg15
V50
p7654
sg17
g7654
sg18
V30
p7655
sbag1
(g2
g3
Ntp7656
Rp7657
(dp7658
g7
V099
p7659
sg9
VKingler
p7660
sg11
g3625
sg13
VRaid
p7661
sg15
V60
p7662
sg17
g7662
sg18
V20
p7663
sbag1
(g2
g3
Ntp7664
Rp7665
(dp7666
g7
V826
p7667
sg9
VOrbeetle
p7668
sg11
g3616
sg13
VRaid
p7669
sg15
V60
p7670
sg17
g7670
sg18
V20
p7671
sbag1
(g2
g3
Ntp7672
Rp7673
(dp7674
g7
V849
p7675
sg9
VToxtricity
p7676
sg11
g3625
sg13
VRaid
p7677
sg15
V60
p7678
sg17
g7678
sg18
V30
p7679
sbag1
(g2
g3
Ntp7680
Rp7681
(dp7682
g7
V849
p7683
sg9
VToxtricity
p7684
sg11
g3616
sg13
VRaid
p7685
sg15
V60
p7686
sg17
g7686
sg18
V30
p7687
sbag1
(g2
g3
Ntp7688
Rp7689
(dp7690
g7
V858
p7691
sg9
VHatterene
p7692
sg11
g3616
sg13
VRaid
p7693
sg15
V60
p7694
sg17
g7694
sg18
V20
p7695
sbag1
(g2
g3
Ntp7696
Rp7697
(dp7698
g7
V861
p7699
sg9
VGrimmsnarl
p7700
sg11
g3625
sg13
VRaid
p7701
sg15
V60
p7702
sg17
g7702
sg18
V20
p7703
sbag1
(g2
g3
Ntp7704
Rp7705
(dp7706
g7
V868
p7707
sg9
VMilcery
p7708
sg11
VSw,Sh,
p7709
sg13
VRaid
p7710
sg15
V60
p7711
sg17
g7711
sg18
V30
p7712
sbag1
(g2
g3
Ntp7713
Rp7714
(dp7715
g7
V868
p7716
sg9
VMilcery
p7717
sg11
VSw,Sh,
p7718
sg13
VRaid
p7719
sg15
V17
p7720
sg17
g7720
sg18
V100
p7721
sbag1
(g2
g3
Ntp7722
Rp7723
(dp7724
g7
V868
p7725
sg9
VMilcery
p7726
sg11
VSw,Sh,
p7727
sg13
VRaid
p7728
sg15
V30
p7729
sg17
g7729
sg18
V100
p7730
sbag1
(g2
g3
Ntp7731
Rp7732
(dp7733
g7
V131
p7734
sg9
VLapras
p7735
sg11
g3616
sg13
VRaid
p7736
sg15
V40
p7737
sg17
g7737
sg18
V40
p7738
sbag1
(g2
g3
Ntp7739
Rp7740
(dp7741
g7
V839
p7742
sg9
VCoalossal
p7743
sg11
g3625
sg13
VRaid
p7744
sg15
V40
p7745
sg17
g7745
sg18
V40
p7746
sbag1
(g2
g3
Ntp7747
Rp7748
(dp7749
g7
V841
p7750
sg9
VFlapple
p7751
sg11
g3625
sg13
VRaid
p7752
sg15
V40
p7753
sg17
g7753
sg18
V30
p7754
sbag1
(g2
g3
Ntp7755
Rp7756
(dp7757
g7
V842
p7758
sg9
VAppletun
p7759
sg11
g3616
sg13
VRaid
p7760
sg15
V40
p7761
sg17
g7761
sg18
V30
p7762
sbag1
(g2
g3
Ntp7763
Rp7764
(dp7765
g7
V868
p7766
sg9
VMilcery
p7767
sg11
VSw,Sh,
p7768
sg13
VRaid
p7769
sg15
V40
p7770
sg17
g7770
sg18
V30
p7771
sbag1
(g2
g3
Ntp7772
Rp7773
(dp7774
g7
V131
p7775
sg9
VLapras
p7776
sg11
g3616
sg13
VRaid
p7777
sg15
V50
p7778
sg17
g7778
sg18
V30
p7779
sbag1
(g2
g3
Ntp7780
Rp7781
(dp7782
g7
V839
p7783
sg9
VCoalossal
p7784
sg11
g3625
sg13
VRaid
p7785
sg15
V50
p7786
sg17
g7786
sg18
V30
p7787
sbag1
(g2
g3
Ntp7788
Rp7789
(dp7790
g7
V841
p7791
sg9
VFlapple
p7792
sg11
g3625
sg13
VRaid
p7793
sg15
V50
p7794
sg17
g7794
sg18
V30
p7795
sbag1
(g2
g3
Ntp7796
Rp7797
(dp7798
g7
V842
p7799
sg9
VAppletun
p7800
sg11
g3616
sg13
VRaid
p7801
sg15
V50
p7802
sg17
g7802
sg18
V30
p7803
sbag1
(g2
g3
Ntp7804
Rp7805
(dp7806
g7
V868
p7807
sg9
VMilcery
p7808
sg11
VSw,Sh,
p7809
sg13
VRaid
p7810
sg15
V50
p7811
sg17
g7811
sg18
V40
p7812
sbag1
(g2
g3
Ntp7813
Rp7814
(dp7815
g7
V131
p7816
sg9
VLapras
p7817
sg11
g3616
sg13
VRaid
p7818
sg15
V60
p7819
sg17
g7819
sg18
V30
p7820
sbag1
(g2
g3
Ntp7821
Rp7822
(dp7823
g7
V839
p7824
sg9
VCoalossal
p7825
sg11
g3625
sg13
VRaid
p7826
sg15
V60
p7827
sg17
g7827
sg18
V30
p7828
sbag1
(g2
g3
Ntp7829
Rp7830
(dp7831
g7
V841
p7832
sg9
VFlapple
p7833
sg11
g3625
sg13
VRaid
p7834
sg15
V60
p7835
sg17
g7835
sg18
V30
p7836
sbag1
(g2
g3
Ntp7837
Rp7838
(dp7839
g7
V842
p7840
sg9
VAppletun
p7841
sg11
g3616
sg13
VRaid
p7842
sg15
V60
p7843
sg17
g7843
sg18
V30
p7844
sbag1
(g2
g3
Ntp7845
Rp7846
(dp7847
g7
V868
p7848
sg9
VMilcery
p7849
sg11
VSw,Sh,
p7850
sg13
VRaid
p7851
sg15
V60
p7852
sg17
g7852
sg18
V40
p7853
sbag1
(g2
g3
Ntp7854
Rp7855
(dp7856
g7
V131
p7857
sg9
VLapras
p7858
sg11
g3616
sg13
VRaid
p7859
sg15
V17
p7860
sg17
g7860
sg18
V40
p7861
sbag1
(g2
g3
Ntp7862
Rp7863
(dp7864
g7
V837
p7865
sg9
VRolycoly
p7866
sg11
g3625
sg13
VRaid
p7867
sg15
V17
p7868
sg17
g7868
sg18
V40
p7869
sbag1
(g2
g3
Ntp7870
Rp7871
(dp7872
g7
V840
p7873
sg9
VApplin
p7874
sg11
VSw,Sh,
p7875
sg13
VRaid
p7876
sg15
V17
p7877
sg17
g7877
sg18
V30
p7878
sbag1
(g2
g3
Ntp7879
Rp7880
(dp7881
g7
V868
p7882
sg9
VMilcery
p7883
sg11
VSw,Sh,
p7884
sg13
VRaid
p7885
sg15
V17
p7886
sg17
g7886
sg18
V30
p7887
sbag1
(g2
g3
Ntp7888
Rp7889
(dp7890
g7
V131
p7891
sg9
VLapras
p7892
sg11
g3616
sg13
VRaid
p7893
sg15
V30
p7894
sg17
g7894
sg18
V40
p7895
sbag1
(g2
g3
Ntp7896
Rp7897
(dp7898
g7
V838
p7899
sg9
VCarkol
p7900
sg11
g3625
sg13
VRaid
p7901
sg15
V30
p7902
sg17
g7902
sg18
V40
p7903
sbag1
(g2
g3
Ntp7904
Rp7905
(dp7906
g7
V841
p7907
sg9
VFlapple
p7908
sg11
g3625
sg13
VRaid
p7909
sg15
V30
p7910
sg17
g7910
sg18
V30
p7911
sbag1
(g2
g3
Ntp7912
Rp7913
(dp7914
g7
V842
p7915
sg9
VAppletun
p7916
sg11
g3616
sg13
VRaid
p7917
sg15
V30
p7918
sg17
g7918
sg18
V30
p7919
sbag1
(g2
g3
Ntp7920
Rp7921
(dp7922
g7
V869
p7923
sg9
VAlcremie
p7924
sg11
VSw,Sh,
p7925
sg13
VRaid
p7926
sg15
V30
p7927
sg17
g7927
sg18
V30
p7928
sbag1
(g2
g3
Ntp7929
Rp7930
(dp7931
g7
V131
p7932
sg9
VLapras
p7933
sg11
g3616
sg13
VRaid
p7934
sg15
V40
p7935
sg17
g7935
sg18
V10
p7936
sbag1
(g2
g3
Ntp7937
Rp7938
(dp7939
g7
V131
p7940
sg9
VLapras
p7941
sg11
g3616
sg13
VRaid
p7942
sg15
V40
p7943
sg17
g7943
sg18
V40
p7944
sbag1
(g2
g3
Ntp7945
Rp7946
(dp7947
g7
V839
p7948
sg9
VCoalossal
p7949
sg11
g3625
sg13
VRaid
p7950
sg15
V40
p7951
sg17
g7951
sg18
V10
p7952
sbag1
(g2
g3
Ntp7953
Rp7954
(dp7955
g7
V839
p7956
sg9
VCoalossal
p7957
sg11
g3625
sg13
VRaid
p7958
sg15
V40
p7959
sg17
g7959
sg18
V40
p7960
sbag1
(g2
g3
Ntp7961
Rp7962
(dp7963
g7
V841
p7964
sg9
VFlapple
p7965
sg11
g3625
sg13
VRaid
p7966
sg15
V40
p7967
sg17
g7967
sg18
V10
p7968
sbag1
(g2
g3
Ntp7969
Rp7970
(dp7971
g7
V841
p7972
sg9
VFlapple
p7973
sg11
g3625
sg13
VRaid
p7974
sg15
V40
p7975
sg17
g7975
sg18
V20
p7976
sbag1
(g2
g3
Ntp7977
Rp7978
(dp7979
g7
V842
p7980
sg9
VAppletun
p7981
sg11
g3616
sg13
VRaid
p7982
sg15
V40
p7983
sg17
g7983
sg18
V10
p7984
sbag1
(g2
g3
Ntp7985
Rp7986
(dp7987
g7
V842
p7988
sg9
VAppletun
p7989
sg11
g3616
sg13
VRaid
p7990
sg15
V40
p7991
sg17
g7991
sg18
V20
p7992
sbag1
(g2
g3
Ntp7993
Rp7994
(dp7995
g7
V869
p7996
sg9
VAlcremie
p7997
sg11
g3625
sg13
VRaid
p7998
sg15
V40
p7999
sg17
g7999
sg18
V10
p8000
sbag1
(g2
g3
Ntp8001
Rp8002
(dp8003
g7
V869
p8004
sg9
VAlcremie
p8005
sg11
g3625
sg13
VRaid
p8006
sg15
V40
p8007
sg17
g8007
sg18
V10
p8008
sbag1
(g2
g3
Ntp8009
Rp8010
(dp8011
g7
V869
p8012
sg9
VAlcremie
p8013
sg11
g3616
sg13
VRaid
p8014
sg15
V40
p8015
sg17
g8015
sg18
V10
p8016
sbag1
(g2
g3
Ntp8017
Rp8018
(dp8019
g7
V869
p8020
sg9
VAlcremie
p8021
sg11
g3616
sg13
VRaid
p8022
sg15
V40
p8023
sg17
g8023
sg18
V10
p8024
sbag1
(g2
g3
Ntp8025
Rp8026
(dp8027
g7
V131
p8028
sg9
VLapras
p8029
sg11
g3616
sg13
VRaid
p8030
sg15
V50
p8031
sg17
g8031
sg18
V10
p8032
sbag1
(g2
g3
Ntp8033
Rp8034
(dp8035
g7
V131
p8036
sg9
VLapras
p8037
sg11
g3616
sg13
VRaid
p8038
sg15
V50
p8039
sg17
g8039
sg18
V40
p8040
sbag1
(g2
g3
Ntp8041
Rp8042
(dp8043
g7
V839
p8044
sg9
VCoalossal
p8045
sg11
g3625
sg13
VRaid
p8046
sg15
V50
p8047
sg17
g8047
sg18
V10
p8048
sbag1
(g2
g3
Ntp8049
Rp8050
(dp8051
g7
V839
p8052
sg9
VCoalossal
p8053
sg11
g3625
sg13
VRaid
p8054
sg15
V50
p8055
sg17
g8055
sg18
V40
p8056
sbag1
(g2
g3
Ntp8057
Rp8058
(dp8059
g7
V841
p8060
sg9
VFlapple
p8061
sg11
g3625
sg13
VRaid
p8062
sg15
V50
p8063
sg17
g8063
sg18
V10
p8064
sbag1
(g2
g3
Ntp8065
Rp8066
(dp8067
g7
V841
p8068
sg9
VFlapple
p8069
sg11
g3625
sg13
VRaid
p8070
sg15
V50
p8071
sg17
g8071
sg18
V20
p8072
sbag1
(g2
g3
Ntp8073
Rp8074
(dp8075
g7
V842
p8076
sg9
VAppletun
p8077
sg11
g3616
sg13
VRaid
p8078
sg15
V50
p8079
sg17
g8079
sg18
V10
p8080
sbag1
(g2
g3
Ntp8081
Rp8082
(dp8083
g7
V842
p8084
sg9
VAppletun
p8085
sg11
g3616
sg13
VRaid
p8086
sg15
V50
p8087
sg17
g8087
sg18
V20
p8088
sbag1
(g2
g3
Ntp8089
Rp8090
(dp8091
g7
V869
p8092
sg9
VAlcremie
p8093
sg11
g3625
sg13
VRaid
p8094
sg15
V50
p8095
sg17
g8095
sg18
V10
p8096
sbag1
(g2
g3
Ntp8097
Rp8098
(dp8099
g7
V869
p8100
sg9
VAlcremie
p8101
sg11
g3625
sg13
VRaid
p8102
sg15
V50
p8103
sg17
g8103
sg18
V10
p8104
sbag1
(g2
g3
Ntp8105
Rp8106
(dp8107
g7
V869
p8108
sg9
VAlcremie
p8109
sg11
g3616
sg13
VRaid
p8110
sg15
V50
p8111
sg17
g8111
sg18
V10
p8112
sbag1
(g2
g3
Ntp8113
Rp8114
(dp8115
g7
V869
p8116
sg9
VAlcremie
p8117
sg11
g3616
sg13
VRaid
p8118
sg15
V50
p8119
sg17
g8119
sg18
V10
p8120
sbag1
(g2
g3
Ntp8121
Rp8122
(dp8123
g7
V131
p8124
sg9
VLapras
p8125
sg11
g3616
sg13
VRaid
p8126
sg15
V60
p8127
sg17
g8127
sg18
V10
p8128
sbag1
(g2
g3
Ntp8129
Rp8130
(dp8131
g7
V131
p8132
sg9
VLapras
p8133
sg11
g3616
sg13
VRaid
p8134
sg15
V60
p8135
sg17
g8135
sg18
V40
p8136
sbag1
(g2
g3
Ntp8137
Rp8138
(dp8139
g7
V839
p8140
sg9
VCoalossal
p8141
sg11
g3625
sg13
VRaid
p8142
sg15
V60
p8143
sg17
g8143
sg18
V10
p8144
sbag1
(g2
g3
Ntp8145
Rp8146
(dp8147
g7
V839
p8148
sg9
VCoalossal
p8149
sg11
g3625
sg13
VRaid
p8150
sg15
V60
p8151
sg17
g8151
sg18
V40
p8152
sbag1
(g2
g3
Ntp8153
Rp8154
(dp8155
g7
V841
p8156
sg9
VFlapple
p8157
sg11
g3625
sg13
VRaid
p8158
sg15
V60
p8159
sg17
g8159
sg18
V10
p8160
sbag1
(g2
g3
Ntp8161
Rp8162
(dp8163
g7
V841
p8164
sg9
VFlapple
p8165
sg11
g3625
sg13
VRaid
p8166
sg15
V60
p8167
sg17
g8167
sg18
V20
p8168
sbag1
(g2
g3
Ntp8169
Rp8170
(dp8171
g7
V842
p8172
sg9
VAppletun
p8173
sg11
g3616
sg13
VRaid
p8174
sg15
V60
p8175
sg17
g8175
sg18
V10
p8176
sbag1
(g2
g3
Ntp8177
Rp8178
(dp8179
g7
V842
p8180
sg9
VAppletun
p8181
sg11
g3616
sg13
VRaid
p8182
sg15
V60
p8183
sg17
g8183
sg18
V20
p8184
sbag1
(g2
g3
Ntp8185
Rp8186
(dp8187
g7
V869
p8188
sg9
VAlcremie
p8189
sg11
g3625
sg13
VRaid
p8190
sg15
V60
p8191
sg17
g8191
sg18
V10
p8192
sbag1
(g2
g3
Ntp8193
Rp8194
(dp8195
g7
V869
p8196
sg9
VAlcremie
p8197
sg11
g3625
sg13
VRaid
p8198
sg15
V60
p8199
sg17
g8199
sg18
V10
p8200
sbag1
(g2
g3
Ntp8201
Rp8202
(dp8203
g7
V869
p8204
sg9
VAlcremie
p8205
sg11
g3616
sg13
VRaid
p8206
sg15
V60
p8207
sg17
g8207
sg18
V10
p8208
sbag1
(g2
g3
Ntp8209
Rp8210
(dp8211
g7
V869
p8212
sg9
VAlcremie
p8213
sg11
g3616
sg13
VRaid
p8214
sg15
V60
p8215
sg17
g8215
sg18
V10
p8216
sbag1
(g2
g3
Ntp8217
Rp8218
(dp8219
g7
V012
p8220
sg9
VButterfree
p8221
sg11
VSw,Sh,
p8222
sg13
VRaid
p8223
sg15
V17
p8224
sg17
g8224
sg18
V10
p8225
sbag1
(g2
g3
Ntp8226
Rp8227
(dp8228
g7
V129
p8229
sg9
VMagikarp
p8230
sg11
VSw,Sh,
p8231
sg13
VRaid
p8232
sg15
V17
p8233
sg17
g8233
sg18
V52
p8234
sbag1
(g2
g3
Ntp8235
Rp8236
(dp8237
g7
V129
p8238
sg9
VMagikarp
p8239
sg11
VSw,Sh,
p8240
sg13
VRaid
p8241
sg15
V17
p8242
sg17
g8242
sg18
V8
p8243
sbag1
(g2
g3
Ntp8244
Rp8245
(dp8246
g7
V446
p8247
sg9
VMunchlax
p8248
sg11
VSw,Sh,
p8249
sg13
VRaid
p8250
sg15
V17
p8251
sg17
g8251
sg18
V10
p8252
sbag1
(g2
g3
Ntp8253
Rp8254
(dp8255
g7
V821
p8256
sg9
VRookidee
p8257
sg11
g3616
sg13
VRaid
p8258
sg15
V17
p8259
sg17
g8259
sg18
V10
p8260
sbag1
(g2
g3
Ntp8261
Rp8262
(dp8263
g7
V833
p8264
sg9
VChewtle
p8265
sg11
g3625
sg13
VRaid
p8266
sg15
V17
p8267
sg17
g8267
sg18
V10
p8268
sbag1
(g2
g3
Ntp8269
Rp8270
(dp8271
g7
V843
p8272
sg9
VSilicobra
p8273
sg11
g3625
sg13
VRaid
p8274
sg15
V17
p8275
sg17
g8275
sg18
V10
p8276
sbag1
(g2
g3
Ntp8277
Rp8278
(dp8279
g7
V850
p8280
sg9
VSizzlipede
p8281
sg11
g3616
sg13
VRaid
p8282
sg15
V17
p8283
sg17
g8283
sg18
V10
p8284
sbag1
(g2
g3
Ntp8285
Rp8286
(dp8287
g7
V012
p8288
sg9
VButterfree
p8289
sg11
VSw,Sh,
p8290
sg13
VRaid
p8291
sg15
V30
p8292
sg17
g8292
sg18
V10
p8293
sbag1
(g2
g3
Ntp8294
Rp8295
(dp8296
g7
V129
p8297
sg9
VMagikarp
p8298
sg11
VSw,Sh,
p8299
sg13
VRaid
p8300
sg15
V30
p8301
sg17
g8301
sg18
V52
p8302
sbag1
(g2
g3
Ntp8303
Rp8304
(dp8305
g7
V129
p8306
sg9
VMagikarp
p8307
sg11
VSw,Sh,
p8308
sg13
VRaid
p8309
sg15
V30
p8310
sg17
g8310
sg18
V8
p8311
sbag1
(g2
g3
Ntp8312
Rp8313
(dp8314
g7
V143
p8315
sg9
VSnorlax
p8316
sg11
VSw,Sh,
p8317
sg13
VRaid
p8318
sg15
V30
p8319
sg17
g8319
sg18
V10
p8320
sbag1
(g2
g3
Ntp8321
Rp8322
(dp8323
g7
V822
p8324
sg9
VCorvisquire
p8325
sg11
g3616
sg13
VRaid
p8326
sg15
V30
p8327
sg17
g8327
sg18
V10
p8328
sbag1
(g2
g3
Ntp8329
Rp8330
(dp8331
g7
V834
p8332
sg9
VDrednaw
p8333
sg11
g3625
sg13
VRaid
p8334
sg15
V30
p8335
sg17
g8335
sg18
V10
p8336
sbag1
(g2
g3
Ntp8337
Rp8338
(dp8339
g7
V843
p8340
sg9
VSilicobra
p8341
sg11
g3625
sg13
VRaid
p8342
sg15
V30
p8343
sg17
g8343
sg18
V10
p8344
sbag1
(g2
g3
Ntp8345
Rp8346
(dp8347
g7
V851
p8348
sg9
VCentiskorch
p8349
sg11
g3616
sg13
VRaid
p8350
sg15
V30
p8351
sg17
g8351
sg18
V10
p8352
sbag1
(g2
g3
Ntp8353
Rp8354
(dp8355
g7
V012
p8356
sg9
VButterfree
p8357
sg11
VSw,Sh,
p8358
sg13
VRaid
p8359
sg15
V40
p8360
sg17
g8360
sg18
V10
p8361
sbag1
(g2
g3
Ntp8362
Rp8363
(dp8364
g7
V129
p8365
sg9
VMagikarp
p8366
sg11
VSw,Sh,
p8367
sg13
VRaid
p8368
sg15
V40
p8369
sg17
g8369
sg18
V52
p8370
sbag1
(g2
g3
Ntp8371
Rp8372
(dp8373
g7
V129
p8374
sg9
VMagikarp
p8375
sg11
VSw,Sh,
p8376
sg13
VRaid
p8377
sg15
V40
p8378
sg17
g8378
sg18
V8
p8379
sbag1
(g2
g3
Ntp8380
Rp8381
(dp8382
g7
V143
p8383
sg9
VSnorlax
p8384
sg11
VSw,Sh,
p8385
sg13
VRaid
p8386
sg15
V40
p8387
sg17
g8387
sg18
V10
p8388
sbag1
(g2
g3
Ntp8389
Rp8390
(dp8391
g7
V823
p8392
sg9
VCorviknight
p8393
sg11
g3616
sg13
VRaid
p8394
sg15
V40
p8395
sg17
g8395
sg18
V10
p8396
sbag1
(g2
g3
Ntp8397
Rp8398
(dp8399
g7
V834
p8400
sg9
VDrednaw
p8401
sg11
g3625
sg13
VRaid
p8402
sg15
V40
p8403
sg17
g8403
sg18
V10
p8404
sbag1
(g2
g3
Ntp8405
Rp8406
(dp8407
g7
V844
p8408
sg9
VSandaconda
p8409
sg11
g3625
sg13
VRaid
p8410
sg15
V40
p8411
sg17
g8411
sg18
V10
p8412
sbag1
(g2
g3
Ntp8413
Rp8414
(dp8415
g7
V851
p8416
sg9
VCentiskorch
p8417
sg11
g3616
sg13
VRaid
p8418
sg15
V40
p8419
sg17
g8419
sg18
V10
p8420
sbag1
(g2
g3
Ntp8421
Rp8422
(dp8423
g7
V012
p8424
sg9
VButterfree
p8425
sg11
VSw,Sh,
p8426
sg13
VRaid
p8427
sg15
V50
p8428
sg17
g8428
sg18
V10
p8429
sbag1
(g2
g3
Ntp8430
Rp8431
(dp8432
g7
V129
p8433
sg9
VMagikarp
p8434
sg11
VSw,Sh,
p8435
sg13
VRaid
p8436
sg15
V50
p8437
sg17
g8437
sg18
V52
p8438
sbag1
(g2
g3
Ntp8439
Rp8440
(dp8441
g7
V129
p8442
sg9
VMagikarp
p8443
sg11
VSw,Sh,
p8444
sg13
VRaid
p8445
sg15
V50
p8446
sg17
g8446
sg18
V8
p8447
sbag1
(g2
g3
Ntp8448
Rp8449
(dp8450
g7
V143
p8451
sg9
VSnorlax
p8452
sg11
VSw,Sh,
p8453
sg13
VRaid
p8454
sg15
V50
p8455
sg17
g8455
sg18
V10
p8456
sbag1
(g2
g3
Ntp8457
Rp8458
(dp8459
g7
V823
p8460
sg9
VCorviknight
p8461
sg11
g3616
sg13
VRaid
p8462
sg15
V50
p8463
sg17
g8463
sg18
V10
p8464
sbag1
(g2
g3
Ntp8465
Rp8466
(dp8467
g7
V834
p8468
sg9
VDrednaw
p8469
sg11
g3625
sg13
VRaid
p8470
sg15
V50
p8471
sg17
g8471
sg18
V10
p8472
sbag1
(g2
g3
Ntp8473
Rp8474
(dp8475
g7
V844
p8476
sg9
VSandaconda
p8477
sg11
g3625
sg13
VRaid
p8478
sg15
V50
p8479
sg17
g8479
sg18
V10
p8480
sbag1
(g2
g3
Ntp8481
Rp8482
(dp8483
g7
V851
p8484
sg9
VCentiskorch
p8485
sg11
g3616
sg13
VRaid
p8486
sg15
V50
p8487
sg17
g8487
sg18
V10
p8488
sbag1
(g2
g3
Ntp8489
Rp8490
(dp8491
g7
V012
p8492
sg9
VButterfree
p8493
sg11
VSw,Sh,
p8494
sg13
VRaid
p8495
sg15
V60
p8496
sg17
g8496
sg18
V10
p8497
sbag1
(g2
g3
Ntp8498
Rp8499
(dp8500
g7
V129
p8501
sg9
VMagikarp
p8502
sg11
VSw,Sh,
p8503
sg13
VRaid
p8504
sg15
V70
p8505
sg17
g8505
sg18
V52
p8506
sbag1
(g2
g3
Ntp8507
Rp8508
(dp8509
g7
V129
p8510
sg9
VMagikarp
p8511
sg11
VSw,Sh,
p8512
sg13
VRaid
p8513
sg15
V60
p8514
sg17
g8514
sg18
V8
p8515
sbag1
(g2
g3
Ntp8516
Rp8517
(dp8518
g7
V143
p8519
sg9
VSnorlax
p8520
sg11
VSw,Sh,
p8521
sg13
VRaid
p8522
sg15
V70
p8523
sg17
g8523
sg18
V10
p8524
sbag1
(g2
g3
Ntp8525
Rp8526
(dp8527
g7
V823
p8528
sg9
VCorviknight
p8529
sg11
g3616
sg13
VRaid
p8530
sg15
V70
p8531
sg17
g8531
sg18
V10
p8532
sbag1
(g2
g3
Ntp8533
Rp8534
(dp8535
g7
V834
p8536
sg9
VDrednaw
p8537
sg11
g3625
sg13
VRaid
p8538
sg15
V70
p8539
sg17
g8539
sg18
V10
p8540
sbag1
(g2
g3
Ntp8541
Rp8542
(dp8543
g7
V844
p8544
sg9
VSandaconda
p8545
sg11
g3625
sg13
VRaid
p8546
sg15
V70
p8547
sg17
g8547
sg18
V10
p8548
sbag1
(g2
g3
Ntp8549
Rp8550
(dp8551
g7
V851
p8552
sg9
VCentiskorch
p8553
sg11
g3616
sg13
VRaid
p8554
sg15
V70
p8555
sg17
g8555
sg18
V10
p8556
sbag1
(g2
g3
Ntp8557
Rp8558
(dp8559
g7
V012
p8560
sg9
VButterfree
p8561
sg11
VSw,Sh,
p8562
sg13
VRaid
p8563
sg15
V17
p8564
sg17
g8564
sg18
V1
p8565
sbag1
(g2
g3
Ntp8566
Rp8567
(dp8568
g7
V012
p8569
sg9
VButterfree
p8570
sg11
VSw,Sh,
p8571
sg13
VRaid
p8572
sg15
V17
p8573
sg17
g8573
sg18
V9
p8574
sbag1
(g2
g3
Ntp8575
Rp8576
(dp8577
g7
V225
p8578
sg9
VDelibird
p8579
sg11
VSw,Sh,
p8580
sg13
VRaid
p8581
sg15
V17
p8582
sg17
g8582
sg18
V60
p8583
sbag1
(g2
g3
Ntp8584
Rp8585
(dp8586
g7
V446
p8587
sg9
VMunchlax
p8588
sg11
VSw,Sh,
p8589
sg13
VRaid
p8590
sg15
V17
p8591
sg17
g8591
sg18
V10
p8592
sbag1
(g2
g3
Ntp8593
Rp8594
(dp8595
g7
V821
p8596
sg9
VRookidee
p8597
sg11
g3616
sg13
VRaid
p8598
sg15
V17
p8599
sg17
g8599
sg18
V10
p8600
sbag1
(g2
g3
Ntp8601
Rp8602
(dp8603
g7
V833
p8604
sg9
VChewtle
p8605
sg11
g3625
sg13
VRaid
p8606
sg15
V17
p8607
sg17
g8607
sg18
V10
p8608
sbag1
(g2
g3
Ntp8609
Rp8610
(dp8611
g7
V843
p8612
sg9
VSilicobra
p8613
sg11
g3625
sg13
VRaid
p8614
sg15
V17
p8615
sg17
g8615
sg18
V10
p8616
sbag1
(g2
g3
Ntp8617
Rp8618
(dp8619
g7
V850
p8620
sg9
VSizzlipede
p8621
sg11
g3616
sg13
VRaid
p8622
sg15
V17
p8623
sg17
g8623
sg18
V10
p8624
sbag1
(g2
g3
Ntp8625
Rp8626
(dp8627
g7
V012
p8628
sg9
VButterfree
p8629
sg11
VSw,Sh,
p8630
sg13
VRaid
p8631
sg15
V30
p8632
sg17
g8632
sg18
V10
p8633
sbag1
(g2
g3
Ntp8634
Rp8635
(dp8636
g7
V143
p8637
sg9
VSnorlax
p8638
sg11
VSw,Sh,
p8639
sg13
VRaid
p8640
sg15
V30
p8641
sg17
g8641
sg18
V10
p8642
sbag1
(g2
g3
Ntp8643
Rp8644
(dp8645
g7
V225
p8646
sg9
VDelibird
p8647
sg11
VSw,Sh,
p8648
sg13
VRaid
p8649
sg15
V30
p8650
sg17
g8650
sg18
V60
p8651
sbag1
(g2
g3
Ntp8652
Rp8653
(dp8654
g7
V822
p8655
sg9
VCorvisquire
p8656
sg11
g3616
sg13
VRaid
p8657
sg15
V30
p8658
sg17
g8658
sg18
V10
p8659
sbag1
(g2
g3
Ntp8660
Rp8661
(dp8662
g7
V834
p8663
sg9
VDrednaw
p8664
sg11
g3625
sg13
VRaid
p8665
sg15
V30
p8666
sg17
g8666
sg18
V10
p8667
sbag1
(g2
g3
Ntp8668
Rp8669
(dp8670
g7
V843
p8671
sg9
VSilicobra
p8672
sg11
g3625
sg13
VRaid
p8673
sg15
V30
p8674
sg17
g8674
sg18
V10
p8675
sbag1
(g2
g3
Ntp8676
Rp8677
(dp8678
g7
V851
p8679
sg9
VCentiskorch
p8680
sg11
g3616
sg13
VRaid
p8681
sg15
V30
p8682
sg17
g8682
sg18
V10
p8683
sbag1
(g2
g3
Ntp8684
Rp8685
(dp8686
g7
V012
p8687
sg9
VButterfree
p8688
sg11
VSw,Sh,
p8689
sg13
VRaid
p8690
sg15
V40
p8691
sg17
g8691
sg18
V10
p8692
sbag1
(g2
g3
Ntp8693
Rp8694
(dp8695
g7
V143
p8696
sg9
VSnorlax
p8697
sg11
VSw,Sh,
p8698
sg13
VRaid
p8699
sg15
V40
p8700
sg17
g8700
sg18
V10
p8701
sbag1
(g2
g3
Ntp8702
Rp8703
(dp8704
g7
V225
p8705
sg9
VDelibird
p8706
sg11
VSw,Sh,
p8707
sg13
VRaid
p8708
sg15
V40
p8709
sg17
g8709
sg18
V60
p8710
sbag1
(g2
g3
Ntp8711
Rp8712
(dp8713
g7
V823
p8714
sg9
VCorviknight
p8715
sg11
g3616
sg13
VRaid
p8716
sg15
V40
p8717
sg17
g8717
sg18
V10
p8718
sbag1
(g2
g3
Ntp8719
Rp8720
(dp8721
g7
V834
p8722
sg9
VDrednaw
p8723
sg11
g3625
sg13
VRaid
p8724
sg15
V40
p8725
sg17
g8725
sg18
V1
p8726
sbag1
(g2
g3
Ntp8727
Rp8728
(dp8729
g7
V834
p8730
sg9
VDrednaw
p8731
sg11
g3625
sg13
VRaid
p8732
sg15
V40
p8733
sg17
g8733
sg18
V9
p8734
sbag1
(g2
g3
Ntp8735
Rp8736
(dp8737
g7
V844
p8738
sg9
VSandaconda
p8739
sg11
g3625
sg13
VRaid
p8740
sg15
V40
p8741
sg17
g8741
sg18
V10
p8742
sbag1
(g2
g3
Ntp8743
Rp8744
(dp8745
g7
V851
p8746
sg9
VCentiskorch
p8747
sg11
g3616
sg13
VRaid
p8748
sg15
V40
p8749
sg17
g8749
sg18
V1
p8750
sbag1
(g2
g3
Ntp8751
Rp8752
(dp8753
g7
V851
p8754
sg9
VCentiskorch
p8755
sg11
g3616
sg13
VRaid
p8756
sg15
V40
p8757
sg17
g8757
sg18
V9
p8758
sbag1
(g2
g3
Ntp8759
Rp8760
(dp8761
g7
V012
p8762
sg9
VButterfree
p8763
sg11
VSw,Sh,
p8764
sg13
VRaid
p8765
sg15
V50
p8766
sg17
g8766
sg18
V10
p8767
sbag1
(g2
g3
Ntp8768
Rp8769
(dp8770
g7
V143
p8771
sg9
VSnorlax
p8772
sg11
VSw,Sh,
p8773
sg13
VRaid
p8774
sg15
V50
p8775
sg17
g8775
sg18
V10
p8776
sbag1
(g2
g3
Ntp8777
Rp8778
(dp8779
g7
V225
p8780
sg9
VDelibird
p8781
sg11
VSw,Sh,
p8782
sg13
VRaid
p8783
sg15
V50
p8784
sg17
g8784
sg18
V60
p8785
sbag1
(g2
g3
Ntp8786
Rp8787
(dp8788
g7
V823
p8789
sg9
VCorviknight
p8790
sg11
g3616
sg13
VRaid
p8791
sg15
V50
p8792
sg17
g8792
sg18
V10
p8793
sbag1
(g2
g3
Ntp8794
Rp8795
(dp8796
g7
V834
p8797
sg9
VDrednaw
p8798
sg11
g3625
sg13
VRaid
p8799
sg15
V50
p8800
sg17
g8800
sg18
V1
p8801
sbag1
(g2
g3
Ntp8802
Rp8803
(dp8804
g7
V834
p8805
sg9
VDrednaw
p8806
sg11
g3625
sg13
VRaid
p8807
sg15
V50
p8808
sg17
g8808
sg18
V9
p8809
sbag1
(g2
g3
Ntp8810
Rp8811
(dp8812
g7
V844
p8813
sg9
VSandaconda
p8814
sg11
g3625
sg13
VRaid
p8815
sg15
V50
p8816
sg17
g8816
sg18
V10
p8817
sbag1
(g2
g3
Ntp8818
Rp8819
(dp8820
g7
V851
p8821
sg9
VCentiskorch
p8822
sg11
g3616
sg13
VRaid
p8823
sg15
V50
p8824
sg17
g8824
sg18
V1
p8825
sbag1
(g2
g3
Ntp8826
Rp8827
(dp8828
g7
V851
p8829
sg9
VCentiskorch
p8830
sg11
g3616
sg13
VRaid
p8831
sg15
V50
p8832
sg17
g8832
sg18
V9
p8833
sbag1
(g2
g3
Ntp8834
Rp8835
(dp8836
g7
V012
p8837
sg9
VButterfree
p8838
sg11
VSw,Sh,
p8839
sg13
VRaid
p8840
sg15
V60
p8841
sg17
g8841
sg18
V10
p8842
sbag1
(g2
g3
Ntp8843
Rp8844
(dp8845
g7
V143
p8846
sg9
VSnorlax
p8847
sg11
VSw,Sh,
p8848
sg13
VRaid
p8849
sg15
V70
p8850
sg17
g8850
sg18
V10
p8851
sbag1
(g2
g3
Ntp8852
Rp8853
(dp8854
g7
V225
p8855
sg9
VDelibird
p8856
sg11
VSw,Sh,
p8857
sg13
VRaid
p8858
sg15
V70
p8859
sg17
g8859
sg18
V60
p8860
sbag1
(g2
g3
Ntp8861
Rp8862
(dp8863
g7
V823
p8864
sg9
VCorviknight
p8865
sg11
g3616
sg13
VRaid
p8866
sg15
V70
p8867
sg17
g8867
sg18
V10
p8868
sbag1
(g2
g3
Ntp8869
Rp8870
(dp8871
g7
V834
p8872
sg9
VDrednaw
p8873
sg11
g3625
sg13
VRaid
p8874
sg15
V60
p8875
sg17
g8875
sg18
V1
p8876
sbag1
(g2
g3
Ntp8877
Rp8878
(dp8879
g7
V834
p8880
sg9
VDrednaw
p8881
sg11
g3625
sg13
VRaid
p8882
sg15
V70
p8883
sg17
g8883
sg18
V9
p8884
sbag1
(g2
g3
Ntp8885
Rp8886
(dp8887
g7
V844
p8888
sg9
VSandaconda
p8889
sg11
g3625
sg13
VRaid
p8890
sg15
V70
p8891
sg17
g8891
sg18
V10
p8892
sbag1
(g2
g3
Ntp8893
Rp8894
(dp8895
g7
V851
p8896
sg9
VCentiskorch
p8897
sg11
g3616
sg13
VRaid
p8898
sg15
V60
p8899
sg17
g8899
sg18
V1
p8900
sbag1
(g2
g3
Ntp8901
Rp8902
(dp8903
g7
V851
p8904
sg9
VCentiskorch
p8905
sg11
g3616
sg13
VRaid
p8906
sg15
V70
p8907
sg17
g8907
sg18
V9
p8908
sbag1
(g2
g3
Ntp8909
Rp8910
(dp8911
g7
V012
p8912
sg9
VButterfree
p8913
sg11
VSw,Sh,
p8914
sg13
VRaid
p8915
sg15
V17
p8916
sg17
g8916
sg18
V10
p8917
sbag1
(g2
g3
Ntp8918
Rp8919
(dp8920
g7
V012
p8921
sg9
VButterfree
p8922
sg11
VSw,Sh,
p8923
sg13
VRaid
p8924
sg15
V17
p8925
sg17
g8925
sg18
V10
p8926
sbag1
(g2
g3
Ntp8927
Rp8928
(dp8929
g7
V446
p8930
sg9
VMunchlax
p8931
sg11
VSw,Sh,
p8932
sg13
VRaid
p8933
sg15
V17
p8934
sg17
g8934
sg18
V40
p8935
sbag1
(g2
g3
Ntp8936
Rp8937
(dp8938
g7
V821
p8939
sg9
VRookidee
p8940
sg11
g3616
sg13
VRaid
p8941
sg15
V17
p8942
sg17
g8942
sg18
V20
p8943
sbag1
(g2
g3
Ntp8944
Rp8945
(dp8946
g7
V833
p8947
sg9
VChewtle
p8948
sg11
g3625
sg13
VRaid
p8949
sg15
V17
p8950
sg17
g8950
sg18
V20
p8951
sbag1
(g2
g3
Ntp8952
Rp8953
(dp8954
g7
V843
p8955
sg9
VSilicobra
p8956
sg11
g3625
sg13
VRaid
p8957
sg15
V17
p8958
sg17
g8958
sg18
V20
p8959
sbag1
(g2
g3
Ntp8960
Rp8961
(dp8962
g7
V850
p8963
sg9
VSizzlipede
p8964
sg11
g3616
sg13
VRaid
p8965
sg15
V17
p8966
sg17
g8966
sg18
V20
p8967
sbag1
(g2
g3
Ntp8968
Rp8969
(dp8970
g7
V012
p8971
sg9
VButterfree
p8972
sg11
VSw,Sh,
p8973
sg13
VRaid
p8974
sg15
V30
p8975
sg17
g8975
sg18
V20
p8976
sbag1
(g2
g3
Ntp8977
Rp8978
(dp8979
g7
V143
p8980
sg9
VSnorlax
p8981
sg11
VSw,Sh,
p8982
sg13
VRaid
p8983
sg15
V30
p8984
sg17
g8984
sg18
V40
p8985
sbag1
(g2
g3
Ntp8986
Rp8987
(dp8988
g7
V822
p8989
sg9
VCorvisquire
p8990
sg11
g3616
sg13
VRaid
p8991
sg15
V30
p8992
sg17
g8992
sg18
V20
p8993
sbag1
(g2
g3
Ntp8994
Rp8995
(dp8996
g7
V834
p8997
sg9
VDrednaw
p8998
sg11
g3625
sg13
VRaid
p8999
sg15
V30
p9000
sg17
g9000
sg18
V20
p9001
sbag1
(g2
g3
Ntp9002
Rp9003
(dp9004
g7
V843
p9005
sg9
VSilicobra
p9006
sg11
g3625
sg13
VRaid
p9007
sg15
V30
p9008
sg17
g9008
sg18
V20
p9009
sbag1
(g2
g3
Ntp9010
Rp9011
(dp9012
g7
V851
p9013
sg9
VCentiskorch
p9014
sg11
g3616
sg13
VRaid
p9015
sg15
V30
p9016
sg17
g9016
sg18
V20
p9017
sbag1
(g2
g3
Ntp9018
Rp9019
(dp9020
g7
V012
p9021
sg9
VButterfree
p9022
sg11
VSw,Sh,
p9023
sg13
VRaid
p9024
sg15
V40
p9025
sg17
g9025
sg18
V10
p9026
sbag1
(g2
g3
Ntp9027
Rp9028
(dp9029
g7
V143
p9030
sg9
VSnorlax
p9031
sg11
VSw,Sh,
p9032
sg13
VRaid
p9033
sg15
V40
p9034
sg17
g9034
sg18
V10
p9035
sbag1
(g2
g3
Ntp9036
Rp9037
(dp9038
g7
V143
p9039
sg9
VSnorlax
p9040
sg11
VSw,Sh,
p9041
sg13
VRaid
p9042
sg15
V40
p9043
sg17
g9043
sg18
V40
p9044
sbag1
(g2
g3
Ntp9045
Rp9046
(dp9047
g7
V823
p9048
sg9
VCorviknight
p9049
sg11
g3616
sg13
VRaid
p9050
sg15
V40
p9051
sg17
g9051
sg18
V10
p9052
sbag1
(g2
g3
Ntp9053
Rp9054
(dp9055
g7
V834
p9056
sg9
VDrednaw
p9057
sg11
g3625
sg13
VRaid
p9058
sg15
V40
p9059
sg17
g9059
sg18
V10
p9060
sbag1
(g2
g3
Ntp9061
Rp9062
(dp9063
g7
V834
p9064
sg9
VDrednaw
p9065
sg11
g3625
sg13
VRaid
p9066
sg15
V40
p9067
sg17
g9067
sg18
V20
p9068
sbag1
(g2
g3
Ntp9069
Rp9070
(dp9071
g7
V844
p9072
sg9
VSandaconda
p9073
sg11
g3625
sg13
VRaid
p9074
sg15
V40
p9075
sg17
g9075
sg18
V10
p9076
sbag1
(g2
g3
Ntp9077
Rp9078
(dp9079
g7
V851
p9080
sg9
VCentiskorch
p9081
sg11
g3616
sg13
VRaid
p9082
sg15
V40
p9083
sg17
g9083
sg18
V10
p9084
sbag1
(g2
g3
Ntp9085
Rp9086
(dp9087
g7
V851
p9088
sg9
VCentiskorch
p9089
sg11
g3616
sg13
VRaid
p9090
sg15
V40
p9091
sg17
g9091
sg18
V20
p9092
sbag1
(g2
g3
Ntp9093
Rp9094
(dp9095
g7
V012
p9096
sg9
VButterfree
p9097
sg11
VSw,Sh,
p9098
sg13
VRaid
p9099
sg15
V50
p9100
sg17
g9100
sg18
V10
p9101
sbag1
(g2
g3
Ntp9102
Rp9103
(dp9104
g7
V143
p9105
sg9
VSnorlax
p9106
sg11
VSw,Sh,
p9107
sg13
VRaid
p9108
sg15
V50
p9109
sg17
g9109
sg18
V10
p9110
sbag1
(g2
g3
Ntp9111
Rp9112
(dp9113
g7
V143
p9114
sg9
VSnorlax
p9115
sg11
VSw,Sh,
p9116
sg13
VRaid
p9117
sg15
V50
p9118
sg17
g9118
sg18
V40
p9119
sbag1
(g2
g3
Ntp9120
Rp9121
(dp9122
g7
V823
p9123
sg9
VCorviknight
p9124
sg11
g3616
sg13
VRaid
p9125
sg15
V50
p9126
sg17
g9126
sg18
V10
p9127
sbag1
(g2
g3
Ntp9128
Rp9129
(dp9130
g7
V834
p9131
sg9
VDrednaw
p9132
sg11
g3625
sg13
VRaid
p9133
sg15
V50
p9134
sg17
g9134
sg18
V10
p9135
sbag1
(g2
g3
Ntp9136
Rp9137
(dp9138
g7
V834
p9139
sg9
VDrednaw
p9140
sg11
g3625
sg13
VRaid
p9141
sg15
V50
p9142
sg17
g9142
sg18
V20
p9143
sbag1
(g2
g3
Ntp9144
Rp9145
(dp9146
g7
V844
p9147
sg9
VSandaconda
p9148
sg11
g3625
sg13
VRaid
p9149
sg15
V50
p9150
sg17
g9150
sg18
V10
p9151
sbag1
(g2
g3
Ntp9152
Rp9153
(dp9154
g7
V851
p9155
sg9
VCentiskorch
p9156
sg11
g3616
sg13
VRaid
p9157
sg15
V50
p9158
sg17
g9158
sg18
V10
p9159
sbag1
(g2
g3
Ntp9160
Rp9161
(dp9162
g7
V851
p9163
sg9
VCentiskorch
p9164
sg11
g3616
sg13
VRaid
p9165
sg15
V50
p9166
sg17
g9166
sg18
V20
p9167
sbag1
(g2
g3
Ntp9168
Rp9169
(dp9170
g7
V012
p9171
sg9
VButterfree
p9172
sg11
VSw,Sh,
p9173
sg13
VRaid
p9174
sg15
V60
p9175
sg17
g9175
sg18
V10
p9176
sbag1
(g2
g3
Ntp9177
Rp9178
(dp9179
g7
V143
p9180
sg9
VSnorlax
p9181
sg11
VSw,Sh,
p9182
sg13
VRaid
p9183
sg15
V60
p9184
sg17
g9184
sg18
V10
p9185
sbag1
(g2
g3
Ntp9186
Rp9187
(dp9188
g7
V143
p9189
sg9
VSnorlax
p9190
sg11
VSw,Sh,
p9191
sg13
VRaid
p9192
sg15
V70
p9193
sg17
g9193
sg18
V40
p9194
sbag1
(g2
g3
Ntp9195
Rp9196
(dp9197
g7
V823
p9198
sg9
VCorviknight
p9199
sg11
g3616
sg13
VRaid
p9200
sg15
V70
p9201
sg17
g9201
sg18
V10
p9202
sbag1
(g2
g3
Ntp9203
Rp9204
(dp9205
g7
V834
p9206
sg9
VDrednaw
p9207
sg11
g3625
sg13
VRaid
p9208
sg15
V60
p9209
sg17
g9209
sg18
V10
p9210
sbag1
(g2
g3
Ntp9211
Rp9212
(dp9213
g7
V834
p9214
sg9
VDrednaw
p9215
sg11
g3625
sg13
VRaid
p9216
sg15
V70
p9217
sg17
g9217
sg18
V20
p9218
sbag1
(g2
g3
Ntp9219
Rp9220
(dp9221
g7
V844
p9222
sg9
VSandaconda
p9223
sg11
g3625
sg13
VRaid
p9224
sg15
V70
p9225
sg17
g9225
sg18
V10
p9226
sbag1
(g2
g3
Ntp9227
Rp9228
(dp9229
g7
V851
p9230
sg9
VCentiskorch
p9231
sg11
g3616
sg13
VRaid
p9232
sg15
V60
p9233
sg17
g9233
sg18
V10
p9234
sbag1
(g2
g3
Ntp9235
Rp9236
(dp9237
g7
V851
p9238
sg9
VCentiskorch
p9239
sg11
g3616
sg13
VRaid
p9240
sg15
V70
p9241
sg17
g9241
sg18
V20
p9242
sbag1
(g2
g3
Ntp9243
Rp9244
(dp9245
g7
V012
p9246
sg9
VButterfree
p9247
sg11
VSw,Sh,
p9248
sg13
VRaid
p9249
sg15
V17
p9250
sg17
g9250
sg18
V10
p9251
sbag1
(g2
g3
Ntp9252
Rp9253
(dp9254
g7
V012
p9255
sg9
VButterfree
p9256
sg11
VSw,Sh,
p9257
sg13
VRaid
p9258
sg15
V17
p9259
sg17
g9259
sg18
V10
p9260
sbag1
(g2
g3
Ntp9261
Rp9262
(dp9263
g7
V821
p9264
sg9
VRookidee
p9265
sg11
g3616
sg13
VRaid
p9266
sg15
V17
p9267
sg17
g9267
sg18
V40
p9268
sbag1
(g2
g3
Ntp9269
Rp9270
(dp9271
g7
V833
p9272
sg9
VChewtle
p9273
sg11
g3625
sg13
VRaid
p9274
sg15
V17
p9275
sg17
g9275
sg18
V40
p9276
sbag1
(g2
g3
Ntp9277
Rp9278
(dp9279
g7
V843
p9280
sg9
VSilicobra
p9281
sg11
g3625
sg13
VRaid
p9282
sg15
V17
p9283
sg17
g9283
sg18
V40
p9284
sbag1
(g2
g3
Ntp9285
Rp9286
(dp9287
g7
V850
p9288
sg9
VSizzlipede
p9289
sg11
g3616
sg13
VRaid
p9290
sg15
V17
p9291
sg17
g9291
sg18
V40
p9292
sbag1
(g2
g3
Ntp9293
Rp9294
(dp9295
g7
V012
p9296
sg9
VButterfree
p9297
sg11
g3625
sg13
VRaid
p9298
sg15
V30
p9299
sg17
g9299
sg18
V10
p9300
sbag1
(g2
g3
Ntp9301
Rp9302
(dp9303
g7
V012
p9304
sg9
VButterfree
p9305
sg11
g3625
sg13
VRaid
p9306
sg15
V30
p9307
sg17
g9307
sg18
V10
p9308
sbag1
(g2
g3
Ntp9309
Rp9310
(dp9311
g7
V822
p9312
sg9
VCorvisquire
p9313
sg11
g3616
sg13
VRaid
p9314
sg15
V30
p9315
sg17
g9315
sg18
V40
p9316
sbag1
(g2
g3
Ntp9317
Rp9318
(dp9319
g7
V834
p9320
sg9
VDrednaw
p9321
sg11
g3625
sg13
VRaid
p9322
sg15
V30
p9323
sg17
g9323
sg18
V40
p9324
sbag1
(g2
g3
Ntp9325
Rp9326
(dp9327
g7
V843
p9328
sg9
VSilicobra
p9329
sg11
g3625
sg13
VRaid
p9330
sg15
V30
p9331
sg17
g9331
sg18
V40
p9332
sbag1
(g2
g3
Ntp9333
Rp9334
(dp9335
g7
V851
p9336
sg9
VCentiskorch
p9337
sg11
g3616
sg13
VRaid
p9338
sg15
V30
p9339
sg17
g9339
sg18
V40
p9340
sbag1
(g2
g3
Ntp9341
Rp9342
(dp9343
g7
V012
p9344
sg9
VButterfree
p9345
sg11
VSw,Sh,
p9346
sg13
VRaid
p9347
sg15
V40
p9348
sg17
g9348
sg18
V5
p9349
sbag1
(g2
g3
Ntp9350
Rp9351
(dp9352
g7
V012
p9353
sg9
VButterfree
p9354
sg11
VSw,Sh,
p9355
sg13
VRaid
p9356
sg15
V40
p9357
sg17
g9357
sg18
V20
p9358
sbag1
(g2
g3
Ntp9359
Rp9360
(dp9361
g7
V823
p9362
sg9
VCorviknight
p9363
sg11
g3616
sg13
VRaid
p9364
sg15
V40
p9365
sg17
g9365
sg18
V5
p9366
sbag1
(g2
g3
Ntp9367
Rp9368
(dp9369
g7
V823
p9370
sg9
VCorviknight
p9371
sg11
g3616
sg13
VRaid
p9372
sg15
V40
p9373
sg17
g9373
sg18
V30
p9374
sbag1
(g2
g3
Ntp9375
Rp9376
(dp9377
g7
V834
p9378
sg9
VDrednaw
p9379
sg11
g3625
sg13
VRaid
p9380
sg15
V40
p9381
sg17
g9381
sg18
V10
p9382
sbag1
(g2
g3
Ntp9383
Rp9384
(dp9385
g7
V834
p9386
sg9
VDrednaw
p9387
sg11
g3625
sg13
VRaid
p9388
sg15
V40
p9389
sg17
g9389
sg18
V30
p9390
sbag1
(g2
g3
Ntp9391
Rp9392
(dp9393
g7
V844
p9394
sg9
VSandaconda
p9395
sg11
g3625
sg13
VRaid
p9396
sg15
V40
p9397
sg17
g9397
sg18
V5
p9398
sbag1
(g2
g3
Ntp9399
Rp9400
(dp9401
g7
V844
p9402
sg9
VSandaconda
p9403
sg11
g3625
sg13
VRaid
p9404
sg15
V40
p9405
sg17
g9405
sg18
V30
p9406
sbag1
(g2
g3
Ntp9407
Rp9408
(dp9409
g7
V851
p9410
sg9
VCentiskorch
p9411
sg11
g3616
sg13
VRaid
p9412
sg15
V40
p9413
sg17
g9413
sg18
V10
p9414
sbag1
(g2
g3
Ntp9415
Rp9416
(dp9417
g7
V851
p9418
sg9
VCentiskorch
p9419
sg11
g3616
sg13
VRaid
p9420
sg15
V40
p9421
sg17
g9421
sg18
V30
p9422
sbag1
(g2
g3
Ntp9423
Rp9424
(dp9425
g7
V012
p9426
sg9
VButterfree
p9427
sg11
VSw,Sh,
p9428
sg13
VRaid
p9429
sg15
V50
p9430
sg17
g9430
sg18
V5
p9431
sbag1
(g2
g3
Ntp9432
Rp9433
(dp9434
g7
V012
p9435
sg9
VButterfree
p9436
sg11
VSw,Sh,
p9437
sg13
VRaid
p9438
sg15
V50
p9439
sg17
g9439
sg18
V20
p9440
sbag1
(g2
g3
Ntp9441
Rp9442
(dp9443
g7
V823
p9444
sg9
VCorviknight
p9445
sg11
g3616
sg13
VRaid
p9446
sg15
V50
p9447
sg17
g9447
sg18
V5
p9448
sbag1
(g2
g3
Ntp9449
Rp9450
(dp9451
g7
V823
p9452
sg9
VCorviknight
p9453
sg11
g3616
sg13
VRaid
p9454
sg15
V50
p9455
sg17
g9455
sg18
V30
p9456
sbag1
(g2
g3
Ntp9457
Rp9458
(dp9459
g7
V834
p9460
sg9
VDrednaw
p9461
sg11
g3625
sg13
VRaid
p9462
sg15
V50
p9463
sg17
g9463
sg18
V10
p9464
sbag1
(g2
g3
Ntp9465
Rp9466
(dp9467
g7
V834
p9468
sg9
VDrednaw
p9469
sg11
g3625
sg13
VRaid
p9470
sg15
V50
p9471
sg17
g9471
sg18
V30
p9472
sbag1
(g2
g3
Ntp9473
Rp9474
(dp9475
g7
V844
p9476
sg9
VSandaconda
p9477
sg11
g3625
sg13
VRaid
p9478
sg15
V50
p9479
sg17
g9479
sg18
V5
p9480
sbag1
(g2
g3
Ntp9481
Rp9482
(dp9483
g7
V844
p9484
sg9
VSandaconda
p9485
sg11
g3625
sg13
VRaid
p9486
sg15
V50
p9487
sg17
g9487
sg18
V30
p9488
sbag1
(g2
g3
Ntp9489
Rp9490
(dp9491
g7
V851
p9492
sg9
VCentiskorch
p9493
sg11
g3616
sg13
VRaid
p9494
sg15
V50
p9495
sg17
g9495
sg18
V10
p9496
sbag1
(g2
g3
Ntp9497
Rp9498
(dp9499
g7
V851
p9500
sg9
VCentiskorch
p9501
sg11
g3616
sg13
VRaid
p9502
sg15
V50
p9503
sg17
g9503
sg18
V30
p9504
sbag1
(g2
g3
Ntp9505
Rp9506
(dp9507
g7
V012
p9508
sg9
VButterfree
p9509
sg11
VSw,Sh,
p9510
sg13
VRaid
p9511
sg15
V60
p9512
sg17
g9512
sg18
V5
p9513
sbag1
(g2
g3
Ntp9514
Rp9515
(dp9516
g7
V012
p9517
sg9
VButterfree
p9518
sg11
VSw,Sh,
p9519
sg13
VRaid
p9520
sg15
V70
p9521
sg17
g9521
sg18
V20
p9522
sbag1
(g2
g3
Ntp9523
Rp9524
(dp9525
g7
V823
p9526
sg9
VCorviknight
p9527
sg11
g3616
sg13
VRaid
p9528
sg15
V60
p9529
sg17
g9529
sg18
V5
p9530
sbag1
(g2
g3
Ntp9531
Rp9532
(dp9533
g7
V823
p9534
sg9
VCorviknight
p9535
sg11
g3616
sg13
VRaid
p9536
sg15
V70
p9537
sg17
g9537
sg18
V30
p9538
sbag1
(g2
g3
Ntp9539
Rp9540
(dp9541
g7
V834
p9542
sg9
VDrednaw
p9543
sg11
g3625
sg13
VRaid
p9544
sg15
V60
p9545
sg17
g9545
sg18
V10
p9546
sbag1
(g2
g3
Ntp9547
Rp9548
(dp9549
g7
V834
p9550
sg9
VDrednaw
p9551
sg11
g3625
sg13
VRaid
p9552
sg15
V70
p9553
sg17
g9553
sg18
V30
p9554
sbag1
(g2
g3
Ntp9555
Rp9556
(dp9557
g7
V844
p9558
sg9
VSandaconda
p9559
sg11
g3625
sg13
VRaid
p9560
sg15
V60
p9561
sg17
g9561
sg18
V5
p9562
sbag1
(g2
g3
Ntp9563
Rp9564
(dp9565
g7
V844
p9566
sg9
VSandaconda
p9567
sg11
g3625
sg13
VRaid
p9568
sg15
V70
p9569
sg17
g9569
sg18
V30
p9570
sbag1
(g2
g3
Ntp9571
Rp9572
(dp9573
g7
V851
p9574
sg9
VCentiskorch
p9575
sg11
g3616
sg13
VRaid
p9576
sg15
V60
p9577
sg17
g9577
sg18
V10
p9578
sbag1
(g2
g3
Ntp9579
Rp9580
(dp9581
g7
V851
p9582
sg9
VCentiskorch
p9583
sg11
g3616
sg13
VRaid
p9584
sg15
V70
p9585
sg17
g9585
sg18
V30
p9586
sba.