(lp0
ccopy_reg
_reconstructor
p1
(c__main__
WildPokemon
p2
c__builtin__
object
p3
Ntp4
Rp5
(dp6
VpDexNo
p7
V102
p8
sVpSpecies
p9
VExeggcute
p10
sVpGames
p11
VSw,Sh,
p12
sVpArea
p13
VGrass
p14
sVpMinLevel
p15
V43
p16
sVpMaxLevel
p17
V48
p18
sVpRate
p19
V30
p20
sbag1
(g2
g3
Ntp21
Rp22
(dp23
g7
V132
p24
sg9
VDitto
p25
sg11
VSw,Sh,
p26
sg13
VGrass
p27
sg15
V43
p28
sg17
V48
p29
sg19
V30
p30
sbag1
(g2
g3
Ntp31
Rp32
(dp33
g7
V440
p34
sg9
VHappiny
p35
sg11
VSw,Sh,
p36
sg13
VGrass
p37
sg15
V43
p38
sg17
V48
p39
sg19
V10
p40
sbag1
(g2
g3
Ntp41
Rp42
(dp43
g7
V824
p44
sg9
VBlipbug
p45
sg11
VSw,Sh,
p46
sg13
VGrass
p47
sg15
V43
p48
sg17
V48
p49
sg19
V30
p50
sbag1
(g2
g3
Ntp51
Rp52
(dp53
g7
V819
p54
sg9
VSkwovet
p55
sg11
VSw,Sh,
p56
sg13
VBerry tree
p57
sg15
V43
p58
sg17
V48
p59
sg19
V70
p60
sbag1
(g2
g3
Ntp61
Rp62
(dp63
g7
V840
p64
sg9
VApplin
p65
sg11
VSw,Sh,
p66
sg13
VBerry tree
p67
sg15
V43
p68
sg17
V48
p69
sg19
V30
p70
sbag1
(g2
g3
Ntp71
Rp72
(dp73
g7
V129
p74
sg9
VMagikarp
p75
sg11
VSw,Sh,
p76
sg13
VFishing
p77
sg15
V43
p78
sg17
V48
p79
sg19
V50
p80
sbag1
(g2
g3
Ntp81
Rp82
(dp83
g7
V223
p84
sg9
VRemoraid
p85
sg11
VSw,Sh,
p86
sg13
VFishing
p87
sg15
V43
p88
sg17
V48
p89
sg19
V40
p90
sbag1
(g2
g3
Ntp91
Rp92
(dp93
g7
V224
p94
sg9
VOctillery
p95
sg11
VSw,Sh,
p96
sg13
VFishing
p97
sg15
V43
p98
sg17
V48
p99
sg19
V10
p100
sbag1
(g2
g3
Ntp101
Rp102
(dp103
g7
V102
p104
sg9
VExeggcute
p105
sg11
VSw,Sh,
p106
sg13
VGrass
p107
sg15
V40
p108
sg17
V45
p109
sg19
V16
p110
sbag1
(g2
g3
Ntp111
Rp112
(dp113
g7
V113
p114
sg9
VChansey
p115
sg11
VSw,Sh,
p116
sg13
VGrass
p117
sg15
V40
p118
sg17
V45
p119
sg19
V0
p120
sbag1
(g2
g3
Ntp121
Rp122
(dp123
g7
V132
p124
sg9
VDitto
p125
sg11
VSw,Sh,
p126
sg13
VGrass
p127
sg15
V40
p128
sg17
V45
p129
sg19
V82
p130
sbag1
(g2
g3
Ntp131
Rp132
(dp133
g7
V242
p134
sg9
VBlissey
p135
sg11
VSw,Sh,
p136
sg13
VGrass
p137
sg15
V40
p138
sg17
V45
p139
sg19
g120
sbag1
(g2
g3
Ntp140
Rp141
(dp142
g7
V072
p143
sg9
VTentacool
p144
sg11
VSw,Sh,
p145
sg13
VSurf
p146
sg15
V40
p147
sg17
V45
p148
sg19
g120
sbag1
(g2
g3
Ntp149
Rp150
(dp151
g7
V073
p152
sg9
VTentacruel
p153
sg11
VSw,Sh,
p154
sg13
VSurf
p155
sg15
V40
p156
sg17
V45
p157
sg19
g120
sbag1
(g2
g3
Ntp158
Rp159
(dp160
g7
V130
p161
sg9
VGyarados
p162
sg11
VSw,Sh,
p163
sg13
VSurf
p164
sg15
V40
p165
sg17
V45
p166
sg19
V1
p167
sbag1
(g2
g3
Ntp168
Rp169
(dp170
g7
V170
p171
sg9
VChinchou
p172
sg11
VSw,Sh,
p173
sg13
VSurf
p174
sg15
V40
p175
sg17
V45
p176
sg19
g120
sbag1
(g2
g3
Ntp177
Rp178
(dp179
g7
V171
p180
sg9
VLanturn
p181
sg11
VSw,Sh,
p182
sg13
VSurf
p183
sg15
V40
p184
sg17
V45
p185
sg19
g120
sbag1
(g2
g3
Ntp186
Rp187
(dp188
g7
V278
p189
sg9
VWingull
p190
sg11
VSw,Sh,
p191
sg13
VSurf
p192
sg15
V40
p193
sg17
V45
p194
sg19
V30
p195
sbag1
(g2
g3
Ntp196
Rp197
(dp198
g7
V279
p199
sg9
VPelipper
p200
sg11
VSw,Sh,
p201
sg13
VSurf
p202
sg15
V40
p203
sg17
V45
p204
sg19
g120
sbag1
(g2
g3
Ntp205
Rp206
(dp207
g7
V425
p208
sg9
VDrifloon
p209
sg11
VSw,Sh,
p210
sg13
VSurf
p211
sg15
V40
p212
sg17
V45
p213
sg19
g120
sbag1
(g2
g3
Ntp214
Rp215
(dp216
g7
V458
p217
sg9
VMantyke
p218
sg11
VSw,Sh,
p219
sg13
VSurf
p220
sg15
V40
p221
sg17
V45
p222
sg19
g120
sbag1
(g2
g3
Ntp223
Rp224
(dp225
g7
V593
p226
sg9
VJellicent
p227
sg11
VSw,Sh,
p228
sg13
VSurf
p229
sg15
V40
p230
sg17
V45
p231
sg19
g120
sbag1
(g2
g3
Ntp232
Rp233
(dp234
g7
V662
p235
sg9
VFletchinder
p236
sg11
VSw,Sh,
p237
sg13
VSurf
p238
sg15
V40
p239
sg17
V45
p240
sg19
g120
sbag1
(g2
g3
Ntp241
Rp242
(dp243
g7
V690
p244
sg9
VSkrelp
p245
sg11
VSh,
p246
sg13
VSurf
p247
sg15
V40
p248
sg17
V45
p249
sg19
V5
p250
sbag1
(g2
g3
Ntp251
Rp252
(dp253
g7
V691
p254
sg9
VDragalge
p255
sg11
g246
sg13
VSurf
p256
sg15
V40
p257
sg17
V45
p258
sg19
V1
p259
sbag1
(g2
g3
Ntp260
Rp261
(dp262
g7
V692
p263
sg9
VClauncher
p264
sg11
VSw,
p265
sg13
VSurf
p266
sg15
V40
p267
sg17
V45
p268
sg19
V5
p269
sbag1
(g2
g3
Ntp270
Rp271
(dp272
g7
V693
p273
sg9
VClawitzer
p274
sg11
g265
sg13
VSurf
p275
sg15
V40
p276
sg17
V45
p277
sg19
V1
p278
sbag1
(g2
g3
Ntp279
Rp280
(dp281
g7
V319
p282
sg9
VSharpedo
p283
sg11
VSw,Sh,
p284
sg13
VSurf
p285
sg15
V40
p286
sg17
V45
p287
sg19
V100
p288
sbag1
(g2
g3
Ntp289
Rp290
(dp291
g7
V103
p292
sg9
VExeggutor
p293
sg11
VSw,Sh,
p294
sg13
VWanderer
p295
sg15
V50
p296
sg17
g296
sg19
g120
sbag1
(g2
g3
Ntp297
Rp298
(dp299
g7
V132
p300
sg9
VDitto
p301
sg11
VSw,Sh,
p302
sg13
VWanderer
p303
sg15
V50
p304
sg17
g304
sg19
g120
sbag1
(g2
g3
Ntp305
Rp306
(dp307
g7
V103
p308
sg9
VExeggutor
p309
sg11
VSw,Sh,
p310
sg13
VWanderer
p311
sg15
V50
p312
sg17
g312
sg19
g120
sbag1
(g2
g3
Ntp313
Rp314
(dp315
g7
V132
p316
sg9
VDitto
p317
sg11
VSw,Sh,
p318
sg13
VWanderer
p319
sg15
V50
p320
sg17
g320
sg19
g120
sbag1
(g2
g3
Ntp321
Rp322
(dp323
g7
V132
p324
sg9
VDitto
p325
sg11
VSw,Sh,
p326
sg13
VWanderer
p327
sg15
V50
p328
sg17
g328
sg19
g120
sbag1
(g2
g3
Ntp329
Rp330
(dp331
g7
V132
p332
sg9
VDitto
p333
sg11
VSw,Sh,
p334
sg13
VWanderer
p335
sg15
V50
p336
sg17
g336
sg19
g120
sbag1
(g2
g3
Ntp337
Rp338
(dp339
g7
V479
p340
sg9
VRotom
p341
sg11
VSw,Sh,
p342
sg13
VWanderer
p343
sg15
V50
p344
sg17
g344
sg19
g120
sbag1
(g2
g3
Ntp345
Rp346
(dp347
g7
V479
p348
sg9
VRotom
p349
sg11
VSw,Sh,
p350
sg13
VWanderer
p351
sg15
V50
p352
sg17
g352
sg19
g120
sbag1
(g2
g3
Ntp353
Rp354
(dp355
g7
V479
p356
sg9
VRotom
p357
sg11
VSw,Sh,
p358
sg13
VWanderer
p359
sg15
V50
p360
sg17
g360
sg19
g120
sbag1
(g2
g3
Ntp361
Rp362
(dp363
g7
V479
p364
sg9
VRotom
p365
sg11
VSw,Sh,
p366
sg13
VWanderer
p367
sg15
V50
p368
sg17
g368
sg19
g120
sbag1
(g2
g3
Ntp369
Rp370
(dp371
g7
V479
p372
sg9
VRotom
p373
sg11
VSw,Sh,
p374
sg13
VWanderer
p375
sg15
V50
p376
sg17
g376
sg19
g120
sbag1
(g2
g3
Ntp377
Rp378
(dp379
g7
V479
p380
sg9
VRotom
p381
sg11
VSw,Sh,
p382
sg13
VWanderer
p383
sg15
V50
p384
sg17
g384
sg19
g120
sbag1
(g2
g3
Ntp385
Rp386
(dp387
g7
V321
p388
sg9
VWailord
p389
sg11
VSw,Sh,
p390
sg13
VWanderer
p391
sg15
V80
p392
sg17
g392
sg19
V0
p393
sbag1
(g2
g3
Ntp394
Rp395
(dp396
g7
V052
p397
sg9
VMeowth
p398
sg11
VSw,Sh,
p399
sg13
VTrade
p400
sg15
V15
p401
sg17
g401
sg19
V0
p402
sbag1
(g2
g3
Ntp403
Rp404
(dp405
g7
V077
p406
sg9
VPonyta
p407
sg11
g246
sg13
VTrade
p408
sg15
V15
p409
sg17
g409
sg19
V0
p410
sbag1
(g2
g3
Ntp411
Rp412
(dp413
g7
V083
p414
sg9
VFarfetch'd
p415
sg11
g265
sg13
VTrade
p416
sg15
V15
p417
sg17
g417
sg19
V0
p418
sbag1
(g2
g3
Ntp419
Rp420
(dp421
g7
V103
p422
sg9
VExeggutor
p423
sg11
VSw,Sh,
p424
sg13
VTrade
p425
sg15
V15
p426
sg17
g426
sg19
V0
p427
sbag1
(g2
g3
Ntp428
Rp429
(dp430
g7
V105
p431
sg9
VMarowak
p432
sg11
VSw,Sh,
p433
sg13
VTrade
p434
sg15
V15
p435
sg17
g435
sg19
V0
p436
sbag1
(g2
g3
Ntp437
Rp438
(dp439
g7
V110
p440
sg9
VWeezing
p441
sg11
VSw,Sh,
p442
sg13
VTrade
p443
sg15
V15
p444
sg17
g444
sg19
V0
p445
sbag1
(g2
g3
Ntp446
Rp447
(dp448
g7
V122
p449
sg9
VMr. Mime
p450
sg11
VSw,Sh,
p451
sg13
VTrade
p452
sg15
V15
p453
sg17
g453
sg19
V0
p454
sbag1
(g2
g3
Ntp455
Rp456
(dp457
g7
V222
p458
sg9
VCorsola
p459
sg11
g246
sg13
VTrade
p460
sg15
V15
p461
sg17
g461
sg19
V0
p462
sbag1
(g2
g3
Ntp463
Rp464
(dp465
g7
V263
p466
sg9
VZigzagoon
p467
sg11
VSw,Sh,
p468
sg13
VTrade
p469
sg15
V15
p470
sg17
g470
sg19
V0
p471
sbag1
(g2
g3
Ntp472
Rp473
(dp474
g7
V554
p475
sg9
VDarumaka
p476
sg11
g265
sg13
VTrade
p477
sg15
V15
p478
sg17
g478
sg19
V0
p479
sbag1
(g2
g3
Ntp480
Rp481
(dp482
g7
V618
p483
sg9
VStunfisk
p484
sg11
VSw,Sh,
p485
sg13
VTrade
p486
sg15
V15
p487
sg17
g487
sg19
V0
p488
sba.